; Listing generated by Microsoft (R) Optimizing Compiler Version 18.00.40629.0 

include listing.inc

INCLUDELIB OLDNAMES

PUBLIC	??_C@_0BB@MOGOBHAF@list?$DMT?$DO?5too?5long?$AA@ ; `string'
EXTRN	__imp_?terminate@@YAXXZ:PROC
;	COMDAT ??_C@_0BB@MOGOBHAF@list?$DMT?$DO?5too?5long?$AA@
CONST	SEGMENT
??_C@_0BB@MOGOBHAF@list?$DMT?$DO?5too?5long?$AA@ DB 'list<T> too long', 00H ; `string'
PUBLIC	??$_Fn@V?$xalloc@U?$_List_node@U?$_vector3@M@@PEAX@std@@@@U?$_vector3@M@@AEBU2@@_Alloc_construct@std@@SAXU_Wrap_int@1@AEAV?$xalloc@U?$_List_node@U?$_vector3@M@@PEAX@std@@@@PEAU?$_vector3@M@@AEBU4@@Z ; std::_Alloc_construct::_Fn<xalloc<std::_List_node<_vector3<float>,void * __ptr64> >,_vector3<float>,_vector3<float> const & __ptr64>
PUBLIC	??$construct@U?$_vector3@M@@AEBU1@@?$allocator_traits@V?$xalloc@U?$_List_node@U?$_vector3@M@@PEAX@std@@@@@std@@SAXAEAV?$xalloc@U?$_List_node@U?$_vector3@M@@PEAX@std@@@@PEAU?$_vector3@M@@AEBU3@@Z ; std::allocator_traits<xalloc<std::_List_node<_vector3<float>,void * __ptr64> > >::construct<_vector3<float>,_vector3<float> const & __ptr64>
PUBLIC	??$_Fn@V?$xalloc@U?$_List_node@U?$_vector3@M@@PEAX@std@@@@PEAU?$_List_node@U?$_vector3@M@@PEAX@std@@AEAPEAU23@@_Alloc_construct@std@@SAXU_Wrap_int@1@AEAV?$xalloc@U?$_List_node@U?$_vector3@M@@PEAX@std@@@@PEAPEAU?$_List_node@U?$_vector3@M@@PEAX@1@AEAPEAU41@@Z ; std::_Alloc_construct::_Fn<xalloc<std::_List_node<_vector3<float>,void * __ptr64> >,std::_List_node<_vector3<float>,void * __ptr64> * __ptr64,std::_List_node<_vector3<float>,void * __ptr64> * __ptr64 & __ptr64>
PUBLIC	??$_Fn@V?$xalloc@U?$_List_node@U?$_vector3@M@@PEAX@std@@@@U?$_vector3@M@@@_Alloc_destroy@std@@SAXU_Wrap_int@1@AEAV?$xalloc@U?$_List_node@U?$_vector3@M@@PEAX@std@@@@PEAU?$_vector3@M@@@Z ; std::_Alloc_destroy::_Fn<xalloc<std::_List_node<_vector3<float>,void * __ptr64> >,_vector3<float> >
PUBLIC	??$_Fn@V?$xalloc@U?$_List_node@U?$_vector3@M@@PEAX@std@@@@PEAU?$_List_node@U?$_vector3@M@@PEAX@std@@@_Alloc_destroy@std@@SAXU_Wrap_int@1@AEAV?$xalloc@U?$_List_node@U?$_vector3@M@@PEAX@std@@@@PEAPEAU?$_List_node@U?$_vector3@M@@PEAX@1@@Z ; std::_Alloc_destroy::_Fn<xalloc<std::_List_node<_vector3<float>,void * __ptr64> >,std::_List_node<_vector3<float>,void * __ptr64> * __ptr64>
PUBLIC	??$?8U?$_List_node@U?$_vector3@M@@PEAX@std@@U01@@@YA_NAEBV?$xalloc@U?$_List_node@U?$_vector3@M@@PEAX@std@@@@0@Z ; operator==<std::_List_node<_vector3<float>,void * __ptr64>,std::_List_node<_vector3<float>,void * __ptr64> >
PUBLIC	??$construct@U?$_vector3@M@@AEBU1@@?$_Wrap_alloc@V?$xalloc@U?$_List_node@U?$_vector3@M@@PEAX@std@@@@@std@@QEAAXPEAU?$_vector3@M@@AEBU2@@Z ; std::_Wrap_alloc<xalloc<std::_List_node<_vector3<float>,void * __ptr64> > >::construct<_vector3<float>,_vector3<float> const & __ptr64>
PUBLIC	??0?$xalloc@U?$_List_node@U?$_vector3@M@@PEAX@std@@@@QEAA@AEBV0@@Z ; xalloc<std::_List_node<_vector3<float>,void * __ptr64> >::xalloc<std::_List_node<_vector3<float>,void * __ptr64> >
PUBLIC	??$construct@PEAU?$_List_node@U?$_vector3@M@@PEAX@std@@AEAPEAU12@@?$allocator_traits@V?$xalloc@U?$_List_node@U?$_vector3@M@@PEAX@std@@@@@std@@SAXAEAV?$xalloc@U?$_List_node@U?$_vector3@M@@PEAX@std@@@@PEAPEAU?$_List_node@U?$_vector3@M@@PEAX@1@AEAPEAU31@@Z ; std::allocator_traits<xalloc<std::_List_node<_vector3<float>,void * __ptr64> > >::construct<std::_List_node<_vector3<float>,void * __ptr64> * __ptr64,std::_List_node<_vector3<float>,void * __ptr64> * __ptr64 & __ptr64>
PUBLIC	??$forward@AEAPEAU?$_List_node@U?$_vector3@M@@PEAX@std@@@std@@YAAEAPEAU?$_List_node@U?$_vector3@M@@PEAX@0@AEAPEAU10@@Z ; std::forward<std::_List_node<_vector3<float>,void * __ptr64> * __ptr64 & __ptr64>
PUBLIC	??$destroy@U?$_vector3@M@@@?$allocator_traits@V?$xalloc@U?$_List_node@U?$_vector3@M@@PEAX@std@@@@@std@@SAXAEAV?$xalloc@U?$_List_node@U?$_vector3@M@@PEAX@std@@@@PEAU?$_vector3@M@@@Z ; std::allocator_traits<xalloc<std::_List_node<_vector3<float>,void * __ptr64> > >::destroy<_vector3<float> >
PUBLIC	??$destroy@PEAU?$_List_node@U?$_vector3@M@@PEAX@std@@@?$allocator_traits@V?$xalloc@U?$_List_node@U?$_vector3@M@@PEAX@std@@@@@std@@SAXAEAV?$xalloc@U?$_List_node@U?$_vector3@M@@PEAX@std@@@@PEAPEAU?$_List_node@U?$_vector3@M@@PEAX@1@@Z ; std::allocator_traits<xalloc<std::_List_node<_vector3<float>,void * __ptr64> > >::destroy<std::_List_node<_vector3<float>,void * __ptr64> * __ptr64>
PUBLIC	??$?8V?$xalloc@U?$_List_node@U?$_vector3@M@@PEAX@std@@@@V0@@std@@YA_NAEBU?$_Wrap_alloc@V?$xalloc@U?$_List_node@U?$_vector3@M@@PEAX@std@@@@@0@0@Z ; std::operator==<xalloc<std::_List_node<_vector3<float>,void * __ptr64> >,xalloc<std::_List_node<_vector3<float>,void * __ptr64> > >
PUBLIC	??$_Buynode@AEBU?$_vector3@M@@@?$_List_buy@U?$_vector3@M@@V?$xalloc@U?$_vector3@M@@@@@std@@QEAAPEAU?$_List_node@U?$_vector3@M@@PEAX@1@PEAU21@0AEBU?$_vector3@M@@@Z ; std::_List_buy<_vector3<float>,xalloc<_vector3<float> > >::_Buynode<_vector3<float> const & __ptr64>
PUBLIC	??$forward@AEBU?$_vector3@M@@@std@@YAAEBU?$_vector3@M@@AEBU1@@Z ; std::forward<_vector3<float> const & __ptr64>
PUBLIC	?max_size@?$xalloc@U?$_List_node@U?$_vector3@M@@PEAX@std@@@@QEBA_KXZ ; xalloc<std::_List_node<_vector3<float>,void * __ptr64> >::max_size
PUBLIC	??$_Fn@V?$xalloc@U?$_List_node@U?$_vector3@M@@PEAX@std@@@@@_Alloc_max_size@std@@SA_KHAEBV?$xalloc@U?$_List_node@U?$_vector3@M@@PEAX@std@@@@@Z ; std::_Alloc_max_size::_Fn<xalloc<std::_List_node<_vector3<float>,void * __ptr64> > >
PUBLIC	??$xr_alloc@U?$_List_node@U?$_vector3@M@@PEAX@std@@@@YAPEAU?$_List_node@U?$_vector3@M@@PEAX@std@@I@Z ; xr_alloc<std::_List_node<_vector3<float>,void * __ptr64> >
PUBLIC	??$xr_free@U?$_List_node@U?$_vector3@M@@PEAX@std@@@@YAXAEAPEAU?$_List_node@U?$_vector3@M@@PEAX@std@@@Z ; xr_free<std::_List_node<_vector3<float>,void * __ptr64> >
PUBLIC	??$construct@PEAU?$_List_node@U?$_vector3@M@@PEAX@std@@AEAPEAU12@@?$_Wrap_alloc@V?$xalloc@U?$_List_node@U?$_vector3@M@@PEAX@std@@@@@std@@QEAAXPEAPEAU?$_List_node@U?$_vector3@M@@PEAX@1@AEAPEAU21@@Z ; std::_Wrap_alloc<xalloc<std::_List_node<_vector3<float>,void * __ptr64> > >::construct<std::_List_node<_vector3<float>,void * __ptr64> * __ptr64,std::_List_node<_vector3<float>,void * __ptr64> * __ptr64 & __ptr64>
PUBLIC	??$destroy@U?$_vector3@M@@@?$_Wrap_alloc@V?$xalloc@U?$_List_node@U?$_vector3@M@@PEAX@std@@@@@std@@QEAAXPEAU?$_vector3@M@@@Z ; std::_Wrap_alloc<xalloc<std::_List_node<_vector3<float>,void * __ptr64> > >::destroy<_vector3<float> >
PUBLIC	??$addressof@U?$_vector3@M@@@std@@YAPEAU?$_vector3@M@@AEAU1@@Z ; std::addressof<_vector3<float> >
PUBLIC	??$destroy@PEAU?$_List_node@U?$_vector3@M@@PEAX@std@@@?$_Wrap_alloc@V?$xalloc@U?$_List_node@U?$_vector3@M@@PEAX@std@@@@@std@@QEAAXPEAPEAU?$_List_node@U?$_vector3@M@@PEAX@1@@Z ; std::_Wrap_alloc<xalloc<std::_List_node<_vector3<float>,void * __ptr64> > >::destroy<std::_List_node<_vector3<float>,void * __ptr64> * __ptr64>
PUBLIC	??$addressof@PEAU?$_List_node@U?$_vector3@M@@PEAX@std@@@std@@YAPEAPEAU?$_List_node@U?$_vector3@M@@PEAX@0@AEAPEAU10@@Z ; std::addressof<std::_List_node<_vector3<float>,void * __ptr64> * __ptr64>
PUBLIC	??$?9V?$xalloc@U?$_List_node@U?$_vector3@M@@PEAX@std@@@@V0@@std@@YA_NAEBU?$_Wrap_alloc@V?$xalloc@U?$_List_node@U?$_vector3@M@@PEAX@std@@@@@0@0@Z ; std::operator!=<xalloc<std::_List_node<_vector3<float>,void * __ptr64> >,xalloc<std::_List_node<_vector3<float>,void * __ptr64> > >
PUBLIC	??$_Insert@AEBU?$_vector3@M@@@?$list@U?$_vector3@M@@V?$xalloc@U?$_vector3@M@@@@@std@@QEAAXV?$_List_unchecked_const_iterator@V?$_List_val@U?$_List_simple_types@U?$_vector3@M@@@std@@@std@@U_Iterator_base0@2@@1@AEBU?$_vector3@M@@@Z ; std::list<_vector3<float>,xalloc<_vector3<float> > >::_Insert<_vector3<float> const & __ptr64>
PUBLIC	?max_size@?$allocator_traits@V?$xalloc@U?$_List_node@U?$_vector3@M@@PEAX@std@@@@@std@@SA_KAEBV?$xalloc@U?$_List_node@U?$_vector3@M@@PEAX@std@@@@@Z ; std::allocator_traits<xalloc<std::_List_node<_vector3<float>,void * __ptr64> > >::max_size
PUBLIC	?allocate@?$xalloc@U?$_List_node@U?$_vector3@M@@PEAX@std@@@@QEBAPEAU?$_List_node@U?$_vector3@M@@PEAX@std@@_KPEBX@Z ; xalloc<std::_List_node<_vector3<float>,void * __ptr64> >::allocate
PUBLIC	?max_size@?$_Wrap_alloc@V?$xalloc@U?$_List_node@U?$_vector3@M@@PEAX@std@@@@@std@@QEBA_KXZ ; std::_Wrap_alloc<xalloc<std::_List_node<_vector3<float>,void * __ptr64> > >::max_size
PUBLIC	?allocate@?$_Wrap_alloc@V?$xalloc@U?$_List_node@U?$_vector3@M@@PEAX@std@@@@@std@@QEAAPEAU?$_List_node@U?$_vector3@M@@PEAX@2@_K@Z ; std::_Wrap_alloc<xalloc<std::_List_node<_vector3<float>,void * __ptr64> > >::allocate
PUBLIC	?deallocate@?$xalloc@U?$_List_node@U?$_vector3@M@@PEAX@std@@@@QEBAXPEAU?$_List_node@U?$_vector3@M@@PEAX@std@@_K@Z ; xalloc<std::_List_node<_vector3<float>,void * __ptr64> >::deallocate
PUBLIC	??0?$xalloc@U?$_List_node@U?$_vector3@M@@PEAX@std@@@@QEAA@XZ ; xalloc<std::_List_node<_vector3<float>,void * __ptr64> >::xalloc<std::_List_node<_vector3<float>,void * __ptr64> >
PUBLIC	?_Buynode0@?$_List_alloc@$0A@U?$_List_base_types@U?$_vector3@M@@V?$xalloc@U?$_vector3@M@@@@@std@@@std@@QEAAPEAU?$_List_node@U?$_vector3@M@@PEAX@2@PEAU32@0@Z ; std::_List_alloc<0,std::_List_base_types<_vector3<float>,xalloc<_vector3<float> > > >::_Buynode0
PUBLIC	?max_size@?$list@U?$_vector3@M@@V?$xalloc@U?$_vector3@M@@@@@std@@QEBA_KXZ ; std::list<_vector3<float>,xalloc<_vector3<float> > >::max_size
PUBLIC	?_Mynode@?$_List_unchecked_const_iterator@V?$_List_val@U?$_List_simple_types@U?$_vector3@M@@@std@@@std@@U_Iterator_base0@2@@std@@QEBAPEAU?$_List_node@U?$_vector3@M@@PEAX@2@XZ ; std::_List_unchecked_const_iterator<std::_List_val<std::_List_simple_types<_vector3<float> > >,std::_Iterator_base0>::_Mynode
PUBLIC	?_Prevnode@?$_List_val@U?$_List_simple_types@U?$_vector3@M@@@std@@@std@@SAAEAPEAU?$_List_node@U?$_vector3@M@@PEAX@2@PEAU32@@Z ; std::_List_val<std::_List_simple_types<_vector3<float> > >::_Prevnode
PUBLIC	??0?$_List_val@U?$_List_simple_types@U?$_vector3@M@@@std@@@std@@QEAA@XZ ; std::_List_val<std::_List_simple_types<_vector3<float> > >::_List_val<std::_List_simple_types<_vector3<float> > >
PUBLIC	?deallocate@?$_Wrap_alloc@V?$xalloc@U?$_List_node@U?$_vector3@M@@PEAX@std@@@@@std@@QEAAXPEAU?$_List_node@U?$_vector3@M@@PEAX@2@_K@Z ; std::_Wrap_alloc<xalloc<std::_List_node<_vector3<float>,void * __ptr64> > >::deallocate
PUBLIC	??0?$_Wrap_alloc@V?$xalloc@U?$_List_node@U?$_vector3@M@@PEAX@std@@@@@std@@QEAA@XZ ; std::_Wrap_alloc<xalloc<std::_List_node<_vector3<float>,void * __ptr64> > >::_Wrap_alloc<xalloc<std::_List_node<_vector3<float>,void * __ptr64> > >
PUBLIC	?_Buyheadnode@?$_List_alloc@$0A@U?$_List_base_types@U?$_vector3@M@@V?$xalloc@U?$_vector3@M@@@@@std@@@std@@QEAAPEAU?$_List_node@U?$_vector3@M@@PEAX@2@XZ ; std::_List_alloc<0,std::_List_base_types<_vector3<float>,xalloc<_vector3<float> > > >::_Buyheadnode
PUBLIC	?_Freenode@?$_List_buy@U?$_vector3@M@@V?$xalloc@U?$_vector3@M@@@@@std@@QEAAXPEAU?$_List_node@U?$_vector3@M@@PEAX@2@@Z ; std::_List_buy<_vector3<float>,xalloc<_vector3<float> > >::_Freenode
PUBLIC	?_Incsize@?$list@U?$_vector3@M@@V?$xalloc@U?$_vector3@M@@@@@std@@QEAAX_K@Z ; std::list<_vector3<float>,xalloc<_vector3<float> > >::_Incsize
PUBLIC	??0?$_List_unchecked_iterator@V?$_List_val@U?$_List_simple_types@U?$_vector3@M@@@std@@@std@@@std@@QEAA@PEAU?$_List_node@U?$_vector3@M@@PEAX@1@PEBV?$_List_val@U?$_List_simple_types@U?$_vector3@M@@@std@@@1@@Z ; std::_List_unchecked_iterator<std::_List_val<std::_List_simple_types<_vector3<float> > > >::_List_unchecked_iterator<std::_List_val<std::_List_simple_types<_vector3<float> > > >
PUBLIC	??0?$_List_unchecked_const_iterator@V?$_List_val@U?$_List_simple_types@U?$_vector3@M@@@std@@@std@@U_Iterator_base0@2@@std@@QEAA@PEAU?$_List_node@U?$_vector3@M@@PEAX@1@PEBV?$_List_val@U?$_List_simple_types@U?$_vector3@M@@@std@@@1@@Z ; std::_List_unchecked_const_iterator<std::_List_val<std::_List_simple_types<_vector3<float> > >,std::_Iterator_base0>::_List_unchecked_const_iterator<std::_List_val<std::_List_simple_types<_vector3<float> > >,std::_Iterator_base0>
PUBLIC	??0?$_List_unchecked_const_iterator@V?$_List_val@U?$_List_simple_types@U?$_vector3@M@@@std@@@std@@U_Iterator_base0@2@@std@@QEAA@XZ ; std::_List_unchecked_const_iterator<std::_List_val<std::_List_simple_types<_vector3<float> > >,std::_Iterator_base0>::_List_unchecked_const_iterator<std::_List_val<std::_List_simple_types<_vector3<float> > >,std::_Iterator_base0>
PUBLIC	?_Myval@?$_List_val@U?$_List_simple_types@U?$_vector3@M@@@std@@@std@@SAAEAU?$_vector3@M@@PEAU?$_List_node@U?$_vector3@M@@PEAX@2@@Z ; std::_List_val<std::_List_simple_types<_vector3<float> > >::_Myval
PUBLIC	?_Getal@?$_List_alloc@$0A@U?$_List_base_types@U?$_vector3@M@@V?$xalloc@U?$_vector3@M@@@@@std@@@std@@QEBA?AU?$_Wrap_alloc@V?$xalloc@U?$_List_node@U?$_vector3@M@@PEAX@std@@@@@2@XZ ; std::_List_alloc<0,std::_List_base_types<_vector3<float>,xalloc<_vector3<float> > > >::_Getal
PUBLIC	?_Freeheadnode@?$_List_alloc@$0A@U?$_List_base_types@U?$_vector3@M@@V?$xalloc@U?$_vector3@M@@@@@std@@@std@@QEAAXPEAU?$_List_node@U?$_vector3@M@@PEAX@2@@Z ; std::_List_alloc<0,std::_List_base_types<_vector3<float>,xalloc<_vector3<float> > > >::_Freeheadnode
PUBLIC	??0?$_List_alloc@$0A@U?$_List_base_types@U?$_vector3@M@@V?$xalloc@U?$_vector3@M@@@@@std@@@std@@QEAA@AEBV?$xalloc@U?$_vector3@M@@@@@Z ; std::_List_alloc<0,std::_List_base_types<_vector3<float>,xalloc<_vector3<float> > > >::_List_alloc<0,std::_List_base_types<_vector3<float>,xalloc<_vector3<float> > > >
PUBLIC	?_Splice_same@?$list@U?$_vector3@M@@V?$xalloc@U?$_vector3@M@@@@@std@@QEAAXV?$_List_const_iterator@V?$_List_val@U?$_List_simple_types@U?$_vector3@M@@@std@@@std@@@2@AEAV12@00_K@Z ; std::list<_vector3<float>,xalloc<_vector3<float> > >::_Splice_same
PUBLIC	?clear@?$list@U?$_vector3@M@@V?$xalloc@U?$_vector3@M@@@@@std@@QEAAXXZ ; std::list<_vector3<float>,xalloc<_vector3<float> > >::clear
PUBLIC	??E?$_List_const_iterator@V?$_List_val@U?$_List_simple_types@U?$_vector3@M@@@std@@@std@@@std@@QEAAAEAV01@XZ ; std::_List_const_iterator<std::_List_val<std::_List_simple_types<_vector3<float> > > >::operator++
PUBLIC	??D?$_List_const_iterator@V?$_List_val@U?$_List_simple_types@U?$_vector3@M@@@std@@@std@@@std@@QEBAAEBU?$_vector3@M@@XZ ; std::_List_const_iterator<std::_List_val<std::_List_simple_types<_vector3<float> > > >::operator*
PUBLIC	??0?$_List_const_iterator@V?$_List_val@U?$_List_simple_types@U?$_vector3@M@@@std@@@std@@@std@@QEAA@PEAU?$_List_node@U?$_vector3@M@@PEAX@1@PEBV?$_List_val@U?$_List_simple_types@U?$_vector3@M@@@std@@@1@@Z ; std::_List_const_iterator<std::_List_val<std::_List_simple_types<_vector3<float> > > >::_List_const_iterator<std::_List_val<std::_List_simple_types<_vector3<float> > > >
PUBLIC	??0?$_List_const_iterator@V?$_List_val@U?$_List_simple_types@U?$_vector3@M@@@std@@@std@@@std@@QEAA@XZ ; std::_List_const_iterator<std::_List_val<std::_List_simple_types<_vector3<float> > > >::_List_const_iterator<std::_List_val<std::_List_simple_types<_vector3<float> > > >
PUBLIC	??0?$_List_iterator@V?$_List_val@U?$_List_simple_types@U?$_vector3@M@@@std@@@std@@@std@@QEAA@PEAU?$_List_node@U?$_vector3@M@@PEAX@1@PEBV?$_List_val@U?$_List_simple_types@U?$_vector3@M@@@std@@@1@@Z ; std::_List_iterator<std::_List_val<std::_List_simple_types<_vector3<float> > > >::_List_iterator<std::_List_val<std::_List_simple_types<_vector3<float> > > >
PUBLIC	?_Nextnode@?$_List_val@U?$_List_simple_types@U?$_vector3@M@@@std@@@std@@SAAEAPEAU?$_List_node@U?$_vector3@M@@PEAX@2@PEAU32@@Z ; std::_List_val<std::_List_simple_types<_vector3<float> > >::_Nextnode
PUBLIC	??1?$_List_alloc@$0A@U?$_List_base_types@U?$_vector3@M@@V?$xalloc@U?$_vector3@M@@@@@std@@@std@@QEAA@XZ ; std::_List_alloc<0,std::_List_base_types<_vector3<float>,xalloc<_vector3<float> > > >::~_List_alloc<0,std::_List_base_types<_vector3<float>,xalloc<_vector3<float> > > >
PUBLIC	??0?$_List_buy@U?$_vector3@M@@V?$xalloc@U?$_vector3@M@@@@@std@@QEAA@AEBV?$xalloc@U?$_vector3@M@@@@@Z ; std::_List_buy<_vector3<float>,xalloc<_vector3<float> > >::_List_buy<_vector3<float>,xalloc<_vector3<float> > >
PUBLIC	?_Tidy@?$list@U?$_vector3@M@@V?$xalloc@U?$_vector3@M@@@@@std@@QEAAXXZ ; std::list<_vector3<float>,xalloc<_vector3<float> > >::_Tidy
PUBLIC	?_Splice@?$list@U?$_vector3@M@@V?$xalloc@U?$_vector3@M@@@@@std@@QEAAXV?$_List_const_iterator@V?$_List_val@U?$_List_simple_types@U?$_vector3@M@@@std@@@std@@@2@AEAV12@00_K@Z ; std::list<_vector3<float>,xalloc<_vector3<float> > >::_Splice
PUBLIC	?_Unchecked_end@?$list@U?$_vector3@M@@V?$xalloc@U?$_vector3@M@@@@@std@@QEAA?AV?$_List_unchecked_iterator@V?$_List_val@U?$_List_simple_types@U?$_vector3@M@@@std@@@std@@@2@XZ ; std::list<_vector3<float>,xalloc<_vector3<float> > >::_Unchecked_end
PUBLIC	??0?$xalloc@U?$_vector3@M@@@@QEAA@XZ		; xalloc<_vector3<float> >::xalloc<_vector3<float> >
PUBLIC	??1?$_List_buy@U?$_vector3@M@@V?$xalloc@U?$_vector3@M@@@@@std@@QEAA@XZ ; std::_List_buy<_vector3<float>,xalloc<_vector3<float> > >::~_List_buy<_vector3<float>,xalloc<_vector3<float> > >
PUBLIC	??9?$_List_const_iterator@V?$_List_val@U?$_List_simple_types@U?$_vector3@M@@@std@@@std@@@std@@QEBA_NAEBV01@@Z ; std::_List_const_iterator<std::_List_val<std::_List_simple_types<_vector3<float> > > >::operator!=
PUBLIC	??8?$_List_const_iterator@V?$_List_val@U?$_List_simple_types@U?$_vector3@M@@@std@@@std@@@std@@QEBA_NAEBV01@@Z ; std::_List_const_iterator<std::_List_val<std::_List_simple_types<_vector3<float> > > >::operator==
PUBLIC	??E?$_List_iterator@V?$_List_val@U?$_List_simple_types@U?$_vector3@M@@@std@@@std@@@std@@QEAA?AV01@H@Z ; std::_List_iterator<std::_List_val<std::_List_simple_types<_vector3<float> > > >::operator++
PUBLIC	??E?$_List_iterator@V?$_List_val@U?$_List_simple_types@U?$_vector3@M@@@std@@@std@@@std@@QEAAAEAV01@XZ ; std::_List_iterator<std::_List_val<std::_List_simple_types<_vector3<float> > > >::operator++
PUBLIC	??D?$_List_iterator@V?$_List_val@U?$_List_simple_types@U?$_vector3@M@@@std@@@std@@@std@@QEBAAEAU?$_vector3@M@@XZ ; std::_List_iterator<std::_List_val<std::_List_simple_types<_vector3<float> > > >::operator*
PUBLIC	??0?$_List_iterator@V?$_List_val@U?$_List_simple_types@U?$_vector3@M@@@std@@@std@@@std@@QEAA@XZ ; std::_List_iterator<std::_List_val<std::_List_simple_types<_vector3<float> > > >::_List_iterator<std::_List_val<std::_List_simple_types<_vector3<float> > > >
PUBLIC	?splice@?$list@U?$_vector3@M@@V?$xalloc@U?$_vector3@M@@@@@std@@QEAAXV?$_List_const_iterator@V?$_List_val@U?$_List_simple_types@U?$_vector3@M@@@std@@@std@@@2@AEAV12@0@Z ; std::list<_vector3<float>,xalloc<_vector3<float> > >::splice
PUBLIC	?push_back@?$list@U?$_vector3@M@@V?$xalloc@U?$_vector3@M@@@@@std@@QEAAXAEBU?$_vector3@M@@@Z ; std::list<_vector3<float>,xalloc<_vector3<float> > >::push_back
PUBLIC	?end@?$list@U?$_vector3@M@@V?$xalloc@U?$_vector3@M@@@@@std@@QEAA?AV?$_List_iterator@V?$_List_val@U?$_List_simple_types@U?$_vector3@M@@@std@@@std@@@2@XZ ; std::list<_vector3<float>,xalloc<_vector3<float> > >::end
PUBLIC	?begin@?$list@U?$_vector3@M@@V?$xalloc@U?$_vector3@M@@@@@std@@QEAA?AV?$_List_iterator@V?$_List_val@U?$_List_simple_types@U?$_vector3@M@@@std@@@std@@@2@XZ ; std::list<_vector3<float>,xalloc<_vector3<float> > >::begin
PUBLIC	??1?$list@U?$_vector3@M@@V?$xalloc@U?$_vector3@M@@@@@std@@QEAA@XZ ; std::list<_vector3<float>,xalloc<_vector3<float> > >::~list<_vector3<float>,xalloc<_vector3<float> > >
PUBLIC	??0?$list@U?$_vector3@M@@V?$xalloc@U?$_vector3@M@@@@@std@@QEAA@XZ ; std::list<_vector3<float>,xalloc<_vector3<float> > >::list<_vector3<float>,xalloc<_vector3<float> > >
PUBLIC	?distance_to_sqr@?$_vector3@M@@QEBAMAEBU1@@Z	; _vector3<float>::distance_to_sqr
PUBLIC	?dotproduct@?$_vector3@M@@QEBAMAEBU1@@Z		; _vector3<float>::dotproduct
PUBLIC	?square_magnitude@?$_vector3@M@@QEBAMXZ		; _vector3<float>::square_magnitude
PUBLIC	?mad@?$_vector3@M@@QEAAAEAU1@AEBU1@0M@Z		; _vector3<float>::mad
PUBLIC	?sub@?$_vector3@M@@QEAAAEAU1@AEBU1@0@Z		; _vector3<float>::sub
PUBLIC	?set@?$_vector3@M@@QEAAAEAU1@AEBU1@@Z		; _vector3<float>::set
PUBLIC	?set@?$_vector3@M@@QEAAAEAU1@MMM@Z		; _vector3<float>::set
PUBLIC	??A?$_vector3@M@@QEAAAEAMH@Z			; _vector3<float>::operator[]
PUBLIC	??1Miniball@@QEAA@XZ				; Miniball::~Miniball
PUBLIC	?Fsphere_compute@@YAXAEAU?$_sphere@M@@PEBU?$_vector3@M@@H@Z ; Fsphere_compute
PUBLIC	?push@Basis@@QEAA_NAEBU?$_vector3@M@@@Z		; Basis::push
PUBLIC	?pop@Basis@@QEAAXXZ				; Basis::pop
PUBLIC	??0Basis@@QEAA@XZ				; Basis::Basis
PUBLIC	?reset@Basis@@QEAAXXZ				; Basis::reset
PUBLIC	?excess@Basis@@QEBAMAEBU?$_vector3@M@@@Z	; Basis::excess
PUBLIC	?size@Basis@@QEBAHXZ				; Basis::size
PUBLIC	?squared_radius@Basis@@QEBAMXZ			; Basis::squared_radius
PUBLIC	?center@Basis@@QEBAPEBU?$_vector3@M@@XZ		; Basis::center
PUBLIC	?squared_radius@Miniball@@QEBAMXZ		; Miniball::squared_radius
PUBLIC	?center@Miniball@@QEBA?AU?$_vector3@M@@XZ	; Miniball::center
PUBLIC	?max_excess@Miniball@@AEBAMV?$_List_iterator@V?$_List_val@U?$_List_simple_types@U?$_vector3@M@@@std@@@std@@@std@@0AEAV23@@Z ; Miniball::max_excess
PUBLIC	?pivot_mb@Miniball@@AEAAXV?$_List_iterator@V?$_List_val@U?$_List_simple_types@U?$_vector3@M@@@std@@@std@@@std@@@Z ; Miniball::pivot_mb
PUBLIC	?move_to_front@Miniball@@AEAAXV?$_List_iterator@V?$_List_val@U?$_List_simple_types@U?$_vector3@M@@@std@@@std@@@std@@@Z ; Miniball::move_to_front
PUBLIC	?mtf_mb@Miniball@@AEAAXV?$_List_iterator@V?$_List_val@U?$_List_simple_types@U?$_vector3@M@@@std@@@std@@@std@@@Z ; Miniball::mtf_mb
PUBLIC	?build@Miniball@@QEAAXXZ			; Miniball::build
PUBLIC	?check_in@Miniball@@QEAAXAEBU?$_vector3@M@@@Z	; Miniball::check_in
PUBLIC	??1?$xr_list@U?$_vector3@M@@V?$xalloc@U?$_vector3@M@@@@@@QEAA@XZ ; xr_list<_vector3<float>,xalloc<_vector3<float> > >::~xr_list<_vector3<float>,xalloc<_vector3<float> > >
PUBLIC	??0?$xr_list@U?$_vector3@M@@V?$xalloc@U?$_vector3@M@@@@@@QEAA@XZ ; xr_list<_vector3<float>,xalloc<_vector3<float> > >::xr_list<_vector3<float>,xalloc<_vector3<float> > >
PUBLIC	??0Miniball@@QEAA@XZ				; Miniball::Miniball
;	COMDAT pdata
pdata	SEGMENT
$pdata$??$_Buynode@AEBU?$_vector3@M@@@?$_List_buy@U?$_vector3@M@@V?$xalloc@U?$_vector3@M@@@@@std@@QEAAPEAU?$_List_node@U?$_vector3@M@@PEAX@1@PEAU21@0AEBU?$_vector3@M@@@Z DD imagerel $LN41
	DD	imagerel $LN41+67
	DD	imagerel $unwind$??$_Buynode@AEBU?$_vector3@M@@@?$_List_buy@U?$_vector3@M@@V?$xalloc@U?$_vector3@M@@@@@std@@QEAAPEAU?$_List_node@U?$_vector3@M@@PEAX@1@PEAU21@0AEBU?$_vector3@M@@@Z
pdata	ENDS
;	COMDAT pdata
pdata	SEGMENT
$pdata$?catch$0@?0???$_Buynode@AEBU?$_vector3@M@@@?$_List_buy@U?$_vector3@M@@V?$xalloc@U?$_vector3@M@@@@@std@@QEAAPEAU?$_List_node@U?$_vector3@M@@PEAX@1@PEAU21@0AEBU?$_vector3@M@@@Z@4HA DD imagerel ?catch$0@?0???$_Buynode@AEBU?$_vector3@M@@@?$_List_buy@U?$_vector3@M@@V?$xalloc@U?$_vector3@M@@@@@std@@QEAAPEAU?$_List_node@U?$_vector3@M@@PEAX@1@PEAU21@0AEBU?$_vector3@M@@@Z@4HA
	DD	imagerel ?catch$0@?0???$_Buynode@AEBU?$_vector3@M@@@?$_List_buy@U?$_vector3@M@@V?$xalloc@U?$_vector3@M@@@@@std@@QEAAPEAU?$_List_node@U?$_vector3@M@@PEAX@1@PEAU21@0AEBU?$_vector3@M@@@Z@4HA+40
	DD	imagerel $unwind$?catch$0@?0???$_Buynode@AEBU?$_vector3@M@@@?$_List_buy@U?$_vector3@M@@V?$xalloc@U?$_vector3@M@@@@@std@@QEAAPEAU?$_List_node@U?$_vector3@M@@PEAX@1@PEAU21@0AEBU?$_vector3@M@@@Z@4HA
pdata	ENDS
;	COMDAT pdata
pdata	SEGMENT
$pdata$??$xr_free@U?$_List_node@U?$_vector3@M@@PEAX@std@@@@YAXAEAPEAU?$_List_node@U?$_vector3@M@@PEAX@std@@@Z DD imagerel $LN30
	DD	imagerel $LN30+87
	DD	imagerel $unwind$??$xr_free@U?$_List_node@U?$_vector3@M@@PEAX@std@@@@YAXAEAPEAU?$_List_node@U?$_vector3@M@@PEAX@std@@@Z
pdata	ENDS
;	COMDAT pdata
pdata	SEGMENT
$pdata$0$??$xr_free@U?$_List_node@U?$_vector3@M@@PEAX@std@@@@YAXAEAPEAU?$_List_node@U?$_vector3@M@@PEAX@std@@@Z DD imagerel $LN30+87
	DD	imagerel $LN30+131
	DD	imagerel $chain$0$??$xr_free@U?$_List_node@U?$_vector3@M@@PEAX@std@@@@YAXAEAPEAU?$_List_node@U?$_vector3@M@@PEAX@std@@@Z
pdata	ENDS
;	COMDAT pdata
pdata	SEGMENT
$pdata$1$??$xr_free@U?$_List_node@U?$_vector3@M@@PEAX@std@@@@YAXAEAPEAU?$_List_node@U?$_vector3@M@@PEAX@std@@@Z DD imagerel $LN30+131
	DD	imagerel $LN30+149
	DD	imagerel $chain$1$??$xr_free@U?$_List_node@U?$_vector3@M@@PEAX@std@@@@YAXAEAPEAU?$_List_node@U?$_vector3@M@@PEAX@std@@@Z
pdata	ENDS
;	COMDAT pdata
pdata	SEGMENT
$pdata$??$_Insert@AEBU?$_vector3@M@@@?$list@U?$_vector3@M@@V?$xalloc@U?$_vector3@M@@@@@std@@QEAAXV?$_List_unchecked_const_iterator@V?$_List_val@U?$_List_simple_types@U?$_vector3@M@@@std@@@std@@U_Iterator_base0@2@@1@AEBU?$_vector3@M@@@Z DD imagerel $LN33
	DD	imagerel $LN33+97
	DD	imagerel $unwind$??$_Insert@AEBU?$_vector3@M@@@?$list@U?$_vector3@M@@V?$xalloc@U?$_vector3@M@@@@@std@@QEAAXV?$_List_unchecked_const_iterator@V?$_List_val@U?$_List_simple_types@U?$_vector3@M@@@std@@@std@@U_Iterator_base0@2@@1@AEBU?$_vector3@M@@@Z
pdata	ENDS
;	COMDAT pdata
pdata	SEGMENT
$pdata$?deallocate@?$xalloc@U?$_List_node@U?$_vector3@M@@PEAX@std@@@@QEBAXPEAU?$_List_node@U?$_vector3@M@@PEAX@std@@_K@Z DD imagerel $LN4
	DD	imagerel $LN4+24
	DD	imagerel $unwind$?deallocate@?$xalloc@U?$_List_node@U?$_vector3@M@@PEAX@std@@@@QEBAXPEAU?$_List_node@U?$_vector3@M@@PEAX@std@@_K@Z
pdata	ENDS
;	COMDAT pdata
pdata	SEGMENT
$pdata$?_Buynode0@?$_List_alloc@$0A@U?$_List_base_types@U?$_vector3@M@@V?$xalloc@U?$_vector3@M@@@@@std@@@std@@QEAAPEAU?$_List_node@U?$_vector3@M@@PEAX@2@PEAU32@0@Z DD imagerel $LN72
	DD	imagerel $LN72+94
	DD	imagerel $unwind$?_Buynode0@?$_List_alloc@$0A@U?$_List_base_types@U?$_vector3@M@@V?$xalloc@U?$_vector3@M@@@@@std@@@std@@QEAAPEAU?$_List_node@U?$_vector3@M@@PEAX@2@PEAU32@0@Z
pdata	ENDS
;	COMDAT pdata
pdata	SEGMENT
$pdata$?catch$0@?0??_Buynode0@?$_List_alloc@$0A@U?$_List_base_types@U?$_vector3@M@@V?$xalloc@U?$_vector3@M@@@@@std@@@std@@QEAAPEAU?$_List_node@U?$_vector3@M@@PEAX@2@PEAU32@0@Z@4HA DD imagerel ?catch$0@?0??_Buynode0@?$_List_alloc@$0A@U?$_List_base_types@U?$_vector3@M@@V?$xalloc@U?$_vector3@M@@@@@std@@@std@@QEAAPEAU?$_List_node@U?$_vector3@M@@PEAX@2@PEAU32@0@Z@4HA
	DD	imagerel ?catch$0@?0??_Buynode0@?$_List_alloc@$0A@U?$_List_base_types@U?$_vector3@M@@V?$xalloc@U?$_vector3@M@@@@@std@@@std@@QEAAPEAU?$_List_node@U?$_vector3@M@@PEAX@2@PEAU32@0@Z@4HA+40
	DD	imagerel $unwind$?catch$0@?0??_Buynode0@?$_List_alloc@$0A@U?$_List_base_types@U?$_vector3@M@@V?$xalloc@U?$_vector3@M@@@@@std@@@std@@QEAAPEAU?$_List_node@U?$_vector3@M@@PEAX@2@PEAU32@0@Z@4HA
pdata	ENDS
;	COMDAT pdata
pdata	SEGMENT
$pdata$?deallocate@?$_Wrap_alloc@V?$xalloc@U?$_List_node@U?$_vector3@M@@PEAX@std@@@@@std@@QEAAXPEAU?$_List_node@U?$_vector3@M@@PEAX@2@_K@Z DD imagerel $LN6
	DD	imagerel $LN6+29
	DD	imagerel $unwind$?deallocate@?$_Wrap_alloc@V?$xalloc@U?$_List_node@U?$_vector3@M@@PEAX@std@@@@@std@@QEAAXPEAU?$_List_node@U?$_vector3@M@@PEAX@2@_K@Z
pdata	ENDS
;	COMDAT pdata
pdata	SEGMENT
$pdata$?_Freenode@?$_List_buy@U?$_vector3@M@@V?$xalloc@U?$_vector3@M@@@@@std@@QEAAXPEAU?$_List_node@U?$_vector3@M@@PEAX@2@@Z DD imagerel $LN28
	DD	imagerel $LN28+29
	DD	imagerel $unwind$?_Freenode@?$_List_buy@U?$_vector3@M@@V?$xalloc@U?$_vector3@M@@@@@std@@QEAAXPEAU?$_List_node@U?$_vector3@M@@PEAX@2@@Z
pdata	ENDS
;	COMDAT pdata
pdata	SEGMENT
$pdata$?_Incsize@?$list@U?$_vector3@M@@V?$xalloc@U?$_vector3@M@@@@@std@@QEAAX_K@Z DD imagerel $LN18
	DD	imagerel $LN18+54
	DD	imagerel $unwind$?_Incsize@?$list@U?$_vector3@M@@V?$xalloc@U?$_vector3@M@@@@@std@@QEAAX_K@Z
pdata	ENDS
;	COMDAT pdata
pdata	SEGMENT
$pdata$?_Freeheadnode@?$_List_alloc@$0A@U?$_List_base_types@U?$_vector3@M@@V?$xalloc@U?$_vector3@M@@@@@std@@@std@@QEAAXPEAU?$_List_node@U?$_vector3@M@@PEAX@2@@Z DD imagerel $LN22
	DD	imagerel $LN22+29
	DD	imagerel $unwind$?_Freeheadnode@?$_List_alloc@$0A@U?$_List_base_types@U?$_vector3@M@@V?$xalloc@U?$_vector3@M@@@@@std@@@std@@QEAAXPEAU?$_List_node@U?$_vector3@M@@PEAX@2@@Z
pdata	ENDS
;	COMDAT pdata
pdata	SEGMENT
$pdata$??0?$_List_alloc@$0A@U?$_List_base_types@U?$_vector3@M@@V?$xalloc@U?$_vector3@M@@@@@std@@@std@@QEAA@AEBV?$xalloc@U?$_vector3@M@@@@@Z DD imagerel $LN8
	DD	imagerel $LN8+40
	DD	imagerel $unwind$??0?$_List_alloc@$0A@U?$_List_base_types@U?$_vector3@M@@V?$xalloc@U?$_vector3@M@@@@@std@@@std@@QEAA@AEBV?$xalloc@U?$_vector3@M@@@@@Z
pdata	ENDS
;	COMDAT pdata
pdata	SEGMENT
$pdata$?_Splice_same@?$list@U?$_vector3@M@@V?$xalloc@U?$_vector3@M@@@@@std@@QEAAXV?$_List_const_iterator@V?$_List_val@U?$_List_simple_types@U?$_vector3@M@@@std@@@std@@@2@AEAV12@00_K@Z DD imagerel $LN70
	DD	imagerel $LN70+168
	DD	imagerel $unwind$?_Splice_same@?$list@U?$_vector3@M@@V?$xalloc@U?$_vector3@M@@@@@std@@QEAAXV?$_List_const_iterator@V?$_List_val@U?$_List_simple_types@U?$_vector3@M@@@std@@@std@@@2@AEAV12@00_K@Z
pdata	ENDS
;	COMDAT pdata
pdata	SEGMENT
$pdata$?clear@?$list@U?$_vector3@M@@V?$xalloc@U?$_vector3@M@@@@@std@@QEAAXXZ DD imagerel $LN73
	DD	imagerel $LN73+47
	DD	imagerel $unwind$?clear@?$list@U?$_vector3@M@@V?$xalloc@U?$_vector3@M@@@@@std@@QEAAXXZ
pdata	ENDS
;	COMDAT pdata
pdata	SEGMENT
$pdata$2$?clear@?$list@U?$_vector3@M@@V?$xalloc@U?$_vector3@M@@@@@std@@QEAAXXZ DD imagerel $LN73+47
	DD	imagerel $LN73+183
	DD	imagerel $chain$2$?clear@?$list@U?$_vector3@M@@V?$xalloc@U?$_vector3@M@@@@@std@@QEAAXXZ
pdata	ENDS
;	COMDAT pdata
pdata	SEGMENT
$pdata$3$?clear@?$list@U?$_vector3@M@@V?$xalloc@U?$_vector3@M@@@@@std@@QEAAXXZ DD imagerel $LN73+183
	DD	imagerel $LN73+195
	DD	imagerel $chain$3$?clear@?$list@U?$_vector3@M@@V?$xalloc@U?$_vector3@M@@@@@std@@QEAAXXZ
pdata	ENDS
;	COMDAT pdata
pdata	SEGMENT
$pdata$??1?$_List_alloc@$0A@U?$_List_base_types@U?$_vector3@M@@V?$xalloc@U?$_vector3@M@@@@@std@@@std@@QEAA@XZ DD imagerel $LN24
	DD	imagerel $LN24+27
	DD	imagerel $unwind$??1?$_List_alloc@$0A@U?$_List_base_types@U?$_vector3@M@@V?$xalloc@U?$_vector3@M@@@@@std@@@std@@QEAA@XZ
pdata	ENDS
;	COMDAT pdata
pdata	SEGMENT
$pdata$??0?$_List_buy@U?$_vector3@M@@V?$xalloc@U?$_vector3@M@@@@@std@@QEAA@AEBV?$xalloc@U?$_vector3@M@@@@@Z DD imagerel $LN10
	DD	imagerel $LN10+40
	DD	imagerel $unwind$??0?$_List_buy@U?$_vector3@M@@V?$xalloc@U?$_vector3@M@@@@@std@@QEAA@AEBV?$xalloc@U?$_vector3@M@@@@@Z
pdata	ENDS
;	COMDAT pdata
pdata	SEGMENT
$pdata$?_Splice@?$list@U?$_vector3@M@@V?$xalloc@U?$_vector3@M@@@@@std@@QEAAXV?$_List_const_iterator@V?$_List_val@U?$_List_simple_types@U?$_vector3@M@@@std@@@std@@@2@AEAV12@00_K@Z DD imagerel $LN19
	DD	imagerel $LN19+24
	DD	imagerel $unwind$?_Splice@?$list@U?$_vector3@M@@V?$xalloc@U?$_vector3@M@@@@@std@@QEAAXV?$_List_const_iterator@V?$_List_val@U?$_List_simple_types@U?$_vector3@M@@@std@@@std@@@2@AEAV12@00_K@Z
pdata	ENDS
;	COMDAT pdata
pdata	SEGMENT
$pdata$??1?$_List_buy@U?$_vector3@M@@V?$xalloc@U?$_vector3@M@@@@@std@@QEAA@XZ DD imagerel $LN26
	DD	imagerel $LN26+27
	DD	imagerel $unwind$??1?$_List_buy@U?$_vector3@M@@V?$xalloc@U?$_vector3@M@@@@@std@@QEAA@XZ
pdata	ENDS
;	COMDAT pdata
pdata	SEGMENT
$pdata$?splice@?$list@U?$_vector3@M@@V?$xalloc@U?$_vector3@M@@@@@std@@QEAAXV?$_List_const_iterator@V?$_List_val@U?$_List_simple_types@U?$_vector3@M@@@std@@@std@@@2@AEAV12@0@Z DD imagerel $LN51
	DD	imagerel $LN51+42
	DD	imagerel $unwind$?splice@?$list@U?$_vector3@M@@V?$xalloc@U?$_vector3@M@@@@@std@@QEAAXV?$_List_const_iterator@V?$_List_val@U?$_List_simple_types@U?$_vector3@M@@@std@@@std@@@2@AEAV12@0@Z
pdata	ENDS
;	COMDAT pdata
pdata	SEGMENT
$pdata$?push_back@?$list@U?$_vector3@M@@V?$xalloc@U?$_vector3@M@@@@@std@@QEAAXAEBU?$_vector3@M@@@Z DD imagerel $LN44
	DD	imagerel $LN44+100
	DD	imagerel $unwind$?push_back@?$list@U?$_vector3@M@@V?$xalloc@U?$_vector3@M@@@@@std@@QEAAXAEBU?$_vector3@M@@@Z
pdata	ENDS
;	COMDAT pdata
pdata	SEGMENT
$pdata$??1?$list@U?$_vector3@M@@V?$xalloc@U?$_vector3@M@@@@@std@@QEAA@XZ DD imagerel $LN30
	DD	imagerel $LN30+38
	DD	imagerel $unwind$??1?$list@U?$_vector3@M@@V?$xalloc@U?$_vector3@M@@@@@std@@QEAA@XZ
pdata	ENDS
;	COMDAT pdata
pdata	SEGMENT
$pdata$??0?$list@U?$_vector3@M@@V?$xalloc@U?$_vector3@M@@@@@std@@QEAA@XZ DD imagerel $LN14
	DD	imagerel $LN14+40
	DD	imagerel $unwind$??0?$list@U?$_vector3@M@@V?$xalloc@U?$_vector3@M@@@@@std@@QEAA@XZ
pdata	ENDS
;	COMDAT pdata
pdata	SEGMENT
$pdata$??1Miniball@@QEAA@XZ DD imagerel $LN34
	DD	imagerel $LN34+38
	DD	imagerel $unwind$??1Miniball@@QEAA@XZ
pdata	ENDS
pdata	SEGMENT
$pdata$?Fsphere_compute@@YAXAEAU?$_sphere@M@@PEBU?$_vector3@M@@H@Z DD imagerel $LN202
	DD	imagerel $LN202+467
	DD	imagerel $unwind$?Fsphere_compute@@YAXAEAU?$_sphere@M@@PEBU?$_vector3@M@@H@Z
$pdata$?push@Basis@@QEAA_NAEBU?$_vector3@M@@@Z DD imagerel $LN39
	DD	imagerel $LN39+89
	DD	imagerel $unwind$?push@Basis@@QEAA_NAEBU?$_vector3@M@@@Z
$pdata$0$?push@Basis@@QEAA_NAEBU?$_vector3@M@@@Z DD imagerel $LN39+89
	DD	imagerel $LN39+314
	DD	imagerel $chain$0$?push@Basis@@QEAA_NAEBU?$_vector3@M@@@Z
$pdata$1$?push@Basis@@QEAA_NAEBU?$_vector3@M@@@Z DD imagerel $LN39+314
	DD	imagerel $LN39+875
	DD	imagerel $chain$1$?push@Basis@@QEAA_NAEBU?$_vector3@M@@@Z
$pdata$?pivot_mb@Miniball@@AEAAXV?$_List_iterator@V?$_List_val@U?$_List_simple_types@U?$_vector3@M@@@std@@@std@@@std@@@Z DD imagerel $LN172
	DD	imagerel $LN172+426
	DD	imagerel $unwind$?pivot_mb@Miniball@@AEAAXV?$_List_iterator@V?$_List_val@U?$_List_simple_types@U?$_vector3@M@@@std@@@std@@@std@@@Z
$pdata$?move_to_front@Miniball@@AEAAXV?$_List_iterator@V?$_List_val@U?$_List_simple_types@U?$_vector3@M@@@std@@@std@@@std@@@Z DD imagerel $LN77
	DD	imagerel $LN77+84
	DD	imagerel $unwind$?move_to_front@Miniball@@AEAAXV?$_List_iterator@V?$_List_val@U?$_List_simple_types@U?$_vector3@M@@@std@@@std@@@std@@@Z
$pdata$?mtf_mb@Miniball@@AEAAXV?$_List_iterator@V?$_List_val@U?$_List_simple_types@U?$_vector3@M@@@std@@@std@@@std@@@Z DD imagerel $LN146
	DD	imagerel $LN146+53
	DD	imagerel $unwind$?mtf_mb@Miniball@@AEAAXV?$_List_iterator@V?$_List_val@U?$_List_simple_types@U?$_vector3@M@@@std@@@std@@@std@@@Z
$pdata$3$?mtf_mb@Miniball@@AEAAXV?$_List_iterator@V?$_List_val@U?$_List_simple_types@U?$_vector3@M@@@std@@@std@@@std@@@Z DD imagerel $LN146+53
	DD	imagerel $LN146+308
	DD	imagerel $chain$3$?mtf_mb@Miniball@@AEAAXV?$_List_iterator@V?$_List_val@U?$_List_simple_types@U?$_vector3@M@@@std@@@std@@@std@@@Z
$pdata$4$?mtf_mb@Miniball@@AEAAXV?$_List_iterator@V?$_List_val@U?$_List_simple_types@U?$_vector3@M@@@std@@@std@@@std@@@Z DD imagerel $LN146+308
	DD	imagerel $LN146+319
	DD	imagerel $chain$4$?mtf_mb@Miniball@@AEAAXV?$_List_iterator@V?$_List_val@U?$_List_simple_types@U?$_vector3@M@@@std@@@std@@@std@@@Z
$pdata$?check_in@Miniball@@QEAAXAEBU?$_vector3@M@@@Z DD imagerel $LN47
	DD	imagerel $LN47+100
	DD	imagerel $unwind$?check_in@Miniball@@QEAAXAEBU?$_vector3@M@@@Z
pdata	ENDS
;	COMDAT pdata
pdata	SEGMENT
$pdata$??1?$xr_list@U?$_vector3@M@@V?$xalloc@U?$_vector3@M@@@@@@QEAA@XZ DD imagerel $LN32
	DD	imagerel $LN32+38
	DD	imagerel $unwind$??1?$xr_list@U?$_vector3@M@@V?$xalloc@U?$_vector3@M@@@@@@QEAA@XZ
pdata	ENDS
;	COMDAT pdata
pdata	SEGMENT
$pdata$??0?$xr_list@U?$_vector3@M@@V?$xalloc@U?$_vector3@M@@@@@@QEAA@XZ DD imagerel $LN16
	DD	imagerel $LN16+40
	DD	imagerel $unwind$??0?$xr_list@U?$_vector3@M@@V?$xalloc@U?$_vector3@M@@@@@@QEAA@XZ
pdata	ENDS
;	COMDAT pdata
pdata	SEGMENT
$pdata$??0Miniball@@QEAA@XZ DD imagerel $LN30
	DD	imagerel $LN30+90
	DD	imagerel $unwind$??0Miniball@@QEAA@XZ
;	COMDAT xdata
xdata	SEGMENT
$unwind$??0Miniball@@QEAA@XZ DD 040a01H
	DD	06340aH
	DD	07006320aH
xdata	ENDS
;	COMDAT xdata
xdata	SEGMENT
$unwind$??0?$xr_list@U?$_vector3@M@@V?$xalloc@U?$_vector3@M@@@@@@QEAA@XZ DD 020601H
	DD	030023206H
xdata	ENDS
;	COMDAT xdata
xdata	SEGMENT
$unwind$??1?$xr_list@U?$_vector3@M@@V?$xalloc@U?$_vector3@M@@@@@@QEAA@XZ DD 020601H
	DD	030023206H
xdata	ENDS
xdata	SEGMENT
$unwind$?Fsphere_compute@@YAXAEAU?$_sphere@M@@PEBU?$_vector3@M@@H@Z DD 0d2401H
	DD	02e7424H
	DD	02d6424H
	DD	02c3424H
	DD	0260124H
	DD	0e016f018H
	DD	0c012d014H
	DD	05010H
$unwind$?push@Basis@@QEAA_NAEBU?$_vector3@M@@@Z DD 010201H
	DD	07002H
$chain$0$?push@Basis@@QEAA_NAEBU?$_vector3@M@@@Z DD 020521H
	DD	023405H
	DD	imagerel $LN39
	DD	imagerel $LN39+89
	DD	imagerel $unwind$?push@Basis@@QEAA_NAEBU?$_vector3@M@@@Z
$chain$1$?push@Basis@@QEAA_NAEBU?$_vector3@M@@@Z DD 021H
	DD	imagerel $LN39
	DD	imagerel $LN39+89
	DD	imagerel $unwind$?push@Basis@@QEAA_NAEBU?$_vector3@M@@@Z
$unwind$?pivot_mb@Miniball@@AEAAXV?$_List_iterator@V?$_List_val@U?$_List_simple_types@U?$_vector3@M@@@std@@@std@@@std@@@Z DD 0124b01H
	DD	012644bH
	DD	03a832H
	DD	04982dH
	DD	058825H
	DD	067820H
	DD	07681cH
	DD	0157418H
	DD	0143418H
	DD	0e011f218H
$unwind$?move_to_front@Miniball@@AEAAXV?$_List_iterator@V?$_List_val@U?$_List_simple_types@U?$_vector3@M@@@std@@@std@@@std@@@Z DD 010401H
	DD	06204H
$unwind$?mtf_mb@Miniball@@AEAAXV?$_List_iterator@V?$_List_val@U?$_List_simple_types@U?$_vector3@M@@@std@@@std@@@std@@@Z DD 040f01H
	DD	0f640fH
	DD	0700b920fH
$chain$3$?mtf_mb@Miniball@@AEAAXV?$_List_iterator@V?$_List_val@U?$_List_simple_types@U?$_vector3@M@@@std@@@std@@@std@@@Z DD 081c21H
	DD	03781cH
	DD	04680fH
	DD	0e540aH
	DD	0c3405H
	DD	imagerel $LN146
	DD	imagerel $LN146+53
	DD	imagerel $unwind$?mtf_mb@Miniball@@AEAAXV?$_List_iterator@V?$_List_val@U?$_List_simple_types@U?$_vector3@M@@@std@@@std@@@std@@@Z
$chain$4$?mtf_mb@Miniball@@AEAAXV?$_List_iterator@V?$_List_val@U?$_List_simple_types@U?$_vector3@M@@@std@@@std@@@std@@@Z DD 021H
	DD	imagerel $LN146
	DD	imagerel $LN146+53
	DD	imagerel $unwind$?mtf_mb@Miniball@@AEAAXV?$_List_iterator@V?$_List_val@U?$_List_simple_types@U?$_vector3@M@@@std@@@std@@@std@@@Z
$unwind$?check_in@Miniball@@QEAAXAEBU?$_vector3@M@@@Z DD 040a01H
	DD	06340aH
	DD	07006320aH
xdata	ENDS
;	COMDAT xdata
xdata	SEGMENT
$unwind$??1Miniball@@QEAA@XZ DD 020601H
	DD	030023206H
xdata	ENDS
;	COMDAT xdata
xdata	SEGMENT
$unwind$??0?$list@U?$_vector3@M@@V?$xalloc@U?$_vector3@M@@@@@std@@QEAA@XZ DD 020601H
	DD	030023206H
xdata	ENDS
;	COMDAT xdata
xdata	SEGMENT
$unwind$??1?$list@U?$_vector3@M@@V?$xalloc@U?$_vector3@M@@@@@std@@QEAA@XZ DD 020601H
	DD	030023206H
xdata	ENDS
;	COMDAT xdata
xdata	SEGMENT
$unwind$?push_back@?$list@U?$_vector3@M@@V?$xalloc@U?$_vector3@M@@@@@std@@QEAAXAEBU?$_vector3@M@@@Z DD 040a01H
	DD	06340aH
	DD	07006320aH
xdata	ENDS
;	COMDAT xdata
xdata	SEGMENT
$unwind$?splice@?$list@U?$_vector3@M@@V?$xalloc@U?$_vector3@M@@@@@std@@QEAAXV?$_List_const_iterator@V?$_List_val@U?$_List_simple_types@U?$_vector3@M@@@std@@@std@@@2@AEAV12@0@Z DD 010401H
	DD	06204H
xdata	ENDS
;	COMDAT xdata
xdata	SEGMENT
$unwind$??1?$_List_buy@U?$_vector3@M@@V?$xalloc@U?$_vector3@M@@@@@std@@QEAA@XZ DD 010401H
	DD	04204H
xdata	ENDS
;	COMDAT xdata
xdata	SEGMENT
$unwind$?_Splice@?$list@U?$_vector3@M@@V?$xalloc@U?$_vector3@M@@@@@std@@QEAAXV?$_List_const_iterator@V?$_List_val@U?$_List_simple_types@U?$_vector3@M@@@std@@@std@@@2@AEAV12@00_K@Z DD 010401H
	DD	06204H
xdata	ENDS
;	COMDAT xdata
xdata	SEGMENT
$unwind$??0?$_List_buy@U?$_vector3@M@@V?$xalloc@U?$_vector3@M@@@@@std@@QEAA@AEBV?$xalloc@U?$_vector3@M@@@@@Z DD 020601H
	DD	030023206H
xdata	ENDS
;	COMDAT xdata
xdata	SEGMENT
$unwind$??1?$_List_alloc@$0A@U?$_List_base_types@U?$_vector3@M@@V?$xalloc@U?$_vector3@M@@@@@std@@@std@@QEAA@XZ DD 010401H
	DD	04204H
xdata	ENDS
;	COMDAT xdata
xdata	SEGMENT
$chain$3$?clear@?$list@U?$_vector3@M@@V?$xalloc@U?$_vector3@M@@@@@std@@QEAAXXZ DD 021H
	DD	imagerel $LN73
	DD	imagerel $LN73+47
	DD	imagerel $unwind$?clear@?$list@U?$_vector3@M@@V?$xalloc@U?$_vector3@M@@@@@std@@QEAAXXZ
xdata	ENDS
;	COMDAT xdata
xdata	SEGMENT
$chain$2$?clear@?$list@U?$_vector3@M@@V?$xalloc@U?$_vector3@M@@@@@std@@QEAAXXZ DD 061621H
	DD	077416H
	DD	08f40aH
	DD	066405H
	DD	imagerel $LN73
	DD	imagerel $LN73+47
	DD	imagerel $unwind$?clear@?$list@U?$_vector3@M@@V?$xalloc@U?$_vector3@M@@@@@std@@QEAAXXZ
xdata	ENDS
;	COMDAT xdata
xdata	SEGMENT
$unwind$?clear@?$list@U?$_vector3@M@@V?$xalloc@U?$_vector3@M@@@@@std@@QEAAXXZ DD 040b01H
	DD	09340bH
	DD	0e007320bH
xdata	ENDS
;	COMDAT xdata
xdata	SEGMENT
$unwind$?_Splice_same@?$list@U?$_vector3@M@@V?$xalloc@U?$_vector3@M@@@@@std@@QEAAXV?$_List_const_iterator@V?$_List_val@U?$_List_simple_types@U?$_vector3@M@@@std@@@std@@@2@AEAV12@00_K@Z DD 010e01H
	DD	0420eH
xdata	ENDS
;	COMDAT xdata
xdata	SEGMENT
$unwind$??0?$_List_alloc@$0A@U?$_List_base_types@U?$_vector3@M@@V?$xalloc@U?$_vector3@M@@@@@std@@@std@@QEAA@AEBV?$xalloc@U?$_vector3@M@@@@@Z DD 020601H
	DD	030023206H
xdata	ENDS
;	COMDAT xdata
xdata	SEGMENT
$unwind$?_Freeheadnode@?$_List_alloc@$0A@U?$_List_base_types@U?$_vector3@M@@V?$xalloc@U?$_vector3@M@@@@@std@@@std@@QEAAXPEAU?$_List_node@U?$_vector3@M@@PEAX@2@@Z DD 010901H
	DD	04209H
xdata	ENDS
;	COMDAT xdata
xdata	SEGMENT
$unwind$?_Incsize@?$list@U?$_vector3@M@@V?$xalloc@U?$_vector3@M@@@@@std@@QEAAX_K@Z DD 010401H
	DD	04204H
xdata	ENDS
;	COMDAT xdata
xdata	SEGMENT
$unwind$?_Freenode@?$_List_buy@U?$_vector3@M@@V?$xalloc@U?$_vector3@M@@@@@std@@QEAAXPEAU?$_List_node@U?$_vector3@M@@PEAX@2@@Z DD 010901H
	DD	04209H
xdata	ENDS
;	COMDAT xdata
xdata	SEGMENT
$unwind$?deallocate@?$_Wrap_alloc@V?$xalloc@U?$_List_node@U?$_vector3@M@@PEAX@std@@@@@std@@QEAAXPEAU?$_List_node@U?$_vector3@M@@PEAX@2@_K@Z DD 010901H
	DD	04209H
xdata	ENDS
;	COMDAT xdata
xdata	SEGMENT
$unwind$?catch$0@?0??_Buynode0@?$_List_alloc@$0A@U?$_List_base_types@U?$_vector3@M@@V?$xalloc@U?$_vector3@M@@@@@std@@@std@@QEAAPEAU?$_List_node@U?$_vector3@M@@PEAX@2@PEAU32@0@Z@4HA DD 020a19H
	DD	05006320aH
	DD	imagerel __CxxFrameHandler3
	DD	imagerel $cppxdata$?_Buynode0@?$_List_alloc@$0A@U?$_List_base_types@U?$_vector3@M@@V?$xalloc@U?$_vector3@M@@@@@std@@@std@@QEAAPEAU?$_List_node@U?$_vector3@M@@PEAX@2@PEAU32@0@Z
xdata	ENDS
;	COMDAT xdata
xdata	SEGMENT
$ip2state$?_Buynode0@?$_List_alloc@$0A@U?$_List_base_types@U?$_vector3@M@@V?$xalloc@U?$_vector3@M@@@@@std@@@std@@QEAAPEAU?$_List_node@U?$_vector3@M@@PEAX@2@PEAU32@0@Z DD imagerel ?_Buynode0@?$_List_alloc@$0A@U?$_List_base_types@U?$_vector3@M@@V?$xalloc@U?$_vector3@M@@@@@std@@@std@@QEAAPEAU?$_List_node@U?$_vector3@M@@PEAX@2@PEAU32@0@Z
	DD	0ffffffffH
	DD	imagerel ?_Buynode0@?$_List_alloc@$0A@U?$_List_base_types@U?$_vector3@M@@V?$xalloc@U?$_vector3@M@@@@@std@@@std@@QEAAPEAU?$_List_node@U?$_vector3@M@@PEAX@2@PEAU32@0@Z+63
	DD	00H
	DD	imagerel ?_Buynode0@?$_List_alloc@$0A@U?$_List_base_types@U?$_vector3@M@@V?$xalloc@U?$_vector3@M@@@@@std@@@std@@QEAAPEAU?$_List_node@U?$_vector3@M@@PEAX@2@PEAU32@0@Z+83
	DD	0ffffffffH
	DD	imagerel ?catch$0@?0??_Buynode0@?$_List_alloc@$0A@U?$_List_base_types@U?$_vector3@M@@V?$xalloc@U?$_vector3@M@@@@@std@@@std@@QEAAPEAU?$_List_node@U?$_vector3@M@@PEAX@2@PEAU32@0@Z@4HA
	DD	00H
	DD	imagerel ?catch$0@?0??_Buynode0@?$_List_alloc@$0A@U?$_List_base_types@U?$_vector3@M@@V?$xalloc@U?$_vector3@M@@@@@std@@@std@@QEAAPEAU?$_List_node@U?$_vector3@M@@PEAX@2@PEAU32@0@Z@4HA+13
	DD	01H
xdata	ENDS
;	COMDAT xdata
xdata	SEGMENT
$handlerMap$0$?_Buynode0@?$_List_alloc@$0A@U?$_List_base_types@U?$_vector3@M@@V?$xalloc@U?$_vector3@M@@@@@std@@@std@@QEAAPEAU?$_List_node@U?$_vector3@M@@PEAX@2@PEAU32@0@Z DD 00H
	DD	00H
	DD	00H
	DD	imagerel ?catch$0@?0??_Buynode0@?$_List_alloc@$0A@U?$_List_base_types@U?$_vector3@M@@V?$xalloc@U?$_vector3@M@@@@@std@@@std@@QEAAPEAU?$_List_node@U?$_vector3@M@@PEAX@2@PEAU32@0@Z@4HA
	DD	038H
xdata	ENDS
;	COMDAT xdata
xdata	SEGMENT
$tryMap$?_Buynode0@?$_List_alloc@$0A@U?$_List_base_types@U?$_vector3@M@@V?$xalloc@U?$_vector3@M@@@@@std@@@std@@QEAAPEAU?$_List_node@U?$_vector3@M@@PEAX@2@PEAU32@0@Z DD 00H
	DD	00H
	DD	01H
	DD	01H
	DD	imagerel $handlerMap$0$?_Buynode0@?$_List_alloc@$0A@U?$_List_base_types@U?$_vector3@M@@V?$xalloc@U?$_vector3@M@@@@@std@@@std@@QEAAPEAU?$_List_node@U?$_vector3@M@@PEAX@2@PEAU32@0@Z
xdata	ENDS
;	COMDAT xdata
xdata	SEGMENT
$stateUnwindMap$?_Buynode0@?$_List_alloc@$0A@U?$_List_base_types@U?$_vector3@M@@V?$xalloc@U?$_vector3@M@@@@@std@@@std@@QEAAPEAU?$_List_node@U?$_vector3@M@@PEAX@2@PEAU32@0@Z DD 0ffffffffH
	DD	00H
	DD	0ffffffffH
	DD	00H
xdata	ENDS
;	COMDAT CONST
CONST	SEGMENT
$cppxdata$?_Buynode0@?$_List_alloc@$0A@U?$_List_base_types@U?$_vector3@M@@V?$xalloc@U?$_vector3@M@@@@@std@@@std@@QEAAPEAU?$_List_node@U?$_vector3@M@@PEAX@2@PEAU32@0@Z DD 019930522H
	DD	02H
	DD	imagerel $stateUnwindMap$?_Buynode0@?$_List_alloc@$0A@U?$_List_base_types@U?$_vector3@M@@V?$xalloc@U?$_vector3@M@@@@@std@@@std@@QEAAPEAU?$_List_node@U?$_vector3@M@@PEAX@2@PEAU32@0@Z
	DD	01H
	DD	imagerel $tryMap$?_Buynode0@?$_List_alloc@$0A@U?$_List_base_types@U?$_vector3@M@@V?$xalloc@U?$_vector3@M@@@@@std@@@std@@QEAAPEAU?$_List_node@U?$_vector3@M@@PEAX@2@PEAU32@0@Z
	DD	05H
	DD	imagerel $ip2state$?_Buynode0@?$_List_alloc@$0A@U?$_List_base_types@U?$_vector3@M@@V?$xalloc@U?$_vector3@M@@@@@std@@@std@@QEAAPEAU?$_List_node@U?$_vector3@M@@PEAX@2@PEAU32@0@Z
	DD	020H
	DD	00H
	DD	00H
CONST	ENDS
;	COMDAT xdata
xdata	SEGMENT
$unwind$?_Buynode0@?$_List_alloc@$0A@U?$_List_base_types@U?$_vector3@M@@V?$xalloc@U?$_vector3@M@@@@@std@@@std@@QEAAPEAU?$_List_node@U?$_vector3@M@@PEAX@2@PEAU32@0@Z DD 041819H
	DD	093418H
	DD	07006520aH
	DD	imagerel __CxxFrameHandler3
	DD	imagerel $cppxdata$?_Buynode0@?$_List_alloc@$0A@U?$_List_base_types@U?$_vector3@M@@V?$xalloc@U?$_vector3@M@@@@@std@@@std@@QEAAPEAU?$_List_node@U?$_vector3@M@@PEAX@2@PEAU32@0@Z
xdata	ENDS
;	COMDAT xdata
xdata	SEGMENT
$unwind$?deallocate@?$xalloc@U?$_List_node@U?$_vector3@M@@PEAX@std@@@@QEBAXPEAU?$_List_node@U?$_vector3@M@@PEAX@std@@_K@Z DD 010901H
	DD	04209H
xdata	ENDS
;	COMDAT xdata
xdata	SEGMENT
$unwind$??$_Insert@AEBU?$_vector3@M@@@?$list@U?$_vector3@M@@V?$xalloc@U?$_vector3@M@@@@@std@@QEAAXV?$_List_unchecked_const_iterator@V?$_List_val@U?$_List_simple_types@U?$_vector3@M@@@std@@@std@@U_Iterator_base0@2@@1@AEBU?$_vector3@M@@@Z DD 040a01H
	DD	06340aH
	DD	07006320aH
xdata	ENDS
;	COMDAT xdata
xdata	SEGMENT
$chain$1$??$xr_free@U?$_List_node@U?$_vector3@M@@PEAX@std@@@@YAXAEAPEAU?$_List_node@U?$_vector3@M@@PEAX@std@@@Z DD 021H
	DD	imagerel $LN30
	DD	imagerel $LN30+87
	DD	imagerel $unwind$??$xr_free@U?$_List_node@U?$_vector3@M@@PEAX@std@@@@YAXAEAPEAU?$_List_node@U?$_vector3@M@@PEAX@std@@@Z
xdata	ENDS
;	COMDAT xdata
xdata	SEGMENT
$chain$0$??$xr_free@U?$_List_node@U?$_vector3@M@@PEAX@std@@@@YAXAEAPEAU?$_List_node@U?$_vector3@M@@PEAX@std@@@Z DD 020521H
	DD	063405H
	DD	imagerel $LN30
	DD	imagerel $LN30+87
	DD	imagerel $unwind$??$xr_free@U?$_List_node@U?$_vector3@M@@PEAX@std@@@@YAXAEAPEAU?$_List_node@U?$_vector3@M@@PEAX@std@@@Z
xdata	ENDS
;	COMDAT xdata
xdata	SEGMENT
$unwind$??$xr_free@U?$_List_node@U?$_vector3@M@@PEAX@std@@@@YAXAEAPEAU?$_List_node@U?$_vector3@M@@PEAX@std@@@Z DD 040a01H
	DD	07640aH
	DD	07006320aH
xdata	ENDS
;	COMDAT xdata
xdata	SEGMENT
$unwind$?catch$0@?0???$_Buynode@AEBU?$_vector3@M@@@?$_List_buy@U?$_vector3@M@@V?$xalloc@U?$_vector3@M@@@@@std@@QEAAPEAU?$_List_node@U?$_vector3@M@@PEAX@1@PEAU21@0AEBU?$_vector3@M@@@Z@4HA DD 020a19H
	DD	05006320aH
	DD	imagerel __CxxFrameHandler3
	DD	imagerel $cppxdata$??$_Buynode@AEBU?$_vector3@M@@@?$_List_buy@U?$_vector3@M@@V?$xalloc@U?$_vector3@M@@@@@std@@QEAAPEAU?$_List_node@U?$_vector3@M@@PEAX@1@PEAU21@0AEBU?$_vector3@M@@@Z
xdata	ENDS
;	COMDAT xdata
xdata	SEGMENT
$ip2state$??$_Buynode@AEBU?$_vector3@M@@@?$_List_buy@U?$_vector3@M@@V?$xalloc@U?$_vector3@M@@@@@std@@QEAAPEAU?$_List_node@U?$_vector3@M@@PEAX@1@PEAU21@0AEBU?$_vector3@M@@@Z DD imagerel ??$_Buynode@AEBU?$_vector3@M@@@?$_List_buy@U?$_vector3@M@@V?$xalloc@U?$_vector3@M@@@@@std@@QEAAPEAU?$_List_node@U?$_vector3@M@@PEAX@1@PEAU21@0AEBU?$_vector3@M@@@Z
	DD	0ffffffffH
	DD	imagerel ??$_Buynode@AEBU?$_vector3@M@@@?$_List_buy@U?$_vector3@M@@V?$xalloc@U?$_vector3@M@@@@@std@@QEAAPEAU?$_List_node@U?$_vector3@M@@PEAX@1@PEAU21@0AEBU?$_vector3@M@@@Z+35
	DD	00H
	DD	imagerel ??$_Buynode@AEBU?$_vector3@M@@@?$_List_buy@U?$_vector3@M@@V?$xalloc@U?$_vector3@M@@@@@std@@QEAAPEAU?$_List_node@U?$_vector3@M@@PEAX@1@PEAU21@0AEBU?$_vector3@M@@@Z+58
	DD	0ffffffffH
	DD	imagerel ?catch$0@?0???$_Buynode@AEBU?$_vector3@M@@@?$_List_buy@U?$_vector3@M@@V?$xalloc@U?$_vector3@M@@@@@std@@QEAAPEAU?$_List_node@U?$_vector3@M@@PEAX@1@PEAU21@0AEBU?$_vector3@M@@@Z@4HA
	DD	00H
	DD	imagerel ?catch$0@?0???$_Buynode@AEBU?$_vector3@M@@@?$_List_buy@U?$_vector3@M@@V?$xalloc@U?$_vector3@M@@@@@std@@QEAAPEAU?$_List_node@U?$_vector3@M@@PEAX@1@PEAU21@0AEBU?$_vector3@M@@@Z@4HA+13
	DD	01H
xdata	ENDS
;	COMDAT xdata
xdata	SEGMENT
$handlerMap$0$??$_Buynode@AEBU?$_vector3@M@@@?$_List_buy@U?$_vector3@M@@V?$xalloc@U?$_vector3@M@@@@@std@@QEAAPEAU?$_List_node@U?$_vector3@M@@PEAX@1@PEAU21@0AEBU?$_vector3@M@@@Z DD 00H
	DD	00H
	DD	00H
	DD	imagerel ?catch$0@?0???$_Buynode@AEBU?$_vector3@M@@@?$_List_buy@U?$_vector3@M@@V?$xalloc@U?$_vector3@M@@@@@std@@QEAAPEAU?$_List_node@U?$_vector3@M@@PEAX@1@PEAU21@0AEBU?$_vector3@M@@@Z@4HA
	DD	038H
xdata	ENDS
;	COMDAT xdata
xdata	SEGMENT
$tryMap$??$_Buynode@AEBU?$_vector3@M@@@?$_List_buy@U?$_vector3@M@@V?$xalloc@U?$_vector3@M@@@@@std@@QEAAPEAU?$_List_node@U?$_vector3@M@@PEAX@1@PEAU21@0AEBU?$_vector3@M@@@Z DD 00H
	DD	00H
	DD	01H
	DD	01H
	DD	imagerel $handlerMap$0$??$_Buynode@AEBU?$_vector3@M@@@?$_List_buy@U?$_vector3@M@@V?$xalloc@U?$_vector3@M@@@@@std@@QEAAPEAU?$_List_node@U?$_vector3@M@@PEAX@1@PEAU21@0AEBU?$_vector3@M@@@Z
xdata	ENDS
;	COMDAT xdata
xdata	SEGMENT
$stateUnwindMap$??$_Buynode@AEBU?$_vector3@M@@@?$_List_buy@U?$_vector3@M@@V?$xalloc@U?$_vector3@M@@@@@std@@QEAAPEAU?$_List_node@U?$_vector3@M@@PEAX@1@PEAU21@0AEBU?$_vector3@M@@@Z DD 0ffffffffH
	DD	00H
	DD	0ffffffffH
	DD	00H
xdata	ENDS
;	COMDAT CONST
CONST	SEGMENT
$cppxdata$??$_Buynode@AEBU?$_vector3@M@@@?$_List_buy@U?$_vector3@M@@V?$xalloc@U?$_vector3@M@@@@@std@@QEAAPEAU?$_List_node@U?$_vector3@M@@PEAX@1@PEAU21@0AEBU?$_vector3@M@@@Z DD 019930522H
	DD	02H
	DD	imagerel $stateUnwindMap$??$_Buynode@AEBU?$_vector3@M@@@?$_List_buy@U?$_vector3@M@@V?$xalloc@U?$_vector3@M@@@@@std@@QEAAPEAU?$_List_node@U?$_vector3@M@@PEAX@1@PEAU21@0AEBU?$_vector3@M@@@Z
	DD	01H
	DD	imagerel $tryMap$??$_Buynode@AEBU?$_vector3@M@@@?$_List_buy@U?$_vector3@M@@V?$xalloc@U?$_vector3@M@@@@@std@@QEAAPEAU?$_List_node@U?$_vector3@M@@PEAX@1@PEAU21@0AEBU?$_vector3@M@@@Z
	DD	05H
	DD	imagerel $ip2state$??$_Buynode@AEBU?$_vector3@M@@@?$_List_buy@U?$_vector3@M@@V?$xalloc@U?$_vector3@M@@@@@std@@QEAAPEAU?$_List_node@U?$_vector3@M@@PEAX@1@PEAU21@0AEBU?$_vector3@M@@@Z
	DD	020H
	DD	00H
	DD	00H
CONST	ENDS
;	COMDAT xdata
xdata	SEGMENT
$unwind$??$_Buynode@AEBU?$_vector3@M@@@?$_List_buy@U?$_vector3@M@@V?$xalloc@U?$_vector3@M@@@@@std@@QEAAPEAU?$_List_node@U?$_vector3@M@@PEAX@1@PEAU21@0AEBU?$_vector3@M@@@Z DD 021319H
	DD	03006520aH
	DD	imagerel __CxxFrameHandler3
	DD	imagerel $cppxdata$??$_Buynode@AEBU?$_vector3@M@@@?$_List_buy@U?$_vector3@M@@V?$xalloc@U?$_vector3@M@@@@@std@@QEAAPEAU?$_List_node@U?$_vector3@M@@PEAX@1@PEAU21@0AEBU?$_vector3@M@@@Z
; Function compile flags: /Ogtpy
; File c:\users\nummer\documents\github\olr-3.0\src\xray\xrcore\_sphere.cpp
; File c:\program files (x86)\microsoft visual studio 12.0\vc\include\list
; File c:\users\nummer\documents\github\olr-3.0\src\xray\xrcore\_sphere.cpp
; File c:\program files (x86)\microsoft visual studio 12.0\vc\include\list
; File c:\users\nummer\documents\github\olr-3.0\src\xray\xrcore\_sphere.cpp
; File c:\users\nummer\documents\github\olr-3.0\src\xray\xrcore\_vector3d.h
; File c:\users\nummer\documents\github\olr-3.0\src\xray\xrcore\_sphere.cpp
; File c:\program files (x86)\microsoft visual studio 12.0\vc\include\list
; File c:\users\nummer\documents\github\olr-3.0\src\xray\xrcore\_sphere.cpp
;	COMDAT ??0Miniball@@QEAA@XZ
_TEXT	SEGMENT
this$ = 48
??0Miniball@@QEAA@XZ PROC				; Miniball::Miniball, COMDAT

; 69   : 	Miniball() {}

$LN30:
	mov	QWORD PTR [rsp+8], rbx
	push	rdi
	sub	rsp, 32					; 00000020H
; File c:\program files (x86)\microsoft visual studio 12.0\vc\include\list

; 527  : 		this->_Myhead = 0;

	xor	edi, edi

; 767  : 		return (_Buynode0(_Nodeptr(), _Nodeptr()));

	xor	r8d, r8d
	xor	edx, edx

; 527  : 		this->_Myhead = 0;

	mov	QWORD PTR [rcx], rdi

; 528  : 		this->_Mysize = 0;

	mov	QWORD PTR [rcx+8], rdi
; File c:\users\nummer\documents\github\olr-3.0\src\xray\xrcore\_sphere.cpp

; 69   : 	Miniball() {}

	mov	rbx, rcx
; File c:\program files (x86)\microsoft visual studio 12.0\vc\include\list

; 767  : 		return (_Buynode0(_Nodeptr(), _Nodeptr()));

	call	?_Buynode0@?$_List_alloc@$0A@U?$_List_base_types@U?$_vector3@M@@V?$xalloc@U?$_vector3@M@@@@@std@@@std@@QEAAPEAU?$_List_node@U?$_vector3@M@@PEAX@2@PEAU32@0@Z ; std::_List_alloc<0,std::_List_base_types<_vector3<float>,xalloc<_vector3<float> > > >::_Buynode0

; 529  : 		}
; 530  : 
; 531  : 	static _Nodepref _Nextnode(_Nodeptr _Pnode)
; 532  : 		{	// return reference to successor pointer in node
; 533  : 		return ((_Nodepref)_Pnode->_Next);
; 534  : 		}
; 535  : 
; 536  : 	static _Nodepref _Prevnode(_Nodeptr _Pnode)
; 537  : 		{	// return reference to predecessor pointer in node
; 538  : 		return ((_Nodepref)_Pnode->_Prev);
; 539  : 		}
; 540  : 
; 541  : 	static reference _Myval(_Nodeptr _Pnode)
; 542  : 		{	// return reference to value in node
; 543  : 		return ((reference)_Pnode->_Myval);
; 544  : 		}
; 545  : 
; 546  : 	_Nodeptr _Myhead;	// pointer to head node
; 547  : 	size_type _Mysize;	// number of elements
; 548  : 	};
; 549  : 
; 550  : 		// TEMPLATE CLASS _List_alloc
; 551  : template<bool _Al_has_storage,
; 552  : 	class _Alloc_types>
; 553  : 	class _List_alloc
; 554  : 		: public _List_val<typename _Alloc_types::_Val_types>
; 555  : 	{	// base class for list to hold allocator with storage
; 556  : public:
; 557  : 	typename _Alloc_types::_Alnod_type _Alnod;	// allocator object
; 558  : 
; 559  : 	typedef _List_alloc<_Al_has_storage, _Alloc_types> _Myt;
; 560  : 	typedef typename _Alloc_types::_Alloc _Alloc;
; 561  : 	typedef typename _Alloc_types::_Alnod_type _Alty;
; 562  : 	typedef typename _Alloc_types::_Node _Node;
; 563  : 	typedef typename _Alloc_types::_Nodeptr _Nodeptr;
; 564  : 
; 565  :  #if _ITERATOR_DEBUG_LEVEL == 0
; 566  : 	_List_alloc(const _Alloc& _Al = _Alloc())
; 567  : 		: _Alnod(_Al)
; 568  : 		{	// construct head node, allocator from _Al
; 569  : 		this->_Myhead = _Buyheadnode();
; 570  : 		}
; 571  : 
; 572  : 	~_List_alloc() _NOEXCEPT
; 573  : 		{	// destroy head node
; 574  : 		_Freeheadnode(this->_Myhead);
; 575  : 		}
; 576  : 
; 577  : 	void _Change_alloc(const _Alty& _Al)
; 578  : 		{	// replace old allocator
; 579  : 		this->_Alnod = _Al;
; 580  : 		}
; 581  : 
; 582  : 	void _Swap_alloc(_Myt& _Right)
; 583  : 		{	// swap allocators
; 584  : 		_Swap_adl(this->_Alnod, _Right._Alnod);
; 585  : 		}
; 586  : 
; 587  :  #else /* _ITERATOR_DEBUG_LEVEL == 0 */
; 588  : 	_List_alloc(const _Alloc& _Al = _Alloc())
; 589  : 		: _Alnod(_Al)
; 590  : 		{	// construct head node, allocator from _Al
; 591  : 		this->_Myhead = _Buyheadnode();
; 592  : 		_TRY_BEGIN
; 593  : 		_Alloc_proxy();
; 594  : 		_CATCH_ALL
; 595  : 		_Freeheadnode(this->_Myhead);
; 596  : 		_RERAISE;
; 597  : 		_CATCH_END
; 598  : 		}
; 599  : 
; 600  : 	~_List_alloc() _NOEXCEPT
; 601  : 		{	// destroy proxy
; 602  : 		_Freeheadnode(this->_Myhead);
; 603  : 		_Free_proxy();
; 604  : 		}
; 605  : 
; 606  : 	void _Change_alloc(const _Alty& _Al)
; 607  : 		{	// replace old allocator
; 608  : 		_Free_proxy();
; 609  : 		this->_Alnod = _Al;
; 610  : 		_Alloc_proxy();
; 611  : 		}
; 612  : 
; 613  : 	void _Swap_alloc(_Myt& _Right)
; 614  : 		{	// swap allocators
; 615  : 		_Swap_adl(this->_Alnod, _Right._Alnod);
; 616  : 		_Swap_adl(this->_Myproxy, _Right._Myproxy);
; 617  : 		}
; 618  : 
; 619  : 	void _Alloc_proxy()
; 620  : 		{	// construct proxy from _Alnod
; 621  : 		typename _Alty::template rebind<_Container_proxy>::other
; 622  : 			_Alproxy(this->_Alnod);
; 623  : 		this->_Myproxy = _Alproxy.allocate(1);
; 624  : 		_Alproxy.construct(this->_Myproxy, _Container_proxy());
; 625  : 		this->_Myproxy->_Mycont = this;
; 626  : 		}
; 627  : 
; 628  : 	void _Free_proxy()
; 629  : 		{	// destroy proxy
; 630  : 		typename _Alty::template rebind<_Container_proxy>::other
; 631  : 			_Alproxy(this->_Alnod);
; 632  : 		this->_Orphan_all();
; 633  : 		_Alproxy.destroy(this->_Myproxy);
; 634  : 		_Alproxy.deallocate(this->_Myproxy, 1);
; 635  : 		this->_Myproxy = 0;
; 636  : 		}
; 637  :  #endif /* _ITERATOR_DEBUG_LEVEL == 0 */
; 638  : 
; 639  : 	_Nodeptr _Buyheadnode()
; 640  : 		{	// get head node using current allocator
; 641  : 		return (_Buynode0(_Nodeptr(), _Nodeptr()));
; 642  : 		}
; 643  : 
; 644  : 	void _Freeheadnode(_Nodeptr _Pnode)
; 645  : 		{	// free head node using current allocator
; 646  : 		this->_Alnod.destroy(
; 647  : 			_STD addressof(this->_Nextnode(_Pnode)));
; 648  : 		this->_Alnod.destroy(
; 649  : 			_STD addressof(this->_Prevnode(_Pnode)));
; 650  : 		this->_Alnod.deallocate(_Pnode, 1);
; 651  : 		}
; 652  : 
; 653  : 	_Nodeptr _Buynode0(_Nodeptr _Next,
; 654  : 		_Nodeptr _Prev)
; 655  : 		{	// allocate a node and set links
; 656  : 		_Nodeptr _Pnode = this->_Alnod.allocate(1);
; 657  : 
; 658  : 		if (_Next == _Nodeptr())
; 659  : 			{	// point at self
; 660  : 			_Next = _Pnode;
; 661  : 			_Prev = _Pnode;
; 662  : 			}
; 663  : 		_TRY_BEGIN
; 664  : 		this->_Alnod.construct(
; 665  : 			_STD addressof(this->_Nextnode(_Pnode)), _Next);
; 666  : 		this->_Alnod.construct(
; 667  : 			_STD addressof(this->_Prevnode(_Pnode)), _Prev);
; 668  : 		_CATCH_ALL
; 669  : 		this->_Alnod.deallocate(_Pnode, 1);
; 670  : 		_RERAISE;
; 671  : 		_CATCH_END
; 672  : 
; 673  : 		return (_Pnode);
; 674  : 		}
; 675  : 
; 676  : 	_Alty& _Getal()
; 677  : 		{	// get reference to allocator
; 678  : 		return (this->_Alnod);
; 679  : 		}
; 680  : 
; 681  : 	const _Alty& _Getal() const
; 682  : 		{	// get reference to allocator
; 683  : 		return (this->_Alnod);
; 684  : 		}
; 685  : 	};
; 686  : 
; 687  : 		// TEMPLATE CLASS _List_alloc
; 688  : template<class _Alloc_types>
; 689  : 	class _List_alloc<false, _Alloc_types>
; 690  : 		: public _List_val<typename _Alloc_types::_Val_types>
; 691  : 	{	// base class for list to hold allocator with no storage
; 692  : public:
; 693  : 	typedef _List_alloc<false, _Alloc_types> _Myt;
; 694  : 	typedef typename _Alloc_types::_Alloc _Alloc;
; 695  : 	typedef typename _Alloc_types::_Alnod_type _Alty;
; 696  : 	typedef typename _Alloc_types::_Node _Node;
; 697  : 	typedef typename _Alloc_types::_Nodeptr _Nodeptr;
; 698  : 
; 699  :  #if _ITERATOR_DEBUG_LEVEL == 0
; 700  : 	_List_alloc(const _Alloc& = _Alloc())
; 701  : 		{	// construct head node, allocator from _Al
; 702  : 		this->_Myhead = _Buyheadnode();

	mov	QWORD PTR [rbx], rax
; File c:\users\nummer\documents\github\olr-3.0\src\xray\xrcore\_sphere.cpp

; 255  : 	c[0].set(0,0,0);

	lea	rax, QWORD PTR [rbx+168]
	mov	QWORD PTR [rbx+20], rdi
; File c:\users\nummer\documents\github\olr-3.0\src\xray\xrcore\_vector3d.h

; 23   : 	ICF	SelfRef	set(T _x, T _y, T _z)					{ x = _x;		y = _y;		z = _z;		return *this;	};

	mov	QWORD PTR [rax], rdi
	mov	DWORD PTR [rax+8], edi
; File c:\users\nummer\documents\github\olr-3.0\src\xray\xrcore\_sphere.cpp

; 256  : 	current_c = c;

	mov	QWORD PTR [rbx+232], rax

; 257  : 	current_sqr_r = -1;

	mov	DWORD PTR [rbx+240], -1082130432	; bf800000H

; 69   : 	Miniball() {}

	mov	rax, rbx
; File c:\program files (x86)\microsoft visual studio 12.0\vc\include\list

; 39   : 		{	// construct with null node pointer

	mov	QWORD PTR [rbx+248], rdi
; File c:\users\nummer\documents\github\olr-3.0\src\xray\xrcore\_sphere.cpp

; 69   : 	Miniball() {}

	mov	rbx, QWORD PTR [rsp+48]
	add	rsp, 32					; 00000020H
	pop	rdi
	ret	0
??0Miniball@@QEAA@XZ ENDP				; Miniball::Miniball
_TEXT	ENDS
; Function compile flags: /Ogtpy
; File c:\program files (x86)\microsoft visual studio 12.0\vc\include\list
;	COMDAT ??0?$xr_list@U?$_vector3@M@@V?$xalloc@U?$_vector3@M@@@@@@QEAA@XZ
_TEXT	SEGMENT
this$ = 48
??0?$xr_list@U?$_vector3@M@@V?$xalloc@U?$_vector3@M@@@@@@QEAA@XZ PROC ; xr_list<_vector3<float>,xalloc<_vector3<float> > >::xr_list<_vector3<float>,xalloc<_vector3<float> > >, COMDAT
$LN16:
	push	rbx
	sub	rsp, 32					; 00000020H

; 527  : 		this->_Myhead = 0;

	xor	eax, eax

; 703  : 		}
; 704  : 
; 705  : 	~_List_alloc() _NOEXCEPT
; 706  : 		{	// destroy head node
; 707  : 		_Freeheadnode(this->_Myhead);
; 708  : 		}
; 709  : 
; 710  : 	void _Change_alloc(const _Alty&)
; 711  : 		{	// replace old allocator
; 712  : 		}
; 713  : 
; 714  : 	void _Swap_alloc(_Myt&)
; 715  : 		{	// swap allocators
; 716  : 		}
; 717  : 
; 718  :  #else /* _ITERATOR_DEBUG_LEVEL == 0 */
; 719  : 	_List_alloc(const _Alloc& = _Alloc())
; 720  : 		{	// construct allocators from _Al
; 721  : 		this->_Myhead = _Buyheadnode();
; 722  : 		_TRY_BEGIN
; 723  : 		_Alloc_proxy();
; 724  : 		_CATCH_ALL
; 725  : 		_Freeheadnode(this->_Myhead);
; 726  : 		_RERAISE;
; 727  : 		_CATCH_END
; 728  : 		}
; 729  : 
; 730  : 	~_List_alloc() _NOEXCEPT
; 731  : 		{	// destroy proxy
; 732  : 		_Freeheadnode(this->_Myhead);
; 733  : 		_Free_proxy();
; 734  : 		}
; 735  : 
; 736  : 	void _Change_alloc(const _Alty&)
; 737  : 		{	// replace old allocator
; 738  : 		}
; 739  : 
; 740  : 	void _Swap_alloc(_Myt& _Right)
; 741  : 		{	// swap allocators
; 742  : 		_Swap_adl(this->_Myproxy, _Right._Myproxy);
; 743  : 		}
; 744  : 
; 745  : 	void _Alloc_proxy()
; 746  : 		{	// construct proxy from _Alnod
; 747  : 		typename _Alty::template rebind<_Container_proxy>::other
; 748  : 			_Alproxy;
; 749  : 		this->_Myproxy = _Alproxy.allocate(1);
; 750  : 		_Alproxy.construct(this->_Myproxy, _Container_proxy());
; 751  : 		this->_Myproxy->_Mycont = this;
; 752  : 		}
; 753  : 
; 754  : 	void _Free_proxy()
; 755  : 		{	// destroy proxy
; 756  : 		typename _Alty::template rebind<_Container_proxy>::other
; 757  : 			_Alproxy;
; 758  : 		this->_Orphan_all();
; 759  : 		_Alproxy.destroy(this->_Myproxy);
; 760  : 		_Alproxy.deallocate(this->_Myproxy, 1);
; 761  : 		this->_Myproxy = 0;
; 762  : 		}
; 763  :  #endif /* _ITERATOR_DEBUG_LEVEL == 0 */
; 764  : 
; 765  : 	_Nodeptr _Buyheadnode()
; 766  : 		{	// get head node using current allocator
; 767  : 		return (_Buynode0(_Nodeptr(), _Nodeptr()));

	xor	r8d, r8d
	xor	edx, edx

; 527  : 		this->_Myhead = 0;

	mov	QWORD PTR [rcx], rax

; 528  : 		this->_Mysize = 0;

	mov	QWORD PTR [rcx+8], rax
	mov	rbx, rcx

; 703  : 		}
; 704  : 
; 705  : 	~_List_alloc() _NOEXCEPT
; 706  : 		{	// destroy head node
; 707  : 		_Freeheadnode(this->_Myhead);
; 708  : 		}
; 709  : 
; 710  : 	void _Change_alloc(const _Alty&)
; 711  : 		{	// replace old allocator
; 712  : 		}
; 713  : 
; 714  : 	void _Swap_alloc(_Myt&)
; 715  : 		{	// swap allocators
; 716  : 		}
; 717  : 
; 718  :  #else /* _ITERATOR_DEBUG_LEVEL == 0 */
; 719  : 	_List_alloc(const _Alloc& = _Alloc())
; 720  : 		{	// construct allocators from _Al
; 721  : 		this->_Myhead = _Buyheadnode();
; 722  : 		_TRY_BEGIN
; 723  : 		_Alloc_proxy();
; 724  : 		_CATCH_ALL
; 725  : 		_Freeheadnode(this->_Myhead);
; 726  : 		_RERAISE;
; 727  : 		_CATCH_END
; 728  : 		}
; 729  : 
; 730  : 	~_List_alloc() _NOEXCEPT
; 731  : 		{	// destroy proxy
; 732  : 		_Freeheadnode(this->_Myhead);
; 733  : 		_Free_proxy();
; 734  : 		}
; 735  : 
; 736  : 	void _Change_alloc(const _Alty&)
; 737  : 		{	// replace old allocator
; 738  : 		}
; 739  : 
; 740  : 	void _Swap_alloc(_Myt& _Right)
; 741  : 		{	// swap allocators
; 742  : 		_Swap_adl(this->_Myproxy, _Right._Myproxy);
; 743  : 		}
; 744  : 
; 745  : 	void _Alloc_proxy()
; 746  : 		{	// construct proxy from _Alnod
; 747  : 		typename _Alty::template rebind<_Container_proxy>::other
; 748  : 			_Alproxy;
; 749  : 		this->_Myproxy = _Alproxy.allocate(1);
; 750  : 		_Alproxy.construct(this->_Myproxy, _Container_proxy());
; 751  : 		this->_Myproxy->_Mycont = this;
; 752  : 		}
; 753  : 
; 754  : 	void _Free_proxy()
; 755  : 		{	// destroy proxy
; 756  : 		typename _Alty::template rebind<_Container_proxy>::other
; 757  : 			_Alproxy;
; 758  : 		this->_Orphan_all();
; 759  : 		_Alproxy.destroy(this->_Myproxy);
; 760  : 		_Alproxy.deallocate(this->_Myproxy, 1);
; 761  : 		this->_Myproxy = 0;
; 762  : 		}
; 763  :  #endif /* _ITERATOR_DEBUG_LEVEL == 0 */
; 764  : 
; 765  : 	_Nodeptr _Buyheadnode()
; 766  : 		{	// get head node using current allocator
; 767  : 		return (_Buynode0(_Nodeptr(), _Nodeptr()));

	call	?_Buynode0@?$_List_alloc@$0A@U?$_List_base_types@U?$_vector3@M@@V?$xalloc@U?$_vector3@M@@@@@std@@@std@@QEAAPEAU?$_List_node@U?$_vector3@M@@PEAX@2@PEAU32@0@Z ; std::_List_alloc<0,std::_List_base_types<_vector3<float>,xalloc<_vector3<float> > > >::_Buynode0

; 529  : 		}
; 530  : 
; 531  : 	static _Nodepref _Nextnode(_Nodeptr _Pnode)
; 532  : 		{	// return reference to successor pointer in node
; 533  : 		return ((_Nodepref)_Pnode->_Next);
; 534  : 		}
; 535  : 
; 536  : 	static _Nodepref _Prevnode(_Nodeptr _Pnode)
; 537  : 		{	// return reference to predecessor pointer in node
; 538  : 		return ((_Nodepref)_Pnode->_Prev);
; 539  : 		}
; 540  : 
; 541  : 	static reference _Myval(_Nodeptr _Pnode)
; 542  : 		{	// return reference to value in node
; 543  : 		return ((reference)_Pnode->_Myval);
; 544  : 		}
; 545  : 
; 546  : 	_Nodeptr _Myhead;	// pointer to head node
; 547  : 	size_type _Mysize;	// number of elements
; 548  : 	};
; 549  : 
; 550  : 		// TEMPLATE CLASS _List_alloc
; 551  : template<bool _Al_has_storage,
; 552  : 	class _Alloc_types>
; 553  : 	class _List_alloc
; 554  : 		: public _List_val<typename _Alloc_types::_Val_types>
; 555  : 	{	// base class for list to hold allocator with storage
; 556  : public:
; 557  : 	typename _Alloc_types::_Alnod_type _Alnod;	// allocator object
; 558  : 
; 559  : 	typedef _List_alloc<_Al_has_storage, _Alloc_types> _Myt;
; 560  : 	typedef typename _Alloc_types::_Alloc _Alloc;
; 561  : 	typedef typename _Alloc_types::_Alnod_type _Alty;
; 562  : 	typedef typename _Alloc_types::_Node _Node;
; 563  : 	typedef typename _Alloc_types::_Nodeptr _Nodeptr;
; 564  : 
; 565  :  #if _ITERATOR_DEBUG_LEVEL == 0
; 566  : 	_List_alloc(const _Alloc& _Al = _Alloc())
; 567  : 		: _Alnod(_Al)
; 568  : 		{	// construct head node, allocator from _Al
; 569  : 		this->_Myhead = _Buyheadnode();
; 570  : 		}
; 571  : 
; 572  : 	~_List_alloc() _NOEXCEPT
; 573  : 		{	// destroy head node
; 574  : 		_Freeheadnode(this->_Myhead);
; 575  : 		}
; 576  : 
; 577  : 	void _Change_alloc(const _Alty& _Al)
; 578  : 		{	// replace old allocator
; 579  : 		this->_Alnod = _Al;
; 580  : 		}
; 581  : 
; 582  : 	void _Swap_alloc(_Myt& _Right)
; 583  : 		{	// swap allocators
; 584  : 		_Swap_adl(this->_Alnod, _Right._Alnod);
; 585  : 		}
; 586  : 
; 587  :  #else /* _ITERATOR_DEBUG_LEVEL == 0 */
; 588  : 	_List_alloc(const _Alloc& _Al = _Alloc())
; 589  : 		: _Alnod(_Al)
; 590  : 		{	// construct head node, allocator from _Al
; 591  : 		this->_Myhead = _Buyheadnode();
; 592  : 		_TRY_BEGIN
; 593  : 		_Alloc_proxy();
; 594  : 		_CATCH_ALL
; 595  : 		_Freeheadnode(this->_Myhead);
; 596  : 		_RERAISE;
; 597  : 		_CATCH_END
; 598  : 		}
; 599  : 
; 600  : 	~_List_alloc() _NOEXCEPT
; 601  : 		{	// destroy proxy
; 602  : 		_Freeheadnode(this->_Myhead);
; 603  : 		_Free_proxy();
; 604  : 		}
; 605  : 
; 606  : 	void _Change_alloc(const _Alty& _Al)
; 607  : 		{	// replace old allocator
; 608  : 		_Free_proxy();
; 609  : 		this->_Alnod = _Al;
; 610  : 		_Alloc_proxy();
; 611  : 		}
; 612  : 
; 613  : 	void _Swap_alloc(_Myt& _Right)
; 614  : 		{	// swap allocators
; 615  : 		_Swap_adl(this->_Alnod, _Right._Alnod);
; 616  : 		_Swap_adl(this->_Myproxy, _Right._Myproxy);
; 617  : 		}
; 618  : 
; 619  : 	void _Alloc_proxy()
; 620  : 		{	// construct proxy from _Alnod
; 621  : 		typename _Alty::template rebind<_Container_proxy>::other
; 622  : 			_Alproxy(this->_Alnod);
; 623  : 		this->_Myproxy = _Alproxy.allocate(1);
; 624  : 		_Alproxy.construct(this->_Myproxy, _Container_proxy());
; 625  : 		this->_Myproxy->_Mycont = this;
; 626  : 		}
; 627  : 
; 628  : 	void _Free_proxy()
; 629  : 		{	// destroy proxy
; 630  : 		typename _Alty::template rebind<_Container_proxy>::other
; 631  : 			_Alproxy(this->_Alnod);
; 632  : 		this->_Orphan_all();
; 633  : 		_Alproxy.destroy(this->_Myproxy);
; 634  : 		_Alproxy.deallocate(this->_Myproxy, 1);
; 635  : 		this->_Myproxy = 0;
; 636  : 		}
; 637  :  #endif /* _ITERATOR_DEBUG_LEVEL == 0 */
; 638  : 
; 639  : 	_Nodeptr _Buyheadnode()
; 640  : 		{	// get head node using current allocator
; 641  : 		return (_Buynode0(_Nodeptr(), _Nodeptr()));
; 642  : 		}
; 643  : 
; 644  : 	void _Freeheadnode(_Nodeptr _Pnode)
; 645  : 		{	// free head node using current allocator
; 646  : 		this->_Alnod.destroy(
; 647  : 			_STD addressof(this->_Nextnode(_Pnode)));
; 648  : 		this->_Alnod.destroy(
; 649  : 			_STD addressof(this->_Prevnode(_Pnode)));
; 650  : 		this->_Alnod.deallocate(_Pnode, 1);
; 651  : 		}
; 652  : 
; 653  : 	_Nodeptr _Buynode0(_Nodeptr _Next,
; 654  : 		_Nodeptr _Prev)
; 655  : 		{	// allocate a node and set links
; 656  : 		_Nodeptr _Pnode = this->_Alnod.allocate(1);
; 657  : 
; 658  : 		if (_Next == _Nodeptr())
; 659  : 			{	// point at self
; 660  : 			_Next = _Pnode;
; 661  : 			_Prev = _Pnode;
; 662  : 			}
; 663  : 		_TRY_BEGIN
; 664  : 		this->_Alnod.construct(
; 665  : 			_STD addressof(this->_Nextnode(_Pnode)), _Next);
; 666  : 		this->_Alnod.construct(
; 667  : 			_STD addressof(this->_Prevnode(_Pnode)), _Prev);
; 668  : 		_CATCH_ALL
; 669  : 		this->_Alnod.deallocate(_Pnode, 1);
; 670  : 		_RERAISE;
; 671  : 		_CATCH_END
; 672  : 
; 673  : 		return (_Pnode);
; 674  : 		}
; 675  : 
; 676  : 	_Alty& _Getal()
; 677  : 		{	// get reference to allocator
; 678  : 		return (this->_Alnod);
; 679  : 		}
; 680  : 
; 681  : 	const _Alty& _Getal() const
; 682  : 		{	// get reference to allocator
; 683  : 		return (this->_Alnod);
; 684  : 		}
; 685  : 	};
; 686  : 
; 687  : 		// TEMPLATE CLASS _List_alloc
; 688  : template<class _Alloc_types>
; 689  : 	class _List_alloc<false, _Alloc_types>
; 690  : 		: public _List_val<typename _Alloc_types::_Val_types>
; 691  : 	{	// base class for list to hold allocator with no storage
; 692  : public:
; 693  : 	typedef _List_alloc<false, _Alloc_types> _Myt;
; 694  : 	typedef typename _Alloc_types::_Alloc _Alloc;
; 695  : 	typedef typename _Alloc_types::_Alnod_type _Alty;
; 696  : 	typedef typename _Alloc_types::_Node _Node;
; 697  : 	typedef typename _Alloc_types::_Nodeptr _Nodeptr;
; 698  : 
; 699  :  #if _ITERATOR_DEBUG_LEVEL == 0
; 700  : 	_List_alloc(const _Alloc& = _Alloc())
; 701  : 		{	// construct head node, allocator from _Al
; 702  : 		this->_Myhead = _Buyheadnode();

	mov	QWORD PTR [rbx], rax
	mov	rax, rbx
	add	rsp, 32					; 00000020H
	pop	rbx
	ret	0
??0?$xr_list@U?$_vector3@M@@V?$xalloc@U?$_vector3@M@@@@@@QEAA@XZ ENDP ; xr_list<_vector3<float>,xalloc<_vector3<float> > >::xr_list<_vector3<float>,xalloc<_vector3<float> > >
_TEXT	ENDS
; Function compile flags: /Ogtpy
; File c:\program files (x86)\microsoft visual studio 12.0\vc\include\list
; File c:\program files (x86)\microsoft visual studio 12.0\vc\include\xmemory0
; File c:\users\nummer\documents\github\olr-3.0\src\xray\xrcore\_stl_extensions.h
; File c:\program files (x86)\microsoft visual studio 12.0\vc\include\xmemory0
; File c:\users\nummer\documents\github\olr-3.0\src\xray\xrcore\_stl_extensions.h
;	COMDAT ??1?$xr_list@U?$_vector3@M@@V?$xalloc@U?$_vector3@M@@@@@@QEAA@XZ
_TEXT	SEGMENT
p$1 = 48
this$ = 48
??1?$xr_list@U?$_vector3@M@@V?$xalloc@U?$_vector3@M@@@@@@QEAA@XZ PROC ; xr_list<_vector3<float>,xalloc<_vector3<float> > >::~xr_list<_vector3<float>,xalloc<_vector3<float> > >, COMDAT
$LN32:
	push	rbx
	sub	rsp, 32					; 00000020H
	mov	rbx, rcx
; File c:\program files (x86)\microsoft visual studio 12.0\vc\include\list

; 1883 : 		clear();

	call	?clear@?$list@U?$_vector3@M@@V?$xalloc@U?$_vector3@M@@@@@std@@QEAAXXZ ; std::list<_vector3<float>,xalloc<_vector3<float> > >::clear
; File c:\program files (x86)\microsoft visual studio 12.0\vc\include\xmemory0

; 858  : 		_Mybase::deallocate(_Ptr, _Count);

	mov	rax, QWORD PTR [rbx]
; File c:\users\nummer\documents\github\olr-3.0\src\xray\xrcore\_stl_extensions.h

; 82   : 							void					deallocate		(pointer p, size_type n) const			{	xr_free	(p);				}

	lea	rcx, QWORD PTR p$1[rsp]
; File c:\program files (x86)\microsoft visual studio 12.0\vc\include\xmemory0

; 858  : 		_Mybase::deallocate(_Ptr, _Count);

	mov	QWORD PTR p$1[rsp], rax
; File c:\users\nummer\documents\github\olr-3.0\src\xray\xrcore\_stl_extensions.h

; 82   : 							void					deallocate		(pointer p, size_type n) const			{	xr_free	(p);				}

	call	??$xr_free@U?$_List_node@U?$_vector3@M@@PEAX@std@@@@YAXAEAPEAU?$_List_node@U?$_vector3@M@@PEAX@std@@@Z ; xr_free<std::_List_node<_vector3<float>,void * __ptr64> >
	add	rsp, 32					; 00000020H
	pop	rbx
	ret	0
??1?$xr_list@U?$_vector3@M@@V?$xalloc@U?$_vector3@M@@@@@@QEAA@XZ ENDP ; xr_list<_vector3<float>,xalloc<_vector3<float> > >::~xr_list<_vector3<float>,xalloc<_vector3<float> > >
_TEXT	ENDS
; Function compile flags: /Ogtpy
; File c:\users\nummer\documents\github\olr-3.0\src\xray\xrcore\_sphere.cpp
; File c:\program files (x86)\microsoft visual studio 12.0\vc\include\list
; File c:\users\nummer\documents\github\olr-3.0\src\xray\xrcore\_sphere.cpp
; File c:\program files (x86)\microsoft visual studio 12.0\vc\include\list
; File c:\users\nummer\documents\github\olr-3.0\src\xray\xrcore\_sphere.cpp
; File c:\program files (x86)\microsoft visual studio 12.0\vc\include\list
; File c:\users\nummer\documents\github\olr-3.0\src\xray\xrcore\_sphere.cpp
_TEXT	SEGMENT
this$ = 48
p$ = 56
?check_in@Miniball@@QEAAXAEBU?$_vector3@M@@@Z PROC	; Miniball::check_in

; 88   : {

$LN47:
	mov	QWORD PTR [rsp+8], rbx
	push	rdi
	sub	rsp, 32					; 00000020H
; File c:\program files (x86)\microsoft visual studio 12.0\vc\include\list

; 96   : 		return (_Ptr);

	mov	rdi, QWORD PTR [rcx]

; 1062 : 				_STD forward<_Valty>(_Val)...);

	mov	r9, rdx
; File c:\users\nummer\documents\github\olr-3.0\src\xray\xrcore\_sphere.cpp

; 88   : {

	mov	rbx, rcx
; File c:\program files (x86)\microsoft visual studio 12.0\vc\include\list

; 1062 : 				_STD forward<_Valty>(_Val)...);

	mov	r8, QWORD PTR [rdi+8]
	mov	rdx, rdi
	call	??$_Buynode@AEBU?$_vector3@M@@@?$_List_buy@U?$_vector3@M@@V?$xalloc@U?$_vector3@M@@@@@std@@QEAAPEAU?$_List_node@U?$_vector3@M@@PEAX@1@PEAU21@0AEBU?$_vector3@M@@@Z ; std::_List_buy<_vector3<float>,xalloc<_vector3<float> > >::_Buynode<_vector3<float> const & __ptr64>

; 1066 : 		}
; 1067 : 
; 1068 : 
; 1069 : 	list(_XSTD initializer_list<_Ty> _Ilist,
; 1070 : 		const _Alloc& _Al = allocator_type())
; 1071 : 		: _Mybase(_Al)
; 1072 : 		{	// construct from initializer_list
; 1073 : 		insert(begin(), _Ilist.begin(), _Ilist.end());
; 1074 : 		}
; 1075 : 
; 1076 : 	_Myt& operator=(_XSTD initializer_list<_Ty> _Ilist)
; 1077 : 		{	// assign initializer_list
; 1078 : 		assign(_Ilist.begin(), _Ilist.end());
; 1079 : 		return (*this);
; 1080 : 		}
; 1081 : 
; 1082 : 	void assign(_XSTD initializer_list<_Ty> _Ilist)
; 1083 : 		{	// assign initializer_list
; 1084 : 		assign(_Ilist.begin(), _Ilist.end());
; 1085 : 		}
; 1086 : 
; 1087 : 	iterator insert(const_iterator _Where,
; 1088 : 		_XSTD initializer_list<_Ty> _Ilist)
; 1089 : 		{	// insert initializer_list
; 1090 : 		return (insert(_Where, _Ilist.begin(), _Ilist.end()));
; 1091 : 		}
; 1092 : 
; 1093 : 	~list() _NOEXCEPT
; 1094 : 		{	// destroy the object
; 1095 : 		_Tidy();
; 1096 : 		}
; 1097 : 
; 1098 : 	_Myt& operator=(const _Myt& _Right)
; 1099 : 		{	// assign _Right
; 1100 : 		if (this != &_Right)
; 1101 : 			{	// different, assign it
; 1102 : 			if (this->_Getal() != _Right._Getal()
; 1103 : 				&& _Alty::propagate_on_container_copy_assignment::value)
; 1104 : 				{	// change allocator before copying
; 1105 : 				clear();
; 1106 : 				this->_Change_alloc(_Right._Getal());
; 1107 : 				}
; 1108 : 
; 1109 : 			assign(_Right.begin(), _Right.end());
; 1110 : 			}
; 1111 : 		return (*this);
; 1112 : 		}
; 1113 : 
; 1114 : 	iterator begin() _NOEXCEPT
; 1115 : 		{	// return iterator for beginning of mutable sequence
; 1116 : 		return (iterator(this->_Nextnode(this->_Myhead), this));
; 1117 : 		}
; 1118 : 
; 1119 : 	const_iterator begin() const _NOEXCEPT
; 1120 : 		{	// return iterator for beginning of nonmutable sequence
; 1121 : 		return (const_iterator(this->_Nextnode(this->_Myhead), this));
; 1122 : 		}
; 1123 : 
; 1124 : 	iterator end() _NOEXCEPT
; 1125 : 		{	// return iterator for end of mutable sequence
; 1126 : 		return (iterator(this->_Myhead, this));
; 1127 : 		}
; 1128 : 
; 1129 : 	const_iterator end() const _NOEXCEPT
; 1130 : 		{	// return iterator for end of nonmutable sequence
; 1131 : 		return (const_iterator(this->_Myhead, this));
; 1132 : 		}
; 1133 : 
; 1134 : 	_Unchecked_iterator _Unchecked_begin()
; 1135 : 		{	// return iterator for beginning of mutable sequence
; 1136 : 		return (_Unchecked_iterator(this->_Nextnode(this->_Myhead),
; 1137 : 			this));
; 1138 : 		}
; 1139 : 
; 1140 : 	_Unchecked_const_iterator _Unchecked_begin() const
; 1141 : 		{	// return iterator for beginning of nonmutable sequence
; 1142 : 		return (_Unchecked_const_iterator(this->_Nextnode(this->_Myhead),
; 1143 : 			this));
; 1144 : 		}
; 1145 : 
; 1146 : 	_Unchecked_iterator _Unchecked_end()
; 1147 : 		{	// return unchecked iterator for end of mutable sequence
; 1148 : 		return (_Unchecked_iterator(this->_Myhead, this));
; 1149 : 		}
; 1150 : 
; 1151 : 	_Unchecked_const_iterator _Unchecked_end() const
; 1152 : 		{	// return unchecked iterator for end of nonmutable sequence
; 1153 : 		return (_Unchecked_const_iterator(this->_Myhead, this));
; 1154 : 		}
; 1155 : 
; 1156 : 	iterator _Make_iter(const_iterator _Where) const _NOEXCEPT
; 1157 : 		{	// make iterator from const_iterator
; 1158 : 		return (iterator(_Where._Ptr, this));
; 1159 : 		}
; 1160 : 
; 1161 : 	iterator _Make_iter(_Unchecked_const_iterator _Where) const
; 1162 : 		{	// make iterator from _Unchecked_const_iterator
; 1163 : 		return (iterator(_Where._Ptr, this));
; 1164 : 		}
; 1165 : 
; 1166 : 	reverse_iterator rbegin() _NOEXCEPT
; 1167 : 		{	// return iterator for beginning of reversed mutable sequence
; 1168 : 		return (reverse_iterator(end()));
; 1169 : 		}
; 1170 : 
; 1171 : 	const_reverse_iterator rbegin() const _NOEXCEPT
; 1172 : 		{	// return iterator for beginning of reversed nonmutable sequence
; 1173 : 		return (const_reverse_iterator(end()));
; 1174 : 		}
; 1175 : 
; 1176 : 	reverse_iterator rend() _NOEXCEPT
; 1177 : 		{	// return iterator for end of reversed mutable sequence
; 1178 : 		return (reverse_iterator(begin()));
; 1179 : 		}
; 1180 : 
; 1181 : 	const_reverse_iterator rend() const _NOEXCEPT
; 1182 : 		{	// return iterator for end of reversed nonmutable sequence
; 1183 : 		return (const_reverse_iterator(begin()));
; 1184 : 		}
; 1185 : 
; 1186 : 	const_iterator cbegin() const _NOEXCEPT
; 1187 : 		{	// return iterator for beginning of nonmutable sequence
; 1188 : 		return (((const _Myt *)this)->begin());
; 1189 : 		}
; 1190 : 
; 1191 : 	const_iterator cend() const _NOEXCEPT
; 1192 : 		{	// return iterator for end of nonmutable sequence
; 1193 : 		return (((const _Myt *)this)->end());
; 1194 : 		}
; 1195 : 
; 1196 : 	const_reverse_iterator crbegin() const _NOEXCEPT
; 1197 : 		{	// return iterator for beginning of reversed nonmutable sequence
; 1198 : 		return (((const _Myt *)this)->rbegin());
; 1199 : 		}
; 1200 : 
; 1201 : 	const_reverse_iterator crend() const _NOEXCEPT
; 1202 : 		{	// return iterator for end of reversed nonmutable sequence
; 1203 : 		return (((const _Myt *)this)->rend());
; 1204 : 		}
; 1205 : 
; 1206 : 	void resize(size_type _Newsize)
; 1207 : 		{	// determine new length, padding with _Ty() elements as needed
; 1208 : 		if (this->_Mysize < _Newsize)
; 1209 : 			{	// pad to make larger
; 1210 : 			size_type _Count = 0;
; 1211 : 			_TRY_BEGIN
; 1212 : 			for (; this->_Mysize < _Newsize; ++_Count)
; 1213 : 				_Insert(_Unchecked_end());
; 1214 : 			_CATCH_ALL
; 1215 : 			for (; 0 < _Count; --_Count)
; 1216 : 				pop_back();	// undo inserts
; 1217 : 			_RERAISE;
; 1218 : 			_CATCH_END
; 1219 : 			}
; 1220 : 		else
; 1221 : 			while (_Newsize < this->_Mysize)
; 1222 : 				pop_back();
; 1223 : 		}
; 1224 : 
; 1225 : 	void resize(size_type _Newsize, const _Ty& _Val)
; 1226 : 		{	// determine new length, padding with _Val elements as needed
; 1227 : 		if (this->_Mysize < _Newsize)
; 1228 : 			_Insert_n(_Unchecked_end(), _Newsize - this->_Mysize, _Val);
; 1229 : 		else
; 1230 : 			while (_Newsize < this->_Mysize)
; 1231 : 				pop_back();
; 1232 : 		}
; 1233 : 
; 1234 : 	size_type size() const _NOEXCEPT
; 1235 : 		{	// return length of sequence
; 1236 : 		return (this->_Mysize);
; 1237 : 		}
; 1238 : 
; 1239 : 	size_type max_size() const _NOEXCEPT
; 1240 : 		{	// return maximum possible length of sequence
; 1241 : 		return (this->_Getal().max_size());
; 1242 : 		}
; 1243 : 
; 1244 : 	bool empty() const _NOEXCEPT
; 1245 : 		{	// test if sequence is empty
; 1246 : 		return (this->_Mysize == 0);
; 1247 : 		}
; 1248 : 
; 1249 : 	allocator_type get_allocator() const _NOEXCEPT
; 1250 : 		{	// return allocator object for values
; 1251 : 		return (this->_Getal());
; 1252 : 		}
; 1253 : 
; 1254 : 	reference front()
; 1255 : 		{	// return first element of mutable sequence
; 1256 : 		return (*begin());
; 1257 : 		}
; 1258 : 
; 1259 : 	const_reference front() const
; 1260 : 		{	// return first element of nonmutable sequence
; 1261 : 		return (*begin());
; 1262 : 		}
; 1263 : 
; 1264 : 	reference back()
; 1265 : 		{	// return last element of mutable sequence
; 1266 : 		return (*(--end()));
; 1267 : 		}
; 1268 : 
; 1269 : 	const_reference back() const
; 1270 : 		{	// return last element of nonmutable sequence
; 1271 : 		return (*(--end()));
; 1272 : 		}
; 1273 : 
; 1274 : 	void push_front(const _Ty& _Val)
; 1275 : 		{	// insert element at beginning
; 1276 : 		_Insert(_Unchecked_begin(), _Val);
; 1277 : 		}
; 1278 : 
; 1279 : 	void pop_front()
; 1280 : 		{	// erase element at beginning
; 1281 : 		erase(begin());
; 1282 : 		}
; 1283 : 
; 1284 : 	void push_back(const _Ty& _Val)
; 1285 : 		{	// insert element at end
; 1286 : 		_Insert(_Unchecked_end(), _Val);
; 1287 : 		}
; 1288 : 
; 1289 : 	void pop_back()
; 1290 : 		{	// erase element at end
; 1291 : 		erase(--end());
; 1292 : 		}
; 1293 : 
; 1294 : 	template<class _Iter>
; 1295 : 		typename enable_if<_Is_iterator<_Iter>::value,
; 1296 : 			void>::type
; 1297 : 		assign(_Iter _First, _Iter _Last)
; 1298 : 		{	// assign [_First, _Last), input iterators
; 1299 : 		iterator _Old = begin();
; 1300 : 		_TRY_BEGIN
; 1301 : 		for (; _First != _Last && _Old != end(); ++_First, ++_Old)
; 1302 : 			_Reusenode(_Old, *_First);
; 1303 : 		for (; _First != _Last; ++_First)
; 1304 : 			_Insert(_Unchecked_end(), *_First);
; 1305 : 		_CATCH_ALL
; 1306 : 		clear();
; 1307 : 		_RERAISE;
; 1308 : 		_CATCH_END
; 1309 : 		erase(_Old, end());
; 1310 : 		}
; 1311 : 
; 1312 : 	template<class _TArg>
; 1313 : 		void _Reusenode(iterator _Where, _TArg&& _Arg)
; 1314 : 		{	// destroy the element at _Where and reconstruct from _Arg
; 1315 : 		_TRY_BEGIN
; 1316 : 		this->_Getal().destroy(
; 1317 : 			_STD addressof(this->_Myval(_Where._Ptr)));
; 1318 : 		this->_Getal().construct(
; 1319 : 			_STD addressof(this->_Myval(_Where._Ptr)),
; 1320 : 			_STD forward<_TArg>(_Arg));
; 1321 : 		_CATCH_ALL
; 1322 : 		_Unlinknode(_Where);
; 1323 : 		this->_Getal().destroy(
; 1324 : 			_STD addressof(this->_Nextnode(_Where._Ptr)));
; 1325 : 		this->_Getal().destroy(
; 1326 : 			_STD addressof(this->_Prevnode(_Where._Ptr)));
; 1327 : 		this->_Getal().deallocate(_Where._Ptr, 1);
; 1328 : 		_RERAISE;
; 1329 : 		_CATCH_END
; 1330 : 		}
; 1331 : 
; 1332 : 	void assign(size_type _Count, const _Ty& _Val)
; 1333 : 		{	// assign _Count * _Val
; 1334 : 		clear();
; 1335 : 		_Insert_n(_Unchecked_begin(), _Count, _Val);
; 1336 : 		}
; 1337 : 
; 1338 : 	iterator insert(const_iterator _Where, const _Ty& _Val)
; 1339 : 		{	// insert _Val at _Where
; 1340 :  #if _ITERATOR_DEBUG_LEVEL == 2
; 1341 : 		if (_Where._Getcont() != this)
; 1342 : 			_DEBUG_ERROR("list insert iterator outside range");
; 1343 :  #endif /* _ITERATOR_DEBUG_LEVEL == 2 */
; 1344 : 
; 1345 : 		_Insert(_Where._Unchecked(), _Val);
; 1346 : 		return (_Make_iter(--_Where));
; 1347 : 		}
; 1348 : 
; 1349 : 	iterator insert(const_iterator _Where, size_type _Count, const _Ty& _Val)
; 1350 : 		{	// insert _Count * _Val at _Where
; 1351 :  #if _ITERATOR_DEBUG_LEVEL == 2
; 1352 : 		if (_Where._Getcont() != this)
; 1353 : 			_DEBUG_ERROR("list insert iterator outside range");
; 1354 :  #endif /* _ITERATOR_DEBUG_LEVEL == 2 */
; 1355 : 
; 1356 : 		iterator _Prev = _Make_iter(_Where);
; 1357 : 		if (_Prev == begin())
; 1358 : 			{	// insert sequence at beginning
; 1359 : 			_Insert_n(_Where._Unchecked(), _Count, _Val);
; 1360 : 			return (begin());
; 1361 : 			}
; 1362 : 		else
; 1363 : 			{	// insert sequence not at beginning
; 1364 : 			--_Prev;
; 1365 : 			_Insert_n(_Where._Unchecked(), _Count, _Val);
; 1366 : 			return (++_Prev);
; 1367 : 			}
; 1368 : 		}
; 1369 : 
; 1370 : 	template<class _Iter>
; 1371 : 		typename enable_if<_Is_iterator<_Iter>::value,
; 1372 : 			iterator>::type
; 1373 : 		insert(const_iterator _Where, _Iter _First, _Iter _Last)
; 1374 : 		{	// insert [_First, _Last) at _Where
; 1375 :  #if _ITERATOR_DEBUG_LEVEL == 2
; 1376 : 		if (_Where._Getcont() != this)
; 1377 : 			_DEBUG_ERROR("list insert iterator outside range");
; 1378 :  #endif /* _ITERATOR_DEBUG_LEVEL == 2 */
; 1379 : 
; 1380 : 		iterator _Prev = _Make_iter(_Where);
; 1381 : 		if (_Prev == begin())
; 1382 : 			{	// insert sequence at beginning
; 1383 : 			_Insert_range(_Where._Unchecked(), _First, _Last,
; 1384 : 				_Iter_cat(_First));
; 1385 : 			return (begin());
; 1386 : 			}
; 1387 : 		else
; 1388 : 			{	// insert sequence not at beginning
; 1389 : 			--_Prev;
; 1390 : 			_Insert_range(_Where._Unchecked(), _First, _Last,
; 1391 : 				_Iter_cat(_First));
; 1392 : 			return (++_Prev);
; 1393 : 			}
; 1394 : 		}
; 1395 : 
; 1396 : 	template<class _Iter>
; 1397 : 		void _Insert_range(_Unchecked_const_iterator _Where,
; 1398 : 			_Iter _First, _Iter _Last, input_iterator_tag)
; 1399 : 		{	// insert [_First, _Last) at _Where, input iterators
; 1400 : 		size_type _Num = 0;
; 1401 : 
; 1402 : 		_TRY_BEGIN
; 1403 : 		for (; _First != _Last; ++_First, ++_Num)
; 1404 : 			_Insert(_Where, *_First);
; 1405 : 		_CATCH_ALL
; 1406 : 		for (; 0 < _Num; --_Num)
; 1407 : 			{	// undo inserts
; 1408 : 			_Unchecked_const_iterator _Before = _Where;
; 1409 : 			_Unchecked_erase(--_Before);
; 1410 : 			}
; 1411 : 		_RERAISE;
; 1412 : 		_CATCH_END
; 1413 : 		}
; 1414 : 
; 1415 : 	template<class _Iter>
; 1416 : 		void _Insert_range(_Unchecked_const_iterator _Where,
; 1417 : 			_Iter _First, _Iter _Last, forward_iterator_tag)
; 1418 : 		{	// insert [_First, _Last) at _Where, forward iterators
; 1419 : 		_DEBUG_RANGE(_First, _Last);
; 1420 : 		_Iter _Next = _First;
; 1421 : 
; 1422 : 		_TRY_BEGIN
; 1423 : 		for (; _First != _Last; ++_First)
; 1424 : 			_Insert(_Where, *_First);
; 1425 : 		_CATCH_ALL
; 1426 : 		for (; _Next != _First; ++_Next)
; 1427 : 			{	// undo inserts
; 1428 : 			_Unchecked_const_iterator _Before = _Where;
; 1429 : 			_Unchecked_erase(--_Before);
; 1430 : 			}
; 1431 : 		_RERAISE;
; 1432 : 		_CATCH_END
; 1433 : 		}
; 1434 : 
; 1435 : 	_Nodeptr _Unlinknode(const_iterator _Where)
; 1436 : 		{	// unlink node at _Where from the list
; 1437 :  #if _ITERATOR_DEBUG_LEVEL == 2
; 1438 : 		if (_Where._Getcont() != this || _Where._Ptr == this->_Myhead)
; 1439 : 			_DEBUG_ERROR("list erase iterator outside range");
; 1440 : 		_Nodeptr _Pnode = (_Where)._Mynode();
; 1441 : 		_Orphan_ptr(*this, _Pnode);
; 1442 : 
; 1443 :  #else /* _ITERATOR_DEBUG_LEVEL == 2 */
; 1444 : 		_Nodeptr _Pnode = (_Where)._Mynode();
; 1445 :  #endif /* _ITERATOR_DEBUG_LEVEL == 2 */
; 1446 : 
; 1447 : 		this->_Nextnode(this->_Prevnode(_Pnode)) =
; 1448 : 			this->_Nextnode(_Pnode);
; 1449 : 		this->_Prevnode(this->_Nextnode(_Pnode)) =
; 1450 : 			this->_Prevnode(_Pnode);
; 1451 : 
; 1452 : 		--this->_Mysize;
; 1453 : 		return (_Pnode);
; 1454 : 		}
; 1455 : 
; 1456 : 	iterator erase(const_iterator _Where)
; 1457 : 		{	// erase element at _Where
; 1458 : 		_Nodeptr _Pnode = _Unlinknode(_Where++);
; 1459 : 		this->_Freenode(_Pnode);
; 1460 : 		return (_Make_iter(_Where));
; 1461 : 		}
; 1462 : 
; 1463 : 	void _Unchecked_erase(_Unchecked_const_iterator _Where)
; 1464 : 		{	// erase element at _Where
; 1465 : 		_Nodeptr _Pnode = _Where._Mynode();
; 1466 : 
; 1467 : 		this->_Nextnode(this->_Prevnode(_Pnode)) =
; 1468 : 			this->_Nextnode(_Pnode);
; 1469 : 		this->_Prevnode(this->_Nextnode(_Pnode)) =
; 1470 : 			this->_Prevnode(_Pnode);
; 1471 : 		this->_Freenode(_Pnode);
; 1472 : 		--this->_Mysize;
; 1473 : 		}
; 1474 : 
; 1475 : 	iterator erase(const_iterator _First, const_iterator _Last)
; 1476 : 		{	// erase [_First, _Last)
; 1477 : 		if (_First == begin() && _Last == end())
; 1478 : 			{	// erase all and return fresh iterator
; 1479 : 			clear();
; 1480 : 			return (end());
; 1481 : 			}
; 1482 : 		else
; 1483 : 			{	// erase subrange
; 1484 : 			while (_First != _Last)
; 1485 : 				_First = erase(_First);
; 1486 : 			return (_Make_iter(_Last));
; 1487 : 			}
; 1488 : 		}
; 1489 : 
; 1490 : 	void clear() _NOEXCEPT
; 1491 : 		{	// erase all
; 1492 :  #if _ITERATOR_DEBUG_LEVEL == 2
; 1493 : 		this->_Orphan_ptr(*this, nullptr);
; 1494 :  #endif /* _ITERATOR_DEBUG_LEVEL == 2 */
; 1495 : 
; 1496 : 		_Nodeptr _Pnode = this->_Nextnode(this->_Myhead);
; 1497 : 		this->_Nextnode(this->_Myhead) = this->_Myhead;
; 1498 : 		this->_Prevnode(this->_Myhead) = this->_Myhead;
; 1499 : 		this->_Mysize = 0;
; 1500 : 
; 1501 : 		for (_Nodeptr _Pnext; _Pnode != this->_Myhead; _Pnode = _Pnext)
; 1502 : 			{	// delete an element
; 1503 : 			_Pnext = this->_Nextnode(_Pnode);
; 1504 : 			this->_Freenode(_Pnode);
; 1505 : 			}
; 1506 : 		}
; 1507 : 
; 1508 : 	void swap(_Myt& _Right)
; 1509 : 		{	// exchange contents with _Right
; 1510 : 		if (this == &_Right)
; 1511 : 			;	// same object, do nothing
; 1512 : 		else if (this->_Getal() == _Right._Getal())
; 1513 : 			{	// same allocator, swap control information
; 1514 : 			this->_Swap_all(_Right);
; 1515 : 			_Swap_adl(this->_Myhead, _Right._Myhead);
; 1516 : 			_STD swap(this->_Mysize, _Right._Mysize);
; 1517 : 			}
; 1518 : 
; 1519 : 		else if (_Alty::propagate_on_container_swap::value)
; 1520 : 			{	// swap allocators and control information
; 1521 : 			this->_Swap_alloc(_Right);
; 1522 : 			_Swap_adl(this->_Myhead, _Right._Myhead);
; 1523 : 			_STD swap(this->_Mysize, _Right._Mysize);
; 1524 : 			}
; 1525 : 
; 1526 : 		else	// containers are incompatible
; 1527 : 
; 1528 :  #if _ITERATOR_DEBUG_LEVEL == 2
; 1529 : 			_DEBUG_ERROR("list containers incompatible for swap");
; 1530 : 
; 1531 :  #else /* ITERATOR_DEBUG_LEVEL == 2 */
; 1532 : 			_XSTD terminate();
; 1533 :  #endif /* ITERATOR_DEBUG_LEVEL == 2 */
; 1534 : 		}
; 1535 : 
; 1536 : 	void splice(const_iterator _Where, _Myt& _Right)
; 1537 : 		{	// splice all of _Right at _Where
; 1538 : 		if (this != &_Right && !_Right.empty())
; 1539 : 			{	// worth splicing, do it
; 1540 : 			_Splice(_Where, _Right, _Right.begin(), _Right.end(),
; 1541 : 				_Right._Mysize);
; 1542 : 			}
; 1543 : 		}
; 1544 : 
; 1545 : 	void splice(const_iterator _Where, _Myt&& _Right)
; 1546 : 		{	// splice all of _Right at _Where
; 1547 : 		splice(_Where, (_Myt&)_Right);
; 1548 : 		}
; 1549 : 
; 1550 : 	void splice(const_iterator _Where, _Myt& _Right,
; 1551 : 		const_iterator _First)
; 1552 : 		{	// splice _Right [_First, _First + 1) at _Where
; 1553 :  #if _ITERATOR_DEBUG_LEVEL == 2
; 1554 : 		if (_First == _Right.end())
; 1555 : 			_DEBUG_ERROR("list splice iterator outside range");
; 1556 : 		else
; 1557 : 
; 1558 :  #else /* _ITERATOR_DEBUG_LEVEL == 2 */
; 1559 : 		if (_First != _Right.end())
; 1560 :  #endif /* _ITERATOR_DEBUG_LEVEL == 2 */
; 1561 : 
; 1562 : 			{	// element exists, try splice
; 1563 : 			const_iterator _Last = _First;
; 1564 : 			++_Last;
; 1565 : 			if (this != &_Right
; 1566 : 				|| (_Where != _First && _Where != _Last))
; 1567 : 				_Splice(_Where, _Right, _First, _Last, 1);
; 1568 : 			}
; 1569 : 		}
; 1570 : 
; 1571 : 	void splice(const_iterator _Where, _Myt&& _Right,
; 1572 : 		const_iterator _First)
; 1573 : 		{	// splice _Right [_First, _First + 1) at _Where
; 1574 : 		splice(_Where, (_Myt&)_Right, _First);
; 1575 : 		}
; 1576 : 
; 1577 : 	void splice(const_iterator _Where,
; 1578 : 		_Myt& _Right, const_iterator _First, const_iterator _Last)
; 1579 : 		{	// splice _Right [_First, _Last) at _Where
; 1580 : 		if (_First != _Last && (this != &_Right || _Where != _Last))
; 1581 : 			{	// worth splicing, do it
; 1582 : 			size_type _Count = 0;
; 1583 : 
; 1584 : 			if (this == &_Right)
; 1585 : 				;	// just rearrange this list
; 1586 : 			else if (_First == _Right.begin() && _Last == _Right.end())
; 1587 : 				_Count = _Right._Mysize;	// splice in whole list
; 1588 : 			else
; 1589 : 				{	// count nodes and check for knot
; 1590 : 				const_iterator _Next = _First;
; 1591 : 
; 1592 : 				for (; _Next != _Last; ++_Next, ++_Count)
; 1593 : 					if (_Next == _Right.end())
; 1594 : 						_Xlength_error("list<T> bad splice");
; 1595 : 				}
; 1596 : 			_Splice(_Where, _Right, _First, _Last, _Count);
; 1597 : 			}
; 1598 : 		}
; 1599 : 
; 1600 : 	void splice(const_iterator _Where,
; 1601 : 		_Myt&& _Right, const_iterator _First, const_iterator _Last)
; 1602 : 		{	// splice _Right [_First, _Last) at _Where
; 1603 : 		splice(_Where, (_Myt&)_Right, _First, _Last);
; 1604 : 		}
; 1605 : 
; 1606 : 	void remove(const _Ty& _Val)
; 1607 : 		{	// erase each element matching _Val
; 1608 : 		iterator _Val_it = end();
; 1609 : 
; 1610 : 		for (iterator _First = begin(); _First != end(); )
; 1611 : 			if (*_First == _Val)
; 1612 : 				if (_STD addressof(*_First) == _STD addressof(_Val))
; 1613 : 					_Val_it = _First++;
; 1614 : 				else
; 1615 : 					_First = erase(_First);
; 1616 : 			else
; 1617 : 				++_First;
; 1618 : 
; 1619 : 		if (_Val_it != end())
; 1620 : 			erase(_Val_it);
; 1621 : 		}
; 1622 : 
; 1623 : 	template<class _Pr1>
; 1624 : 		void remove_if(_Pr1 _Pred)
; 1625 : 		{	// erase each element satisfying _Pred
; 1626 : 		for (iterator _First = begin(); _First != end(); )
; 1627 : 			if (_Pred(*_First))
; 1628 : 				_First = erase(_First);
; 1629 : 			else
; 1630 : 				++_First;
; 1631 : 		}
; 1632 : 
; 1633 : 	void unique()
; 1634 : 		{	// erase each element matching previous
; 1635 : 		unique(equal_to<>());
; 1636 : 		}
; 1637 : 
; 1638 : 	template<class _Pr2>
; 1639 : 		void unique(_Pr2 _Pred)
; 1640 : 		{	// erase each element satisfying _Pred with previous
; 1641 : 		const _Nodeptr _Phead = this->_Myhead;
; 1642 : 		_Nodeptr _Pprev = this->_Nextnode(_Phead);
; 1643 : 		_Nodeptr _Pnode = this->_Nextnode(_Pprev);
; 1644 : 
; 1645 : 		while (_Pnode != _Phead)
; 1646 : 			if (_Pred(_Pprev->_Myval, _Pnode->_Myval))
; 1647 : 				{	// match, remove it
; 1648 : 				const _Nodeptr _Perase = _Pnode;
; 1649 : 				_Pnode = this->_Nextnode(_Pnode);
; 1650 : 
; 1651 : 				this->_Nextnode(_Pprev) = _Pnode;
; 1652 : 				this->_Prevnode(_Pnode) = _Pprev;
; 1653 : 				this->_Freenode(_Perase);
; 1654 : 
; 1655 : 				--this->_Mysize;
; 1656 : 				}
; 1657 : 			else
; 1658 : 				{	// no match, advance
; 1659 : 				_Pprev = _Pnode;
; 1660 : 				_Pnode = this->_Nextnode(_Pnode);
; 1661 : 				}
; 1662 : 		}
; 1663 : 
; 1664 : 	void merge(_Myt& _Right)
; 1665 : 		{	// merge in elements from _Right, both ordered by operator<
; 1666 : 		merge(_Right, less<>());
; 1667 : 		}
; 1668 : 
; 1669 : 	void merge(_Myt&& _Right)
; 1670 : 		{	// merge in elements from _Right, both ordered by operator<
; 1671 : 		merge((_Myt&)_Right);
; 1672 : 		}
; 1673 : 
; 1674 : 	template<class _Pr2>
; 1675 : 		void merge(_Myt& _Right, _Pr2 _Pred)
; 1676 : 		{	// merge in elements from _Right, both ordered by _Pred
; 1677 : 		if (&_Right != this)
; 1678 : 			{	// safe to merge, do it
; 1679 : 			iterator _First1 = begin(), _Last1 = end();
; 1680 : 			iterator _First2 = _Right.begin(), _Last2 = _Right.end();
; 1681 : 			_DEBUG_ORDER_PRED(_First1, _Last1, _Pred);
; 1682 : 			_DEBUG_ORDER_PRED(_First2, _Last2, _Pred);
; 1683 : 
; 1684 : 			while (_First1 != _Last1 && _First2 != _Last2)
; 1685 : 				if (_DEBUG_LT_PRED(_Pred, *_First2, *_First1))
; 1686 : 					{	// splice in an element from _Right
; 1687 : 					iterator _Mid2 = _First2;
; 1688 : 					_Splice(_First1, _Right, _First2, ++_Mid2, 1);
; 1689 : 					_First2 = _Mid2;
; 1690 : 					}
; 1691 : 				else
; 1692 : 					++_First1;
; 1693 : 
; 1694 : 			if (_First2 != _Last2)
; 1695 : 				_Splice(_Last1, _Right, _First2, _Last2,
; 1696 : 					_Right._Mysize);	// splice remainder of _Right
; 1697 : 			}
; 1698 : 		}
; 1699 : 
; 1700 : 	template<class _Pr2>
; 1701 : 		void merge(_Myt&& _Right, _Pr2 _Pred)
; 1702 : 		{	// merge in elements from _Right, both ordered by _Pred
; 1703 : 		merge((_Myt&)_Right, _Pred);
; 1704 : 		}
; 1705 : 
; 1706 : 	void sort()
; 1707 : 		{	// order sequence, using operator<
; 1708 : 		sort(less<>());
; 1709 : 		}
; 1710 : 
; 1711 : 	template<class _Pr2>
; 1712 : 		void sort(_Pr2 _Pred)
; 1713 : 		{	// order sequence, using _Pred
; 1714 : 		if (2 <= this->_Mysize)
; 1715 : 			{	// worth sorting, do it
; 1716 : 			const size_t _MAXBINS = 25;
; 1717 : 			_Myt _Templist(this->_Getal()), _Binlist[_MAXBINS + 1];
; 1718 : 			size_t _Maxbin = 0;
; 1719 : 
; 1720 : 			while (!empty())
; 1721 : 				{	// sort another element, using bins
; 1722 : 				_Templist._Splice_same(_Templist.begin(), *this, begin(),
; 1723 : 					++begin(), 1);
; 1724 : 
; 1725 : 				size_t _Bin;
; 1726 : 				for (_Bin = 0; _Bin < _Maxbin && !_Binlist[_Bin].empty();
; 1727 : 					++_Bin)
; 1728 : 					{	// merge into ever larger bins
; 1729 : 					_Binlist[_Bin].merge(_Templist, _Pred);
; 1730 : 					_Binlist[_Bin].swap(_Templist);
; 1731 : 					}
; 1732 : 
; 1733 : 				if (_Bin == _MAXBINS)
; 1734 : 					_Binlist[_Bin - 1].merge(_Templist, _Pred);
; 1735 : 				else
; 1736 : 					{	// spill to new bin, while they last
; 1737 : 					_Binlist[_Bin].swap(_Templist);
; 1738 : 					if (_Bin == _Maxbin)
; 1739 : 						++_Maxbin;
; 1740 : 					}
; 1741 : 				}
; 1742 : 
; 1743 : 			for (size_t _Bin = 1; _Bin < _Maxbin; ++_Bin)
; 1744 : 				_Binlist[_Bin].merge(_Binlist[_Bin - 1],
; 1745 : 					_Pred);	// merge up
; 1746 : 
; 1747 : 			_Analysis_assume_(0 < _Maxbin);
; 1748 : 
; 1749 : 			splice(begin(), _Binlist[_Maxbin - 1]);	// result in last bin
; 1750 : 			}
; 1751 : 		}
; 1752 : 
; 1753 : 	void reverse() _NOEXCEPT
; 1754 : 		{	// reverse sequence
; 1755 : 		const _Nodeptr _Phead = this->_Myhead;
; 1756 : 		_Nodeptr _Pnode = _Phead;
; 1757 : 
; 1758 : 		for (; ; )
; 1759 : 			{	// flip pointers in a node
; 1760 : 			const _Nodeptr _Pnext = this->_Nextnode(_Pnode);
; 1761 : 			this->_Nextnode(_Pnode) = this->_Prevnode(_Pnode);
; 1762 : 			this->_Prevnode(_Pnode) = _Pnext;
; 1763 : 
; 1764 : 			if (_Pnext == _Phead)
; 1765 : 				break;
; 1766 : 			_Pnode = _Pnext;
; 1767 : 			}
; 1768 : 		}
; 1769 : 
; 1770 : 	void _Splice(const_iterator _Where,
; 1771 : 		_Myt& _Right, const_iterator _First, const_iterator _Last,
; 1772 : 		size_type _Count)
; 1773 : 		{	// splice _Right [_First, _Last) before _Where
; 1774 :  #if _ITERATOR_DEBUG_LEVEL == 2
; 1775 : 		if (_Where._Getcont() != this)
; 1776 : 			_DEBUG_ERROR("list splice iterator outside range");
; 1777 : 		if (this->_Getal() != _Right._Getal())
; 1778 : 			_DEBUG_ERROR("list containers incompatible for splice");
; 1779 : 
; 1780 : 		if (this != &_Right)
; 1781 : 			{	// transfer ownership
; 1782 : 			_Lockit _Lock(_LOCK_DEBUG);
; 1783 : 
; 1784 : 			const bool _One = _Count == 1;
; 1785 : 			const bool _All = _Count == _Right.size();
; 1786 : 			const bool _Some = !_One && !_All;
; 1787 : 
; 1788 : 			_Nodeptr _Oldprev = _First._Ptr->_Prev;
; 1789 : 
; 1790 : 			if (_Some)
; 1791 : 				for (_Nodeptr _Ptr = _First._Ptr; _Ptr != _Last._Ptr;
; 1792 : 					_Ptr = _Ptr->_Next)
; 1793 : 					{	// mark _Prev pointers
; 1794 : 					_Ptr->_Prev = 0;
; 1795 : 					}
; 1796 : 
; 1797 : 			const_iterator **_Pnext = (const_iterator **)_Right._Getpfirst();
; 1798 : 
; 1799 : 			if (_Pnext == 0)
; 1800 : 				_DEBUG_ERROR("list container corrupted");
; 1801 : 
; 1802 : 			while (*_Pnext != 0)
; 1803 : 				{	// check the iterator
; 1804 : 				const_iterator& _Iter = **_Pnext;
; 1805 : 
; 1806 : 				if ((_One && _Iter._Ptr == _First._Ptr)
; 1807 : 					|| (_All && _Iter._Ptr != _Right._Myhead)
; 1808 : 					|| (_Some && _Iter._Ptr->_Prev == 0))
; 1809 : 					{	// adopt the iterator
; 1810 : 					*_Pnext = (const_iterator *)_Iter._Mynextiter;
; 1811 : 					_Iter._Myproxy = this->_Myproxy;
; 1812 : 					_Iter._Mynextiter = this->_Myproxy->_Myfirstiter;
; 1813 : 					this->_Myproxy->_Myfirstiter = &_Iter;
; 1814 : 					}
; 1815 : 				else
; 1816 : 					{	// skip the iterator
; 1817 : 					_Pnext = (const_iterator **)_Iter._Getpnext();
; 1818 : 					}
; 1819 : 				}
; 1820 : 
; 1821 : 			if (_Some)
; 1822 : 				for (_Nodeptr _Ptr = _First._Ptr; _Ptr != _Last._Ptr;
; 1823 : 					_Ptr = _Ptr->_Next)
; 1824 : 					{	// restore _Prev pointers
; 1825 : 					_Ptr->_Prev = _Oldprev;
; 1826 : 					_Oldprev = _Ptr;
; 1827 : 					}
; 1828 : 			}
; 1829 : 
; 1830 :  #else /* _ITERATOR_DEBUG_LEVEL == 2 */
; 1831 : 		if (this->_Getal() != _Right._Getal())
; 1832 : 			_XSTD terminate();
; 1833 :  #endif /* _ITERATOR_DEBUG_LEVEL == 2 */
; 1834 : 
; 1835 : 		_Splice_same(_Where, _Right, _First, _Last, _Count);
; 1836 : 		}
; 1837 : 
; 1838 : 	void _Splice_same(const_iterator _Where,
; 1839 : 		_Myt& _Right, const_iterator _First, const_iterator _Last,
; 1840 : 		size_type _Count)
; 1841 : 		{	// splice _Right [_First, _Last) before _Where
; 1842 : 		if (this != &_Right)
; 1843 : 			{	// splicing from another list, adjust counts
; 1844 : 			_Incsize(_Count);
; 1845 : 			_Right._Mysize -= _Count;
; 1846 : 			}
; 1847 : 		this->_Nextnode(this->_Prevnode(_First._Mynode())) =
; 1848 : 			_Last._Mynode();
; 1849 : 		this->_Nextnode(this->_Prevnode(_Last._Mynode())) =
; 1850 : 			_Where._Mynode();
; 1851 : 		this->_Nextnode(this->_Prevnode(_Where._Mynode())) =
; 1852 : 			_First._Mynode();
; 1853 : 
; 1854 : 		_Nodeptr _Pnode = this->_Prevnode(_Where._Mynode());
; 1855 : 		this->_Prevnode(_Where._Mynode()) =
; 1856 : 			this->_Prevnode(_Last._Mynode());
; 1857 : 		this->_Prevnode(_Last._Mynode()) =
; 1858 : 			this->_Prevnode(_First._Mynode());
; 1859 : 		this->_Prevnode(_First._Mynode()) = _Pnode;
; 1860 : 		}
; 1861 : 
; 1862 : 	void _Unchecked_splice(_Unchecked_const_iterator _Where,
; 1863 : 		_Unchecked_const_iterator _First,
; 1864 : 		_Unchecked_const_iterator _Last)
; 1865 : 		{	// splice [_First, _Last) before _Where
; 1866 : 		this->_Nextnode(this->_Prevnode(_First._Mynode())) =
; 1867 : 			_Last._Mynode();
; 1868 : 		this->_Nextnode(this->_Prevnode(_Last._Mynode())) =
; 1869 : 			_Where._Mynode();
; 1870 : 		this->_Nextnode(this->_Prevnode(_Where._Mynode())) =
; 1871 : 			_First._Mynode();
; 1872 : 
; 1873 : 		_Nodeptr _Pnode = this->_Prevnode(_Where._Mynode());
; 1874 : 		this->_Prevnode(_Where._Mynode()) =
; 1875 : 			this->_Prevnode(_Last._Mynode());
; 1876 : 		this->_Prevnode(_Last._Mynode()) =
; 1877 : 			this->_Prevnode(_First._Mynode());
; 1878 : 		this->_Prevnode(_First._Mynode()) = _Pnode;
; 1879 : 		}
; 1880 : 
; 1881 : 	void _Tidy()
; 1882 : 		{	// free all storage
; 1883 : 		clear();
; 1884 : 		}
; 1885 : 
; 1886 : 	void _Insert_n(_Unchecked_const_iterator _Where,
; 1887 : 		size_type _Count, const _Ty& _Val)
; 1888 : 		{	// insert _Count * _Val at _Where
; 1889 : 		size_type _Countsave = _Count;
; 1890 : 
; 1891 : 		_TRY_BEGIN
; 1892 : 		for (; 0 < _Count; --_Count)
; 1893 : 			_Insert(_Where, _Val);
; 1894 : 		_CATCH_ALL
; 1895 : 		for (; _Count < _Countsave; ++_Count)
; 1896 : 			{	// undo inserts
; 1897 : 			_Unchecked_const_iterator _Before = _Where;
; 1898 : 			_Unchecked_erase(--_Before);
; 1899 : 			}
; 1900 : 		_RERAISE;
; 1901 : 		_CATCH_END
; 1902 : 		}
; 1903 : 
; 1904 : 	void _Incsize(size_type _Count)
; 1905 : 		{	// alter element count, with checking
; 1906 : 		if (max_size() - this->_Mysize - 1 < _Count)

	mov	rdx, 576460752303423486			; 07fffffffffffffeH

; 1062 : 				_STD forward<_Valty>(_Val)...);

	mov	r8, rax

; 1066 : 		}
; 1067 : 
; 1068 : 
; 1069 : 	list(_XSTD initializer_list<_Ty> _Ilist,
; 1070 : 		const _Alloc& _Al = allocator_type())
; 1071 : 		: _Mybase(_Al)
; 1072 : 		{	// construct from initializer_list
; 1073 : 		insert(begin(), _Ilist.begin(), _Ilist.end());
; 1074 : 		}
; 1075 : 
; 1076 : 	_Myt& operator=(_XSTD initializer_list<_Ty> _Ilist)
; 1077 : 		{	// assign initializer_list
; 1078 : 		assign(_Ilist.begin(), _Ilist.end());
; 1079 : 		return (*this);
; 1080 : 		}
; 1081 : 
; 1082 : 	void assign(_XSTD initializer_list<_Ty> _Ilist)
; 1083 : 		{	// assign initializer_list
; 1084 : 		assign(_Ilist.begin(), _Ilist.end());
; 1085 : 		}
; 1086 : 
; 1087 : 	iterator insert(const_iterator _Where,
; 1088 : 		_XSTD initializer_list<_Ty> _Ilist)
; 1089 : 		{	// insert initializer_list
; 1090 : 		return (insert(_Where, _Ilist.begin(), _Ilist.end()));
; 1091 : 		}
; 1092 : 
; 1093 : 	~list() _NOEXCEPT
; 1094 : 		{	// destroy the object
; 1095 : 		_Tidy();
; 1096 : 		}
; 1097 : 
; 1098 : 	_Myt& operator=(const _Myt& _Right)
; 1099 : 		{	// assign _Right
; 1100 : 		if (this != &_Right)
; 1101 : 			{	// different, assign it
; 1102 : 			if (this->_Getal() != _Right._Getal()
; 1103 : 				&& _Alty::propagate_on_container_copy_assignment::value)
; 1104 : 				{	// change allocator before copying
; 1105 : 				clear();
; 1106 : 				this->_Change_alloc(_Right._Getal());
; 1107 : 				}
; 1108 : 
; 1109 : 			assign(_Right.begin(), _Right.end());
; 1110 : 			}
; 1111 : 		return (*this);
; 1112 : 		}
; 1113 : 
; 1114 : 	iterator begin() _NOEXCEPT
; 1115 : 		{	// return iterator for beginning of mutable sequence
; 1116 : 		return (iterator(this->_Nextnode(this->_Myhead), this));
; 1117 : 		}
; 1118 : 
; 1119 : 	const_iterator begin() const _NOEXCEPT
; 1120 : 		{	// return iterator for beginning of nonmutable sequence
; 1121 : 		return (const_iterator(this->_Nextnode(this->_Myhead), this));
; 1122 : 		}
; 1123 : 
; 1124 : 	iterator end() _NOEXCEPT
; 1125 : 		{	// return iterator for end of mutable sequence
; 1126 : 		return (iterator(this->_Myhead, this));
; 1127 : 		}
; 1128 : 
; 1129 : 	const_iterator end() const _NOEXCEPT
; 1130 : 		{	// return iterator for end of nonmutable sequence
; 1131 : 		return (const_iterator(this->_Myhead, this));
; 1132 : 		}
; 1133 : 
; 1134 : 	_Unchecked_iterator _Unchecked_begin()
; 1135 : 		{	// return iterator for beginning of mutable sequence
; 1136 : 		return (_Unchecked_iterator(this->_Nextnode(this->_Myhead),
; 1137 : 			this));
; 1138 : 		}
; 1139 : 
; 1140 : 	_Unchecked_const_iterator _Unchecked_begin() const
; 1141 : 		{	// return iterator for beginning of nonmutable sequence
; 1142 : 		return (_Unchecked_const_iterator(this->_Nextnode(this->_Myhead),
; 1143 : 			this));
; 1144 : 		}
; 1145 : 
; 1146 : 	_Unchecked_iterator _Unchecked_end()
; 1147 : 		{	// return unchecked iterator for end of mutable sequence
; 1148 : 		return (_Unchecked_iterator(this->_Myhead, this));
; 1149 : 		}
; 1150 : 
; 1151 : 	_Unchecked_const_iterator _Unchecked_end() const
; 1152 : 		{	// return unchecked iterator for end of nonmutable sequence
; 1153 : 		return (_Unchecked_const_iterator(this->_Myhead, this));
; 1154 : 		}
; 1155 : 
; 1156 : 	iterator _Make_iter(const_iterator _Where) const _NOEXCEPT
; 1157 : 		{	// make iterator from const_iterator
; 1158 : 		return (iterator(_Where._Ptr, this));
; 1159 : 		}
; 1160 : 
; 1161 : 	iterator _Make_iter(_Unchecked_const_iterator _Where) const
; 1162 : 		{	// make iterator from _Unchecked_const_iterator
; 1163 : 		return (iterator(_Where._Ptr, this));
; 1164 : 		}
; 1165 : 
; 1166 : 	reverse_iterator rbegin() _NOEXCEPT
; 1167 : 		{	// return iterator for beginning of reversed mutable sequence
; 1168 : 		return (reverse_iterator(end()));
; 1169 : 		}
; 1170 : 
; 1171 : 	const_reverse_iterator rbegin() const _NOEXCEPT
; 1172 : 		{	// return iterator for beginning of reversed nonmutable sequence
; 1173 : 		return (const_reverse_iterator(end()));
; 1174 : 		}
; 1175 : 
; 1176 : 	reverse_iterator rend() _NOEXCEPT
; 1177 : 		{	// return iterator for end of reversed mutable sequence
; 1178 : 		return (reverse_iterator(begin()));
; 1179 : 		}
; 1180 : 
; 1181 : 	const_reverse_iterator rend() const _NOEXCEPT
; 1182 : 		{	// return iterator for end of reversed nonmutable sequence
; 1183 : 		return (const_reverse_iterator(begin()));
; 1184 : 		}
; 1185 : 
; 1186 : 	const_iterator cbegin() const _NOEXCEPT
; 1187 : 		{	// return iterator for beginning of nonmutable sequence
; 1188 : 		return (((const _Myt *)this)->begin());
; 1189 : 		}
; 1190 : 
; 1191 : 	const_iterator cend() const _NOEXCEPT
; 1192 : 		{	// return iterator for end of nonmutable sequence
; 1193 : 		return (((const _Myt *)this)->end());
; 1194 : 		}
; 1195 : 
; 1196 : 	const_reverse_iterator crbegin() const _NOEXCEPT
; 1197 : 		{	// return iterator for beginning of reversed nonmutable sequence
; 1198 : 		return (((const _Myt *)this)->rbegin());
; 1199 : 		}
; 1200 : 
; 1201 : 	const_reverse_iterator crend() const _NOEXCEPT
; 1202 : 		{	// return iterator for end of reversed nonmutable sequence
; 1203 : 		return (((const _Myt *)this)->rend());
; 1204 : 		}
; 1205 : 
; 1206 : 	void resize(size_type _Newsize)
; 1207 : 		{	// determine new length, padding with _Ty() elements as needed
; 1208 : 		if (this->_Mysize < _Newsize)
; 1209 : 			{	// pad to make larger
; 1210 : 			size_type _Count = 0;
; 1211 : 			_TRY_BEGIN
; 1212 : 			for (; this->_Mysize < _Newsize; ++_Count)
; 1213 : 				_Insert(_Unchecked_end());
; 1214 : 			_CATCH_ALL
; 1215 : 			for (; 0 < _Count; --_Count)
; 1216 : 				pop_back();	// undo inserts
; 1217 : 			_RERAISE;
; 1218 : 			_CATCH_END
; 1219 : 			}
; 1220 : 		else
; 1221 : 			while (_Newsize < this->_Mysize)
; 1222 : 				pop_back();
; 1223 : 		}
; 1224 : 
; 1225 : 	void resize(size_type _Newsize, const _Ty& _Val)
; 1226 : 		{	// determine new length, padding with _Val elements as needed
; 1227 : 		if (this->_Mysize < _Newsize)
; 1228 : 			_Insert_n(_Unchecked_end(), _Newsize - this->_Mysize, _Val);
; 1229 : 		else
; 1230 : 			while (_Newsize < this->_Mysize)
; 1231 : 				pop_back();
; 1232 : 		}
; 1233 : 
; 1234 : 	size_type size() const _NOEXCEPT
; 1235 : 		{	// return length of sequence
; 1236 : 		return (this->_Mysize);
; 1237 : 		}
; 1238 : 
; 1239 : 	size_type max_size() const _NOEXCEPT
; 1240 : 		{	// return maximum possible length of sequence
; 1241 : 		return (this->_Getal().max_size());
; 1242 : 		}
; 1243 : 
; 1244 : 	bool empty() const _NOEXCEPT
; 1245 : 		{	// test if sequence is empty
; 1246 : 		return (this->_Mysize == 0);
; 1247 : 		}
; 1248 : 
; 1249 : 	allocator_type get_allocator() const _NOEXCEPT
; 1250 : 		{	// return allocator object for values
; 1251 : 		return (this->_Getal());
; 1252 : 		}
; 1253 : 
; 1254 : 	reference front()
; 1255 : 		{	// return first element of mutable sequence
; 1256 : 		return (*begin());
; 1257 : 		}
; 1258 : 
; 1259 : 	const_reference front() const
; 1260 : 		{	// return first element of nonmutable sequence
; 1261 : 		return (*begin());
; 1262 : 		}
; 1263 : 
; 1264 : 	reference back()
; 1265 : 		{	// return last element of mutable sequence
; 1266 : 		return (*(--end()));
; 1267 : 		}
; 1268 : 
; 1269 : 	const_reference back() const
; 1270 : 		{	// return last element of nonmutable sequence
; 1271 : 		return (*(--end()));
; 1272 : 		}
; 1273 : 
; 1274 : 	void push_front(const _Ty& _Val)
; 1275 : 		{	// insert element at beginning
; 1276 : 		_Insert(_Unchecked_begin(), _Val);
; 1277 : 		}
; 1278 : 
; 1279 : 	void pop_front()
; 1280 : 		{	// erase element at beginning
; 1281 : 		erase(begin());
; 1282 : 		}
; 1283 : 
; 1284 : 	void push_back(const _Ty& _Val)
; 1285 : 		{	// insert element at end
; 1286 : 		_Insert(_Unchecked_end(), _Val);
; 1287 : 		}
; 1288 : 
; 1289 : 	void pop_back()
; 1290 : 		{	// erase element at end
; 1291 : 		erase(--end());
; 1292 : 		}
; 1293 : 
; 1294 : 	template<class _Iter>
; 1295 : 		typename enable_if<_Is_iterator<_Iter>::value,
; 1296 : 			void>::type
; 1297 : 		assign(_Iter _First, _Iter _Last)
; 1298 : 		{	// assign [_First, _Last), input iterators
; 1299 : 		iterator _Old = begin();
; 1300 : 		_TRY_BEGIN
; 1301 : 		for (; _First != _Last && _Old != end(); ++_First, ++_Old)
; 1302 : 			_Reusenode(_Old, *_First);
; 1303 : 		for (; _First != _Last; ++_First)
; 1304 : 			_Insert(_Unchecked_end(), *_First);
; 1305 : 		_CATCH_ALL
; 1306 : 		clear();
; 1307 : 		_RERAISE;
; 1308 : 		_CATCH_END
; 1309 : 		erase(_Old, end());
; 1310 : 		}
; 1311 : 
; 1312 : 	template<class _TArg>
; 1313 : 		void _Reusenode(iterator _Where, _TArg&& _Arg)
; 1314 : 		{	// destroy the element at _Where and reconstruct from _Arg
; 1315 : 		_TRY_BEGIN
; 1316 : 		this->_Getal().destroy(
; 1317 : 			_STD addressof(this->_Myval(_Where._Ptr)));
; 1318 : 		this->_Getal().construct(
; 1319 : 			_STD addressof(this->_Myval(_Where._Ptr)),
; 1320 : 			_STD forward<_TArg>(_Arg));
; 1321 : 		_CATCH_ALL
; 1322 : 		_Unlinknode(_Where);
; 1323 : 		this->_Getal().destroy(
; 1324 : 			_STD addressof(this->_Nextnode(_Where._Ptr)));
; 1325 : 		this->_Getal().destroy(
; 1326 : 			_STD addressof(this->_Prevnode(_Where._Ptr)));
; 1327 : 		this->_Getal().deallocate(_Where._Ptr, 1);
; 1328 : 		_RERAISE;
; 1329 : 		_CATCH_END
; 1330 : 		}
; 1331 : 
; 1332 : 	void assign(size_type _Count, const _Ty& _Val)
; 1333 : 		{	// assign _Count * _Val
; 1334 : 		clear();
; 1335 : 		_Insert_n(_Unchecked_begin(), _Count, _Val);
; 1336 : 		}
; 1337 : 
; 1338 : 	iterator insert(const_iterator _Where, const _Ty& _Val)
; 1339 : 		{	// insert _Val at _Where
; 1340 :  #if _ITERATOR_DEBUG_LEVEL == 2
; 1341 : 		if (_Where._Getcont() != this)
; 1342 : 			_DEBUG_ERROR("list insert iterator outside range");
; 1343 :  #endif /* _ITERATOR_DEBUG_LEVEL == 2 */
; 1344 : 
; 1345 : 		_Insert(_Where._Unchecked(), _Val);
; 1346 : 		return (_Make_iter(--_Where));
; 1347 : 		}
; 1348 : 
; 1349 : 	iterator insert(const_iterator _Where, size_type _Count, const _Ty& _Val)
; 1350 : 		{	// insert _Count * _Val at _Where
; 1351 :  #if _ITERATOR_DEBUG_LEVEL == 2
; 1352 : 		if (_Where._Getcont() != this)
; 1353 : 			_DEBUG_ERROR("list insert iterator outside range");
; 1354 :  #endif /* _ITERATOR_DEBUG_LEVEL == 2 */
; 1355 : 
; 1356 : 		iterator _Prev = _Make_iter(_Where);
; 1357 : 		if (_Prev == begin())
; 1358 : 			{	// insert sequence at beginning
; 1359 : 			_Insert_n(_Where._Unchecked(), _Count, _Val);
; 1360 : 			return (begin());
; 1361 : 			}
; 1362 : 		else
; 1363 : 			{	// insert sequence not at beginning
; 1364 : 			--_Prev;
; 1365 : 			_Insert_n(_Where._Unchecked(), _Count, _Val);
; 1366 : 			return (++_Prev);
; 1367 : 			}
; 1368 : 		}
; 1369 : 
; 1370 : 	template<class _Iter>
; 1371 : 		typename enable_if<_Is_iterator<_Iter>::value,
; 1372 : 			iterator>::type
; 1373 : 		insert(const_iterator _Where, _Iter _First, _Iter _Last)
; 1374 : 		{	// insert [_First, _Last) at _Where
; 1375 :  #if _ITERATOR_DEBUG_LEVEL == 2
; 1376 : 		if (_Where._Getcont() != this)
; 1377 : 			_DEBUG_ERROR("list insert iterator outside range");
; 1378 :  #endif /* _ITERATOR_DEBUG_LEVEL == 2 */
; 1379 : 
; 1380 : 		iterator _Prev = _Make_iter(_Where);
; 1381 : 		if (_Prev == begin())
; 1382 : 			{	// insert sequence at beginning
; 1383 : 			_Insert_range(_Where._Unchecked(), _First, _Last,
; 1384 : 				_Iter_cat(_First));
; 1385 : 			return (begin());
; 1386 : 			}
; 1387 : 		else
; 1388 : 			{	// insert sequence not at beginning
; 1389 : 			--_Prev;
; 1390 : 			_Insert_range(_Where._Unchecked(), _First, _Last,
; 1391 : 				_Iter_cat(_First));
; 1392 : 			return (++_Prev);
; 1393 : 			}
; 1394 : 		}
; 1395 : 
; 1396 : 	template<class _Iter>
; 1397 : 		void _Insert_range(_Unchecked_const_iterator _Where,
; 1398 : 			_Iter _First, _Iter _Last, input_iterator_tag)
; 1399 : 		{	// insert [_First, _Last) at _Where, input iterators
; 1400 : 		size_type _Num = 0;
; 1401 : 
; 1402 : 		_TRY_BEGIN
; 1403 : 		for (; _First != _Last; ++_First, ++_Num)
; 1404 : 			_Insert(_Where, *_First);
; 1405 : 		_CATCH_ALL
; 1406 : 		for (; 0 < _Num; --_Num)
; 1407 : 			{	// undo inserts
; 1408 : 			_Unchecked_const_iterator _Before = _Where;
; 1409 : 			_Unchecked_erase(--_Before);
; 1410 : 			}
; 1411 : 		_RERAISE;
; 1412 : 		_CATCH_END
; 1413 : 		}
; 1414 : 
; 1415 : 	template<class _Iter>
; 1416 : 		void _Insert_range(_Unchecked_const_iterator _Where,
; 1417 : 			_Iter _First, _Iter _Last, forward_iterator_tag)
; 1418 : 		{	// insert [_First, _Last) at _Where, forward iterators
; 1419 : 		_DEBUG_RANGE(_First, _Last);
; 1420 : 		_Iter _Next = _First;
; 1421 : 
; 1422 : 		_TRY_BEGIN
; 1423 : 		for (; _First != _Last; ++_First)
; 1424 : 			_Insert(_Where, *_First);
; 1425 : 		_CATCH_ALL
; 1426 : 		for (; _Next != _First; ++_Next)
; 1427 : 			{	// undo inserts
; 1428 : 			_Unchecked_const_iterator _Before = _Where;
; 1429 : 			_Unchecked_erase(--_Before);
; 1430 : 			}
; 1431 : 		_RERAISE;
; 1432 : 		_CATCH_END
; 1433 : 		}
; 1434 : 
; 1435 : 	_Nodeptr _Unlinknode(const_iterator _Where)
; 1436 : 		{	// unlink node at _Where from the list
; 1437 :  #if _ITERATOR_DEBUG_LEVEL == 2
; 1438 : 		if (_Where._Getcont() != this || _Where._Ptr == this->_Myhead)
; 1439 : 			_DEBUG_ERROR("list erase iterator outside range");
; 1440 : 		_Nodeptr _Pnode = (_Where)._Mynode();
; 1441 : 		_Orphan_ptr(*this, _Pnode);
; 1442 : 
; 1443 :  #else /* _ITERATOR_DEBUG_LEVEL == 2 */
; 1444 : 		_Nodeptr _Pnode = (_Where)._Mynode();
; 1445 :  #endif /* _ITERATOR_DEBUG_LEVEL == 2 */
; 1446 : 
; 1447 : 		this->_Nextnode(this->_Prevnode(_Pnode)) =
; 1448 : 			this->_Nextnode(_Pnode);
; 1449 : 		this->_Prevnode(this->_Nextnode(_Pnode)) =
; 1450 : 			this->_Prevnode(_Pnode);
; 1451 : 
; 1452 : 		--this->_Mysize;
; 1453 : 		return (_Pnode);
; 1454 : 		}
; 1455 : 
; 1456 : 	iterator erase(const_iterator _Where)
; 1457 : 		{	// erase element at _Where
; 1458 : 		_Nodeptr _Pnode = _Unlinknode(_Where++);
; 1459 : 		this->_Freenode(_Pnode);
; 1460 : 		return (_Make_iter(_Where));
; 1461 : 		}
; 1462 : 
; 1463 : 	void _Unchecked_erase(_Unchecked_const_iterator _Where)
; 1464 : 		{	// erase element at _Where
; 1465 : 		_Nodeptr _Pnode = _Where._Mynode();
; 1466 : 
; 1467 : 		this->_Nextnode(this->_Prevnode(_Pnode)) =
; 1468 : 			this->_Nextnode(_Pnode);
; 1469 : 		this->_Prevnode(this->_Nextnode(_Pnode)) =
; 1470 : 			this->_Prevnode(_Pnode);
; 1471 : 		this->_Freenode(_Pnode);
; 1472 : 		--this->_Mysize;
; 1473 : 		}
; 1474 : 
; 1475 : 	iterator erase(const_iterator _First, const_iterator _Last)
; 1476 : 		{	// erase [_First, _Last)
; 1477 : 		if (_First == begin() && _Last == end())
; 1478 : 			{	// erase all and return fresh iterator
; 1479 : 			clear();
; 1480 : 			return (end());
; 1481 : 			}
; 1482 : 		else
; 1483 : 			{	// erase subrange
; 1484 : 			while (_First != _Last)
; 1485 : 				_First = erase(_First);
; 1486 : 			return (_Make_iter(_Last));
; 1487 : 			}
; 1488 : 		}
; 1489 : 
; 1490 : 	void clear() _NOEXCEPT
; 1491 : 		{	// erase all
; 1492 :  #if _ITERATOR_DEBUG_LEVEL == 2
; 1493 : 		this->_Orphan_ptr(*this, nullptr);
; 1494 :  #endif /* _ITERATOR_DEBUG_LEVEL == 2 */
; 1495 : 
; 1496 : 		_Nodeptr _Pnode = this->_Nextnode(this->_Myhead);
; 1497 : 		this->_Nextnode(this->_Myhead) = this->_Myhead;
; 1498 : 		this->_Prevnode(this->_Myhead) = this->_Myhead;
; 1499 : 		this->_Mysize = 0;
; 1500 : 
; 1501 : 		for (_Nodeptr _Pnext; _Pnode != this->_Myhead; _Pnode = _Pnext)
; 1502 : 			{	// delete an element
; 1503 : 			_Pnext = this->_Nextnode(_Pnode);
; 1504 : 			this->_Freenode(_Pnode);
; 1505 : 			}
; 1506 : 		}
; 1507 : 
; 1508 : 	void swap(_Myt& _Right)
; 1509 : 		{	// exchange contents with _Right
; 1510 : 		if (this == &_Right)
; 1511 : 			;	// same object, do nothing
; 1512 : 		else if (this->_Getal() == _Right._Getal())
; 1513 : 			{	// same allocator, swap control information
; 1514 : 			this->_Swap_all(_Right);
; 1515 : 			_Swap_adl(this->_Myhead, _Right._Myhead);
; 1516 : 			_STD swap(this->_Mysize, _Right._Mysize);
; 1517 : 			}
; 1518 : 
; 1519 : 		else if (_Alty::propagate_on_container_swap::value)
; 1520 : 			{	// swap allocators and control information
; 1521 : 			this->_Swap_alloc(_Right);
; 1522 : 			_Swap_adl(this->_Myhead, _Right._Myhead);
; 1523 : 			_STD swap(this->_Mysize, _Right._Mysize);
; 1524 : 			}
; 1525 : 
; 1526 : 		else	// containers are incompatible
; 1527 : 
; 1528 :  #if _ITERATOR_DEBUG_LEVEL == 2
; 1529 : 			_DEBUG_ERROR("list containers incompatible for swap");
; 1530 : 
; 1531 :  #else /* ITERATOR_DEBUG_LEVEL == 2 */
; 1532 : 			_XSTD terminate();
; 1533 :  #endif /* ITERATOR_DEBUG_LEVEL == 2 */
; 1534 : 		}
; 1535 : 
; 1536 : 	void splice(const_iterator _Where, _Myt& _Right)
; 1537 : 		{	// splice all of _Right at _Where
; 1538 : 		if (this != &_Right && !_Right.empty())
; 1539 : 			{	// worth splicing, do it
; 1540 : 			_Splice(_Where, _Right, _Right.begin(), _Right.end(),
; 1541 : 				_Right._Mysize);
; 1542 : 			}
; 1543 : 		}
; 1544 : 
; 1545 : 	void splice(const_iterator _Where, _Myt&& _Right)
; 1546 : 		{	// splice all of _Right at _Where
; 1547 : 		splice(_Where, (_Myt&)_Right);
; 1548 : 		}
; 1549 : 
; 1550 : 	void splice(const_iterator _Where, _Myt& _Right,
; 1551 : 		const_iterator _First)
; 1552 : 		{	// splice _Right [_First, _First + 1) at _Where
; 1553 :  #if _ITERATOR_DEBUG_LEVEL == 2
; 1554 : 		if (_First == _Right.end())
; 1555 : 			_DEBUG_ERROR("list splice iterator outside range");
; 1556 : 		else
; 1557 : 
; 1558 :  #else /* _ITERATOR_DEBUG_LEVEL == 2 */
; 1559 : 		if (_First != _Right.end())
; 1560 :  #endif /* _ITERATOR_DEBUG_LEVEL == 2 */
; 1561 : 
; 1562 : 			{	// element exists, try splice
; 1563 : 			const_iterator _Last = _First;
; 1564 : 			++_Last;
; 1565 : 			if (this != &_Right
; 1566 : 				|| (_Where != _First && _Where != _Last))
; 1567 : 				_Splice(_Where, _Right, _First, _Last, 1);
; 1568 : 			}
; 1569 : 		}
; 1570 : 
; 1571 : 	void splice(const_iterator _Where, _Myt&& _Right,
; 1572 : 		const_iterator _First)
; 1573 : 		{	// splice _Right [_First, _First + 1) at _Where
; 1574 : 		splice(_Where, (_Myt&)_Right, _First);
; 1575 : 		}
; 1576 : 
; 1577 : 	void splice(const_iterator _Where,
; 1578 : 		_Myt& _Right, const_iterator _First, const_iterator _Last)
; 1579 : 		{	// splice _Right [_First, _Last) at _Where
; 1580 : 		if (_First != _Last && (this != &_Right || _Where != _Last))
; 1581 : 			{	// worth splicing, do it
; 1582 : 			size_type _Count = 0;
; 1583 : 
; 1584 : 			if (this == &_Right)
; 1585 : 				;	// just rearrange this list
; 1586 : 			else if (_First == _Right.begin() && _Last == _Right.end())
; 1587 : 				_Count = _Right._Mysize;	// splice in whole list
; 1588 : 			else
; 1589 : 				{	// count nodes and check for knot
; 1590 : 				const_iterator _Next = _First;
; 1591 : 
; 1592 : 				for (; _Next != _Last; ++_Next, ++_Count)
; 1593 : 					if (_Next == _Right.end())
; 1594 : 						_Xlength_error("list<T> bad splice");
; 1595 : 				}
; 1596 : 			_Splice(_Where, _Right, _First, _Last, _Count);
; 1597 : 			}
; 1598 : 		}
; 1599 : 
; 1600 : 	void splice(const_iterator _Where,
; 1601 : 		_Myt&& _Right, const_iterator _First, const_iterator _Last)
; 1602 : 		{	// splice _Right [_First, _Last) at _Where
; 1603 : 		splice(_Where, (_Myt&)_Right, _First, _Last);
; 1604 : 		}
; 1605 : 
; 1606 : 	void remove(const _Ty& _Val)
; 1607 : 		{	// erase each element matching _Val
; 1608 : 		iterator _Val_it = end();
; 1609 : 
; 1610 : 		for (iterator _First = begin(); _First != end(); )
; 1611 : 			if (*_First == _Val)
; 1612 : 				if (_STD addressof(*_First) == _STD addressof(_Val))
; 1613 : 					_Val_it = _First++;
; 1614 : 				else
; 1615 : 					_First = erase(_First);
; 1616 : 			else
; 1617 : 				++_First;
; 1618 : 
; 1619 : 		if (_Val_it != end())
; 1620 : 			erase(_Val_it);
; 1621 : 		}
; 1622 : 
; 1623 : 	template<class _Pr1>
; 1624 : 		void remove_if(_Pr1 _Pred)
; 1625 : 		{	// erase each element satisfying _Pred
; 1626 : 		for (iterator _First = begin(); _First != end(); )
; 1627 : 			if (_Pred(*_First))
; 1628 : 				_First = erase(_First);
; 1629 : 			else
; 1630 : 				++_First;
; 1631 : 		}
; 1632 : 
; 1633 : 	void unique()
; 1634 : 		{	// erase each element matching previous
; 1635 : 		unique(equal_to<>());
; 1636 : 		}
; 1637 : 
; 1638 : 	template<class _Pr2>
; 1639 : 		void unique(_Pr2 _Pred)
; 1640 : 		{	// erase each element satisfying _Pred with previous
; 1641 : 		const _Nodeptr _Phead = this->_Myhead;
; 1642 : 		_Nodeptr _Pprev = this->_Nextnode(_Phead);
; 1643 : 		_Nodeptr _Pnode = this->_Nextnode(_Pprev);
; 1644 : 
; 1645 : 		while (_Pnode != _Phead)
; 1646 : 			if (_Pred(_Pprev->_Myval, _Pnode->_Myval))
; 1647 : 				{	// match, remove it
; 1648 : 				const _Nodeptr _Perase = _Pnode;
; 1649 : 				_Pnode = this->_Nextnode(_Pnode);
; 1650 : 
; 1651 : 				this->_Nextnode(_Pprev) = _Pnode;
; 1652 : 				this->_Prevnode(_Pnode) = _Pprev;
; 1653 : 				this->_Freenode(_Perase);
; 1654 : 
; 1655 : 				--this->_Mysize;
; 1656 : 				}
; 1657 : 			else
; 1658 : 				{	// no match, advance
; 1659 : 				_Pprev = _Pnode;
; 1660 : 				_Pnode = this->_Nextnode(_Pnode);
; 1661 : 				}
; 1662 : 		}
; 1663 : 
; 1664 : 	void merge(_Myt& _Right)
; 1665 : 		{	// merge in elements from _Right, both ordered by operator<
; 1666 : 		merge(_Right, less<>());
; 1667 : 		}
; 1668 : 
; 1669 : 	void merge(_Myt&& _Right)
; 1670 : 		{	// merge in elements from _Right, both ordered by operator<
; 1671 : 		merge((_Myt&)_Right);
; 1672 : 		}
; 1673 : 
; 1674 : 	template<class _Pr2>
; 1675 : 		void merge(_Myt& _Right, _Pr2 _Pred)
; 1676 : 		{	// merge in elements from _Right, both ordered by _Pred
; 1677 : 		if (&_Right != this)
; 1678 : 			{	// safe to merge, do it
; 1679 : 			iterator _First1 = begin(), _Last1 = end();
; 1680 : 			iterator _First2 = _Right.begin(), _Last2 = _Right.end();
; 1681 : 			_DEBUG_ORDER_PRED(_First1, _Last1, _Pred);
; 1682 : 			_DEBUG_ORDER_PRED(_First2, _Last2, _Pred);
; 1683 : 
; 1684 : 			while (_First1 != _Last1 && _First2 != _Last2)
; 1685 : 				if (_DEBUG_LT_PRED(_Pred, *_First2, *_First1))
; 1686 : 					{	// splice in an element from _Right
; 1687 : 					iterator _Mid2 = _First2;
; 1688 : 					_Splice(_First1, _Right, _First2, ++_Mid2, 1);
; 1689 : 					_First2 = _Mid2;
; 1690 : 					}
; 1691 : 				else
; 1692 : 					++_First1;
; 1693 : 
; 1694 : 			if (_First2 != _Last2)
; 1695 : 				_Splice(_Last1, _Right, _First2, _Last2,
; 1696 : 					_Right._Mysize);	// splice remainder of _Right
; 1697 : 			}
; 1698 : 		}
; 1699 : 
; 1700 : 	template<class _Pr2>
; 1701 : 		void merge(_Myt&& _Right, _Pr2 _Pred)
; 1702 : 		{	// merge in elements from _Right, both ordered by _Pred
; 1703 : 		merge((_Myt&)_Right, _Pred);
; 1704 : 		}
; 1705 : 
; 1706 : 	void sort()
; 1707 : 		{	// order sequence, using operator<
; 1708 : 		sort(less<>());
; 1709 : 		}
; 1710 : 
; 1711 : 	template<class _Pr2>
; 1712 : 		void sort(_Pr2 _Pred)
; 1713 : 		{	// order sequence, using _Pred
; 1714 : 		if (2 <= this->_Mysize)
; 1715 : 			{	// worth sorting, do it
; 1716 : 			const size_t _MAXBINS = 25;
; 1717 : 			_Myt _Templist(this->_Getal()), _Binlist[_MAXBINS + 1];
; 1718 : 			size_t _Maxbin = 0;
; 1719 : 
; 1720 : 			while (!empty())
; 1721 : 				{	// sort another element, using bins
; 1722 : 				_Templist._Splice_same(_Templist.begin(), *this, begin(),
; 1723 : 					++begin(), 1);
; 1724 : 
; 1725 : 				size_t _Bin;
; 1726 : 				for (_Bin = 0; _Bin < _Maxbin && !_Binlist[_Bin].empty();
; 1727 : 					++_Bin)
; 1728 : 					{	// merge into ever larger bins
; 1729 : 					_Binlist[_Bin].merge(_Templist, _Pred);
; 1730 : 					_Binlist[_Bin].swap(_Templist);
; 1731 : 					}
; 1732 : 
; 1733 : 				if (_Bin == _MAXBINS)
; 1734 : 					_Binlist[_Bin - 1].merge(_Templist, _Pred);
; 1735 : 				else
; 1736 : 					{	// spill to new bin, while they last
; 1737 : 					_Binlist[_Bin].swap(_Templist);
; 1738 : 					if (_Bin == _Maxbin)
; 1739 : 						++_Maxbin;
; 1740 : 					}
; 1741 : 				}
; 1742 : 
; 1743 : 			for (size_t _Bin = 1; _Bin < _Maxbin; ++_Bin)
; 1744 : 				_Binlist[_Bin].merge(_Binlist[_Bin - 1],
; 1745 : 					_Pred);	// merge up
; 1746 : 
; 1747 : 			_Analysis_assume_(0 < _Maxbin);
; 1748 : 
; 1749 : 			splice(begin(), _Binlist[_Maxbin - 1]);	// result in last bin
; 1750 : 			}
; 1751 : 		}
; 1752 : 
; 1753 : 	void reverse() _NOEXCEPT
; 1754 : 		{	// reverse sequence
; 1755 : 		const _Nodeptr _Phead = this->_Myhead;
; 1756 : 		_Nodeptr _Pnode = _Phead;
; 1757 : 
; 1758 : 		for (; ; )
; 1759 : 			{	// flip pointers in a node
; 1760 : 			const _Nodeptr _Pnext = this->_Nextnode(_Pnode);
; 1761 : 			this->_Nextnode(_Pnode) = this->_Prevnode(_Pnode);
; 1762 : 			this->_Prevnode(_Pnode) = _Pnext;
; 1763 : 
; 1764 : 			if (_Pnext == _Phead)
; 1765 : 				break;
; 1766 : 			_Pnode = _Pnext;
; 1767 : 			}
; 1768 : 		}
; 1769 : 
; 1770 : 	void _Splice(const_iterator _Where,
; 1771 : 		_Myt& _Right, const_iterator _First, const_iterator _Last,
; 1772 : 		size_type _Count)
; 1773 : 		{	// splice _Right [_First, _Last) before _Where
; 1774 :  #if _ITERATOR_DEBUG_LEVEL == 2
; 1775 : 		if (_Where._Getcont() != this)
; 1776 : 			_DEBUG_ERROR("list splice iterator outside range");
; 1777 : 		if (this->_Getal() != _Right._Getal())
; 1778 : 			_DEBUG_ERROR("list containers incompatible for splice");
; 1779 : 
; 1780 : 		if (this != &_Right)
; 1781 : 			{	// transfer ownership
; 1782 : 			_Lockit _Lock(_LOCK_DEBUG);
; 1783 : 
; 1784 : 			const bool _One = _Count == 1;
; 1785 : 			const bool _All = _Count == _Right.size();
; 1786 : 			const bool _Some = !_One && !_All;
; 1787 : 
; 1788 : 			_Nodeptr _Oldprev = _First._Ptr->_Prev;
; 1789 : 
; 1790 : 			if (_Some)
; 1791 : 				for (_Nodeptr _Ptr = _First._Ptr; _Ptr != _Last._Ptr;
; 1792 : 					_Ptr = _Ptr->_Next)
; 1793 : 					{	// mark _Prev pointers
; 1794 : 					_Ptr->_Prev = 0;
; 1795 : 					}
; 1796 : 
; 1797 : 			const_iterator **_Pnext = (const_iterator **)_Right._Getpfirst();
; 1798 : 
; 1799 : 			if (_Pnext == 0)
; 1800 : 				_DEBUG_ERROR("list container corrupted");
; 1801 : 
; 1802 : 			while (*_Pnext != 0)
; 1803 : 				{	// check the iterator
; 1804 : 				const_iterator& _Iter = **_Pnext;
; 1805 : 
; 1806 : 				if ((_One && _Iter._Ptr == _First._Ptr)
; 1807 : 					|| (_All && _Iter._Ptr != _Right._Myhead)
; 1808 : 					|| (_Some && _Iter._Ptr->_Prev == 0))
; 1809 : 					{	// adopt the iterator
; 1810 : 					*_Pnext = (const_iterator *)_Iter._Mynextiter;
; 1811 : 					_Iter._Myproxy = this->_Myproxy;
; 1812 : 					_Iter._Mynextiter = this->_Myproxy->_Myfirstiter;
; 1813 : 					this->_Myproxy->_Myfirstiter = &_Iter;
; 1814 : 					}
; 1815 : 				else
; 1816 : 					{	// skip the iterator
; 1817 : 					_Pnext = (const_iterator **)_Iter._Getpnext();
; 1818 : 					}
; 1819 : 				}
; 1820 : 
; 1821 : 			if (_Some)
; 1822 : 				for (_Nodeptr _Ptr = _First._Ptr; _Ptr != _Last._Ptr;
; 1823 : 					_Ptr = _Ptr->_Next)
; 1824 : 					{	// restore _Prev pointers
; 1825 : 					_Ptr->_Prev = _Oldprev;
; 1826 : 					_Oldprev = _Ptr;
; 1827 : 					}
; 1828 : 			}
; 1829 : 
; 1830 :  #else /* _ITERATOR_DEBUG_LEVEL == 2 */
; 1831 : 		if (this->_Getal() != _Right._Getal())
; 1832 : 			_XSTD terminate();
; 1833 :  #endif /* _ITERATOR_DEBUG_LEVEL == 2 */
; 1834 : 
; 1835 : 		_Splice_same(_Where, _Right, _First, _Last, _Count);
; 1836 : 		}
; 1837 : 
; 1838 : 	void _Splice_same(const_iterator _Where,
; 1839 : 		_Myt& _Right, const_iterator _First, const_iterator _Last,
; 1840 : 		size_type _Count)
; 1841 : 		{	// splice _Right [_First, _Last) before _Where
; 1842 : 		if (this != &_Right)
; 1843 : 			{	// splicing from another list, adjust counts
; 1844 : 			_Incsize(_Count);
; 1845 : 			_Right._Mysize -= _Count;
; 1846 : 			}
; 1847 : 		this->_Nextnode(this->_Prevnode(_First._Mynode())) =
; 1848 : 			_Last._Mynode();
; 1849 : 		this->_Nextnode(this->_Prevnode(_Last._Mynode())) =
; 1850 : 			_Where._Mynode();
; 1851 : 		this->_Nextnode(this->_Prevnode(_Where._Mynode())) =
; 1852 : 			_First._Mynode();
; 1853 : 
; 1854 : 		_Nodeptr _Pnode = this->_Prevnode(_Where._Mynode());
; 1855 : 		this->_Prevnode(_Where._Mynode()) =
; 1856 : 			this->_Prevnode(_Last._Mynode());
; 1857 : 		this->_Prevnode(_Last._Mynode()) =
; 1858 : 			this->_Prevnode(_First._Mynode());
; 1859 : 		this->_Prevnode(_First._Mynode()) = _Pnode;
; 1860 : 		}
; 1861 : 
; 1862 : 	void _Unchecked_splice(_Unchecked_const_iterator _Where,
; 1863 : 		_Unchecked_const_iterator _First,
; 1864 : 		_Unchecked_const_iterator _Last)
; 1865 : 		{	// splice [_First, _Last) before _Where
; 1866 : 		this->_Nextnode(this->_Prevnode(_First._Mynode())) =
; 1867 : 			_Last._Mynode();
; 1868 : 		this->_Nextnode(this->_Prevnode(_Last._Mynode())) =
; 1869 : 			_Where._Mynode();
; 1870 : 		this->_Nextnode(this->_Prevnode(_Where._Mynode())) =
; 1871 : 			_First._Mynode();
; 1872 : 
; 1873 : 		_Nodeptr _Pnode = this->_Prevnode(_Where._Mynode());
; 1874 : 		this->_Prevnode(_Where._Mynode()) =
; 1875 : 			this->_Prevnode(_Last._Mynode());
; 1876 : 		this->_Prevnode(_Last._Mynode()) =
; 1877 : 			this->_Prevnode(_First._Mynode());
; 1878 : 		this->_Prevnode(_First._Mynode()) = _Pnode;
; 1879 : 		}
; 1880 : 
; 1881 : 	void _Tidy()
; 1882 : 		{	// free all storage
; 1883 : 		clear();
; 1884 : 		}
; 1885 : 
; 1886 : 	void _Insert_n(_Unchecked_const_iterator _Where,
; 1887 : 		size_type _Count, const _Ty& _Val)
; 1888 : 		{	// insert _Count * _Val at _Where
; 1889 : 		size_type _Countsave = _Count;
; 1890 : 
; 1891 : 		_TRY_BEGIN
; 1892 : 		for (; 0 < _Count; --_Count)
; 1893 : 			_Insert(_Where, _Val);
; 1894 : 		_CATCH_ALL
; 1895 : 		for (; _Count < _Countsave; ++_Count)
; 1896 : 			{	// undo inserts
; 1897 : 			_Unchecked_const_iterator _Before = _Where;
; 1898 : 			_Unchecked_erase(--_Before);
; 1899 : 			}
; 1900 : 		_RERAISE;
; 1901 : 		_CATCH_END
; 1902 : 		}
; 1903 : 
; 1904 : 	void _Incsize(size_type _Count)
; 1905 : 		{	// alter element count, with checking
; 1906 : 		if (max_size() - this->_Mysize - 1 < _Count)

	mov	rax, QWORD PTR [rbx+8]
	sub	rdx, rax
	cmp	rdx, 1
	jae	SHORT $LN21@check_in

; 1907 : 			_Xlength_error("list<T> too long");

	lea	rcx, OFFSET FLAT:??_C@_0BB@MOGOBHAF@list?$DMT?$DO?5too?5long?$AA@
	call	QWORD PTR __imp_?_Xlength_error@std@@YAXPEBD@Z
	int	3
$LN21@check_in:

; 1908 : 		this->_Mysize += _Count;

	inc	rax
	mov	QWORD PTR [rbx+8], rax
; File c:\users\nummer\documents\github\olr-3.0\src\xray\xrcore\_sphere.cpp

; 90   : }

	mov	rbx, QWORD PTR [rsp+48]
; File c:\program files (x86)\microsoft visual studio 12.0\vc\include\list

; 1064 : 		this->_Prevnode(_Pnode) = _Newnode;

	mov	QWORD PTR [rdi+8], r8

; 97   : 		}
; 98   : 
; 99   : 	_Nodeptr _Ptr;	// pointer to node
; 100  : 	};
; 101  : 
; 102  : 	// TEMPLATE CLASS _List_unchecked_iterator
; 103  : template<class _Mylist>
; 104  : 	class _List_unchecked_iterator
; 105  : 		: public _List_unchecked_const_iterator<_Mylist>
; 106  : 	{	// unchecked iterator for mutable list
; 107  : public:
; 108  : 	typedef _List_unchecked_iterator<_Mylist> _Myiter;
; 109  : 	typedef _List_unchecked_const_iterator<_Mylist> _Mybase;
; 110  : 	typedef bidirectional_iterator_tag iterator_category;
; 111  : 
; 112  : 	typedef typename _Mylist::_Nodeptr _Nodeptr;
; 113  : 	typedef typename _Mylist::value_type value_type;
; 114  : 	typedef typename _Mylist::difference_type difference_type;
; 115  : 	typedef typename _Mylist::pointer pointer;
; 116  : 	typedef typename _Mylist::reference reference;
; 117  : 
; 118  : 	_List_unchecked_iterator()
; 119  : 		{	// construct with null node
; 120  : 		}
; 121  : 
; 122  : 	_List_unchecked_iterator(_Nodeptr _Pnode, const _Mylist *_Plist)
; 123  : 		: _Mybase(_Pnode, _Plist)
; 124  : 		{	// construct with node pointer _Pnode
; 125  : 		}
; 126  : 
; 127  : 	reference operator*() const
; 128  : 		{	// return designated value
; 129  : 		return ((reference)**(_Mybase *)this);
; 130  : 		}
; 131  : 
; 132  : 	pointer operator->() const
; 133  : 		{	// return pointer to class object
; 134  : 		return (_STD pointer_traits<pointer>::pointer_to(**this));
; 135  : 		}
; 136  : 
; 137  : 	_Myiter& operator++()
; 138  : 		{	// preincrement
; 139  : 		++(*(_Mybase *)this);
; 140  : 		return (*this);
; 141  : 		}
; 142  : 
; 143  : 	_Myiter operator++(int)
; 144  : 		{	// postincrement
; 145  : 		_Myiter _Tmp = *this;
; 146  : 		++*this;
; 147  : 		return (_Tmp);
; 148  : 		}
; 149  : 
; 150  : 	_Myiter& operator--()
; 151  : 		{	// predecrement
; 152  : 		--(*(_Mybase *)this);
; 153  : 		return (*this);
; 154  : 		}
; 155  : 
; 156  : 	_Myiter operator--(int)
; 157  : 		{	// postdecrement
; 158  : 		_Myiter _Tmp = *this;
; 159  : 		--*this;
; 160  : 		return (_Tmp);
; 161  : 		}
; 162  : 	};
; 163  : 
; 164  : 	// TEMPLATE CLASS _List_const_iterator
; 165  : template<class _Mylist>
; 166  : 	class _List_const_iterator
; 167  : 		: public _List_unchecked_const_iterator<_Mylist, _Iterator_base>
; 168  : 	{	// iterator for nonmutable list
; 169  : public:
; 170  : 	typedef _List_const_iterator<_Mylist> _Myiter;
; 171  : 	typedef _List_unchecked_const_iterator<_Mylist, _Iterator_base> _Mybase;
; 172  : 	typedef bidirectional_iterator_tag iterator_category;
; 173  : 
; 174  : 	typedef typename _Mylist::_Nodeptr _Nodeptr;
; 175  : 	typedef typename _Mylist::value_type value_type;
; 176  : 	typedef typename _Mylist::difference_type difference_type;
; 177  : 	typedef typename _Mylist::const_pointer pointer;
; 178  : 	typedef typename _Mylist::const_reference reference;
; 179  : 
; 180  : 	_List_const_iterator()
; 181  : 		: _Mybase()
; 182  : 		{	// construct with null node pointer
; 183  : 		}
; 184  : 
; 185  : 	_List_const_iterator(_Nodeptr _Pnode, const _Mylist *_Plist)
; 186  : 		: _Mybase(_Pnode, _Plist)
; 187  : 		{	// construct with node pointer _Pnode
; 188  : 		}
; 189  : 
; 190  : 	typedef _List_unchecked_const_iterator<_Mylist> _Unchecked_type;
; 191  : 
; 192  : 	_Myiter& _Rechecked(_Unchecked_type _Right)
; 193  : 		{	// reset from unchecked iterator
; 194  : 		this->_Ptr = _Right._Ptr;
; 195  : 		return (*this);
; 196  : 		}
; 197  : 
; 198  : 	_Unchecked_type _Unchecked() const
; 199  : 		{	// make an unchecked iterator
; 200  : 		return (_Unchecked_type(this->_Ptr, (_Mylist *)this->_Getcont()));
; 201  : 		}
; 202  : 
; 203  : 	reference operator*() const
; 204  : 		{	// return designated value
; 205  :  #if _ITERATOR_DEBUG_LEVEL == 2
; 206  : 		if (this->_Getcont() == 0
; 207  : 			|| this->_Ptr == 0
; 208  : 			|| this->_Ptr == ((_Mylist *)this->_Getcont())->_Myhead)
; 209  : 			{	// report error
; 210  : 			_DEBUG_ERROR("list iterator not dereferencable");
; 211  : 			_SCL_SECURE_OUT_OF_RANGE;
; 212  : 			}
; 213  : 
; 214  :  #elif _ITERATOR_DEBUG_LEVEL == 1
; 215  : 		_SCL_SECURE_VALIDATE(this->_Getcont() != 0 && this->_Ptr != 0);
; 216  : 		_SCL_SECURE_VALIDATE_RANGE(this->_Ptr !=
; 217  : 			((_Mylist *)this->_Getcont())->_Myhead);
; 218  :  #endif /* _ITERATOR_DEBUG_LEVEL */
; 219  : 
; 220  : 		return (_Mylist::_Myval(this->_Ptr));
; 221  : 		}
; 222  : 
; 223  : 	_Myiter& operator++()
; 224  : 		{	// preincrement
; 225  :  #if _ITERATOR_DEBUG_LEVEL == 2
; 226  : 		if (this->_Getcont() == 0
; 227  : 			|| this->_Ptr == 0
; 228  : 			|| this->_Ptr == ((_Mylist *)this->_Getcont())->_Myhead)
; 229  : 			{	// report error
; 230  : 			_DEBUG_ERROR("list iterator not incrementable");
; 231  : 			_SCL_SECURE_OUT_OF_RANGE;
; 232  : 			}
; 233  : 
; 234  :  #elif _ITERATOR_DEBUG_LEVEL == 1
; 235  : 		_SCL_SECURE_VALIDATE(this->_Getcont() != 0 && this->_Ptr != 0);
; 236  : 		_SCL_SECURE_VALIDATE_RANGE(this->_Ptr !=
; 237  : 			((_Mylist *)this->_Getcont())->_Myhead);
; 238  :  #endif /* _ITERATOR_DEBUG_LEVEL */
; 239  : 
; 240  : 		this->_Ptr = _Mylist::_Nextnode(this->_Ptr);
; 241  : 		return (*this);
; 242  : 		}
; 243  : 
; 244  : 	_Myiter operator++(int)
; 245  : 		{	// postincrement
; 246  : 		_Myiter _Tmp = *this;
; 247  : 		++*this;
; 248  : 		return (_Tmp);
; 249  : 		}
; 250  : 
; 251  : 	_Myiter& operator--()
; 252  : 		{	// predecrement
; 253  :  #if _ITERATOR_DEBUG_LEVEL == 2
; 254  : 		if (this->_Getcont() == 0
; 255  : 			|| this->_Ptr == 0
; 256  : 			|| (this->_Ptr = _Mylist::_Prevnode(this->_Ptr))
; 257  : 				== ((_Mylist *)this->_Getcont())->_Myhead)
; 258  : 			{	// report error
; 259  : 			_DEBUG_ERROR("list iterator not decrementable");
; 260  : 			_SCL_SECURE_OUT_OF_RANGE;
; 261  : 			}
; 262  : 
; 263  :  #elif _ITERATOR_DEBUG_LEVEL == 1
; 264  : 		_SCL_SECURE_VALIDATE(this->_Getcont() != 0 && this->_Ptr != 0);
; 265  : 		this->_Ptr = _Mylist::_Prevnode(this->_Ptr);
; 266  : 		_SCL_SECURE_VALIDATE_RANGE(this->_Ptr !=
; 267  : 			((_Mylist *)this->_Getcont())->_Myhead);
; 268  : 
; 269  :  #else /* _ITERATOR_DEBUG_LEVEL */
; 270  : 		this->_Ptr = _Mylist::_Prevnode(this->_Ptr);
; 271  :  #endif /* _ITERATOR_DEBUG_LEVEL */
; 272  : 
; 273  : 		return (*this);
; 274  : 		}
; 275  : 
; 276  : 	_Myiter operator--(int)
; 277  : 		{	// postdecrement
; 278  : 		_Myiter _Tmp = *this;
; 279  : 		--*this;
; 280  : 		return (_Tmp);
; 281  : 		}
; 282  : 
; 283  : 	bool operator==(const _Myiter& _Right) const
; 284  : 		{	// test for iterator equality
; 285  :  #if _ITERATOR_DEBUG_LEVEL == 2
; 286  : 		if (this->_Getcont() == 0
; 287  : 			|| this->_Getcont() != _Right._Getcont())
; 288  : 			{	// report error
; 289  : 			_DEBUG_ERROR("list iterators incompatible");
; 290  : 			_SCL_SECURE_INVALID_ARGUMENT;
; 291  : 			}
; 292  : 
; 293  :  #elif _ITERATOR_DEBUG_LEVEL == 1
; 294  : 		_SCL_SECURE_VALIDATE(this->_Getcont() != 0
; 295  : 			&& this->_Getcont() == _Right._Getcont());
; 296  :  #endif /* _ITERATOR_DEBUG_LEVEL */
; 297  : 
; 298  : 		return (this->_Ptr == _Right._Ptr);
; 299  : 		}
; 300  : 
; 301  : 	bool operator!=(const _Myiter& _Right) const
; 302  : 		{	// test for iterator inequality
; 303  : 		return (!(*this == _Right));
; 304  : 		}
; 305  : 	};
; 306  : 
; 307  : template<class _Mylist> inline
; 308  : 	typename _List_const_iterator<_Mylist>::_Unchecked_type
; 309  : 		_Unchecked(_List_const_iterator<_Mylist> _Iter)
; 310  : 	{	// convert to unchecked
; 311  : 	return (_Iter._Unchecked());
; 312  : 	}
; 313  : 
; 314  : template<class _Mylist> inline
; 315  : 	_List_const_iterator<_Mylist>&
; 316  : 		_Rechecked(_List_const_iterator<_Mylist>& _Iter,
; 317  : 			typename _List_const_iterator<_Mylist>
; 318  : 				::_Unchecked_type _Right)
; 319  : 	{	// convert to checked
; 320  : 	return (_Iter._Rechecked(_Right));
; 321  : 	}
; 322  : 
; 323  : 	// TEMPLATE CLASS _List_iterator
; 324  : template<class _Mylist>
; 325  : 	class _List_iterator
; 326  : 		: public _List_const_iterator<_Mylist>
; 327  : 	{	// iterator for mutable list
; 328  : public:
; 329  : 	typedef _List_iterator<_Mylist> _Myiter;
; 330  : 	typedef _List_const_iterator<_Mylist> _Mybase;
; 331  : 	typedef bidirectional_iterator_tag iterator_category;
; 332  : 
; 333  : 	typedef typename _Mylist::_Nodeptr _Nodeptr;
; 334  : 	typedef typename _Mylist::value_type value_type;
; 335  : 	typedef typename _Mylist::difference_type difference_type;
; 336  : 	typedef typename _Mylist::pointer pointer;
; 337  : 	typedef typename _Mylist::reference reference;
; 338  : 
; 339  : 	_List_iterator()
; 340  : 		{	// construct with null node
; 341  : 		}
; 342  : 
; 343  : 	_List_iterator(_Nodeptr _Pnode, const _Mylist *_Plist)
; 344  : 		: _Mybase(_Pnode, _Plist)
; 345  : 		{	// construct with node pointer _Pnode
; 346  : 		}
; 347  : 
; 348  : 	typedef _List_unchecked_iterator<_Mylist> _Unchecked_type;
; 349  : 
; 350  : 	_Myiter& _Rechecked(_Unchecked_type _Right)
; 351  : 		{	// reset from unchecked iterator
; 352  : 		this->_Ptr = _Right._Ptr;
; 353  : 		return (*this);
; 354  : 		}
; 355  : 
; 356  : 	_Unchecked_type _Unchecked() const
; 357  : 		{	// make an unchecked iterator
; 358  : 		return (_Unchecked_type(this->_Ptr, (_Mylist *)this->_Getcont()));
; 359  : 		}
; 360  : 
; 361  : 	reference operator*() const
; 362  : 		{	// return designated value
; 363  : 		return ((reference)**(_Mybase *)this);
; 364  : 		}
; 365  : 
; 366  : 	pointer operator->() const
; 367  : 		{	// return pointer to class object
; 368  : 		return (_STD pointer_traits<pointer>::pointer_to(**this));
; 369  : 		}
; 370  : 
; 371  : 	_Myiter& operator++()
; 372  : 		{	// preincrement
; 373  : 		++(*(_Mybase *)this);
; 374  : 		return (*this);
; 375  : 		}
; 376  : 
; 377  : 	_Myiter operator++(int)
; 378  : 		{	// postincrement
; 379  : 		_Myiter _Tmp = *this;
; 380  : 		++*this;
; 381  : 		return (_Tmp);
; 382  : 		}
; 383  : 
; 384  : 	_Myiter& operator--()
; 385  : 		{	// predecrement
; 386  : 		--(*(_Mybase *)this);
; 387  : 		return (*this);
; 388  : 		}
; 389  : 
; 390  : 	_Myiter operator--(int)
; 391  : 		{	// postdecrement
; 392  : 		_Myiter _Tmp = *this;
; 393  : 		--*this;
; 394  : 		return (_Tmp);
; 395  : 		}
; 396  : 	};
; 397  : 
; 398  : template<class _Mylist> inline
; 399  : 	typename _List_iterator<_Mylist>::_Unchecked_type
; 400  : 		_Unchecked(_List_iterator<_Mylist> _Iter)
; 401  : 	{	// convert to unchecked
; 402  : 	return (_Iter._Unchecked());
; 403  : 	}
; 404  : 
; 405  : template<class _Mylist> inline
; 406  : 	_List_iterator<_Mylist>&
; 407  : 		_Rechecked(_List_iterator<_Mylist>& _Iter,
; 408  : 			typename _List_iterator<_Mylist>
; 409  : 				::_Unchecked_type _Right)
; 410  : 	{	// convert to checked
; 411  : 	return (_Iter._Rechecked(_Right));
; 412  : 	}
; 413  : 
; 414  : 		// list TYPE WRAPPERS
; 415  : template<class _Value_type,
; 416  : 	class _Size_type,
; 417  : 	class _Difference_type,
; 418  : 	class _Pointer,
; 419  : 	class _Const_pointer,
; 420  : 	class _Reference,
; 421  : 	class _Const_reference,
; 422  : 	class _Nodeptr_type>
; 423  : 	struct _List_iter_types
; 424  : 	{	// wraps types needed by iterators
; 425  : 	typedef _Value_type value_type;
; 426  : 	typedef _Size_type size_type;
; 427  : 	typedef _Difference_type difference_type;
; 428  : 	typedef _Pointer pointer;
; 429  : 	typedef _Const_pointer const_pointer;
; 430  : 	typedef _Reference reference;
; 431  : 	typedef _Const_reference const_reference;
; 432  : 	typedef _Nodeptr_type _Nodeptr;
; 433  : 	};
; 434  : 
; 435  : template<class _Value_type,
; 436  : 	class _Voidptr>
; 437  : 	struct _List_node
; 438  : 		{	// list node
; 439  : 		_Voidptr _Next;	// successor node, or first element if head
; 440  : 		_Voidptr _Prev;	// predecessor node, or last element if head
; 441  : 		_Value_type _Myval;	// the stored value, unused if head
; 442  : 
; 443  : 	private:
; 444  : 		_List_node& operator=(const _List_node&);
; 445  : 		};
; 446  : 
; 447  : template<class _Value_type>
; 448  : 	struct _List_node<_Value_type, void *>
; 449  : 		{	// list node
; 450  : 		typedef _List_node<_Value_type, void *> *_Nodeptr;
; 451  : 		_Nodeptr _Next;	// successor node, or first element if head
; 452  : 		_Nodeptr _Prev;	// predecessor node, or last element if head
; 453  : 		_Value_type _Myval;	// the stored value, unused if head
; 454  : 
; 455  : 	private:
; 456  : 		_List_node& operator=(const _List_node&);
; 457  : 		};
; 458  : 
; 459  : template<class _Ty>
; 460  : 	struct _List_simple_types
; 461  : 		: public _Simple_types<_Ty>
; 462  : 	{	// wraps types needed by iterators
; 463  : 	typedef _List_node<_Ty, void *> _Node;
; 464  : 	typedef _Node *_Nodeptr;
; 465  : 	};
; 466  : 
; 467  : template<class _Ty,
; 468  : 	class _Alloc0>
; 469  : 	struct _List_base_types
; 470  : 	{	// types needed for a container base
; 471  : 	typedef _Alloc0 _Alloc;
; 472  : 	typedef _List_base_types<_Ty, _Alloc> _Myt;
; 473  : 
; 474  : 	typedef _Wrap_alloc<_Alloc> _Alty0;
; 475  : 	typedef typename _Alty0::template rebind<_Ty>::other _Alty;
; 476  : 
; 477  : 
; 478  : 	typedef typename _Get_voidptr<_Alty, typename _Alty::pointer>::type
; 479  : 		_Voidptr;
; 480  : 	typedef _List_node<typename _Alty::value_type,
; 481  : 		_Voidptr> _Node;
; 482  : 
; 483  : 	typedef typename _Alty::template rebind<_Node>::other _Alnod_type;
; 484  : 	typedef typename _Alnod_type::pointer _Nodeptr;
; 485  : 	typedef _Nodeptr& _Nodepref;
; 486  : 
; 487  : 	typedef typename _If<_Is_simple_alloc<_Alty>::value,
; 488  : 		_List_simple_types<typename _Alty::value_type>,
; 489  : 		_List_iter_types<typename _Alty::value_type,
; 490  : 			typename _Alty::size_type,
; 491  : 			typename _Alty::difference_type,
; 492  : 			typename _Alty::pointer,
; 493  : 			typename _Alty::const_pointer,
; 494  : 			typename _Alty::reference,
; 495  : 			typename _Alty::const_reference,
; 496  : 			_Nodeptr> >::type
; 497  : 		_Val_types;
; 498  : 	};
; 499  : 
; 500  : 		// TEMPLATE CLASS _List_val
; 501  : template<class _Val_types>
; 502  : 	class _List_val
; 503  : 		: public _Container_base
; 504  : 	{	// base class for list to hold data
; 505  : public:
; 506  : 	typedef _List_val<_Val_types> _Myt;
; 507  : 
; 508  : 	typedef typename _Val_types::_Nodeptr _Nodeptr;
; 509  : 	typedef _Nodeptr& _Nodepref;
; 510  : 
; 511  : 	typedef typename _Val_types::value_type value_type;
; 512  : 	typedef typename _Val_types::size_type size_type;
; 513  : 	typedef typename _Val_types::difference_type difference_type;
; 514  : 	typedef typename _Val_types::pointer pointer;
; 515  : 	typedef typename _Val_types::const_pointer const_pointer;
; 516  : 	typedef typename _Val_types::reference reference;
; 517  : 	typedef typename _Val_types::const_reference const_reference;
; 518  : 
; 519  : 	typedef _List_const_iterator<_Myt> const_iterator;
; 520  : 	typedef _List_iterator<_Myt> iterator;
; 521  : 
; 522  : 	typedef _List_unchecked_const_iterator<_Myt> _Unchecked_const_iterator;
; 523  : 	typedef _List_unchecked_iterator<_Myt> _Unchecked_iterator;
; 524  : 
; 525  : 	_List_val()
; 526  : 		{	// initialize data
; 527  : 		this->_Myhead = 0;
; 528  : 		this->_Mysize = 0;
; 529  : 		}
; 530  : 
; 531  : 	static _Nodepref _Nextnode(_Nodeptr _Pnode)
; 532  : 		{	// return reference to successor pointer in node
; 533  : 		return ((_Nodepref)_Pnode->_Next);

	mov	rax, QWORD PTR [r8+8]

; 1065 : 		this->_Nextnode(this->_Prevnode(_Newnode)) = _Newnode;

	mov	QWORD PTR [rax], r8
; File c:\users\nummer\documents\github\olr-3.0\src\xray\xrcore\_sphere.cpp

; 90   : }

	add	rsp, 32					; 00000020H
	pop	rdi
	ret	0
$LN46@check_in:
?check_in@Miniball@@QEAAXAEBU?$_vector3@M@@@Z ENDP	; Miniball::check_in
_TEXT	ENDS
; Function compile flags: /Ogtpy
; File c:\users\nummer\documents\github\olr-3.0\src\xray\xrcore\_sphere.cpp
; File c:\users\nummer\documents\github\olr-3.0\src\xray\xrcore\_vector3d.h
; File c:\users\nummer\documents\github\olr-3.0\src\xray\xrcore\_sphere.cpp
; File c:\program files (x86)\microsoft visual studio 12.0\vc\include\list
; File c:\users\nummer\documents\github\olr-3.0\src\xray\xrcore\_sphere.cpp
_TEXT	SEGMENT
this$ = 8
?build@Miniball@@QEAAXXZ PROC				; Miniball::build

; 103  : 
; 104  : void Miniball::mtf_mb (It i)
; 105  : {
; 106  : 	support_end = L.begin();
; 107  : 
; 108  : 	if ((B.size())== 4) 
; 109  : 		return;
; 110  : 
; 111  : 	for (It k=L.begin(); k!=i;) 
; 112  : 	{
; 113  : 		It j=k++;
; 114  : 		if (B.excess(*j) > 0) 
; 115  : 		{
; 116  : 			if (B.push(*j)) 
; 117  : 			{
; 118  : 				mtf_mb (j);
; 119  : 				B.pop();
; 120  : 				move_to_front(j);
; 121  : 			}
; 122  : 		}
; 123  : 	}
; 124  : }
; 125  : 
; 126  : void Miniball::move_to_front (It j)
; 127  : {
; 128  : 	if (support_end == j)
; 129  : 		support_end++;
; 130  : 	L.splice (L.begin(), L, j);
; 131  : }
; 132  : 
; 133  : 
; 134  : void Miniball::pivot_mb (It i)
; 135  : {
; 136  : 	It t = ++L.begin();
; 137  : 	mtf_mb (t);
; 138  : 	float max_e, old_sqr_r = 0;
; 139  : 	do 
; 140  : 	{
; 141  : 		It pivot = L.begin();
; 142  : 		max_e = max_excess (t, i, pivot);
; 143  : 		if (max_e > 0) 
; 144  : 		{
; 145  : 			t = support_end;
; 146  : 			if (t==pivot) ++t;
; 147  : 			old_sqr_r = B.squared_radius();
; 148  : 			B.push (*pivot);
; 149  : 			mtf_mb (support_end);
; 150  : 			B.pop();
; 151  : 			move_to_front (pivot);
; 152  : 		}
; 153  : 	} while ((max_e > 0) && (B.squared_radius() > old_sqr_r));
; 154  : }
; 155  : 
; 156  : float Miniball::max_excess (It t, It i, It& pivot) const
; 157  : {
; 158  : 	const	Fvector* pCenter = B.center();
; 159  : 	float				sqr_r	= B.squared_radius();
; 160  : 
; 161  : 	float e, max_e = 0;
; 162  : 
; 163  : 	for (It k=t; k!=i; ++k)
; 164  : 	{
; 165  : 		const Fvector & point = (*k);
; 166  : 		e = -sqr_r;
; 167  : 
; 168  : 		e += point.distance_to_sqr(*pCenter);
; 169  : 
; 170  : 		if (e > max_e)
; 171  : 		{
; 172  : 			max_e = e;
; 173  : 			pivot = k;
; 174  : 		}
; 175  : 	}
; 176  : 
; 177  : 	return max_e;
; 178  : }
; 179  : 
; 180  : Fvector Miniball::center () const
; 181  : {
; 182  : 	return *((Fvector *)B.center());
; 183  : }
; 184  : 
; 185  : float Miniball::squared_radius () const
; 186  : {
; 187  : 	return B.squared_radius();
; 188  : }
; 189  : 
; 190  : int Miniball::num_points () const
; 191  : {
; 192  : 	return L.size();
; 193  : }
; 194  : 
; 195  : Miniball::Cit Miniball::points_begin () const
; 196  : {
; 197  : 	return L.begin();
; 198  : }
; 199  : 
; 200  : Miniball::Cit Miniball::points_end () const
; 201  : {
; 202  : 	return L.end();
; 203  : }
; 204  : 
; 205  : int Miniball::nr_support_gVectors () const
; 206  : {
; 207  : 	return B.support_size();
; 208  : }
; 209  : 
; 210  : Miniball::Cit Miniball::support_points_begin () const
; 211  : {
; 212  : 	return L.begin();
; 213  : }
; 214  : 
; 215  : Miniball::Cit Miniball::support_points_end () const
; 216  : {
; 217  : 	return support_end;
; 218  : }
; 219  : 
; 220  : 
; 221  : //----------------------------------------------------------------------
; 222  : // Basis
; 223  : //---------------------------------------------------------------------
; 224  : const Fvector* Basis::center () const
; 225  : {
; 226  : 	return current_c;
; 227  : }
; 228  : 
; 229  : float Basis::squared_radius() const
; 230  : {
; 231  : 	return current_sqr_r;
; 232  : }
; 233  : 
; 234  : int Basis::size() const
; 235  : {
; 236  : 	return m;
; 237  : }
; 238  : 
; 239  : int Basis::support_size() const
; 240  : {
; 241  : 	return s;
; 242  : }
; 243  : 
; 244  : float Basis::excess (const Fvector& p) const
; 245  : {
; 246  : 	float e = -current_sqr_r;
; 247  : 	e += p.distance_to_sqr(*current_c);
; 248  : 	return e;
; 249  : }
; 250  : 
; 251  : void Basis::reset ()
; 252  : {
; 253  : 	m = s = 0;
; 254  : 	// we misuse c[0] for the center of the empty sphere
; 255  : 	c[0].set(0,0,0);

	lea	rax, QWORD PTR [rcx+168]
	xor	edx, edx
	mov	QWORD PTR [rcx+20], rdx
; File c:\users\nummer\documents\github\olr-3.0\src\xray\xrcore\_vector3d.h

; 23   : 	ICF	SelfRef	set(T _x, T _y, T _z)					{ x = _x;		y = _y;		z = _z;		return *this;	};

	mov	QWORD PTR [rax], rdx
	mov	DWORD PTR [rax+8], edx
; File c:\users\nummer\documents\github\olr-3.0\src\xray\xrcore\_sphere.cpp

; 256  : 	current_c = c;

	mov	QWORD PTR [rcx+232], rax

; 257  : 	current_sqr_r = -1;

	mov	DWORD PTR [rcx+240], -1082130432	; bf800000H
; File c:\program files (x86)\microsoft visual studio 12.0\vc\include\list

; 533  : 		return ((_Nodepref)_Pnode->_Next);

	mov	rdx, QWORD PTR [rcx]
; File c:\users\nummer\documents\github\olr-3.0\src\xray\xrcore\_sphere.cpp

; 95   : 	support_end = L.begin();

	mov	rax, QWORD PTR [rdx]
	mov	QWORD PTR [rcx+248], rax

; 96   : 
; 97   : 	// @@ pivotting or not ?
; 98   : 	if ( 1 )
; 99   : 		pivot_mb	(L.end());

	jmp	?pivot_mb@Miniball@@AEAAXV?$_List_iterator@V?$_List_val@U?$_List_simple_types@U?$_vector3@M@@@std@@@std@@@std@@@Z ; Miniball::pivot_mb
?build@Miniball@@QEAAXXZ ENDP				; Miniball::build
_TEXT	ENDS
; Function compile flags: /Ogtpy
; File c:\users\nummer\documents\github\olr-3.0\src\xray\xrcore\_sphere.cpp
; File c:\program files (x86)\microsoft visual studio 12.0\vc\include\list
; File c:\users\nummer\documents\github\olr-3.0\src\xray\xrcore\_sphere.cpp
; File c:\program files (x86)\microsoft visual studio 12.0\vc\include\list
; File c:\users\nummer\documents\github\olr-3.0\src\xray\xrcore\_sphere.cpp
; File c:\program files (x86)\microsoft visual studio 12.0\vc\include\list
; File c:\users\nummer\documents\github\olr-3.0\src\xray\xrcore\_vector3d.h
; File c:\users\nummer\documents\github\olr-3.0\src\xray\xrcore\_sphere.cpp
; File c:\program files (x86)\microsoft visual studio 12.0\vc\include\list
; File c:\users\nummer\documents\github\olr-3.0\src\xray\xrcore\_sphere.cpp
; File c:\program files (x86)\microsoft visual studio 12.0\vc\include\list
; File c:\users\nummer\documents\github\olr-3.0\src\xray\xrcore\_sphere.cpp
; File c:\program files (x86)\microsoft visual studio 12.0\vc\include\list
; File c:\users\nummer\documents\github\olr-3.0\src\xray\xrcore\_sphere.cpp
_TEXT	SEGMENT
this$ = 96
i$ = 104
?mtf_mb@Miniball@@AEAAXV?$_List_iterator@V?$_List_val@U?$_List_simple_types@U?$_vector3@M@@@std@@@std@@@std@@@Z PROC ; Miniball::mtf_mb

; 105  : {

$LN146:
	mov	QWORD PTR [rsp+32], rsi
	mov	QWORD PTR [rsp+16], rdx
	push	rdi
	sub	rsp, 80					; 00000050H

; 107  : 
; 108  : 	if ((B.size())== 4) 

	cmp	DWORD PTR [rcx+20], 4
; File c:\program files (x86)\microsoft visual studio 12.0\vc\include\list

; 533  : 		return ((_Nodepref)_Pnode->_Next);

	mov	rdi, QWORD PTR [rcx]
; File c:\users\nummer\documents\github\olr-3.0\src\xray\xrcore\_sphere.cpp

; 105  : {

	mov	rsi, rcx

; 106  : 	support_end = L.begin();

	mov	rax, QWORD PTR [rdi]
	mov	QWORD PTR [rcx+248], rax

; 107  : 
; 108  : 	if ((B.size())== 4) 

	je	$LN3@mtf_mb
; File c:\program files (x86)\microsoft visual studio 12.0\vc\include\list

; 44   : 		{	// construct with node pointer _Pnode

	mov	rdi, QWORD PTR [rdi]

; 298  : 		return (this->_Ptr == _Right._Ptr);

	cmp	rdi, rdx
; File c:\users\nummer\documents\github\olr-3.0\src\xray\xrcore\_sphere.cpp

; 111  : 	for (It k=L.begin(); k!=i;) 

	je	$LN3@mtf_mb
	mov	QWORD PTR [rsp+96], rbx
	mov	QWORD PTR [rsp+112], rbp
	movaps	XMMWORD PTR [rsp+64], xmm6
	movss	xmm6, DWORD PTR __xmm@80000000800000008000000080000000
	movaps	XMMWORD PTR [rsp+48], xmm7
	xorps	xmm7, xmm7
	npad	12
$LL4@mtf_mb:

; 247  : 	e += p.distance_to_sqr(*current_c);

	mov	rax, QWORD PTR [rsi+232]
; File c:\program files (x86)\microsoft visual studio 12.0\vc\include\list

; 379  : 		_Myiter _Tmp = *this;

	mov	rbx, rdi

; 45   : 		this->_Adopt(_Plist);
; 46   : 		}
; 47   : 
; 48   : 	reference operator*() const
; 49   : 		{	// return designated value
; 50   : 		return (_Mylist::_Myval(_Ptr));
; 51   : 		}
; 52   : 
; 53   : 	pointer operator->() const
; 54   : 		{	// return pointer to class object
; 55   : 		return (_STD pointer_traits<pointer>::pointer_to(**this));
; 56   : 		}
; 57   : 
; 58   : 	_Myiter& operator++()
; 59   : 		{	// preincrement
; 60   : 		_Ptr = _Mylist::_Nextnode(_Ptr);
; 61   : 		return (*this);
; 62   : 		}
; 63   : 
; 64   : 	_Myiter operator++(int)
; 65   : 		{	// postincrement
; 66   : 		_Myiter _Tmp = *this;
; 67   : 		++*this;
; 68   : 		return (_Tmp);
; 69   : 		}
; 70   : 
; 71   : 	_Myiter& operator--()
; 72   : 		{	// predecrement
; 73   : 		_Ptr = _Mylist::_Prevnode(_Ptr);
; 74   : 		return (*this);
; 75   : 		}
; 76   : 
; 77   : 	_Myiter operator--(int)
; 78   : 		{	// postdecrement
; 79   : 		_Myiter _Tmp = *this;
; 80   : 		--*this;
; 81   : 		return (_Tmp);
; 82   : 		}
; 83   : 
; 84   : 	bool operator==(const _Myiter& _Right) const
; 85   : 		{	// test for iterator equality
; 86   : 		return (_Ptr == _Right._Ptr);
; 87   : 		}
; 88   : 
; 89   : 	bool operator!=(const _Myiter& _Right) const
; 90   : 		{	// test for iterator inequality
; 91   : 		return (!(*this == _Right));
; 92   : 		}
; 93   : 
; 94   : 	_Nodeptr _Mynode() const
; 95   : 		{	// return node pointer
; 96   : 		return (_Ptr);
; 97   : 		}
; 98   : 
; 99   : 	_Nodeptr _Ptr;	// pointer to node
; 100  : 	};
; 101  : 
; 102  : 	// TEMPLATE CLASS _List_unchecked_iterator
; 103  : template<class _Mylist>
; 104  : 	class _List_unchecked_iterator
; 105  : 		: public _List_unchecked_const_iterator<_Mylist>
; 106  : 	{	// unchecked iterator for mutable list
; 107  : public:
; 108  : 	typedef _List_unchecked_iterator<_Mylist> _Myiter;
; 109  : 	typedef _List_unchecked_const_iterator<_Mylist> _Mybase;
; 110  : 	typedef bidirectional_iterator_tag iterator_category;
; 111  : 
; 112  : 	typedef typename _Mylist::_Nodeptr _Nodeptr;
; 113  : 	typedef typename _Mylist::value_type value_type;
; 114  : 	typedef typename _Mylist::difference_type difference_type;
; 115  : 	typedef typename _Mylist::pointer pointer;
; 116  : 	typedef typename _Mylist::reference reference;
; 117  : 
; 118  : 	_List_unchecked_iterator()
; 119  : 		{	// construct with null node
; 120  : 		}
; 121  : 
; 122  : 	_List_unchecked_iterator(_Nodeptr _Pnode, const _Mylist *_Plist)
; 123  : 		: _Mybase(_Pnode, _Plist)
; 124  : 		{	// construct with node pointer _Pnode
; 125  : 		}
; 126  : 
; 127  : 	reference operator*() const
; 128  : 		{	// return designated value
; 129  : 		return ((reference)**(_Mybase *)this);
; 130  : 		}
; 131  : 
; 132  : 	pointer operator->() const
; 133  : 		{	// return pointer to class object
; 134  : 		return (_STD pointer_traits<pointer>::pointer_to(**this));
; 135  : 		}
; 136  : 
; 137  : 	_Myiter& operator++()
; 138  : 		{	// preincrement
; 139  : 		++(*(_Mybase *)this);
; 140  : 		return (*this);
; 141  : 		}
; 142  : 
; 143  : 	_Myiter operator++(int)
; 144  : 		{	// postincrement
; 145  : 		_Myiter _Tmp = *this;
; 146  : 		++*this;
; 147  : 		return (_Tmp);
; 148  : 		}
; 149  : 
; 150  : 	_Myiter& operator--()
; 151  : 		{	// predecrement
; 152  : 		--(*(_Mybase *)this);
; 153  : 		return (*this);
; 154  : 		}
; 155  : 
; 156  : 	_Myiter operator--(int)
; 157  : 		{	// postdecrement
; 158  : 		_Myiter _Tmp = *this;
; 159  : 		--*this;
; 160  : 		return (_Tmp);
; 161  : 		}
; 162  : 	};
; 163  : 
; 164  : 	// TEMPLATE CLASS _List_const_iterator
; 165  : template<class _Mylist>
; 166  : 	class _List_const_iterator
; 167  : 		: public _List_unchecked_const_iterator<_Mylist, _Iterator_base>
; 168  : 	{	// iterator for nonmutable list
; 169  : public:
; 170  : 	typedef _List_const_iterator<_Mylist> _Myiter;
; 171  : 	typedef _List_unchecked_const_iterator<_Mylist, _Iterator_base> _Mybase;
; 172  : 	typedef bidirectional_iterator_tag iterator_category;
; 173  : 
; 174  : 	typedef typename _Mylist::_Nodeptr _Nodeptr;
; 175  : 	typedef typename _Mylist::value_type value_type;
; 176  : 	typedef typename _Mylist::difference_type difference_type;
; 177  : 	typedef typename _Mylist::const_pointer pointer;
; 178  : 	typedef typename _Mylist::const_reference reference;
; 179  : 
; 180  : 	_List_const_iterator()
; 181  : 		: _Mybase()
; 182  : 		{	// construct with null node pointer
; 183  : 		}
; 184  : 
; 185  : 	_List_const_iterator(_Nodeptr _Pnode, const _Mylist *_Plist)
; 186  : 		: _Mybase(_Pnode, _Plist)
; 187  : 		{	// construct with node pointer _Pnode
; 188  : 		}
; 189  : 
; 190  : 	typedef _List_unchecked_const_iterator<_Mylist> _Unchecked_type;
; 191  : 
; 192  : 	_Myiter& _Rechecked(_Unchecked_type _Right)
; 193  : 		{	// reset from unchecked iterator
; 194  : 		this->_Ptr = _Right._Ptr;
; 195  : 		return (*this);
; 196  : 		}
; 197  : 
; 198  : 	_Unchecked_type _Unchecked() const
; 199  : 		{	// make an unchecked iterator
; 200  : 		return (_Unchecked_type(this->_Ptr, (_Mylist *)this->_Getcont()));
; 201  : 		}
; 202  : 
; 203  : 	reference operator*() const
; 204  : 		{	// return designated value
; 205  :  #if _ITERATOR_DEBUG_LEVEL == 2
; 206  : 		if (this->_Getcont() == 0
; 207  : 			|| this->_Ptr == 0
; 208  : 			|| this->_Ptr == ((_Mylist *)this->_Getcont())->_Myhead)
; 209  : 			{	// report error
; 210  : 			_DEBUG_ERROR("list iterator not dereferencable");
; 211  : 			_SCL_SECURE_OUT_OF_RANGE;
; 212  : 			}
; 213  : 
; 214  :  #elif _ITERATOR_DEBUG_LEVEL == 1
; 215  : 		_SCL_SECURE_VALIDATE(this->_Getcont() != 0 && this->_Ptr != 0);
; 216  : 		_SCL_SECURE_VALIDATE_RANGE(this->_Ptr !=
; 217  : 			((_Mylist *)this->_Getcont())->_Myhead);
; 218  :  #endif /* _ITERATOR_DEBUG_LEVEL */
; 219  : 
; 220  : 		return (_Mylist::_Myval(this->_Ptr));
; 221  : 		}
; 222  : 
; 223  : 	_Myiter& operator++()
; 224  : 		{	// preincrement
; 225  :  #if _ITERATOR_DEBUG_LEVEL == 2
; 226  : 		if (this->_Getcont() == 0
; 227  : 			|| this->_Ptr == 0
; 228  : 			|| this->_Ptr == ((_Mylist *)this->_Getcont())->_Myhead)
; 229  : 			{	// report error
; 230  : 			_DEBUG_ERROR("list iterator not incrementable");
; 231  : 			_SCL_SECURE_OUT_OF_RANGE;
; 232  : 			}
; 233  : 
; 234  :  #elif _ITERATOR_DEBUG_LEVEL == 1
; 235  : 		_SCL_SECURE_VALIDATE(this->_Getcont() != 0 && this->_Ptr != 0);
; 236  : 		_SCL_SECURE_VALIDATE_RANGE(this->_Ptr !=
; 237  : 			((_Mylist *)this->_Getcont())->_Myhead);
; 238  :  #endif /* _ITERATOR_DEBUG_LEVEL */
; 239  : 
; 240  : 		this->_Ptr = _Mylist::_Nextnode(this->_Ptr);

	mov	rdi, QWORD PTR [rdi]

; 534  : 		}
; 535  : 
; 536  : 	static _Nodepref _Prevnode(_Nodeptr _Pnode)
; 537  : 		{	// return reference to predecessor pointer in node
; 538  : 		return ((_Nodepref)_Pnode->_Prev);
; 539  : 		}
; 540  : 
; 541  : 	static reference _Myval(_Nodeptr _Pnode)
; 542  : 		{	// return reference to value in node
; 543  : 		return ((reference)_Pnode->_Myval);

	lea	rdx, QWORD PTR [rbx+16]
; File c:\users\nummer\documents\github\olr-3.0\src\xray\xrcore\_vector3d.h

; 287  : 	{	return (x-v.x)*(x-v.x) + (y-v.y)*(y-v.y) + (z-v.z)*(z-v.z);	}

	movss	xmm0, DWORD PTR [rdx+8]
	movss	xmm1, DWORD PTR [rdx+4]
	movss	xmm2, DWORD PTR [rdx]
	subss	xmm2, DWORD PTR [rax]
	subss	xmm0, DWORD PTR [rax+8]
	subss	xmm1, DWORD PTR [rax+4]
	mulss	xmm2, xmm2
	mulss	xmm0, xmm0
	mulss	xmm1, xmm1
	addss	xmm2, xmm1
	addss	xmm2, xmm0
; File c:\users\nummer\documents\github\olr-3.0\src\xray\xrcore\_sphere.cpp

; 246  : 	float e = -current_sqr_r;

	movss	xmm0, DWORD PTR [rsi+240]
	xorps	xmm0, xmm6

; 247  : 	e += p.distance_to_sqr(*current_c);

	addss	xmm2, xmm0

; 112  : 	{
; 113  : 		It j=k++;
; 114  : 		if (B.excess(*j) > 0) 

	comiss	xmm2, xmm7
	jbe	SHORT $LN144@mtf_mb

; 115  : 		{
; 116  : 			if (B.push(*j)) 

	lea	rcx, QWORD PTR [rsi+16]
	call	?push@Basis@@QEAA_NAEBU?$_vector3@M@@@Z	; Basis::push
	test	al, al
	je	SHORT $LN144@mtf_mb

; 117  : 			{
; 118  : 				mtf_mb (j);

	mov	rdx, rbx
	mov	rcx, rsi
	call	?mtf_mb@Miniball@@AEAAXV?$_List_iterator@V?$_List_val@U?$_List_simple_types@U?$_vector3@M@@@std@@@std@@@std@@@Z ; Miniball::mtf_mb

; 248  : 	return e;
; 249  : }
; 250  : 
; 251  : void Basis::reset ()
; 252  : {
; 253  : 	m = s = 0;
; 254  : 	// we misuse c[0] for the center of the empty sphere
; 255  : 	c[0].set(0,0,0);
; 256  : 	current_c = c;
; 257  : 	current_sqr_r = -1;
; 258  : }
; 259  : 
; 260  : 
; 261  : Basis::Basis ()
; 262  : {
; 263  : 	reset();
; 264  : }
; 265  : 
; 266  : 
; 267  : void Basis::pop ()
; 268  : {
; 269  : 	--m;

	dec	DWORD PTR [rsi+20]
; File c:\program files (x86)\microsoft visual studio 12.0\vc\include\list

; 298  : 		return (this->_Ptr == _Right._Ptr);

	cmp	QWORD PTR [rsi+248], rbx
; File c:\users\nummer\documents\github\olr-3.0\src\xray\xrcore\_sphere.cpp

; 128  : 	if (support_end == j)

	jne	SHORT $LN73@mtf_mb
; File c:\program files (x86)\microsoft visual studio 12.0\vc\include\list

; 533  : 		return ((_Nodepref)_Pnode->_Next);

	mov	rax, QWORD PTR [rsi+248]

; 45   : 		this->_Adopt(_Plist);
; 46   : 		}
; 47   : 
; 48   : 	reference operator*() const
; 49   : 		{	// return designated value
; 50   : 		return (_Mylist::_Myval(_Ptr));
; 51   : 		}
; 52   : 
; 53   : 	pointer operator->() const
; 54   : 		{	// return pointer to class object
; 55   : 		return (_STD pointer_traits<pointer>::pointer_to(**this));
; 56   : 		}
; 57   : 
; 58   : 	_Myiter& operator++()
; 59   : 		{	// preincrement
; 60   : 		_Ptr = _Mylist::_Nextnode(_Ptr);
; 61   : 		return (*this);
; 62   : 		}
; 63   : 
; 64   : 	_Myiter operator++(int)
; 65   : 		{	// postincrement
; 66   : 		_Myiter _Tmp = *this;
; 67   : 		++*this;
; 68   : 		return (_Tmp);
; 69   : 		}
; 70   : 
; 71   : 	_Myiter& operator--()
; 72   : 		{	// predecrement
; 73   : 		_Ptr = _Mylist::_Prevnode(_Ptr);
; 74   : 		return (*this);
; 75   : 		}
; 76   : 
; 77   : 	_Myiter operator--(int)
; 78   : 		{	// postdecrement
; 79   : 		_Myiter _Tmp = *this;
; 80   : 		--*this;
; 81   : 		return (_Tmp);
; 82   : 		}
; 83   : 
; 84   : 	bool operator==(const _Myiter& _Right) const
; 85   : 		{	// test for iterator equality
; 86   : 		return (_Ptr == _Right._Ptr);
; 87   : 		}
; 88   : 
; 89   : 	bool operator!=(const _Myiter& _Right) const
; 90   : 		{	// test for iterator inequality
; 91   : 		return (!(*this == _Right));
; 92   : 		}
; 93   : 
; 94   : 	_Nodeptr _Mynode() const
; 95   : 		{	// return node pointer
; 96   : 		return (_Ptr);
; 97   : 		}
; 98   : 
; 99   : 	_Nodeptr _Ptr;	// pointer to node
; 100  : 	};
; 101  : 
; 102  : 	// TEMPLATE CLASS _List_unchecked_iterator
; 103  : template<class _Mylist>
; 104  : 	class _List_unchecked_iterator
; 105  : 		: public _List_unchecked_const_iterator<_Mylist>
; 106  : 	{	// unchecked iterator for mutable list
; 107  : public:
; 108  : 	typedef _List_unchecked_iterator<_Mylist> _Myiter;
; 109  : 	typedef _List_unchecked_const_iterator<_Mylist> _Mybase;
; 110  : 	typedef bidirectional_iterator_tag iterator_category;
; 111  : 
; 112  : 	typedef typename _Mylist::_Nodeptr _Nodeptr;
; 113  : 	typedef typename _Mylist::value_type value_type;
; 114  : 	typedef typename _Mylist::difference_type difference_type;
; 115  : 	typedef typename _Mylist::pointer pointer;
; 116  : 	typedef typename _Mylist::reference reference;
; 117  : 
; 118  : 	_List_unchecked_iterator()
; 119  : 		{	// construct with null node
; 120  : 		}
; 121  : 
; 122  : 	_List_unchecked_iterator(_Nodeptr _Pnode, const _Mylist *_Plist)
; 123  : 		: _Mybase(_Pnode, _Plist)
; 124  : 		{	// construct with node pointer _Pnode
; 125  : 		}
; 126  : 
; 127  : 	reference operator*() const
; 128  : 		{	// return designated value
; 129  : 		return ((reference)**(_Mybase *)this);
; 130  : 		}
; 131  : 
; 132  : 	pointer operator->() const
; 133  : 		{	// return pointer to class object
; 134  : 		return (_STD pointer_traits<pointer>::pointer_to(**this));
; 135  : 		}
; 136  : 
; 137  : 	_Myiter& operator++()
; 138  : 		{	// preincrement
; 139  : 		++(*(_Mybase *)this);
; 140  : 		return (*this);
; 141  : 		}
; 142  : 
; 143  : 	_Myiter operator++(int)
; 144  : 		{	// postincrement
; 145  : 		_Myiter _Tmp = *this;
; 146  : 		++*this;
; 147  : 		return (_Tmp);
; 148  : 		}
; 149  : 
; 150  : 	_Myiter& operator--()
; 151  : 		{	// predecrement
; 152  : 		--(*(_Mybase *)this);
; 153  : 		return (*this);
; 154  : 		}
; 155  : 
; 156  : 	_Myiter operator--(int)
; 157  : 		{	// postdecrement
; 158  : 		_Myiter _Tmp = *this;
; 159  : 		--*this;
; 160  : 		return (_Tmp);
; 161  : 		}
; 162  : 	};
; 163  : 
; 164  : 	// TEMPLATE CLASS _List_const_iterator
; 165  : template<class _Mylist>
; 166  : 	class _List_const_iterator
; 167  : 		: public _List_unchecked_const_iterator<_Mylist, _Iterator_base>
; 168  : 	{	// iterator for nonmutable list
; 169  : public:
; 170  : 	typedef _List_const_iterator<_Mylist> _Myiter;
; 171  : 	typedef _List_unchecked_const_iterator<_Mylist, _Iterator_base> _Mybase;
; 172  : 	typedef bidirectional_iterator_tag iterator_category;
; 173  : 
; 174  : 	typedef typename _Mylist::_Nodeptr _Nodeptr;
; 175  : 	typedef typename _Mylist::value_type value_type;
; 176  : 	typedef typename _Mylist::difference_type difference_type;
; 177  : 	typedef typename _Mylist::const_pointer pointer;
; 178  : 	typedef typename _Mylist::const_reference reference;
; 179  : 
; 180  : 	_List_const_iterator()
; 181  : 		: _Mybase()
; 182  : 		{	// construct with null node pointer
; 183  : 		}
; 184  : 
; 185  : 	_List_const_iterator(_Nodeptr _Pnode, const _Mylist *_Plist)
; 186  : 		: _Mybase(_Pnode, _Plist)
; 187  : 		{	// construct with node pointer _Pnode
; 188  : 		}
; 189  : 
; 190  : 	typedef _List_unchecked_const_iterator<_Mylist> _Unchecked_type;
; 191  : 
; 192  : 	_Myiter& _Rechecked(_Unchecked_type _Right)
; 193  : 		{	// reset from unchecked iterator
; 194  : 		this->_Ptr = _Right._Ptr;
; 195  : 		return (*this);
; 196  : 		}
; 197  : 
; 198  : 	_Unchecked_type _Unchecked() const
; 199  : 		{	// make an unchecked iterator
; 200  : 		return (_Unchecked_type(this->_Ptr, (_Mylist *)this->_Getcont()));
; 201  : 		}
; 202  : 
; 203  : 	reference operator*() const
; 204  : 		{	// return designated value
; 205  :  #if _ITERATOR_DEBUG_LEVEL == 2
; 206  : 		if (this->_Getcont() == 0
; 207  : 			|| this->_Ptr == 0
; 208  : 			|| this->_Ptr == ((_Mylist *)this->_Getcont())->_Myhead)
; 209  : 			{	// report error
; 210  : 			_DEBUG_ERROR("list iterator not dereferencable");
; 211  : 			_SCL_SECURE_OUT_OF_RANGE;
; 212  : 			}
; 213  : 
; 214  :  #elif _ITERATOR_DEBUG_LEVEL == 1
; 215  : 		_SCL_SECURE_VALIDATE(this->_Getcont() != 0 && this->_Ptr != 0);
; 216  : 		_SCL_SECURE_VALIDATE_RANGE(this->_Ptr !=
; 217  : 			((_Mylist *)this->_Getcont())->_Myhead);
; 218  :  #endif /* _ITERATOR_DEBUG_LEVEL */
; 219  : 
; 220  : 		return (_Mylist::_Myval(this->_Ptr));
; 221  : 		}
; 222  : 
; 223  : 	_Myiter& operator++()
; 224  : 		{	// preincrement
; 225  :  #if _ITERATOR_DEBUG_LEVEL == 2
; 226  : 		if (this->_Getcont() == 0
; 227  : 			|| this->_Ptr == 0
; 228  : 			|| this->_Ptr == ((_Mylist *)this->_Getcont())->_Myhead)
; 229  : 			{	// report error
; 230  : 			_DEBUG_ERROR("list iterator not incrementable");
; 231  : 			_SCL_SECURE_OUT_OF_RANGE;
; 232  : 			}
; 233  : 
; 234  :  #elif _ITERATOR_DEBUG_LEVEL == 1
; 235  : 		_SCL_SECURE_VALIDATE(this->_Getcont() != 0 && this->_Ptr != 0);
; 236  : 		_SCL_SECURE_VALIDATE_RANGE(this->_Ptr !=
; 237  : 			((_Mylist *)this->_Getcont())->_Myhead);
; 238  :  #endif /* _ITERATOR_DEBUG_LEVEL */
; 239  : 
; 240  : 		this->_Ptr = _Mylist::_Nextnode(this->_Ptr);

	mov	rcx, QWORD PTR [rax]
	mov	QWORD PTR [rsi+248], rcx
$LN73@mtf_mb:

; 533  : 		return ((_Nodepref)_Pnode->_Next);

	mov	rax, QWORD PTR [rsi]
; File c:\users\nummer\documents\github\olr-3.0\src\xray\xrcore\_sphere.cpp

; 130  : 	L.splice (L.begin(), L, j);

	mov	rdx, QWORD PTR [rax]
; File c:\program files (x86)\microsoft visual studio 12.0\vc\include\list

; 298  : 		return (this->_Ptr == _Right._Ptr);

	cmp	rbx, rax

; 544  : 		}
; 545  : 
; 546  : 	_Nodeptr _Myhead;	// pointer to head node
; 547  : 	size_type _Mysize;	// number of elements
; 548  : 	};
; 549  : 
; 550  : 		// TEMPLATE CLASS _List_alloc
; 551  : template<bool _Al_has_storage,
; 552  : 	class _Alloc_types>
; 553  : 	class _List_alloc
; 554  : 		: public _List_val<typename _Alloc_types::_Val_types>
; 555  : 	{	// base class for list to hold allocator with storage
; 556  : public:
; 557  : 	typename _Alloc_types::_Alnod_type _Alnod;	// allocator object
; 558  : 
; 559  : 	typedef _List_alloc<_Al_has_storage, _Alloc_types> _Myt;
; 560  : 	typedef typename _Alloc_types::_Alloc _Alloc;
; 561  : 	typedef typename _Alloc_types::_Alnod_type _Alty;
; 562  : 	typedef typename _Alloc_types::_Node _Node;
; 563  : 	typedef typename _Alloc_types::_Nodeptr _Nodeptr;
; 564  : 
; 565  :  #if _ITERATOR_DEBUG_LEVEL == 0
; 566  : 	_List_alloc(const _Alloc& _Al = _Alloc())
; 567  : 		: _Alnod(_Al)
; 568  : 		{	// construct head node, allocator from _Al
; 569  : 		this->_Myhead = _Buyheadnode();
; 570  : 		}
; 571  : 
; 572  : 	~_List_alloc() _NOEXCEPT
; 573  : 		{	// destroy head node
; 574  : 		_Freeheadnode(this->_Myhead);
; 575  : 		}
; 576  : 
; 577  : 	void _Change_alloc(const _Alty& _Al)
; 578  : 		{	// replace old allocator
; 579  : 		this->_Alnod = _Al;
; 580  : 		}
; 581  : 
; 582  : 	void _Swap_alloc(_Myt& _Right)
; 583  : 		{	// swap allocators
; 584  : 		_Swap_adl(this->_Alnod, _Right._Alnod);
; 585  : 		}
; 586  : 
; 587  :  #else /* _ITERATOR_DEBUG_LEVEL == 0 */
; 588  : 	_List_alloc(const _Alloc& _Al = _Alloc())
; 589  : 		: _Alnod(_Al)
; 590  : 		{	// construct head node, allocator from _Al
; 591  : 		this->_Myhead = _Buyheadnode();
; 592  : 		_TRY_BEGIN
; 593  : 		_Alloc_proxy();
; 594  : 		_CATCH_ALL
; 595  : 		_Freeheadnode(this->_Myhead);
; 596  : 		_RERAISE;
; 597  : 		_CATCH_END
; 598  : 		}
; 599  : 
; 600  : 	~_List_alloc() _NOEXCEPT
; 601  : 		{	// destroy proxy
; 602  : 		_Freeheadnode(this->_Myhead);
; 603  : 		_Free_proxy();
; 604  : 		}
; 605  : 
; 606  : 	void _Change_alloc(const _Alty& _Al)
; 607  : 		{	// replace old allocator
; 608  : 		_Free_proxy();
; 609  : 		this->_Alnod = _Al;
; 610  : 		_Alloc_proxy();
; 611  : 		}
; 612  : 
; 613  : 	void _Swap_alloc(_Myt& _Right)
; 614  : 		{	// swap allocators
; 615  : 		_Swap_adl(this->_Alnod, _Right._Alnod);
; 616  : 		_Swap_adl(this->_Myproxy, _Right._Myproxy);
; 617  : 		}
; 618  : 
; 619  : 	void _Alloc_proxy()
; 620  : 		{	// construct proxy from _Alnod
; 621  : 		typename _Alty::template rebind<_Container_proxy>::other
; 622  : 			_Alproxy(this->_Alnod);
; 623  : 		this->_Myproxy = _Alproxy.allocate(1);
; 624  : 		_Alproxy.construct(this->_Myproxy, _Container_proxy());
; 625  : 		this->_Myproxy->_Mycont = this;
; 626  : 		}
; 627  : 
; 628  : 	void _Free_proxy()
; 629  : 		{	// destroy proxy
; 630  : 		typename _Alty::template rebind<_Container_proxy>::other
; 631  : 			_Alproxy(this->_Alnod);
; 632  : 		this->_Orphan_all();
; 633  : 		_Alproxy.destroy(this->_Myproxy);
; 634  : 		_Alproxy.deallocate(this->_Myproxy, 1);
; 635  : 		this->_Myproxy = 0;
; 636  : 		}
; 637  :  #endif /* _ITERATOR_DEBUG_LEVEL == 0 */
; 638  : 
; 639  : 	_Nodeptr _Buyheadnode()
; 640  : 		{	// get head node using current allocator
; 641  : 		return (_Buynode0(_Nodeptr(), _Nodeptr()));
; 642  : 		}
; 643  : 
; 644  : 	void _Freeheadnode(_Nodeptr _Pnode)
; 645  : 		{	// free head node using current allocator
; 646  : 		this->_Alnod.destroy(
; 647  : 			_STD addressof(this->_Nextnode(_Pnode)));
; 648  : 		this->_Alnod.destroy(
; 649  : 			_STD addressof(this->_Prevnode(_Pnode)));
; 650  : 		this->_Alnod.deallocate(_Pnode, 1);
; 651  : 		}
; 652  : 
; 653  : 	_Nodeptr _Buynode0(_Nodeptr _Next,
; 654  : 		_Nodeptr _Prev)
; 655  : 		{	// allocate a node and set links
; 656  : 		_Nodeptr _Pnode = this->_Alnod.allocate(1);
; 657  : 
; 658  : 		if (_Next == _Nodeptr())
; 659  : 			{	// point at self
; 660  : 			_Next = _Pnode;
; 661  : 			_Prev = _Pnode;
; 662  : 			}
; 663  : 		_TRY_BEGIN
; 664  : 		this->_Alnod.construct(
; 665  : 			_STD addressof(this->_Nextnode(_Pnode)), _Next);
; 666  : 		this->_Alnod.construct(
; 667  : 			_STD addressof(this->_Prevnode(_Pnode)), _Prev);
; 668  : 		_CATCH_ALL
; 669  : 		this->_Alnod.deallocate(_Pnode, 1);
; 670  : 		_RERAISE;
; 671  : 		_CATCH_END
; 672  : 
; 673  : 		return (_Pnode);
; 674  : 		}
; 675  : 
; 676  : 	_Alty& _Getal()
; 677  : 		{	// get reference to allocator
; 678  : 		return (this->_Alnod);
; 679  : 		}
; 680  : 
; 681  : 	const _Alty& _Getal() const
; 682  : 		{	// get reference to allocator
; 683  : 		return (this->_Alnod);
; 684  : 		}
; 685  : 	};
; 686  : 
; 687  : 		// TEMPLATE CLASS _List_alloc
; 688  : template<class _Alloc_types>
; 689  : 	class _List_alloc<false, _Alloc_types>
; 690  : 		: public _List_val<typename _Alloc_types::_Val_types>
; 691  : 	{	// base class for list to hold allocator with no storage
; 692  : public:
; 693  : 	typedef _List_alloc<false, _Alloc_types> _Myt;
; 694  : 	typedef typename _Alloc_types::_Alloc _Alloc;
; 695  : 	typedef typename _Alloc_types::_Alnod_type _Alty;
; 696  : 	typedef typename _Alloc_types::_Node _Node;
; 697  : 	typedef typename _Alloc_types::_Nodeptr _Nodeptr;
; 698  : 
; 699  :  #if _ITERATOR_DEBUG_LEVEL == 0
; 700  : 	_List_alloc(const _Alloc& = _Alloc())
; 701  : 		{	// construct head node, allocator from _Al
; 702  : 		this->_Myhead = _Buyheadnode();
; 703  : 		}
; 704  : 
; 705  : 	~_List_alloc() _NOEXCEPT
; 706  : 		{	// destroy head node
; 707  : 		_Freeheadnode(this->_Myhead);
; 708  : 		}
; 709  : 
; 710  : 	void _Change_alloc(const _Alty&)
; 711  : 		{	// replace old allocator
; 712  : 		}
; 713  : 
; 714  : 	void _Swap_alloc(_Myt&)
; 715  : 		{	// swap allocators
; 716  : 		}
; 717  : 
; 718  :  #else /* _ITERATOR_DEBUG_LEVEL == 0 */
; 719  : 	_List_alloc(const _Alloc& = _Alloc())
; 720  : 		{	// construct allocators from _Al
; 721  : 		this->_Myhead = _Buyheadnode();
; 722  : 		_TRY_BEGIN
; 723  : 		_Alloc_proxy();
; 724  : 		_CATCH_ALL
; 725  : 		_Freeheadnode(this->_Myhead);
; 726  : 		_RERAISE;
; 727  : 		_CATCH_END
; 728  : 		}
; 729  : 
; 730  : 	~_List_alloc() _NOEXCEPT
; 731  : 		{	// destroy proxy
; 732  : 		_Freeheadnode(this->_Myhead);
; 733  : 		_Free_proxy();
; 734  : 		}
; 735  : 
; 736  : 	void _Change_alloc(const _Alty&)
; 737  : 		{	// replace old allocator
; 738  : 		}
; 739  : 
; 740  : 	void _Swap_alloc(_Myt& _Right)
; 741  : 		{	// swap allocators
; 742  : 		_Swap_adl(this->_Myproxy, _Right._Myproxy);
; 743  : 		}
; 744  : 
; 745  : 	void _Alloc_proxy()
; 746  : 		{	// construct proxy from _Alnod
; 747  : 		typename _Alty::template rebind<_Container_proxy>::other
; 748  : 			_Alproxy;
; 749  : 		this->_Myproxy = _Alproxy.allocate(1);
; 750  : 		_Alproxy.construct(this->_Myproxy, _Container_proxy());
; 751  : 		this->_Myproxy->_Mycont = this;
; 752  : 		}
; 753  : 
; 754  : 	void _Free_proxy()
; 755  : 		{	// destroy proxy
; 756  : 		typename _Alty::template rebind<_Container_proxy>::other
; 757  : 			_Alproxy;
; 758  : 		this->_Orphan_all();
; 759  : 		_Alproxy.destroy(this->_Myproxy);
; 760  : 		_Alproxy.deallocate(this->_Myproxy, 1);
; 761  : 		this->_Myproxy = 0;
; 762  : 		}
; 763  :  #endif /* _ITERATOR_DEBUG_LEVEL == 0 */
; 764  : 
; 765  : 	_Nodeptr _Buyheadnode()
; 766  : 		{	// get head node using current allocator
; 767  : 		return (_Buynode0(_Nodeptr(), _Nodeptr()));
; 768  : 		}
; 769  : 
; 770  : 	void _Freeheadnode(_Nodeptr _Pnode)
; 771  : 		{	// free head node using current allocator
; 772  : 		this->_Getal().destroy(
; 773  : 			_STD addressof(this->_Nextnode(_Pnode)));
; 774  : 		this->_Getal().destroy(
; 775  : 			_STD addressof(this->_Prevnode(_Pnode)));
; 776  : 		this->_Getal().deallocate(_Pnode, 1);
; 777  : 		}
; 778  : 
; 779  : 	_Nodeptr _Buynode0(_Nodeptr _Next,
; 780  : 		_Nodeptr _Prev)
; 781  : 		{	// allocate a node and set links
; 782  : 		_Nodeptr _Pnode = this->_Getal().allocate(1);
; 783  : 
; 784  : 		if (_Next == _Nodeptr())
; 785  : 			{	// point at self
; 786  : 			_Next = _Pnode;
; 787  : 			_Prev = _Pnode;
; 788  : 			}
; 789  : 		_TRY_BEGIN
; 790  : 		this->_Getal().construct(
; 791  : 			_STD addressof(this->_Nextnode(_Pnode)), _Next);
; 792  : 		this->_Getal().construct(
; 793  : 			_STD addressof(this->_Prevnode(_Pnode)), _Prev);
; 794  : 		_CATCH_ALL
; 795  : 		this->_Getal().deallocate(_Pnode, 1);
; 796  : 		_RERAISE;
; 797  : 		_CATCH_END
; 798  : 
; 799  : 		return (_Pnode);
; 800  : 		}
; 801  : 
; 802  : 	_Alty _Getal() const
; 803  : 		{	// get reference to allocator
; 804  : 		return (_Alty());
; 805  : 		}
; 806  : 	};
; 807  : 
; 808  : 		// TEMPLATE CLASS _List_buy
; 809  : template<class _Ty,
; 810  : 	class _Alloc>
; 811  : 	class _List_buy
; 812  : 		: public _List_alloc<!is_empty<_Alloc>::value,
; 813  : 			_List_base_types<_Ty, _Alloc> >
; 814  : 	{	// base class for list to hold buynode/freenode functions
; 815  : public:
; 816  : 	typedef _List_alloc<!is_empty<_Alloc>::value,
; 817  : 		_List_base_types<_Ty, _Alloc> > _Mybase;
; 818  : 	typedef typename _Mybase::_Alty _Alty;
; 819  : 	typedef typename _Mybase::_Nodeptr _Nodeptr;
; 820  : 
; 821  : 	_List_buy(const _Alloc& _Al = _Alloc())
; 822  : 		: _Mybase(_Al)
; 823  : 		{	// construct from allocator
; 824  : 		}
; 825  : 
; 826  : 	template<class... _Valty>
; 827  : 		_Nodeptr _Buynode(_Nodeptr _Next, _Nodeptr _Prev,
; 828  : 			_Valty&&... _Val)
; 829  : 		{	// allocate a node and set links and value
; 830  : 		_Nodeptr _Pnode = this->_Buynode0(_Next, _Prev);
; 831  : 
; 832  : 		_TRY_BEGIN
; 833  : 		this->_Getal().construct(
; 834  : 			_STD addressof(this->_Myval(_Pnode)),
; 835  : 				_STD forward<_Valty>(_Val)...);
; 836  : 		_CATCH_ALL
; 837  : 		this->_Getal().deallocate(_Pnode, 1);
; 838  : 		_RERAISE;
; 839  : 		_CATCH_END
; 840  : 
; 841  : 		return (_Pnode);
; 842  : 		}
; 843  : 
; 844  : 
; 845  : 	void _Freenode(_Nodeptr _Pnode)
; 846  : 		{	// give node back
; 847  : 		this->_Getal().destroy(
; 848  : 			_STD addressof(this->_Nextnode(_Pnode)));
; 849  : 		this->_Getal().destroy(
; 850  : 			_STD addressof(this->_Prevnode(_Pnode)));
; 851  : 		this->_Getal().destroy(
; 852  : 			_STD addressof(this->_Myval(_Pnode)));
; 853  : 		this->_Getal().deallocate(_Pnode, 1);
; 854  : 		}
; 855  : 	};
; 856  : 
; 857  : 		// TEMPLATE CLASS list
; 858  : template<class _Ty,
; 859  : 	class _Alloc = allocator<_Ty> >
; 860  : 	class list
; 861  : 		: public _List_buy<_Ty, _Alloc>
; 862  : 	{	// bidirectional linked list
; 863  : public:
; 864  : 	typedef list<_Ty, _Alloc> _Myt;
; 865  : 	typedef _List_buy<_Ty, _Alloc> _Mybase;
; 866  : 	typedef typename _Mybase::_Node _Node;
; 867  : 	typedef typename _Mybase::_Nodeptr _Nodeptr;
; 868  : 	typedef typename _Mybase::_Alty _Alty;
; 869  : 
; 870  : 	typedef _Alloc allocator_type;
; 871  : 	typedef typename _Mybase::size_type size_type;
; 872  : 	typedef typename _Mybase::difference_type difference_type;
; 873  : 	typedef typename _Mybase::pointer pointer;
; 874  : 	typedef typename _Mybase::const_pointer const_pointer;
; 875  : 	typedef typename _Mybase::reference reference;
; 876  : 	typedef typename _Mybase::const_reference const_reference;
; 877  : 	typedef typename _Mybase::value_type value_type;
; 878  : 
; 879  : 	typedef typename _Mybase::const_iterator const_iterator;
; 880  : 	typedef typename _Mybase::iterator iterator;
; 881  : 	typedef typename _Mybase::_Unchecked_const_iterator
; 882  : 		_Unchecked_const_iterator;
; 883  : 	typedef typename _Mybase::_Unchecked_iterator
; 884  : 		_Unchecked_iterator;
; 885  : 
; 886  : 	typedef _STD reverse_iterator<iterator> reverse_iterator;
; 887  : 	typedef _STD reverse_iterator<const_iterator> const_reverse_iterator;
; 888  : 
; 889  : 	list()
; 890  : 		: _Mybase()
; 891  : 		{	// construct empty list
; 892  : 		}
; 893  : 
; 894  : 	explicit list(const _Alloc& _Al)
; 895  : 		: _Mybase(_Al)
; 896  : 		{	// construct empty list, allocator
; 897  : 		}
; 898  : 
; 899  : 	explicit list(size_type _Count)
; 900  : 		: _Mybase()
; 901  : 		{	// construct list from _Count * _Ty()
; 902  : 		resize(_Count);
; 903  : 		}
; 904  : 
; 905  : 	list(size_type _Count, const _Ty& _Val)
; 906  : 		: _Mybase()
; 907  : 		{	// construct list from _Count * _Val
; 908  : 		_Construct_n(_Count, _Val);
; 909  : 		}
; 910  : 
; 911  : 	list(size_type _Count, const _Ty& _Val, const _Alloc& _Al)
; 912  : 		: _Mybase(_Al)
; 913  : 		{	// construct list from _Count * _Val, allocator
; 914  : 		_Construct_n(_Count, _Val);
; 915  : 		}
; 916  : 
; 917  : 	list(const _Myt& _Right)
; 918  : 
; 919  : 		: _Mybase(_Right._Getal().select_on_container_copy_construction())
; 920  : 
; 921  : 
; 922  : 		{	// construct list by copying _Right
; 923  : 		_TRY_BEGIN
; 924  : 		insert(begin(), _Right.begin(), _Right.end());
; 925  : 		_CATCH_ALL
; 926  : 		_Tidy();
; 927  : 		_RERAISE;
; 928  : 		_CATCH_END
; 929  : 		}
; 930  : 
; 931  : 	list(const _Myt& _Right, const _Alloc& _Al)
; 932  : 		: _Mybase(_Al)
; 933  : 		{	// construct list by copying _Right, allocator
; 934  : 		_TRY_BEGIN
; 935  : 		insert(begin(), _Right.begin(), _Right.end());
; 936  : 		_CATCH_ALL
; 937  : 		_Tidy();
; 938  : 		_RERAISE;
; 939  : 		_CATCH_END
; 940  : 		}
; 941  : 
; 942  : 	template<class _Iter,
; 943  : 		class = typename enable_if<_Is_iterator<_Iter>::value,
; 944  : 			void>::type>
; 945  : 		list(_Iter _First, _Iter _Last)
; 946  : 		: _Mybase()
; 947  : 		{	// construct list from [_First, _Last)
; 948  : 		_Construct(_First, _Last);
; 949  : 		}
; 950  : 
; 951  : 	template<class _Iter,
; 952  : 		class = typename enable_if<_Is_iterator<_Iter>::value,
; 953  : 			void>::type>
; 954  : 		list(_Iter _First, _Iter _Last, const _Alloc& _Al)
; 955  : 		: _Mybase(_Al)
; 956  : 		{	// construct list, allocator from [_First, _Last)
; 957  : 		_Construct(_First, _Last);
; 958  : 		}
; 959  : 
; 960  : 	template<class _Iter>
; 961  : 		void _Construct(_Iter _First, _Iter _Last)
; 962  : 		{	// construct list from [_First, _Last), input iterators
; 963  : 		_TRY_BEGIN
; 964  : 		insert(begin(), _First, _Last);
; 965  : 		_CATCH_ALL
; 966  : 		_Tidy();
; 967  : 		_RERAISE;
; 968  : 		_CATCH_END
; 969  : 		}
; 970  : 
; 971  : 	void _Construct_n(size_type _Count,
; 972  : 		const _Ty& _Val)
; 973  : 		{	// construct from _Count * _Val
; 974  : 		_TRY_BEGIN
; 975  : 		_Insert_n(_Unchecked_begin(), _Count, _Val);
; 976  : 		_CATCH_ALL
; 977  : 		_Tidy();
; 978  : 		_RERAISE;
; 979  : 		_CATCH_END
; 980  : 		}
; 981  : 
; 982  : 	list(_Myt&& _Right)
; 983  : 		: _Mybase(_Right._Getal())
; 984  : 		{	// construct list by moving _Right
; 985  : 		_Assign_rv(_STD forward<_Myt>(_Right));
; 986  : 		}
; 987  : 
; 988  : 	list(_Myt&& _Right, const _Alloc& _Al)
; 989  : 		: _Mybase(_Al)
; 990  : 		{	// construct list by moving _Right, allocator
; 991  : 		_Assign_rv(_STD forward<_Myt>(_Right));
; 992  : 		}
; 993  : 
; 994  : 	_Myt& operator=(_Myt&& _Right)
; 995  : 		{	// assign by moving _Right
; 996  : 		if (this != &_Right)
; 997  : 			{	// different, assign it
; 998  : 			clear();
; 999  : 
; 1000 : 			if (_Alty::propagate_on_container_move_assignment::value
; 1001 : 				&& this->_Getal() != _Right._Getal())
; 1002 : 				this->_Change_alloc(_Right._Getal());
; 1003 : 
; 1004 : 			_Assign_rv(_STD forward<_Myt>(_Right));
; 1005 : 			}
; 1006 : 		return (*this);
; 1007 : 		}
; 1008 : 
; 1009 : 	void _Assign_rv(_Myt&& _Right)
; 1010 : 		{	// swap with empty *this, same allocator
; 1011 : 		this->_Swap_all(_Right);
; 1012 : 		_Swap_adl(this->_Myhead, _Right._Myhead);
; 1013 : 		_STD swap(this->_Mysize, _Right._Mysize);
; 1014 : 		}
; 1015 : 
; 1016 : 	void push_front(_Ty&& _Val)
; 1017 : 		{	// insert element at beginning
; 1018 : 		_Insert(_Unchecked_begin(), _STD forward<_Ty>(_Val));
; 1019 : 		}
; 1020 : 
; 1021 : 	void push_back(_Ty&& _Val)
; 1022 : 		{	// insert element at end
; 1023 : 		_Insert(_Unchecked_end(), _STD forward<_Ty>(_Val));
; 1024 : 		}
; 1025 : 
; 1026 : 	iterator insert(const_iterator _Where, _Ty&& _Val)
; 1027 : 		{	// insert _Val at _Where
; 1028 : 		return (emplace(_Where, _STD forward<_Ty>(_Val)));
; 1029 : 		}
; 1030 : 
; 1031 : 	template<class... _Valty>
; 1032 : 		void emplace_front(_Valty&&... _Val)
; 1033 : 		{	// insert element at beginning
; 1034 : 		_Insert(_Unchecked_begin(), _STD forward<_Valty>(_Val)...);
; 1035 : 		}
; 1036 : 
; 1037 : 	template<class... _Valty>
; 1038 : 		void emplace_back(_Valty&&... _Val)
; 1039 : 		{	// insert element at end
; 1040 : 		_Insert(_Unchecked_end(), _STD forward<_Valty>(_Val)...);
; 1041 : 		}
; 1042 : 
; 1043 : 	template<class... _Valty>
; 1044 : 		iterator emplace(const_iterator _Where, _Valty&&... _Val)
; 1045 : 		{	// insert element at _Where
; 1046 :  #if _ITERATOR_DEBUG_LEVEL == 2
; 1047 : 		if (_Where._Getcont() != this)
; 1048 : 			_DEBUG_ERROR("list emplace iterator outside range");
; 1049 :  #endif /* _ITERATOR_DEBUG_LEVEL == 2 */
; 1050 : 
; 1051 : 		_Insert(_Where._Unchecked(), _STD forward<_Valty>(_Val)...);
; 1052 : 		return (_Make_iter(--_Where));
; 1053 : 		}
; 1054 : 
; 1055 : 	template<class... _Valty>
; 1056 : 		void _Insert(_Unchecked_const_iterator _Where,
; 1057 : 		_Valty&&... _Val)
; 1058 : 		{	// insert element at _Where
; 1059 : 		_Nodeptr _Pnode = _Where._Mynode();
; 1060 : 		_Nodeptr _Newnode =
; 1061 : 			this->_Buynode(_Pnode, this->_Prevnode(_Pnode),
; 1062 : 				_STD forward<_Valty>(_Val)...);
; 1063 : 		_Incsize(1);
; 1064 : 		this->_Prevnode(_Pnode) = _Newnode;
; 1065 : 		this->_Nextnode(this->_Prevnode(_Newnode)) = _Newnode;
; 1066 : 		}
; 1067 : 
; 1068 : 
; 1069 : 	list(_XSTD initializer_list<_Ty> _Ilist,
; 1070 : 		const _Alloc& _Al = allocator_type())
; 1071 : 		: _Mybase(_Al)
; 1072 : 		{	// construct from initializer_list
; 1073 : 		insert(begin(), _Ilist.begin(), _Ilist.end());
; 1074 : 		}
; 1075 : 
; 1076 : 	_Myt& operator=(_XSTD initializer_list<_Ty> _Ilist)
; 1077 : 		{	// assign initializer_list
; 1078 : 		assign(_Ilist.begin(), _Ilist.end());
; 1079 : 		return (*this);
; 1080 : 		}
; 1081 : 
; 1082 : 	void assign(_XSTD initializer_list<_Ty> _Ilist)
; 1083 : 		{	// assign initializer_list
; 1084 : 		assign(_Ilist.begin(), _Ilist.end());
; 1085 : 		}
; 1086 : 
; 1087 : 	iterator insert(const_iterator _Where,
; 1088 : 		_XSTD initializer_list<_Ty> _Ilist)
; 1089 : 		{	// insert initializer_list
; 1090 : 		return (insert(_Where, _Ilist.begin(), _Ilist.end()));
; 1091 : 		}
; 1092 : 
; 1093 : 	~list() _NOEXCEPT
; 1094 : 		{	// destroy the object
; 1095 : 		_Tidy();
; 1096 : 		}
; 1097 : 
; 1098 : 	_Myt& operator=(const _Myt& _Right)
; 1099 : 		{	// assign _Right
; 1100 : 		if (this != &_Right)
; 1101 : 			{	// different, assign it
; 1102 : 			if (this->_Getal() != _Right._Getal()
; 1103 : 				&& _Alty::propagate_on_container_copy_assignment::value)
; 1104 : 				{	// change allocator before copying
; 1105 : 				clear();
; 1106 : 				this->_Change_alloc(_Right._Getal());
; 1107 : 				}
; 1108 : 
; 1109 : 			assign(_Right.begin(), _Right.end());
; 1110 : 			}
; 1111 : 		return (*this);
; 1112 : 		}
; 1113 : 
; 1114 : 	iterator begin() _NOEXCEPT
; 1115 : 		{	// return iterator for beginning of mutable sequence
; 1116 : 		return (iterator(this->_Nextnode(this->_Myhead), this));
; 1117 : 		}
; 1118 : 
; 1119 : 	const_iterator begin() const _NOEXCEPT
; 1120 : 		{	// return iterator for beginning of nonmutable sequence
; 1121 : 		return (const_iterator(this->_Nextnode(this->_Myhead), this));
; 1122 : 		}
; 1123 : 
; 1124 : 	iterator end() _NOEXCEPT
; 1125 : 		{	// return iterator for end of mutable sequence
; 1126 : 		return (iterator(this->_Myhead, this));
; 1127 : 		}
; 1128 : 
; 1129 : 	const_iterator end() const _NOEXCEPT
; 1130 : 		{	// return iterator for end of nonmutable sequence
; 1131 : 		return (const_iterator(this->_Myhead, this));
; 1132 : 		}
; 1133 : 
; 1134 : 	_Unchecked_iterator _Unchecked_begin()
; 1135 : 		{	// return iterator for beginning of mutable sequence
; 1136 : 		return (_Unchecked_iterator(this->_Nextnode(this->_Myhead),
; 1137 : 			this));
; 1138 : 		}
; 1139 : 
; 1140 : 	_Unchecked_const_iterator _Unchecked_begin() const
; 1141 : 		{	// return iterator for beginning of nonmutable sequence
; 1142 : 		return (_Unchecked_const_iterator(this->_Nextnode(this->_Myhead),
; 1143 : 			this));
; 1144 : 		}
; 1145 : 
; 1146 : 	_Unchecked_iterator _Unchecked_end()
; 1147 : 		{	// return unchecked iterator for end of mutable sequence
; 1148 : 		return (_Unchecked_iterator(this->_Myhead, this));
; 1149 : 		}
; 1150 : 
; 1151 : 	_Unchecked_const_iterator _Unchecked_end() const
; 1152 : 		{	// return unchecked iterator for end of nonmutable sequence
; 1153 : 		return (_Unchecked_const_iterator(this->_Myhead, this));
; 1154 : 		}
; 1155 : 
; 1156 : 	iterator _Make_iter(const_iterator _Where) const _NOEXCEPT
; 1157 : 		{	// make iterator from const_iterator
; 1158 : 		return (iterator(_Where._Ptr, this));
; 1159 : 		}
; 1160 : 
; 1161 : 	iterator _Make_iter(_Unchecked_const_iterator _Where) const
; 1162 : 		{	// make iterator from _Unchecked_const_iterator
; 1163 : 		return (iterator(_Where._Ptr, this));
; 1164 : 		}
; 1165 : 
; 1166 : 	reverse_iterator rbegin() _NOEXCEPT
; 1167 : 		{	// return iterator for beginning of reversed mutable sequence
; 1168 : 		return (reverse_iterator(end()));
; 1169 : 		}
; 1170 : 
; 1171 : 	const_reverse_iterator rbegin() const _NOEXCEPT
; 1172 : 		{	// return iterator for beginning of reversed nonmutable sequence
; 1173 : 		return (const_reverse_iterator(end()));
; 1174 : 		}
; 1175 : 
; 1176 : 	reverse_iterator rend() _NOEXCEPT
; 1177 : 		{	// return iterator for end of reversed mutable sequence
; 1178 : 		return (reverse_iterator(begin()));
; 1179 : 		}
; 1180 : 
; 1181 : 	const_reverse_iterator rend() const _NOEXCEPT
; 1182 : 		{	// return iterator for end of reversed nonmutable sequence
; 1183 : 		return (const_reverse_iterator(begin()));
; 1184 : 		}
; 1185 : 
; 1186 : 	const_iterator cbegin() const _NOEXCEPT
; 1187 : 		{	// return iterator for beginning of nonmutable sequence
; 1188 : 		return (((const _Myt *)this)->begin());
; 1189 : 		}
; 1190 : 
; 1191 : 	const_iterator cend() const _NOEXCEPT
; 1192 : 		{	// return iterator for end of nonmutable sequence
; 1193 : 		return (((const _Myt *)this)->end());
; 1194 : 		}
; 1195 : 
; 1196 : 	const_reverse_iterator crbegin() const _NOEXCEPT
; 1197 : 		{	// return iterator for beginning of reversed nonmutable sequence
; 1198 : 		return (((const _Myt *)this)->rbegin());
; 1199 : 		}
; 1200 : 
; 1201 : 	const_reverse_iterator crend() const _NOEXCEPT
; 1202 : 		{	// return iterator for end of reversed nonmutable sequence
; 1203 : 		return (((const _Myt *)this)->rend());
; 1204 : 		}
; 1205 : 
; 1206 : 	void resize(size_type _Newsize)
; 1207 : 		{	// determine new length, padding with _Ty() elements as needed
; 1208 : 		if (this->_Mysize < _Newsize)
; 1209 : 			{	// pad to make larger
; 1210 : 			size_type _Count = 0;
; 1211 : 			_TRY_BEGIN
; 1212 : 			for (; this->_Mysize < _Newsize; ++_Count)
; 1213 : 				_Insert(_Unchecked_end());
; 1214 : 			_CATCH_ALL
; 1215 : 			for (; 0 < _Count; --_Count)
; 1216 : 				pop_back();	// undo inserts
; 1217 : 			_RERAISE;
; 1218 : 			_CATCH_END
; 1219 : 			}
; 1220 : 		else
; 1221 : 			while (_Newsize < this->_Mysize)
; 1222 : 				pop_back();
; 1223 : 		}
; 1224 : 
; 1225 : 	void resize(size_type _Newsize, const _Ty& _Val)
; 1226 : 		{	// determine new length, padding with _Val elements as needed
; 1227 : 		if (this->_Mysize < _Newsize)
; 1228 : 			_Insert_n(_Unchecked_end(), _Newsize - this->_Mysize, _Val);
; 1229 : 		else
; 1230 : 			while (_Newsize < this->_Mysize)
; 1231 : 				pop_back();
; 1232 : 		}
; 1233 : 
; 1234 : 	size_type size() const _NOEXCEPT
; 1235 : 		{	// return length of sequence
; 1236 : 		return (this->_Mysize);
; 1237 : 		}
; 1238 : 
; 1239 : 	size_type max_size() const _NOEXCEPT
; 1240 : 		{	// return maximum possible length of sequence
; 1241 : 		return (this->_Getal().max_size());
; 1242 : 		}
; 1243 : 
; 1244 : 	bool empty() const _NOEXCEPT
; 1245 : 		{	// test if sequence is empty
; 1246 : 		return (this->_Mysize == 0);
; 1247 : 		}
; 1248 : 
; 1249 : 	allocator_type get_allocator() const _NOEXCEPT
; 1250 : 		{	// return allocator object for values
; 1251 : 		return (this->_Getal());
; 1252 : 		}
; 1253 : 
; 1254 : 	reference front()
; 1255 : 		{	// return first element of mutable sequence
; 1256 : 		return (*begin());
; 1257 : 		}
; 1258 : 
; 1259 : 	const_reference front() const
; 1260 : 		{	// return first element of nonmutable sequence
; 1261 : 		return (*begin());
; 1262 : 		}
; 1263 : 
; 1264 : 	reference back()
; 1265 : 		{	// return last element of mutable sequence
; 1266 : 		return (*(--end()));
; 1267 : 		}
; 1268 : 
; 1269 : 	const_reference back() const
; 1270 : 		{	// return last element of nonmutable sequence
; 1271 : 		return (*(--end()));
; 1272 : 		}
; 1273 : 
; 1274 : 	void push_front(const _Ty& _Val)
; 1275 : 		{	// insert element at beginning
; 1276 : 		_Insert(_Unchecked_begin(), _Val);
; 1277 : 		}
; 1278 : 
; 1279 : 	void pop_front()
; 1280 : 		{	// erase element at beginning
; 1281 : 		erase(begin());
; 1282 : 		}
; 1283 : 
; 1284 : 	void push_back(const _Ty& _Val)
; 1285 : 		{	// insert element at end
; 1286 : 		_Insert(_Unchecked_end(), _Val);
; 1287 : 		}
; 1288 : 
; 1289 : 	void pop_back()
; 1290 : 		{	// erase element at end
; 1291 : 		erase(--end());
; 1292 : 		}
; 1293 : 
; 1294 : 	template<class _Iter>
; 1295 : 		typename enable_if<_Is_iterator<_Iter>::value,
; 1296 : 			void>::type
; 1297 : 		assign(_Iter _First, _Iter _Last)
; 1298 : 		{	// assign [_First, _Last), input iterators
; 1299 : 		iterator _Old = begin();
; 1300 : 		_TRY_BEGIN
; 1301 : 		for (; _First != _Last && _Old != end(); ++_First, ++_Old)
; 1302 : 			_Reusenode(_Old, *_First);
; 1303 : 		for (; _First != _Last; ++_First)
; 1304 : 			_Insert(_Unchecked_end(), *_First);
; 1305 : 		_CATCH_ALL
; 1306 : 		clear();
; 1307 : 		_RERAISE;
; 1308 : 		_CATCH_END
; 1309 : 		erase(_Old, end());
; 1310 : 		}
; 1311 : 
; 1312 : 	template<class _TArg>
; 1313 : 		void _Reusenode(iterator _Where, _TArg&& _Arg)
; 1314 : 		{	// destroy the element at _Where and reconstruct from _Arg
; 1315 : 		_TRY_BEGIN
; 1316 : 		this->_Getal().destroy(
; 1317 : 			_STD addressof(this->_Myval(_Where._Ptr)));
; 1318 : 		this->_Getal().construct(
; 1319 : 			_STD addressof(this->_Myval(_Where._Ptr)),
; 1320 : 			_STD forward<_TArg>(_Arg));
; 1321 : 		_CATCH_ALL
; 1322 : 		_Unlinknode(_Where);
; 1323 : 		this->_Getal().destroy(
; 1324 : 			_STD addressof(this->_Nextnode(_Where._Ptr)));
; 1325 : 		this->_Getal().destroy(
; 1326 : 			_STD addressof(this->_Prevnode(_Where._Ptr)));
; 1327 : 		this->_Getal().deallocate(_Where._Ptr, 1);
; 1328 : 		_RERAISE;
; 1329 : 		_CATCH_END
; 1330 : 		}
; 1331 : 
; 1332 : 	void assign(size_type _Count, const _Ty& _Val)
; 1333 : 		{	// assign _Count * _Val
; 1334 : 		clear();
; 1335 : 		_Insert_n(_Unchecked_begin(), _Count, _Val);
; 1336 : 		}
; 1337 : 
; 1338 : 	iterator insert(const_iterator _Where, const _Ty& _Val)
; 1339 : 		{	// insert _Val at _Where
; 1340 :  #if _ITERATOR_DEBUG_LEVEL == 2
; 1341 : 		if (_Where._Getcont() != this)
; 1342 : 			_DEBUG_ERROR("list insert iterator outside range");
; 1343 :  #endif /* _ITERATOR_DEBUG_LEVEL == 2 */
; 1344 : 
; 1345 : 		_Insert(_Where._Unchecked(), _Val);
; 1346 : 		return (_Make_iter(--_Where));
; 1347 : 		}
; 1348 : 
; 1349 : 	iterator insert(const_iterator _Where, size_type _Count, const _Ty& _Val)
; 1350 : 		{	// insert _Count * _Val at _Where
; 1351 :  #if _ITERATOR_DEBUG_LEVEL == 2
; 1352 : 		if (_Where._Getcont() != this)
; 1353 : 			_DEBUG_ERROR("list insert iterator outside range");
; 1354 :  #endif /* _ITERATOR_DEBUG_LEVEL == 2 */
; 1355 : 
; 1356 : 		iterator _Prev = _Make_iter(_Where);
; 1357 : 		if (_Prev == begin())
; 1358 : 			{	// insert sequence at beginning
; 1359 : 			_Insert_n(_Where._Unchecked(), _Count, _Val);
; 1360 : 			return (begin());
; 1361 : 			}
; 1362 : 		else
; 1363 : 			{	// insert sequence not at beginning
; 1364 : 			--_Prev;
; 1365 : 			_Insert_n(_Where._Unchecked(), _Count, _Val);
; 1366 : 			return (++_Prev);
; 1367 : 			}
; 1368 : 		}
; 1369 : 
; 1370 : 	template<class _Iter>
; 1371 : 		typename enable_if<_Is_iterator<_Iter>::value,
; 1372 : 			iterator>::type
; 1373 : 		insert(const_iterator _Where, _Iter _First, _Iter _Last)
; 1374 : 		{	// insert [_First, _Last) at _Where
; 1375 :  #if _ITERATOR_DEBUG_LEVEL == 2
; 1376 : 		if (_Where._Getcont() != this)
; 1377 : 			_DEBUG_ERROR("list insert iterator outside range");
; 1378 :  #endif /* _ITERATOR_DEBUG_LEVEL == 2 */
; 1379 : 
; 1380 : 		iterator _Prev = _Make_iter(_Where);
; 1381 : 		if (_Prev == begin())
; 1382 : 			{	// insert sequence at beginning
; 1383 : 			_Insert_range(_Where._Unchecked(), _First, _Last,
; 1384 : 				_Iter_cat(_First));
; 1385 : 			return (begin());
; 1386 : 			}
; 1387 : 		else
; 1388 : 			{	// insert sequence not at beginning
; 1389 : 			--_Prev;
; 1390 : 			_Insert_range(_Where._Unchecked(), _First, _Last,
; 1391 : 				_Iter_cat(_First));
; 1392 : 			return (++_Prev);
; 1393 : 			}
; 1394 : 		}
; 1395 : 
; 1396 : 	template<class _Iter>
; 1397 : 		void _Insert_range(_Unchecked_const_iterator _Where,
; 1398 : 			_Iter _First, _Iter _Last, input_iterator_tag)
; 1399 : 		{	// insert [_First, _Last) at _Where, input iterators
; 1400 : 		size_type _Num = 0;
; 1401 : 
; 1402 : 		_TRY_BEGIN
; 1403 : 		for (; _First != _Last; ++_First, ++_Num)
; 1404 : 			_Insert(_Where, *_First);
; 1405 : 		_CATCH_ALL
; 1406 : 		for (; 0 < _Num; --_Num)
; 1407 : 			{	// undo inserts
; 1408 : 			_Unchecked_const_iterator _Before = _Where;
; 1409 : 			_Unchecked_erase(--_Before);
; 1410 : 			}
; 1411 : 		_RERAISE;
; 1412 : 		_CATCH_END
; 1413 : 		}
; 1414 : 
; 1415 : 	template<class _Iter>
; 1416 : 		void _Insert_range(_Unchecked_const_iterator _Where,
; 1417 : 			_Iter _First, _Iter _Last, forward_iterator_tag)
; 1418 : 		{	// insert [_First, _Last) at _Where, forward iterators
; 1419 : 		_DEBUG_RANGE(_First, _Last);
; 1420 : 		_Iter _Next = _First;
; 1421 : 
; 1422 : 		_TRY_BEGIN
; 1423 : 		for (; _First != _Last; ++_First)
; 1424 : 			_Insert(_Where, *_First);
; 1425 : 		_CATCH_ALL
; 1426 : 		for (; _Next != _First; ++_Next)
; 1427 : 			{	// undo inserts
; 1428 : 			_Unchecked_const_iterator _Before = _Where;
; 1429 : 			_Unchecked_erase(--_Before);
; 1430 : 			}
; 1431 : 		_RERAISE;
; 1432 : 		_CATCH_END
; 1433 : 		}
; 1434 : 
; 1435 : 	_Nodeptr _Unlinknode(const_iterator _Where)
; 1436 : 		{	// unlink node at _Where from the list
; 1437 :  #if _ITERATOR_DEBUG_LEVEL == 2
; 1438 : 		if (_Where._Getcont() != this || _Where._Ptr == this->_Myhead)
; 1439 : 			_DEBUG_ERROR("list erase iterator outside range");
; 1440 : 		_Nodeptr _Pnode = (_Where)._Mynode();
; 1441 : 		_Orphan_ptr(*this, _Pnode);
; 1442 : 
; 1443 :  #else /* _ITERATOR_DEBUG_LEVEL == 2 */
; 1444 : 		_Nodeptr _Pnode = (_Where)._Mynode();
; 1445 :  #endif /* _ITERATOR_DEBUG_LEVEL == 2 */
; 1446 : 
; 1447 : 		this->_Nextnode(this->_Prevnode(_Pnode)) =
; 1448 : 			this->_Nextnode(_Pnode);
; 1449 : 		this->_Prevnode(this->_Nextnode(_Pnode)) =
; 1450 : 			this->_Prevnode(_Pnode);
; 1451 : 
; 1452 : 		--this->_Mysize;
; 1453 : 		return (_Pnode);
; 1454 : 		}
; 1455 : 
; 1456 : 	iterator erase(const_iterator _Where)
; 1457 : 		{	// erase element at _Where
; 1458 : 		_Nodeptr _Pnode = _Unlinknode(_Where++);
; 1459 : 		this->_Freenode(_Pnode);
; 1460 : 		return (_Make_iter(_Where));
; 1461 : 		}
; 1462 : 
; 1463 : 	void _Unchecked_erase(_Unchecked_const_iterator _Where)
; 1464 : 		{	// erase element at _Where
; 1465 : 		_Nodeptr _Pnode = _Where._Mynode();
; 1466 : 
; 1467 : 		this->_Nextnode(this->_Prevnode(_Pnode)) =
; 1468 : 			this->_Nextnode(_Pnode);
; 1469 : 		this->_Prevnode(this->_Nextnode(_Pnode)) =
; 1470 : 			this->_Prevnode(_Pnode);
; 1471 : 		this->_Freenode(_Pnode);
; 1472 : 		--this->_Mysize;
; 1473 : 		}
; 1474 : 
; 1475 : 	iterator erase(const_iterator _First, const_iterator _Last)
; 1476 : 		{	// erase [_First, _Last)
; 1477 : 		if (_First == begin() && _Last == end())
; 1478 : 			{	// erase all and return fresh iterator
; 1479 : 			clear();
; 1480 : 			return (end());
; 1481 : 			}
; 1482 : 		else
; 1483 : 			{	// erase subrange
; 1484 : 			while (_First != _Last)
; 1485 : 				_First = erase(_First);
; 1486 : 			return (_Make_iter(_Last));
; 1487 : 			}
; 1488 : 		}
; 1489 : 
; 1490 : 	void clear() _NOEXCEPT
; 1491 : 		{	// erase all
; 1492 :  #if _ITERATOR_DEBUG_LEVEL == 2
; 1493 : 		this->_Orphan_ptr(*this, nullptr);
; 1494 :  #endif /* _ITERATOR_DEBUG_LEVEL == 2 */
; 1495 : 
; 1496 : 		_Nodeptr _Pnode = this->_Nextnode(this->_Myhead);
; 1497 : 		this->_Nextnode(this->_Myhead) = this->_Myhead;
; 1498 : 		this->_Prevnode(this->_Myhead) = this->_Myhead;
; 1499 : 		this->_Mysize = 0;
; 1500 : 
; 1501 : 		for (_Nodeptr _Pnext; _Pnode != this->_Myhead; _Pnode = _Pnext)
; 1502 : 			{	// delete an element
; 1503 : 			_Pnext = this->_Nextnode(_Pnode);
; 1504 : 			this->_Freenode(_Pnode);
; 1505 : 			}
; 1506 : 		}
; 1507 : 
; 1508 : 	void swap(_Myt& _Right)
; 1509 : 		{	// exchange contents with _Right
; 1510 : 		if (this == &_Right)
; 1511 : 			;	// same object, do nothing
; 1512 : 		else if (this->_Getal() == _Right._Getal())
; 1513 : 			{	// same allocator, swap control information
; 1514 : 			this->_Swap_all(_Right);
; 1515 : 			_Swap_adl(this->_Myhead, _Right._Myhead);
; 1516 : 			_STD swap(this->_Mysize, _Right._Mysize);
; 1517 : 			}
; 1518 : 
; 1519 : 		else if (_Alty::propagate_on_container_swap::value)
; 1520 : 			{	// swap allocators and control information
; 1521 : 			this->_Swap_alloc(_Right);
; 1522 : 			_Swap_adl(this->_Myhead, _Right._Myhead);
; 1523 : 			_STD swap(this->_Mysize, _Right._Mysize);
; 1524 : 			}
; 1525 : 
; 1526 : 		else	// containers are incompatible
; 1527 : 
; 1528 :  #if _ITERATOR_DEBUG_LEVEL == 2
; 1529 : 			_DEBUG_ERROR("list containers incompatible for swap");
; 1530 : 
; 1531 :  #else /* ITERATOR_DEBUG_LEVEL == 2 */
; 1532 : 			_XSTD terminate();
; 1533 :  #endif /* ITERATOR_DEBUG_LEVEL == 2 */
; 1534 : 		}
; 1535 : 
; 1536 : 	void splice(const_iterator _Where, _Myt& _Right)
; 1537 : 		{	// splice all of _Right at _Where
; 1538 : 		if (this != &_Right && !_Right.empty())
; 1539 : 			{	// worth splicing, do it
; 1540 : 			_Splice(_Where, _Right, _Right.begin(), _Right.end(),
; 1541 : 				_Right._Mysize);
; 1542 : 			}
; 1543 : 		}
; 1544 : 
; 1545 : 	void splice(const_iterator _Where, _Myt&& _Right)
; 1546 : 		{	// splice all of _Right at _Where
; 1547 : 		splice(_Where, (_Myt&)_Right);
; 1548 : 		}
; 1549 : 
; 1550 : 	void splice(const_iterator _Where, _Myt& _Right,
; 1551 : 		const_iterator _First)
; 1552 : 		{	// splice _Right [_First, _First + 1) at _Where
; 1553 :  #if _ITERATOR_DEBUG_LEVEL == 2
; 1554 : 		if (_First == _Right.end())
; 1555 : 			_DEBUG_ERROR("list splice iterator outside range");
; 1556 : 		else
; 1557 : 
; 1558 :  #else /* _ITERATOR_DEBUG_LEVEL == 2 */
; 1559 : 		if (_First != _Right.end())

	je	SHORT $LN144@mtf_mb

; 45   : 		this->_Adopt(_Plist);
; 46   : 		}
; 47   : 
; 48   : 	reference operator*() const
; 49   : 		{	// return designated value
; 50   : 		return (_Mylist::_Myval(_Ptr));
; 51   : 		}
; 52   : 
; 53   : 	pointer operator->() const
; 54   : 		{	// return pointer to class object
; 55   : 		return (_STD pointer_traits<pointer>::pointer_to(**this));
; 56   : 		}
; 57   : 
; 58   : 	_Myiter& operator++()
; 59   : 		{	// preincrement
; 60   : 		_Ptr = _Mylist::_Nextnode(_Ptr);
; 61   : 		return (*this);
; 62   : 		}
; 63   : 
; 64   : 	_Myiter operator++(int)
; 65   : 		{	// postincrement
; 66   : 		_Myiter _Tmp = *this;
; 67   : 		++*this;
; 68   : 		return (_Tmp);
; 69   : 		}
; 70   : 
; 71   : 	_Myiter& operator--()
; 72   : 		{	// predecrement
; 73   : 		_Ptr = _Mylist::_Prevnode(_Ptr);
; 74   : 		return (*this);
; 75   : 		}
; 76   : 
; 77   : 	_Myiter operator--(int)
; 78   : 		{	// postdecrement
; 79   : 		_Myiter _Tmp = *this;
; 80   : 		--*this;
; 81   : 		return (_Tmp);
; 82   : 		}
; 83   : 
; 84   : 	bool operator==(const _Myiter& _Right) const
; 85   : 		{	// test for iterator equality
; 86   : 		return (_Ptr == _Right._Ptr);
; 87   : 		}
; 88   : 
; 89   : 	bool operator!=(const _Myiter& _Right) const
; 90   : 		{	// test for iterator inequality
; 91   : 		return (!(*this == _Right));
; 92   : 		}
; 93   : 
; 94   : 	_Nodeptr _Mynode() const
; 95   : 		{	// return node pointer
; 96   : 		return (_Ptr);
; 97   : 		}
; 98   : 
; 99   : 	_Nodeptr _Ptr;	// pointer to node
; 100  : 	};
; 101  : 
; 102  : 	// TEMPLATE CLASS _List_unchecked_iterator
; 103  : template<class _Mylist>
; 104  : 	class _List_unchecked_iterator
; 105  : 		: public _List_unchecked_const_iterator<_Mylist>
; 106  : 	{	// unchecked iterator for mutable list
; 107  : public:
; 108  : 	typedef _List_unchecked_iterator<_Mylist> _Myiter;
; 109  : 	typedef _List_unchecked_const_iterator<_Mylist> _Mybase;
; 110  : 	typedef bidirectional_iterator_tag iterator_category;
; 111  : 
; 112  : 	typedef typename _Mylist::_Nodeptr _Nodeptr;
; 113  : 	typedef typename _Mylist::value_type value_type;
; 114  : 	typedef typename _Mylist::difference_type difference_type;
; 115  : 	typedef typename _Mylist::pointer pointer;
; 116  : 	typedef typename _Mylist::reference reference;
; 117  : 
; 118  : 	_List_unchecked_iterator()
; 119  : 		{	// construct with null node
; 120  : 		}
; 121  : 
; 122  : 	_List_unchecked_iterator(_Nodeptr _Pnode, const _Mylist *_Plist)
; 123  : 		: _Mybase(_Pnode, _Plist)
; 124  : 		{	// construct with node pointer _Pnode
; 125  : 		}
; 126  : 
; 127  : 	reference operator*() const
; 128  : 		{	// return designated value
; 129  : 		return ((reference)**(_Mybase *)this);
; 130  : 		}
; 131  : 
; 132  : 	pointer operator->() const
; 133  : 		{	// return pointer to class object
; 134  : 		return (_STD pointer_traits<pointer>::pointer_to(**this));
; 135  : 		}
; 136  : 
; 137  : 	_Myiter& operator++()
; 138  : 		{	// preincrement
; 139  : 		++(*(_Mybase *)this);
; 140  : 		return (*this);
; 141  : 		}
; 142  : 
; 143  : 	_Myiter operator++(int)
; 144  : 		{	// postincrement
; 145  : 		_Myiter _Tmp = *this;
; 146  : 		++*this;
; 147  : 		return (_Tmp);
; 148  : 		}
; 149  : 
; 150  : 	_Myiter& operator--()
; 151  : 		{	// predecrement
; 152  : 		--(*(_Mybase *)this);
; 153  : 		return (*this);
; 154  : 		}
; 155  : 
; 156  : 	_Myiter operator--(int)
; 157  : 		{	// postdecrement
; 158  : 		_Myiter _Tmp = *this;
; 159  : 		--*this;
; 160  : 		return (_Tmp);
; 161  : 		}
; 162  : 	};
; 163  : 
; 164  : 	// TEMPLATE CLASS _List_const_iterator
; 165  : template<class _Mylist>
; 166  : 	class _List_const_iterator
; 167  : 		: public _List_unchecked_const_iterator<_Mylist, _Iterator_base>
; 168  : 	{	// iterator for nonmutable list
; 169  : public:
; 170  : 	typedef _List_const_iterator<_Mylist> _Myiter;
; 171  : 	typedef _List_unchecked_const_iterator<_Mylist, _Iterator_base> _Mybase;
; 172  : 	typedef bidirectional_iterator_tag iterator_category;
; 173  : 
; 174  : 	typedef typename _Mylist::_Nodeptr _Nodeptr;
; 175  : 	typedef typename _Mylist::value_type value_type;
; 176  : 	typedef typename _Mylist::difference_type difference_type;
; 177  : 	typedef typename _Mylist::const_pointer pointer;
; 178  : 	typedef typename _Mylist::const_reference reference;
; 179  : 
; 180  : 	_List_const_iterator()
; 181  : 		: _Mybase()
; 182  : 		{	// construct with null node pointer
; 183  : 		}
; 184  : 
; 185  : 	_List_const_iterator(_Nodeptr _Pnode, const _Mylist *_Plist)
; 186  : 		: _Mybase(_Pnode, _Plist)
; 187  : 		{	// construct with node pointer _Pnode
; 188  : 		}
; 189  : 
; 190  : 	typedef _List_unchecked_const_iterator<_Mylist> _Unchecked_type;
; 191  : 
; 192  : 	_Myiter& _Rechecked(_Unchecked_type _Right)
; 193  : 		{	// reset from unchecked iterator
; 194  : 		this->_Ptr = _Right._Ptr;
; 195  : 		return (*this);
; 196  : 		}
; 197  : 
; 198  : 	_Unchecked_type _Unchecked() const
; 199  : 		{	// make an unchecked iterator
; 200  : 		return (_Unchecked_type(this->_Ptr, (_Mylist *)this->_Getcont()));
; 201  : 		}
; 202  : 
; 203  : 	reference operator*() const
; 204  : 		{	// return designated value
; 205  :  #if _ITERATOR_DEBUG_LEVEL == 2
; 206  : 		if (this->_Getcont() == 0
; 207  : 			|| this->_Ptr == 0
; 208  : 			|| this->_Ptr == ((_Mylist *)this->_Getcont())->_Myhead)
; 209  : 			{	// report error
; 210  : 			_DEBUG_ERROR("list iterator not dereferencable");
; 211  : 			_SCL_SECURE_OUT_OF_RANGE;
; 212  : 			}
; 213  : 
; 214  :  #elif _ITERATOR_DEBUG_LEVEL == 1
; 215  : 		_SCL_SECURE_VALIDATE(this->_Getcont() != 0 && this->_Ptr != 0);
; 216  : 		_SCL_SECURE_VALIDATE_RANGE(this->_Ptr !=
; 217  : 			((_Mylist *)this->_Getcont())->_Myhead);
; 218  :  #endif /* _ITERATOR_DEBUG_LEVEL */
; 219  : 
; 220  : 		return (_Mylist::_Myval(this->_Ptr));
; 221  : 		}
; 222  : 
; 223  : 	_Myiter& operator++()
; 224  : 		{	// preincrement
; 225  :  #if _ITERATOR_DEBUG_LEVEL == 2
; 226  : 		if (this->_Getcont() == 0
; 227  : 			|| this->_Ptr == 0
; 228  : 			|| this->_Ptr == ((_Mylist *)this->_Getcont())->_Myhead)
; 229  : 			{	// report error
; 230  : 			_DEBUG_ERROR("list iterator not incrementable");
; 231  : 			_SCL_SECURE_OUT_OF_RANGE;
; 232  : 			}
; 233  : 
; 234  :  #elif _ITERATOR_DEBUG_LEVEL == 1
; 235  : 		_SCL_SECURE_VALIDATE(this->_Getcont() != 0 && this->_Ptr != 0);
; 236  : 		_SCL_SECURE_VALIDATE_RANGE(this->_Ptr !=
; 237  : 			((_Mylist *)this->_Getcont())->_Myhead);
; 238  :  #endif /* _ITERATOR_DEBUG_LEVEL */
; 239  : 
; 240  : 		this->_Ptr = _Mylist::_Nextnode(this->_Ptr);

	mov	rax, QWORD PTR [rbx]

; 298  : 		return (this->_Ptr == _Right._Ptr);

	cmp	rdx, rbx

; 1560 :  #endif /* _ITERATOR_DEBUG_LEVEL == 2 */
; 1561 : 
; 1562 : 			{	// element exists, try splice
; 1563 : 			const_iterator _Last = _First;
; 1564 : 			++_Last;
; 1565 : 			if (this != &_Right
; 1566 : 				|| (_Where != _First && _Where != _Last))

	je	SHORT $LN144@mtf_mb

; 298  : 		return (this->_Ptr == _Right._Ptr);

	cmp	rdx, rax

; 1560 :  #endif /* _ITERATOR_DEBUG_LEVEL == 2 */
; 1561 : 
; 1562 : 			{	// element exists, try splice
; 1563 : 			const_iterator _Last = _First;
; 1564 : 			++_Last;
; 1565 : 			if (this != &_Right
; 1566 : 				|| (_Where != _First && _Where != _Last))

	je	SHORT $LN144@mtf_mb

; 1567 : 				_Splice(_Where, _Right, _First, _Last, 1);
; 1568 : 			}
; 1569 : 		}
; 1570 : 
; 1571 : 	void splice(const_iterator _Where, _Myt&& _Right,
; 1572 : 		const_iterator _First)
; 1573 : 		{	// splice _Right [_First, _First + 1) at _Where
; 1574 : 		splice(_Where, (_Myt&)_Right, _First);
; 1575 : 		}
; 1576 : 
; 1577 : 	void splice(const_iterator _Where,
; 1578 : 		_Myt& _Right, const_iterator _First, const_iterator _Last)
; 1579 : 		{	// splice _Right [_First, _Last) at _Where
; 1580 : 		if (_First != _Last && (this != &_Right || _Where != _Last))
; 1581 : 			{	// worth splicing, do it
; 1582 : 			size_type _Count = 0;
; 1583 : 
; 1584 : 			if (this == &_Right)
; 1585 : 				;	// just rearrange this list
; 1586 : 			else if (_First == _Right.begin() && _Last == _Right.end())
; 1587 : 				_Count = _Right._Mysize;	// splice in whole list
; 1588 : 			else
; 1589 : 				{	// count nodes and check for knot
; 1590 : 				const_iterator _Next = _First;
; 1591 : 
; 1592 : 				for (; _Next != _Last; ++_Next, ++_Count)
; 1593 : 					if (_Next == _Right.end())
; 1594 : 						_Xlength_error("list<T> bad splice");
; 1595 : 				}
; 1596 : 			_Splice(_Where, _Right, _First, _Last, _Count);
; 1597 : 			}
; 1598 : 		}
; 1599 : 
; 1600 : 	void splice(const_iterator _Where,
; 1601 : 		_Myt&& _Right, const_iterator _First, const_iterator _Last)
; 1602 : 		{	// splice _Right [_First, _Last) at _Where
; 1603 : 		splice(_Where, (_Myt&)_Right, _First, _Last);
; 1604 : 		}
; 1605 : 
; 1606 : 	void remove(const _Ty& _Val)
; 1607 : 		{	// erase each element matching _Val
; 1608 : 		iterator _Val_it = end();
; 1609 : 
; 1610 : 		for (iterator _First = begin(); _First != end(); )
; 1611 : 			if (*_First == _Val)
; 1612 : 				if (_STD addressof(*_First) == _STD addressof(_Val))
; 1613 : 					_Val_it = _First++;
; 1614 : 				else
; 1615 : 					_First = erase(_First);
; 1616 : 			else
; 1617 : 				++_First;
; 1618 : 
; 1619 : 		if (_Val_it != end())
; 1620 : 			erase(_Val_it);
; 1621 : 		}
; 1622 : 
; 1623 : 	template<class _Pr1>
; 1624 : 		void remove_if(_Pr1 _Pred)
; 1625 : 		{	// erase each element satisfying _Pred
; 1626 : 		for (iterator _First = begin(); _First != end(); )
; 1627 : 			if (_Pred(*_First))
; 1628 : 				_First = erase(_First);
; 1629 : 			else
; 1630 : 				++_First;
; 1631 : 		}
; 1632 : 
; 1633 : 	void unique()
; 1634 : 		{	// erase each element matching previous
; 1635 : 		unique(equal_to<>());
; 1636 : 		}
; 1637 : 
; 1638 : 	template<class _Pr2>
; 1639 : 		void unique(_Pr2 _Pred)
; 1640 : 		{	// erase each element satisfying _Pred with previous
; 1641 : 		const _Nodeptr _Phead = this->_Myhead;
; 1642 : 		_Nodeptr _Pprev = this->_Nextnode(_Phead);
; 1643 : 		_Nodeptr _Pnode = this->_Nextnode(_Pprev);
; 1644 : 
; 1645 : 		while (_Pnode != _Phead)
; 1646 : 			if (_Pred(_Pprev->_Myval, _Pnode->_Myval))
; 1647 : 				{	// match, remove it
; 1648 : 				const _Nodeptr _Perase = _Pnode;
; 1649 : 				_Pnode = this->_Nextnode(_Pnode);
; 1650 : 
; 1651 : 				this->_Nextnode(_Pprev) = _Pnode;
; 1652 : 				this->_Prevnode(_Pnode) = _Pprev;
; 1653 : 				this->_Freenode(_Perase);
; 1654 : 
; 1655 : 				--this->_Mysize;
; 1656 : 				}
; 1657 : 			else
; 1658 : 				{	// no match, advance
; 1659 : 				_Pprev = _Pnode;
; 1660 : 				_Pnode = this->_Nextnode(_Pnode);
; 1661 : 				}
; 1662 : 		}
; 1663 : 
; 1664 : 	void merge(_Myt& _Right)
; 1665 : 		{	// merge in elements from _Right, both ordered by operator<
; 1666 : 		merge(_Right, less<>());
; 1667 : 		}
; 1668 : 
; 1669 : 	void merge(_Myt&& _Right)
; 1670 : 		{	// merge in elements from _Right, both ordered by operator<
; 1671 : 		merge((_Myt&)_Right);
; 1672 : 		}
; 1673 : 
; 1674 : 	template<class _Pr2>
; 1675 : 		void merge(_Myt& _Right, _Pr2 _Pred)
; 1676 : 		{	// merge in elements from _Right, both ordered by _Pred
; 1677 : 		if (&_Right != this)
; 1678 : 			{	// safe to merge, do it
; 1679 : 			iterator _First1 = begin(), _Last1 = end();
; 1680 : 			iterator _First2 = _Right.begin(), _Last2 = _Right.end();
; 1681 : 			_DEBUG_ORDER_PRED(_First1, _Last1, _Pred);
; 1682 : 			_DEBUG_ORDER_PRED(_First2, _Last2, _Pred);
; 1683 : 
; 1684 : 			while (_First1 != _Last1 && _First2 != _Last2)
; 1685 : 				if (_DEBUG_LT_PRED(_Pred, *_First2, *_First1))
; 1686 : 					{	// splice in an element from _Right
; 1687 : 					iterator _Mid2 = _First2;
; 1688 : 					_Splice(_First1, _Right, _First2, ++_Mid2, 1);
; 1689 : 					_First2 = _Mid2;
; 1690 : 					}
; 1691 : 				else
; 1692 : 					++_First1;
; 1693 : 
; 1694 : 			if (_First2 != _Last2)
; 1695 : 				_Splice(_Last1, _Right, _First2, _Last2,
; 1696 : 					_Right._Mysize);	// splice remainder of _Right
; 1697 : 			}
; 1698 : 		}
; 1699 : 
; 1700 : 	template<class _Pr2>
; 1701 : 		void merge(_Myt&& _Right, _Pr2 _Pred)
; 1702 : 		{	// merge in elements from _Right, both ordered by _Pred
; 1703 : 		merge((_Myt&)_Right, _Pred);
; 1704 : 		}
; 1705 : 
; 1706 : 	void sort()
; 1707 : 		{	// order sequence, using operator<
; 1708 : 		sort(less<>());
; 1709 : 		}
; 1710 : 
; 1711 : 	template<class _Pr2>
; 1712 : 		void sort(_Pr2 _Pred)
; 1713 : 		{	// order sequence, using _Pred
; 1714 : 		if (2 <= this->_Mysize)
; 1715 : 			{	// worth sorting, do it
; 1716 : 			const size_t _MAXBINS = 25;
; 1717 : 			_Myt _Templist(this->_Getal()), _Binlist[_MAXBINS + 1];
; 1718 : 			size_t _Maxbin = 0;
; 1719 : 
; 1720 : 			while (!empty())
; 1721 : 				{	// sort another element, using bins
; 1722 : 				_Templist._Splice_same(_Templist.begin(), *this, begin(),
; 1723 : 					++begin(), 1);
; 1724 : 
; 1725 : 				size_t _Bin;
; 1726 : 				for (_Bin = 0; _Bin < _Maxbin && !_Binlist[_Bin].empty();
; 1727 : 					++_Bin)
; 1728 : 					{	// merge into ever larger bins
; 1729 : 					_Binlist[_Bin].merge(_Templist, _Pred);
; 1730 : 					_Binlist[_Bin].swap(_Templist);
; 1731 : 					}
; 1732 : 
; 1733 : 				if (_Bin == _MAXBINS)
; 1734 : 					_Binlist[_Bin - 1].merge(_Templist, _Pred);
; 1735 : 				else
; 1736 : 					{	// spill to new bin, while they last
; 1737 : 					_Binlist[_Bin].swap(_Templist);
; 1738 : 					if (_Bin == _Maxbin)
; 1739 : 						++_Maxbin;
; 1740 : 					}
; 1741 : 				}
; 1742 : 
; 1743 : 			for (size_t _Bin = 1; _Bin < _Maxbin; ++_Bin)
; 1744 : 				_Binlist[_Bin].merge(_Binlist[_Bin - 1],
; 1745 : 					_Pred);	// merge up
; 1746 : 
; 1747 : 			_Analysis_assume_(0 < _Maxbin);
; 1748 : 
; 1749 : 			splice(begin(), _Binlist[_Maxbin - 1]);	// result in last bin
; 1750 : 			}
; 1751 : 		}
; 1752 : 
; 1753 : 	void reverse() _NOEXCEPT
; 1754 : 		{	// reverse sequence
; 1755 : 		const _Nodeptr _Phead = this->_Myhead;
; 1756 : 		_Nodeptr _Pnode = _Phead;
; 1757 : 
; 1758 : 		for (; ; )
; 1759 : 			{	// flip pointers in a node
; 1760 : 			const _Nodeptr _Pnext = this->_Nextnode(_Pnode);
; 1761 : 			this->_Nextnode(_Pnode) = this->_Prevnode(_Pnode);
; 1762 : 			this->_Prevnode(_Pnode) = _Pnext;
; 1763 : 
; 1764 : 			if (_Pnext == _Phead)
; 1765 : 				break;
; 1766 : 			_Pnode = _Pnext;
; 1767 : 			}
; 1768 : 		}
; 1769 : 
; 1770 : 	void _Splice(const_iterator _Where,
; 1771 : 		_Myt& _Right, const_iterator _First, const_iterator _Last,
; 1772 : 		size_type _Count)
; 1773 : 		{	// splice _Right [_First, _Last) before _Where
; 1774 :  #if _ITERATOR_DEBUG_LEVEL == 2
; 1775 : 		if (_Where._Getcont() != this)
; 1776 : 			_DEBUG_ERROR("list splice iterator outside range");
; 1777 : 		if (this->_Getal() != _Right._Getal())
; 1778 : 			_DEBUG_ERROR("list containers incompatible for splice");
; 1779 : 
; 1780 : 		if (this != &_Right)
; 1781 : 			{	// transfer ownership
; 1782 : 			_Lockit _Lock(_LOCK_DEBUG);
; 1783 : 
; 1784 : 			const bool _One = _Count == 1;
; 1785 : 			const bool _All = _Count == _Right.size();
; 1786 : 			const bool _Some = !_One && !_All;
; 1787 : 
; 1788 : 			_Nodeptr _Oldprev = _First._Ptr->_Prev;
; 1789 : 
; 1790 : 			if (_Some)
; 1791 : 				for (_Nodeptr _Ptr = _First._Ptr; _Ptr != _Last._Ptr;
; 1792 : 					_Ptr = _Ptr->_Next)
; 1793 : 					{	// mark _Prev pointers
; 1794 : 					_Ptr->_Prev = 0;
; 1795 : 					}
; 1796 : 
; 1797 : 			const_iterator **_Pnext = (const_iterator **)_Right._Getpfirst();
; 1798 : 
; 1799 : 			if (_Pnext == 0)
; 1800 : 				_DEBUG_ERROR("list container corrupted");
; 1801 : 
; 1802 : 			while (*_Pnext != 0)
; 1803 : 				{	// check the iterator
; 1804 : 				const_iterator& _Iter = **_Pnext;
; 1805 : 
; 1806 : 				if ((_One && _Iter._Ptr == _First._Ptr)
; 1807 : 					|| (_All && _Iter._Ptr != _Right._Myhead)
; 1808 : 					|| (_Some && _Iter._Ptr->_Prev == 0))
; 1809 : 					{	// adopt the iterator
; 1810 : 					*_Pnext = (const_iterator *)_Iter._Mynextiter;
; 1811 : 					_Iter._Myproxy = this->_Myproxy;
; 1812 : 					_Iter._Mynextiter = this->_Myproxy->_Myfirstiter;
; 1813 : 					this->_Myproxy->_Myfirstiter = &_Iter;
; 1814 : 					}
; 1815 : 				else
; 1816 : 					{	// skip the iterator
; 1817 : 					_Pnext = (const_iterator **)_Iter._Getpnext();
; 1818 : 					}
; 1819 : 				}
; 1820 : 
; 1821 : 			if (_Some)
; 1822 : 				for (_Nodeptr _Ptr = _First._Ptr; _Ptr != _Last._Ptr;
; 1823 : 					_Ptr = _Ptr->_Next)
; 1824 : 					{	// restore _Prev pointers
; 1825 : 					_Ptr->_Prev = _Oldprev;
; 1826 : 					_Oldprev = _Ptr;
; 1827 : 					}
; 1828 : 			}
; 1829 : 
; 1830 :  #else /* _ITERATOR_DEBUG_LEVEL == 2 */
; 1831 : 		if (this->_Getal() != _Right._Getal())
; 1832 : 			_XSTD terminate();
; 1833 :  #endif /* _ITERATOR_DEBUG_LEVEL == 2 */
; 1834 : 
; 1835 : 		_Splice_same(_Where, _Right, _First, _Last, _Count);

	mov	r9, rbx
	mov	r8, rsi
	mov	rcx, rsi
	mov	QWORD PTR [rsp+32], rax
	call	?_Splice_same@?$list@U?$_vector3@M@@V?$xalloc@U?$_vector3@M@@@@@std@@QEAAXV?$_List_const_iterator@V?$_List_val@U?$_List_simple_types@U?$_vector3@M@@@std@@@std@@@2@AEAV12@00_K@Z ; std::list<_vector3<float>,xalloc<_vector3<float> > >::_Splice_same
$LN144@mtf_mb:

; 298  : 		return (this->_Ptr == _Right._Ptr);

	cmp	rdi, QWORD PTR i$[rsp]
; File c:\users\nummer\documents\github\olr-3.0\src\xray\xrcore\_sphere.cpp

; 111  : 	for (It k=L.begin(); k!=i;) 

	jne	$LL4@mtf_mb
	movaps	xmm7, XMMWORD PTR [rsp+48]
	movaps	xmm6, XMMWORD PTR [rsp+64]
	mov	rbp, QWORD PTR [rsp+112]
	mov	rbx, QWORD PTR [rsp+96]
$LN3@mtf_mb:

; 119  : 				B.pop();
; 120  : 				move_to_front(j);
; 121  : 			}
; 122  : 		}
; 123  : 	}
; 124  : }

	mov	rsi, QWORD PTR [rsp+120]
	add	rsp, 80					; 00000050H
	pop	rdi
	ret	0
?mtf_mb@Miniball@@AEAAXV?$_List_iterator@V?$_List_val@U?$_List_simple_types@U?$_vector3@M@@@std@@@std@@@std@@@Z ENDP ; Miniball::mtf_mb
_TEXT	ENDS
; Function compile flags: /Ogtpy
; File c:\users\nummer\documents\github\olr-3.0\src\xray\xrcore\_sphere.cpp
; File c:\program files (x86)\microsoft visual studio 12.0\vc\include\list
; File c:\users\nummer\documents\github\olr-3.0\src\xray\xrcore\_sphere.cpp
; File c:\program files (x86)\microsoft visual studio 12.0\vc\include\list
; File c:\users\nummer\documents\github\olr-3.0\src\xray\xrcore\_sphere.cpp
; File c:\program files (x86)\microsoft visual studio 12.0\vc\include\list
; File c:\users\nummer\documents\github\olr-3.0\src\xray\xrcore\_sphere.cpp
_TEXT	SEGMENT
this$ = 64
j$ = 72
?move_to_front@Miniball@@AEAAXV?$_List_iterator@V?$_List_val@U?$_List_simple_types@U?$_vector3@M@@@std@@@std@@@std@@@Z PROC ; Miniball::move_to_front

; 127  : {

$LN77:
	sub	rsp, 56					; 00000038H
	mov	r10, rcx
; File c:\program files (x86)\microsoft visual studio 12.0\vc\include\list

; 298  : 		return (this->_Ptr == _Right._Ptr);

	cmp	QWORD PTR [rcx+248], rdx
; File c:\users\nummer\documents\github\olr-3.0\src\xray\xrcore\_sphere.cpp

; 128  : 	if (support_end == j)

	jne	SHORT $LN10@move_to_fr
; File c:\program files (x86)\microsoft visual studio 12.0\vc\include\list

; 533  : 		return ((_Nodepref)_Pnode->_Next);

	mov	rax, QWORD PTR [rcx+248]

; 240  : 		this->_Ptr = _Mylist::_Nextnode(this->_Ptr);

	mov	r8, QWORD PTR [rax]
	mov	QWORD PTR [rcx+248], r8
$LN10@move_to_fr:

; 533  : 		return ((_Nodepref)_Pnode->_Next);

	mov	r8, QWORD PTR [rcx]
; File c:\users\nummer\documents\github\olr-3.0\src\xray\xrcore\_sphere.cpp

; 130  : 	L.splice (L.begin(), L, j);

	mov	rax, QWORD PTR [r8]
; File c:\program files (x86)\microsoft visual studio 12.0\vc\include\list

; 298  : 		return (this->_Ptr == _Right._Ptr);

	cmp	rdx, r8

; 534  : 		}
; 535  : 
; 536  : 	static _Nodepref _Prevnode(_Nodeptr _Pnode)
; 537  : 		{	// return reference to predecessor pointer in node
; 538  : 		return ((_Nodepref)_Pnode->_Prev);
; 539  : 		}
; 540  : 
; 541  : 	static reference _Myval(_Nodeptr _Pnode)
; 542  : 		{	// return reference to value in node
; 543  : 		return ((reference)_Pnode->_Myval);
; 544  : 		}
; 545  : 
; 546  : 	_Nodeptr _Myhead;	// pointer to head node
; 547  : 	size_type _Mysize;	// number of elements
; 548  : 	};
; 549  : 
; 550  : 		// TEMPLATE CLASS _List_alloc
; 551  : template<bool _Al_has_storage,
; 552  : 	class _Alloc_types>
; 553  : 	class _List_alloc
; 554  : 		: public _List_val<typename _Alloc_types::_Val_types>
; 555  : 	{	// base class for list to hold allocator with storage
; 556  : public:
; 557  : 	typename _Alloc_types::_Alnod_type _Alnod;	// allocator object
; 558  : 
; 559  : 	typedef _List_alloc<_Al_has_storage, _Alloc_types> _Myt;
; 560  : 	typedef typename _Alloc_types::_Alloc _Alloc;
; 561  : 	typedef typename _Alloc_types::_Alnod_type _Alty;
; 562  : 	typedef typename _Alloc_types::_Node _Node;
; 563  : 	typedef typename _Alloc_types::_Nodeptr _Nodeptr;
; 564  : 
; 565  :  #if _ITERATOR_DEBUG_LEVEL == 0
; 566  : 	_List_alloc(const _Alloc& _Al = _Alloc())
; 567  : 		: _Alnod(_Al)
; 568  : 		{	// construct head node, allocator from _Al
; 569  : 		this->_Myhead = _Buyheadnode();
; 570  : 		}
; 571  : 
; 572  : 	~_List_alloc() _NOEXCEPT
; 573  : 		{	// destroy head node
; 574  : 		_Freeheadnode(this->_Myhead);
; 575  : 		}
; 576  : 
; 577  : 	void _Change_alloc(const _Alty& _Al)
; 578  : 		{	// replace old allocator
; 579  : 		this->_Alnod = _Al;
; 580  : 		}
; 581  : 
; 582  : 	void _Swap_alloc(_Myt& _Right)
; 583  : 		{	// swap allocators
; 584  : 		_Swap_adl(this->_Alnod, _Right._Alnod);
; 585  : 		}
; 586  : 
; 587  :  #else /* _ITERATOR_DEBUG_LEVEL == 0 */
; 588  : 	_List_alloc(const _Alloc& _Al = _Alloc())
; 589  : 		: _Alnod(_Al)
; 590  : 		{	// construct head node, allocator from _Al
; 591  : 		this->_Myhead = _Buyheadnode();
; 592  : 		_TRY_BEGIN
; 593  : 		_Alloc_proxy();
; 594  : 		_CATCH_ALL
; 595  : 		_Freeheadnode(this->_Myhead);
; 596  : 		_RERAISE;
; 597  : 		_CATCH_END
; 598  : 		}
; 599  : 
; 600  : 	~_List_alloc() _NOEXCEPT
; 601  : 		{	// destroy proxy
; 602  : 		_Freeheadnode(this->_Myhead);
; 603  : 		_Free_proxy();
; 604  : 		}
; 605  : 
; 606  : 	void _Change_alloc(const _Alty& _Al)
; 607  : 		{	// replace old allocator
; 608  : 		_Free_proxy();
; 609  : 		this->_Alnod = _Al;
; 610  : 		_Alloc_proxy();
; 611  : 		}
; 612  : 
; 613  : 	void _Swap_alloc(_Myt& _Right)
; 614  : 		{	// swap allocators
; 615  : 		_Swap_adl(this->_Alnod, _Right._Alnod);
; 616  : 		_Swap_adl(this->_Myproxy, _Right._Myproxy);
; 617  : 		}
; 618  : 
; 619  : 	void _Alloc_proxy()
; 620  : 		{	// construct proxy from _Alnod
; 621  : 		typename _Alty::template rebind<_Container_proxy>::other
; 622  : 			_Alproxy(this->_Alnod);
; 623  : 		this->_Myproxy = _Alproxy.allocate(1);
; 624  : 		_Alproxy.construct(this->_Myproxy, _Container_proxy());
; 625  : 		this->_Myproxy->_Mycont = this;
; 626  : 		}
; 627  : 
; 628  : 	void _Free_proxy()
; 629  : 		{	// destroy proxy
; 630  : 		typename _Alty::template rebind<_Container_proxy>::other
; 631  : 			_Alproxy(this->_Alnod);
; 632  : 		this->_Orphan_all();
; 633  : 		_Alproxy.destroy(this->_Myproxy);
; 634  : 		_Alproxy.deallocate(this->_Myproxy, 1);
; 635  : 		this->_Myproxy = 0;
; 636  : 		}
; 637  :  #endif /* _ITERATOR_DEBUG_LEVEL == 0 */
; 638  : 
; 639  : 	_Nodeptr _Buyheadnode()
; 640  : 		{	// get head node using current allocator
; 641  : 		return (_Buynode0(_Nodeptr(), _Nodeptr()));
; 642  : 		}
; 643  : 
; 644  : 	void _Freeheadnode(_Nodeptr _Pnode)
; 645  : 		{	// free head node using current allocator
; 646  : 		this->_Alnod.destroy(
; 647  : 			_STD addressof(this->_Nextnode(_Pnode)));
; 648  : 		this->_Alnod.destroy(
; 649  : 			_STD addressof(this->_Prevnode(_Pnode)));
; 650  : 		this->_Alnod.deallocate(_Pnode, 1);
; 651  : 		}
; 652  : 
; 653  : 	_Nodeptr _Buynode0(_Nodeptr _Next,
; 654  : 		_Nodeptr _Prev)
; 655  : 		{	// allocate a node and set links
; 656  : 		_Nodeptr _Pnode = this->_Alnod.allocate(1);
; 657  : 
; 658  : 		if (_Next == _Nodeptr())
; 659  : 			{	// point at self
; 660  : 			_Next = _Pnode;
; 661  : 			_Prev = _Pnode;
; 662  : 			}
; 663  : 		_TRY_BEGIN
; 664  : 		this->_Alnod.construct(
; 665  : 			_STD addressof(this->_Nextnode(_Pnode)), _Next);
; 666  : 		this->_Alnod.construct(
; 667  : 			_STD addressof(this->_Prevnode(_Pnode)), _Prev);
; 668  : 		_CATCH_ALL
; 669  : 		this->_Alnod.deallocate(_Pnode, 1);
; 670  : 		_RERAISE;
; 671  : 		_CATCH_END
; 672  : 
; 673  : 		return (_Pnode);
; 674  : 		}
; 675  : 
; 676  : 	_Alty& _Getal()
; 677  : 		{	// get reference to allocator
; 678  : 		return (this->_Alnod);
; 679  : 		}
; 680  : 
; 681  : 	const _Alty& _Getal() const
; 682  : 		{	// get reference to allocator
; 683  : 		return (this->_Alnod);
; 684  : 		}
; 685  : 	};
; 686  : 
; 687  : 		// TEMPLATE CLASS _List_alloc
; 688  : template<class _Alloc_types>
; 689  : 	class _List_alloc<false, _Alloc_types>
; 690  : 		: public _List_val<typename _Alloc_types::_Val_types>
; 691  : 	{	// base class for list to hold allocator with no storage
; 692  : public:
; 693  : 	typedef _List_alloc<false, _Alloc_types> _Myt;
; 694  : 	typedef typename _Alloc_types::_Alloc _Alloc;
; 695  : 	typedef typename _Alloc_types::_Alnod_type _Alty;
; 696  : 	typedef typename _Alloc_types::_Node _Node;
; 697  : 	typedef typename _Alloc_types::_Nodeptr _Nodeptr;
; 698  : 
; 699  :  #if _ITERATOR_DEBUG_LEVEL == 0
; 700  : 	_List_alloc(const _Alloc& = _Alloc())
; 701  : 		{	// construct head node, allocator from _Al
; 702  : 		this->_Myhead = _Buyheadnode();
; 703  : 		}
; 704  : 
; 705  : 	~_List_alloc() _NOEXCEPT
; 706  : 		{	// destroy head node
; 707  : 		_Freeheadnode(this->_Myhead);
; 708  : 		}
; 709  : 
; 710  : 	void _Change_alloc(const _Alty&)
; 711  : 		{	// replace old allocator
; 712  : 		}
; 713  : 
; 714  : 	void _Swap_alloc(_Myt&)
; 715  : 		{	// swap allocators
; 716  : 		}
; 717  : 
; 718  :  #else /* _ITERATOR_DEBUG_LEVEL == 0 */
; 719  : 	_List_alloc(const _Alloc& = _Alloc())
; 720  : 		{	// construct allocators from _Al
; 721  : 		this->_Myhead = _Buyheadnode();
; 722  : 		_TRY_BEGIN
; 723  : 		_Alloc_proxy();
; 724  : 		_CATCH_ALL
; 725  : 		_Freeheadnode(this->_Myhead);
; 726  : 		_RERAISE;
; 727  : 		_CATCH_END
; 728  : 		}
; 729  : 
; 730  : 	~_List_alloc() _NOEXCEPT
; 731  : 		{	// destroy proxy
; 732  : 		_Freeheadnode(this->_Myhead);
; 733  : 		_Free_proxy();
; 734  : 		}
; 735  : 
; 736  : 	void _Change_alloc(const _Alty&)
; 737  : 		{	// replace old allocator
; 738  : 		}
; 739  : 
; 740  : 	void _Swap_alloc(_Myt& _Right)
; 741  : 		{	// swap allocators
; 742  : 		_Swap_adl(this->_Myproxy, _Right._Myproxy);
; 743  : 		}
; 744  : 
; 745  : 	void _Alloc_proxy()
; 746  : 		{	// construct proxy from _Alnod
; 747  : 		typename _Alty::template rebind<_Container_proxy>::other
; 748  : 			_Alproxy;
; 749  : 		this->_Myproxy = _Alproxy.allocate(1);
; 750  : 		_Alproxy.construct(this->_Myproxy, _Container_proxy());
; 751  : 		this->_Myproxy->_Mycont = this;
; 752  : 		}
; 753  : 
; 754  : 	void _Free_proxy()
; 755  : 		{	// destroy proxy
; 756  : 		typename _Alty::template rebind<_Container_proxy>::other
; 757  : 			_Alproxy;
; 758  : 		this->_Orphan_all();
; 759  : 		_Alproxy.destroy(this->_Myproxy);
; 760  : 		_Alproxy.deallocate(this->_Myproxy, 1);
; 761  : 		this->_Myproxy = 0;
; 762  : 		}
; 763  :  #endif /* _ITERATOR_DEBUG_LEVEL == 0 */
; 764  : 
; 765  : 	_Nodeptr _Buyheadnode()
; 766  : 		{	// get head node using current allocator
; 767  : 		return (_Buynode0(_Nodeptr(), _Nodeptr()));
; 768  : 		}
; 769  : 
; 770  : 	void _Freeheadnode(_Nodeptr _Pnode)
; 771  : 		{	// free head node using current allocator
; 772  : 		this->_Getal().destroy(
; 773  : 			_STD addressof(this->_Nextnode(_Pnode)));
; 774  : 		this->_Getal().destroy(
; 775  : 			_STD addressof(this->_Prevnode(_Pnode)));
; 776  : 		this->_Getal().deallocate(_Pnode, 1);
; 777  : 		}
; 778  : 
; 779  : 	_Nodeptr _Buynode0(_Nodeptr _Next,
; 780  : 		_Nodeptr _Prev)
; 781  : 		{	// allocate a node and set links
; 782  : 		_Nodeptr _Pnode = this->_Getal().allocate(1);
; 783  : 
; 784  : 		if (_Next == _Nodeptr())
; 785  : 			{	// point at self
; 786  : 			_Next = _Pnode;
; 787  : 			_Prev = _Pnode;
; 788  : 			}
; 789  : 		_TRY_BEGIN
; 790  : 		this->_Getal().construct(
; 791  : 			_STD addressof(this->_Nextnode(_Pnode)), _Next);
; 792  : 		this->_Getal().construct(
; 793  : 			_STD addressof(this->_Prevnode(_Pnode)), _Prev);
; 794  : 		_CATCH_ALL
; 795  : 		this->_Getal().deallocate(_Pnode, 1);
; 796  : 		_RERAISE;
; 797  : 		_CATCH_END
; 798  : 
; 799  : 		return (_Pnode);
; 800  : 		}
; 801  : 
; 802  : 	_Alty _Getal() const
; 803  : 		{	// get reference to allocator
; 804  : 		return (_Alty());
; 805  : 		}
; 806  : 	};
; 807  : 
; 808  : 		// TEMPLATE CLASS _List_buy
; 809  : template<class _Ty,
; 810  : 	class _Alloc>
; 811  : 	class _List_buy
; 812  : 		: public _List_alloc<!is_empty<_Alloc>::value,
; 813  : 			_List_base_types<_Ty, _Alloc> >
; 814  : 	{	// base class for list to hold buynode/freenode functions
; 815  : public:
; 816  : 	typedef _List_alloc<!is_empty<_Alloc>::value,
; 817  : 		_List_base_types<_Ty, _Alloc> > _Mybase;
; 818  : 	typedef typename _Mybase::_Alty _Alty;
; 819  : 	typedef typename _Mybase::_Nodeptr _Nodeptr;
; 820  : 
; 821  : 	_List_buy(const _Alloc& _Al = _Alloc())
; 822  : 		: _Mybase(_Al)
; 823  : 		{	// construct from allocator
; 824  : 		}
; 825  : 
; 826  : 	template<class... _Valty>
; 827  : 		_Nodeptr _Buynode(_Nodeptr _Next, _Nodeptr _Prev,
; 828  : 			_Valty&&... _Val)
; 829  : 		{	// allocate a node and set links and value
; 830  : 		_Nodeptr _Pnode = this->_Buynode0(_Next, _Prev);
; 831  : 
; 832  : 		_TRY_BEGIN
; 833  : 		this->_Getal().construct(
; 834  : 			_STD addressof(this->_Myval(_Pnode)),
; 835  : 				_STD forward<_Valty>(_Val)...);
; 836  : 		_CATCH_ALL
; 837  : 		this->_Getal().deallocate(_Pnode, 1);
; 838  : 		_RERAISE;
; 839  : 		_CATCH_END
; 840  : 
; 841  : 		return (_Pnode);
; 842  : 		}
; 843  : 
; 844  : 
; 845  : 	void _Freenode(_Nodeptr _Pnode)
; 846  : 		{	// give node back
; 847  : 		this->_Getal().destroy(
; 848  : 			_STD addressof(this->_Nextnode(_Pnode)));
; 849  : 		this->_Getal().destroy(
; 850  : 			_STD addressof(this->_Prevnode(_Pnode)));
; 851  : 		this->_Getal().destroy(
; 852  : 			_STD addressof(this->_Myval(_Pnode)));
; 853  : 		this->_Getal().deallocate(_Pnode, 1);
; 854  : 		}
; 855  : 	};
; 856  : 
; 857  : 		// TEMPLATE CLASS list
; 858  : template<class _Ty,
; 859  : 	class _Alloc = allocator<_Ty> >
; 860  : 	class list
; 861  : 		: public _List_buy<_Ty, _Alloc>
; 862  : 	{	// bidirectional linked list
; 863  : public:
; 864  : 	typedef list<_Ty, _Alloc> _Myt;
; 865  : 	typedef _List_buy<_Ty, _Alloc> _Mybase;
; 866  : 	typedef typename _Mybase::_Node _Node;
; 867  : 	typedef typename _Mybase::_Nodeptr _Nodeptr;
; 868  : 	typedef typename _Mybase::_Alty _Alty;
; 869  : 
; 870  : 	typedef _Alloc allocator_type;
; 871  : 	typedef typename _Mybase::size_type size_type;
; 872  : 	typedef typename _Mybase::difference_type difference_type;
; 873  : 	typedef typename _Mybase::pointer pointer;
; 874  : 	typedef typename _Mybase::const_pointer const_pointer;
; 875  : 	typedef typename _Mybase::reference reference;
; 876  : 	typedef typename _Mybase::const_reference const_reference;
; 877  : 	typedef typename _Mybase::value_type value_type;
; 878  : 
; 879  : 	typedef typename _Mybase::const_iterator const_iterator;
; 880  : 	typedef typename _Mybase::iterator iterator;
; 881  : 	typedef typename _Mybase::_Unchecked_const_iterator
; 882  : 		_Unchecked_const_iterator;
; 883  : 	typedef typename _Mybase::_Unchecked_iterator
; 884  : 		_Unchecked_iterator;
; 885  : 
; 886  : 	typedef _STD reverse_iterator<iterator> reverse_iterator;
; 887  : 	typedef _STD reverse_iterator<const_iterator> const_reverse_iterator;
; 888  : 
; 889  : 	list()
; 890  : 		: _Mybase()
; 891  : 		{	// construct empty list
; 892  : 		}
; 893  : 
; 894  : 	explicit list(const _Alloc& _Al)
; 895  : 		: _Mybase(_Al)
; 896  : 		{	// construct empty list, allocator
; 897  : 		}
; 898  : 
; 899  : 	explicit list(size_type _Count)
; 900  : 		: _Mybase()
; 901  : 		{	// construct list from _Count * _Ty()
; 902  : 		resize(_Count);
; 903  : 		}
; 904  : 
; 905  : 	list(size_type _Count, const _Ty& _Val)
; 906  : 		: _Mybase()
; 907  : 		{	// construct list from _Count * _Val
; 908  : 		_Construct_n(_Count, _Val);
; 909  : 		}
; 910  : 
; 911  : 	list(size_type _Count, const _Ty& _Val, const _Alloc& _Al)
; 912  : 		: _Mybase(_Al)
; 913  : 		{	// construct list from _Count * _Val, allocator
; 914  : 		_Construct_n(_Count, _Val);
; 915  : 		}
; 916  : 
; 917  : 	list(const _Myt& _Right)
; 918  : 
; 919  : 		: _Mybase(_Right._Getal().select_on_container_copy_construction())
; 920  : 
; 921  : 
; 922  : 		{	// construct list by copying _Right
; 923  : 		_TRY_BEGIN
; 924  : 		insert(begin(), _Right.begin(), _Right.end());
; 925  : 		_CATCH_ALL
; 926  : 		_Tidy();
; 927  : 		_RERAISE;
; 928  : 		_CATCH_END
; 929  : 		}
; 930  : 
; 931  : 	list(const _Myt& _Right, const _Alloc& _Al)
; 932  : 		: _Mybase(_Al)
; 933  : 		{	// construct list by copying _Right, allocator
; 934  : 		_TRY_BEGIN
; 935  : 		insert(begin(), _Right.begin(), _Right.end());
; 936  : 		_CATCH_ALL
; 937  : 		_Tidy();
; 938  : 		_RERAISE;
; 939  : 		_CATCH_END
; 940  : 		}
; 941  : 
; 942  : 	template<class _Iter,
; 943  : 		class = typename enable_if<_Is_iterator<_Iter>::value,
; 944  : 			void>::type>
; 945  : 		list(_Iter _First, _Iter _Last)
; 946  : 		: _Mybase()
; 947  : 		{	// construct list from [_First, _Last)
; 948  : 		_Construct(_First, _Last);
; 949  : 		}
; 950  : 
; 951  : 	template<class _Iter,
; 952  : 		class = typename enable_if<_Is_iterator<_Iter>::value,
; 953  : 			void>::type>
; 954  : 		list(_Iter _First, _Iter _Last, const _Alloc& _Al)
; 955  : 		: _Mybase(_Al)
; 956  : 		{	// construct list, allocator from [_First, _Last)
; 957  : 		_Construct(_First, _Last);
; 958  : 		}
; 959  : 
; 960  : 	template<class _Iter>
; 961  : 		void _Construct(_Iter _First, _Iter _Last)
; 962  : 		{	// construct list from [_First, _Last), input iterators
; 963  : 		_TRY_BEGIN
; 964  : 		insert(begin(), _First, _Last);
; 965  : 		_CATCH_ALL
; 966  : 		_Tidy();
; 967  : 		_RERAISE;
; 968  : 		_CATCH_END
; 969  : 		}
; 970  : 
; 971  : 	void _Construct_n(size_type _Count,
; 972  : 		const _Ty& _Val)
; 973  : 		{	// construct from _Count * _Val
; 974  : 		_TRY_BEGIN
; 975  : 		_Insert_n(_Unchecked_begin(), _Count, _Val);
; 976  : 		_CATCH_ALL
; 977  : 		_Tidy();
; 978  : 		_RERAISE;
; 979  : 		_CATCH_END
; 980  : 		}
; 981  : 
; 982  : 	list(_Myt&& _Right)
; 983  : 		: _Mybase(_Right._Getal())
; 984  : 		{	// construct list by moving _Right
; 985  : 		_Assign_rv(_STD forward<_Myt>(_Right));
; 986  : 		}
; 987  : 
; 988  : 	list(_Myt&& _Right, const _Alloc& _Al)
; 989  : 		: _Mybase(_Al)
; 990  : 		{	// construct list by moving _Right, allocator
; 991  : 		_Assign_rv(_STD forward<_Myt>(_Right));
; 992  : 		}
; 993  : 
; 994  : 	_Myt& operator=(_Myt&& _Right)
; 995  : 		{	// assign by moving _Right
; 996  : 		if (this != &_Right)
; 997  : 			{	// different, assign it
; 998  : 			clear();
; 999  : 
; 1000 : 			if (_Alty::propagate_on_container_move_assignment::value
; 1001 : 				&& this->_Getal() != _Right._Getal())
; 1002 : 				this->_Change_alloc(_Right._Getal());
; 1003 : 
; 1004 : 			_Assign_rv(_STD forward<_Myt>(_Right));
; 1005 : 			}
; 1006 : 		return (*this);
; 1007 : 		}
; 1008 : 
; 1009 : 	void _Assign_rv(_Myt&& _Right)
; 1010 : 		{	// swap with empty *this, same allocator
; 1011 : 		this->_Swap_all(_Right);
; 1012 : 		_Swap_adl(this->_Myhead, _Right._Myhead);
; 1013 : 		_STD swap(this->_Mysize, _Right._Mysize);
; 1014 : 		}
; 1015 : 
; 1016 : 	void push_front(_Ty&& _Val)
; 1017 : 		{	// insert element at beginning
; 1018 : 		_Insert(_Unchecked_begin(), _STD forward<_Ty>(_Val));
; 1019 : 		}
; 1020 : 
; 1021 : 	void push_back(_Ty&& _Val)
; 1022 : 		{	// insert element at end
; 1023 : 		_Insert(_Unchecked_end(), _STD forward<_Ty>(_Val));
; 1024 : 		}
; 1025 : 
; 1026 : 	iterator insert(const_iterator _Where, _Ty&& _Val)
; 1027 : 		{	// insert _Val at _Where
; 1028 : 		return (emplace(_Where, _STD forward<_Ty>(_Val)));
; 1029 : 		}
; 1030 : 
; 1031 : 	template<class... _Valty>
; 1032 : 		void emplace_front(_Valty&&... _Val)
; 1033 : 		{	// insert element at beginning
; 1034 : 		_Insert(_Unchecked_begin(), _STD forward<_Valty>(_Val)...);
; 1035 : 		}
; 1036 : 
; 1037 : 	template<class... _Valty>
; 1038 : 		void emplace_back(_Valty&&... _Val)
; 1039 : 		{	// insert element at end
; 1040 : 		_Insert(_Unchecked_end(), _STD forward<_Valty>(_Val)...);
; 1041 : 		}
; 1042 : 
; 1043 : 	template<class... _Valty>
; 1044 : 		iterator emplace(const_iterator _Where, _Valty&&... _Val)
; 1045 : 		{	// insert element at _Where
; 1046 :  #if _ITERATOR_DEBUG_LEVEL == 2
; 1047 : 		if (_Where._Getcont() != this)
; 1048 : 			_DEBUG_ERROR("list emplace iterator outside range");
; 1049 :  #endif /* _ITERATOR_DEBUG_LEVEL == 2 */
; 1050 : 
; 1051 : 		_Insert(_Where._Unchecked(), _STD forward<_Valty>(_Val)...);
; 1052 : 		return (_Make_iter(--_Where));
; 1053 : 		}
; 1054 : 
; 1055 : 	template<class... _Valty>
; 1056 : 		void _Insert(_Unchecked_const_iterator _Where,
; 1057 : 		_Valty&&... _Val)
; 1058 : 		{	// insert element at _Where
; 1059 : 		_Nodeptr _Pnode = _Where._Mynode();
; 1060 : 		_Nodeptr _Newnode =
; 1061 : 			this->_Buynode(_Pnode, this->_Prevnode(_Pnode),
; 1062 : 				_STD forward<_Valty>(_Val)...);
; 1063 : 		_Incsize(1);
; 1064 : 		this->_Prevnode(_Pnode) = _Newnode;
; 1065 : 		this->_Nextnode(this->_Prevnode(_Newnode)) = _Newnode;
; 1066 : 		}
; 1067 : 
; 1068 : 
; 1069 : 	list(_XSTD initializer_list<_Ty> _Ilist,
; 1070 : 		const _Alloc& _Al = allocator_type())
; 1071 : 		: _Mybase(_Al)
; 1072 : 		{	// construct from initializer_list
; 1073 : 		insert(begin(), _Ilist.begin(), _Ilist.end());
; 1074 : 		}
; 1075 : 
; 1076 : 	_Myt& operator=(_XSTD initializer_list<_Ty> _Ilist)
; 1077 : 		{	// assign initializer_list
; 1078 : 		assign(_Ilist.begin(), _Ilist.end());
; 1079 : 		return (*this);
; 1080 : 		}
; 1081 : 
; 1082 : 	void assign(_XSTD initializer_list<_Ty> _Ilist)
; 1083 : 		{	// assign initializer_list
; 1084 : 		assign(_Ilist.begin(), _Ilist.end());
; 1085 : 		}
; 1086 : 
; 1087 : 	iterator insert(const_iterator _Where,
; 1088 : 		_XSTD initializer_list<_Ty> _Ilist)
; 1089 : 		{	// insert initializer_list
; 1090 : 		return (insert(_Where, _Ilist.begin(), _Ilist.end()));
; 1091 : 		}
; 1092 : 
; 1093 : 	~list() _NOEXCEPT
; 1094 : 		{	// destroy the object
; 1095 : 		_Tidy();
; 1096 : 		}
; 1097 : 
; 1098 : 	_Myt& operator=(const _Myt& _Right)
; 1099 : 		{	// assign _Right
; 1100 : 		if (this != &_Right)
; 1101 : 			{	// different, assign it
; 1102 : 			if (this->_Getal() != _Right._Getal()
; 1103 : 				&& _Alty::propagate_on_container_copy_assignment::value)
; 1104 : 				{	// change allocator before copying
; 1105 : 				clear();
; 1106 : 				this->_Change_alloc(_Right._Getal());
; 1107 : 				}
; 1108 : 
; 1109 : 			assign(_Right.begin(), _Right.end());
; 1110 : 			}
; 1111 : 		return (*this);
; 1112 : 		}
; 1113 : 
; 1114 : 	iterator begin() _NOEXCEPT
; 1115 : 		{	// return iterator for beginning of mutable sequence
; 1116 : 		return (iterator(this->_Nextnode(this->_Myhead), this));
; 1117 : 		}
; 1118 : 
; 1119 : 	const_iterator begin() const _NOEXCEPT
; 1120 : 		{	// return iterator for beginning of nonmutable sequence
; 1121 : 		return (const_iterator(this->_Nextnode(this->_Myhead), this));
; 1122 : 		}
; 1123 : 
; 1124 : 	iterator end() _NOEXCEPT
; 1125 : 		{	// return iterator for end of mutable sequence
; 1126 : 		return (iterator(this->_Myhead, this));
; 1127 : 		}
; 1128 : 
; 1129 : 	const_iterator end() const _NOEXCEPT
; 1130 : 		{	// return iterator for end of nonmutable sequence
; 1131 : 		return (const_iterator(this->_Myhead, this));
; 1132 : 		}
; 1133 : 
; 1134 : 	_Unchecked_iterator _Unchecked_begin()
; 1135 : 		{	// return iterator for beginning of mutable sequence
; 1136 : 		return (_Unchecked_iterator(this->_Nextnode(this->_Myhead),
; 1137 : 			this));
; 1138 : 		}
; 1139 : 
; 1140 : 	_Unchecked_const_iterator _Unchecked_begin() const
; 1141 : 		{	// return iterator for beginning of nonmutable sequence
; 1142 : 		return (_Unchecked_const_iterator(this->_Nextnode(this->_Myhead),
; 1143 : 			this));
; 1144 : 		}
; 1145 : 
; 1146 : 	_Unchecked_iterator _Unchecked_end()
; 1147 : 		{	// return unchecked iterator for end of mutable sequence
; 1148 : 		return (_Unchecked_iterator(this->_Myhead, this));
; 1149 : 		}
; 1150 : 
; 1151 : 	_Unchecked_const_iterator _Unchecked_end() const
; 1152 : 		{	// return unchecked iterator for end of nonmutable sequence
; 1153 : 		return (_Unchecked_const_iterator(this->_Myhead, this));
; 1154 : 		}
; 1155 : 
; 1156 : 	iterator _Make_iter(const_iterator _Where) const _NOEXCEPT
; 1157 : 		{	// make iterator from const_iterator
; 1158 : 		return (iterator(_Where._Ptr, this));
; 1159 : 		}
; 1160 : 
; 1161 : 	iterator _Make_iter(_Unchecked_const_iterator _Where) const
; 1162 : 		{	// make iterator from _Unchecked_const_iterator
; 1163 : 		return (iterator(_Where._Ptr, this));
; 1164 : 		}
; 1165 : 
; 1166 : 	reverse_iterator rbegin() _NOEXCEPT
; 1167 : 		{	// return iterator for beginning of reversed mutable sequence
; 1168 : 		return (reverse_iterator(end()));
; 1169 : 		}
; 1170 : 
; 1171 : 	const_reverse_iterator rbegin() const _NOEXCEPT
; 1172 : 		{	// return iterator for beginning of reversed nonmutable sequence
; 1173 : 		return (const_reverse_iterator(end()));
; 1174 : 		}
; 1175 : 
; 1176 : 	reverse_iterator rend() _NOEXCEPT
; 1177 : 		{	// return iterator for end of reversed mutable sequence
; 1178 : 		return (reverse_iterator(begin()));
; 1179 : 		}
; 1180 : 
; 1181 : 	const_reverse_iterator rend() const _NOEXCEPT
; 1182 : 		{	// return iterator for end of reversed nonmutable sequence
; 1183 : 		return (const_reverse_iterator(begin()));
; 1184 : 		}
; 1185 : 
; 1186 : 	const_iterator cbegin() const _NOEXCEPT
; 1187 : 		{	// return iterator for beginning of nonmutable sequence
; 1188 : 		return (((const _Myt *)this)->begin());
; 1189 : 		}
; 1190 : 
; 1191 : 	const_iterator cend() const _NOEXCEPT
; 1192 : 		{	// return iterator for end of nonmutable sequence
; 1193 : 		return (((const _Myt *)this)->end());
; 1194 : 		}
; 1195 : 
; 1196 : 	const_reverse_iterator crbegin() const _NOEXCEPT
; 1197 : 		{	// return iterator for beginning of reversed nonmutable sequence
; 1198 : 		return (((const _Myt *)this)->rbegin());
; 1199 : 		}
; 1200 : 
; 1201 : 	const_reverse_iterator crend() const _NOEXCEPT
; 1202 : 		{	// return iterator for end of reversed nonmutable sequence
; 1203 : 		return (((const _Myt *)this)->rend());
; 1204 : 		}
; 1205 : 
; 1206 : 	void resize(size_type _Newsize)
; 1207 : 		{	// determine new length, padding with _Ty() elements as needed
; 1208 : 		if (this->_Mysize < _Newsize)
; 1209 : 			{	// pad to make larger
; 1210 : 			size_type _Count = 0;
; 1211 : 			_TRY_BEGIN
; 1212 : 			for (; this->_Mysize < _Newsize; ++_Count)
; 1213 : 				_Insert(_Unchecked_end());
; 1214 : 			_CATCH_ALL
; 1215 : 			for (; 0 < _Count; --_Count)
; 1216 : 				pop_back();	// undo inserts
; 1217 : 			_RERAISE;
; 1218 : 			_CATCH_END
; 1219 : 			}
; 1220 : 		else
; 1221 : 			while (_Newsize < this->_Mysize)
; 1222 : 				pop_back();
; 1223 : 		}
; 1224 : 
; 1225 : 	void resize(size_type _Newsize, const _Ty& _Val)
; 1226 : 		{	// determine new length, padding with _Val elements as needed
; 1227 : 		if (this->_Mysize < _Newsize)
; 1228 : 			_Insert_n(_Unchecked_end(), _Newsize - this->_Mysize, _Val);
; 1229 : 		else
; 1230 : 			while (_Newsize < this->_Mysize)
; 1231 : 				pop_back();
; 1232 : 		}
; 1233 : 
; 1234 : 	size_type size() const _NOEXCEPT
; 1235 : 		{	// return length of sequence
; 1236 : 		return (this->_Mysize);
; 1237 : 		}
; 1238 : 
; 1239 : 	size_type max_size() const _NOEXCEPT
; 1240 : 		{	// return maximum possible length of sequence
; 1241 : 		return (this->_Getal().max_size());
; 1242 : 		}
; 1243 : 
; 1244 : 	bool empty() const _NOEXCEPT
; 1245 : 		{	// test if sequence is empty
; 1246 : 		return (this->_Mysize == 0);
; 1247 : 		}
; 1248 : 
; 1249 : 	allocator_type get_allocator() const _NOEXCEPT
; 1250 : 		{	// return allocator object for values
; 1251 : 		return (this->_Getal());
; 1252 : 		}
; 1253 : 
; 1254 : 	reference front()
; 1255 : 		{	// return first element of mutable sequence
; 1256 : 		return (*begin());
; 1257 : 		}
; 1258 : 
; 1259 : 	const_reference front() const
; 1260 : 		{	// return first element of nonmutable sequence
; 1261 : 		return (*begin());
; 1262 : 		}
; 1263 : 
; 1264 : 	reference back()
; 1265 : 		{	// return last element of mutable sequence
; 1266 : 		return (*(--end()));
; 1267 : 		}
; 1268 : 
; 1269 : 	const_reference back() const
; 1270 : 		{	// return last element of nonmutable sequence
; 1271 : 		return (*(--end()));
; 1272 : 		}
; 1273 : 
; 1274 : 	void push_front(const _Ty& _Val)
; 1275 : 		{	// insert element at beginning
; 1276 : 		_Insert(_Unchecked_begin(), _Val);
; 1277 : 		}
; 1278 : 
; 1279 : 	void pop_front()
; 1280 : 		{	// erase element at beginning
; 1281 : 		erase(begin());
; 1282 : 		}
; 1283 : 
; 1284 : 	void push_back(const _Ty& _Val)
; 1285 : 		{	// insert element at end
; 1286 : 		_Insert(_Unchecked_end(), _Val);
; 1287 : 		}
; 1288 : 
; 1289 : 	void pop_back()
; 1290 : 		{	// erase element at end
; 1291 : 		erase(--end());
; 1292 : 		}
; 1293 : 
; 1294 : 	template<class _Iter>
; 1295 : 		typename enable_if<_Is_iterator<_Iter>::value,
; 1296 : 			void>::type
; 1297 : 		assign(_Iter _First, _Iter _Last)
; 1298 : 		{	// assign [_First, _Last), input iterators
; 1299 : 		iterator _Old = begin();
; 1300 : 		_TRY_BEGIN
; 1301 : 		for (; _First != _Last && _Old != end(); ++_First, ++_Old)
; 1302 : 			_Reusenode(_Old, *_First);
; 1303 : 		for (; _First != _Last; ++_First)
; 1304 : 			_Insert(_Unchecked_end(), *_First);
; 1305 : 		_CATCH_ALL
; 1306 : 		clear();
; 1307 : 		_RERAISE;
; 1308 : 		_CATCH_END
; 1309 : 		erase(_Old, end());
; 1310 : 		}
; 1311 : 
; 1312 : 	template<class _TArg>
; 1313 : 		void _Reusenode(iterator _Where, _TArg&& _Arg)
; 1314 : 		{	// destroy the element at _Where and reconstruct from _Arg
; 1315 : 		_TRY_BEGIN
; 1316 : 		this->_Getal().destroy(
; 1317 : 			_STD addressof(this->_Myval(_Where._Ptr)));
; 1318 : 		this->_Getal().construct(
; 1319 : 			_STD addressof(this->_Myval(_Where._Ptr)),
; 1320 : 			_STD forward<_TArg>(_Arg));
; 1321 : 		_CATCH_ALL
; 1322 : 		_Unlinknode(_Where);
; 1323 : 		this->_Getal().destroy(
; 1324 : 			_STD addressof(this->_Nextnode(_Where._Ptr)));
; 1325 : 		this->_Getal().destroy(
; 1326 : 			_STD addressof(this->_Prevnode(_Where._Ptr)));
; 1327 : 		this->_Getal().deallocate(_Where._Ptr, 1);
; 1328 : 		_RERAISE;
; 1329 : 		_CATCH_END
; 1330 : 		}
; 1331 : 
; 1332 : 	void assign(size_type _Count, const _Ty& _Val)
; 1333 : 		{	// assign _Count * _Val
; 1334 : 		clear();
; 1335 : 		_Insert_n(_Unchecked_begin(), _Count, _Val);
; 1336 : 		}
; 1337 : 
; 1338 : 	iterator insert(const_iterator _Where, const _Ty& _Val)
; 1339 : 		{	// insert _Val at _Where
; 1340 :  #if _ITERATOR_DEBUG_LEVEL == 2
; 1341 : 		if (_Where._Getcont() != this)
; 1342 : 			_DEBUG_ERROR("list insert iterator outside range");
; 1343 :  #endif /* _ITERATOR_DEBUG_LEVEL == 2 */
; 1344 : 
; 1345 : 		_Insert(_Where._Unchecked(), _Val);
; 1346 : 		return (_Make_iter(--_Where));
; 1347 : 		}
; 1348 : 
; 1349 : 	iterator insert(const_iterator _Where, size_type _Count, const _Ty& _Val)
; 1350 : 		{	// insert _Count * _Val at _Where
; 1351 :  #if _ITERATOR_DEBUG_LEVEL == 2
; 1352 : 		if (_Where._Getcont() != this)
; 1353 : 			_DEBUG_ERROR("list insert iterator outside range");
; 1354 :  #endif /* _ITERATOR_DEBUG_LEVEL == 2 */
; 1355 : 
; 1356 : 		iterator _Prev = _Make_iter(_Where);
; 1357 : 		if (_Prev == begin())
; 1358 : 			{	// insert sequence at beginning
; 1359 : 			_Insert_n(_Where._Unchecked(), _Count, _Val);
; 1360 : 			return (begin());
; 1361 : 			}
; 1362 : 		else
; 1363 : 			{	// insert sequence not at beginning
; 1364 : 			--_Prev;
; 1365 : 			_Insert_n(_Where._Unchecked(), _Count, _Val);
; 1366 : 			return (++_Prev);
; 1367 : 			}
; 1368 : 		}
; 1369 : 
; 1370 : 	template<class _Iter>
; 1371 : 		typename enable_if<_Is_iterator<_Iter>::value,
; 1372 : 			iterator>::type
; 1373 : 		insert(const_iterator _Where, _Iter _First, _Iter _Last)
; 1374 : 		{	// insert [_First, _Last) at _Where
; 1375 :  #if _ITERATOR_DEBUG_LEVEL == 2
; 1376 : 		if (_Where._Getcont() != this)
; 1377 : 			_DEBUG_ERROR("list insert iterator outside range");
; 1378 :  #endif /* _ITERATOR_DEBUG_LEVEL == 2 */
; 1379 : 
; 1380 : 		iterator _Prev = _Make_iter(_Where);
; 1381 : 		if (_Prev == begin())
; 1382 : 			{	// insert sequence at beginning
; 1383 : 			_Insert_range(_Where._Unchecked(), _First, _Last,
; 1384 : 				_Iter_cat(_First));
; 1385 : 			return (begin());
; 1386 : 			}
; 1387 : 		else
; 1388 : 			{	// insert sequence not at beginning
; 1389 : 			--_Prev;
; 1390 : 			_Insert_range(_Where._Unchecked(), _First, _Last,
; 1391 : 				_Iter_cat(_First));
; 1392 : 			return (++_Prev);
; 1393 : 			}
; 1394 : 		}
; 1395 : 
; 1396 : 	template<class _Iter>
; 1397 : 		void _Insert_range(_Unchecked_const_iterator _Where,
; 1398 : 			_Iter _First, _Iter _Last, input_iterator_tag)
; 1399 : 		{	// insert [_First, _Last) at _Where, input iterators
; 1400 : 		size_type _Num = 0;
; 1401 : 
; 1402 : 		_TRY_BEGIN
; 1403 : 		for (; _First != _Last; ++_First, ++_Num)
; 1404 : 			_Insert(_Where, *_First);
; 1405 : 		_CATCH_ALL
; 1406 : 		for (; 0 < _Num; --_Num)
; 1407 : 			{	// undo inserts
; 1408 : 			_Unchecked_const_iterator _Before = _Where;
; 1409 : 			_Unchecked_erase(--_Before);
; 1410 : 			}
; 1411 : 		_RERAISE;
; 1412 : 		_CATCH_END
; 1413 : 		}
; 1414 : 
; 1415 : 	template<class _Iter>
; 1416 : 		void _Insert_range(_Unchecked_const_iterator _Where,
; 1417 : 			_Iter _First, _Iter _Last, forward_iterator_tag)
; 1418 : 		{	// insert [_First, _Last) at _Where, forward iterators
; 1419 : 		_DEBUG_RANGE(_First, _Last);
; 1420 : 		_Iter _Next = _First;
; 1421 : 
; 1422 : 		_TRY_BEGIN
; 1423 : 		for (; _First != _Last; ++_First)
; 1424 : 			_Insert(_Where, *_First);
; 1425 : 		_CATCH_ALL
; 1426 : 		for (; _Next != _First; ++_Next)
; 1427 : 			{	// undo inserts
; 1428 : 			_Unchecked_const_iterator _Before = _Where;
; 1429 : 			_Unchecked_erase(--_Before);
; 1430 : 			}
; 1431 : 		_RERAISE;
; 1432 : 		_CATCH_END
; 1433 : 		}
; 1434 : 
; 1435 : 	_Nodeptr _Unlinknode(const_iterator _Where)
; 1436 : 		{	// unlink node at _Where from the list
; 1437 :  #if _ITERATOR_DEBUG_LEVEL == 2
; 1438 : 		if (_Where._Getcont() != this || _Where._Ptr == this->_Myhead)
; 1439 : 			_DEBUG_ERROR("list erase iterator outside range");
; 1440 : 		_Nodeptr _Pnode = (_Where)._Mynode();
; 1441 : 		_Orphan_ptr(*this, _Pnode);
; 1442 : 
; 1443 :  #else /* _ITERATOR_DEBUG_LEVEL == 2 */
; 1444 : 		_Nodeptr _Pnode = (_Where)._Mynode();
; 1445 :  #endif /* _ITERATOR_DEBUG_LEVEL == 2 */
; 1446 : 
; 1447 : 		this->_Nextnode(this->_Prevnode(_Pnode)) =
; 1448 : 			this->_Nextnode(_Pnode);
; 1449 : 		this->_Prevnode(this->_Nextnode(_Pnode)) =
; 1450 : 			this->_Prevnode(_Pnode);
; 1451 : 
; 1452 : 		--this->_Mysize;
; 1453 : 		return (_Pnode);
; 1454 : 		}
; 1455 : 
; 1456 : 	iterator erase(const_iterator _Where)
; 1457 : 		{	// erase element at _Where
; 1458 : 		_Nodeptr _Pnode = _Unlinknode(_Where++);
; 1459 : 		this->_Freenode(_Pnode);
; 1460 : 		return (_Make_iter(_Where));
; 1461 : 		}
; 1462 : 
; 1463 : 	void _Unchecked_erase(_Unchecked_const_iterator _Where)
; 1464 : 		{	// erase element at _Where
; 1465 : 		_Nodeptr _Pnode = _Where._Mynode();
; 1466 : 
; 1467 : 		this->_Nextnode(this->_Prevnode(_Pnode)) =
; 1468 : 			this->_Nextnode(_Pnode);
; 1469 : 		this->_Prevnode(this->_Nextnode(_Pnode)) =
; 1470 : 			this->_Prevnode(_Pnode);
; 1471 : 		this->_Freenode(_Pnode);
; 1472 : 		--this->_Mysize;
; 1473 : 		}
; 1474 : 
; 1475 : 	iterator erase(const_iterator _First, const_iterator _Last)
; 1476 : 		{	// erase [_First, _Last)
; 1477 : 		if (_First == begin() && _Last == end())
; 1478 : 			{	// erase all and return fresh iterator
; 1479 : 			clear();
; 1480 : 			return (end());
; 1481 : 			}
; 1482 : 		else
; 1483 : 			{	// erase subrange
; 1484 : 			while (_First != _Last)
; 1485 : 				_First = erase(_First);
; 1486 : 			return (_Make_iter(_Last));
; 1487 : 			}
; 1488 : 		}
; 1489 : 
; 1490 : 	void clear() _NOEXCEPT
; 1491 : 		{	// erase all
; 1492 :  #if _ITERATOR_DEBUG_LEVEL == 2
; 1493 : 		this->_Orphan_ptr(*this, nullptr);
; 1494 :  #endif /* _ITERATOR_DEBUG_LEVEL == 2 */
; 1495 : 
; 1496 : 		_Nodeptr _Pnode = this->_Nextnode(this->_Myhead);
; 1497 : 		this->_Nextnode(this->_Myhead) = this->_Myhead;
; 1498 : 		this->_Prevnode(this->_Myhead) = this->_Myhead;
; 1499 : 		this->_Mysize = 0;
; 1500 : 
; 1501 : 		for (_Nodeptr _Pnext; _Pnode != this->_Myhead; _Pnode = _Pnext)
; 1502 : 			{	// delete an element
; 1503 : 			_Pnext = this->_Nextnode(_Pnode);
; 1504 : 			this->_Freenode(_Pnode);
; 1505 : 			}
; 1506 : 		}
; 1507 : 
; 1508 : 	void swap(_Myt& _Right)
; 1509 : 		{	// exchange contents with _Right
; 1510 : 		if (this == &_Right)
; 1511 : 			;	// same object, do nothing
; 1512 : 		else if (this->_Getal() == _Right._Getal())
; 1513 : 			{	// same allocator, swap control information
; 1514 : 			this->_Swap_all(_Right);
; 1515 : 			_Swap_adl(this->_Myhead, _Right._Myhead);
; 1516 : 			_STD swap(this->_Mysize, _Right._Mysize);
; 1517 : 			}
; 1518 : 
; 1519 : 		else if (_Alty::propagate_on_container_swap::value)
; 1520 : 			{	// swap allocators and control information
; 1521 : 			this->_Swap_alloc(_Right);
; 1522 : 			_Swap_adl(this->_Myhead, _Right._Myhead);
; 1523 : 			_STD swap(this->_Mysize, _Right._Mysize);
; 1524 : 			}
; 1525 : 
; 1526 : 		else	// containers are incompatible
; 1527 : 
; 1528 :  #if _ITERATOR_DEBUG_LEVEL == 2
; 1529 : 			_DEBUG_ERROR("list containers incompatible for swap");
; 1530 : 
; 1531 :  #else /* ITERATOR_DEBUG_LEVEL == 2 */
; 1532 : 			_XSTD terminate();
; 1533 :  #endif /* ITERATOR_DEBUG_LEVEL == 2 */
; 1534 : 		}
; 1535 : 
; 1536 : 	void splice(const_iterator _Where, _Myt& _Right)
; 1537 : 		{	// splice all of _Right at _Where
; 1538 : 		if (this != &_Right && !_Right.empty())
; 1539 : 			{	// worth splicing, do it
; 1540 : 			_Splice(_Where, _Right, _Right.begin(), _Right.end(),
; 1541 : 				_Right._Mysize);
; 1542 : 			}
; 1543 : 		}
; 1544 : 
; 1545 : 	void splice(const_iterator _Where, _Myt&& _Right)
; 1546 : 		{	// splice all of _Right at _Where
; 1547 : 		splice(_Where, (_Myt&)_Right);
; 1548 : 		}
; 1549 : 
; 1550 : 	void splice(const_iterator _Where, _Myt& _Right,
; 1551 : 		const_iterator _First)
; 1552 : 		{	// splice _Right [_First, _First + 1) at _Where
; 1553 :  #if _ITERATOR_DEBUG_LEVEL == 2
; 1554 : 		if (_First == _Right.end())
; 1555 : 			_DEBUG_ERROR("list splice iterator outside range");
; 1556 : 		else
; 1557 : 
; 1558 :  #else /* _ITERATOR_DEBUG_LEVEL == 2 */
; 1559 : 		if (_First != _Right.end())

	je	SHORT $LN58@move_to_fr

; 240  : 		this->_Ptr = _Mylist::_Nextnode(this->_Ptr);

	mov	rcx, QWORD PTR [rdx]

; 298  : 		return (this->_Ptr == _Right._Ptr);

	cmp	rax, rdx

; 1560 :  #endif /* _ITERATOR_DEBUG_LEVEL == 2 */
; 1561 : 
; 1562 : 			{	// element exists, try splice
; 1563 : 			const_iterator _Last = _First;
; 1564 : 			++_Last;
; 1565 : 			if (this != &_Right
; 1566 : 				|| (_Where != _First && _Where != _Last))

	je	SHORT $LN58@move_to_fr

; 298  : 		return (this->_Ptr == _Right._Ptr);

	cmp	rax, rcx

; 1560 :  #endif /* _ITERATOR_DEBUG_LEVEL == 2 */
; 1561 : 
; 1562 : 			{	// element exists, try splice
; 1563 : 			const_iterator _Last = _First;
; 1564 : 			++_Last;
; 1565 : 			if (this != &_Right
; 1566 : 				|| (_Where != _First && _Where != _Last))

	je	SHORT $LN58@move_to_fr

; 1567 : 				_Splice(_Where, _Right, _First, _Last, 1);
; 1568 : 			}
; 1569 : 		}
; 1570 : 
; 1571 : 	void splice(const_iterator _Where, _Myt&& _Right,
; 1572 : 		const_iterator _First)
; 1573 : 		{	// splice _Right [_First, _First + 1) at _Where
; 1574 : 		splice(_Where, (_Myt&)_Right, _First);
; 1575 : 		}
; 1576 : 
; 1577 : 	void splice(const_iterator _Where,
; 1578 : 		_Myt& _Right, const_iterator _First, const_iterator _Last)
; 1579 : 		{	// splice _Right [_First, _Last) at _Where
; 1580 : 		if (_First != _Last && (this != &_Right || _Where != _Last))
; 1581 : 			{	// worth splicing, do it
; 1582 : 			size_type _Count = 0;
; 1583 : 
; 1584 : 			if (this == &_Right)
; 1585 : 				;	// just rearrange this list
; 1586 : 			else if (_First == _Right.begin() && _Last == _Right.end())
; 1587 : 				_Count = _Right._Mysize;	// splice in whole list
; 1588 : 			else
; 1589 : 				{	// count nodes and check for knot
; 1590 : 				const_iterator _Next = _First;
; 1591 : 
; 1592 : 				for (; _Next != _Last; ++_Next, ++_Count)
; 1593 : 					if (_Next == _Right.end())
; 1594 : 						_Xlength_error("list<T> bad splice");
; 1595 : 				}
; 1596 : 			_Splice(_Where, _Right, _First, _Last, _Count);
; 1597 : 			}
; 1598 : 		}
; 1599 : 
; 1600 : 	void splice(const_iterator _Where,
; 1601 : 		_Myt&& _Right, const_iterator _First, const_iterator _Last)
; 1602 : 		{	// splice _Right [_First, _Last) at _Where
; 1603 : 		splice(_Where, (_Myt&)_Right, _First, _Last);
; 1604 : 		}
; 1605 : 
; 1606 : 	void remove(const _Ty& _Val)
; 1607 : 		{	// erase each element matching _Val
; 1608 : 		iterator _Val_it = end();
; 1609 : 
; 1610 : 		for (iterator _First = begin(); _First != end(); )
; 1611 : 			if (*_First == _Val)
; 1612 : 				if (_STD addressof(*_First) == _STD addressof(_Val))
; 1613 : 					_Val_it = _First++;
; 1614 : 				else
; 1615 : 					_First = erase(_First);
; 1616 : 			else
; 1617 : 				++_First;
; 1618 : 
; 1619 : 		if (_Val_it != end())
; 1620 : 			erase(_Val_it);
; 1621 : 		}
; 1622 : 
; 1623 : 	template<class _Pr1>
; 1624 : 		void remove_if(_Pr1 _Pred)
; 1625 : 		{	// erase each element satisfying _Pred
; 1626 : 		for (iterator _First = begin(); _First != end(); )
; 1627 : 			if (_Pred(*_First))
; 1628 : 				_First = erase(_First);
; 1629 : 			else
; 1630 : 				++_First;
; 1631 : 		}
; 1632 : 
; 1633 : 	void unique()
; 1634 : 		{	// erase each element matching previous
; 1635 : 		unique(equal_to<>());
; 1636 : 		}
; 1637 : 
; 1638 : 	template<class _Pr2>
; 1639 : 		void unique(_Pr2 _Pred)
; 1640 : 		{	// erase each element satisfying _Pred with previous
; 1641 : 		const _Nodeptr _Phead = this->_Myhead;
; 1642 : 		_Nodeptr _Pprev = this->_Nextnode(_Phead);
; 1643 : 		_Nodeptr _Pnode = this->_Nextnode(_Pprev);
; 1644 : 
; 1645 : 		while (_Pnode != _Phead)
; 1646 : 			if (_Pred(_Pprev->_Myval, _Pnode->_Myval))
; 1647 : 				{	// match, remove it
; 1648 : 				const _Nodeptr _Perase = _Pnode;
; 1649 : 				_Pnode = this->_Nextnode(_Pnode);
; 1650 : 
; 1651 : 				this->_Nextnode(_Pprev) = _Pnode;
; 1652 : 				this->_Prevnode(_Pnode) = _Pprev;
; 1653 : 				this->_Freenode(_Perase);
; 1654 : 
; 1655 : 				--this->_Mysize;
; 1656 : 				}
; 1657 : 			else
; 1658 : 				{	// no match, advance
; 1659 : 				_Pprev = _Pnode;
; 1660 : 				_Pnode = this->_Nextnode(_Pnode);
; 1661 : 				}
; 1662 : 		}
; 1663 : 
; 1664 : 	void merge(_Myt& _Right)
; 1665 : 		{	// merge in elements from _Right, both ordered by operator<
; 1666 : 		merge(_Right, less<>());
; 1667 : 		}
; 1668 : 
; 1669 : 	void merge(_Myt&& _Right)
; 1670 : 		{	// merge in elements from _Right, both ordered by operator<
; 1671 : 		merge((_Myt&)_Right);
; 1672 : 		}
; 1673 : 
; 1674 : 	template<class _Pr2>
; 1675 : 		void merge(_Myt& _Right, _Pr2 _Pred)
; 1676 : 		{	// merge in elements from _Right, both ordered by _Pred
; 1677 : 		if (&_Right != this)
; 1678 : 			{	// safe to merge, do it
; 1679 : 			iterator _First1 = begin(), _Last1 = end();
; 1680 : 			iterator _First2 = _Right.begin(), _Last2 = _Right.end();
; 1681 : 			_DEBUG_ORDER_PRED(_First1, _Last1, _Pred);
; 1682 : 			_DEBUG_ORDER_PRED(_First2, _Last2, _Pred);
; 1683 : 
; 1684 : 			while (_First1 != _Last1 && _First2 != _Last2)
; 1685 : 				if (_DEBUG_LT_PRED(_Pred, *_First2, *_First1))
; 1686 : 					{	// splice in an element from _Right
; 1687 : 					iterator _Mid2 = _First2;
; 1688 : 					_Splice(_First1, _Right, _First2, ++_Mid2, 1);
; 1689 : 					_First2 = _Mid2;
; 1690 : 					}
; 1691 : 				else
; 1692 : 					++_First1;
; 1693 : 
; 1694 : 			if (_First2 != _Last2)
; 1695 : 				_Splice(_Last1, _Right, _First2, _Last2,
; 1696 : 					_Right._Mysize);	// splice remainder of _Right
; 1697 : 			}
; 1698 : 		}
; 1699 : 
; 1700 : 	template<class _Pr2>
; 1701 : 		void merge(_Myt&& _Right, _Pr2 _Pred)
; 1702 : 		{	// merge in elements from _Right, both ordered by _Pred
; 1703 : 		merge((_Myt&)_Right, _Pred);
; 1704 : 		}
; 1705 : 
; 1706 : 	void sort()
; 1707 : 		{	// order sequence, using operator<
; 1708 : 		sort(less<>());
; 1709 : 		}
; 1710 : 
; 1711 : 	template<class _Pr2>
; 1712 : 		void sort(_Pr2 _Pred)
; 1713 : 		{	// order sequence, using _Pred
; 1714 : 		if (2 <= this->_Mysize)
; 1715 : 			{	// worth sorting, do it
; 1716 : 			const size_t _MAXBINS = 25;
; 1717 : 			_Myt _Templist(this->_Getal()), _Binlist[_MAXBINS + 1];
; 1718 : 			size_t _Maxbin = 0;
; 1719 : 
; 1720 : 			while (!empty())
; 1721 : 				{	// sort another element, using bins
; 1722 : 				_Templist._Splice_same(_Templist.begin(), *this, begin(),
; 1723 : 					++begin(), 1);
; 1724 : 
; 1725 : 				size_t _Bin;
; 1726 : 				for (_Bin = 0; _Bin < _Maxbin && !_Binlist[_Bin].empty();
; 1727 : 					++_Bin)
; 1728 : 					{	// merge into ever larger bins
; 1729 : 					_Binlist[_Bin].merge(_Templist, _Pred);
; 1730 : 					_Binlist[_Bin].swap(_Templist);
; 1731 : 					}
; 1732 : 
; 1733 : 				if (_Bin == _MAXBINS)
; 1734 : 					_Binlist[_Bin - 1].merge(_Templist, _Pred);
; 1735 : 				else
; 1736 : 					{	// spill to new bin, while they last
; 1737 : 					_Binlist[_Bin].swap(_Templist);
; 1738 : 					if (_Bin == _Maxbin)
; 1739 : 						++_Maxbin;
; 1740 : 					}
; 1741 : 				}
; 1742 : 
; 1743 : 			for (size_t _Bin = 1; _Bin < _Maxbin; ++_Bin)
; 1744 : 				_Binlist[_Bin].merge(_Binlist[_Bin - 1],
; 1745 : 					_Pred);	// merge up
; 1746 : 
; 1747 : 			_Analysis_assume_(0 < _Maxbin);
; 1748 : 
; 1749 : 			splice(begin(), _Binlist[_Maxbin - 1]);	// result in last bin
; 1750 : 			}
; 1751 : 		}
; 1752 : 
; 1753 : 	void reverse() _NOEXCEPT
; 1754 : 		{	// reverse sequence
; 1755 : 		const _Nodeptr _Phead = this->_Myhead;
; 1756 : 		_Nodeptr _Pnode = _Phead;
; 1757 : 
; 1758 : 		for (; ; )
; 1759 : 			{	// flip pointers in a node
; 1760 : 			const _Nodeptr _Pnext = this->_Nextnode(_Pnode);
; 1761 : 			this->_Nextnode(_Pnode) = this->_Prevnode(_Pnode);
; 1762 : 			this->_Prevnode(_Pnode) = _Pnext;
; 1763 : 
; 1764 : 			if (_Pnext == _Phead)
; 1765 : 				break;
; 1766 : 			_Pnode = _Pnext;
; 1767 : 			}
; 1768 : 		}
; 1769 : 
; 1770 : 	void _Splice(const_iterator _Where,
; 1771 : 		_Myt& _Right, const_iterator _First, const_iterator _Last,
; 1772 : 		size_type _Count)
; 1773 : 		{	// splice _Right [_First, _Last) before _Where
; 1774 :  #if _ITERATOR_DEBUG_LEVEL == 2
; 1775 : 		if (_Where._Getcont() != this)
; 1776 : 			_DEBUG_ERROR("list splice iterator outside range");
; 1777 : 		if (this->_Getal() != _Right._Getal())
; 1778 : 			_DEBUG_ERROR("list containers incompatible for splice");
; 1779 : 
; 1780 : 		if (this != &_Right)
; 1781 : 			{	// transfer ownership
; 1782 : 			_Lockit _Lock(_LOCK_DEBUG);
; 1783 : 
; 1784 : 			const bool _One = _Count == 1;
; 1785 : 			const bool _All = _Count == _Right.size();
; 1786 : 			const bool _Some = !_One && !_All;
; 1787 : 
; 1788 : 			_Nodeptr _Oldprev = _First._Ptr->_Prev;
; 1789 : 
; 1790 : 			if (_Some)
; 1791 : 				for (_Nodeptr _Ptr = _First._Ptr; _Ptr != _Last._Ptr;
; 1792 : 					_Ptr = _Ptr->_Next)
; 1793 : 					{	// mark _Prev pointers
; 1794 : 					_Ptr->_Prev = 0;
; 1795 : 					}
; 1796 : 
; 1797 : 			const_iterator **_Pnext = (const_iterator **)_Right._Getpfirst();
; 1798 : 
; 1799 : 			if (_Pnext == 0)
; 1800 : 				_DEBUG_ERROR("list container corrupted");
; 1801 : 
; 1802 : 			while (*_Pnext != 0)
; 1803 : 				{	// check the iterator
; 1804 : 				const_iterator& _Iter = **_Pnext;
; 1805 : 
; 1806 : 				if ((_One && _Iter._Ptr == _First._Ptr)
; 1807 : 					|| (_All && _Iter._Ptr != _Right._Myhead)
; 1808 : 					|| (_Some && _Iter._Ptr->_Prev == 0))
; 1809 : 					{	// adopt the iterator
; 1810 : 					*_Pnext = (const_iterator *)_Iter._Mynextiter;
; 1811 : 					_Iter._Myproxy = this->_Myproxy;
; 1812 : 					_Iter._Mynextiter = this->_Myproxy->_Myfirstiter;
; 1813 : 					this->_Myproxy->_Myfirstiter = &_Iter;
; 1814 : 					}
; 1815 : 				else
; 1816 : 					{	// skip the iterator
; 1817 : 					_Pnext = (const_iterator **)_Iter._Getpnext();
; 1818 : 					}
; 1819 : 				}
; 1820 : 
; 1821 : 			if (_Some)
; 1822 : 				for (_Nodeptr _Ptr = _First._Ptr; _Ptr != _Last._Ptr;
; 1823 : 					_Ptr = _Ptr->_Next)
; 1824 : 					{	// restore _Prev pointers
; 1825 : 					_Ptr->_Prev = _Oldprev;
; 1826 : 					_Oldprev = _Ptr;
; 1827 : 					}
; 1828 : 			}
; 1829 : 
; 1830 :  #else /* _ITERATOR_DEBUG_LEVEL == 2 */
; 1831 : 		if (this->_Getal() != _Right._Getal())
; 1832 : 			_XSTD terminate();
; 1833 :  #endif /* _ITERATOR_DEBUG_LEVEL == 2 */
; 1834 : 
; 1835 : 		_Splice_same(_Where, _Right, _First, _Last, _Count);

	mov	QWORD PTR [rsp+32], rcx
	mov	r9, rdx
	mov	r8, r10
	mov	rdx, rax
	mov	rcx, r10
	call	?_Splice_same@?$list@U?$_vector3@M@@V?$xalloc@U?$_vector3@M@@@@@std@@QEAAXV?$_List_const_iterator@V?$_List_val@U?$_List_simple_types@U?$_vector3@M@@@std@@@std@@@2@AEAV12@00_K@Z ; std::list<_vector3<float>,xalloc<_vector3<float> > >::_Splice_same
$LN58@move_to_fr:
; File c:\users\nummer\documents\github\olr-3.0\src\xray\xrcore\_sphere.cpp

; 131  : }

	add	rsp, 56					; 00000038H
	ret	0
?move_to_front@Miniball@@AEAAXV?$_List_iterator@V?$_List_val@U?$_List_simple_types@U?$_vector3@M@@@std@@@std@@@std@@@Z ENDP ; Miniball::move_to_front
_TEXT	ENDS
; Function compile flags: /Ogtpy
; File c:\users\nummer\documents\github\olr-3.0\src\xray\xrcore\_sphere.cpp
; File c:\program files (x86)\microsoft visual studio 12.0\vc\include\list
; File c:\users\nummer\documents\github\olr-3.0\src\xray\xrcore\_sphere.cpp
; File c:\program files (x86)\microsoft visual studio 12.0\vc\include\list
; File c:\users\nummer\documents\github\olr-3.0\src\xray\xrcore\_sphere.cpp
; File c:\program files (x86)\microsoft visual studio 12.0\vc\include\list
; File c:\users\nummer\documents\github\olr-3.0\src\xray\xrcore\_sphere.cpp
; File c:\users\nummer\documents\github\olr-3.0\src\xray\xrcore\_vector3d.h
; File c:\users\nummer\documents\github\olr-3.0\src\xray\xrcore\_sphere.cpp
; File c:\program files (x86)\microsoft visual studio 12.0\vc\include\list
; File c:\users\nummer\documents\github\olr-3.0\src\xray\xrcore\_sphere.cpp
; File c:\program files (x86)\microsoft visual studio 12.0\vc\include\list
; File c:\users\nummer\documents\github\olr-3.0\src\xray\xrcore\_sphere.cpp
; File c:\program files (x86)\microsoft visual studio 12.0\vc\include\list
; File c:\users\nummer\documents\github\olr-3.0\src\xray\xrcore\_sphere.cpp
; File c:\program files (x86)\microsoft visual studio 12.0\vc\include\list
; File c:\users\nummer\documents\github\olr-3.0\src\xray\xrcore\_sphere.cpp
; File c:\program files (x86)\microsoft visual studio 12.0\vc\include\list
; File c:\users\nummer\documents\github\olr-3.0\src\xray\xrcore\_sphere.cpp
; File c:\program files (x86)\microsoft visual studio 12.0\vc\include\list
; File c:\users\nummer\documents\github\olr-3.0\src\xray\xrcore\_sphere.cpp
_TEXT	SEGMENT
this$ = 144
i$ = 152
?pivot_mb@Miniball@@AEAAXV?$_List_iterator@V?$_List_val@U?$_List_simple_types@U?$_vector3@M@@@std@@@std@@@std@@@Z PROC ; Miniball::pivot_mb

; 135  : {

$LN172:
	mov	rax, rsp
	mov	QWORD PTR [rax+24], rbx
	mov	QWORD PTR [rax+32], rdi
	mov	QWORD PTR [rax+16], rdx
	push	r14
	sub	rsp, 128				; 00000080H
	movaps	XMMWORD PTR [rax-24], xmm6
	movaps	XMMWORD PTR [rax-40], xmm7
	movaps	XMMWORD PTR [rax-56], xmm8
	mov	r14, rcx
	movaps	XMMWORD PTR [rax-72], xmm9
	movaps	XMMWORD PTR [rax-88], xmm10
; File c:\program files (x86)\microsoft visual studio 12.0\vc\include\list

; 533  : 		return ((_Nodepref)_Pnode->_Next);

	mov	rax, QWORD PTR [rcx]
	mov	rbx, QWORD PTR [rax]
; File c:\users\nummer\documents\github\olr-3.0\src\xray\xrcore\_sphere.cpp

; 136  : 	It t = ++L.begin();

	mov	rbx, QWORD PTR [rbx]

; 137  : 	mtf_mb (t);

	mov	rdx, rbx
	call	?mtf_mb@Miniball@@AEAAXV?$_List_iterator@V?$_List_val@U?$_List_simple_types@U?$_vector3@M@@@std@@@std@@@std@@@Z ; Miniball::mtf_mb
	mov	QWORD PTR [rsp+144], rsi
	movss	xmm10, DWORD PTR __xmm@80000000800000008000000080000000
	xorps	xmm9, xmm9
	npad	8
$LL6@pivot_mb:
; File c:\program files (x86)\microsoft visual studio 12.0\vc\include\list

; 533  : 		return ((_Nodepref)_Pnode->_Next);

	mov	rdi, QWORD PTR [r14]

; 298  : 		return (this->_Ptr == _Right._Ptr);

	mov	rax, QWORD PTR i$[rsp]
; File c:\users\nummer\documents\github\olr-3.0\src\xray\xrcore\_sphere.cpp

; 226  : 	return current_c;

	mov	rcx, QWORD PTR [r14+232]

; 227  : }
; 228  : 
; 229  : float Basis::squared_radius() const
; 230  : {
; 231  : 	return current_sqr_r;

	movss	xmm8, DWORD PTR [r14+240]

; 155  : 
; 156  : float Miniball::max_excess (It t, It i, It& pivot) const
; 157  : {
; 158  : 	const	Fvector* pCenter = B.center();
; 159  : 	float				sqr_r	= B.squared_radius();
; 160  : 
; 161  : 	float e, max_e = 0;

	movaps	xmm3, xmm9
; File c:\program files (x86)\microsoft visual studio 12.0\vc\include\list

; 44   : 		{	// construct with node pointer _Pnode

	mov	rdi, QWORD PTR [rdi]

; 298  : 		return (this->_Ptr == _Right._Ptr);

	cmp	rbx, rax
; File c:\users\nummer\documents\github\olr-3.0\src\xray\xrcore\_sphere.cpp

; 163  : 	for (It k=t; k!=i; ++k)

	je	$LN1@pivot_mb
; File c:\users\nummer\documents\github\olr-3.0\src\xray\xrcore\_vector3d.h

; 287  : 	{	return (x-v.x)*(x-v.x) + (y-v.y)*(y-v.y) + (z-v.z)*(z-v.z);	}

	movss	xmm5, DWORD PTR [rcx+4]
	movss	xmm6, DWORD PTR [rcx]
	movss	xmm7, DWORD PTR [rcx+8]
	movaps	xmm4, xmm8
	xorps	xmm4, xmm10
$LL51@pivot_mb:
	movss	xmm1, DWORD PTR [rbx+20]
	movss	xmm2, DWORD PTR [rbx+16]
	movss	xmm0, DWORD PTR [rbx+24]
	subss	xmm2, xmm6
	subss	xmm1, xmm5
	subss	xmm0, xmm7
	mulss	xmm2, xmm2
	mulss	xmm1, xmm1
	mulss	xmm0, xmm0
	addss	xmm2, xmm1
	addss	xmm2, xmm0
; File c:\users\nummer\documents\github\olr-3.0\src\xray\xrcore\_sphere.cpp

; 168  : 		e += point.distance_to_sqr(*pCenter);

	addss	xmm2, xmm4

; 169  : 
; 170  : 		if (e > max_e)

	comiss	xmm2, xmm3
	jbe	SHORT $LN41@pivot_mb

; 171  : 		{
; 172  : 			max_e = e;

	movaps	xmm3, xmm2

; 173  : 			pivot = k;

	mov	rdi, rbx
$LN41@pivot_mb:
; File c:\program files (x86)\microsoft visual studio 12.0\vc\include\list

; 240  : 		this->_Ptr = _Mylist::_Nextnode(this->_Ptr);

	mov	rbx, QWORD PTR [rbx]

; 298  : 		return (this->_Ptr == _Right._Ptr);

	cmp	rbx, rax
; File c:\users\nummer\documents\github\olr-3.0\src\xray\xrcore\_sphere.cpp

; 163  : 	for (It k=t; k!=i; ++k)

	jne	SHORT $LL51@pivot_mb

; 138  : 	float max_e, old_sqr_r = 0;
; 139  : 	do 
; 140  : 	{
; 141  : 		It pivot = L.begin();
; 142  : 		max_e = max_excess (t, i, pivot);
; 143  : 		if (max_e > 0) 

	comiss	xmm3, xmm9
	jbe	$LN1@pivot_mb

; 144  : 		{
; 145  : 			t = support_end;

	mov	rbx, QWORD PTR [r14+248]
; File c:\program files (x86)\microsoft visual studio 12.0\vc\include\list

; 298  : 		return (this->_Ptr == _Right._Ptr);

	cmp	rbx, rdi
; File c:\users\nummer\documents\github\olr-3.0\src\xray\xrcore\_sphere.cpp

; 146  : 			if (t==pivot) ++t;

	jne	SHORT $LN71@pivot_mb
; File c:\program files (x86)\microsoft visual studio 12.0\vc\include\list

; 240  : 		this->_Ptr = _Mylist::_Nextnode(this->_Ptr);

	mov	rbx, QWORD PTR [rbx]
$LN71@pivot_mb:

; 534  : 		}
; 535  : 
; 536  : 	static _Nodepref _Prevnode(_Nodeptr _Pnode)
; 537  : 		{	// return reference to predecessor pointer in node
; 538  : 		return ((_Nodepref)_Pnode->_Prev);
; 539  : 		}
; 540  : 
; 541  : 	static reference _Myval(_Nodeptr _Pnode)
; 542  : 		{	// return reference to value in node
; 543  : 		return ((reference)_Pnode->_Myval);

	lea	rdx, QWORD PTR [rdi+16]
; File c:\users\nummer\documents\github\olr-3.0\src\xray\xrcore\_sphere.cpp

; 148  : 			B.push (*pivot);

	lea	rcx, QWORD PTR [r14+16]
	call	?push@Basis@@QEAA_NAEBU?$_vector3@M@@@Z	; Basis::push

; 149  : 			mtf_mb (support_end);

	mov	rdx, QWORD PTR [r14+248]
	mov	rcx, r14
	call	?mtf_mb@Miniball@@AEAAXV?$_List_iterator@V?$_List_val@U?$_List_simple_types@U?$_vector3@M@@@std@@@std@@@std@@@Z ; Miniball::mtf_mb

; 232  : }
; 233  : 
; 234  : int Basis::size() const
; 235  : {
; 236  : 	return m;
; 237  : }
; 238  : 
; 239  : int Basis::support_size() const
; 240  : {
; 241  : 	return s;
; 242  : }
; 243  : 
; 244  : float Basis::excess (const Fvector& p) const
; 245  : {
; 246  : 	float e = -current_sqr_r;
; 247  : 	e += p.distance_to_sqr(*current_c);
; 248  : 	return e;
; 249  : }
; 250  : 
; 251  : void Basis::reset ()
; 252  : {
; 253  : 	m = s = 0;
; 254  : 	// we misuse c[0] for the center of the empty sphere
; 255  : 	c[0].set(0,0,0);
; 256  : 	current_c = c;
; 257  : 	current_sqr_r = -1;
; 258  : }
; 259  : 
; 260  : 
; 261  : Basis::Basis ()
; 262  : {
; 263  : 	reset();
; 264  : }
; 265  : 
; 266  : 
; 267  : void Basis::pop ()
; 268  : {
; 269  : 	--m;

	dec	DWORD PTR [r14+20]
; File c:\program files (x86)\microsoft visual studio 12.0\vc\include\list

; 298  : 		return (this->_Ptr == _Right._Ptr);

	cmp	QWORD PTR [r14+248], rdi
; File c:\users\nummer\documents\github\olr-3.0\src\xray\xrcore\_sphere.cpp

; 128  : 	if (support_end == j)

	jne	SHORT $LN94@pivot_mb
; File c:\program files (x86)\microsoft visual studio 12.0\vc\include\list

; 533  : 		return ((_Nodepref)_Pnode->_Next);

	mov	rax, QWORD PTR [r14+248]

; 240  : 		this->_Ptr = _Mylist::_Nextnode(this->_Ptr);

	mov	rcx, QWORD PTR [rax]
	mov	QWORD PTR [r14+248], rcx
$LN94@pivot_mb:

; 533  : 		return ((_Nodepref)_Pnode->_Next);

	mov	rdx, QWORD PTR [r14]
; File c:\users\nummer\documents\github\olr-3.0\src\xray\xrcore\_sphere.cpp

; 130  : 	L.splice (L.begin(), L, j);

	mov	rdx, QWORD PTR [rdx]
; File c:\program files (x86)\microsoft visual studio 12.0\vc\include\list

; 298  : 		return (this->_Ptr == _Right._Ptr);

	cmp	rdi, QWORD PTR [r14]

; 544  : 		}
; 545  : 
; 546  : 	_Nodeptr _Myhead;	// pointer to head node
; 547  : 	size_type _Mysize;	// number of elements
; 548  : 	};
; 549  : 
; 550  : 		// TEMPLATE CLASS _List_alloc
; 551  : template<bool _Al_has_storage,
; 552  : 	class _Alloc_types>
; 553  : 	class _List_alloc
; 554  : 		: public _List_val<typename _Alloc_types::_Val_types>
; 555  : 	{	// base class for list to hold allocator with storage
; 556  : public:
; 557  : 	typename _Alloc_types::_Alnod_type _Alnod;	// allocator object
; 558  : 
; 559  : 	typedef _List_alloc<_Al_has_storage, _Alloc_types> _Myt;
; 560  : 	typedef typename _Alloc_types::_Alloc _Alloc;
; 561  : 	typedef typename _Alloc_types::_Alnod_type _Alty;
; 562  : 	typedef typename _Alloc_types::_Node _Node;
; 563  : 	typedef typename _Alloc_types::_Nodeptr _Nodeptr;
; 564  : 
; 565  :  #if _ITERATOR_DEBUG_LEVEL == 0
; 566  : 	_List_alloc(const _Alloc& _Al = _Alloc())
; 567  : 		: _Alnod(_Al)
; 568  : 		{	// construct head node, allocator from _Al
; 569  : 		this->_Myhead = _Buyheadnode();
; 570  : 		}
; 571  : 
; 572  : 	~_List_alloc() _NOEXCEPT
; 573  : 		{	// destroy head node
; 574  : 		_Freeheadnode(this->_Myhead);
; 575  : 		}
; 576  : 
; 577  : 	void _Change_alloc(const _Alty& _Al)
; 578  : 		{	// replace old allocator
; 579  : 		this->_Alnod = _Al;
; 580  : 		}
; 581  : 
; 582  : 	void _Swap_alloc(_Myt& _Right)
; 583  : 		{	// swap allocators
; 584  : 		_Swap_adl(this->_Alnod, _Right._Alnod);
; 585  : 		}
; 586  : 
; 587  :  #else /* _ITERATOR_DEBUG_LEVEL == 0 */
; 588  : 	_List_alloc(const _Alloc& _Al = _Alloc())
; 589  : 		: _Alnod(_Al)
; 590  : 		{	// construct head node, allocator from _Al
; 591  : 		this->_Myhead = _Buyheadnode();
; 592  : 		_TRY_BEGIN
; 593  : 		_Alloc_proxy();
; 594  : 		_CATCH_ALL
; 595  : 		_Freeheadnode(this->_Myhead);
; 596  : 		_RERAISE;
; 597  : 		_CATCH_END
; 598  : 		}
; 599  : 
; 600  : 	~_List_alloc() _NOEXCEPT
; 601  : 		{	// destroy proxy
; 602  : 		_Freeheadnode(this->_Myhead);
; 603  : 		_Free_proxy();
; 604  : 		}
; 605  : 
; 606  : 	void _Change_alloc(const _Alty& _Al)
; 607  : 		{	// replace old allocator
; 608  : 		_Free_proxy();
; 609  : 		this->_Alnod = _Al;
; 610  : 		_Alloc_proxy();
; 611  : 		}
; 612  : 
; 613  : 	void _Swap_alloc(_Myt& _Right)
; 614  : 		{	// swap allocators
; 615  : 		_Swap_adl(this->_Alnod, _Right._Alnod);
; 616  : 		_Swap_adl(this->_Myproxy, _Right._Myproxy);
; 617  : 		}
; 618  : 
; 619  : 	void _Alloc_proxy()
; 620  : 		{	// construct proxy from _Alnod
; 621  : 		typename _Alty::template rebind<_Container_proxy>::other
; 622  : 			_Alproxy(this->_Alnod);
; 623  : 		this->_Myproxy = _Alproxy.allocate(1);
; 624  : 		_Alproxy.construct(this->_Myproxy, _Container_proxy());
; 625  : 		this->_Myproxy->_Mycont = this;
; 626  : 		}
; 627  : 
; 628  : 	void _Free_proxy()
; 629  : 		{	// destroy proxy
; 630  : 		typename _Alty::template rebind<_Container_proxy>::other
; 631  : 			_Alproxy(this->_Alnod);
; 632  : 		this->_Orphan_all();
; 633  : 		_Alproxy.destroy(this->_Myproxy);
; 634  : 		_Alproxy.deallocate(this->_Myproxy, 1);
; 635  : 		this->_Myproxy = 0;
; 636  : 		}
; 637  :  #endif /* _ITERATOR_DEBUG_LEVEL == 0 */
; 638  : 
; 639  : 	_Nodeptr _Buyheadnode()
; 640  : 		{	// get head node using current allocator
; 641  : 		return (_Buynode0(_Nodeptr(), _Nodeptr()));
; 642  : 		}
; 643  : 
; 644  : 	void _Freeheadnode(_Nodeptr _Pnode)
; 645  : 		{	// free head node using current allocator
; 646  : 		this->_Alnod.destroy(
; 647  : 			_STD addressof(this->_Nextnode(_Pnode)));
; 648  : 		this->_Alnod.destroy(
; 649  : 			_STD addressof(this->_Prevnode(_Pnode)));
; 650  : 		this->_Alnod.deallocate(_Pnode, 1);
; 651  : 		}
; 652  : 
; 653  : 	_Nodeptr _Buynode0(_Nodeptr _Next,
; 654  : 		_Nodeptr _Prev)
; 655  : 		{	// allocate a node and set links
; 656  : 		_Nodeptr _Pnode = this->_Alnod.allocate(1);
; 657  : 
; 658  : 		if (_Next == _Nodeptr())
; 659  : 			{	// point at self
; 660  : 			_Next = _Pnode;
; 661  : 			_Prev = _Pnode;
; 662  : 			}
; 663  : 		_TRY_BEGIN
; 664  : 		this->_Alnod.construct(
; 665  : 			_STD addressof(this->_Nextnode(_Pnode)), _Next);
; 666  : 		this->_Alnod.construct(
; 667  : 			_STD addressof(this->_Prevnode(_Pnode)), _Prev);
; 668  : 		_CATCH_ALL
; 669  : 		this->_Alnod.deallocate(_Pnode, 1);
; 670  : 		_RERAISE;
; 671  : 		_CATCH_END
; 672  : 
; 673  : 		return (_Pnode);
; 674  : 		}
; 675  : 
; 676  : 	_Alty& _Getal()
; 677  : 		{	// get reference to allocator
; 678  : 		return (this->_Alnod);
; 679  : 		}
; 680  : 
; 681  : 	const _Alty& _Getal() const
; 682  : 		{	// get reference to allocator
; 683  : 		return (this->_Alnod);
; 684  : 		}
; 685  : 	};
; 686  : 
; 687  : 		// TEMPLATE CLASS _List_alloc
; 688  : template<class _Alloc_types>
; 689  : 	class _List_alloc<false, _Alloc_types>
; 690  : 		: public _List_val<typename _Alloc_types::_Val_types>
; 691  : 	{	// base class for list to hold allocator with no storage
; 692  : public:
; 693  : 	typedef _List_alloc<false, _Alloc_types> _Myt;
; 694  : 	typedef typename _Alloc_types::_Alloc _Alloc;
; 695  : 	typedef typename _Alloc_types::_Alnod_type _Alty;
; 696  : 	typedef typename _Alloc_types::_Node _Node;
; 697  : 	typedef typename _Alloc_types::_Nodeptr _Nodeptr;
; 698  : 
; 699  :  #if _ITERATOR_DEBUG_LEVEL == 0
; 700  : 	_List_alloc(const _Alloc& = _Alloc())
; 701  : 		{	// construct head node, allocator from _Al
; 702  : 		this->_Myhead = _Buyheadnode();
; 703  : 		}
; 704  : 
; 705  : 	~_List_alloc() _NOEXCEPT
; 706  : 		{	// destroy head node
; 707  : 		_Freeheadnode(this->_Myhead);
; 708  : 		}
; 709  : 
; 710  : 	void _Change_alloc(const _Alty&)
; 711  : 		{	// replace old allocator
; 712  : 		}
; 713  : 
; 714  : 	void _Swap_alloc(_Myt&)
; 715  : 		{	// swap allocators
; 716  : 		}
; 717  : 
; 718  :  #else /* _ITERATOR_DEBUG_LEVEL == 0 */
; 719  : 	_List_alloc(const _Alloc& = _Alloc())
; 720  : 		{	// construct allocators from _Al
; 721  : 		this->_Myhead = _Buyheadnode();
; 722  : 		_TRY_BEGIN
; 723  : 		_Alloc_proxy();
; 724  : 		_CATCH_ALL
; 725  : 		_Freeheadnode(this->_Myhead);
; 726  : 		_RERAISE;
; 727  : 		_CATCH_END
; 728  : 		}
; 729  : 
; 730  : 	~_List_alloc() _NOEXCEPT
; 731  : 		{	// destroy proxy
; 732  : 		_Freeheadnode(this->_Myhead);
; 733  : 		_Free_proxy();
; 734  : 		}
; 735  : 
; 736  : 	void _Change_alloc(const _Alty&)
; 737  : 		{	// replace old allocator
; 738  : 		}
; 739  : 
; 740  : 	void _Swap_alloc(_Myt& _Right)
; 741  : 		{	// swap allocators
; 742  : 		_Swap_adl(this->_Myproxy, _Right._Myproxy);
; 743  : 		}
; 744  : 
; 745  : 	void _Alloc_proxy()
; 746  : 		{	// construct proxy from _Alnod
; 747  : 		typename _Alty::template rebind<_Container_proxy>::other
; 748  : 			_Alproxy;
; 749  : 		this->_Myproxy = _Alproxy.allocate(1);
; 750  : 		_Alproxy.construct(this->_Myproxy, _Container_proxy());
; 751  : 		this->_Myproxy->_Mycont = this;
; 752  : 		}
; 753  : 
; 754  : 	void _Free_proxy()
; 755  : 		{	// destroy proxy
; 756  : 		typename _Alty::template rebind<_Container_proxy>::other
; 757  : 			_Alproxy;
; 758  : 		this->_Orphan_all();
; 759  : 		_Alproxy.destroy(this->_Myproxy);
; 760  : 		_Alproxy.deallocate(this->_Myproxy, 1);
; 761  : 		this->_Myproxy = 0;
; 762  : 		}
; 763  :  #endif /* _ITERATOR_DEBUG_LEVEL == 0 */
; 764  : 
; 765  : 	_Nodeptr _Buyheadnode()
; 766  : 		{	// get head node using current allocator
; 767  : 		return (_Buynode0(_Nodeptr(), _Nodeptr()));
; 768  : 		}
; 769  : 
; 770  : 	void _Freeheadnode(_Nodeptr _Pnode)
; 771  : 		{	// free head node using current allocator
; 772  : 		this->_Getal().destroy(
; 773  : 			_STD addressof(this->_Nextnode(_Pnode)));
; 774  : 		this->_Getal().destroy(
; 775  : 			_STD addressof(this->_Prevnode(_Pnode)));
; 776  : 		this->_Getal().deallocate(_Pnode, 1);
; 777  : 		}
; 778  : 
; 779  : 	_Nodeptr _Buynode0(_Nodeptr _Next,
; 780  : 		_Nodeptr _Prev)
; 781  : 		{	// allocate a node and set links
; 782  : 		_Nodeptr _Pnode = this->_Getal().allocate(1);
; 783  : 
; 784  : 		if (_Next == _Nodeptr())
; 785  : 			{	// point at self
; 786  : 			_Next = _Pnode;
; 787  : 			_Prev = _Pnode;
; 788  : 			}
; 789  : 		_TRY_BEGIN
; 790  : 		this->_Getal().construct(
; 791  : 			_STD addressof(this->_Nextnode(_Pnode)), _Next);
; 792  : 		this->_Getal().construct(
; 793  : 			_STD addressof(this->_Prevnode(_Pnode)), _Prev);
; 794  : 		_CATCH_ALL
; 795  : 		this->_Getal().deallocate(_Pnode, 1);
; 796  : 		_RERAISE;
; 797  : 		_CATCH_END
; 798  : 
; 799  : 		return (_Pnode);
; 800  : 		}
; 801  : 
; 802  : 	_Alty _Getal() const
; 803  : 		{	// get reference to allocator
; 804  : 		return (_Alty());
; 805  : 		}
; 806  : 	};
; 807  : 
; 808  : 		// TEMPLATE CLASS _List_buy
; 809  : template<class _Ty,
; 810  : 	class _Alloc>
; 811  : 	class _List_buy
; 812  : 		: public _List_alloc<!is_empty<_Alloc>::value,
; 813  : 			_List_base_types<_Ty, _Alloc> >
; 814  : 	{	// base class for list to hold buynode/freenode functions
; 815  : public:
; 816  : 	typedef _List_alloc<!is_empty<_Alloc>::value,
; 817  : 		_List_base_types<_Ty, _Alloc> > _Mybase;
; 818  : 	typedef typename _Mybase::_Alty _Alty;
; 819  : 	typedef typename _Mybase::_Nodeptr _Nodeptr;
; 820  : 
; 821  : 	_List_buy(const _Alloc& _Al = _Alloc())
; 822  : 		: _Mybase(_Al)
; 823  : 		{	// construct from allocator
; 824  : 		}
; 825  : 
; 826  : 	template<class... _Valty>
; 827  : 		_Nodeptr _Buynode(_Nodeptr _Next, _Nodeptr _Prev,
; 828  : 			_Valty&&... _Val)
; 829  : 		{	// allocate a node and set links and value
; 830  : 		_Nodeptr _Pnode = this->_Buynode0(_Next, _Prev);
; 831  : 
; 832  : 		_TRY_BEGIN
; 833  : 		this->_Getal().construct(
; 834  : 			_STD addressof(this->_Myval(_Pnode)),
; 835  : 				_STD forward<_Valty>(_Val)...);
; 836  : 		_CATCH_ALL
; 837  : 		this->_Getal().deallocate(_Pnode, 1);
; 838  : 		_RERAISE;
; 839  : 		_CATCH_END
; 840  : 
; 841  : 		return (_Pnode);
; 842  : 		}
; 843  : 
; 844  : 
; 845  : 	void _Freenode(_Nodeptr _Pnode)
; 846  : 		{	// give node back
; 847  : 		this->_Getal().destroy(
; 848  : 			_STD addressof(this->_Nextnode(_Pnode)));
; 849  : 		this->_Getal().destroy(
; 850  : 			_STD addressof(this->_Prevnode(_Pnode)));
; 851  : 		this->_Getal().destroy(
; 852  : 			_STD addressof(this->_Myval(_Pnode)));
; 853  : 		this->_Getal().deallocate(_Pnode, 1);
; 854  : 		}
; 855  : 	};
; 856  : 
; 857  : 		// TEMPLATE CLASS list
; 858  : template<class _Ty,
; 859  : 	class _Alloc = allocator<_Ty> >
; 860  : 	class list
; 861  : 		: public _List_buy<_Ty, _Alloc>
; 862  : 	{	// bidirectional linked list
; 863  : public:
; 864  : 	typedef list<_Ty, _Alloc> _Myt;
; 865  : 	typedef _List_buy<_Ty, _Alloc> _Mybase;
; 866  : 	typedef typename _Mybase::_Node _Node;
; 867  : 	typedef typename _Mybase::_Nodeptr _Nodeptr;
; 868  : 	typedef typename _Mybase::_Alty _Alty;
; 869  : 
; 870  : 	typedef _Alloc allocator_type;
; 871  : 	typedef typename _Mybase::size_type size_type;
; 872  : 	typedef typename _Mybase::difference_type difference_type;
; 873  : 	typedef typename _Mybase::pointer pointer;
; 874  : 	typedef typename _Mybase::const_pointer const_pointer;
; 875  : 	typedef typename _Mybase::reference reference;
; 876  : 	typedef typename _Mybase::const_reference const_reference;
; 877  : 	typedef typename _Mybase::value_type value_type;
; 878  : 
; 879  : 	typedef typename _Mybase::const_iterator const_iterator;
; 880  : 	typedef typename _Mybase::iterator iterator;
; 881  : 	typedef typename _Mybase::_Unchecked_const_iterator
; 882  : 		_Unchecked_const_iterator;
; 883  : 	typedef typename _Mybase::_Unchecked_iterator
; 884  : 		_Unchecked_iterator;
; 885  : 
; 886  : 	typedef _STD reverse_iterator<iterator> reverse_iterator;
; 887  : 	typedef _STD reverse_iterator<const_iterator> const_reverse_iterator;
; 888  : 
; 889  : 	list()
; 890  : 		: _Mybase()
; 891  : 		{	// construct empty list
; 892  : 		}
; 893  : 
; 894  : 	explicit list(const _Alloc& _Al)
; 895  : 		: _Mybase(_Al)
; 896  : 		{	// construct empty list, allocator
; 897  : 		}
; 898  : 
; 899  : 	explicit list(size_type _Count)
; 900  : 		: _Mybase()
; 901  : 		{	// construct list from _Count * _Ty()
; 902  : 		resize(_Count);
; 903  : 		}
; 904  : 
; 905  : 	list(size_type _Count, const _Ty& _Val)
; 906  : 		: _Mybase()
; 907  : 		{	// construct list from _Count * _Val
; 908  : 		_Construct_n(_Count, _Val);
; 909  : 		}
; 910  : 
; 911  : 	list(size_type _Count, const _Ty& _Val, const _Alloc& _Al)
; 912  : 		: _Mybase(_Al)
; 913  : 		{	// construct list from _Count * _Val, allocator
; 914  : 		_Construct_n(_Count, _Val);
; 915  : 		}
; 916  : 
; 917  : 	list(const _Myt& _Right)
; 918  : 
; 919  : 		: _Mybase(_Right._Getal().select_on_container_copy_construction())
; 920  : 
; 921  : 
; 922  : 		{	// construct list by copying _Right
; 923  : 		_TRY_BEGIN
; 924  : 		insert(begin(), _Right.begin(), _Right.end());
; 925  : 		_CATCH_ALL
; 926  : 		_Tidy();
; 927  : 		_RERAISE;
; 928  : 		_CATCH_END
; 929  : 		}
; 930  : 
; 931  : 	list(const _Myt& _Right, const _Alloc& _Al)
; 932  : 		: _Mybase(_Al)
; 933  : 		{	// construct list by copying _Right, allocator
; 934  : 		_TRY_BEGIN
; 935  : 		insert(begin(), _Right.begin(), _Right.end());
; 936  : 		_CATCH_ALL
; 937  : 		_Tidy();
; 938  : 		_RERAISE;
; 939  : 		_CATCH_END
; 940  : 		}
; 941  : 
; 942  : 	template<class _Iter,
; 943  : 		class = typename enable_if<_Is_iterator<_Iter>::value,
; 944  : 			void>::type>
; 945  : 		list(_Iter _First, _Iter _Last)
; 946  : 		: _Mybase()
; 947  : 		{	// construct list from [_First, _Last)
; 948  : 		_Construct(_First, _Last);
; 949  : 		}
; 950  : 
; 951  : 	template<class _Iter,
; 952  : 		class = typename enable_if<_Is_iterator<_Iter>::value,
; 953  : 			void>::type>
; 954  : 		list(_Iter _First, _Iter _Last, const _Alloc& _Al)
; 955  : 		: _Mybase(_Al)
; 956  : 		{	// construct list, allocator from [_First, _Last)
; 957  : 		_Construct(_First, _Last);
; 958  : 		}
; 959  : 
; 960  : 	template<class _Iter>
; 961  : 		void _Construct(_Iter _First, _Iter _Last)
; 962  : 		{	// construct list from [_First, _Last), input iterators
; 963  : 		_TRY_BEGIN
; 964  : 		insert(begin(), _First, _Last);
; 965  : 		_CATCH_ALL
; 966  : 		_Tidy();
; 967  : 		_RERAISE;
; 968  : 		_CATCH_END
; 969  : 		}
; 970  : 
; 971  : 	void _Construct_n(size_type _Count,
; 972  : 		const _Ty& _Val)
; 973  : 		{	// construct from _Count * _Val
; 974  : 		_TRY_BEGIN
; 975  : 		_Insert_n(_Unchecked_begin(), _Count, _Val);
; 976  : 		_CATCH_ALL
; 977  : 		_Tidy();
; 978  : 		_RERAISE;
; 979  : 		_CATCH_END
; 980  : 		}
; 981  : 
; 982  : 	list(_Myt&& _Right)
; 983  : 		: _Mybase(_Right._Getal())
; 984  : 		{	// construct list by moving _Right
; 985  : 		_Assign_rv(_STD forward<_Myt>(_Right));
; 986  : 		}
; 987  : 
; 988  : 	list(_Myt&& _Right, const _Alloc& _Al)
; 989  : 		: _Mybase(_Al)
; 990  : 		{	// construct list by moving _Right, allocator
; 991  : 		_Assign_rv(_STD forward<_Myt>(_Right));
; 992  : 		}
; 993  : 
; 994  : 	_Myt& operator=(_Myt&& _Right)
; 995  : 		{	// assign by moving _Right
; 996  : 		if (this != &_Right)
; 997  : 			{	// different, assign it
; 998  : 			clear();
; 999  : 
; 1000 : 			if (_Alty::propagate_on_container_move_assignment::value
; 1001 : 				&& this->_Getal() != _Right._Getal())
; 1002 : 				this->_Change_alloc(_Right._Getal());
; 1003 : 
; 1004 : 			_Assign_rv(_STD forward<_Myt>(_Right));
; 1005 : 			}
; 1006 : 		return (*this);
; 1007 : 		}
; 1008 : 
; 1009 : 	void _Assign_rv(_Myt&& _Right)
; 1010 : 		{	// swap with empty *this, same allocator
; 1011 : 		this->_Swap_all(_Right);
; 1012 : 		_Swap_adl(this->_Myhead, _Right._Myhead);
; 1013 : 		_STD swap(this->_Mysize, _Right._Mysize);
; 1014 : 		}
; 1015 : 
; 1016 : 	void push_front(_Ty&& _Val)
; 1017 : 		{	// insert element at beginning
; 1018 : 		_Insert(_Unchecked_begin(), _STD forward<_Ty>(_Val));
; 1019 : 		}
; 1020 : 
; 1021 : 	void push_back(_Ty&& _Val)
; 1022 : 		{	// insert element at end
; 1023 : 		_Insert(_Unchecked_end(), _STD forward<_Ty>(_Val));
; 1024 : 		}
; 1025 : 
; 1026 : 	iterator insert(const_iterator _Where, _Ty&& _Val)
; 1027 : 		{	// insert _Val at _Where
; 1028 : 		return (emplace(_Where, _STD forward<_Ty>(_Val)));
; 1029 : 		}
; 1030 : 
; 1031 : 	template<class... _Valty>
; 1032 : 		void emplace_front(_Valty&&... _Val)
; 1033 : 		{	// insert element at beginning
; 1034 : 		_Insert(_Unchecked_begin(), _STD forward<_Valty>(_Val)...);
; 1035 : 		}
; 1036 : 
; 1037 : 	template<class... _Valty>
; 1038 : 		void emplace_back(_Valty&&... _Val)
; 1039 : 		{	// insert element at end
; 1040 : 		_Insert(_Unchecked_end(), _STD forward<_Valty>(_Val)...);
; 1041 : 		}
; 1042 : 
; 1043 : 	template<class... _Valty>
; 1044 : 		iterator emplace(const_iterator _Where, _Valty&&... _Val)
; 1045 : 		{	// insert element at _Where
; 1046 :  #if _ITERATOR_DEBUG_LEVEL == 2
; 1047 : 		if (_Where._Getcont() != this)
; 1048 : 			_DEBUG_ERROR("list emplace iterator outside range");
; 1049 :  #endif /* _ITERATOR_DEBUG_LEVEL == 2 */
; 1050 : 
; 1051 : 		_Insert(_Where._Unchecked(), _STD forward<_Valty>(_Val)...);
; 1052 : 		return (_Make_iter(--_Where));
; 1053 : 		}
; 1054 : 
; 1055 : 	template<class... _Valty>
; 1056 : 		void _Insert(_Unchecked_const_iterator _Where,
; 1057 : 		_Valty&&... _Val)
; 1058 : 		{	// insert element at _Where
; 1059 : 		_Nodeptr _Pnode = _Where._Mynode();
; 1060 : 		_Nodeptr _Newnode =
; 1061 : 			this->_Buynode(_Pnode, this->_Prevnode(_Pnode),
; 1062 : 				_STD forward<_Valty>(_Val)...);
; 1063 : 		_Incsize(1);
; 1064 : 		this->_Prevnode(_Pnode) = _Newnode;
; 1065 : 		this->_Nextnode(this->_Prevnode(_Newnode)) = _Newnode;
; 1066 : 		}
; 1067 : 
; 1068 : 
; 1069 : 	list(_XSTD initializer_list<_Ty> _Ilist,
; 1070 : 		const _Alloc& _Al = allocator_type())
; 1071 : 		: _Mybase(_Al)
; 1072 : 		{	// construct from initializer_list
; 1073 : 		insert(begin(), _Ilist.begin(), _Ilist.end());
; 1074 : 		}
; 1075 : 
; 1076 : 	_Myt& operator=(_XSTD initializer_list<_Ty> _Ilist)
; 1077 : 		{	// assign initializer_list
; 1078 : 		assign(_Ilist.begin(), _Ilist.end());
; 1079 : 		return (*this);
; 1080 : 		}
; 1081 : 
; 1082 : 	void assign(_XSTD initializer_list<_Ty> _Ilist)
; 1083 : 		{	// assign initializer_list
; 1084 : 		assign(_Ilist.begin(), _Ilist.end());
; 1085 : 		}
; 1086 : 
; 1087 : 	iterator insert(const_iterator _Where,
; 1088 : 		_XSTD initializer_list<_Ty> _Ilist)
; 1089 : 		{	// insert initializer_list
; 1090 : 		return (insert(_Where, _Ilist.begin(), _Ilist.end()));
; 1091 : 		}
; 1092 : 
; 1093 : 	~list() _NOEXCEPT
; 1094 : 		{	// destroy the object
; 1095 : 		_Tidy();
; 1096 : 		}
; 1097 : 
; 1098 : 	_Myt& operator=(const _Myt& _Right)
; 1099 : 		{	// assign _Right
; 1100 : 		if (this != &_Right)
; 1101 : 			{	// different, assign it
; 1102 : 			if (this->_Getal() != _Right._Getal()
; 1103 : 				&& _Alty::propagate_on_container_copy_assignment::value)
; 1104 : 				{	// change allocator before copying
; 1105 : 				clear();
; 1106 : 				this->_Change_alloc(_Right._Getal());
; 1107 : 				}
; 1108 : 
; 1109 : 			assign(_Right.begin(), _Right.end());
; 1110 : 			}
; 1111 : 		return (*this);
; 1112 : 		}
; 1113 : 
; 1114 : 	iterator begin() _NOEXCEPT
; 1115 : 		{	// return iterator for beginning of mutable sequence
; 1116 : 		return (iterator(this->_Nextnode(this->_Myhead), this));
; 1117 : 		}
; 1118 : 
; 1119 : 	const_iterator begin() const _NOEXCEPT
; 1120 : 		{	// return iterator for beginning of nonmutable sequence
; 1121 : 		return (const_iterator(this->_Nextnode(this->_Myhead), this));
; 1122 : 		}
; 1123 : 
; 1124 : 	iterator end() _NOEXCEPT
; 1125 : 		{	// return iterator for end of mutable sequence
; 1126 : 		return (iterator(this->_Myhead, this));
; 1127 : 		}
; 1128 : 
; 1129 : 	const_iterator end() const _NOEXCEPT
; 1130 : 		{	// return iterator for end of nonmutable sequence
; 1131 : 		return (const_iterator(this->_Myhead, this));
; 1132 : 		}
; 1133 : 
; 1134 : 	_Unchecked_iterator _Unchecked_begin()
; 1135 : 		{	// return iterator for beginning of mutable sequence
; 1136 : 		return (_Unchecked_iterator(this->_Nextnode(this->_Myhead),
; 1137 : 			this));
; 1138 : 		}
; 1139 : 
; 1140 : 	_Unchecked_const_iterator _Unchecked_begin() const
; 1141 : 		{	// return iterator for beginning of nonmutable sequence
; 1142 : 		return (_Unchecked_const_iterator(this->_Nextnode(this->_Myhead),
; 1143 : 			this));
; 1144 : 		}
; 1145 : 
; 1146 : 	_Unchecked_iterator _Unchecked_end()
; 1147 : 		{	// return unchecked iterator for end of mutable sequence
; 1148 : 		return (_Unchecked_iterator(this->_Myhead, this));
; 1149 : 		}
; 1150 : 
; 1151 : 	_Unchecked_const_iterator _Unchecked_end() const
; 1152 : 		{	// return unchecked iterator for end of nonmutable sequence
; 1153 : 		return (_Unchecked_const_iterator(this->_Myhead, this));
; 1154 : 		}
; 1155 : 
; 1156 : 	iterator _Make_iter(const_iterator _Where) const _NOEXCEPT
; 1157 : 		{	// make iterator from const_iterator
; 1158 : 		return (iterator(_Where._Ptr, this));
; 1159 : 		}
; 1160 : 
; 1161 : 	iterator _Make_iter(_Unchecked_const_iterator _Where) const
; 1162 : 		{	// make iterator from _Unchecked_const_iterator
; 1163 : 		return (iterator(_Where._Ptr, this));
; 1164 : 		}
; 1165 : 
; 1166 : 	reverse_iterator rbegin() _NOEXCEPT
; 1167 : 		{	// return iterator for beginning of reversed mutable sequence
; 1168 : 		return (reverse_iterator(end()));
; 1169 : 		}
; 1170 : 
; 1171 : 	const_reverse_iterator rbegin() const _NOEXCEPT
; 1172 : 		{	// return iterator for beginning of reversed nonmutable sequence
; 1173 : 		return (const_reverse_iterator(end()));
; 1174 : 		}
; 1175 : 
; 1176 : 	reverse_iterator rend() _NOEXCEPT
; 1177 : 		{	// return iterator for end of reversed mutable sequence
; 1178 : 		return (reverse_iterator(begin()));
; 1179 : 		}
; 1180 : 
; 1181 : 	const_reverse_iterator rend() const _NOEXCEPT
; 1182 : 		{	// return iterator for end of reversed nonmutable sequence
; 1183 : 		return (const_reverse_iterator(begin()));
; 1184 : 		}
; 1185 : 
; 1186 : 	const_iterator cbegin() const _NOEXCEPT
; 1187 : 		{	// return iterator for beginning of nonmutable sequence
; 1188 : 		return (((const _Myt *)this)->begin());
; 1189 : 		}
; 1190 : 
; 1191 : 	const_iterator cend() const _NOEXCEPT
; 1192 : 		{	// return iterator for end of nonmutable sequence
; 1193 : 		return (((const _Myt *)this)->end());
; 1194 : 		}
; 1195 : 
; 1196 : 	const_reverse_iterator crbegin() const _NOEXCEPT
; 1197 : 		{	// return iterator for beginning of reversed nonmutable sequence
; 1198 : 		return (((const _Myt *)this)->rbegin());
; 1199 : 		}
; 1200 : 
; 1201 : 	const_reverse_iterator crend() const _NOEXCEPT
; 1202 : 		{	// return iterator for end of reversed nonmutable sequence
; 1203 : 		return (((const _Myt *)this)->rend());
; 1204 : 		}
; 1205 : 
; 1206 : 	void resize(size_type _Newsize)
; 1207 : 		{	// determine new length, padding with _Ty() elements as needed
; 1208 : 		if (this->_Mysize < _Newsize)
; 1209 : 			{	// pad to make larger
; 1210 : 			size_type _Count = 0;
; 1211 : 			_TRY_BEGIN
; 1212 : 			for (; this->_Mysize < _Newsize; ++_Count)
; 1213 : 				_Insert(_Unchecked_end());
; 1214 : 			_CATCH_ALL
; 1215 : 			for (; 0 < _Count; --_Count)
; 1216 : 				pop_back();	// undo inserts
; 1217 : 			_RERAISE;
; 1218 : 			_CATCH_END
; 1219 : 			}
; 1220 : 		else
; 1221 : 			while (_Newsize < this->_Mysize)
; 1222 : 				pop_back();
; 1223 : 		}
; 1224 : 
; 1225 : 	void resize(size_type _Newsize, const _Ty& _Val)
; 1226 : 		{	// determine new length, padding with _Val elements as needed
; 1227 : 		if (this->_Mysize < _Newsize)
; 1228 : 			_Insert_n(_Unchecked_end(), _Newsize - this->_Mysize, _Val);
; 1229 : 		else
; 1230 : 			while (_Newsize < this->_Mysize)
; 1231 : 				pop_back();
; 1232 : 		}
; 1233 : 
; 1234 : 	size_type size() const _NOEXCEPT
; 1235 : 		{	// return length of sequence
; 1236 : 		return (this->_Mysize);
; 1237 : 		}
; 1238 : 
; 1239 : 	size_type max_size() const _NOEXCEPT
; 1240 : 		{	// return maximum possible length of sequence
; 1241 : 		return (this->_Getal().max_size());
; 1242 : 		}
; 1243 : 
; 1244 : 	bool empty() const _NOEXCEPT
; 1245 : 		{	// test if sequence is empty
; 1246 : 		return (this->_Mysize == 0);
; 1247 : 		}
; 1248 : 
; 1249 : 	allocator_type get_allocator() const _NOEXCEPT
; 1250 : 		{	// return allocator object for values
; 1251 : 		return (this->_Getal());
; 1252 : 		}
; 1253 : 
; 1254 : 	reference front()
; 1255 : 		{	// return first element of mutable sequence
; 1256 : 		return (*begin());
; 1257 : 		}
; 1258 : 
; 1259 : 	const_reference front() const
; 1260 : 		{	// return first element of nonmutable sequence
; 1261 : 		return (*begin());
; 1262 : 		}
; 1263 : 
; 1264 : 	reference back()
; 1265 : 		{	// return last element of mutable sequence
; 1266 : 		return (*(--end()));
; 1267 : 		}
; 1268 : 
; 1269 : 	const_reference back() const
; 1270 : 		{	// return last element of nonmutable sequence
; 1271 : 		return (*(--end()));
; 1272 : 		}
; 1273 : 
; 1274 : 	void push_front(const _Ty& _Val)
; 1275 : 		{	// insert element at beginning
; 1276 : 		_Insert(_Unchecked_begin(), _Val);
; 1277 : 		}
; 1278 : 
; 1279 : 	void pop_front()
; 1280 : 		{	// erase element at beginning
; 1281 : 		erase(begin());
; 1282 : 		}
; 1283 : 
; 1284 : 	void push_back(const _Ty& _Val)
; 1285 : 		{	// insert element at end
; 1286 : 		_Insert(_Unchecked_end(), _Val);
; 1287 : 		}
; 1288 : 
; 1289 : 	void pop_back()
; 1290 : 		{	// erase element at end
; 1291 : 		erase(--end());
; 1292 : 		}
; 1293 : 
; 1294 : 	template<class _Iter>
; 1295 : 		typename enable_if<_Is_iterator<_Iter>::value,
; 1296 : 			void>::type
; 1297 : 		assign(_Iter _First, _Iter _Last)
; 1298 : 		{	// assign [_First, _Last), input iterators
; 1299 : 		iterator _Old = begin();
; 1300 : 		_TRY_BEGIN
; 1301 : 		for (; _First != _Last && _Old != end(); ++_First, ++_Old)
; 1302 : 			_Reusenode(_Old, *_First);
; 1303 : 		for (; _First != _Last; ++_First)
; 1304 : 			_Insert(_Unchecked_end(), *_First);
; 1305 : 		_CATCH_ALL
; 1306 : 		clear();
; 1307 : 		_RERAISE;
; 1308 : 		_CATCH_END
; 1309 : 		erase(_Old, end());
; 1310 : 		}
; 1311 : 
; 1312 : 	template<class _TArg>
; 1313 : 		void _Reusenode(iterator _Where, _TArg&& _Arg)
; 1314 : 		{	// destroy the element at _Where and reconstruct from _Arg
; 1315 : 		_TRY_BEGIN
; 1316 : 		this->_Getal().destroy(
; 1317 : 			_STD addressof(this->_Myval(_Where._Ptr)));
; 1318 : 		this->_Getal().construct(
; 1319 : 			_STD addressof(this->_Myval(_Where._Ptr)),
; 1320 : 			_STD forward<_TArg>(_Arg));
; 1321 : 		_CATCH_ALL
; 1322 : 		_Unlinknode(_Where);
; 1323 : 		this->_Getal().destroy(
; 1324 : 			_STD addressof(this->_Nextnode(_Where._Ptr)));
; 1325 : 		this->_Getal().destroy(
; 1326 : 			_STD addressof(this->_Prevnode(_Where._Ptr)));
; 1327 : 		this->_Getal().deallocate(_Where._Ptr, 1);
; 1328 : 		_RERAISE;
; 1329 : 		_CATCH_END
; 1330 : 		}
; 1331 : 
; 1332 : 	void assign(size_type _Count, const _Ty& _Val)
; 1333 : 		{	// assign _Count * _Val
; 1334 : 		clear();
; 1335 : 		_Insert_n(_Unchecked_begin(), _Count, _Val);
; 1336 : 		}
; 1337 : 
; 1338 : 	iterator insert(const_iterator _Where, const _Ty& _Val)
; 1339 : 		{	// insert _Val at _Where
; 1340 :  #if _ITERATOR_DEBUG_LEVEL == 2
; 1341 : 		if (_Where._Getcont() != this)
; 1342 : 			_DEBUG_ERROR("list insert iterator outside range");
; 1343 :  #endif /* _ITERATOR_DEBUG_LEVEL == 2 */
; 1344 : 
; 1345 : 		_Insert(_Where._Unchecked(), _Val);
; 1346 : 		return (_Make_iter(--_Where));
; 1347 : 		}
; 1348 : 
; 1349 : 	iterator insert(const_iterator _Where, size_type _Count, const _Ty& _Val)
; 1350 : 		{	// insert _Count * _Val at _Where
; 1351 :  #if _ITERATOR_DEBUG_LEVEL == 2
; 1352 : 		if (_Where._Getcont() != this)
; 1353 : 			_DEBUG_ERROR("list insert iterator outside range");
; 1354 :  #endif /* _ITERATOR_DEBUG_LEVEL == 2 */
; 1355 : 
; 1356 : 		iterator _Prev = _Make_iter(_Where);
; 1357 : 		if (_Prev == begin())
; 1358 : 			{	// insert sequence at beginning
; 1359 : 			_Insert_n(_Where._Unchecked(), _Count, _Val);
; 1360 : 			return (begin());
; 1361 : 			}
; 1362 : 		else
; 1363 : 			{	// insert sequence not at beginning
; 1364 : 			--_Prev;
; 1365 : 			_Insert_n(_Where._Unchecked(), _Count, _Val);
; 1366 : 			return (++_Prev);
; 1367 : 			}
; 1368 : 		}
; 1369 : 
; 1370 : 	template<class _Iter>
; 1371 : 		typename enable_if<_Is_iterator<_Iter>::value,
; 1372 : 			iterator>::type
; 1373 : 		insert(const_iterator _Where, _Iter _First, _Iter _Last)
; 1374 : 		{	// insert [_First, _Last) at _Where
; 1375 :  #if _ITERATOR_DEBUG_LEVEL == 2
; 1376 : 		if (_Where._Getcont() != this)
; 1377 : 			_DEBUG_ERROR("list insert iterator outside range");
; 1378 :  #endif /* _ITERATOR_DEBUG_LEVEL == 2 */
; 1379 : 
; 1380 : 		iterator _Prev = _Make_iter(_Where);
; 1381 : 		if (_Prev == begin())
; 1382 : 			{	// insert sequence at beginning
; 1383 : 			_Insert_range(_Where._Unchecked(), _First, _Last,
; 1384 : 				_Iter_cat(_First));
; 1385 : 			return (begin());
; 1386 : 			}
; 1387 : 		else
; 1388 : 			{	// insert sequence not at beginning
; 1389 : 			--_Prev;
; 1390 : 			_Insert_range(_Where._Unchecked(), _First, _Last,
; 1391 : 				_Iter_cat(_First));
; 1392 : 			return (++_Prev);
; 1393 : 			}
; 1394 : 		}
; 1395 : 
; 1396 : 	template<class _Iter>
; 1397 : 		void _Insert_range(_Unchecked_const_iterator _Where,
; 1398 : 			_Iter _First, _Iter _Last, input_iterator_tag)
; 1399 : 		{	// insert [_First, _Last) at _Where, input iterators
; 1400 : 		size_type _Num = 0;
; 1401 : 
; 1402 : 		_TRY_BEGIN
; 1403 : 		for (; _First != _Last; ++_First, ++_Num)
; 1404 : 			_Insert(_Where, *_First);
; 1405 : 		_CATCH_ALL
; 1406 : 		for (; 0 < _Num; --_Num)
; 1407 : 			{	// undo inserts
; 1408 : 			_Unchecked_const_iterator _Before = _Where;
; 1409 : 			_Unchecked_erase(--_Before);
; 1410 : 			}
; 1411 : 		_RERAISE;
; 1412 : 		_CATCH_END
; 1413 : 		}
; 1414 : 
; 1415 : 	template<class _Iter>
; 1416 : 		void _Insert_range(_Unchecked_const_iterator _Where,
; 1417 : 			_Iter _First, _Iter _Last, forward_iterator_tag)
; 1418 : 		{	// insert [_First, _Last) at _Where, forward iterators
; 1419 : 		_DEBUG_RANGE(_First, _Last);
; 1420 : 		_Iter _Next = _First;
; 1421 : 
; 1422 : 		_TRY_BEGIN
; 1423 : 		for (; _First != _Last; ++_First)
; 1424 : 			_Insert(_Where, *_First);
; 1425 : 		_CATCH_ALL
; 1426 : 		for (; _Next != _First; ++_Next)
; 1427 : 			{	// undo inserts
; 1428 : 			_Unchecked_const_iterator _Before = _Where;
; 1429 : 			_Unchecked_erase(--_Before);
; 1430 : 			}
; 1431 : 		_RERAISE;
; 1432 : 		_CATCH_END
; 1433 : 		}
; 1434 : 
; 1435 : 	_Nodeptr _Unlinknode(const_iterator _Where)
; 1436 : 		{	// unlink node at _Where from the list
; 1437 :  #if _ITERATOR_DEBUG_LEVEL == 2
; 1438 : 		if (_Where._Getcont() != this || _Where._Ptr == this->_Myhead)
; 1439 : 			_DEBUG_ERROR("list erase iterator outside range");
; 1440 : 		_Nodeptr _Pnode = (_Where)._Mynode();
; 1441 : 		_Orphan_ptr(*this, _Pnode);
; 1442 : 
; 1443 :  #else /* _ITERATOR_DEBUG_LEVEL == 2 */
; 1444 : 		_Nodeptr _Pnode = (_Where)._Mynode();
; 1445 :  #endif /* _ITERATOR_DEBUG_LEVEL == 2 */
; 1446 : 
; 1447 : 		this->_Nextnode(this->_Prevnode(_Pnode)) =
; 1448 : 			this->_Nextnode(_Pnode);
; 1449 : 		this->_Prevnode(this->_Nextnode(_Pnode)) =
; 1450 : 			this->_Prevnode(_Pnode);
; 1451 : 
; 1452 : 		--this->_Mysize;
; 1453 : 		return (_Pnode);
; 1454 : 		}
; 1455 : 
; 1456 : 	iterator erase(const_iterator _Where)
; 1457 : 		{	// erase element at _Where
; 1458 : 		_Nodeptr _Pnode = _Unlinknode(_Where++);
; 1459 : 		this->_Freenode(_Pnode);
; 1460 : 		return (_Make_iter(_Where));
; 1461 : 		}
; 1462 : 
; 1463 : 	void _Unchecked_erase(_Unchecked_const_iterator _Where)
; 1464 : 		{	// erase element at _Where
; 1465 : 		_Nodeptr _Pnode = _Where._Mynode();
; 1466 : 
; 1467 : 		this->_Nextnode(this->_Prevnode(_Pnode)) =
; 1468 : 			this->_Nextnode(_Pnode);
; 1469 : 		this->_Prevnode(this->_Nextnode(_Pnode)) =
; 1470 : 			this->_Prevnode(_Pnode);
; 1471 : 		this->_Freenode(_Pnode);
; 1472 : 		--this->_Mysize;
; 1473 : 		}
; 1474 : 
; 1475 : 	iterator erase(const_iterator _First, const_iterator _Last)
; 1476 : 		{	// erase [_First, _Last)
; 1477 : 		if (_First == begin() && _Last == end())
; 1478 : 			{	// erase all and return fresh iterator
; 1479 : 			clear();
; 1480 : 			return (end());
; 1481 : 			}
; 1482 : 		else
; 1483 : 			{	// erase subrange
; 1484 : 			while (_First != _Last)
; 1485 : 				_First = erase(_First);
; 1486 : 			return (_Make_iter(_Last));
; 1487 : 			}
; 1488 : 		}
; 1489 : 
; 1490 : 	void clear() _NOEXCEPT
; 1491 : 		{	// erase all
; 1492 :  #if _ITERATOR_DEBUG_LEVEL == 2
; 1493 : 		this->_Orphan_ptr(*this, nullptr);
; 1494 :  #endif /* _ITERATOR_DEBUG_LEVEL == 2 */
; 1495 : 
; 1496 : 		_Nodeptr _Pnode = this->_Nextnode(this->_Myhead);
; 1497 : 		this->_Nextnode(this->_Myhead) = this->_Myhead;
; 1498 : 		this->_Prevnode(this->_Myhead) = this->_Myhead;
; 1499 : 		this->_Mysize = 0;
; 1500 : 
; 1501 : 		for (_Nodeptr _Pnext; _Pnode != this->_Myhead; _Pnode = _Pnext)
; 1502 : 			{	// delete an element
; 1503 : 			_Pnext = this->_Nextnode(_Pnode);
; 1504 : 			this->_Freenode(_Pnode);
; 1505 : 			}
; 1506 : 		}
; 1507 : 
; 1508 : 	void swap(_Myt& _Right)
; 1509 : 		{	// exchange contents with _Right
; 1510 : 		if (this == &_Right)
; 1511 : 			;	// same object, do nothing
; 1512 : 		else if (this->_Getal() == _Right._Getal())
; 1513 : 			{	// same allocator, swap control information
; 1514 : 			this->_Swap_all(_Right);
; 1515 : 			_Swap_adl(this->_Myhead, _Right._Myhead);
; 1516 : 			_STD swap(this->_Mysize, _Right._Mysize);
; 1517 : 			}
; 1518 : 
; 1519 : 		else if (_Alty::propagate_on_container_swap::value)
; 1520 : 			{	// swap allocators and control information
; 1521 : 			this->_Swap_alloc(_Right);
; 1522 : 			_Swap_adl(this->_Myhead, _Right._Myhead);
; 1523 : 			_STD swap(this->_Mysize, _Right._Mysize);
; 1524 : 			}
; 1525 : 
; 1526 : 		else	// containers are incompatible
; 1527 : 
; 1528 :  #if _ITERATOR_DEBUG_LEVEL == 2
; 1529 : 			_DEBUG_ERROR("list containers incompatible for swap");
; 1530 : 
; 1531 :  #else /* ITERATOR_DEBUG_LEVEL == 2 */
; 1532 : 			_XSTD terminate();
; 1533 :  #endif /* ITERATOR_DEBUG_LEVEL == 2 */
; 1534 : 		}
; 1535 : 
; 1536 : 	void splice(const_iterator _Where, _Myt& _Right)
; 1537 : 		{	// splice all of _Right at _Where
; 1538 : 		if (this != &_Right && !_Right.empty())
; 1539 : 			{	// worth splicing, do it
; 1540 : 			_Splice(_Where, _Right, _Right.begin(), _Right.end(),
; 1541 : 				_Right._Mysize);
; 1542 : 			}
; 1543 : 		}
; 1544 : 
; 1545 : 	void splice(const_iterator _Where, _Myt&& _Right)
; 1546 : 		{	// splice all of _Right at _Where
; 1547 : 		splice(_Where, (_Myt&)_Right);
; 1548 : 		}
; 1549 : 
; 1550 : 	void splice(const_iterator _Where, _Myt& _Right,
; 1551 : 		const_iterator _First)
; 1552 : 		{	// splice _Right [_First, _First + 1) at _Where
; 1553 :  #if _ITERATOR_DEBUG_LEVEL == 2
; 1554 : 		if (_First == _Right.end())
; 1555 : 			_DEBUG_ERROR("list splice iterator outside range");
; 1556 : 		else
; 1557 : 
; 1558 :  #else /* _ITERATOR_DEBUG_LEVEL == 2 */
; 1559 : 		if (_First != _Right.end())

	je	SHORT $LN5@pivot_mb

; 240  : 		this->_Ptr = _Mylist::_Nextnode(this->_Ptr);

	mov	rax, QWORD PTR [rdi]

; 298  : 		return (this->_Ptr == _Right._Ptr);

	cmp	rdx, rdi

; 1560 :  #endif /* _ITERATOR_DEBUG_LEVEL == 2 */
; 1561 : 
; 1562 : 			{	// element exists, try splice
; 1563 : 			const_iterator _Last = _First;
; 1564 : 			++_Last;
; 1565 : 			if (this != &_Right
; 1566 : 				|| (_Where != _First && _Where != _Last))

	je	SHORT $LN5@pivot_mb

; 298  : 		return (this->_Ptr == _Right._Ptr);

	cmp	rdx, rax

; 1560 :  #endif /* _ITERATOR_DEBUG_LEVEL == 2 */
; 1561 : 
; 1562 : 			{	// element exists, try splice
; 1563 : 			const_iterator _Last = _First;
; 1564 : 			++_Last;
; 1565 : 			if (this != &_Right
; 1566 : 				|| (_Where != _First && _Where != _Last))

	je	SHORT $LN5@pivot_mb

; 1567 : 				_Splice(_Where, _Right, _First, _Last, 1);
; 1568 : 			}
; 1569 : 		}
; 1570 : 
; 1571 : 	void splice(const_iterator _Where, _Myt&& _Right,
; 1572 : 		const_iterator _First)
; 1573 : 		{	// splice _Right [_First, _First + 1) at _Where
; 1574 : 		splice(_Where, (_Myt&)_Right, _First);
; 1575 : 		}
; 1576 : 
; 1577 : 	void splice(const_iterator _Where,
; 1578 : 		_Myt& _Right, const_iterator _First, const_iterator _Last)
; 1579 : 		{	// splice _Right [_First, _Last) at _Where
; 1580 : 		if (_First != _Last && (this != &_Right || _Where != _Last))
; 1581 : 			{	// worth splicing, do it
; 1582 : 			size_type _Count = 0;
; 1583 : 
; 1584 : 			if (this == &_Right)
; 1585 : 				;	// just rearrange this list
; 1586 : 			else if (_First == _Right.begin() && _Last == _Right.end())
; 1587 : 				_Count = _Right._Mysize;	// splice in whole list
; 1588 : 			else
; 1589 : 				{	// count nodes and check for knot
; 1590 : 				const_iterator _Next = _First;
; 1591 : 
; 1592 : 				for (; _Next != _Last; ++_Next, ++_Count)
; 1593 : 					if (_Next == _Right.end())
; 1594 : 						_Xlength_error("list<T> bad splice");
; 1595 : 				}
; 1596 : 			_Splice(_Where, _Right, _First, _Last, _Count);
; 1597 : 			}
; 1598 : 		}
; 1599 : 
; 1600 : 	void splice(const_iterator _Where,
; 1601 : 		_Myt&& _Right, const_iterator _First, const_iterator _Last)
; 1602 : 		{	// splice _Right [_First, _Last) at _Where
; 1603 : 		splice(_Where, (_Myt&)_Right, _First, _Last);
; 1604 : 		}
; 1605 : 
; 1606 : 	void remove(const _Ty& _Val)
; 1607 : 		{	// erase each element matching _Val
; 1608 : 		iterator _Val_it = end();
; 1609 : 
; 1610 : 		for (iterator _First = begin(); _First != end(); )
; 1611 : 			if (*_First == _Val)
; 1612 : 				if (_STD addressof(*_First) == _STD addressof(_Val))
; 1613 : 					_Val_it = _First++;
; 1614 : 				else
; 1615 : 					_First = erase(_First);
; 1616 : 			else
; 1617 : 				++_First;
; 1618 : 
; 1619 : 		if (_Val_it != end())
; 1620 : 			erase(_Val_it);
; 1621 : 		}
; 1622 : 
; 1623 : 	template<class _Pr1>
; 1624 : 		void remove_if(_Pr1 _Pred)
; 1625 : 		{	// erase each element satisfying _Pred
; 1626 : 		for (iterator _First = begin(); _First != end(); )
; 1627 : 			if (_Pred(*_First))
; 1628 : 				_First = erase(_First);
; 1629 : 			else
; 1630 : 				++_First;
; 1631 : 		}
; 1632 : 
; 1633 : 	void unique()
; 1634 : 		{	// erase each element matching previous
; 1635 : 		unique(equal_to<>());
; 1636 : 		}
; 1637 : 
; 1638 : 	template<class _Pr2>
; 1639 : 		void unique(_Pr2 _Pred)
; 1640 : 		{	// erase each element satisfying _Pred with previous
; 1641 : 		const _Nodeptr _Phead = this->_Myhead;
; 1642 : 		_Nodeptr _Pprev = this->_Nextnode(_Phead);
; 1643 : 		_Nodeptr _Pnode = this->_Nextnode(_Pprev);
; 1644 : 
; 1645 : 		while (_Pnode != _Phead)
; 1646 : 			if (_Pred(_Pprev->_Myval, _Pnode->_Myval))
; 1647 : 				{	// match, remove it
; 1648 : 				const _Nodeptr _Perase = _Pnode;
; 1649 : 				_Pnode = this->_Nextnode(_Pnode);
; 1650 : 
; 1651 : 				this->_Nextnode(_Pprev) = _Pnode;
; 1652 : 				this->_Prevnode(_Pnode) = _Pprev;
; 1653 : 				this->_Freenode(_Perase);
; 1654 : 
; 1655 : 				--this->_Mysize;
; 1656 : 				}
; 1657 : 			else
; 1658 : 				{	// no match, advance
; 1659 : 				_Pprev = _Pnode;
; 1660 : 				_Pnode = this->_Nextnode(_Pnode);
; 1661 : 				}
; 1662 : 		}
; 1663 : 
; 1664 : 	void merge(_Myt& _Right)
; 1665 : 		{	// merge in elements from _Right, both ordered by operator<
; 1666 : 		merge(_Right, less<>());
; 1667 : 		}
; 1668 : 
; 1669 : 	void merge(_Myt&& _Right)
; 1670 : 		{	// merge in elements from _Right, both ordered by operator<
; 1671 : 		merge((_Myt&)_Right);
; 1672 : 		}
; 1673 : 
; 1674 : 	template<class _Pr2>
; 1675 : 		void merge(_Myt& _Right, _Pr2 _Pred)
; 1676 : 		{	// merge in elements from _Right, both ordered by _Pred
; 1677 : 		if (&_Right != this)
; 1678 : 			{	// safe to merge, do it
; 1679 : 			iterator _First1 = begin(), _Last1 = end();
; 1680 : 			iterator _First2 = _Right.begin(), _Last2 = _Right.end();
; 1681 : 			_DEBUG_ORDER_PRED(_First1, _Last1, _Pred);
; 1682 : 			_DEBUG_ORDER_PRED(_First2, _Last2, _Pred);
; 1683 : 
; 1684 : 			while (_First1 != _Last1 && _First2 != _Last2)
; 1685 : 				if (_DEBUG_LT_PRED(_Pred, *_First2, *_First1))
; 1686 : 					{	// splice in an element from _Right
; 1687 : 					iterator _Mid2 = _First2;
; 1688 : 					_Splice(_First1, _Right, _First2, ++_Mid2, 1);
; 1689 : 					_First2 = _Mid2;
; 1690 : 					}
; 1691 : 				else
; 1692 : 					++_First1;
; 1693 : 
; 1694 : 			if (_First2 != _Last2)
; 1695 : 				_Splice(_Last1, _Right, _First2, _Last2,
; 1696 : 					_Right._Mysize);	// splice remainder of _Right
; 1697 : 			}
; 1698 : 		}
; 1699 : 
; 1700 : 	template<class _Pr2>
; 1701 : 		void merge(_Myt&& _Right, _Pr2 _Pred)
; 1702 : 		{	// merge in elements from _Right, both ordered by _Pred
; 1703 : 		merge((_Myt&)_Right, _Pred);
; 1704 : 		}
; 1705 : 
; 1706 : 	void sort()
; 1707 : 		{	// order sequence, using operator<
; 1708 : 		sort(less<>());
; 1709 : 		}
; 1710 : 
; 1711 : 	template<class _Pr2>
; 1712 : 		void sort(_Pr2 _Pred)
; 1713 : 		{	// order sequence, using _Pred
; 1714 : 		if (2 <= this->_Mysize)
; 1715 : 			{	// worth sorting, do it
; 1716 : 			const size_t _MAXBINS = 25;
; 1717 : 			_Myt _Templist(this->_Getal()), _Binlist[_MAXBINS + 1];
; 1718 : 			size_t _Maxbin = 0;
; 1719 : 
; 1720 : 			while (!empty())
; 1721 : 				{	// sort another element, using bins
; 1722 : 				_Templist._Splice_same(_Templist.begin(), *this, begin(),
; 1723 : 					++begin(), 1);
; 1724 : 
; 1725 : 				size_t _Bin;
; 1726 : 				for (_Bin = 0; _Bin < _Maxbin && !_Binlist[_Bin].empty();
; 1727 : 					++_Bin)
; 1728 : 					{	// merge into ever larger bins
; 1729 : 					_Binlist[_Bin].merge(_Templist, _Pred);
; 1730 : 					_Binlist[_Bin].swap(_Templist);
; 1731 : 					}
; 1732 : 
; 1733 : 				if (_Bin == _MAXBINS)
; 1734 : 					_Binlist[_Bin - 1].merge(_Templist, _Pred);
; 1735 : 				else
; 1736 : 					{	// spill to new bin, while they last
; 1737 : 					_Binlist[_Bin].swap(_Templist);
; 1738 : 					if (_Bin == _Maxbin)
; 1739 : 						++_Maxbin;
; 1740 : 					}
; 1741 : 				}
; 1742 : 
; 1743 : 			for (size_t _Bin = 1; _Bin < _Maxbin; ++_Bin)
; 1744 : 				_Binlist[_Bin].merge(_Binlist[_Bin - 1],
; 1745 : 					_Pred);	// merge up
; 1746 : 
; 1747 : 			_Analysis_assume_(0 < _Maxbin);
; 1748 : 
; 1749 : 			splice(begin(), _Binlist[_Maxbin - 1]);	// result in last bin
; 1750 : 			}
; 1751 : 		}
; 1752 : 
; 1753 : 	void reverse() _NOEXCEPT
; 1754 : 		{	// reverse sequence
; 1755 : 		const _Nodeptr _Phead = this->_Myhead;
; 1756 : 		_Nodeptr _Pnode = _Phead;
; 1757 : 
; 1758 : 		for (; ; )
; 1759 : 			{	// flip pointers in a node
; 1760 : 			const _Nodeptr _Pnext = this->_Nextnode(_Pnode);
; 1761 : 			this->_Nextnode(_Pnode) = this->_Prevnode(_Pnode);
; 1762 : 			this->_Prevnode(_Pnode) = _Pnext;
; 1763 : 
; 1764 : 			if (_Pnext == _Phead)
; 1765 : 				break;
; 1766 : 			_Pnode = _Pnext;
; 1767 : 			}
; 1768 : 		}
; 1769 : 
; 1770 : 	void _Splice(const_iterator _Where,
; 1771 : 		_Myt& _Right, const_iterator _First, const_iterator _Last,
; 1772 : 		size_type _Count)
; 1773 : 		{	// splice _Right [_First, _Last) before _Where
; 1774 :  #if _ITERATOR_DEBUG_LEVEL == 2
; 1775 : 		if (_Where._Getcont() != this)
; 1776 : 			_DEBUG_ERROR("list splice iterator outside range");
; 1777 : 		if (this->_Getal() != _Right._Getal())
; 1778 : 			_DEBUG_ERROR("list containers incompatible for splice");
; 1779 : 
; 1780 : 		if (this != &_Right)
; 1781 : 			{	// transfer ownership
; 1782 : 			_Lockit _Lock(_LOCK_DEBUG);
; 1783 : 
; 1784 : 			const bool _One = _Count == 1;
; 1785 : 			const bool _All = _Count == _Right.size();
; 1786 : 			const bool _Some = !_One && !_All;
; 1787 : 
; 1788 : 			_Nodeptr _Oldprev = _First._Ptr->_Prev;
; 1789 : 
; 1790 : 			if (_Some)
; 1791 : 				for (_Nodeptr _Ptr = _First._Ptr; _Ptr != _Last._Ptr;
; 1792 : 					_Ptr = _Ptr->_Next)
; 1793 : 					{	// mark _Prev pointers
; 1794 : 					_Ptr->_Prev = 0;
; 1795 : 					}
; 1796 : 
; 1797 : 			const_iterator **_Pnext = (const_iterator **)_Right._Getpfirst();
; 1798 : 
; 1799 : 			if (_Pnext == 0)
; 1800 : 				_DEBUG_ERROR("list container corrupted");
; 1801 : 
; 1802 : 			while (*_Pnext != 0)
; 1803 : 				{	// check the iterator
; 1804 : 				const_iterator& _Iter = **_Pnext;
; 1805 : 
; 1806 : 				if ((_One && _Iter._Ptr == _First._Ptr)
; 1807 : 					|| (_All && _Iter._Ptr != _Right._Myhead)
; 1808 : 					|| (_Some && _Iter._Ptr->_Prev == 0))
; 1809 : 					{	// adopt the iterator
; 1810 : 					*_Pnext = (const_iterator *)_Iter._Mynextiter;
; 1811 : 					_Iter._Myproxy = this->_Myproxy;
; 1812 : 					_Iter._Mynextiter = this->_Myproxy->_Myfirstiter;
; 1813 : 					this->_Myproxy->_Myfirstiter = &_Iter;
; 1814 : 					}
; 1815 : 				else
; 1816 : 					{	// skip the iterator
; 1817 : 					_Pnext = (const_iterator **)_Iter._Getpnext();
; 1818 : 					}
; 1819 : 				}
; 1820 : 
; 1821 : 			if (_Some)
; 1822 : 				for (_Nodeptr _Ptr = _First._Ptr; _Ptr != _Last._Ptr;
; 1823 : 					_Ptr = _Ptr->_Next)
; 1824 : 					{	// restore _Prev pointers
; 1825 : 					_Ptr->_Prev = _Oldprev;
; 1826 : 					_Oldprev = _Ptr;
; 1827 : 					}
; 1828 : 			}
; 1829 : 
; 1830 :  #else /* _ITERATOR_DEBUG_LEVEL == 2 */
; 1831 : 		if (this->_Getal() != _Right._Getal())
; 1832 : 			_XSTD terminate();
; 1833 :  #endif /* _ITERATOR_DEBUG_LEVEL == 2 */
; 1834 : 
; 1835 : 		_Splice_same(_Where, _Right, _First, _Last, _Count);

	mov	r9, rdi
	mov	r8, r14
	mov	rcx, r14
	mov	QWORD PTR [rsp+32], rax
	call	?_Splice_same@?$list@U?$_vector3@M@@V?$xalloc@U?$_vector3@M@@@@@std@@QEAAXV?$_List_const_iterator@V?$_List_val@U?$_List_simple_types@U?$_vector3@M@@@std@@@std@@@2@AEAV12@00_K@Z ; std::list<_vector3<float>,xalloc<_vector3<float> > >::_Splice_same
$LN5@pivot_mb:
; File c:\users\nummer\documents\github\olr-3.0\src\xray\xrcore\_sphere.cpp

; 153  : 	} while ((max_e > 0) && (B.squared_radius() > old_sqr_r));

	comiss	xmm8, DWORD PTR [r14+240]
	jb	$LL6@pivot_mb
$LN1@pivot_mb:
	mov	rsi, QWORD PTR [rsp+144]

; 154  : }

	movaps	xmm6, XMMWORD PTR [rsp+112]
	movaps	xmm7, XMMWORD PTR [rsp+96]
	lea	r11, QWORD PTR [rsp+128]
	movaps	xmm8, XMMWORD PTR [r11-48]
	movaps	xmm9, XMMWORD PTR [r11-64]
	movaps	xmm10, XMMWORD PTR [r11-80]
	mov	rbx, QWORD PTR [r11+32]
	mov	rdi, QWORD PTR [r11+40]
	mov	rsp, r11
	pop	r14
	ret	0
?pivot_mb@Miniball@@AEAAXV?$_List_iterator@V?$_List_val@U?$_List_simple_types@U?$_vector3@M@@@std@@@std@@@std@@@Z ENDP ; Miniball::pivot_mb
_TEXT	ENDS
; Function compile flags: /Ogtpy
; File c:\users\nummer\documents\github\olr-3.0\src\xray\xrcore\_sphere.cpp
; File c:\program files (x86)\microsoft visual studio 12.0\vc\include\list
; File c:\users\nummer\documents\github\olr-3.0\src\xray\xrcore\_sphere.cpp
; File c:\users\nummer\documents\github\olr-3.0\src\xray\xrcore\_vector3d.h
; File c:\users\nummer\documents\github\olr-3.0\src\xray\xrcore\_sphere.cpp
; File c:\program files (x86)\microsoft visual studio 12.0\vc\include\list
; File c:\users\nummer\documents\github\olr-3.0\src\xray\xrcore\_sphere.cpp
_TEXT	SEGMENT
this$ = 8
t$ = 16
i$ = 24
pivot$ = 32
?max_excess@Miniball@@AEBAMV?$_List_iterator@V?$_List_val@U?$_List_simple_types@U?$_vector3@M@@@std@@@std@@@std@@0AEAV23@@Z PROC ; Miniball::max_excess

; 179  : 
; 180  : Fvector Miniball::center () const
; 181  : {
; 182  : 	return *((Fvector *)B.center());
; 183  : }
; 184  : 
; 185  : float Miniball::squared_radius () const
; 186  : {
; 187  : 	return B.squared_radius();
; 188  : }
; 189  : 
; 190  : int Miniball::num_points () const
; 191  : {
; 192  : 	return L.size();
; 193  : }
; 194  : 
; 195  : Miniball::Cit Miniball::points_begin () const
; 196  : {
; 197  : 	return L.begin();
; 198  : }
; 199  : 
; 200  : Miniball::Cit Miniball::points_end () const
; 201  : {
; 202  : 	return L.end();
; 203  : }
; 204  : 
; 205  : int Miniball::nr_support_gVectors () const
; 206  : {
; 207  : 	return B.support_size();
; 208  : }
; 209  : 
; 210  : Miniball::Cit Miniball::support_points_begin () const
; 211  : {
; 212  : 	return L.begin();
; 213  : }
; 214  : 
; 215  : Miniball::Cit Miniball::support_points_end () const
; 216  : {
; 217  : 	return support_end;
; 218  : }
; 219  : 
; 220  : 
; 221  : //----------------------------------------------------------------------
; 222  : // Basis
; 223  : //---------------------------------------------------------------------
; 224  : const Fvector* Basis::center () const
; 225  : {
; 226  : 	return current_c;

	mov	rax, QWORD PTR [rcx+232]

; 227  : }
; 228  : 
; 229  : float Basis::squared_radius() const
; 230  : {
; 231  : 	return current_sqr_r;

	movss	xmm4, DWORD PTR [rcx+240]
	xorps	xmm3, xmm3
; File c:\program files (x86)\microsoft visual studio 12.0\vc\include\list

; 298  : 		return (this->_Ptr == _Right._Ptr);

	cmp	rdx, r8
; File c:\users\nummer\documents\github\olr-3.0\src\xray\xrcore\_sphere.cpp

; 163  : 	for (It k=t; k!=i; ++k)

	je	SHORT $LN33@max_excess
	xorps	xmm4, DWORD PTR __xmm@80000000800000008000000080000000
	npad	2
$LL13@max_excess:
; File c:\users\nummer\documents\github\olr-3.0\src\xray\xrcore\_vector3d.h

; 287  : 	{	return (x-v.x)*(x-v.x) + (y-v.y)*(y-v.y) + (z-v.z)*(z-v.z);	}

	movss	xmm1, DWORD PTR [rdx+20]
	movss	xmm2, DWORD PTR [rdx+16]
	movss	xmm0, DWORD PTR [rdx+24]
	subss	xmm2, DWORD PTR [rax]
	subss	xmm1, DWORD PTR [rax+4]
	subss	xmm0, DWORD PTR [rax+8]
	mulss	xmm2, xmm2
	mulss	xmm1, xmm1
	mulss	xmm0, xmm0
	addss	xmm2, xmm1
	addss	xmm2, xmm0
; File c:\users\nummer\documents\github\olr-3.0\src\xray\xrcore\_sphere.cpp

; 168  : 		e += point.distance_to_sqr(*pCenter);

	addss	xmm2, xmm4

; 169  : 
; 170  : 		if (e > max_e)

	comiss	xmm2, xmm3
	jbe	SHORT $LN3@max_excess

; 171  : 		{
; 172  : 			max_e = e;

	movaps	xmm3, xmm2

; 173  : 			pivot = k;

	mov	QWORD PTR [r9], rdx
$LN3@max_excess:
; File c:\program files (x86)\microsoft visual studio 12.0\vc\include\list

; 240  : 		this->_Ptr = _Mylist::_Nextnode(this->_Ptr);

	mov	rdx, QWORD PTR [rdx]

; 298  : 		return (this->_Ptr == _Right._Ptr);

	cmp	rdx, r8
; File c:\users\nummer\documents\github\olr-3.0\src\xray\xrcore\_sphere.cpp

; 163  : 	for (It k=t; k!=i; ++k)

	jne	SHORT $LL13@max_excess
$LN33@max_excess:

; 174  : 		}
; 175  : 	}
; 176  : 
; 177  : 	return max_e;

	movaps	xmm0, xmm3

; 178  : }

	ret	0
?max_excess@Miniball@@AEBAMV?$_List_iterator@V?$_List_val@U?$_List_simple_types@U?$_vector3@M@@@std@@@std@@@std@@0AEAV23@@Z ENDP ; Miniball::max_excess
_TEXT	ENDS
; Function compile flags: /Ogtpy
; File c:\users\nummer\documents\github\olr-3.0\src\xray\xrcore\_sphere.cpp
_TEXT	SEGMENT
this$ = 8
__$ReturnUdt$ = 16
?center@Miniball@@QEBA?AU?$_vector3@M@@XZ PROC		; Miniball::center

; 184  : 
; 185  : float Miniball::squared_radius () const
; 186  : {
; 187  : 	return B.squared_radius();
; 188  : }
; 189  : 
; 190  : int Miniball::num_points () const
; 191  : {
; 192  : 	return L.size();
; 193  : }
; 194  : 
; 195  : Miniball::Cit Miniball::points_begin () const
; 196  : {
; 197  : 	return L.begin();
; 198  : }
; 199  : 
; 200  : Miniball::Cit Miniball::points_end () const
; 201  : {
; 202  : 	return L.end();
; 203  : }
; 204  : 
; 205  : int Miniball::nr_support_gVectors () const
; 206  : {
; 207  : 	return B.support_size();
; 208  : }
; 209  : 
; 210  : Miniball::Cit Miniball::support_points_begin () const
; 211  : {
; 212  : 	return L.begin();
; 213  : }
; 214  : 
; 215  : Miniball::Cit Miniball::support_points_end () const
; 216  : {
; 217  : 	return support_end;
; 218  : }
; 219  : 
; 220  : 
; 221  : //----------------------------------------------------------------------
; 222  : // Basis
; 223  : //---------------------------------------------------------------------
; 224  : const Fvector* Basis::center () const
; 225  : {
; 226  : 	return current_c;

	mov	rax, QWORD PTR [rcx+232]

; 182  : 	return *((Fvector *)B.center());

	movsdx	xmm0, QWORD PTR [rax]
	mov	eax, DWORD PTR [rax+8]
	movsdx	QWORD PTR [rdx], xmm0
	mov	DWORD PTR [rdx+8], eax
	mov	rax, rdx

; 183  : }

	ret	0
?center@Miniball@@QEBA?AU?$_vector3@M@@XZ ENDP		; Miniball::center
_TEXT	ENDS
; Function compile flags: /Ogtpy
; File c:\users\nummer\documents\github\olr-3.0\src\xray\xrcore\_sphere.cpp
_TEXT	SEGMENT
this$ = 8
?squared_radius@Miniball@@QEBAMXZ PROC			; Miniball::squared_radius

; 187  : 	return B.squared_radius();

	movss	xmm0, DWORD PTR [rcx+240]

; 188  : }

	ret	0
?squared_radius@Miniball@@QEBAMXZ ENDP			; Miniball::squared_radius
_TEXT	ENDS
; Function compile flags: /Ogtpy
; File c:\users\nummer\documents\github\olr-3.0\src\xray\xrcore\_sphere.cpp
_TEXT	SEGMENT
this$ = 8
?center@Basis@@QEBAPEBU?$_vector3@M@@XZ PROC		; Basis::center

; 226  : 	return current_c;

	mov	rax, QWORD PTR [rcx+216]

; 227  : }

	ret	0
?center@Basis@@QEBAPEBU?$_vector3@M@@XZ ENDP		; Basis::center
_TEXT	ENDS
; Function compile flags: /Ogtpy
; File c:\users\nummer\documents\github\olr-3.0\src\xray\xrcore\_sphere.cpp
_TEXT	SEGMENT
this$ = 8
?squared_radius@Basis@@QEBAMXZ PROC			; Basis::squared_radius

; 231  : 	return current_sqr_r;

	movss	xmm0, DWORD PTR [rcx+224]

; 232  : }

	ret	0
?squared_radius@Basis@@QEBAMXZ ENDP			; Basis::squared_radius
_TEXT	ENDS
; Function compile flags: /Ogtpy
; File c:\users\nummer\documents\github\olr-3.0\src\xray\xrcore\_sphere.cpp
_TEXT	SEGMENT
this$ = 8
?size@Basis@@QEBAHXZ PROC				; Basis::size

; 236  : 	return m;

	mov	eax, DWORD PTR [rcx+4]

; 237  : }

	ret	0
?size@Basis@@QEBAHXZ ENDP				; Basis::size
_TEXT	ENDS
; Function compile flags: /Ogtpy
; File c:\users\nummer\documents\github\olr-3.0\src\xray\xrcore\_sphere.cpp
; File c:\users\nummer\documents\github\olr-3.0\src\xray\xrcore\_vector3d.h
; File c:\users\nummer\documents\github\olr-3.0\src\xray\xrcore\_sphere.cpp
_TEXT	SEGMENT
this$ = 8
p$ = 16
?excess@Basis@@QEBAMAEBU?$_vector3@M@@@Z PROC		; Basis::excess

; 247  : 	e += p.distance_to_sqr(*current_c);

	mov	rax, QWORD PTR [rcx+216]
; File c:\users\nummer\documents\github\olr-3.0\src\xray\xrcore\_vector3d.h

; 287  : 	{	return (x-v.x)*(x-v.x) + (y-v.y)*(y-v.y) + (z-v.z)*(z-v.z);	}

	movss	xmm1, DWORD PTR [rdx+8]
	movss	xmm2, DWORD PTR [rdx+4]
	subss	xmm1, DWORD PTR [rax+8]
	movss	xmm0, DWORD PTR [rdx]
	subss	xmm2, DWORD PTR [rax+4]
	mulss	xmm1, xmm1
	mulss	xmm2, xmm2
	subss	xmm0, DWORD PTR [rax]
	mulss	xmm0, xmm0
	addss	xmm0, xmm2
	addss	xmm0, xmm1
; File c:\users\nummer\documents\github\olr-3.0\src\xray\xrcore\_sphere.cpp

; 246  : 	float e = -current_sqr_r;

	movss	xmm1, DWORD PTR [rcx+224]
	xorps	xmm1, DWORD PTR __xmm@80000000800000008000000080000000

; 247  : 	e += p.distance_to_sqr(*current_c);

	addss	xmm0, xmm1

; 248  : 	return e;
; 249  : }

	ret	0
?excess@Basis@@QEBAMAEBU?$_vector3@M@@@Z ENDP		; Basis::excess
_TEXT	ENDS
; Function compile flags: /Ogtpy
; File c:\users\nummer\documents\github\olr-3.0\src\xray\xrcore\_sphere.cpp
; File c:\users\nummer\documents\github\olr-3.0\src\xray\xrcore\_vector3d.h
; File c:\users\nummer\documents\github\olr-3.0\src\xray\xrcore\_sphere.cpp
_TEXT	SEGMENT
this$ = 8
?reset@Basis@@QEAAXXZ PROC				; Basis::reset

; 253  : 	m = s = 0;
; 254  : 	// we misuse c[0] for the center of the empty sphere
; 255  : 	c[0].set(0,0,0);

	lea	rax, QWORD PTR [rcx+152]
	xor	edx, edx
	mov	QWORD PTR [rcx+4], rdx
; File c:\users\nummer\documents\github\olr-3.0\src\xray\xrcore\_vector3d.h

; 23   : 	ICF	SelfRef	set(T _x, T _y, T _z)					{ x = _x;		y = _y;		z = _z;		return *this;	};

	mov	QWORD PTR [rax], rdx
	mov	DWORD PTR [rax+8], edx
; File c:\users\nummer\documents\github\olr-3.0\src\xray\xrcore\_sphere.cpp

; 256  : 	current_c = c;

	mov	QWORD PTR [rcx+216], rax

; 257  : 	current_sqr_r = -1;

	mov	DWORD PTR [rcx+224], -1082130432	; bf800000H

; 258  : }

	ret	0
?reset@Basis@@QEAAXXZ ENDP				; Basis::reset
_TEXT	ENDS
; Function compile flags: /Ogtpy
; File c:\users\nummer\documents\github\olr-3.0\src\xray\xrcore\_sphere.cpp
; File c:\users\nummer\documents\github\olr-3.0\src\xray\xrcore\_vector3d.h
; File c:\users\nummer\documents\github\olr-3.0\src\xray\xrcore\_sphere.cpp
_TEXT	SEGMENT
this$ = 8
??0Basis@@QEAA@XZ PROC					; Basis::Basis

; 255  : 	c[0].set(0,0,0);

	lea	rax, QWORD PTR [rcx+152]
	xor	edx, edx
	mov	QWORD PTR [rcx+4], rdx
; File c:\users\nummer\documents\github\olr-3.0\src\xray\xrcore\_vector3d.h

; 23   : 	ICF	SelfRef	set(T _x, T _y, T _z)					{ x = _x;		y = _y;		z = _z;		return *this;	};

	mov	QWORD PTR [rax], rdx
	mov	DWORD PTR [rax+8], edx
; File c:\users\nummer\documents\github\olr-3.0\src\xray\xrcore\_sphere.cpp

; 256  : 	current_c = c;

	mov	QWORD PTR [rcx+216], rax

; 257  : 	current_sqr_r = -1;

	mov	DWORD PTR [rcx+224], -1082130432	; bf800000H

; 263  : 	reset();
; 264  : }

	mov	rax, rcx
	ret	0
??0Basis@@QEAA@XZ ENDP					; Basis::Basis
_TEXT	ENDS
; Function compile flags: /Ogtpy
; File c:\users\nummer\documents\github\olr-3.0\src\xray\xrcore\_sphere.cpp
_TEXT	SEGMENT
this$ = 8
?pop@Basis@@QEAAXXZ PROC				; Basis::pop

; 269  : 	--m;

	dec	DWORD PTR [rcx+4]

; 270  : }

	ret	0
?pop@Basis@@QEAAXXZ ENDP				; Basis::pop
_TEXT	ENDS
; Function compile flags: /Ogtpy
; File c:\users\nummer\documents\github\olr-3.0\src\xray\xrcore\_sphere.cpp
; File c:\users\nummer\documents\github\olr-3.0\src\xray\xrcore\_vector3d.h
; File c:\users\nummer\documents\github\olr-3.0\src\xray\xrcore\_sphere.cpp
; File c:\users\nummer\documents\github\olr-3.0\src\xray\xrcore\_vector3d.h
; File c:\users\nummer\documents\github\olr-3.0\src\xray\xrcore\_sphere.cpp
; File c:\users\nummer\documents\github\olr-3.0\src\xray\xrcore\_vector3d.h
; File c:\users\nummer\documents\github\olr-3.0\src\xray\xrcore\_sphere.cpp
; File c:\users\nummer\documents\github\olr-3.0\src\xray\xrcore\_vector3d.h
; File c:\users\nummer\documents\github\olr-3.0\src\xray\xrcore\_sphere.cpp
; File c:\users\nummer\documents\github\olr-3.0\src\xray\xrcore\_vector3d.h
; File c:\users\nummer\documents\github\olr-3.0\src\xray\xrcore\_sphere.cpp
; File c:\users\nummer\documents\github\olr-3.0\src\xray\xrcore\_vector3d.h
; File c:\users\nummer\documents\github\olr-3.0\src\xray\xrcore\_sphere.cpp
; File c:\users\nummer\documents\github\olr-3.0\src\xray\xrcore\_vector3d.h
; File c:\users\nummer\documents\github\olr-3.0\src\xray\xrcore\_sphere.cpp
; File c:\users\nummer\documents\github\olr-3.0\src\xray\xrcore\_vector3d.h
; File c:\users\nummer\documents\github\olr-3.0\src\xray\xrcore\_sphere.cpp
; File c:\users\nummer\documents\github\olr-3.0\src\xray\xrcore\_vector3d.h
; File c:\users\nummer\documents\github\olr-3.0\src\xray\xrcore\_sphere.cpp
; File c:\users\nummer\documents\github\olr-3.0\src\xray\xrcore\_vector3d.h
; File c:\users\nummer\documents\github\olr-3.0\src\xray\xrcore\_sphere.cpp
; File c:\users\nummer\documents\github\olr-3.0\src\xray\xrcore\_vector3d.h
; File c:\users\nummer\documents\github\olr-3.0\src\xray\xrcore\_sphere.cpp
; File c:\users\nummer\documents\github\olr-3.0\src\xray\xrcore\_vector3d.h
; File c:\users\nummer\documents\github\olr-3.0\src\xray\xrcore\_sphere.cpp
; File c:\users\nummer\documents\github\olr-3.0\src\xray\xrcore\_vector3d.h
; File c:\users\nummer\documents\github\olr-3.0\src\xray\xrcore\_sphere.cpp
; File c:\users\nummer\documents\github\olr-3.0\src\xray\xrcore\_vector3d.h
; File c:\users\nummer\documents\github\olr-3.0\src\xray\xrcore\_sphere.cpp
_TEXT	SEGMENT
this$ = 16
p$ = 24
?push@Basis@@QEAA_NAEBU?$_vector3@M@@@Z PROC		; Basis::push

; 273  : {

$LN39:
	push	rdi

; 274  : 	if (m==0)

	movsxd	rax, DWORD PTR [rcx+4]
	mov	rdi, rdx
	mov	r9, rcx
	test	eax, eax
	jne	SHORT $LN9@push

; 275  : 	{
; 276  : 		q0 = p;

	movsdx	xmm0, QWORD PTR [rdx]
	movsdx	QWORD PTR [rcx+12], xmm0
	mov	eax, DWORD PTR [rdx+8]
	mov	DWORD PTR [rcx+20], eax

; 277  : 		c[0] = q0;

	movsdx	xmm0, QWORD PTR [rdx]
	movsdx	QWORD PTR [rcx+152], xmm0
	mov	eax, DWORD PTR [rdx+8]

; 278  : 		sqr_r[0] = 0;

	mov	DWORD PTR [rcx+200], 0
	mov	DWORD PTR [rcx+160], eax

; 279  : 	}
; 280  : 	else

	jmp	$LN8@push
$LN9@push:
; File c:\users\nummer\documents\github\olr-3.0\src\xray\xrcore\_vector3d.h

; 36   : 	ICF	SelfRef	sub(const Self &a, const Self &v)		{ x=a.x-v.x;y=a.y-v.y;	z=a.z-v.z;		return *this;	};

	movss	xmm0, DWORD PTR [rdx]
; File c:\users\nummer\documents\github\olr-3.0\src\xray\xrcore\_sphere.cpp

; 289  : 		for (i=1; i<m; ++i)

	movss	xmm3, DWORD PTR __real@40000000
	lea	rcx, QWORD PTR [rax+rax*2]
	mov	r10d, 1
	mov	QWORD PTR [rsp+16], rbx
	mov	ebx, r10d
; File c:\users\nummer\documents\github\olr-3.0\src\xray\xrcore\_vector3d.h

; 36   : 	ICF	SelfRef	sub(const Self &a, const Self &v)		{ x=a.x-v.x;y=a.y-v.y;	z=a.z-v.z;		return *this;	};

	subss	xmm0, DWORD PTR [r9+12]
	movss	DWORD PTR [r9+rcx*4+56], xmm0
	movss	xmm1, DWORD PTR [rdx+4]
	subss	xmm1, DWORD PTR [r9+16]
	movss	DWORD PTR [r9+rcx*4+60], xmm1
	movss	xmm0, DWORD PTR [rdx+8]
	subss	xmm0, DWORD PTR [r9+20]
	movss	DWORD PTR [r9+rcx*4+64], xmm0
; File c:\users\nummer\documents\github\olr-3.0\src\xray\xrcore\_sphere.cpp

; 289  : 		for (i=1; i<m; ++i)

	cmp	DWORD PTR [r9+4], ebx
	jle	$LN5@push
	mov	r8d, r10d
	lea	r11, QWORD PTR [r9+28]
	lea	rdx, QWORD PTR [r9+76]
	npad	9
$LL7@push:

; 291  : 			a[m][i] =  v[i].dotproduct(v[m]);

	movsxd	rcx, DWORD PTR [r9+4]
; File c:\users\nummer\documents\github\olr-3.0\src\xray\xrcore\_vector3d.h

; 268  : 	{	return x*v.x + y*v.y + z*v.z; }

	movss	xmm0, DWORD PTR [rdx-8]
	movss	xmm2, DWORD PTR [rdx-4]
; File c:\users\nummer\documents\github\olr-3.0\src\xray\xrcore\_sphere.cpp

; 289  : 		for (i=1; i<m; ++i)

	inc	ebx
	add	r11, 4
	add	rdx, 12

; 291  : 			a[m][i] =  v[i].dotproduct(v[m]);

	lea	rax, QWORD PTR [rcx+rcx*2]
; File c:\users\nummer\documents\github\olr-3.0\src\xray\xrcore\_vector3d.h

; 268  : 	{	return x*v.x + y*v.y + z*v.z; }

	mulss	xmm0, DWORD PTR [r9+rax*4+56]
	mulss	xmm2, DWORD PTR [r9+rax*4+60]
	movss	xmm1, DWORD PTR [r9+rax*4+64]
; File c:\users\nummer\documents\github\olr-3.0\src\xray\xrcore\_sphere.cpp

; 291  : 			a[m][i] =  v[i].dotproduct(v[m]);

	lea	rax, QWORD PTR [r8+rcx*2]
	add	rcx, rax
; File c:\users\nummer\documents\github\olr-3.0\src\xray\xrcore\_vector3d.h

; 268  : 	{	return x*v.x + y*v.y + z*v.z; }

	addss	xmm2, xmm0
; File c:\users\nummer\documents\github\olr-3.0\src\xray\xrcore\_sphere.cpp

; 292  : 			a[m][i] *= (2.f/z[i]);

	movaps	xmm0, xmm3
; File c:\users\nummer\documents\github\olr-3.0\src\xray\xrcore\_vector3d.h

; 268  : 	{	return x*v.x + y*v.y + z*v.z; }

	mulss	xmm1, DWORD PTR [rdx-12]
	addss	xmm2, xmm1
; File c:\users\nummer\documents\github\olr-3.0\src\xray\xrcore\_sphere.cpp

; 291  : 			a[m][i] =  v[i].dotproduct(v[m]);

	movss	DWORD PTR [r9+rcx*4+104], xmm2

; 292  : 			a[m][i] *= (2.f/z[i]);

	divss	xmm0, DWORD PTR [r11-4]
	movsxd	rcx, DWORD PTR [r9+4]
; File c:\users\nummer\documents\github\olr-3.0\src\xray\xrcore\_vector3d.h

; 20   : 	ICF	T&			operator[] (int i)					{ return *((T*)this + i); }

	lea	rax, QWORD PTR [r8+rcx*2]
; File c:\users\nummer\documents\github\olr-3.0\src\xray\xrcore\_sphere.cpp

; 289  : 		for (i=1; i<m; ++i)

	inc	r8
; File c:\users\nummer\documents\github\olr-3.0\src\xray\xrcore\_vector3d.h

; 20   : 	ICF	T&			operator[] (int i)					{ return *((T*)this + i); }

	add	rcx, rax
; File c:\users\nummer\documents\github\olr-3.0\src\xray\xrcore\_sphere.cpp

; 292  : 			a[m][i] *= (2.f/z[i]);

	mulss	xmm0, DWORD PTR [r9+rcx*4+104]
	movss	DWORD PTR [r9+rcx*4+104], xmm0
	cmp	ebx, DWORD PTR [r9+4]
	jl	SHORT $LL7@push
$LN5@push:

; 296  : 		for (i=1; i<m; ++i)

	movss	xmm4, DWORD PTR __xmm@80000000800000008000000080000000
	mov	rbx, QWORD PTR [rsp+16]
	cmp	DWORD PTR [r9+4], r10d
	jle	SHORT $LN2@push
	mov	r11, r10
	lea	r8, QWORD PTR [r9+76]
$LL4@push:

; 297  : 		{
; 298  : 			v[m].mad(v[m],v[i],-a[m][i]);

	movsxd	rdx, DWORD PTR [r9+4]
	inc	r10d
	add	r8, 12
	lea	rax, QWORD PTR [rdx+rdx*2]
	lea	rcx, QWORD PTR [r11+rdx*2]
	inc	r11
	add	rcx, rdx
	movss	xmm2, DWORD PTR [r9+rcx*4+104]
	xorps	xmm2, xmm4
; File c:\users\nummer\documents\github\olr-3.0\src\xray\xrcore\_vector3d.h

; 144  : 		x = p.x + d.x*m;

	movaps	xmm0, xmm2

; 145  : 		y = p.y + d.y*m;

	movaps	xmm1, xmm2
	mulss	xmm0, DWORD PTR [r8-20]
	addss	xmm0, DWORD PTR [r9+rax*4+56]
	movss	DWORD PTR [r9+rax*4+56], xmm0
	mulss	xmm1, DWORD PTR [r8-16]
	addss	xmm1, DWORD PTR [r9+rax*4+60]
	movss	DWORD PTR [r9+rax*4+60], xmm1

; 146  : 		z = p.z + d.z*m;

	mulss	xmm2, DWORD PTR [r8-12]
	addss	xmm2, DWORD PTR [r9+rax*4+64]
	movss	DWORD PTR [r9+rax*4+64], xmm2
; File c:\users\nummer\documents\github\olr-3.0\src\xray\xrcore\_sphere.cpp

; 296  : 		for (i=1; i<m; ++i)

	cmp	r10d, DWORD PTR [r9+4]
	jl	SHORT $LL4@push
$LN2@push:

; 299  : 		}
; 300  : 
; 301  : 		// compute z_m
; 302  : 		z[m]=0;

	movsxd	rax, DWORD PTR [r9+4]
	mov	DWORD PTR [r9+rax*4+24], 0

; 303  : 		z[m] += v[m].square_magnitude();

	movsxd	rcx, DWORD PTR [r9+4]
	lea	rax, QWORD PTR [rcx+rcx*2]
; File c:\users\nummer\documents\github\olr-3.0\src\xray\xrcore\_vector3d.h

; 167  : 		return x*x + y*y + z*z;

	movss	xmm0, DWORD PTR [r9+rax*4+60]
	movss	xmm2, DWORD PTR [r9+rax*4+56]
	movss	xmm1, DWORD PTR [r9+rax*4+64]
	mulss	xmm0, xmm0
	mulss	xmm2, xmm2
	mulss	xmm1, xmm1
	addss	xmm2, xmm0
	addss	xmm2, xmm1
; File c:\users\nummer\documents\github\olr-3.0\src\xray\xrcore\_sphere.cpp

; 303  : 		z[m] += v[m].square_magnitude();

	addss	xmm2, DWORD PTR [r9+rcx*4+24]
	movss	DWORD PTR [r9+rcx*4+24], xmm2

; 304  : 		z[m]*=2;

	movsxd	rax, DWORD PTR [r9+4]
	movss	xmm0, DWORD PTR [r9+rax*4+24]
	mulss	xmm0, xmm3
	movss	DWORD PTR [r9+rax*4+24], xmm0

; 305  : 
; 306  : 		// reject push if z_m too small
; 307  : 		if (z[m]<eps*current_sqr_r)

	movsxd	rax, DWORD PTR [r9+4]
	movss	xmm0, DWORD PTR [r9+224]
	mov	rdx, rax
	movss	xmm2, DWORD PTR [r9+rax*4+24]
	mulss	xmm0, DWORD PTR __real@24e69595
	comiss	xmm2, xmm0
	jae	SHORT $LN1@push

; 308  : 		{
; 309  : 			return false;

	xor	al, al

; 327  : }

	pop	rdi
	ret	0
$LN1@push:
; File c:\users\nummer\documents\github\olr-3.0\src\xray\xrcore\_vector3d.h

; 287  : 	{	return (x-v.x)*(x-v.x) + (y-v.y)*(y-v.y) + (z-v.z)*(z-v.z);	}

	movss	xmm1, DWORD PTR [rdi+4]
	movss	xmm3, DWORD PTR [rdi]
	movss	xmm0, DWORD PTR [rdi+8]
; File c:\users\nummer\documents\github\olr-3.0\src\xray\xrcore\_sphere.cpp

; 314  : 		e += p.distance_to_sqr(c[m-1]);

	dec	eax
	movsxd	rcx, eax
	lea	rax, QWORD PTR [rcx+rcx*2]
; File c:\users\nummer\documents\github\olr-3.0\src\xray\xrcore\_vector3d.h

; 287  : 	{	return (x-v.x)*(x-v.x) + (y-v.y)*(y-v.y) + (z-v.z)*(z-v.z);	}

	subss	xmm3, DWORD PTR [r9+rax*4+152]
	subss	xmm0, DWORD PTR [r9+rax*4+160]
	subss	xmm1, DWORD PTR [r9+rax*4+156]
	mulss	xmm0, xmm0
	mulss	xmm3, xmm3
	mulss	xmm1, xmm1
	addss	xmm3, xmm1
	addss	xmm3, xmm0
; File c:\users\nummer\documents\github\olr-3.0\src\xray\xrcore\_sphere.cpp

; 313  : 		float e = -sqr_r[m-1];

	movss	xmm0, DWORD PTR [r9+rdx*4+196]
	xorps	xmm0, xmm4

; 314  : 		e += p.distance_to_sqr(c[m-1]);

	addss	xmm3, xmm0

; 315  : 
; 316  : 		f[m]=e/z[m];

	movaps	xmm0, xmm3
	divss	xmm0, xmm2
	movss	DWORD PTR [r9+rdx*4+40], xmm0

; 318  : 		c[m].mad(c[m-1],v[m],f[m]);

	movsxd	rcx, DWORD PTR [r9+4]
	movss	xmm2, DWORD PTR [r9+rcx*4+40]
	lea	rdx, QWORD PTR [rcx+rcx*2]
	lea	eax, DWORD PTR [rcx-1]
	movsxd	rcx, eax
; File c:\users\nummer\documents\github\olr-3.0\src\xray\xrcore\_vector3d.h

; 144  : 		x = p.x + d.x*m;

	movaps	xmm0, xmm2

; 145  : 		y = p.y + d.y*m;

	movaps	xmm1, xmm2
	mulss	xmm0, DWORD PTR [r9+rdx*4+56]
; File c:\users\nummer\documents\github\olr-3.0\src\xray\xrcore\_sphere.cpp

; 318  : 		c[m].mad(c[m-1],v[m],f[m]);

	lea	rax, QWORD PTR [rcx+rcx*2]
; File c:\users\nummer\documents\github\olr-3.0\src\xray\xrcore\_vector3d.h

; 144  : 		x = p.x + d.x*m;

	addss	xmm0, DWORD PTR [r9+rax*4+152]
	movss	DWORD PTR [r9+rdx*4+152], xmm0

; 145  : 		y = p.y + d.y*m;

	mulss	xmm1, DWORD PTR [r9+rdx*4+60]
	addss	xmm1, DWORD PTR [r9+rax*4+156]
	movss	DWORD PTR [r9+rdx*4+156], xmm1

; 146  : 		z = p.z + d.z*m;

	mulss	xmm2, DWORD PTR [r9+rdx*4+64]
	addss	xmm2, DWORD PTR [r9+rax*4+160]
	movss	DWORD PTR [r9+rdx*4+160], xmm2
; File c:\users\nummer\documents\github\olr-3.0\src\xray\xrcore\_sphere.cpp

; 320  : 		sqr_r[m] = sqr_r[m-1] + e*f[m]/2;

	movsxd	rax, DWORD PTR [r9+4]
	mulss	xmm3, DWORD PTR [r9+rax*4+40]
	mulss	xmm3, DWORD PTR __real@3f000000
	addss	xmm3, DWORD PTR [r9+rax*4+196]
	movss	DWORD PTR [r9+rax*4+200], xmm3
$LN8@push:

; 321  : 	}
; 322  : 
; 323  : 	current_c = c+m;

	movsxd	r8, DWORD PTR [r9+4]
	lea	rcx, QWORD PTR [r8+19]
	lea	rcx, QWORD PTR [r8+rcx*2]
	lea	rcx, QWORD PTR [r9+rcx*4]
	mov	QWORD PTR [r9+216], rcx

; 324  : 	current_sqr_r = sqr_r[m];

	mov	eax, DWORD PTR [r9+r8*4+200]
	mov	DWORD PTR [r9+224], eax

; 325  : 	s = ++m;

	lea	eax, DWORD PTR [r8+1]
	mov	DWORD PTR [r9+4], eax
	mov	DWORD PTR [r9+8], eax

; 326  : 	return true;

	mov	al, 1

; 327  : }

	pop	rdi
	ret	0
?push@Basis@@QEAA_NAEBU?$_vector3@M@@@Z ENDP		; Basis::push
_TEXT	ENDS
; Function compile flags: /Ogtpy
; File c:\users\nummer\documents\github\olr-3.0\src\xray\xrcore\_sphere.cpp
; File c:\program files (x86)\microsoft visual studio 12.0\vc\include\list
; File c:\users\nummer\documents\github\olr-3.0\src\xray\xrcore\_sphere.cpp
; File c:\program files (x86)\microsoft visual studio 12.0\vc\include\list
; File c:\users\nummer\documents\github\olr-3.0\src\xray\xrcore\_sphere.cpp
; File c:\users\nummer\documents\github\olr-3.0\src\xray\xrcore\_vector3d.h
; File c:\users\nummer\documents\github\olr-3.0\src\xray\xrcore\_sphere.cpp
; File c:\program files (x86)\microsoft visual studio 12.0\vc\include\list
; File c:\users\nummer\documents\github\olr-3.0\src\xray\xrcore\_sphere.cpp
; File c:\program files (x86)\microsoft visual studio 12.0\vc\include\list
; File c:\users\nummer\documents\github\olr-3.0\src\xray\xrcore\_sphere.cpp
; File c:\program files (x86)\microsoft visual studio 12.0\vc\include\list
; File c:\users\nummer\documents\github\olr-3.0\src\xray\xrcore\_sphere.cpp
; File c:\program files (x86)\microsoft visual studio 12.0\vc\include\list
; File c:\users\nummer\documents\github\olr-3.0\src\xray\xrcore\_sphere.cpp
; File c:\program files (x86)\microsoft visual studio 12.0\vc\include\list
; File c:\users\nummer\documents\github\olr-3.0\src\xray\xrcore\_sphere.cpp
; File c:\users\nummer\documents\github\olr-3.0\src\xray\xrcore\_vector3d.h
; File c:\users\nummer\documents\github\olr-3.0\src\xray\xrcore\_sphere.cpp
; File c:\program files (x86)\microsoft visual studio 12.0\vc\include\list
; File c:\users\nummer\documents\github\olr-3.0\src\xray\xrcore\_sphere.cpp
; File c:\users\nummer\documents\github\olr-3.0\src\xray\xrcore\_vector3d.h
; File c:\users\nummer\documents\github\olr-3.0\src\xray\xrcore\_sphere.cpp
; File c:\users\nummer\documents\github\olr-3.0\src\xray\xrcore\_vector3d.h
; File c:\users\nummer\documents\github\olr-3.0\src\xray\xrcore\_std_extensions.h
; File c:\users\nummer\documents\github\olr-3.0\src\xray\xrcore\_vector3d.h
; File c:\users\nummer\documents\github\olr-3.0\src\xray\xrcore\_sphere.cpp
; File c:\program files (x86)\microsoft visual studio 12.0\vc\include\list
; File c:\users\nummer\documents\github\olr-3.0\src\xray\xrcore\xrmemory.h
; File c:\users\nummer\documents\github\olr-3.0\src\xray\xrcore\xrmemory_subst_msvc.cpp
; File c:\users\nummer\documents\github\olr-3.0\src\xray\xrcore\xrmemory_align.cpp
; File c:\users\nummer\documents\github\olr-3.0\src\xray\xrcore\xrmemory_subst_msvc.cpp
; File c:\program files (x86)\microsoft visual studio 12.0\vc\include\list
; File c:\users\nummer\documents\github\olr-3.0\src\xray\xrcore\xrmemory_subst_msvc.cpp
; File c:\users\nummer\documents\github\olr-3.0\src\xray\xrcore\xrsyncronize.cpp
; File c:\users\nummer\documents\github\olr-3.0\src\xray\xrcore\xrmemory_pool.h
; File c:\users\nummer\documents\github\olr-3.0\src\xray\xrcore\xrsyncronize.cpp
; File c:\users\nummer\documents\github\olr-3.0\src\xray\xrcore\xrmemory_pool.h
; File c:\users\nummer\documents\github\olr-3.0\src\xray\xrcore\xrsyncronize.cpp
; File c:\users\nummer\documents\github\olr-3.0\src\xray\xrcore\_sphere.cpp
_TEXT	SEGMENT
$T1 = 32
mb$ = 48
dest$ = 352
verts$ = 360
count$ = 368
?Fsphere_compute@@YAXAEAU?$_sphere@M@@PEBU?$_vector3@M@@H@Z PROC ; Fsphere_compute

; 330  : {

$LN202:
	mov	QWORD PTR [rsp+8], rbx
	mov	QWORD PTR [rsp+16], rsi
	mov	QWORD PTR [rsp+24], rdi
	push	rbp
	push	r12
	push	r13
	push	r14
	push	r15
	lea	rbp, QWORD PTR [rsp-48]
	sub	rsp, 304				; 00000130H
	mov	esi, r8d
	mov	r14, rdx
; File c:\program files (x86)\microsoft visual studio 12.0\vc\include\list

; 527  : 		this->_Myhead = 0;

	xor	r12d, r12d

; 534  : 		}
; 535  : 
; 536  : 	static _Nodepref _Prevnode(_Nodeptr _Pnode)
; 537  : 		{	// return reference to predecessor pointer in node
; 538  : 		return ((_Nodepref)_Pnode->_Prev);
; 539  : 		}
; 540  : 
; 541  : 	static reference _Myval(_Nodeptr _Pnode)
; 542  : 		{	// return reference to value in node
; 543  : 		return ((reference)_Pnode->_Myval);
; 544  : 		}
; 545  : 
; 546  : 	_Nodeptr _Myhead;	// pointer to head node
; 547  : 	size_type _Mysize;	// number of elements
; 548  : 	};
; 549  : 
; 550  : 		// TEMPLATE CLASS _List_alloc
; 551  : template<bool _Al_has_storage,
; 552  : 	class _Alloc_types>
; 553  : 	class _List_alloc
; 554  : 		: public _List_val<typename _Alloc_types::_Val_types>
; 555  : 	{	// base class for list to hold allocator with storage
; 556  : public:
; 557  : 	typename _Alloc_types::_Alnod_type _Alnod;	// allocator object
; 558  : 
; 559  : 	typedef _List_alloc<_Al_has_storage, _Alloc_types> _Myt;
; 560  : 	typedef typename _Alloc_types::_Alloc _Alloc;
; 561  : 	typedef typename _Alloc_types::_Alnod_type _Alty;
; 562  : 	typedef typename _Alloc_types::_Node _Node;
; 563  : 	typedef typename _Alloc_types::_Nodeptr _Nodeptr;
; 564  : 
; 565  :  #if _ITERATOR_DEBUG_LEVEL == 0
; 566  : 	_List_alloc(const _Alloc& _Al = _Alloc())
; 567  : 		: _Alnod(_Al)
; 568  : 		{	// construct head node, allocator from _Al
; 569  : 		this->_Myhead = _Buyheadnode();
; 570  : 		}
; 571  : 
; 572  : 	~_List_alloc() _NOEXCEPT
; 573  : 		{	// destroy head node
; 574  : 		_Freeheadnode(this->_Myhead);
; 575  : 		}
; 576  : 
; 577  : 	void _Change_alloc(const _Alty& _Al)
; 578  : 		{	// replace old allocator
; 579  : 		this->_Alnod = _Al;
; 580  : 		}
; 581  : 
; 582  : 	void _Swap_alloc(_Myt& _Right)
; 583  : 		{	// swap allocators
; 584  : 		_Swap_adl(this->_Alnod, _Right._Alnod);
; 585  : 		}
; 586  : 
; 587  :  #else /* _ITERATOR_DEBUG_LEVEL == 0 */
; 588  : 	_List_alloc(const _Alloc& _Al = _Alloc())
; 589  : 		: _Alnod(_Al)
; 590  : 		{	// construct head node, allocator from _Al
; 591  : 		this->_Myhead = _Buyheadnode();
; 592  : 		_TRY_BEGIN
; 593  : 		_Alloc_proxy();
; 594  : 		_CATCH_ALL
; 595  : 		_Freeheadnode(this->_Myhead);
; 596  : 		_RERAISE;
; 597  : 		_CATCH_END
; 598  : 		}
; 599  : 
; 600  : 	~_List_alloc() _NOEXCEPT
; 601  : 		{	// destroy proxy
; 602  : 		_Freeheadnode(this->_Myhead);
; 603  : 		_Free_proxy();
; 604  : 		}
; 605  : 
; 606  : 	void _Change_alloc(const _Alty& _Al)
; 607  : 		{	// replace old allocator
; 608  : 		_Free_proxy();
; 609  : 		this->_Alnod = _Al;
; 610  : 		_Alloc_proxy();
; 611  : 		}
; 612  : 
; 613  : 	void _Swap_alloc(_Myt& _Right)
; 614  : 		{	// swap allocators
; 615  : 		_Swap_adl(this->_Alnod, _Right._Alnod);
; 616  : 		_Swap_adl(this->_Myproxy, _Right._Myproxy);
; 617  : 		}
; 618  : 
; 619  : 	void _Alloc_proxy()
; 620  : 		{	// construct proxy from _Alnod
; 621  : 		typename _Alty::template rebind<_Container_proxy>::other
; 622  : 			_Alproxy(this->_Alnod);
; 623  : 		this->_Myproxy = _Alproxy.allocate(1);
; 624  : 		_Alproxy.construct(this->_Myproxy, _Container_proxy());
; 625  : 		this->_Myproxy->_Mycont = this;
; 626  : 		}
; 627  : 
; 628  : 	void _Free_proxy()
; 629  : 		{	// destroy proxy
; 630  : 		typename _Alty::template rebind<_Container_proxy>::other
; 631  : 			_Alproxy(this->_Alnod);
; 632  : 		this->_Orphan_all();
; 633  : 		_Alproxy.destroy(this->_Myproxy);
; 634  : 		_Alproxy.deallocate(this->_Myproxy, 1);
; 635  : 		this->_Myproxy = 0;
; 636  : 		}
; 637  :  #endif /* _ITERATOR_DEBUG_LEVEL == 0 */
; 638  : 
; 639  : 	_Nodeptr _Buyheadnode()
; 640  : 		{	// get head node using current allocator
; 641  : 		return (_Buynode0(_Nodeptr(), _Nodeptr()));
; 642  : 		}
; 643  : 
; 644  : 	void _Freeheadnode(_Nodeptr _Pnode)
; 645  : 		{	// free head node using current allocator
; 646  : 		this->_Alnod.destroy(
; 647  : 			_STD addressof(this->_Nextnode(_Pnode)));
; 648  : 		this->_Alnod.destroy(
; 649  : 			_STD addressof(this->_Prevnode(_Pnode)));
; 650  : 		this->_Alnod.deallocate(_Pnode, 1);
; 651  : 		}
; 652  : 
; 653  : 	_Nodeptr _Buynode0(_Nodeptr _Next,
; 654  : 		_Nodeptr _Prev)
; 655  : 		{	// allocate a node and set links
; 656  : 		_Nodeptr _Pnode = this->_Alnod.allocate(1);
; 657  : 
; 658  : 		if (_Next == _Nodeptr())
; 659  : 			{	// point at self
; 660  : 			_Next = _Pnode;
; 661  : 			_Prev = _Pnode;
; 662  : 			}
; 663  : 		_TRY_BEGIN
; 664  : 		this->_Alnod.construct(
; 665  : 			_STD addressof(this->_Nextnode(_Pnode)), _Next);
; 666  : 		this->_Alnod.construct(
; 667  : 			_STD addressof(this->_Prevnode(_Pnode)), _Prev);
; 668  : 		_CATCH_ALL
; 669  : 		this->_Alnod.deallocate(_Pnode, 1);
; 670  : 		_RERAISE;
; 671  : 		_CATCH_END
; 672  : 
; 673  : 		return (_Pnode);
; 674  : 		}
; 675  : 
; 676  : 	_Alty& _Getal()
; 677  : 		{	// get reference to allocator
; 678  : 		return (this->_Alnod);
; 679  : 		}
; 680  : 
; 681  : 	const _Alty& _Getal() const
; 682  : 		{	// get reference to allocator
; 683  : 		return (this->_Alnod);
; 684  : 		}
; 685  : 	};
; 686  : 
; 687  : 		// TEMPLATE CLASS _List_alloc
; 688  : template<class _Alloc_types>
; 689  : 	class _List_alloc<false, _Alloc_types>
; 690  : 		: public _List_val<typename _Alloc_types::_Val_types>
; 691  : 	{	// base class for list to hold allocator with no storage
; 692  : public:
; 693  : 	typedef _List_alloc<false, _Alloc_types> _Myt;
; 694  : 	typedef typename _Alloc_types::_Alloc _Alloc;
; 695  : 	typedef typename _Alloc_types::_Alnod_type _Alty;
; 696  : 	typedef typename _Alloc_types::_Node _Node;
; 697  : 	typedef typename _Alloc_types::_Nodeptr _Nodeptr;
; 698  : 
; 699  :  #if _ITERATOR_DEBUG_LEVEL == 0
; 700  : 	_List_alloc(const _Alloc& = _Alloc())
; 701  : 		{	// construct head node, allocator from _Al
; 702  : 		this->_Myhead = _Buyheadnode();
; 703  : 		}
; 704  : 
; 705  : 	~_List_alloc() _NOEXCEPT
; 706  : 		{	// destroy head node
; 707  : 		_Freeheadnode(this->_Myhead);
; 708  : 		}
; 709  : 
; 710  : 	void _Change_alloc(const _Alty&)
; 711  : 		{	// replace old allocator
; 712  : 		}
; 713  : 
; 714  : 	void _Swap_alloc(_Myt&)
; 715  : 		{	// swap allocators
; 716  : 		}
; 717  : 
; 718  :  #else /* _ITERATOR_DEBUG_LEVEL == 0 */
; 719  : 	_List_alloc(const _Alloc& = _Alloc())
; 720  : 		{	// construct allocators from _Al
; 721  : 		this->_Myhead = _Buyheadnode();
; 722  : 		_TRY_BEGIN
; 723  : 		_Alloc_proxy();
; 724  : 		_CATCH_ALL
; 725  : 		_Freeheadnode(this->_Myhead);
; 726  : 		_RERAISE;
; 727  : 		_CATCH_END
; 728  : 		}
; 729  : 
; 730  : 	~_List_alloc() _NOEXCEPT
; 731  : 		{	// destroy proxy
; 732  : 		_Freeheadnode(this->_Myhead);
; 733  : 		_Free_proxy();
; 734  : 		}
; 735  : 
; 736  : 	void _Change_alloc(const _Alty&)
; 737  : 		{	// replace old allocator
; 738  : 		}
; 739  : 
; 740  : 	void _Swap_alloc(_Myt& _Right)
; 741  : 		{	// swap allocators
; 742  : 		_Swap_adl(this->_Myproxy, _Right._Myproxy);
; 743  : 		}
; 744  : 
; 745  : 	void _Alloc_proxy()
; 746  : 		{	// construct proxy from _Alnod
; 747  : 		typename _Alty::template rebind<_Container_proxy>::other
; 748  : 			_Alproxy;
; 749  : 		this->_Myproxy = _Alproxy.allocate(1);
; 750  : 		_Alproxy.construct(this->_Myproxy, _Container_proxy());
; 751  : 		this->_Myproxy->_Mycont = this;
; 752  : 		}
; 753  : 
; 754  : 	void _Free_proxy()
; 755  : 		{	// destroy proxy
; 756  : 		typename _Alty::template rebind<_Container_proxy>::other
; 757  : 			_Alproxy;
; 758  : 		this->_Orphan_all();
; 759  : 		_Alproxy.destroy(this->_Myproxy);
; 760  : 		_Alproxy.deallocate(this->_Myproxy, 1);
; 761  : 		this->_Myproxy = 0;
; 762  : 		}
; 763  :  #endif /* _ITERATOR_DEBUG_LEVEL == 0 */
; 764  : 
; 765  : 	_Nodeptr _Buyheadnode()
; 766  : 		{	// get head node using current allocator
; 767  : 		return (_Buynode0(_Nodeptr(), _Nodeptr()));

	xor	r8d, r8d
	xor	edx, edx
; File c:\users\nummer\documents\github\olr-3.0\src\xray\xrcore\_sphere.cpp

; 330  : {

	mov	r15, rcx
; File c:\program files (x86)\microsoft visual studio 12.0\vc\include\list

; 527  : 		this->_Myhead = 0;

	mov	QWORD PTR mb$[rsp], r12

; 528  : 		this->_Mysize = 0;

	mov	QWORD PTR mb$[rsp+8], r12

; 534  : 		}
; 535  : 
; 536  : 	static _Nodepref _Prevnode(_Nodeptr _Pnode)
; 537  : 		{	// return reference to predecessor pointer in node
; 538  : 		return ((_Nodepref)_Pnode->_Prev);
; 539  : 		}
; 540  : 
; 541  : 	static reference _Myval(_Nodeptr _Pnode)
; 542  : 		{	// return reference to value in node
; 543  : 		return ((reference)_Pnode->_Myval);
; 544  : 		}
; 545  : 
; 546  : 	_Nodeptr _Myhead;	// pointer to head node
; 547  : 	size_type _Mysize;	// number of elements
; 548  : 	};
; 549  : 
; 550  : 		// TEMPLATE CLASS _List_alloc
; 551  : template<bool _Al_has_storage,
; 552  : 	class _Alloc_types>
; 553  : 	class _List_alloc
; 554  : 		: public _List_val<typename _Alloc_types::_Val_types>
; 555  : 	{	// base class for list to hold allocator with storage
; 556  : public:
; 557  : 	typename _Alloc_types::_Alnod_type _Alnod;	// allocator object
; 558  : 
; 559  : 	typedef _List_alloc<_Al_has_storage, _Alloc_types> _Myt;
; 560  : 	typedef typename _Alloc_types::_Alloc _Alloc;
; 561  : 	typedef typename _Alloc_types::_Alnod_type _Alty;
; 562  : 	typedef typename _Alloc_types::_Node _Node;
; 563  : 	typedef typename _Alloc_types::_Nodeptr _Nodeptr;
; 564  : 
; 565  :  #if _ITERATOR_DEBUG_LEVEL == 0
; 566  : 	_List_alloc(const _Alloc& _Al = _Alloc())
; 567  : 		: _Alnod(_Al)
; 568  : 		{	// construct head node, allocator from _Al
; 569  : 		this->_Myhead = _Buyheadnode();
; 570  : 		}
; 571  : 
; 572  : 	~_List_alloc() _NOEXCEPT
; 573  : 		{	// destroy head node
; 574  : 		_Freeheadnode(this->_Myhead);
; 575  : 		}
; 576  : 
; 577  : 	void _Change_alloc(const _Alty& _Al)
; 578  : 		{	// replace old allocator
; 579  : 		this->_Alnod = _Al;
; 580  : 		}
; 581  : 
; 582  : 	void _Swap_alloc(_Myt& _Right)
; 583  : 		{	// swap allocators
; 584  : 		_Swap_adl(this->_Alnod, _Right._Alnod);
; 585  : 		}
; 586  : 
; 587  :  #else /* _ITERATOR_DEBUG_LEVEL == 0 */
; 588  : 	_List_alloc(const _Alloc& _Al = _Alloc())
; 589  : 		: _Alnod(_Al)
; 590  : 		{	// construct head node, allocator from _Al
; 591  : 		this->_Myhead = _Buyheadnode();
; 592  : 		_TRY_BEGIN
; 593  : 		_Alloc_proxy();
; 594  : 		_CATCH_ALL
; 595  : 		_Freeheadnode(this->_Myhead);
; 596  : 		_RERAISE;
; 597  : 		_CATCH_END
; 598  : 		}
; 599  : 
; 600  : 	~_List_alloc() _NOEXCEPT
; 601  : 		{	// destroy proxy
; 602  : 		_Freeheadnode(this->_Myhead);
; 603  : 		_Free_proxy();
; 604  : 		}
; 605  : 
; 606  : 	void _Change_alloc(const _Alty& _Al)
; 607  : 		{	// replace old allocator
; 608  : 		_Free_proxy();
; 609  : 		this->_Alnod = _Al;
; 610  : 		_Alloc_proxy();
; 611  : 		}
; 612  : 
; 613  : 	void _Swap_alloc(_Myt& _Right)
; 614  : 		{	// swap allocators
; 615  : 		_Swap_adl(this->_Alnod, _Right._Alnod);
; 616  : 		_Swap_adl(this->_Myproxy, _Right._Myproxy);
; 617  : 		}
; 618  : 
; 619  : 	void _Alloc_proxy()
; 620  : 		{	// construct proxy from _Alnod
; 621  : 		typename _Alty::template rebind<_Container_proxy>::other
; 622  : 			_Alproxy(this->_Alnod);
; 623  : 		this->_Myproxy = _Alproxy.allocate(1);
; 624  : 		_Alproxy.construct(this->_Myproxy, _Container_proxy());
; 625  : 		this->_Myproxy->_Mycont = this;
; 626  : 		}
; 627  : 
; 628  : 	void _Free_proxy()
; 629  : 		{	// destroy proxy
; 630  : 		typename _Alty::template rebind<_Container_proxy>::other
; 631  : 			_Alproxy(this->_Alnod);
; 632  : 		this->_Orphan_all();
; 633  : 		_Alproxy.destroy(this->_Myproxy);
; 634  : 		_Alproxy.deallocate(this->_Myproxy, 1);
; 635  : 		this->_Myproxy = 0;
; 636  : 		}
; 637  :  #endif /* _ITERATOR_DEBUG_LEVEL == 0 */
; 638  : 
; 639  : 	_Nodeptr _Buyheadnode()
; 640  : 		{	// get head node using current allocator
; 641  : 		return (_Buynode0(_Nodeptr(), _Nodeptr()));
; 642  : 		}
; 643  : 
; 644  : 	void _Freeheadnode(_Nodeptr _Pnode)
; 645  : 		{	// free head node using current allocator
; 646  : 		this->_Alnod.destroy(
; 647  : 			_STD addressof(this->_Nextnode(_Pnode)));
; 648  : 		this->_Alnod.destroy(
; 649  : 			_STD addressof(this->_Prevnode(_Pnode)));
; 650  : 		this->_Alnod.deallocate(_Pnode, 1);
; 651  : 		}
; 652  : 
; 653  : 	_Nodeptr _Buynode0(_Nodeptr _Next,
; 654  : 		_Nodeptr _Prev)
; 655  : 		{	// allocate a node and set links
; 656  : 		_Nodeptr _Pnode = this->_Alnod.allocate(1);
; 657  : 
; 658  : 		if (_Next == _Nodeptr())
; 659  : 			{	// point at self
; 660  : 			_Next = _Pnode;
; 661  : 			_Prev = _Pnode;
; 662  : 			}
; 663  : 		_TRY_BEGIN
; 664  : 		this->_Alnod.construct(
; 665  : 			_STD addressof(this->_Nextnode(_Pnode)), _Next);
; 666  : 		this->_Alnod.construct(
; 667  : 			_STD addressof(this->_Prevnode(_Pnode)), _Prev);
; 668  : 		_CATCH_ALL
; 669  : 		this->_Alnod.deallocate(_Pnode, 1);
; 670  : 		_RERAISE;
; 671  : 		_CATCH_END
; 672  : 
; 673  : 		return (_Pnode);
; 674  : 		}
; 675  : 
; 676  : 	_Alty& _Getal()
; 677  : 		{	// get reference to allocator
; 678  : 		return (this->_Alnod);
; 679  : 		}
; 680  : 
; 681  : 	const _Alty& _Getal() const
; 682  : 		{	// get reference to allocator
; 683  : 		return (this->_Alnod);
; 684  : 		}
; 685  : 	};
; 686  : 
; 687  : 		// TEMPLATE CLASS _List_alloc
; 688  : template<class _Alloc_types>
; 689  : 	class _List_alloc<false, _Alloc_types>
; 690  : 		: public _List_val<typename _Alloc_types::_Val_types>
; 691  : 	{	// base class for list to hold allocator with no storage
; 692  : public:
; 693  : 	typedef _List_alloc<false, _Alloc_types> _Myt;
; 694  : 	typedef typename _Alloc_types::_Alloc _Alloc;
; 695  : 	typedef typename _Alloc_types::_Alnod_type _Alty;
; 696  : 	typedef typename _Alloc_types::_Node _Node;
; 697  : 	typedef typename _Alloc_types::_Nodeptr _Nodeptr;
; 698  : 
; 699  :  #if _ITERATOR_DEBUG_LEVEL == 0
; 700  : 	_List_alloc(const _Alloc& = _Alloc())
; 701  : 		{	// construct head node, allocator from _Al
; 702  : 		this->_Myhead = _Buyheadnode();
; 703  : 		}
; 704  : 
; 705  : 	~_List_alloc() _NOEXCEPT
; 706  : 		{	// destroy head node
; 707  : 		_Freeheadnode(this->_Myhead);
; 708  : 		}
; 709  : 
; 710  : 	void _Change_alloc(const _Alty&)
; 711  : 		{	// replace old allocator
; 712  : 		}
; 713  : 
; 714  : 	void _Swap_alloc(_Myt&)
; 715  : 		{	// swap allocators
; 716  : 		}
; 717  : 
; 718  :  #else /* _ITERATOR_DEBUG_LEVEL == 0 */
; 719  : 	_List_alloc(const _Alloc& = _Alloc())
; 720  : 		{	// construct allocators from _Al
; 721  : 		this->_Myhead = _Buyheadnode();
; 722  : 		_TRY_BEGIN
; 723  : 		_Alloc_proxy();
; 724  : 		_CATCH_ALL
; 725  : 		_Freeheadnode(this->_Myhead);
; 726  : 		_RERAISE;
; 727  : 		_CATCH_END
; 728  : 		}
; 729  : 
; 730  : 	~_List_alloc() _NOEXCEPT
; 731  : 		{	// destroy proxy
; 732  : 		_Freeheadnode(this->_Myhead);
; 733  : 		_Free_proxy();
; 734  : 		}
; 735  : 
; 736  : 	void _Change_alloc(const _Alty&)
; 737  : 		{	// replace old allocator
; 738  : 		}
; 739  : 
; 740  : 	void _Swap_alloc(_Myt& _Right)
; 741  : 		{	// swap allocators
; 742  : 		_Swap_adl(this->_Myproxy, _Right._Myproxy);
; 743  : 		}
; 744  : 
; 745  : 	void _Alloc_proxy()
; 746  : 		{	// construct proxy from _Alnod
; 747  : 		typename _Alty::template rebind<_Container_proxy>::other
; 748  : 			_Alproxy;
; 749  : 		this->_Myproxy = _Alproxy.allocate(1);
; 750  : 		_Alproxy.construct(this->_Myproxy, _Container_proxy());
; 751  : 		this->_Myproxy->_Mycont = this;
; 752  : 		}
; 753  : 
; 754  : 	void _Free_proxy()
; 755  : 		{	// destroy proxy
; 756  : 		typename _Alty::template rebind<_Container_proxy>::other
; 757  : 			_Alproxy;
; 758  : 		this->_Orphan_all();
; 759  : 		_Alproxy.destroy(this->_Myproxy);
; 760  : 		_Alproxy.deallocate(this->_Myproxy, 1);
; 761  : 		this->_Myproxy = 0;
; 762  : 		}
; 763  :  #endif /* _ITERATOR_DEBUG_LEVEL == 0 */
; 764  : 
; 765  : 	_Nodeptr _Buyheadnode()
; 766  : 		{	// get head node using current allocator
; 767  : 		return (_Buynode0(_Nodeptr(), _Nodeptr()));

	call	?_Buynode0@?$_List_alloc@$0A@U?$_List_base_types@U?$_vector3@M@@V?$xalloc@U?$_vector3@M@@@@@std@@@std@@QEAAPEAU?$_List_node@U?$_vector3@M@@PEAX@2@PEAU32@0@Z ; std::_List_alloc<0,std::_List_base_types<_vector3<float>,xalloc<_vector3<float> > > >::_Buynode0
	mov	rbx, rax
	mov	QWORD PTR mb$[rsp], rax
; File c:\users\nummer\documents\github\olr-3.0\src\xray\xrcore\_sphere.cpp

; 256  : 	current_c = c;

	lea	rax, QWORD PTR mb$[rbp-88]
	mov	QWORD PTR mb$[rsp+20], r12
; File c:\users\nummer\documents\github\olr-3.0\src\xray\xrcore\_vector3d.h

; 23   : 	ICF	SelfRef	set(T _x, T _y, T _z)					{ x = _x;		y = _y;		z = _z;		return *this;	};

	mov	QWORD PTR mb$[rbp-88], r12
	mov	DWORD PTR mb$[rbp-80], r12d
; File c:\users\nummer\documents\github\olr-3.0\src\xray\xrcore\_sphere.cpp

; 256  : 	current_c = c;

	mov	QWORD PTR mb$[rbp-24], rax

; 257  : 	current_sqr_r = -1;

	mov	DWORD PTR mb$[rbp-16], -1082130432	; bf800000H
; File c:\program files (x86)\microsoft visual studio 12.0\vc\include\list

; 39   : 		{	// construct with null node pointer

	mov	QWORD PTR mb$[rbp-8], r12
; File c:\users\nummer\documents\github\olr-3.0\src\xray\xrcore\_sphere.cpp

; 333  : 	for(int i=0;i<count;i++)

	mov	edi, r12d
	test	esi, esi
	jle	SHORT $LN1@Fsphere_co
	mov	r13, 576460752303423486			; 07fffffffffffffeH
	npad	3
$LL3@Fsphere_co:
; File c:\program files (x86)\microsoft visual studio 12.0\vc\include\list

; 1062 : 				_STD forward<_Valty>(_Val)...);

	mov	r8, QWORD PTR [rbx+8]
; File c:\users\nummer\documents\github\olr-3.0\src\xray\xrcore\_sphere.cpp

; 334  : 		mb.check_in(verts[i]);

	movsxd	rax, edi
; File c:\program files (x86)\microsoft visual studio 12.0\vc\include\list

; 1062 : 				_STD forward<_Valty>(_Val)...);

	mov	rdx, rbx
; File c:\users\nummer\documents\github\olr-3.0\src\xray\xrcore\_sphere.cpp

; 334  : 		mb.check_in(verts[i]);

	lea	rcx, QWORD PTR [rax+rax*2]
	lea	r9, QWORD PTR [r14+rcx*4]
; File c:\program files (x86)\microsoft visual studio 12.0\vc\include\list

; 1062 : 				_STD forward<_Valty>(_Val)...);

	call	??$_Buynode@AEBU?$_vector3@M@@@?$_List_buy@U?$_vector3@M@@V?$xalloc@U?$_vector3@M@@@@@std@@QEAAPEAU?$_List_node@U?$_vector3@M@@PEAX@1@PEAU21@0AEBU?$_vector3@M@@@Z ; std::_List_buy<_vector3<float>,xalloc<_vector3<float> > >::_Buynode<_vector3<float> const & __ptr64>

; 1884 : 		}
; 1885 : 
; 1886 : 	void _Insert_n(_Unchecked_const_iterator _Where,
; 1887 : 		size_type _Count, const _Ty& _Val)
; 1888 : 		{	// insert _Count * _Val at _Where
; 1889 : 		size_type _Countsave = _Count;
; 1890 : 
; 1891 : 		_TRY_BEGIN
; 1892 : 		for (; 0 < _Count; --_Count)
; 1893 : 			_Insert(_Where, _Val);
; 1894 : 		_CATCH_ALL
; 1895 : 		for (; _Count < _Countsave; ++_Count)
; 1896 : 			{	// undo inserts
; 1897 : 			_Unchecked_const_iterator _Before = _Where;
; 1898 : 			_Unchecked_erase(--_Before);
; 1899 : 			}
; 1900 : 		_RERAISE;
; 1901 : 		_CATCH_END
; 1902 : 		}
; 1903 : 
; 1904 : 	void _Incsize(size_type _Count)
; 1905 : 		{	// alter element count, with checking
; 1906 : 		if (max_size() - this->_Mysize - 1 < _Count)

	mov	rdx, QWORD PTR mb$[rsp+8]
	mov	rcx, r13
	sub	rcx, rdx
	cmp	rcx, 1
	jb	$LN192@Fsphere_co

; 1908 : 		this->_Mysize += _Count;

	inc	rdx
; File c:\users\nummer\documents\github\olr-3.0\src\xray\xrcore\_sphere.cpp

; 333  : 	for(int i=0;i<count;i++)

	inc	edi
; File c:\program files (x86)\microsoft visual studio 12.0\vc\include\list

; 1908 : 		this->_Mysize += _Count;

	mov	QWORD PTR mb$[rsp+8], rdx

; 1063 : 		_Incsize(1);
; 1064 : 		this->_Prevnode(_Pnode) = _Newnode;

	mov	QWORD PTR [rbx+8], rax

; 529  : 		}
; 530  : 
; 531  : 	static _Nodepref _Nextnode(_Nodeptr _Pnode)
; 532  : 		{	// return reference to successor pointer in node
; 533  : 		return ((_Nodepref)_Pnode->_Next);

	mov	rcx, QWORD PTR [rax+8]

; 1065 : 		this->_Nextnode(this->_Prevnode(_Newnode)) = _Newnode;

	mov	QWORD PTR [rcx], rax
; File c:\users\nummer\documents\github\olr-3.0\src\xray\xrcore\_sphere.cpp

; 333  : 	for(int i=0;i<count;i++)

	mov	rbx, QWORD PTR mb$[rsp]
	cmp	edi, esi
	jl	SHORT $LL3@Fsphere_co
$LN1@Fsphere_co:

; 256  : 	current_c = c;

	lea	rax, QWORD PTR mb$[rbp-88]
	mov	QWORD PTR mb$[rsp+20], r12
; File c:\users\nummer\documents\github\olr-3.0\src\xray\xrcore\_vector3d.h

; 23   : 	ICF	SelfRef	set(T _x, T _y, T _z)					{ x = _x;		y = _y;		z = _z;		return *this;	};

	mov	QWORD PTR mb$[rbp-88], r12
	mov	DWORD PTR mb$[rbp-80], r12d
; File c:\users\nummer\documents\github\olr-3.0\src\xray\xrcore\_sphere.cpp

; 257  : 	current_sqr_r = -1;

	mov	DWORD PTR mb$[rbp-16], -1082130432	; bf800000H
	mov	QWORD PTR mb$[rbp-24], rax

; 95   : 	support_end = L.begin();

	mov	rax, QWORD PTR [rbx]

; 96   : 
; 97   : 	// @@ pivotting or not ?
; 98   : 	if ( 1 )
; 99   : 		pivot_mb	(L.end());

	lea	rcx, QWORD PTR mb$[rsp]
	mov	rdx, rbx
	mov	QWORD PTR mb$[rbp-8], rax
	call	?pivot_mb@Miniball@@AEAAXV?$_List_iterator@V?$_List_val@U?$_List_simple_types@U?$_vector3@M@@@std@@@std@@@std@@@Z ; Miniball::pivot_mb

; 182  : 	return *((Fvector *)B.center());

	mov	rax, QWORD PTR mb$[rbp-24]
; File c:\program files (x86)\microsoft visual studio 12.0\vc\include\list

; 1883 : 		clear();

	lea	rcx, QWORD PTR mb$[rsp]
; File c:\users\nummer\documents\github\olr-3.0\src\xray\xrcore\_sphere.cpp

; 182  : 	return *((Fvector *)B.center());

	movsdx	xmm0, QWORD PTR [rax]
	movsdx	QWORD PTR $T1[rsp], xmm0
; File c:\users\nummer\documents\github\olr-3.0\src\xray\xrcore\_vector3d.h

; 24   : 	ICF SelfRef	set(const _vector3<float> &v)			{ x = T(v.x);	y = T(v.y);	z = T(v.z);	return *this;	};

	movss	xmm1, DWORD PTR $T1[rsp+4]
	movss	xmm0, DWORD PTR $T1[rsp]
; File c:\users\nummer\documents\github\olr-3.0\src\xray\xrcore\_sphere.cpp

; 182  : 	return *((Fvector *)B.center());

	mov	eax, DWORD PTR [rax+8]
	mov	DWORD PTR $T1[rsp+8], eax
; File c:\users\nummer\documents\github\olr-3.0\src\xray\xrcore\_vector3d.h

; 24   : 	ICF SelfRef	set(const _vector3<float> &v)			{ x = T(v.x);	y = T(v.y);	z = T(v.z);	return *this;	};

	movss	DWORD PTR [r15+4], xmm1
	movss	DWORD PTR [r15], xmm0
; File c:\users\nummer\documents\github\olr-3.0\src\xray\xrcore\_std_extensions.h

; 99   : IC float	_sqrt	(float x)		{ return sqrtf(x); }

	sqrtss	xmm1, DWORD PTR mb$[rbp-16]
; File c:\users\nummer\documents\github\olr-3.0\src\xray\xrcore\_vector3d.h

; 24   : 	ICF SelfRef	set(const _vector3<float> &v)			{ x = T(v.x);	y = T(v.y);	z = T(v.z);	return *this;	};

	movss	xmm0, DWORD PTR $T1[rsp+8]
	movss	DWORD PTR [r15+8], xmm0
; File c:\users\nummer\documents\github\olr-3.0\src\xray\xrcore\_sphere.cpp

; 339  : 	dest.R =	( _sqrt( mb.squared_radius() ));

	movss	DWORD PTR [r15+12], xmm1
; File c:\program files (x86)\microsoft visual studio 12.0\vc\include\list

; 1883 : 		clear();

	call	?clear@?$list@U?$_vector3@M@@V?$xalloc@U?$_vector3@M@@@@@std@@QEAAXXZ ; std::list<_vector3<float>,xalloc<_vector3<float> > >::clear
; File c:\users\nummer\documents\github\olr-3.0\src\xray\xrcore\xrmemory.h

; 109  : 	IC void		xr_free		(T* &P)					{	if (P) { Memory.mem_free((void*)P); P=NULL;	};	}

	mov	rdi, QWORD PTR mb$[rsp]
	test	rdi, rdi
	je	SHORT $LN189@Fsphere_co
; File c:\users\nummer\documents\github\olr-3.0\src\xray\xrcore\xrmemory_subst_msvc.cpp

; 130  : 	stat_calls++;

	inc	DWORD PTR ?Memory@@3VxrMemory@@A

; 25   : ICF	u32		get_header			(void* P)	{	return	(u32)*acc_header(P);				}

	movzx	eax, BYTE PTR [rdi-1]

; 24   : ICF	u8*		acc_header			(void* P)	{	u8*		_P		= (u8*)P;	return	_P-1;	}

	dec	rdi

; 131  : #ifdef USE_MEMORY_MONITOR
; 132  : 	memory_monitor::monitor_free(P);
; 133  : #endif // USE_MEMORY_MONITOR
; 134  : 
; 135  : #ifdef PURE_ALLOC
; 136  : 	if (g_use_pure_alloc) {
; 137  : 		free					(P);
; 138  : 		return;
; 139  : 	}
; 140  : #endif // PURE_ALLOC
; 141  : 
; 142  : #ifdef DEBUG_MEMORY_MANAGER
; 143  : 	if(g_globalCheckAddr==P)
; 144  : 		__asm int 3;
; 145  : #endif // DEBUG_MEMORY_MANAGER
; 146  : 
; 147  : #ifdef DEBUG_MEMORY_MANAGER
; 148  : 	if (mem_initialized)		debug_cs.Enter		();
; 149  : #endif // DEBUG_MEMORY_MANAGER
; 150  : 	if		(debug_mode)		dbg_unregister	(P);
; 151  : 	u32	pool					= get_header	(P);
; 152  : 	void* _real					= (void*)(((u8*)P)-1);
; 153  : 	if (mem_generic==pool)		

	cmp	eax, 55					; 00000037H
	jne	SHORT $LN168@Fsphere_co
; File c:\users\nummer\documents\github\olr-3.0\src\xray\xrcore\xrmemory_align.cpp

; 293  : 	if (memblock == NULL)

	test	rdi, rdi
	je	SHORT $LN189@Fsphere_co

; 294  : 		return;
; 295  : 
; 296  : 	ptr = (uintptr_t)memblock;
; 297  : 
; 298  : 	/* ptr points to the pointer to starting of the memory block */
; 299  : 	ptr = (ptr & ~(PTR_SZ -1)) - PTR_SZ;

	and	rdi, -8

; 300  : 
; 301  : 	/* ptr is the pointer to the start of memory block*/
; 302  : 	ptr = *((uintptr_t *)ptr);
; 303  : 	free((void *)ptr);

	mov	rcx, QWORD PTR [rdi-8]
	call	QWORD PTR __imp_free
; File c:\users\nummer\documents\github\olr-3.0\src\xray\xrcore\xrmemory_subst_msvc.cpp

; 157  : 	} else {

	jmp	SHORT $LN189@Fsphere_co
$LN192@Fsphere_co:
; File c:\program files (x86)\microsoft visual studio 12.0\vc\include\list

; 1907 : 			_Xlength_error("list<T> too long");

	lea	rcx, OFFSET FLAT:??_C@_0BB@MOGOBHAF@list?$DMT?$DO?5too?5long?$AA@
	call	QWORD PTR __imp_?_Xlength_error@std@@YAXPEBD@Z
	int	3
$LN168@Fsphere_co:
; File c:\users\nummer\documents\github\olr-3.0\src\xray\xrcore\xrmemory_subst_msvc.cpp

; 160  : 		mem_pools[pool].destroy	(_real);

	lea	rbx, QWORD PTR [rax+rax*4]
	lea	rsi, OFFSET FLAT:?mem_pools@@3PAVMEMPOOL@@A ; mem_pools
; File c:\users\nummer\documents\github\olr-3.0\src\xray\xrcore\xrsyncronize.cpp

; 64   : 	EnterCriticalSection			( (CRITICAL_SECTION*)pmutex );

	mov	rcx, QWORD PTR [rsi+rbx*8]
	call	QWORD PTR __imp_EnterCriticalSection
; File c:\users\nummer\documents\github\olr-3.0\src\xray\xrcore\xrmemory_pool.h

; 46   : 		*access(P)		= list;

	mov	rax, QWORD PTR [rsi+rbx*8+32]
	mov	QWORD PTR [rdi], rax
; File c:\users\nummer\documents\github\olr-3.0\src\xray\xrcore\xrsyncronize.cpp

; 69   : 	LeaveCriticalSection			( (CRITICAL_SECTION*)pmutex );

	mov	rcx, QWORD PTR [rsi+rbx*8]
; File c:\users\nummer\documents\github\olr-3.0\src\xray\xrcore\xrmemory_pool.h

; 47   : 		list			= (u8*)P;

	mov	QWORD PTR [rsi+rbx*8+32], rdi
; File c:\users\nummer\documents\github\olr-3.0\src\xray\xrcore\xrsyncronize.cpp

; 69   : 	LeaveCriticalSection			( (CRITICAL_SECTION*)pmutex );

	call	QWORD PTR __imp_LeaveCriticalSection
$LN189@Fsphere_co:
; File c:\users\nummer\documents\github\olr-3.0\src\xray\xrcore\_sphere.cpp

; 340  : }

	lea	r11, QWORD PTR [rsp+304]
	mov	rbx, QWORD PTR [r11+48]
	mov	rsi, QWORD PTR [r11+56]
	mov	rdi, QWORD PTR [r11+64]
	mov	rsp, r11
	pop	r15
	pop	r14
	pop	r13
	pop	r12
	pop	rbp
	ret	0
$LN201@Fsphere_co:
?Fsphere_compute@@YAXAEAU?$_sphere@M@@PEBU?$_vector3@M@@H@Z ENDP ; Fsphere_compute
_TEXT	ENDS
; Function compile flags: /Ogtpy
; File c:\program files (x86)\microsoft visual studio 12.0\vc\include\list
; File c:\program files (x86)\microsoft visual studio 12.0\vc\include\xmemory0
; File c:\users\nummer\documents\github\olr-3.0\src\xray\xrcore\_stl_extensions.h
; File c:\program files (x86)\microsoft visual studio 12.0\vc\include\xmemory0
; File c:\users\nummer\documents\github\olr-3.0\src\xray\xrcore\_stl_extensions.h
;	COMDAT ??1Miniball@@QEAA@XZ
_TEXT	SEGMENT
p$1 = 48
this$ = 48
??1Miniball@@QEAA@XZ PROC				; Miniball::~Miniball, COMDAT
$LN34:
	push	rbx
	sub	rsp, 32					; 00000020H
	mov	rbx, rcx
; File c:\program files (x86)\microsoft visual studio 12.0\vc\include\list

; 1883 : 		clear();

	call	?clear@?$list@U?$_vector3@M@@V?$xalloc@U?$_vector3@M@@@@@std@@QEAAXXZ ; std::list<_vector3<float>,xalloc<_vector3<float> > >::clear
; File c:\program files (x86)\microsoft visual studio 12.0\vc\include\xmemory0

; 858  : 		_Mybase::deallocate(_Ptr, _Count);

	mov	rax, QWORD PTR [rbx]
; File c:\users\nummer\documents\github\olr-3.0\src\xray\xrcore\_stl_extensions.h

; 82   : 							void					deallocate		(pointer p, size_type n) const			{	xr_free	(p);				}

	lea	rcx, QWORD PTR p$1[rsp]
; File c:\program files (x86)\microsoft visual studio 12.0\vc\include\xmemory0

; 858  : 		_Mybase::deallocate(_Ptr, _Count);

	mov	QWORD PTR p$1[rsp], rax
; File c:\users\nummer\documents\github\olr-3.0\src\xray\xrcore\_stl_extensions.h

; 82   : 							void					deallocate		(pointer p, size_type n) const			{	xr_free	(p);				}

	call	??$xr_free@U?$_List_node@U?$_vector3@M@@PEAX@std@@@@YAXAEAPEAU?$_List_node@U?$_vector3@M@@PEAX@std@@@Z ; xr_free<std::_List_node<_vector3<float>,void * __ptr64> >
	add	rsp, 32					; 00000020H
	pop	rbx
	ret	0
??1Miniball@@QEAA@XZ ENDP				; Miniball::~Miniball
_TEXT	ENDS
; Function compile flags: /Ogtpy
; File c:\users\nummer\documents\github\olr-3.0\src\xray\xrcore\_vector3d.h
;	COMDAT ??A?$_vector3@M@@QEAAAEAMH@Z
_TEXT	SEGMENT
this$ = 8
i$ = 16
??A?$_vector3@M@@QEAAAEAMH@Z PROC			; _vector3<float>::operator[], COMDAT

; 20   : 	ICF	T&			operator[] (int i)					{ return *((T*)this + i); }

	movsxd	rax, edx
	lea	rax, QWORD PTR [rcx+rax*4]
	ret	0
??A?$_vector3@M@@QEAAAEAMH@Z ENDP			; _vector3<float>::operator[]
_TEXT	ENDS
; Function compile flags: /Ogtpy
; File c:\users\nummer\documents\github\olr-3.0\src\xray\xrcore\_vector3d.h
;	COMDAT ?set@?$_vector3@M@@QEAAAEAU1@MMM@Z
_TEXT	SEGMENT
this$ = 8
_x$dead$ = 16
_y$dead$ = 24
_z$ = 32
?set@?$_vector3@M@@QEAAAEAU1@MMM@Z PROC			; _vector3<float>::set, COMDAT

; 23   : 	ICF	SelfRef	set(T _x, T _y, T _z)					{ x = _x;		y = _y;		z = _z;		return *this;	};

	xor	eax, eax
	movss	DWORD PTR [rcx+8], xmm3
	mov	QWORD PTR [rcx], rax
	mov	rax, rcx
	ret	0
?set@?$_vector3@M@@QEAAAEAU1@MMM@Z ENDP			; _vector3<float>::set
_TEXT	ENDS
; Function compile flags: /Ogtpy
; File c:\users\nummer\documents\github\olr-3.0\src\xray\xrcore\_vector3d.h
;	COMDAT ?set@?$_vector3@M@@QEAAAEAU1@AEBU1@@Z
_TEXT	SEGMENT
this$ = 8
v$ = 16
?set@?$_vector3@M@@QEAAAEAU1@AEBU1@@Z PROC		; _vector3<float>::set, COMDAT

; 24   : 	ICF SelfRef	set(const _vector3<float> &v)			{ x = T(v.x);	y = T(v.y);	z = T(v.z);	return *this;	};

	mov	eax, DWORD PTR [rdx]
	mov	DWORD PTR [rcx], eax
	mov	eax, DWORD PTR [rdx+4]
	mov	DWORD PTR [rcx+4], eax
	mov	eax, DWORD PTR [rdx+8]
	mov	DWORD PTR [rcx+8], eax
	mov	rax, rcx
	ret	0
?set@?$_vector3@M@@QEAAAEAU1@AEBU1@@Z ENDP		; _vector3<float>::set
_TEXT	ENDS
; Function compile flags: /Ogtpy
; File c:\users\nummer\documents\github\olr-3.0\src\xray\xrcore\_vector3d.h
;	COMDAT ?sub@?$_vector3@M@@QEAAAEAU1@AEBU1@0@Z
_TEXT	SEGMENT
this$ = 8
a$ = 16
v$ = 24
?sub@?$_vector3@M@@QEAAAEAU1@AEBU1@0@Z PROC		; _vector3<float>::sub, COMDAT

; 36   : 	ICF	SelfRef	sub(const Self &a, const Self &v)		{ x=a.x-v.x;y=a.y-v.y;	z=a.z-v.z;		return *this;	};

	movss	xmm0, DWORD PTR [rdx]
	mov	rax, rcx
	subss	xmm0, DWORD PTR [r8]
	movss	DWORD PTR [rcx], xmm0
	movss	xmm1, DWORD PTR [rdx+4]
	subss	xmm1, DWORD PTR [r8+4]
	movss	DWORD PTR [rcx+4], xmm1
	movss	xmm0, DWORD PTR [rdx+8]
	subss	xmm0, DWORD PTR [r8+8]
	movss	DWORD PTR [rcx+8], xmm0
	ret	0
?sub@?$_vector3@M@@QEAAAEAU1@AEBU1@0@Z ENDP		; _vector3<float>::sub
_TEXT	ENDS
; Function compile flags: /Ogtpy
; File c:\users\nummer\documents\github\olr-3.0\src\xray\xrcore\_vector3d.h
;	COMDAT ?mad@?$_vector3@M@@QEAAAEAU1@AEBU1@0M@Z
_TEXT	SEGMENT
this$ = 8
p$ = 16
d$ = 24
m$ = 32
?mad@?$_vector3@M@@QEAAAEAU1@AEBU1@0M@Z PROC		; _vector3<float>::mad, COMDAT

; 144  : 		x = p.x + d.x*m;

	movaps	xmm0, xmm3

; 145  : 		y = p.y + d.y*m;

	movaps	xmm1, xmm3

; 146  : 		z = p.z + d.z*m;
; 147  : 		return *this;	

	mov	rax, rcx
	mulss	xmm0, DWORD PTR [r8]
	addss	xmm0, DWORD PTR [rdx]
	movss	DWORD PTR [rcx], xmm0
	mulss	xmm1, DWORD PTR [r8+4]
	addss	xmm1, DWORD PTR [rdx+4]
	movss	DWORD PTR [rcx+4], xmm1
	mulss	xmm3, DWORD PTR [r8+8]
	addss	xmm3, DWORD PTR [rdx+8]
	movss	DWORD PTR [rcx+8], xmm3

; 148  : 	}

	ret	0
?mad@?$_vector3@M@@QEAAAEAU1@AEBU1@0M@Z ENDP		; _vector3<float>::mad
_TEXT	ENDS
; Function compile flags: /Ogtpy
; File c:\users\nummer\documents\github\olr-3.0\src\xray\xrcore\_vector3d.h
;	COMDAT ?square_magnitude@?$_vector3@M@@QEBAMXZ
_TEXT	SEGMENT
this$ = 8
?square_magnitude@?$_vector3@M@@QEBAMXZ PROC		; _vector3<float>::square_magnitude, COMDAT

; 167  : 		return x*x + y*y + z*z;

	movss	xmm1, DWORD PTR [rcx+4]
	movss	xmm0, DWORD PTR [rcx]
	movss	xmm2, DWORD PTR [rcx+8]
	mulss	xmm0, xmm0
	mulss	xmm1, xmm1
	mulss	xmm2, xmm2
	addss	xmm0, xmm1
	addss	xmm0, xmm2

; 168  : 	}

	ret	0
?square_magnitude@?$_vector3@M@@QEBAMXZ ENDP		; _vector3<float>::square_magnitude
_TEXT	ENDS
; Function compile flags: /Ogtpy
; File c:\users\nummer\documents\github\olr-3.0\src\xray\xrcore\_vector3d.h
;	COMDAT ?dotproduct@?$_vector3@M@@QEBAMAEBU1@@Z
_TEXT	SEGMENT
this$ = 8
v$ = 16
?dotproduct@?$_vector3@M@@QEBAMAEBU1@@Z PROC		; _vector3<float>::dotproduct, COMDAT

; 268  : 	{	return x*v.x + y*v.y + z*v.z; }

	movss	xmm0, DWORD PTR [rdx+4]
	movss	xmm1, DWORD PTR [rdx]
	movss	xmm2, DWORD PTR [rdx+8]
	mulss	xmm0, DWORD PTR [rcx+4]
	mulss	xmm1, DWORD PTR [rcx]
	mulss	xmm2, DWORD PTR [rcx+8]
	addss	xmm0, xmm1
	addss	xmm0, xmm2
	ret	0
?dotproduct@?$_vector3@M@@QEBAMAEBU1@@Z ENDP		; _vector3<float>::dotproduct
_TEXT	ENDS
; Function compile flags: /Ogtpy
; File c:\users\nummer\documents\github\olr-3.0\src\xray\xrcore\_vector3d.h
;	COMDAT ?distance_to_sqr@?$_vector3@M@@QEBAMAEBU1@@Z
_TEXT	SEGMENT
this$ = 8
v$ = 16
?distance_to_sqr@?$_vector3@M@@QEBAMAEBU1@@Z PROC	; _vector3<float>::distance_to_sqr, COMDAT

; 287  : 	{	return (x-v.x)*(x-v.x) + (y-v.y)*(y-v.y) + (z-v.z)*(z-v.z);	}

	movss	xmm2, DWORD PTR [rcx+4]
	movss	xmm0, DWORD PTR [rcx]
	movss	xmm1, DWORD PTR [rcx+8]
	subss	xmm0, DWORD PTR [rdx]
	subss	xmm2, DWORD PTR [rdx+4]
	subss	xmm1, DWORD PTR [rdx+8]
	mulss	xmm0, xmm0
	mulss	xmm2, xmm2
	mulss	xmm1, xmm1
	addss	xmm0, xmm2
	addss	xmm0, xmm1
	ret	0
?distance_to_sqr@?$_vector3@M@@QEBAMAEBU1@@Z ENDP	; _vector3<float>::distance_to_sqr
_TEXT	ENDS
; Function compile flags: /Ogtpy
; File c:\program files (x86)\microsoft visual studio 12.0\vc\include\list
;	COMDAT ??0?$list@U?$_vector3@M@@V?$xalloc@U?$_vector3@M@@@@@std@@QEAA@XZ
_TEXT	SEGMENT
this$ = 48
??0?$list@U?$_vector3@M@@V?$xalloc@U?$_vector3@M@@@@@std@@QEAA@XZ PROC ; std::list<_vector3<float>,xalloc<_vector3<float> > >::list<_vector3<float>,xalloc<_vector3<float> > >, COMDAT

; 891  : 		{	// construct empty list

$LN14:
	push	rbx
	sub	rsp, 32					; 00000020H

; 527  : 		this->_Myhead = 0;

	xor	eax, eax

; 703  : 		}
; 704  : 
; 705  : 	~_List_alloc() _NOEXCEPT
; 706  : 		{	// destroy head node
; 707  : 		_Freeheadnode(this->_Myhead);
; 708  : 		}
; 709  : 
; 710  : 	void _Change_alloc(const _Alty&)
; 711  : 		{	// replace old allocator
; 712  : 		}
; 713  : 
; 714  : 	void _Swap_alloc(_Myt&)
; 715  : 		{	// swap allocators
; 716  : 		}
; 717  : 
; 718  :  #else /* _ITERATOR_DEBUG_LEVEL == 0 */
; 719  : 	_List_alloc(const _Alloc& = _Alloc())
; 720  : 		{	// construct allocators from _Al
; 721  : 		this->_Myhead = _Buyheadnode();
; 722  : 		_TRY_BEGIN
; 723  : 		_Alloc_proxy();
; 724  : 		_CATCH_ALL
; 725  : 		_Freeheadnode(this->_Myhead);
; 726  : 		_RERAISE;
; 727  : 		_CATCH_END
; 728  : 		}
; 729  : 
; 730  : 	~_List_alloc() _NOEXCEPT
; 731  : 		{	// destroy proxy
; 732  : 		_Freeheadnode(this->_Myhead);
; 733  : 		_Free_proxy();
; 734  : 		}
; 735  : 
; 736  : 	void _Change_alloc(const _Alty&)
; 737  : 		{	// replace old allocator
; 738  : 		}
; 739  : 
; 740  : 	void _Swap_alloc(_Myt& _Right)
; 741  : 		{	// swap allocators
; 742  : 		_Swap_adl(this->_Myproxy, _Right._Myproxy);
; 743  : 		}
; 744  : 
; 745  : 	void _Alloc_proxy()
; 746  : 		{	// construct proxy from _Alnod
; 747  : 		typename _Alty::template rebind<_Container_proxy>::other
; 748  : 			_Alproxy;
; 749  : 		this->_Myproxy = _Alproxy.allocate(1);
; 750  : 		_Alproxy.construct(this->_Myproxy, _Container_proxy());
; 751  : 		this->_Myproxy->_Mycont = this;
; 752  : 		}
; 753  : 
; 754  : 	void _Free_proxy()
; 755  : 		{	// destroy proxy
; 756  : 		typename _Alty::template rebind<_Container_proxy>::other
; 757  : 			_Alproxy;
; 758  : 		this->_Orphan_all();
; 759  : 		_Alproxy.destroy(this->_Myproxy);
; 760  : 		_Alproxy.deallocate(this->_Myproxy, 1);
; 761  : 		this->_Myproxy = 0;
; 762  : 		}
; 763  :  #endif /* _ITERATOR_DEBUG_LEVEL == 0 */
; 764  : 
; 765  : 	_Nodeptr _Buyheadnode()
; 766  : 		{	// get head node using current allocator
; 767  : 		return (_Buynode0(_Nodeptr(), _Nodeptr()));

	xor	r8d, r8d
	xor	edx, edx

; 527  : 		this->_Myhead = 0;

	mov	QWORD PTR [rcx], rax

; 528  : 		this->_Mysize = 0;

	mov	QWORD PTR [rcx+8], rax

; 891  : 		{	// construct empty list

	mov	rbx, rcx

; 703  : 		}
; 704  : 
; 705  : 	~_List_alloc() _NOEXCEPT
; 706  : 		{	// destroy head node
; 707  : 		_Freeheadnode(this->_Myhead);
; 708  : 		}
; 709  : 
; 710  : 	void _Change_alloc(const _Alty&)
; 711  : 		{	// replace old allocator
; 712  : 		}
; 713  : 
; 714  : 	void _Swap_alloc(_Myt&)
; 715  : 		{	// swap allocators
; 716  : 		}
; 717  : 
; 718  :  #else /* _ITERATOR_DEBUG_LEVEL == 0 */
; 719  : 	_List_alloc(const _Alloc& = _Alloc())
; 720  : 		{	// construct allocators from _Al
; 721  : 		this->_Myhead = _Buyheadnode();
; 722  : 		_TRY_BEGIN
; 723  : 		_Alloc_proxy();
; 724  : 		_CATCH_ALL
; 725  : 		_Freeheadnode(this->_Myhead);
; 726  : 		_RERAISE;
; 727  : 		_CATCH_END
; 728  : 		}
; 729  : 
; 730  : 	~_List_alloc() _NOEXCEPT
; 731  : 		{	// destroy proxy
; 732  : 		_Freeheadnode(this->_Myhead);
; 733  : 		_Free_proxy();
; 734  : 		}
; 735  : 
; 736  : 	void _Change_alloc(const _Alty&)
; 737  : 		{	// replace old allocator
; 738  : 		}
; 739  : 
; 740  : 	void _Swap_alloc(_Myt& _Right)
; 741  : 		{	// swap allocators
; 742  : 		_Swap_adl(this->_Myproxy, _Right._Myproxy);
; 743  : 		}
; 744  : 
; 745  : 	void _Alloc_proxy()
; 746  : 		{	// construct proxy from _Alnod
; 747  : 		typename _Alty::template rebind<_Container_proxy>::other
; 748  : 			_Alproxy;
; 749  : 		this->_Myproxy = _Alproxy.allocate(1);
; 750  : 		_Alproxy.construct(this->_Myproxy, _Container_proxy());
; 751  : 		this->_Myproxy->_Mycont = this;
; 752  : 		}
; 753  : 
; 754  : 	void _Free_proxy()
; 755  : 		{	// destroy proxy
; 756  : 		typename _Alty::template rebind<_Container_proxy>::other
; 757  : 			_Alproxy;
; 758  : 		this->_Orphan_all();
; 759  : 		_Alproxy.destroy(this->_Myproxy);
; 760  : 		_Alproxy.deallocate(this->_Myproxy, 1);
; 761  : 		this->_Myproxy = 0;
; 762  : 		}
; 763  :  #endif /* _ITERATOR_DEBUG_LEVEL == 0 */
; 764  : 
; 765  : 	_Nodeptr _Buyheadnode()
; 766  : 		{	// get head node using current allocator
; 767  : 		return (_Buynode0(_Nodeptr(), _Nodeptr()));

	call	?_Buynode0@?$_List_alloc@$0A@U?$_List_base_types@U?$_vector3@M@@V?$xalloc@U?$_vector3@M@@@@@std@@@std@@QEAAPEAU?$_List_node@U?$_vector3@M@@PEAX@2@PEAU32@0@Z ; std::_List_alloc<0,std::_List_base_types<_vector3<float>,xalloc<_vector3<float> > > >::_Buynode0

; 529  : 		}
; 530  : 
; 531  : 	static _Nodepref _Nextnode(_Nodeptr _Pnode)
; 532  : 		{	// return reference to successor pointer in node
; 533  : 		return ((_Nodepref)_Pnode->_Next);
; 534  : 		}
; 535  : 
; 536  : 	static _Nodepref _Prevnode(_Nodeptr _Pnode)
; 537  : 		{	// return reference to predecessor pointer in node
; 538  : 		return ((_Nodepref)_Pnode->_Prev);
; 539  : 		}
; 540  : 
; 541  : 	static reference _Myval(_Nodeptr _Pnode)
; 542  : 		{	// return reference to value in node
; 543  : 		return ((reference)_Pnode->_Myval);
; 544  : 		}
; 545  : 
; 546  : 	_Nodeptr _Myhead;	// pointer to head node
; 547  : 	size_type _Mysize;	// number of elements
; 548  : 	};
; 549  : 
; 550  : 		// TEMPLATE CLASS _List_alloc
; 551  : template<bool _Al_has_storage,
; 552  : 	class _Alloc_types>
; 553  : 	class _List_alloc
; 554  : 		: public _List_val<typename _Alloc_types::_Val_types>
; 555  : 	{	// base class for list to hold allocator with storage
; 556  : public:
; 557  : 	typename _Alloc_types::_Alnod_type _Alnod;	// allocator object
; 558  : 
; 559  : 	typedef _List_alloc<_Al_has_storage, _Alloc_types> _Myt;
; 560  : 	typedef typename _Alloc_types::_Alloc _Alloc;
; 561  : 	typedef typename _Alloc_types::_Alnod_type _Alty;
; 562  : 	typedef typename _Alloc_types::_Node _Node;
; 563  : 	typedef typename _Alloc_types::_Nodeptr _Nodeptr;
; 564  : 
; 565  :  #if _ITERATOR_DEBUG_LEVEL == 0
; 566  : 	_List_alloc(const _Alloc& _Al = _Alloc())
; 567  : 		: _Alnod(_Al)
; 568  : 		{	// construct head node, allocator from _Al
; 569  : 		this->_Myhead = _Buyheadnode();
; 570  : 		}
; 571  : 
; 572  : 	~_List_alloc() _NOEXCEPT
; 573  : 		{	// destroy head node
; 574  : 		_Freeheadnode(this->_Myhead);
; 575  : 		}
; 576  : 
; 577  : 	void _Change_alloc(const _Alty& _Al)
; 578  : 		{	// replace old allocator
; 579  : 		this->_Alnod = _Al;
; 580  : 		}
; 581  : 
; 582  : 	void _Swap_alloc(_Myt& _Right)
; 583  : 		{	// swap allocators
; 584  : 		_Swap_adl(this->_Alnod, _Right._Alnod);
; 585  : 		}
; 586  : 
; 587  :  #else /* _ITERATOR_DEBUG_LEVEL == 0 */
; 588  : 	_List_alloc(const _Alloc& _Al = _Alloc())
; 589  : 		: _Alnod(_Al)
; 590  : 		{	// construct head node, allocator from _Al
; 591  : 		this->_Myhead = _Buyheadnode();
; 592  : 		_TRY_BEGIN
; 593  : 		_Alloc_proxy();
; 594  : 		_CATCH_ALL
; 595  : 		_Freeheadnode(this->_Myhead);
; 596  : 		_RERAISE;
; 597  : 		_CATCH_END
; 598  : 		}
; 599  : 
; 600  : 	~_List_alloc() _NOEXCEPT
; 601  : 		{	// destroy proxy
; 602  : 		_Freeheadnode(this->_Myhead);
; 603  : 		_Free_proxy();
; 604  : 		}
; 605  : 
; 606  : 	void _Change_alloc(const _Alty& _Al)
; 607  : 		{	// replace old allocator
; 608  : 		_Free_proxy();
; 609  : 		this->_Alnod = _Al;
; 610  : 		_Alloc_proxy();
; 611  : 		}
; 612  : 
; 613  : 	void _Swap_alloc(_Myt& _Right)
; 614  : 		{	// swap allocators
; 615  : 		_Swap_adl(this->_Alnod, _Right._Alnod);
; 616  : 		_Swap_adl(this->_Myproxy, _Right._Myproxy);
; 617  : 		}
; 618  : 
; 619  : 	void _Alloc_proxy()
; 620  : 		{	// construct proxy from _Alnod
; 621  : 		typename _Alty::template rebind<_Container_proxy>::other
; 622  : 			_Alproxy(this->_Alnod);
; 623  : 		this->_Myproxy = _Alproxy.allocate(1);
; 624  : 		_Alproxy.construct(this->_Myproxy, _Container_proxy());
; 625  : 		this->_Myproxy->_Mycont = this;
; 626  : 		}
; 627  : 
; 628  : 	void _Free_proxy()
; 629  : 		{	// destroy proxy
; 630  : 		typename _Alty::template rebind<_Container_proxy>::other
; 631  : 			_Alproxy(this->_Alnod);
; 632  : 		this->_Orphan_all();
; 633  : 		_Alproxy.destroy(this->_Myproxy);
; 634  : 		_Alproxy.deallocate(this->_Myproxy, 1);
; 635  : 		this->_Myproxy = 0;
; 636  : 		}
; 637  :  #endif /* _ITERATOR_DEBUG_LEVEL == 0 */
; 638  : 
; 639  : 	_Nodeptr _Buyheadnode()
; 640  : 		{	// get head node using current allocator
; 641  : 		return (_Buynode0(_Nodeptr(), _Nodeptr()));
; 642  : 		}
; 643  : 
; 644  : 	void _Freeheadnode(_Nodeptr _Pnode)
; 645  : 		{	// free head node using current allocator
; 646  : 		this->_Alnod.destroy(
; 647  : 			_STD addressof(this->_Nextnode(_Pnode)));
; 648  : 		this->_Alnod.destroy(
; 649  : 			_STD addressof(this->_Prevnode(_Pnode)));
; 650  : 		this->_Alnod.deallocate(_Pnode, 1);
; 651  : 		}
; 652  : 
; 653  : 	_Nodeptr _Buynode0(_Nodeptr _Next,
; 654  : 		_Nodeptr _Prev)
; 655  : 		{	// allocate a node and set links
; 656  : 		_Nodeptr _Pnode = this->_Alnod.allocate(1);
; 657  : 
; 658  : 		if (_Next == _Nodeptr())
; 659  : 			{	// point at self
; 660  : 			_Next = _Pnode;
; 661  : 			_Prev = _Pnode;
; 662  : 			}
; 663  : 		_TRY_BEGIN
; 664  : 		this->_Alnod.construct(
; 665  : 			_STD addressof(this->_Nextnode(_Pnode)), _Next);
; 666  : 		this->_Alnod.construct(
; 667  : 			_STD addressof(this->_Prevnode(_Pnode)), _Prev);
; 668  : 		_CATCH_ALL
; 669  : 		this->_Alnod.deallocate(_Pnode, 1);
; 670  : 		_RERAISE;
; 671  : 		_CATCH_END
; 672  : 
; 673  : 		return (_Pnode);
; 674  : 		}
; 675  : 
; 676  : 	_Alty& _Getal()
; 677  : 		{	// get reference to allocator
; 678  : 		return (this->_Alnod);
; 679  : 		}
; 680  : 
; 681  : 	const _Alty& _Getal() const
; 682  : 		{	// get reference to allocator
; 683  : 		return (this->_Alnod);
; 684  : 		}
; 685  : 	};
; 686  : 
; 687  : 		// TEMPLATE CLASS _List_alloc
; 688  : template<class _Alloc_types>
; 689  : 	class _List_alloc<false, _Alloc_types>
; 690  : 		: public _List_val<typename _Alloc_types::_Val_types>
; 691  : 	{	// base class for list to hold allocator with no storage
; 692  : public:
; 693  : 	typedef _List_alloc<false, _Alloc_types> _Myt;
; 694  : 	typedef typename _Alloc_types::_Alloc _Alloc;
; 695  : 	typedef typename _Alloc_types::_Alnod_type _Alty;
; 696  : 	typedef typename _Alloc_types::_Node _Node;
; 697  : 	typedef typename _Alloc_types::_Nodeptr _Nodeptr;
; 698  : 
; 699  :  #if _ITERATOR_DEBUG_LEVEL == 0
; 700  : 	_List_alloc(const _Alloc& = _Alloc())
; 701  : 		{	// construct head node, allocator from _Al
; 702  : 		this->_Myhead = _Buyheadnode();

	mov	QWORD PTR [rbx], rax

; 892  : 		}

	mov	rax, rbx
	add	rsp, 32					; 00000020H
	pop	rbx
	ret	0
??0?$list@U?$_vector3@M@@V?$xalloc@U?$_vector3@M@@@@@std@@QEAA@XZ ENDP ; std::list<_vector3<float>,xalloc<_vector3<float> > >::list<_vector3<float>,xalloc<_vector3<float> > >
_TEXT	ENDS
; Function compile flags: /Ogtpy
; File c:\program files (x86)\microsoft visual studio 12.0\vc\include\list
; File c:\program files (x86)\microsoft visual studio 12.0\vc\include\xmemory0
; File c:\users\nummer\documents\github\olr-3.0\src\xray\xrcore\_stl_extensions.h
; File c:\program files (x86)\microsoft visual studio 12.0\vc\include\xmemory0
; File c:\users\nummer\documents\github\olr-3.0\src\xray\xrcore\_stl_extensions.h
; File c:\program files (x86)\microsoft visual studio 12.0\vc\include\list
;	COMDAT ??1?$list@U?$_vector3@M@@V?$xalloc@U?$_vector3@M@@@@@std@@QEAA@XZ
_TEXT	SEGMENT
p$1 = 48
this$ = 48
??1?$list@U?$_vector3@M@@V?$xalloc@U?$_vector3@M@@@@@std@@QEAA@XZ PROC ; std::list<_vector3<float>,xalloc<_vector3<float> > >::~list<_vector3<float>,xalloc<_vector3<float> > >, COMDAT

; 1094 : 		{	// destroy the object

$LN30:
	push	rbx
	sub	rsp, 32					; 00000020H
	mov	rbx, rcx

; 1097 : 
; 1098 : 	_Myt& operator=(const _Myt& _Right)
; 1099 : 		{	// assign _Right
; 1100 : 		if (this != &_Right)
; 1101 : 			{	// different, assign it
; 1102 : 			if (this->_Getal() != _Right._Getal()
; 1103 : 				&& _Alty::propagate_on_container_copy_assignment::value)
; 1104 : 				{	// change allocator before copying
; 1105 : 				clear();
; 1106 : 				this->_Change_alloc(_Right._Getal());
; 1107 : 				}
; 1108 : 
; 1109 : 			assign(_Right.begin(), _Right.end());
; 1110 : 			}
; 1111 : 		return (*this);
; 1112 : 		}
; 1113 : 
; 1114 : 	iterator begin() _NOEXCEPT
; 1115 : 		{	// return iterator for beginning of mutable sequence
; 1116 : 		return (iterator(this->_Nextnode(this->_Myhead), this));
; 1117 : 		}
; 1118 : 
; 1119 : 	const_iterator begin() const _NOEXCEPT
; 1120 : 		{	// return iterator for beginning of nonmutable sequence
; 1121 : 		return (const_iterator(this->_Nextnode(this->_Myhead), this));
; 1122 : 		}
; 1123 : 
; 1124 : 	iterator end() _NOEXCEPT
; 1125 : 		{	// return iterator for end of mutable sequence
; 1126 : 		return (iterator(this->_Myhead, this));
; 1127 : 		}
; 1128 : 
; 1129 : 	const_iterator end() const _NOEXCEPT
; 1130 : 		{	// return iterator for end of nonmutable sequence
; 1131 : 		return (const_iterator(this->_Myhead, this));
; 1132 : 		}
; 1133 : 
; 1134 : 	_Unchecked_iterator _Unchecked_begin()
; 1135 : 		{	// return iterator for beginning of mutable sequence
; 1136 : 		return (_Unchecked_iterator(this->_Nextnode(this->_Myhead),
; 1137 : 			this));
; 1138 : 		}
; 1139 : 
; 1140 : 	_Unchecked_const_iterator _Unchecked_begin() const
; 1141 : 		{	// return iterator for beginning of nonmutable sequence
; 1142 : 		return (_Unchecked_const_iterator(this->_Nextnode(this->_Myhead),
; 1143 : 			this));
; 1144 : 		}
; 1145 : 
; 1146 : 	_Unchecked_iterator _Unchecked_end()
; 1147 : 		{	// return unchecked iterator for end of mutable sequence
; 1148 : 		return (_Unchecked_iterator(this->_Myhead, this));
; 1149 : 		}
; 1150 : 
; 1151 : 	_Unchecked_const_iterator _Unchecked_end() const
; 1152 : 		{	// return unchecked iterator for end of nonmutable sequence
; 1153 : 		return (_Unchecked_const_iterator(this->_Myhead, this));
; 1154 : 		}
; 1155 : 
; 1156 : 	iterator _Make_iter(const_iterator _Where) const _NOEXCEPT
; 1157 : 		{	// make iterator from const_iterator
; 1158 : 		return (iterator(_Where._Ptr, this));
; 1159 : 		}
; 1160 : 
; 1161 : 	iterator _Make_iter(_Unchecked_const_iterator _Where) const
; 1162 : 		{	// make iterator from _Unchecked_const_iterator
; 1163 : 		return (iterator(_Where._Ptr, this));
; 1164 : 		}
; 1165 : 
; 1166 : 	reverse_iterator rbegin() _NOEXCEPT
; 1167 : 		{	// return iterator for beginning of reversed mutable sequence
; 1168 : 		return (reverse_iterator(end()));
; 1169 : 		}
; 1170 : 
; 1171 : 	const_reverse_iterator rbegin() const _NOEXCEPT
; 1172 : 		{	// return iterator for beginning of reversed nonmutable sequence
; 1173 : 		return (const_reverse_iterator(end()));
; 1174 : 		}
; 1175 : 
; 1176 : 	reverse_iterator rend() _NOEXCEPT
; 1177 : 		{	// return iterator for end of reversed mutable sequence
; 1178 : 		return (reverse_iterator(begin()));
; 1179 : 		}
; 1180 : 
; 1181 : 	const_reverse_iterator rend() const _NOEXCEPT
; 1182 : 		{	// return iterator for end of reversed nonmutable sequence
; 1183 : 		return (const_reverse_iterator(begin()));
; 1184 : 		}
; 1185 : 
; 1186 : 	const_iterator cbegin() const _NOEXCEPT
; 1187 : 		{	// return iterator for beginning of nonmutable sequence
; 1188 : 		return (((const _Myt *)this)->begin());
; 1189 : 		}
; 1190 : 
; 1191 : 	const_iterator cend() const _NOEXCEPT
; 1192 : 		{	// return iterator for end of nonmutable sequence
; 1193 : 		return (((const _Myt *)this)->end());
; 1194 : 		}
; 1195 : 
; 1196 : 	const_reverse_iterator crbegin() const _NOEXCEPT
; 1197 : 		{	// return iterator for beginning of reversed nonmutable sequence
; 1198 : 		return (((const _Myt *)this)->rbegin());
; 1199 : 		}
; 1200 : 
; 1201 : 	const_reverse_iterator crend() const _NOEXCEPT
; 1202 : 		{	// return iterator for end of reversed nonmutable sequence
; 1203 : 		return (((const _Myt *)this)->rend());
; 1204 : 		}
; 1205 : 
; 1206 : 	void resize(size_type _Newsize)
; 1207 : 		{	// determine new length, padding with _Ty() elements as needed
; 1208 : 		if (this->_Mysize < _Newsize)
; 1209 : 			{	// pad to make larger
; 1210 : 			size_type _Count = 0;
; 1211 : 			_TRY_BEGIN
; 1212 : 			for (; this->_Mysize < _Newsize; ++_Count)
; 1213 : 				_Insert(_Unchecked_end());
; 1214 : 			_CATCH_ALL
; 1215 : 			for (; 0 < _Count; --_Count)
; 1216 : 				pop_back();	// undo inserts
; 1217 : 			_RERAISE;
; 1218 : 			_CATCH_END
; 1219 : 			}
; 1220 : 		else
; 1221 : 			while (_Newsize < this->_Mysize)
; 1222 : 				pop_back();
; 1223 : 		}
; 1224 : 
; 1225 : 	void resize(size_type _Newsize, const _Ty& _Val)
; 1226 : 		{	// determine new length, padding with _Val elements as needed
; 1227 : 		if (this->_Mysize < _Newsize)
; 1228 : 			_Insert_n(_Unchecked_end(), _Newsize - this->_Mysize, _Val);
; 1229 : 		else
; 1230 : 			while (_Newsize < this->_Mysize)
; 1231 : 				pop_back();
; 1232 : 		}
; 1233 : 
; 1234 : 	size_type size() const _NOEXCEPT
; 1235 : 		{	// return length of sequence
; 1236 : 		return (this->_Mysize);
; 1237 : 		}
; 1238 : 
; 1239 : 	size_type max_size() const _NOEXCEPT
; 1240 : 		{	// return maximum possible length of sequence
; 1241 : 		return (this->_Getal().max_size());
; 1242 : 		}
; 1243 : 
; 1244 : 	bool empty() const _NOEXCEPT
; 1245 : 		{	// test if sequence is empty
; 1246 : 		return (this->_Mysize == 0);
; 1247 : 		}
; 1248 : 
; 1249 : 	allocator_type get_allocator() const _NOEXCEPT
; 1250 : 		{	// return allocator object for values
; 1251 : 		return (this->_Getal());
; 1252 : 		}
; 1253 : 
; 1254 : 	reference front()
; 1255 : 		{	// return first element of mutable sequence
; 1256 : 		return (*begin());
; 1257 : 		}
; 1258 : 
; 1259 : 	const_reference front() const
; 1260 : 		{	// return first element of nonmutable sequence
; 1261 : 		return (*begin());
; 1262 : 		}
; 1263 : 
; 1264 : 	reference back()
; 1265 : 		{	// return last element of mutable sequence
; 1266 : 		return (*(--end()));
; 1267 : 		}
; 1268 : 
; 1269 : 	const_reference back() const
; 1270 : 		{	// return last element of nonmutable sequence
; 1271 : 		return (*(--end()));
; 1272 : 		}
; 1273 : 
; 1274 : 	void push_front(const _Ty& _Val)
; 1275 : 		{	// insert element at beginning
; 1276 : 		_Insert(_Unchecked_begin(), _Val);
; 1277 : 		}
; 1278 : 
; 1279 : 	void pop_front()
; 1280 : 		{	// erase element at beginning
; 1281 : 		erase(begin());
; 1282 : 		}
; 1283 : 
; 1284 : 	void push_back(const _Ty& _Val)
; 1285 : 		{	// insert element at end
; 1286 : 		_Insert(_Unchecked_end(), _Val);
; 1287 : 		}
; 1288 : 
; 1289 : 	void pop_back()
; 1290 : 		{	// erase element at end
; 1291 : 		erase(--end());
; 1292 : 		}
; 1293 : 
; 1294 : 	template<class _Iter>
; 1295 : 		typename enable_if<_Is_iterator<_Iter>::value,
; 1296 : 			void>::type
; 1297 : 		assign(_Iter _First, _Iter _Last)
; 1298 : 		{	// assign [_First, _Last), input iterators
; 1299 : 		iterator _Old = begin();
; 1300 : 		_TRY_BEGIN
; 1301 : 		for (; _First != _Last && _Old != end(); ++_First, ++_Old)
; 1302 : 			_Reusenode(_Old, *_First);
; 1303 : 		for (; _First != _Last; ++_First)
; 1304 : 			_Insert(_Unchecked_end(), *_First);
; 1305 : 		_CATCH_ALL
; 1306 : 		clear();
; 1307 : 		_RERAISE;
; 1308 : 		_CATCH_END
; 1309 : 		erase(_Old, end());
; 1310 : 		}
; 1311 : 
; 1312 : 	template<class _TArg>
; 1313 : 		void _Reusenode(iterator _Where, _TArg&& _Arg)
; 1314 : 		{	// destroy the element at _Where and reconstruct from _Arg
; 1315 : 		_TRY_BEGIN
; 1316 : 		this->_Getal().destroy(
; 1317 : 			_STD addressof(this->_Myval(_Where._Ptr)));
; 1318 : 		this->_Getal().construct(
; 1319 : 			_STD addressof(this->_Myval(_Where._Ptr)),
; 1320 : 			_STD forward<_TArg>(_Arg));
; 1321 : 		_CATCH_ALL
; 1322 : 		_Unlinknode(_Where);
; 1323 : 		this->_Getal().destroy(
; 1324 : 			_STD addressof(this->_Nextnode(_Where._Ptr)));
; 1325 : 		this->_Getal().destroy(
; 1326 : 			_STD addressof(this->_Prevnode(_Where._Ptr)));
; 1327 : 		this->_Getal().deallocate(_Where._Ptr, 1);
; 1328 : 		_RERAISE;
; 1329 : 		_CATCH_END
; 1330 : 		}
; 1331 : 
; 1332 : 	void assign(size_type _Count, const _Ty& _Val)
; 1333 : 		{	// assign _Count * _Val
; 1334 : 		clear();
; 1335 : 		_Insert_n(_Unchecked_begin(), _Count, _Val);
; 1336 : 		}
; 1337 : 
; 1338 : 	iterator insert(const_iterator _Where, const _Ty& _Val)
; 1339 : 		{	// insert _Val at _Where
; 1340 :  #if _ITERATOR_DEBUG_LEVEL == 2
; 1341 : 		if (_Where._Getcont() != this)
; 1342 : 			_DEBUG_ERROR("list insert iterator outside range");
; 1343 :  #endif /* _ITERATOR_DEBUG_LEVEL == 2 */
; 1344 : 
; 1345 : 		_Insert(_Where._Unchecked(), _Val);
; 1346 : 		return (_Make_iter(--_Where));
; 1347 : 		}
; 1348 : 
; 1349 : 	iterator insert(const_iterator _Where, size_type _Count, const _Ty& _Val)
; 1350 : 		{	// insert _Count * _Val at _Where
; 1351 :  #if _ITERATOR_DEBUG_LEVEL == 2
; 1352 : 		if (_Where._Getcont() != this)
; 1353 : 			_DEBUG_ERROR("list insert iterator outside range");
; 1354 :  #endif /* _ITERATOR_DEBUG_LEVEL == 2 */
; 1355 : 
; 1356 : 		iterator _Prev = _Make_iter(_Where);
; 1357 : 		if (_Prev == begin())
; 1358 : 			{	// insert sequence at beginning
; 1359 : 			_Insert_n(_Where._Unchecked(), _Count, _Val);
; 1360 : 			return (begin());
; 1361 : 			}
; 1362 : 		else
; 1363 : 			{	// insert sequence not at beginning
; 1364 : 			--_Prev;
; 1365 : 			_Insert_n(_Where._Unchecked(), _Count, _Val);
; 1366 : 			return (++_Prev);
; 1367 : 			}
; 1368 : 		}
; 1369 : 
; 1370 : 	template<class _Iter>
; 1371 : 		typename enable_if<_Is_iterator<_Iter>::value,
; 1372 : 			iterator>::type
; 1373 : 		insert(const_iterator _Where, _Iter _First, _Iter _Last)
; 1374 : 		{	// insert [_First, _Last) at _Where
; 1375 :  #if _ITERATOR_DEBUG_LEVEL == 2
; 1376 : 		if (_Where._Getcont() != this)
; 1377 : 			_DEBUG_ERROR("list insert iterator outside range");
; 1378 :  #endif /* _ITERATOR_DEBUG_LEVEL == 2 */
; 1379 : 
; 1380 : 		iterator _Prev = _Make_iter(_Where);
; 1381 : 		if (_Prev == begin())
; 1382 : 			{	// insert sequence at beginning
; 1383 : 			_Insert_range(_Where._Unchecked(), _First, _Last,
; 1384 : 				_Iter_cat(_First));
; 1385 : 			return (begin());
; 1386 : 			}
; 1387 : 		else
; 1388 : 			{	// insert sequence not at beginning
; 1389 : 			--_Prev;
; 1390 : 			_Insert_range(_Where._Unchecked(), _First, _Last,
; 1391 : 				_Iter_cat(_First));
; 1392 : 			return (++_Prev);
; 1393 : 			}
; 1394 : 		}
; 1395 : 
; 1396 : 	template<class _Iter>
; 1397 : 		void _Insert_range(_Unchecked_const_iterator _Where,
; 1398 : 			_Iter _First, _Iter _Last, input_iterator_tag)
; 1399 : 		{	// insert [_First, _Last) at _Where, input iterators
; 1400 : 		size_type _Num = 0;
; 1401 : 
; 1402 : 		_TRY_BEGIN
; 1403 : 		for (; _First != _Last; ++_First, ++_Num)
; 1404 : 			_Insert(_Where, *_First);
; 1405 : 		_CATCH_ALL
; 1406 : 		for (; 0 < _Num; --_Num)
; 1407 : 			{	// undo inserts
; 1408 : 			_Unchecked_const_iterator _Before = _Where;
; 1409 : 			_Unchecked_erase(--_Before);
; 1410 : 			}
; 1411 : 		_RERAISE;
; 1412 : 		_CATCH_END
; 1413 : 		}
; 1414 : 
; 1415 : 	template<class _Iter>
; 1416 : 		void _Insert_range(_Unchecked_const_iterator _Where,
; 1417 : 			_Iter _First, _Iter _Last, forward_iterator_tag)
; 1418 : 		{	// insert [_First, _Last) at _Where, forward iterators
; 1419 : 		_DEBUG_RANGE(_First, _Last);
; 1420 : 		_Iter _Next = _First;
; 1421 : 
; 1422 : 		_TRY_BEGIN
; 1423 : 		for (; _First != _Last; ++_First)
; 1424 : 			_Insert(_Where, *_First);
; 1425 : 		_CATCH_ALL
; 1426 : 		for (; _Next != _First; ++_Next)
; 1427 : 			{	// undo inserts
; 1428 : 			_Unchecked_const_iterator _Before = _Where;
; 1429 : 			_Unchecked_erase(--_Before);
; 1430 : 			}
; 1431 : 		_RERAISE;
; 1432 : 		_CATCH_END
; 1433 : 		}
; 1434 : 
; 1435 : 	_Nodeptr _Unlinknode(const_iterator _Where)
; 1436 : 		{	// unlink node at _Where from the list
; 1437 :  #if _ITERATOR_DEBUG_LEVEL == 2
; 1438 : 		if (_Where._Getcont() != this || _Where._Ptr == this->_Myhead)
; 1439 : 			_DEBUG_ERROR("list erase iterator outside range");
; 1440 : 		_Nodeptr _Pnode = (_Where)._Mynode();
; 1441 : 		_Orphan_ptr(*this, _Pnode);
; 1442 : 
; 1443 :  #else /* _ITERATOR_DEBUG_LEVEL == 2 */
; 1444 : 		_Nodeptr _Pnode = (_Where)._Mynode();
; 1445 :  #endif /* _ITERATOR_DEBUG_LEVEL == 2 */
; 1446 : 
; 1447 : 		this->_Nextnode(this->_Prevnode(_Pnode)) =
; 1448 : 			this->_Nextnode(_Pnode);
; 1449 : 		this->_Prevnode(this->_Nextnode(_Pnode)) =
; 1450 : 			this->_Prevnode(_Pnode);
; 1451 : 
; 1452 : 		--this->_Mysize;
; 1453 : 		return (_Pnode);
; 1454 : 		}
; 1455 : 
; 1456 : 	iterator erase(const_iterator _Where)
; 1457 : 		{	// erase element at _Where
; 1458 : 		_Nodeptr _Pnode = _Unlinknode(_Where++);
; 1459 : 		this->_Freenode(_Pnode);
; 1460 : 		return (_Make_iter(_Where));
; 1461 : 		}
; 1462 : 
; 1463 : 	void _Unchecked_erase(_Unchecked_const_iterator _Where)
; 1464 : 		{	// erase element at _Where
; 1465 : 		_Nodeptr _Pnode = _Where._Mynode();
; 1466 : 
; 1467 : 		this->_Nextnode(this->_Prevnode(_Pnode)) =
; 1468 : 			this->_Nextnode(_Pnode);
; 1469 : 		this->_Prevnode(this->_Nextnode(_Pnode)) =
; 1470 : 			this->_Prevnode(_Pnode);
; 1471 : 		this->_Freenode(_Pnode);
; 1472 : 		--this->_Mysize;
; 1473 : 		}
; 1474 : 
; 1475 : 	iterator erase(const_iterator _First, const_iterator _Last)
; 1476 : 		{	// erase [_First, _Last)
; 1477 : 		if (_First == begin() && _Last == end())
; 1478 : 			{	// erase all and return fresh iterator
; 1479 : 			clear();
; 1480 : 			return (end());
; 1481 : 			}
; 1482 : 		else
; 1483 : 			{	// erase subrange
; 1484 : 			while (_First != _Last)
; 1485 : 				_First = erase(_First);
; 1486 : 			return (_Make_iter(_Last));
; 1487 : 			}
; 1488 : 		}
; 1489 : 
; 1490 : 	void clear() _NOEXCEPT
; 1491 : 		{	// erase all
; 1492 :  #if _ITERATOR_DEBUG_LEVEL == 2
; 1493 : 		this->_Orphan_ptr(*this, nullptr);
; 1494 :  #endif /* _ITERATOR_DEBUG_LEVEL == 2 */
; 1495 : 
; 1496 : 		_Nodeptr _Pnode = this->_Nextnode(this->_Myhead);
; 1497 : 		this->_Nextnode(this->_Myhead) = this->_Myhead;
; 1498 : 		this->_Prevnode(this->_Myhead) = this->_Myhead;
; 1499 : 		this->_Mysize = 0;
; 1500 : 
; 1501 : 		for (_Nodeptr _Pnext; _Pnode != this->_Myhead; _Pnode = _Pnext)
; 1502 : 			{	// delete an element
; 1503 : 			_Pnext = this->_Nextnode(_Pnode);
; 1504 : 			this->_Freenode(_Pnode);
; 1505 : 			}
; 1506 : 		}
; 1507 : 
; 1508 : 	void swap(_Myt& _Right)
; 1509 : 		{	// exchange contents with _Right
; 1510 : 		if (this == &_Right)
; 1511 : 			;	// same object, do nothing
; 1512 : 		else if (this->_Getal() == _Right._Getal())
; 1513 : 			{	// same allocator, swap control information
; 1514 : 			this->_Swap_all(_Right);
; 1515 : 			_Swap_adl(this->_Myhead, _Right._Myhead);
; 1516 : 			_STD swap(this->_Mysize, _Right._Mysize);
; 1517 : 			}
; 1518 : 
; 1519 : 		else if (_Alty::propagate_on_container_swap::value)
; 1520 : 			{	// swap allocators and control information
; 1521 : 			this->_Swap_alloc(_Right);
; 1522 : 			_Swap_adl(this->_Myhead, _Right._Myhead);
; 1523 : 			_STD swap(this->_Mysize, _Right._Mysize);
; 1524 : 			}
; 1525 : 
; 1526 : 		else	// containers are incompatible
; 1527 : 
; 1528 :  #if _ITERATOR_DEBUG_LEVEL == 2
; 1529 : 			_DEBUG_ERROR("list containers incompatible for swap");
; 1530 : 
; 1531 :  #else /* ITERATOR_DEBUG_LEVEL == 2 */
; 1532 : 			_XSTD terminate();
; 1533 :  #endif /* ITERATOR_DEBUG_LEVEL == 2 */
; 1534 : 		}
; 1535 : 
; 1536 : 	void splice(const_iterator _Where, _Myt& _Right)
; 1537 : 		{	// splice all of _Right at _Where
; 1538 : 		if (this != &_Right && !_Right.empty())
; 1539 : 			{	// worth splicing, do it
; 1540 : 			_Splice(_Where, _Right, _Right.begin(), _Right.end(),
; 1541 : 				_Right._Mysize);
; 1542 : 			}
; 1543 : 		}
; 1544 : 
; 1545 : 	void splice(const_iterator _Where, _Myt&& _Right)
; 1546 : 		{	// splice all of _Right at _Where
; 1547 : 		splice(_Where, (_Myt&)_Right);
; 1548 : 		}
; 1549 : 
; 1550 : 	void splice(const_iterator _Where, _Myt& _Right,
; 1551 : 		const_iterator _First)
; 1552 : 		{	// splice _Right [_First, _First + 1) at _Where
; 1553 :  #if _ITERATOR_DEBUG_LEVEL == 2
; 1554 : 		if (_First == _Right.end())
; 1555 : 			_DEBUG_ERROR("list splice iterator outside range");
; 1556 : 		else
; 1557 : 
; 1558 :  #else /* _ITERATOR_DEBUG_LEVEL == 2 */
; 1559 : 		if (_First != _Right.end())
; 1560 :  #endif /* _ITERATOR_DEBUG_LEVEL == 2 */
; 1561 : 
; 1562 : 			{	// element exists, try splice
; 1563 : 			const_iterator _Last = _First;
; 1564 : 			++_Last;
; 1565 : 			if (this != &_Right
; 1566 : 				|| (_Where != _First && _Where != _Last))
; 1567 : 				_Splice(_Where, _Right, _First, _Last, 1);
; 1568 : 			}
; 1569 : 		}
; 1570 : 
; 1571 : 	void splice(const_iterator _Where, _Myt&& _Right,
; 1572 : 		const_iterator _First)
; 1573 : 		{	// splice _Right [_First, _First + 1) at _Where
; 1574 : 		splice(_Where, (_Myt&)_Right, _First);
; 1575 : 		}
; 1576 : 
; 1577 : 	void splice(const_iterator _Where,
; 1578 : 		_Myt& _Right, const_iterator _First, const_iterator _Last)
; 1579 : 		{	// splice _Right [_First, _Last) at _Where
; 1580 : 		if (_First != _Last && (this != &_Right || _Where != _Last))
; 1581 : 			{	// worth splicing, do it
; 1582 : 			size_type _Count = 0;
; 1583 : 
; 1584 : 			if (this == &_Right)
; 1585 : 				;	// just rearrange this list
; 1586 : 			else if (_First == _Right.begin() && _Last == _Right.end())
; 1587 : 				_Count = _Right._Mysize;	// splice in whole list
; 1588 : 			else
; 1589 : 				{	// count nodes and check for knot
; 1590 : 				const_iterator _Next = _First;
; 1591 : 
; 1592 : 				for (; _Next != _Last; ++_Next, ++_Count)
; 1593 : 					if (_Next == _Right.end())
; 1594 : 						_Xlength_error("list<T> bad splice");
; 1595 : 				}
; 1596 : 			_Splice(_Where, _Right, _First, _Last, _Count);
; 1597 : 			}
; 1598 : 		}
; 1599 : 
; 1600 : 	void splice(const_iterator _Where,
; 1601 : 		_Myt&& _Right, const_iterator _First, const_iterator _Last)
; 1602 : 		{	// splice _Right [_First, _Last) at _Where
; 1603 : 		splice(_Where, (_Myt&)_Right, _First, _Last);
; 1604 : 		}
; 1605 : 
; 1606 : 	void remove(const _Ty& _Val)
; 1607 : 		{	// erase each element matching _Val
; 1608 : 		iterator _Val_it = end();
; 1609 : 
; 1610 : 		for (iterator _First = begin(); _First != end(); )
; 1611 : 			if (*_First == _Val)
; 1612 : 				if (_STD addressof(*_First) == _STD addressof(_Val))
; 1613 : 					_Val_it = _First++;
; 1614 : 				else
; 1615 : 					_First = erase(_First);
; 1616 : 			else
; 1617 : 				++_First;
; 1618 : 
; 1619 : 		if (_Val_it != end())
; 1620 : 			erase(_Val_it);
; 1621 : 		}
; 1622 : 
; 1623 : 	template<class _Pr1>
; 1624 : 		void remove_if(_Pr1 _Pred)
; 1625 : 		{	// erase each element satisfying _Pred
; 1626 : 		for (iterator _First = begin(); _First != end(); )
; 1627 : 			if (_Pred(*_First))
; 1628 : 				_First = erase(_First);
; 1629 : 			else
; 1630 : 				++_First;
; 1631 : 		}
; 1632 : 
; 1633 : 	void unique()
; 1634 : 		{	// erase each element matching previous
; 1635 : 		unique(equal_to<>());
; 1636 : 		}
; 1637 : 
; 1638 : 	template<class _Pr2>
; 1639 : 		void unique(_Pr2 _Pred)
; 1640 : 		{	// erase each element satisfying _Pred with previous
; 1641 : 		const _Nodeptr _Phead = this->_Myhead;
; 1642 : 		_Nodeptr _Pprev = this->_Nextnode(_Phead);
; 1643 : 		_Nodeptr _Pnode = this->_Nextnode(_Pprev);
; 1644 : 
; 1645 : 		while (_Pnode != _Phead)
; 1646 : 			if (_Pred(_Pprev->_Myval, _Pnode->_Myval))
; 1647 : 				{	// match, remove it
; 1648 : 				const _Nodeptr _Perase = _Pnode;
; 1649 : 				_Pnode = this->_Nextnode(_Pnode);
; 1650 : 
; 1651 : 				this->_Nextnode(_Pprev) = _Pnode;
; 1652 : 				this->_Prevnode(_Pnode) = _Pprev;
; 1653 : 				this->_Freenode(_Perase);
; 1654 : 
; 1655 : 				--this->_Mysize;
; 1656 : 				}
; 1657 : 			else
; 1658 : 				{	// no match, advance
; 1659 : 				_Pprev = _Pnode;
; 1660 : 				_Pnode = this->_Nextnode(_Pnode);
; 1661 : 				}
; 1662 : 		}
; 1663 : 
; 1664 : 	void merge(_Myt& _Right)
; 1665 : 		{	// merge in elements from _Right, both ordered by operator<
; 1666 : 		merge(_Right, less<>());
; 1667 : 		}
; 1668 : 
; 1669 : 	void merge(_Myt&& _Right)
; 1670 : 		{	// merge in elements from _Right, both ordered by operator<
; 1671 : 		merge((_Myt&)_Right);
; 1672 : 		}
; 1673 : 
; 1674 : 	template<class _Pr2>
; 1675 : 		void merge(_Myt& _Right, _Pr2 _Pred)
; 1676 : 		{	// merge in elements from _Right, both ordered by _Pred
; 1677 : 		if (&_Right != this)
; 1678 : 			{	// safe to merge, do it
; 1679 : 			iterator _First1 = begin(), _Last1 = end();
; 1680 : 			iterator _First2 = _Right.begin(), _Last2 = _Right.end();
; 1681 : 			_DEBUG_ORDER_PRED(_First1, _Last1, _Pred);
; 1682 : 			_DEBUG_ORDER_PRED(_First2, _Last2, _Pred);
; 1683 : 
; 1684 : 			while (_First1 != _Last1 && _First2 != _Last2)
; 1685 : 				if (_DEBUG_LT_PRED(_Pred, *_First2, *_First1))
; 1686 : 					{	// splice in an element from _Right
; 1687 : 					iterator _Mid2 = _First2;
; 1688 : 					_Splice(_First1, _Right, _First2, ++_Mid2, 1);
; 1689 : 					_First2 = _Mid2;
; 1690 : 					}
; 1691 : 				else
; 1692 : 					++_First1;
; 1693 : 
; 1694 : 			if (_First2 != _Last2)
; 1695 : 				_Splice(_Last1, _Right, _First2, _Last2,
; 1696 : 					_Right._Mysize);	// splice remainder of _Right
; 1697 : 			}
; 1698 : 		}
; 1699 : 
; 1700 : 	template<class _Pr2>
; 1701 : 		void merge(_Myt&& _Right, _Pr2 _Pred)
; 1702 : 		{	// merge in elements from _Right, both ordered by _Pred
; 1703 : 		merge((_Myt&)_Right, _Pred);
; 1704 : 		}
; 1705 : 
; 1706 : 	void sort()
; 1707 : 		{	// order sequence, using operator<
; 1708 : 		sort(less<>());
; 1709 : 		}
; 1710 : 
; 1711 : 	template<class _Pr2>
; 1712 : 		void sort(_Pr2 _Pred)
; 1713 : 		{	// order sequence, using _Pred
; 1714 : 		if (2 <= this->_Mysize)
; 1715 : 			{	// worth sorting, do it
; 1716 : 			const size_t _MAXBINS = 25;
; 1717 : 			_Myt _Templist(this->_Getal()), _Binlist[_MAXBINS + 1];
; 1718 : 			size_t _Maxbin = 0;
; 1719 : 
; 1720 : 			while (!empty())
; 1721 : 				{	// sort another element, using bins
; 1722 : 				_Templist._Splice_same(_Templist.begin(), *this, begin(),
; 1723 : 					++begin(), 1);
; 1724 : 
; 1725 : 				size_t _Bin;
; 1726 : 				for (_Bin = 0; _Bin < _Maxbin && !_Binlist[_Bin].empty();
; 1727 : 					++_Bin)
; 1728 : 					{	// merge into ever larger bins
; 1729 : 					_Binlist[_Bin].merge(_Templist, _Pred);
; 1730 : 					_Binlist[_Bin].swap(_Templist);
; 1731 : 					}
; 1732 : 
; 1733 : 				if (_Bin == _MAXBINS)
; 1734 : 					_Binlist[_Bin - 1].merge(_Templist, _Pred);
; 1735 : 				else
; 1736 : 					{	// spill to new bin, while they last
; 1737 : 					_Binlist[_Bin].swap(_Templist);
; 1738 : 					if (_Bin == _Maxbin)
; 1739 : 						++_Maxbin;
; 1740 : 					}
; 1741 : 				}
; 1742 : 
; 1743 : 			for (size_t _Bin = 1; _Bin < _Maxbin; ++_Bin)
; 1744 : 				_Binlist[_Bin].merge(_Binlist[_Bin - 1],
; 1745 : 					_Pred);	// merge up
; 1746 : 
; 1747 : 			_Analysis_assume_(0 < _Maxbin);
; 1748 : 
; 1749 : 			splice(begin(), _Binlist[_Maxbin - 1]);	// result in last bin
; 1750 : 			}
; 1751 : 		}
; 1752 : 
; 1753 : 	void reverse() _NOEXCEPT
; 1754 : 		{	// reverse sequence
; 1755 : 		const _Nodeptr _Phead = this->_Myhead;
; 1756 : 		_Nodeptr _Pnode = _Phead;
; 1757 : 
; 1758 : 		for (; ; )
; 1759 : 			{	// flip pointers in a node
; 1760 : 			const _Nodeptr _Pnext = this->_Nextnode(_Pnode);
; 1761 : 			this->_Nextnode(_Pnode) = this->_Prevnode(_Pnode);
; 1762 : 			this->_Prevnode(_Pnode) = _Pnext;
; 1763 : 
; 1764 : 			if (_Pnext == _Phead)
; 1765 : 				break;
; 1766 : 			_Pnode = _Pnext;
; 1767 : 			}
; 1768 : 		}
; 1769 : 
; 1770 : 	void _Splice(const_iterator _Where,
; 1771 : 		_Myt& _Right, const_iterator _First, const_iterator _Last,
; 1772 : 		size_type _Count)
; 1773 : 		{	// splice _Right [_First, _Last) before _Where
; 1774 :  #if _ITERATOR_DEBUG_LEVEL == 2
; 1775 : 		if (_Where._Getcont() != this)
; 1776 : 			_DEBUG_ERROR("list splice iterator outside range");
; 1777 : 		if (this->_Getal() != _Right._Getal())
; 1778 : 			_DEBUG_ERROR("list containers incompatible for splice");
; 1779 : 
; 1780 : 		if (this != &_Right)
; 1781 : 			{	// transfer ownership
; 1782 : 			_Lockit _Lock(_LOCK_DEBUG);
; 1783 : 
; 1784 : 			const bool _One = _Count == 1;
; 1785 : 			const bool _All = _Count == _Right.size();
; 1786 : 			const bool _Some = !_One && !_All;
; 1787 : 
; 1788 : 			_Nodeptr _Oldprev = _First._Ptr->_Prev;
; 1789 : 
; 1790 : 			if (_Some)
; 1791 : 				for (_Nodeptr _Ptr = _First._Ptr; _Ptr != _Last._Ptr;
; 1792 : 					_Ptr = _Ptr->_Next)
; 1793 : 					{	// mark _Prev pointers
; 1794 : 					_Ptr->_Prev = 0;
; 1795 : 					}
; 1796 : 
; 1797 : 			const_iterator **_Pnext = (const_iterator **)_Right._Getpfirst();
; 1798 : 
; 1799 : 			if (_Pnext == 0)
; 1800 : 				_DEBUG_ERROR("list container corrupted");
; 1801 : 
; 1802 : 			while (*_Pnext != 0)
; 1803 : 				{	// check the iterator
; 1804 : 				const_iterator& _Iter = **_Pnext;
; 1805 : 
; 1806 : 				if ((_One && _Iter._Ptr == _First._Ptr)
; 1807 : 					|| (_All && _Iter._Ptr != _Right._Myhead)
; 1808 : 					|| (_Some && _Iter._Ptr->_Prev == 0))
; 1809 : 					{	// adopt the iterator
; 1810 : 					*_Pnext = (const_iterator *)_Iter._Mynextiter;
; 1811 : 					_Iter._Myproxy = this->_Myproxy;
; 1812 : 					_Iter._Mynextiter = this->_Myproxy->_Myfirstiter;
; 1813 : 					this->_Myproxy->_Myfirstiter = &_Iter;
; 1814 : 					}
; 1815 : 				else
; 1816 : 					{	// skip the iterator
; 1817 : 					_Pnext = (const_iterator **)_Iter._Getpnext();
; 1818 : 					}
; 1819 : 				}
; 1820 : 
; 1821 : 			if (_Some)
; 1822 : 				for (_Nodeptr _Ptr = _First._Ptr; _Ptr != _Last._Ptr;
; 1823 : 					_Ptr = _Ptr->_Next)
; 1824 : 					{	// restore _Prev pointers
; 1825 : 					_Ptr->_Prev = _Oldprev;
; 1826 : 					_Oldprev = _Ptr;
; 1827 : 					}
; 1828 : 			}
; 1829 : 
; 1830 :  #else /* _ITERATOR_DEBUG_LEVEL == 2 */
; 1831 : 		if (this->_Getal() != _Right._Getal())
; 1832 : 			_XSTD terminate();
; 1833 :  #endif /* _ITERATOR_DEBUG_LEVEL == 2 */
; 1834 : 
; 1835 : 		_Splice_same(_Where, _Right, _First, _Last, _Count);
; 1836 : 		}
; 1837 : 
; 1838 : 	void _Splice_same(const_iterator _Where,
; 1839 : 		_Myt& _Right, const_iterator _First, const_iterator _Last,
; 1840 : 		size_type _Count)
; 1841 : 		{	// splice _Right [_First, _Last) before _Where
; 1842 : 		if (this != &_Right)
; 1843 : 			{	// splicing from another list, adjust counts
; 1844 : 			_Incsize(_Count);
; 1845 : 			_Right._Mysize -= _Count;
; 1846 : 			}
; 1847 : 		this->_Nextnode(this->_Prevnode(_First._Mynode())) =
; 1848 : 			_Last._Mynode();
; 1849 : 		this->_Nextnode(this->_Prevnode(_Last._Mynode())) =
; 1850 : 			_Where._Mynode();
; 1851 : 		this->_Nextnode(this->_Prevnode(_Where._Mynode())) =
; 1852 : 			_First._Mynode();
; 1853 : 
; 1854 : 		_Nodeptr _Pnode = this->_Prevnode(_Where._Mynode());
; 1855 : 		this->_Prevnode(_Where._Mynode()) =
; 1856 : 			this->_Prevnode(_Last._Mynode());
; 1857 : 		this->_Prevnode(_Last._Mynode()) =
; 1858 : 			this->_Prevnode(_First._Mynode());
; 1859 : 		this->_Prevnode(_First._Mynode()) = _Pnode;
; 1860 : 		}
; 1861 : 
; 1862 : 	void _Unchecked_splice(_Unchecked_const_iterator _Where,
; 1863 : 		_Unchecked_const_iterator _First,
; 1864 : 		_Unchecked_const_iterator _Last)
; 1865 : 		{	// splice [_First, _Last) before _Where
; 1866 : 		this->_Nextnode(this->_Prevnode(_First._Mynode())) =
; 1867 : 			_Last._Mynode();
; 1868 : 		this->_Nextnode(this->_Prevnode(_Last._Mynode())) =
; 1869 : 			_Where._Mynode();
; 1870 : 		this->_Nextnode(this->_Prevnode(_Where._Mynode())) =
; 1871 : 			_First._Mynode();
; 1872 : 
; 1873 : 		_Nodeptr _Pnode = this->_Prevnode(_Where._Mynode());
; 1874 : 		this->_Prevnode(_Where._Mynode()) =
; 1875 : 			this->_Prevnode(_Last._Mynode());
; 1876 : 		this->_Prevnode(_Last._Mynode()) =
; 1877 : 			this->_Prevnode(_First._Mynode());
; 1878 : 		this->_Prevnode(_First._Mynode()) = _Pnode;
; 1879 : 		}
; 1880 : 
; 1881 : 	void _Tidy()
; 1882 : 		{	// free all storage
; 1883 : 		clear();

	call	?clear@?$list@U?$_vector3@M@@V?$xalloc@U?$_vector3@M@@@@@std@@QEAAXXZ ; std::list<_vector3<float>,xalloc<_vector3<float> > >::clear
; File c:\program files (x86)\microsoft visual studio 12.0\vc\include\xmemory0

; 858  : 		_Mybase::deallocate(_Ptr, _Count);

	mov	rax, QWORD PTR [rbx]
; File c:\users\nummer\documents\github\olr-3.0\src\xray\xrcore\_stl_extensions.h

; 82   : 							void					deallocate		(pointer p, size_type n) const			{	xr_free	(p);				}

	lea	rcx, QWORD PTR p$1[rsp]
; File c:\program files (x86)\microsoft visual studio 12.0\vc\include\xmemory0

; 858  : 		_Mybase::deallocate(_Ptr, _Count);

	mov	QWORD PTR p$1[rsp], rax
; File c:\users\nummer\documents\github\olr-3.0\src\xray\xrcore\_stl_extensions.h

; 82   : 							void					deallocate		(pointer p, size_type n) const			{	xr_free	(p);				}

	call	??$xr_free@U?$_List_node@U?$_vector3@M@@PEAX@std@@@@YAXAEAPEAU?$_List_node@U?$_vector3@M@@PEAX@std@@@Z ; xr_free<std::_List_node<_vector3<float>,void * __ptr64> >
; File c:\program files (x86)\microsoft visual studio 12.0\vc\include\list

; 1096 : 		}

	add	rsp, 32					; 00000020H
	pop	rbx
	ret	0
??1?$list@U?$_vector3@M@@V?$xalloc@U?$_vector3@M@@@@@std@@QEAA@XZ ENDP ; std::list<_vector3<float>,xalloc<_vector3<float> > >::~list<_vector3<float>,xalloc<_vector3<float> > >
_TEXT	ENDS
; Function compile flags: /Ogtpy
; File c:\program files (x86)\microsoft visual studio 12.0\vc\include\list
;	COMDAT ?begin@?$list@U?$_vector3@M@@V?$xalloc@U?$_vector3@M@@@@@std@@QEAA?AV?$_List_iterator@V?$_List_val@U?$_List_simple_types@U?$_vector3@M@@@std@@@std@@@2@XZ
_TEXT	SEGMENT
this$ = 8
__$ReturnUdt$ = 16
?begin@?$list@U?$_vector3@M@@V?$xalloc@U?$_vector3@M@@@@@std@@QEAA?AV?$_List_iterator@V?$_List_val@U?$_List_simple_types@U?$_vector3@M@@@std@@@std@@@2@XZ PROC ; std::list<_vector3<float>,xalloc<_vector3<float> > >::begin, COMDAT

; 45   : 		this->_Adopt(_Plist);
; 46   : 		}
; 47   : 
; 48   : 	reference operator*() const
; 49   : 		{	// return designated value
; 50   : 		return (_Mylist::_Myval(_Ptr));
; 51   : 		}
; 52   : 
; 53   : 	pointer operator->() const
; 54   : 		{	// return pointer to class object
; 55   : 		return (_STD pointer_traits<pointer>::pointer_to(**this));
; 56   : 		}
; 57   : 
; 58   : 	_Myiter& operator++()
; 59   : 		{	// preincrement
; 60   : 		_Ptr = _Mylist::_Nextnode(_Ptr);
; 61   : 		return (*this);
; 62   : 		}
; 63   : 
; 64   : 	_Myiter operator++(int)
; 65   : 		{	// postincrement
; 66   : 		_Myiter _Tmp = *this;
; 67   : 		++*this;
; 68   : 		return (_Tmp);
; 69   : 		}
; 70   : 
; 71   : 	_Myiter& operator--()
; 72   : 		{	// predecrement
; 73   : 		_Ptr = _Mylist::_Prevnode(_Ptr);
; 74   : 		return (*this);
; 75   : 		}
; 76   : 
; 77   : 	_Myiter operator--(int)
; 78   : 		{	// postdecrement
; 79   : 		_Myiter _Tmp = *this;
; 80   : 		--*this;
; 81   : 		return (_Tmp);
; 82   : 		}
; 83   : 
; 84   : 	bool operator==(const _Myiter& _Right) const
; 85   : 		{	// test for iterator equality
; 86   : 		return (_Ptr == _Right._Ptr);
; 87   : 		}
; 88   : 
; 89   : 	bool operator!=(const _Myiter& _Right) const
; 90   : 		{	// test for iterator inequality
; 91   : 		return (!(*this == _Right));
; 92   : 		}
; 93   : 
; 94   : 	_Nodeptr _Mynode() const
; 95   : 		{	// return node pointer
; 96   : 		return (_Ptr);
; 97   : 		}
; 98   : 
; 99   : 	_Nodeptr _Ptr;	// pointer to node
; 100  : 	};
; 101  : 
; 102  : 	// TEMPLATE CLASS _List_unchecked_iterator
; 103  : template<class _Mylist>
; 104  : 	class _List_unchecked_iterator
; 105  : 		: public _List_unchecked_const_iterator<_Mylist>
; 106  : 	{	// unchecked iterator for mutable list
; 107  : public:
; 108  : 	typedef _List_unchecked_iterator<_Mylist> _Myiter;
; 109  : 	typedef _List_unchecked_const_iterator<_Mylist> _Mybase;
; 110  : 	typedef bidirectional_iterator_tag iterator_category;
; 111  : 
; 112  : 	typedef typename _Mylist::_Nodeptr _Nodeptr;
; 113  : 	typedef typename _Mylist::value_type value_type;
; 114  : 	typedef typename _Mylist::difference_type difference_type;
; 115  : 	typedef typename _Mylist::pointer pointer;
; 116  : 	typedef typename _Mylist::reference reference;
; 117  : 
; 118  : 	_List_unchecked_iterator()
; 119  : 		{	// construct with null node
; 120  : 		}
; 121  : 
; 122  : 	_List_unchecked_iterator(_Nodeptr _Pnode, const _Mylist *_Plist)
; 123  : 		: _Mybase(_Pnode, _Plist)
; 124  : 		{	// construct with node pointer _Pnode
; 125  : 		}
; 126  : 
; 127  : 	reference operator*() const
; 128  : 		{	// return designated value
; 129  : 		return ((reference)**(_Mybase *)this);
; 130  : 		}
; 131  : 
; 132  : 	pointer operator->() const
; 133  : 		{	// return pointer to class object
; 134  : 		return (_STD pointer_traits<pointer>::pointer_to(**this));
; 135  : 		}
; 136  : 
; 137  : 	_Myiter& operator++()
; 138  : 		{	// preincrement
; 139  : 		++(*(_Mybase *)this);
; 140  : 		return (*this);
; 141  : 		}
; 142  : 
; 143  : 	_Myiter operator++(int)
; 144  : 		{	// postincrement
; 145  : 		_Myiter _Tmp = *this;
; 146  : 		++*this;
; 147  : 		return (_Tmp);
; 148  : 		}
; 149  : 
; 150  : 	_Myiter& operator--()
; 151  : 		{	// predecrement
; 152  : 		--(*(_Mybase *)this);
; 153  : 		return (*this);
; 154  : 		}
; 155  : 
; 156  : 	_Myiter operator--(int)
; 157  : 		{	// postdecrement
; 158  : 		_Myiter _Tmp = *this;
; 159  : 		--*this;
; 160  : 		return (_Tmp);
; 161  : 		}
; 162  : 	};
; 163  : 
; 164  : 	// TEMPLATE CLASS _List_const_iterator
; 165  : template<class _Mylist>
; 166  : 	class _List_const_iterator
; 167  : 		: public _List_unchecked_const_iterator<_Mylist, _Iterator_base>
; 168  : 	{	// iterator for nonmutable list
; 169  : public:
; 170  : 	typedef _List_const_iterator<_Mylist> _Myiter;
; 171  : 	typedef _List_unchecked_const_iterator<_Mylist, _Iterator_base> _Mybase;
; 172  : 	typedef bidirectional_iterator_tag iterator_category;
; 173  : 
; 174  : 	typedef typename _Mylist::_Nodeptr _Nodeptr;
; 175  : 	typedef typename _Mylist::value_type value_type;
; 176  : 	typedef typename _Mylist::difference_type difference_type;
; 177  : 	typedef typename _Mylist::const_pointer pointer;
; 178  : 	typedef typename _Mylist::const_reference reference;
; 179  : 
; 180  : 	_List_const_iterator()
; 181  : 		: _Mybase()
; 182  : 		{	// construct with null node pointer
; 183  : 		}
; 184  : 
; 185  : 	_List_const_iterator(_Nodeptr _Pnode, const _Mylist *_Plist)
; 186  : 		: _Mybase(_Pnode, _Plist)
; 187  : 		{	// construct with node pointer _Pnode
; 188  : 		}
; 189  : 
; 190  : 	typedef _List_unchecked_const_iterator<_Mylist> _Unchecked_type;
; 191  : 
; 192  : 	_Myiter& _Rechecked(_Unchecked_type _Right)
; 193  : 		{	// reset from unchecked iterator
; 194  : 		this->_Ptr = _Right._Ptr;
; 195  : 		return (*this);
; 196  : 		}
; 197  : 
; 198  : 	_Unchecked_type _Unchecked() const
; 199  : 		{	// make an unchecked iterator
; 200  : 		return (_Unchecked_type(this->_Ptr, (_Mylist *)this->_Getcont()));
; 201  : 		}
; 202  : 
; 203  : 	reference operator*() const
; 204  : 		{	// return designated value
; 205  :  #if _ITERATOR_DEBUG_LEVEL == 2
; 206  : 		if (this->_Getcont() == 0
; 207  : 			|| this->_Ptr == 0
; 208  : 			|| this->_Ptr == ((_Mylist *)this->_Getcont())->_Myhead)
; 209  : 			{	// report error
; 210  : 			_DEBUG_ERROR("list iterator not dereferencable");
; 211  : 			_SCL_SECURE_OUT_OF_RANGE;
; 212  : 			}
; 213  : 
; 214  :  #elif _ITERATOR_DEBUG_LEVEL == 1
; 215  : 		_SCL_SECURE_VALIDATE(this->_Getcont() != 0 && this->_Ptr != 0);
; 216  : 		_SCL_SECURE_VALIDATE_RANGE(this->_Ptr !=
; 217  : 			((_Mylist *)this->_Getcont())->_Myhead);
; 218  :  #endif /* _ITERATOR_DEBUG_LEVEL */
; 219  : 
; 220  : 		return (_Mylist::_Myval(this->_Ptr));
; 221  : 		}
; 222  : 
; 223  : 	_Myiter& operator++()
; 224  : 		{	// preincrement
; 225  :  #if _ITERATOR_DEBUG_LEVEL == 2
; 226  : 		if (this->_Getcont() == 0
; 227  : 			|| this->_Ptr == 0
; 228  : 			|| this->_Ptr == ((_Mylist *)this->_Getcont())->_Myhead)
; 229  : 			{	// report error
; 230  : 			_DEBUG_ERROR("list iterator not incrementable");
; 231  : 			_SCL_SECURE_OUT_OF_RANGE;
; 232  : 			}
; 233  : 
; 234  :  #elif _ITERATOR_DEBUG_LEVEL == 1
; 235  : 		_SCL_SECURE_VALIDATE(this->_Getcont() != 0 && this->_Ptr != 0);
; 236  : 		_SCL_SECURE_VALIDATE_RANGE(this->_Ptr !=
; 237  : 			((_Mylist *)this->_Getcont())->_Myhead);
; 238  :  #endif /* _ITERATOR_DEBUG_LEVEL */
; 239  : 
; 240  : 		this->_Ptr = _Mylist::_Nextnode(this->_Ptr);
; 241  : 		return (*this);
; 242  : 		}
; 243  : 
; 244  : 	_Myiter operator++(int)
; 245  : 		{	// postincrement
; 246  : 		_Myiter _Tmp = *this;
; 247  : 		++*this;
; 248  : 		return (_Tmp);
; 249  : 		}
; 250  : 
; 251  : 	_Myiter& operator--()
; 252  : 		{	// predecrement
; 253  :  #if _ITERATOR_DEBUG_LEVEL == 2
; 254  : 		if (this->_Getcont() == 0
; 255  : 			|| this->_Ptr == 0
; 256  : 			|| (this->_Ptr = _Mylist::_Prevnode(this->_Ptr))
; 257  : 				== ((_Mylist *)this->_Getcont())->_Myhead)
; 258  : 			{	// report error
; 259  : 			_DEBUG_ERROR("list iterator not decrementable");
; 260  : 			_SCL_SECURE_OUT_OF_RANGE;
; 261  : 			}
; 262  : 
; 263  :  #elif _ITERATOR_DEBUG_LEVEL == 1
; 264  : 		_SCL_SECURE_VALIDATE(this->_Getcont() != 0 && this->_Ptr != 0);
; 265  : 		this->_Ptr = _Mylist::_Prevnode(this->_Ptr);
; 266  : 		_SCL_SECURE_VALIDATE_RANGE(this->_Ptr !=
; 267  : 			((_Mylist *)this->_Getcont())->_Myhead);
; 268  : 
; 269  :  #else /* _ITERATOR_DEBUG_LEVEL */
; 270  : 		this->_Ptr = _Mylist::_Prevnode(this->_Ptr);
; 271  :  #endif /* _ITERATOR_DEBUG_LEVEL */
; 272  : 
; 273  : 		return (*this);
; 274  : 		}
; 275  : 
; 276  : 	_Myiter operator--(int)
; 277  : 		{	// postdecrement
; 278  : 		_Myiter _Tmp = *this;
; 279  : 		--*this;
; 280  : 		return (_Tmp);
; 281  : 		}
; 282  : 
; 283  : 	bool operator==(const _Myiter& _Right) const
; 284  : 		{	// test for iterator equality
; 285  :  #if _ITERATOR_DEBUG_LEVEL == 2
; 286  : 		if (this->_Getcont() == 0
; 287  : 			|| this->_Getcont() != _Right._Getcont())
; 288  : 			{	// report error
; 289  : 			_DEBUG_ERROR("list iterators incompatible");
; 290  : 			_SCL_SECURE_INVALID_ARGUMENT;
; 291  : 			}
; 292  : 
; 293  :  #elif _ITERATOR_DEBUG_LEVEL == 1
; 294  : 		_SCL_SECURE_VALIDATE(this->_Getcont() != 0
; 295  : 			&& this->_Getcont() == _Right._Getcont());
; 296  :  #endif /* _ITERATOR_DEBUG_LEVEL */
; 297  : 
; 298  : 		return (this->_Ptr == _Right._Ptr);
; 299  : 		}
; 300  : 
; 301  : 	bool operator!=(const _Myiter& _Right) const
; 302  : 		{	// test for iterator inequality
; 303  : 		return (!(*this == _Right));
; 304  : 		}
; 305  : 	};
; 306  : 
; 307  : template<class _Mylist> inline
; 308  : 	typename _List_const_iterator<_Mylist>::_Unchecked_type
; 309  : 		_Unchecked(_List_const_iterator<_Mylist> _Iter)
; 310  : 	{	// convert to unchecked
; 311  : 	return (_Iter._Unchecked());
; 312  : 	}
; 313  : 
; 314  : template<class _Mylist> inline
; 315  : 	_List_const_iterator<_Mylist>&
; 316  : 		_Rechecked(_List_const_iterator<_Mylist>& _Iter,
; 317  : 			typename _List_const_iterator<_Mylist>
; 318  : 				::_Unchecked_type _Right)
; 319  : 	{	// convert to checked
; 320  : 	return (_Iter._Rechecked(_Right));
; 321  : 	}
; 322  : 
; 323  : 	// TEMPLATE CLASS _List_iterator
; 324  : template<class _Mylist>
; 325  : 	class _List_iterator
; 326  : 		: public _List_const_iterator<_Mylist>
; 327  : 	{	// iterator for mutable list
; 328  : public:
; 329  : 	typedef _List_iterator<_Mylist> _Myiter;
; 330  : 	typedef _List_const_iterator<_Mylist> _Mybase;
; 331  : 	typedef bidirectional_iterator_tag iterator_category;
; 332  : 
; 333  : 	typedef typename _Mylist::_Nodeptr _Nodeptr;
; 334  : 	typedef typename _Mylist::value_type value_type;
; 335  : 	typedef typename _Mylist::difference_type difference_type;
; 336  : 	typedef typename _Mylist::pointer pointer;
; 337  : 	typedef typename _Mylist::reference reference;
; 338  : 
; 339  : 	_List_iterator()
; 340  : 		{	// construct with null node
; 341  : 		}
; 342  : 
; 343  : 	_List_iterator(_Nodeptr _Pnode, const _Mylist *_Plist)
; 344  : 		: _Mybase(_Pnode, _Plist)
; 345  : 		{	// construct with node pointer _Pnode
; 346  : 		}
; 347  : 
; 348  : 	typedef _List_unchecked_iterator<_Mylist> _Unchecked_type;
; 349  : 
; 350  : 	_Myiter& _Rechecked(_Unchecked_type _Right)
; 351  : 		{	// reset from unchecked iterator
; 352  : 		this->_Ptr = _Right._Ptr;
; 353  : 		return (*this);
; 354  : 		}
; 355  : 
; 356  : 	_Unchecked_type _Unchecked() const
; 357  : 		{	// make an unchecked iterator
; 358  : 		return (_Unchecked_type(this->_Ptr, (_Mylist *)this->_Getcont()));
; 359  : 		}
; 360  : 
; 361  : 	reference operator*() const
; 362  : 		{	// return designated value
; 363  : 		return ((reference)**(_Mybase *)this);
; 364  : 		}
; 365  : 
; 366  : 	pointer operator->() const
; 367  : 		{	// return pointer to class object
; 368  : 		return (_STD pointer_traits<pointer>::pointer_to(**this));
; 369  : 		}
; 370  : 
; 371  : 	_Myiter& operator++()
; 372  : 		{	// preincrement
; 373  : 		++(*(_Mybase *)this);
; 374  : 		return (*this);
; 375  : 		}
; 376  : 
; 377  : 	_Myiter operator++(int)
; 378  : 		{	// postincrement
; 379  : 		_Myiter _Tmp = *this;
; 380  : 		++*this;
; 381  : 		return (_Tmp);
; 382  : 		}
; 383  : 
; 384  : 	_Myiter& operator--()
; 385  : 		{	// predecrement
; 386  : 		--(*(_Mybase *)this);
; 387  : 		return (*this);
; 388  : 		}
; 389  : 
; 390  : 	_Myiter operator--(int)
; 391  : 		{	// postdecrement
; 392  : 		_Myiter _Tmp = *this;
; 393  : 		--*this;
; 394  : 		return (_Tmp);
; 395  : 		}
; 396  : 	};
; 397  : 
; 398  : template<class _Mylist> inline
; 399  : 	typename _List_iterator<_Mylist>::_Unchecked_type
; 400  : 		_Unchecked(_List_iterator<_Mylist> _Iter)
; 401  : 	{	// convert to unchecked
; 402  : 	return (_Iter._Unchecked());
; 403  : 	}
; 404  : 
; 405  : template<class _Mylist> inline
; 406  : 	_List_iterator<_Mylist>&
; 407  : 		_Rechecked(_List_iterator<_Mylist>& _Iter,
; 408  : 			typename _List_iterator<_Mylist>
; 409  : 				::_Unchecked_type _Right)
; 410  : 	{	// convert to checked
; 411  : 	return (_Iter._Rechecked(_Right));
; 412  : 	}
; 413  : 
; 414  : 		// list TYPE WRAPPERS
; 415  : template<class _Value_type,
; 416  : 	class _Size_type,
; 417  : 	class _Difference_type,
; 418  : 	class _Pointer,
; 419  : 	class _Const_pointer,
; 420  : 	class _Reference,
; 421  : 	class _Const_reference,
; 422  : 	class _Nodeptr_type>
; 423  : 	struct _List_iter_types
; 424  : 	{	// wraps types needed by iterators
; 425  : 	typedef _Value_type value_type;
; 426  : 	typedef _Size_type size_type;
; 427  : 	typedef _Difference_type difference_type;
; 428  : 	typedef _Pointer pointer;
; 429  : 	typedef _Const_pointer const_pointer;
; 430  : 	typedef _Reference reference;
; 431  : 	typedef _Const_reference const_reference;
; 432  : 	typedef _Nodeptr_type _Nodeptr;
; 433  : 	};
; 434  : 
; 435  : template<class _Value_type,
; 436  : 	class _Voidptr>
; 437  : 	struct _List_node
; 438  : 		{	// list node
; 439  : 		_Voidptr _Next;	// successor node, or first element if head
; 440  : 		_Voidptr _Prev;	// predecessor node, or last element if head
; 441  : 		_Value_type _Myval;	// the stored value, unused if head
; 442  : 
; 443  : 	private:
; 444  : 		_List_node& operator=(const _List_node&);
; 445  : 		};
; 446  : 
; 447  : template<class _Value_type>
; 448  : 	struct _List_node<_Value_type, void *>
; 449  : 		{	// list node
; 450  : 		typedef _List_node<_Value_type, void *> *_Nodeptr;
; 451  : 		_Nodeptr _Next;	// successor node, or first element if head
; 452  : 		_Nodeptr _Prev;	// predecessor node, or last element if head
; 453  : 		_Value_type _Myval;	// the stored value, unused if head
; 454  : 
; 455  : 	private:
; 456  : 		_List_node& operator=(const _List_node&);
; 457  : 		};
; 458  : 
; 459  : template<class _Ty>
; 460  : 	struct _List_simple_types
; 461  : 		: public _Simple_types<_Ty>
; 462  : 	{	// wraps types needed by iterators
; 463  : 	typedef _List_node<_Ty, void *> _Node;
; 464  : 	typedef _Node *_Nodeptr;
; 465  : 	};
; 466  : 
; 467  : template<class _Ty,
; 468  : 	class _Alloc0>
; 469  : 	struct _List_base_types
; 470  : 	{	// types needed for a container base
; 471  : 	typedef _Alloc0 _Alloc;
; 472  : 	typedef _List_base_types<_Ty, _Alloc> _Myt;
; 473  : 
; 474  : 	typedef _Wrap_alloc<_Alloc> _Alty0;
; 475  : 	typedef typename _Alty0::template rebind<_Ty>::other _Alty;
; 476  : 
; 477  : 
; 478  : 	typedef typename _Get_voidptr<_Alty, typename _Alty::pointer>::type
; 479  : 		_Voidptr;
; 480  : 	typedef _List_node<typename _Alty::value_type,
; 481  : 		_Voidptr> _Node;
; 482  : 
; 483  : 	typedef typename _Alty::template rebind<_Node>::other _Alnod_type;
; 484  : 	typedef typename _Alnod_type::pointer _Nodeptr;
; 485  : 	typedef _Nodeptr& _Nodepref;
; 486  : 
; 487  : 	typedef typename _If<_Is_simple_alloc<_Alty>::value,
; 488  : 		_List_simple_types<typename _Alty::value_type>,
; 489  : 		_List_iter_types<typename _Alty::value_type,
; 490  : 			typename _Alty::size_type,
; 491  : 			typename _Alty::difference_type,
; 492  : 			typename _Alty::pointer,
; 493  : 			typename _Alty::const_pointer,
; 494  : 			typename _Alty::reference,
; 495  : 			typename _Alty::const_reference,
; 496  : 			_Nodeptr> >::type
; 497  : 		_Val_types;
; 498  : 	};
; 499  : 
; 500  : 		// TEMPLATE CLASS _List_val
; 501  : template<class _Val_types>
; 502  : 	class _List_val
; 503  : 		: public _Container_base
; 504  : 	{	// base class for list to hold data
; 505  : public:
; 506  : 	typedef _List_val<_Val_types> _Myt;
; 507  : 
; 508  : 	typedef typename _Val_types::_Nodeptr _Nodeptr;
; 509  : 	typedef _Nodeptr& _Nodepref;
; 510  : 
; 511  : 	typedef typename _Val_types::value_type value_type;
; 512  : 	typedef typename _Val_types::size_type size_type;
; 513  : 	typedef typename _Val_types::difference_type difference_type;
; 514  : 	typedef typename _Val_types::pointer pointer;
; 515  : 	typedef typename _Val_types::const_pointer const_pointer;
; 516  : 	typedef typename _Val_types::reference reference;
; 517  : 	typedef typename _Val_types::const_reference const_reference;
; 518  : 
; 519  : 	typedef _List_const_iterator<_Myt> const_iterator;
; 520  : 	typedef _List_iterator<_Myt> iterator;
; 521  : 
; 522  : 	typedef _List_unchecked_const_iterator<_Myt> _Unchecked_const_iterator;
; 523  : 	typedef _List_unchecked_iterator<_Myt> _Unchecked_iterator;
; 524  : 
; 525  : 	_List_val()
; 526  : 		{	// initialize data
; 527  : 		this->_Myhead = 0;
; 528  : 		this->_Mysize = 0;
; 529  : 		}
; 530  : 
; 531  : 	static _Nodepref _Nextnode(_Nodeptr _Pnode)
; 532  : 		{	// return reference to successor pointer in node
; 533  : 		return ((_Nodepref)_Pnode->_Next);

	mov	rax, QWORD PTR [rcx]

; 44   : 		{	// construct with node pointer _Pnode

	mov	rcx, QWORD PTR [rax]

; 1116 : 		return (iterator(this->_Nextnode(this->_Myhead), this));

	mov	rax, rdx

; 44   : 		{	// construct with node pointer _Pnode

	mov	QWORD PTR [rdx], rcx

; 1117 : 		}

	ret	0
?begin@?$list@U?$_vector3@M@@V?$xalloc@U?$_vector3@M@@@@@std@@QEAA?AV?$_List_iterator@V?$_List_val@U?$_List_simple_types@U?$_vector3@M@@@std@@@std@@@2@XZ ENDP ; std::list<_vector3<float>,xalloc<_vector3<float> > >::begin
_TEXT	ENDS
; Function compile flags: /Ogtpy
; File c:\program files (x86)\microsoft visual studio 12.0\vc\include\list
;	COMDAT ?end@?$list@U?$_vector3@M@@V?$xalloc@U?$_vector3@M@@@@@std@@QEAA?AV?$_List_iterator@V?$_List_val@U?$_List_simple_types@U?$_vector3@M@@@std@@@std@@@2@XZ
_TEXT	SEGMENT
this$ = 8
__$ReturnUdt$ = 16
?end@?$list@U?$_vector3@M@@V?$xalloc@U?$_vector3@M@@@@@std@@QEAA?AV?$_List_iterator@V?$_List_val@U?$_List_simple_types@U?$_vector3@M@@@std@@@std@@@2@XZ PROC ; std::list<_vector3<float>,xalloc<_vector3<float> > >::end, COMDAT

; 44   : 		{	// construct with node pointer _Pnode

	mov	rax, QWORD PTR [rcx]
	mov	QWORD PTR [rdx], rax

; 1126 : 		return (iterator(this->_Myhead, this));

	mov	rax, rdx

; 1127 : 		}

	ret	0
?end@?$list@U?$_vector3@M@@V?$xalloc@U?$_vector3@M@@@@@std@@QEAA?AV?$_List_iterator@V?$_List_val@U?$_List_simple_types@U?$_vector3@M@@@std@@@std@@@2@XZ ENDP ; std::list<_vector3<float>,xalloc<_vector3<float> > >::end
_TEXT	ENDS
; Function compile flags: /Ogtpy
; File c:\program files (x86)\microsoft visual studio 12.0\vc\include\list
;	COMDAT ?push_back@?$list@U?$_vector3@M@@V?$xalloc@U?$_vector3@M@@@@@std@@QEAAXAEBU?$_vector3@M@@@Z
_TEXT	SEGMENT
this$ = 48
_Val$ = 56
?push_back@?$list@U?$_vector3@M@@V?$xalloc@U?$_vector3@M@@@@@std@@QEAAXAEBU?$_vector3@M@@@Z PROC ; std::list<_vector3<float>,xalloc<_vector3<float> > >::push_back, COMDAT

; 1285 : 		{	// insert element at end

$LN44:
	mov	QWORD PTR [rsp+8], rbx
	push	rdi
	sub	rsp, 32					; 00000020H

; 96   : 		return (_Ptr);

	mov	rdi, QWORD PTR [rcx]

; 534  : 		}
; 535  : 
; 536  : 	static _Nodepref _Prevnode(_Nodeptr _Pnode)
; 537  : 		{	// return reference to predecessor pointer in node
; 538  : 		return ((_Nodepref)_Pnode->_Prev);
; 539  : 		}
; 540  : 
; 541  : 	static reference _Myval(_Nodeptr _Pnode)
; 542  : 		{	// return reference to value in node
; 543  : 		return ((reference)_Pnode->_Myval);
; 544  : 		}
; 545  : 
; 546  : 	_Nodeptr _Myhead;	// pointer to head node
; 547  : 	size_type _Mysize;	// number of elements
; 548  : 	};
; 549  : 
; 550  : 		// TEMPLATE CLASS _List_alloc
; 551  : template<bool _Al_has_storage,
; 552  : 	class _Alloc_types>
; 553  : 	class _List_alloc
; 554  : 		: public _List_val<typename _Alloc_types::_Val_types>
; 555  : 	{	// base class for list to hold allocator with storage
; 556  : public:
; 557  : 	typename _Alloc_types::_Alnod_type _Alnod;	// allocator object
; 558  : 
; 559  : 	typedef _List_alloc<_Al_has_storage, _Alloc_types> _Myt;
; 560  : 	typedef typename _Alloc_types::_Alloc _Alloc;
; 561  : 	typedef typename _Alloc_types::_Alnod_type _Alty;
; 562  : 	typedef typename _Alloc_types::_Node _Node;
; 563  : 	typedef typename _Alloc_types::_Nodeptr _Nodeptr;
; 564  : 
; 565  :  #if _ITERATOR_DEBUG_LEVEL == 0
; 566  : 	_List_alloc(const _Alloc& _Al = _Alloc())
; 567  : 		: _Alnod(_Al)
; 568  : 		{	// construct head node, allocator from _Al
; 569  : 		this->_Myhead = _Buyheadnode();
; 570  : 		}
; 571  : 
; 572  : 	~_List_alloc() _NOEXCEPT
; 573  : 		{	// destroy head node
; 574  : 		_Freeheadnode(this->_Myhead);
; 575  : 		}
; 576  : 
; 577  : 	void _Change_alloc(const _Alty& _Al)
; 578  : 		{	// replace old allocator
; 579  : 		this->_Alnod = _Al;
; 580  : 		}
; 581  : 
; 582  : 	void _Swap_alloc(_Myt& _Right)
; 583  : 		{	// swap allocators
; 584  : 		_Swap_adl(this->_Alnod, _Right._Alnod);
; 585  : 		}
; 586  : 
; 587  :  #else /* _ITERATOR_DEBUG_LEVEL == 0 */
; 588  : 	_List_alloc(const _Alloc& _Al = _Alloc())
; 589  : 		: _Alnod(_Al)
; 590  : 		{	// construct head node, allocator from _Al
; 591  : 		this->_Myhead = _Buyheadnode();
; 592  : 		_TRY_BEGIN
; 593  : 		_Alloc_proxy();
; 594  : 		_CATCH_ALL
; 595  : 		_Freeheadnode(this->_Myhead);
; 596  : 		_RERAISE;
; 597  : 		_CATCH_END
; 598  : 		}
; 599  : 
; 600  : 	~_List_alloc() _NOEXCEPT
; 601  : 		{	// destroy proxy
; 602  : 		_Freeheadnode(this->_Myhead);
; 603  : 		_Free_proxy();
; 604  : 		}
; 605  : 
; 606  : 	void _Change_alloc(const _Alty& _Al)
; 607  : 		{	// replace old allocator
; 608  : 		_Free_proxy();
; 609  : 		this->_Alnod = _Al;
; 610  : 		_Alloc_proxy();
; 611  : 		}
; 612  : 
; 613  : 	void _Swap_alloc(_Myt& _Right)
; 614  : 		{	// swap allocators
; 615  : 		_Swap_adl(this->_Alnod, _Right._Alnod);
; 616  : 		_Swap_adl(this->_Myproxy, _Right._Myproxy);
; 617  : 		}
; 618  : 
; 619  : 	void _Alloc_proxy()
; 620  : 		{	// construct proxy from _Alnod
; 621  : 		typename _Alty::template rebind<_Container_proxy>::other
; 622  : 			_Alproxy(this->_Alnod);
; 623  : 		this->_Myproxy = _Alproxy.allocate(1);
; 624  : 		_Alproxy.construct(this->_Myproxy, _Container_proxy());
; 625  : 		this->_Myproxy->_Mycont = this;
; 626  : 		}
; 627  : 
; 628  : 	void _Free_proxy()
; 629  : 		{	// destroy proxy
; 630  : 		typename _Alty::template rebind<_Container_proxy>::other
; 631  : 			_Alproxy(this->_Alnod);
; 632  : 		this->_Orphan_all();
; 633  : 		_Alproxy.destroy(this->_Myproxy);
; 634  : 		_Alproxy.deallocate(this->_Myproxy, 1);
; 635  : 		this->_Myproxy = 0;
; 636  : 		}
; 637  :  #endif /* _ITERATOR_DEBUG_LEVEL == 0 */
; 638  : 
; 639  : 	_Nodeptr _Buyheadnode()
; 640  : 		{	// get head node using current allocator
; 641  : 		return (_Buynode0(_Nodeptr(), _Nodeptr()));
; 642  : 		}
; 643  : 
; 644  : 	void _Freeheadnode(_Nodeptr _Pnode)
; 645  : 		{	// free head node using current allocator
; 646  : 		this->_Alnod.destroy(
; 647  : 			_STD addressof(this->_Nextnode(_Pnode)));
; 648  : 		this->_Alnod.destroy(
; 649  : 			_STD addressof(this->_Prevnode(_Pnode)));
; 650  : 		this->_Alnod.deallocate(_Pnode, 1);
; 651  : 		}
; 652  : 
; 653  : 	_Nodeptr _Buynode0(_Nodeptr _Next,
; 654  : 		_Nodeptr _Prev)
; 655  : 		{	// allocate a node and set links
; 656  : 		_Nodeptr _Pnode = this->_Alnod.allocate(1);
; 657  : 
; 658  : 		if (_Next == _Nodeptr())
; 659  : 			{	// point at self
; 660  : 			_Next = _Pnode;
; 661  : 			_Prev = _Pnode;
; 662  : 			}
; 663  : 		_TRY_BEGIN
; 664  : 		this->_Alnod.construct(
; 665  : 			_STD addressof(this->_Nextnode(_Pnode)), _Next);
; 666  : 		this->_Alnod.construct(
; 667  : 			_STD addressof(this->_Prevnode(_Pnode)), _Prev);
; 668  : 		_CATCH_ALL
; 669  : 		this->_Alnod.deallocate(_Pnode, 1);
; 670  : 		_RERAISE;
; 671  : 		_CATCH_END
; 672  : 
; 673  : 		return (_Pnode);
; 674  : 		}
; 675  : 
; 676  : 	_Alty& _Getal()
; 677  : 		{	// get reference to allocator
; 678  : 		return (this->_Alnod);
; 679  : 		}
; 680  : 
; 681  : 	const _Alty& _Getal() const
; 682  : 		{	// get reference to allocator
; 683  : 		return (this->_Alnod);
; 684  : 		}
; 685  : 	};
; 686  : 
; 687  : 		// TEMPLATE CLASS _List_alloc
; 688  : template<class _Alloc_types>
; 689  : 	class _List_alloc<false, _Alloc_types>
; 690  : 		: public _List_val<typename _Alloc_types::_Val_types>
; 691  : 	{	// base class for list to hold allocator with no storage
; 692  : public:
; 693  : 	typedef _List_alloc<false, _Alloc_types> _Myt;
; 694  : 	typedef typename _Alloc_types::_Alloc _Alloc;
; 695  : 	typedef typename _Alloc_types::_Alnod_type _Alty;
; 696  : 	typedef typename _Alloc_types::_Node _Node;
; 697  : 	typedef typename _Alloc_types::_Nodeptr _Nodeptr;
; 698  : 
; 699  :  #if _ITERATOR_DEBUG_LEVEL == 0
; 700  : 	_List_alloc(const _Alloc& = _Alloc())
; 701  : 		{	// construct head node, allocator from _Al
; 702  : 		this->_Myhead = _Buyheadnode();
; 703  : 		}
; 704  : 
; 705  : 	~_List_alloc() _NOEXCEPT
; 706  : 		{	// destroy head node
; 707  : 		_Freeheadnode(this->_Myhead);
; 708  : 		}
; 709  : 
; 710  : 	void _Change_alloc(const _Alty&)
; 711  : 		{	// replace old allocator
; 712  : 		}
; 713  : 
; 714  : 	void _Swap_alloc(_Myt&)
; 715  : 		{	// swap allocators
; 716  : 		}
; 717  : 
; 718  :  #else /* _ITERATOR_DEBUG_LEVEL == 0 */
; 719  : 	_List_alloc(const _Alloc& = _Alloc())
; 720  : 		{	// construct allocators from _Al
; 721  : 		this->_Myhead = _Buyheadnode();
; 722  : 		_TRY_BEGIN
; 723  : 		_Alloc_proxy();
; 724  : 		_CATCH_ALL
; 725  : 		_Freeheadnode(this->_Myhead);
; 726  : 		_RERAISE;
; 727  : 		_CATCH_END
; 728  : 		}
; 729  : 
; 730  : 	~_List_alloc() _NOEXCEPT
; 731  : 		{	// destroy proxy
; 732  : 		_Freeheadnode(this->_Myhead);
; 733  : 		_Free_proxy();
; 734  : 		}
; 735  : 
; 736  : 	void _Change_alloc(const _Alty&)
; 737  : 		{	// replace old allocator
; 738  : 		}
; 739  : 
; 740  : 	void _Swap_alloc(_Myt& _Right)
; 741  : 		{	// swap allocators
; 742  : 		_Swap_adl(this->_Myproxy, _Right._Myproxy);
; 743  : 		}
; 744  : 
; 745  : 	void _Alloc_proxy()
; 746  : 		{	// construct proxy from _Alnod
; 747  : 		typename _Alty::template rebind<_Container_proxy>::other
; 748  : 			_Alproxy;
; 749  : 		this->_Myproxy = _Alproxy.allocate(1);
; 750  : 		_Alproxy.construct(this->_Myproxy, _Container_proxy());
; 751  : 		this->_Myproxy->_Mycont = this;
; 752  : 		}
; 753  : 
; 754  : 	void _Free_proxy()
; 755  : 		{	// destroy proxy
; 756  : 		typename _Alty::template rebind<_Container_proxy>::other
; 757  : 			_Alproxy;
; 758  : 		this->_Orphan_all();
; 759  : 		_Alproxy.destroy(this->_Myproxy);
; 760  : 		_Alproxy.deallocate(this->_Myproxy, 1);
; 761  : 		this->_Myproxy = 0;
; 762  : 		}
; 763  :  #endif /* _ITERATOR_DEBUG_LEVEL == 0 */
; 764  : 
; 765  : 	_Nodeptr _Buyheadnode()
; 766  : 		{	// get head node using current allocator
; 767  : 		return (_Buynode0(_Nodeptr(), _Nodeptr()));
; 768  : 		}
; 769  : 
; 770  : 	void _Freeheadnode(_Nodeptr _Pnode)
; 771  : 		{	// free head node using current allocator
; 772  : 		this->_Getal().destroy(
; 773  : 			_STD addressof(this->_Nextnode(_Pnode)));
; 774  : 		this->_Getal().destroy(
; 775  : 			_STD addressof(this->_Prevnode(_Pnode)));
; 776  : 		this->_Getal().deallocate(_Pnode, 1);
; 777  : 		}
; 778  : 
; 779  : 	_Nodeptr _Buynode0(_Nodeptr _Next,
; 780  : 		_Nodeptr _Prev)
; 781  : 		{	// allocate a node and set links
; 782  : 		_Nodeptr _Pnode = this->_Getal().allocate(1);
; 783  : 
; 784  : 		if (_Next == _Nodeptr())
; 785  : 			{	// point at self
; 786  : 			_Next = _Pnode;
; 787  : 			_Prev = _Pnode;
; 788  : 			}
; 789  : 		_TRY_BEGIN
; 790  : 		this->_Getal().construct(
; 791  : 			_STD addressof(this->_Nextnode(_Pnode)), _Next);
; 792  : 		this->_Getal().construct(
; 793  : 			_STD addressof(this->_Prevnode(_Pnode)), _Prev);
; 794  : 		_CATCH_ALL
; 795  : 		this->_Getal().deallocate(_Pnode, 1);
; 796  : 		_RERAISE;
; 797  : 		_CATCH_END
; 798  : 
; 799  : 		return (_Pnode);
; 800  : 		}
; 801  : 
; 802  : 	_Alty _Getal() const
; 803  : 		{	// get reference to allocator
; 804  : 		return (_Alty());
; 805  : 		}
; 806  : 	};
; 807  : 
; 808  : 		// TEMPLATE CLASS _List_buy
; 809  : template<class _Ty,
; 810  : 	class _Alloc>
; 811  : 	class _List_buy
; 812  : 		: public _List_alloc<!is_empty<_Alloc>::value,
; 813  : 			_List_base_types<_Ty, _Alloc> >
; 814  : 	{	// base class for list to hold buynode/freenode functions
; 815  : public:
; 816  : 	typedef _List_alloc<!is_empty<_Alloc>::value,
; 817  : 		_List_base_types<_Ty, _Alloc> > _Mybase;
; 818  : 	typedef typename _Mybase::_Alty _Alty;
; 819  : 	typedef typename _Mybase::_Nodeptr _Nodeptr;
; 820  : 
; 821  : 	_List_buy(const _Alloc& _Al = _Alloc())
; 822  : 		: _Mybase(_Al)
; 823  : 		{	// construct from allocator
; 824  : 		}
; 825  : 
; 826  : 	template<class... _Valty>
; 827  : 		_Nodeptr _Buynode(_Nodeptr _Next, _Nodeptr _Prev,
; 828  : 			_Valty&&... _Val)
; 829  : 		{	// allocate a node and set links and value
; 830  : 		_Nodeptr _Pnode = this->_Buynode0(_Next, _Prev);
; 831  : 
; 832  : 		_TRY_BEGIN
; 833  : 		this->_Getal().construct(
; 834  : 			_STD addressof(this->_Myval(_Pnode)),
; 835  : 				_STD forward<_Valty>(_Val)...);
; 836  : 		_CATCH_ALL
; 837  : 		this->_Getal().deallocate(_Pnode, 1);
; 838  : 		_RERAISE;
; 839  : 		_CATCH_END
; 840  : 
; 841  : 		return (_Pnode);
; 842  : 		}
; 843  : 
; 844  : 
; 845  : 	void _Freenode(_Nodeptr _Pnode)
; 846  : 		{	// give node back
; 847  : 		this->_Getal().destroy(
; 848  : 			_STD addressof(this->_Nextnode(_Pnode)));
; 849  : 		this->_Getal().destroy(
; 850  : 			_STD addressof(this->_Prevnode(_Pnode)));
; 851  : 		this->_Getal().destroy(
; 852  : 			_STD addressof(this->_Myval(_Pnode)));
; 853  : 		this->_Getal().deallocate(_Pnode, 1);
; 854  : 		}
; 855  : 	};
; 856  : 
; 857  : 		// TEMPLATE CLASS list
; 858  : template<class _Ty,
; 859  : 	class _Alloc = allocator<_Ty> >
; 860  : 	class list
; 861  : 		: public _List_buy<_Ty, _Alloc>
; 862  : 	{	// bidirectional linked list
; 863  : public:
; 864  : 	typedef list<_Ty, _Alloc> _Myt;
; 865  : 	typedef _List_buy<_Ty, _Alloc> _Mybase;
; 866  : 	typedef typename _Mybase::_Node _Node;
; 867  : 	typedef typename _Mybase::_Nodeptr _Nodeptr;
; 868  : 	typedef typename _Mybase::_Alty _Alty;
; 869  : 
; 870  : 	typedef _Alloc allocator_type;
; 871  : 	typedef typename _Mybase::size_type size_type;
; 872  : 	typedef typename _Mybase::difference_type difference_type;
; 873  : 	typedef typename _Mybase::pointer pointer;
; 874  : 	typedef typename _Mybase::const_pointer const_pointer;
; 875  : 	typedef typename _Mybase::reference reference;
; 876  : 	typedef typename _Mybase::const_reference const_reference;
; 877  : 	typedef typename _Mybase::value_type value_type;
; 878  : 
; 879  : 	typedef typename _Mybase::const_iterator const_iterator;
; 880  : 	typedef typename _Mybase::iterator iterator;
; 881  : 	typedef typename _Mybase::_Unchecked_const_iterator
; 882  : 		_Unchecked_const_iterator;
; 883  : 	typedef typename _Mybase::_Unchecked_iterator
; 884  : 		_Unchecked_iterator;
; 885  : 
; 886  : 	typedef _STD reverse_iterator<iterator> reverse_iterator;
; 887  : 	typedef _STD reverse_iterator<const_iterator> const_reverse_iterator;
; 888  : 
; 889  : 	list()
; 890  : 		: _Mybase()
; 891  : 		{	// construct empty list
; 892  : 		}
; 893  : 
; 894  : 	explicit list(const _Alloc& _Al)
; 895  : 		: _Mybase(_Al)
; 896  : 		{	// construct empty list, allocator
; 897  : 		}
; 898  : 
; 899  : 	explicit list(size_type _Count)
; 900  : 		: _Mybase()
; 901  : 		{	// construct list from _Count * _Ty()
; 902  : 		resize(_Count);
; 903  : 		}
; 904  : 
; 905  : 	list(size_type _Count, const _Ty& _Val)
; 906  : 		: _Mybase()
; 907  : 		{	// construct list from _Count * _Val
; 908  : 		_Construct_n(_Count, _Val);
; 909  : 		}
; 910  : 
; 911  : 	list(size_type _Count, const _Ty& _Val, const _Alloc& _Al)
; 912  : 		: _Mybase(_Al)
; 913  : 		{	// construct list from _Count * _Val, allocator
; 914  : 		_Construct_n(_Count, _Val);
; 915  : 		}
; 916  : 
; 917  : 	list(const _Myt& _Right)
; 918  : 
; 919  : 		: _Mybase(_Right._Getal().select_on_container_copy_construction())
; 920  : 
; 921  : 
; 922  : 		{	// construct list by copying _Right
; 923  : 		_TRY_BEGIN
; 924  : 		insert(begin(), _Right.begin(), _Right.end());
; 925  : 		_CATCH_ALL
; 926  : 		_Tidy();
; 927  : 		_RERAISE;
; 928  : 		_CATCH_END
; 929  : 		}
; 930  : 
; 931  : 	list(const _Myt& _Right, const _Alloc& _Al)
; 932  : 		: _Mybase(_Al)
; 933  : 		{	// construct list by copying _Right, allocator
; 934  : 		_TRY_BEGIN
; 935  : 		insert(begin(), _Right.begin(), _Right.end());
; 936  : 		_CATCH_ALL
; 937  : 		_Tidy();
; 938  : 		_RERAISE;
; 939  : 		_CATCH_END
; 940  : 		}
; 941  : 
; 942  : 	template<class _Iter,
; 943  : 		class = typename enable_if<_Is_iterator<_Iter>::value,
; 944  : 			void>::type>
; 945  : 		list(_Iter _First, _Iter _Last)
; 946  : 		: _Mybase()
; 947  : 		{	// construct list from [_First, _Last)
; 948  : 		_Construct(_First, _Last);
; 949  : 		}
; 950  : 
; 951  : 	template<class _Iter,
; 952  : 		class = typename enable_if<_Is_iterator<_Iter>::value,
; 953  : 			void>::type>
; 954  : 		list(_Iter _First, _Iter _Last, const _Alloc& _Al)
; 955  : 		: _Mybase(_Al)
; 956  : 		{	// construct list, allocator from [_First, _Last)
; 957  : 		_Construct(_First, _Last);
; 958  : 		}
; 959  : 
; 960  : 	template<class _Iter>
; 961  : 		void _Construct(_Iter _First, _Iter _Last)
; 962  : 		{	// construct list from [_First, _Last), input iterators
; 963  : 		_TRY_BEGIN
; 964  : 		insert(begin(), _First, _Last);
; 965  : 		_CATCH_ALL
; 966  : 		_Tidy();
; 967  : 		_RERAISE;
; 968  : 		_CATCH_END
; 969  : 		}
; 970  : 
; 971  : 	void _Construct_n(size_type _Count,
; 972  : 		const _Ty& _Val)
; 973  : 		{	// construct from _Count * _Val
; 974  : 		_TRY_BEGIN
; 975  : 		_Insert_n(_Unchecked_begin(), _Count, _Val);
; 976  : 		_CATCH_ALL
; 977  : 		_Tidy();
; 978  : 		_RERAISE;
; 979  : 		_CATCH_END
; 980  : 		}
; 981  : 
; 982  : 	list(_Myt&& _Right)
; 983  : 		: _Mybase(_Right._Getal())
; 984  : 		{	// construct list by moving _Right
; 985  : 		_Assign_rv(_STD forward<_Myt>(_Right));
; 986  : 		}
; 987  : 
; 988  : 	list(_Myt&& _Right, const _Alloc& _Al)
; 989  : 		: _Mybase(_Al)
; 990  : 		{	// construct list by moving _Right, allocator
; 991  : 		_Assign_rv(_STD forward<_Myt>(_Right));
; 992  : 		}
; 993  : 
; 994  : 	_Myt& operator=(_Myt&& _Right)
; 995  : 		{	// assign by moving _Right
; 996  : 		if (this != &_Right)
; 997  : 			{	// different, assign it
; 998  : 			clear();
; 999  : 
; 1000 : 			if (_Alty::propagate_on_container_move_assignment::value
; 1001 : 				&& this->_Getal() != _Right._Getal())
; 1002 : 				this->_Change_alloc(_Right._Getal());
; 1003 : 
; 1004 : 			_Assign_rv(_STD forward<_Myt>(_Right));
; 1005 : 			}
; 1006 : 		return (*this);
; 1007 : 		}
; 1008 : 
; 1009 : 	void _Assign_rv(_Myt&& _Right)
; 1010 : 		{	// swap with empty *this, same allocator
; 1011 : 		this->_Swap_all(_Right);
; 1012 : 		_Swap_adl(this->_Myhead, _Right._Myhead);
; 1013 : 		_STD swap(this->_Mysize, _Right._Mysize);
; 1014 : 		}
; 1015 : 
; 1016 : 	void push_front(_Ty&& _Val)
; 1017 : 		{	// insert element at beginning
; 1018 : 		_Insert(_Unchecked_begin(), _STD forward<_Ty>(_Val));
; 1019 : 		}
; 1020 : 
; 1021 : 	void push_back(_Ty&& _Val)
; 1022 : 		{	// insert element at end
; 1023 : 		_Insert(_Unchecked_end(), _STD forward<_Ty>(_Val));
; 1024 : 		}
; 1025 : 
; 1026 : 	iterator insert(const_iterator _Where, _Ty&& _Val)
; 1027 : 		{	// insert _Val at _Where
; 1028 : 		return (emplace(_Where, _STD forward<_Ty>(_Val)));
; 1029 : 		}
; 1030 : 
; 1031 : 	template<class... _Valty>
; 1032 : 		void emplace_front(_Valty&&... _Val)
; 1033 : 		{	// insert element at beginning
; 1034 : 		_Insert(_Unchecked_begin(), _STD forward<_Valty>(_Val)...);
; 1035 : 		}
; 1036 : 
; 1037 : 	template<class... _Valty>
; 1038 : 		void emplace_back(_Valty&&... _Val)
; 1039 : 		{	// insert element at end
; 1040 : 		_Insert(_Unchecked_end(), _STD forward<_Valty>(_Val)...);
; 1041 : 		}
; 1042 : 
; 1043 : 	template<class... _Valty>
; 1044 : 		iterator emplace(const_iterator _Where, _Valty&&... _Val)
; 1045 : 		{	// insert element at _Where
; 1046 :  #if _ITERATOR_DEBUG_LEVEL == 2
; 1047 : 		if (_Where._Getcont() != this)
; 1048 : 			_DEBUG_ERROR("list emplace iterator outside range");
; 1049 :  #endif /* _ITERATOR_DEBUG_LEVEL == 2 */
; 1050 : 
; 1051 : 		_Insert(_Where._Unchecked(), _STD forward<_Valty>(_Val)...);
; 1052 : 		return (_Make_iter(--_Where));
; 1053 : 		}
; 1054 : 
; 1055 : 	template<class... _Valty>
; 1056 : 		void _Insert(_Unchecked_const_iterator _Where,
; 1057 : 		_Valty&&... _Val)
; 1058 : 		{	// insert element at _Where
; 1059 : 		_Nodeptr _Pnode = _Where._Mynode();
; 1060 : 		_Nodeptr _Newnode =
; 1061 : 			this->_Buynode(_Pnode, this->_Prevnode(_Pnode),
; 1062 : 				_STD forward<_Valty>(_Val)...);

	mov	r9, rdx

; 1285 : 		{	// insert element at end

	mov	rbx, rcx

; 534  : 		}
; 535  : 
; 536  : 	static _Nodepref _Prevnode(_Nodeptr _Pnode)
; 537  : 		{	// return reference to predecessor pointer in node
; 538  : 		return ((_Nodepref)_Pnode->_Prev);
; 539  : 		}
; 540  : 
; 541  : 	static reference _Myval(_Nodeptr _Pnode)
; 542  : 		{	// return reference to value in node
; 543  : 		return ((reference)_Pnode->_Myval);
; 544  : 		}
; 545  : 
; 546  : 	_Nodeptr _Myhead;	// pointer to head node
; 547  : 	size_type _Mysize;	// number of elements
; 548  : 	};
; 549  : 
; 550  : 		// TEMPLATE CLASS _List_alloc
; 551  : template<bool _Al_has_storage,
; 552  : 	class _Alloc_types>
; 553  : 	class _List_alloc
; 554  : 		: public _List_val<typename _Alloc_types::_Val_types>
; 555  : 	{	// base class for list to hold allocator with storage
; 556  : public:
; 557  : 	typename _Alloc_types::_Alnod_type _Alnod;	// allocator object
; 558  : 
; 559  : 	typedef _List_alloc<_Al_has_storage, _Alloc_types> _Myt;
; 560  : 	typedef typename _Alloc_types::_Alloc _Alloc;
; 561  : 	typedef typename _Alloc_types::_Alnod_type _Alty;
; 562  : 	typedef typename _Alloc_types::_Node _Node;
; 563  : 	typedef typename _Alloc_types::_Nodeptr _Nodeptr;
; 564  : 
; 565  :  #if _ITERATOR_DEBUG_LEVEL == 0
; 566  : 	_List_alloc(const _Alloc& _Al = _Alloc())
; 567  : 		: _Alnod(_Al)
; 568  : 		{	// construct head node, allocator from _Al
; 569  : 		this->_Myhead = _Buyheadnode();
; 570  : 		}
; 571  : 
; 572  : 	~_List_alloc() _NOEXCEPT
; 573  : 		{	// destroy head node
; 574  : 		_Freeheadnode(this->_Myhead);
; 575  : 		}
; 576  : 
; 577  : 	void _Change_alloc(const _Alty& _Al)
; 578  : 		{	// replace old allocator
; 579  : 		this->_Alnod = _Al;
; 580  : 		}
; 581  : 
; 582  : 	void _Swap_alloc(_Myt& _Right)
; 583  : 		{	// swap allocators
; 584  : 		_Swap_adl(this->_Alnod, _Right._Alnod);
; 585  : 		}
; 586  : 
; 587  :  #else /* _ITERATOR_DEBUG_LEVEL == 0 */
; 588  : 	_List_alloc(const _Alloc& _Al = _Alloc())
; 589  : 		: _Alnod(_Al)
; 590  : 		{	// construct head node, allocator from _Al
; 591  : 		this->_Myhead = _Buyheadnode();
; 592  : 		_TRY_BEGIN
; 593  : 		_Alloc_proxy();
; 594  : 		_CATCH_ALL
; 595  : 		_Freeheadnode(this->_Myhead);
; 596  : 		_RERAISE;
; 597  : 		_CATCH_END
; 598  : 		}
; 599  : 
; 600  : 	~_List_alloc() _NOEXCEPT
; 601  : 		{	// destroy proxy
; 602  : 		_Freeheadnode(this->_Myhead);
; 603  : 		_Free_proxy();
; 604  : 		}
; 605  : 
; 606  : 	void _Change_alloc(const _Alty& _Al)
; 607  : 		{	// replace old allocator
; 608  : 		_Free_proxy();
; 609  : 		this->_Alnod = _Al;
; 610  : 		_Alloc_proxy();
; 611  : 		}
; 612  : 
; 613  : 	void _Swap_alloc(_Myt& _Right)
; 614  : 		{	// swap allocators
; 615  : 		_Swap_adl(this->_Alnod, _Right._Alnod);
; 616  : 		_Swap_adl(this->_Myproxy, _Right._Myproxy);
; 617  : 		}
; 618  : 
; 619  : 	void _Alloc_proxy()
; 620  : 		{	// construct proxy from _Alnod
; 621  : 		typename _Alty::template rebind<_Container_proxy>::other
; 622  : 			_Alproxy(this->_Alnod);
; 623  : 		this->_Myproxy = _Alproxy.allocate(1);
; 624  : 		_Alproxy.construct(this->_Myproxy, _Container_proxy());
; 625  : 		this->_Myproxy->_Mycont = this;
; 626  : 		}
; 627  : 
; 628  : 	void _Free_proxy()
; 629  : 		{	// destroy proxy
; 630  : 		typename _Alty::template rebind<_Container_proxy>::other
; 631  : 			_Alproxy(this->_Alnod);
; 632  : 		this->_Orphan_all();
; 633  : 		_Alproxy.destroy(this->_Myproxy);
; 634  : 		_Alproxy.deallocate(this->_Myproxy, 1);
; 635  : 		this->_Myproxy = 0;
; 636  : 		}
; 637  :  #endif /* _ITERATOR_DEBUG_LEVEL == 0 */
; 638  : 
; 639  : 	_Nodeptr _Buyheadnode()
; 640  : 		{	// get head node using current allocator
; 641  : 		return (_Buynode0(_Nodeptr(), _Nodeptr()));
; 642  : 		}
; 643  : 
; 644  : 	void _Freeheadnode(_Nodeptr _Pnode)
; 645  : 		{	// free head node using current allocator
; 646  : 		this->_Alnod.destroy(
; 647  : 			_STD addressof(this->_Nextnode(_Pnode)));
; 648  : 		this->_Alnod.destroy(
; 649  : 			_STD addressof(this->_Prevnode(_Pnode)));
; 650  : 		this->_Alnod.deallocate(_Pnode, 1);
; 651  : 		}
; 652  : 
; 653  : 	_Nodeptr _Buynode0(_Nodeptr _Next,
; 654  : 		_Nodeptr _Prev)
; 655  : 		{	// allocate a node and set links
; 656  : 		_Nodeptr _Pnode = this->_Alnod.allocate(1);
; 657  : 
; 658  : 		if (_Next == _Nodeptr())
; 659  : 			{	// point at self
; 660  : 			_Next = _Pnode;
; 661  : 			_Prev = _Pnode;
; 662  : 			}
; 663  : 		_TRY_BEGIN
; 664  : 		this->_Alnod.construct(
; 665  : 			_STD addressof(this->_Nextnode(_Pnode)), _Next);
; 666  : 		this->_Alnod.construct(
; 667  : 			_STD addressof(this->_Prevnode(_Pnode)), _Prev);
; 668  : 		_CATCH_ALL
; 669  : 		this->_Alnod.deallocate(_Pnode, 1);
; 670  : 		_RERAISE;
; 671  : 		_CATCH_END
; 672  : 
; 673  : 		return (_Pnode);
; 674  : 		}
; 675  : 
; 676  : 	_Alty& _Getal()
; 677  : 		{	// get reference to allocator
; 678  : 		return (this->_Alnod);
; 679  : 		}
; 680  : 
; 681  : 	const _Alty& _Getal() const
; 682  : 		{	// get reference to allocator
; 683  : 		return (this->_Alnod);
; 684  : 		}
; 685  : 	};
; 686  : 
; 687  : 		// TEMPLATE CLASS _List_alloc
; 688  : template<class _Alloc_types>
; 689  : 	class _List_alloc<false, _Alloc_types>
; 690  : 		: public _List_val<typename _Alloc_types::_Val_types>
; 691  : 	{	// base class for list to hold allocator with no storage
; 692  : public:
; 693  : 	typedef _List_alloc<false, _Alloc_types> _Myt;
; 694  : 	typedef typename _Alloc_types::_Alloc _Alloc;
; 695  : 	typedef typename _Alloc_types::_Alnod_type _Alty;
; 696  : 	typedef typename _Alloc_types::_Node _Node;
; 697  : 	typedef typename _Alloc_types::_Nodeptr _Nodeptr;
; 698  : 
; 699  :  #if _ITERATOR_DEBUG_LEVEL == 0
; 700  : 	_List_alloc(const _Alloc& = _Alloc())
; 701  : 		{	// construct head node, allocator from _Al
; 702  : 		this->_Myhead = _Buyheadnode();
; 703  : 		}
; 704  : 
; 705  : 	~_List_alloc() _NOEXCEPT
; 706  : 		{	// destroy head node
; 707  : 		_Freeheadnode(this->_Myhead);
; 708  : 		}
; 709  : 
; 710  : 	void _Change_alloc(const _Alty&)
; 711  : 		{	// replace old allocator
; 712  : 		}
; 713  : 
; 714  : 	void _Swap_alloc(_Myt&)
; 715  : 		{	// swap allocators
; 716  : 		}
; 717  : 
; 718  :  #else /* _ITERATOR_DEBUG_LEVEL == 0 */
; 719  : 	_List_alloc(const _Alloc& = _Alloc())
; 720  : 		{	// construct allocators from _Al
; 721  : 		this->_Myhead = _Buyheadnode();
; 722  : 		_TRY_BEGIN
; 723  : 		_Alloc_proxy();
; 724  : 		_CATCH_ALL
; 725  : 		_Freeheadnode(this->_Myhead);
; 726  : 		_RERAISE;
; 727  : 		_CATCH_END
; 728  : 		}
; 729  : 
; 730  : 	~_List_alloc() _NOEXCEPT
; 731  : 		{	// destroy proxy
; 732  : 		_Freeheadnode(this->_Myhead);
; 733  : 		_Free_proxy();
; 734  : 		}
; 735  : 
; 736  : 	void _Change_alloc(const _Alty&)
; 737  : 		{	// replace old allocator
; 738  : 		}
; 739  : 
; 740  : 	void _Swap_alloc(_Myt& _Right)
; 741  : 		{	// swap allocators
; 742  : 		_Swap_adl(this->_Myproxy, _Right._Myproxy);
; 743  : 		}
; 744  : 
; 745  : 	void _Alloc_proxy()
; 746  : 		{	// construct proxy from _Alnod
; 747  : 		typename _Alty::template rebind<_Container_proxy>::other
; 748  : 			_Alproxy;
; 749  : 		this->_Myproxy = _Alproxy.allocate(1);
; 750  : 		_Alproxy.construct(this->_Myproxy, _Container_proxy());
; 751  : 		this->_Myproxy->_Mycont = this;
; 752  : 		}
; 753  : 
; 754  : 	void _Free_proxy()
; 755  : 		{	// destroy proxy
; 756  : 		typename _Alty::template rebind<_Container_proxy>::other
; 757  : 			_Alproxy;
; 758  : 		this->_Orphan_all();
; 759  : 		_Alproxy.destroy(this->_Myproxy);
; 760  : 		_Alproxy.deallocate(this->_Myproxy, 1);
; 761  : 		this->_Myproxy = 0;
; 762  : 		}
; 763  :  #endif /* _ITERATOR_DEBUG_LEVEL == 0 */
; 764  : 
; 765  : 	_Nodeptr _Buyheadnode()
; 766  : 		{	// get head node using current allocator
; 767  : 		return (_Buynode0(_Nodeptr(), _Nodeptr()));
; 768  : 		}
; 769  : 
; 770  : 	void _Freeheadnode(_Nodeptr _Pnode)
; 771  : 		{	// free head node using current allocator
; 772  : 		this->_Getal().destroy(
; 773  : 			_STD addressof(this->_Nextnode(_Pnode)));
; 774  : 		this->_Getal().destroy(
; 775  : 			_STD addressof(this->_Prevnode(_Pnode)));
; 776  : 		this->_Getal().deallocate(_Pnode, 1);
; 777  : 		}
; 778  : 
; 779  : 	_Nodeptr _Buynode0(_Nodeptr _Next,
; 780  : 		_Nodeptr _Prev)
; 781  : 		{	// allocate a node and set links
; 782  : 		_Nodeptr _Pnode = this->_Getal().allocate(1);
; 783  : 
; 784  : 		if (_Next == _Nodeptr())
; 785  : 			{	// point at self
; 786  : 			_Next = _Pnode;
; 787  : 			_Prev = _Pnode;
; 788  : 			}
; 789  : 		_TRY_BEGIN
; 790  : 		this->_Getal().construct(
; 791  : 			_STD addressof(this->_Nextnode(_Pnode)), _Next);
; 792  : 		this->_Getal().construct(
; 793  : 			_STD addressof(this->_Prevnode(_Pnode)), _Prev);
; 794  : 		_CATCH_ALL
; 795  : 		this->_Getal().deallocate(_Pnode, 1);
; 796  : 		_RERAISE;
; 797  : 		_CATCH_END
; 798  : 
; 799  : 		return (_Pnode);
; 800  : 		}
; 801  : 
; 802  : 	_Alty _Getal() const
; 803  : 		{	// get reference to allocator
; 804  : 		return (_Alty());
; 805  : 		}
; 806  : 	};
; 807  : 
; 808  : 		// TEMPLATE CLASS _List_buy
; 809  : template<class _Ty,
; 810  : 	class _Alloc>
; 811  : 	class _List_buy
; 812  : 		: public _List_alloc<!is_empty<_Alloc>::value,
; 813  : 			_List_base_types<_Ty, _Alloc> >
; 814  : 	{	// base class for list to hold buynode/freenode functions
; 815  : public:
; 816  : 	typedef _List_alloc<!is_empty<_Alloc>::value,
; 817  : 		_List_base_types<_Ty, _Alloc> > _Mybase;
; 818  : 	typedef typename _Mybase::_Alty _Alty;
; 819  : 	typedef typename _Mybase::_Nodeptr _Nodeptr;
; 820  : 
; 821  : 	_List_buy(const _Alloc& _Al = _Alloc())
; 822  : 		: _Mybase(_Al)
; 823  : 		{	// construct from allocator
; 824  : 		}
; 825  : 
; 826  : 	template<class... _Valty>
; 827  : 		_Nodeptr _Buynode(_Nodeptr _Next, _Nodeptr _Prev,
; 828  : 			_Valty&&... _Val)
; 829  : 		{	// allocate a node and set links and value
; 830  : 		_Nodeptr _Pnode = this->_Buynode0(_Next, _Prev);
; 831  : 
; 832  : 		_TRY_BEGIN
; 833  : 		this->_Getal().construct(
; 834  : 			_STD addressof(this->_Myval(_Pnode)),
; 835  : 				_STD forward<_Valty>(_Val)...);
; 836  : 		_CATCH_ALL
; 837  : 		this->_Getal().deallocate(_Pnode, 1);
; 838  : 		_RERAISE;
; 839  : 		_CATCH_END
; 840  : 
; 841  : 		return (_Pnode);
; 842  : 		}
; 843  : 
; 844  : 
; 845  : 	void _Freenode(_Nodeptr _Pnode)
; 846  : 		{	// give node back
; 847  : 		this->_Getal().destroy(
; 848  : 			_STD addressof(this->_Nextnode(_Pnode)));
; 849  : 		this->_Getal().destroy(
; 850  : 			_STD addressof(this->_Prevnode(_Pnode)));
; 851  : 		this->_Getal().destroy(
; 852  : 			_STD addressof(this->_Myval(_Pnode)));
; 853  : 		this->_Getal().deallocate(_Pnode, 1);
; 854  : 		}
; 855  : 	};
; 856  : 
; 857  : 		// TEMPLATE CLASS list
; 858  : template<class _Ty,
; 859  : 	class _Alloc = allocator<_Ty> >
; 860  : 	class list
; 861  : 		: public _List_buy<_Ty, _Alloc>
; 862  : 	{	// bidirectional linked list
; 863  : public:
; 864  : 	typedef list<_Ty, _Alloc> _Myt;
; 865  : 	typedef _List_buy<_Ty, _Alloc> _Mybase;
; 866  : 	typedef typename _Mybase::_Node _Node;
; 867  : 	typedef typename _Mybase::_Nodeptr _Nodeptr;
; 868  : 	typedef typename _Mybase::_Alty _Alty;
; 869  : 
; 870  : 	typedef _Alloc allocator_type;
; 871  : 	typedef typename _Mybase::size_type size_type;
; 872  : 	typedef typename _Mybase::difference_type difference_type;
; 873  : 	typedef typename _Mybase::pointer pointer;
; 874  : 	typedef typename _Mybase::const_pointer const_pointer;
; 875  : 	typedef typename _Mybase::reference reference;
; 876  : 	typedef typename _Mybase::const_reference const_reference;
; 877  : 	typedef typename _Mybase::value_type value_type;
; 878  : 
; 879  : 	typedef typename _Mybase::const_iterator const_iterator;
; 880  : 	typedef typename _Mybase::iterator iterator;
; 881  : 	typedef typename _Mybase::_Unchecked_const_iterator
; 882  : 		_Unchecked_const_iterator;
; 883  : 	typedef typename _Mybase::_Unchecked_iterator
; 884  : 		_Unchecked_iterator;
; 885  : 
; 886  : 	typedef _STD reverse_iterator<iterator> reverse_iterator;
; 887  : 	typedef _STD reverse_iterator<const_iterator> const_reverse_iterator;
; 888  : 
; 889  : 	list()
; 890  : 		: _Mybase()
; 891  : 		{	// construct empty list
; 892  : 		}
; 893  : 
; 894  : 	explicit list(const _Alloc& _Al)
; 895  : 		: _Mybase(_Al)
; 896  : 		{	// construct empty list, allocator
; 897  : 		}
; 898  : 
; 899  : 	explicit list(size_type _Count)
; 900  : 		: _Mybase()
; 901  : 		{	// construct list from _Count * _Ty()
; 902  : 		resize(_Count);
; 903  : 		}
; 904  : 
; 905  : 	list(size_type _Count, const _Ty& _Val)
; 906  : 		: _Mybase()
; 907  : 		{	// construct list from _Count * _Val
; 908  : 		_Construct_n(_Count, _Val);
; 909  : 		}
; 910  : 
; 911  : 	list(size_type _Count, const _Ty& _Val, const _Alloc& _Al)
; 912  : 		: _Mybase(_Al)
; 913  : 		{	// construct list from _Count * _Val, allocator
; 914  : 		_Construct_n(_Count, _Val);
; 915  : 		}
; 916  : 
; 917  : 	list(const _Myt& _Right)
; 918  : 
; 919  : 		: _Mybase(_Right._Getal().select_on_container_copy_construction())
; 920  : 
; 921  : 
; 922  : 		{	// construct list by copying _Right
; 923  : 		_TRY_BEGIN
; 924  : 		insert(begin(), _Right.begin(), _Right.end());
; 925  : 		_CATCH_ALL
; 926  : 		_Tidy();
; 927  : 		_RERAISE;
; 928  : 		_CATCH_END
; 929  : 		}
; 930  : 
; 931  : 	list(const _Myt& _Right, const _Alloc& _Al)
; 932  : 		: _Mybase(_Al)
; 933  : 		{	// construct list by copying _Right, allocator
; 934  : 		_TRY_BEGIN
; 935  : 		insert(begin(), _Right.begin(), _Right.end());
; 936  : 		_CATCH_ALL
; 937  : 		_Tidy();
; 938  : 		_RERAISE;
; 939  : 		_CATCH_END
; 940  : 		}
; 941  : 
; 942  : 	template<class _Iter,
; 943  : 		class = typename enable_if<_Is_iterator<_Iter>::value,
; 944  : 			void>::type>
; 945  : 		list(_Iter _First, _Iter _Last)
; 946  : 		: _Mybase()
; 947  : 		{	// construct list from [_First, _Last)
; 948  : 		_Construct(_First, _Last);
; 949  : 		}
; 950  : 
; 951  : 	template<class _Iter,
; 952  : 		class = typename enable_if<_Is_iterator<_Iter>::value,
; 953  : 			void>::type>
; 954  : 		list(_Iter _First, _Iter _Last, const _Alloc& _Al)
; 955  : 		: _Mybase(_Al)
; 956  : 		{	// construct list, allocator from [_First, _Last)
; 957  : 		_Construct(_First, _Last);
; 958  : 		}
; 959  : 
; 960  : 	template<class _Iter>
; 961  : 		void _Construct(_Iter _First, _Iter _Last)
; 962  : 		{	// construct list from [_First, _Last), input iterators
; 963  : 		_TRY_BEGIN
; 964  : 		insert(begin(), _First, _Last);
; 965  : 		_CATCH_ALL
; 966  : 		_Tidy();
; 967  : 		_RERAISE;
; 968  : 		_CATCH_END
; 969  : 		}
; 970  : 
; 971  : 	void _Construct_n(size_type _Count,
; 972  : 		const _Ty& _Val)
; 973  : 		{	// construct from _Count * _Val
; 974  : 		_TRY_BEGIN
; 975  : 		_Insert_n(_Unchecked_begin(), _Count, _Val);
; 976  : 		_CATCH_ALL
; 977  : 		_Tidy();
; 978  : 		_RERAISE;
; 979  : 		_CATCH_END
; 980  : 		}
; 981  : 
; 982  : 	list(_Myt&& _Right)
; 983  : 		: _Mybase(_Right._Getal())
; 984  : 		{	// construct list by moving _Right
; 985  : 		_Assign_rv(_STD forward<_Myt>(_Right));
; 986  : 		}
; 987  : 
; 988  : 	list(_Myt&& _Right, const _Alloc& _Al)
; 989  : 		: _Mybase(_Al)
; 990  : 		{	// construct list by moving _Right, allocator
; 991  : 		_Assign_rv(_STD forward<_Myt>(_Right));
; 992  : 		}
; 993  : 
; 994  : 	_Myt& operator=(_Myt&& _Right)
; 995  : 		{	// assign by moving _Right
; 996  : 		if (this != &_Right)
; 997  : 			{	// different, assign it
; 998  : 			clear();
; 999  : 
; 1000 : 			if (_Alty::propagate_on_container_move_assignment::value
; 1001 : 				&& this->_Getal() != _Right._Getal())
; 1002 : 				this->_Change_alloc(_Right._Getal());
; 1003 : 
; 1004 : 			_Assign_rv(_STD forward<_Myt>(_Right));
; 1005 : 			}
; 1006 : 		return (*this);
; 1007 : 		}
; 1008 : 
; 1009 : 	void _Assign_rv(_Myt&& _Right)
; 1010 : 		{	// swap with empty *this, same allocator
; 1011 : 		this->_Swap_all(_Right);
; 1012 : 		_Swap_adl(this->_Myhead, _Right._Myhead);
; 1013 : 		_STD swap(this->_Mysize, _Right._Mysize);
; 1014 : 		}
; 1015 : 
; 1016 : 	void push_front(_Ty&& _Val)
; 1017 : 		{	// insert element at beginning
; 1018 : 		_Insert(_Unchecked_begin(), _STD forward<_Ty>(_Val));
; 1019 : 		}
; 1020 : 
; 1021 : 	void push_back(_Ty&& _Val)
; 1022 : 		{	// insert element at end
; 1023 : 		_Insert(_Unchecked_end(), _STD forward<_Ty>(_Val));
; 1024 : 		}
; 1025 : 
; 1026 : 	iterator insert(const_iterator _Where, _Ty&& _Val)
; 1027 : 		{	// insert _Val at _Where
; 1028 : 		return (emplace(_Where, _STD forward<_Ty>(_Val)));
; 1029 : 		}
; 1030 : 
; 1031 : 	template<class... _Valty>
; 1032 : 		void emplace_front(_Valty&&... _Val)
; 1033 : 		{	// insert element at beginning
; 1034 : 		_Insert(_Unchecked_begin(), _STD forward<_Valty>(_Val)...);
; 1035 : 		}
; 1036 : 
; 1037 : 	template<class... _Valty>
; 1038 : 		void emplace_back(_Valty&&... _Val)
; 1039 : 		{	// insert element at end
; 1040 : 		_Insert(_Unchecked_end(), _STD forward<_Valty>(_Val)...);
; 1041 : 		}
; 1042 : 
; 1043 : 	template<class... _Valty>
; 1044 : 		iterator emplace(const_iterator _Where, _Valty&&... _Val)
; 1045 : 		{	// insert element at _Where
; 1046 :  #if _ITERATOR_DEBUG_LEVEL == 2
; 1047 : 		if (_Where._Getcont() != this)
; 1048 : 			_DEBUG_ERROR("list emplace iterator outside range");
; 1049 :  #endif /* _ITERATOR_DEBUG_LEVEL == 2 */
; 1050 : 
; 1051 : 		_Insert(_Where._Unchecked(), _STD forward<_Valty>(_Val)...);
; 1052 : 		return (_Make_iter(--_Where));
; 1053 : 		}
; 1054 : 
; 1055 : 	template<class... _Valty>
; 1056 : 		void _Insert(_Unchecked_const_iterator _Where,
; 1057 : 		_Valty&&... _Val)
; 1058 : 		{	// insert element at _Where
; 1059 : 		_Nodeptr _Pnode = _Where._Mynode();
; 1060 : 		_Nodeptr _Newnode =
; 1061 : 			this->_Buynode(_Pnode, this->_Prevnode(_Pnode),
; 1062 : 				_STD forward<_Valty>(_Val)...);

	mov	r8, QWORD PTR [rdi+8]
	mov	rdx, rdi
	call	??$_Buynode@AEBU?$_vector3@M@@@?$_List_buy@U?$_vector3@M@@V?$xalloc@U?$_vector3@M@@@@@std@@QEAAPEAU?$_List_node@U?$_vector3@M@@PEAX@1@PEAU21@0AEBU?$_vector3@M@@@Z ; std::_List_buy<_vector3<float>,xalloc<_vector3<float> > >::_Buynode<_vector3<float> const & __ptr64>

; 1288 : 
; 1289 : 	void pop_back()
; 1290 : 		{	// erase element at end
; 1291 : 		erase(--end());
; 1292 : 		}
; 1293 : 
; 1294 : 	template<class _Iter>
; 1295 : 		typename enable_if<_Is_iterator<_Iter>::value,
; 1296 : 			void>::type
; 1297 : 		assign(_Iter _First, _Iter _Last)
; 1298 : 		{	// assign [_First, _Last), input iterators
; 1299 : 		iterator _Old = begin();
; 1300 : 		_TRY_BEGIN
; 1301 : 		for (; _First != _Last && _Old != end(); ++_First, ++_Old)
; 1302 : 			_Reusenode(_Old, *_First);
; 1303 : 		for (; _First != _Last; ++_First)
; 1304 : 			_Insert(_Unchecked_end(), *_First);
; 1305 : 		_CATCH_ALL
; 1306 : 		clear();
; 1307 : 		_RERAISE;
; 1308 : 		_CATCH_END
; 1309 : 		erase(_Old, end());
; 1310 : 		}
; 1311 : 
; 1312 : 	template<class _TArg>
; 1313 : 		void _Reusenode(iterator _Where, _TArg&& _Arg)
; 1314 : 		{	// destroy the element at _Where and reconstruct from _Arg
; 1315 : 		_TRY_BEGIN
; 1316 : 		this->_Getal().destroy(
; 1317 : 			_STD addressof(this->_Myval(_Where._Ptr)));
; 1318 : 		this->_Getal().construct(
; 1319 : 			_STD addressof(this->_Myval(_Where._Ptr)),
; 1320 : 			_STD forward<_TArg>(_Arg));
; 1321 : 		_CATCH_ALL
; 1322 : 		_Unlinknode(_Where);
; 1323 : 		this->_Getal().destroy(
; 1324 : 			_STD addressof(this->_Nextnode(_Where._Ptr)));
; 1325 : 		this->_Getal().destroy(
; 1326 : 			_STD addressof(this->_Prevnode(_Where._Ptr)));
; 1327 : 		this->_Getal().deallocate(_Where._Ptr, 1);
; 1328 : 		_RERAISE;
; 1329 : 		_CATCH_END
; 1330 : 		}
; 1331 : 
; 1332 : 	void assign(size_type _Count, const _Ty& _Val)
; 1333 : 		{	// assign _Count * _Val
; 1334 : 		clear();
; 1335 : 		_Insert_n(_Unchecked_begin(), _Count, _Val);
; 1336 : 		}
; 1337 : 
; 1338 : 	iterator insert(const_iterator _Where, const _Ty& _Val)
; 1339 : 		{	// insert _Val at _Where
; 1340 :  #if _ITERATOR_DEBUG_LEVEL == 2
; 1341 : 		if (_Where._Getcont() != this)
; 1342 : 			_DEBUG_ERROR("list insert iterator outside range");
; 1343 :  #endif /* _ITERATOR_DEBUG_LEVEL == 2 */
; 1344 : 
; 1345 : 		_Insert(_Where._Unchecked(), _Val);
; 1346 : 		return (_Make_iter(--_Where));
; 1347 : 		}
; 1348 : 
; 1349 : 	iterator insert(const_iterator _Where, size_type _Count, const _Ty& _Val)
; 1350 : 		{	// insert _Count * _Val at _Where
; 1351 :  #if _ITERATOR_DEBUG_LEVEL == 2
; 1352 : 		if (_Where._Getcont() != this)
; 1353 : 			_DEBUG_ERROR("list insert iterator outside range");
; 1354 :  #endif /* _ITERATOR_DEBUG_LEVEL == 2 */
; 1355 : 
; 1356 : 		iterator _Prev = _Make_iter(_Where);
; 1357 : 		if (_Prev == begin())
; 1358 : 			{	// insert sequence at beginning
; 1359 : 			_Insert_n(_Where._Unchecked(), _Count, _Val);
; 1360 : 			return (begin());
; 1361 : 			}
; 1362 : 		else
; 1363 : 			{	// insert sequence not at beginning
; 1364 : 			--_Prev;
; 1365 : 			_Insert_n(_Where._Unchecked(), _Count, _Val);
; 1366 : 			return (++_Prev);
; 1367 : 			}
; 1368 : 		}
; 1369 : 
; 1370 : 	template<class _Iter>
; 1371 : 		typename enable_if<_Is_iterator<_Iter>::value,
; 1372 : 			iterator>::type
; 1373 : 		insert(const_iterator _Where, _Iter _First, _Iter _Last)
; 1374 : 		{	// insert [_First, _Last) at _Where
; 1375 :  #if _ITERATOR_DEBUG_LEVEL == 2
; 1376 : 		if (_Where._Getcont() != this)
; 1377 : 			_DEBUG_ERROR("list insert iterator outside range");
; 1378 :  #endif /* _ITERATOR_DEBUG_LEVEL == 2 */
; 1379 : 
; 1380 : 		iterator _Prev = _Make_iter(_Where);
; 1381 : 		if (_Prev == begin())
; 1382 : 			{	// insert sequence at beginning
; 1383 : 			_Insert_range(_Where._Unchecked(), _First, _Last,
; 1384 : 				_Iter_cat(_First));
; 1385 : 			return (begin());
; 1386 : 			}
; 1387 : 		else
; 1388 : 			{	// insert sequence not at beginning
; 1389 : 			--_Prev;
; 1390 : 			_Insert_range(_Where._Unchecked(), _First, _Last,
; 1391 : 				_Iter_cat(_First));
; 1392 : 			return (++_Prev);
; 1393 : 			}
; 1394 : 		}
; 1395 : 
; 1396 : 	template<class _Iter>
; 1397 : 		void _Insert_range(_Unchecked_const_iterator _Where,
; 1398 : 			_Iter _First, _Iter _Last, input_iterator_tag)
; 1399 : 		{	// insert [_First, _Last) at _Where, input iterators
; 1400 : 		size_type _Num = 0;
; 1401 : 
; 1402 : 		_TRY_BEGIN
; 1403 : 		for (; _First != _Last; ++_First, ++_Num)
; 1404 : 			_Insert(_Where, *_First);
; 1405 : 		_CATCH_ALL
; 1406 : 		for (; 0 < _Num; --_Num)
; 1407 : 			{	// undo inserts
; 1408 : 			_Unchecked_const_iterator _Before = _Where;
; 1409 : 			_Unchecked_erase(--_Before);
; 1410 : 			}
; 1411 : 		_RERAISE;
; 1412 : 		_CATCH_END
; 1413 : 		}
; 1414 : 
; 1415 : 	template<class _Iter>
; 1416 : 		void _Insert_range(_Unchecked_const_iterator _Where,
; 1417 : 			_Iter _First, _Iter _Last, forward_iterator_tag)
; 1418 : 		{	// insert [_First, _Last) at _Where, forward iterators
; 1419 : 		_DEBUG_RANGE(_First, _Last);
; 1420 : 		_Iter _Next = _First;
; 1421 : 
; 1422 : 		_TRY_BEGIN
; 1423 : 		for (; _First != _Last; ++_First)
; 1424 : 			_Insert(_Where, *_First);
; 1425 : 		_CATCH_ALL
; 1426 : 		for (; _Next != _First; ++_Next)
; 1427 : 			{	// undo inserts
; 1428 : 			_Unchecked_const_iterator _Before = _Where;
; 1429 : 			_Unchecked_erase(--_Before);
; 1430 : 			}
; 1431 : 		_RERAISE;
; 1432 : 		_CATCH_END
; 1433 : 		}
; 1434 : 
; 1435 : 	_Nodeptr _Unlinknode(const_iterator _Where)
; 1436 : 		{	// unlink node at _Where from the list
; 1437 :  #if _ITERATOR_DEBUG_LEVEL == 2
; 1438 : 		if (_Where._Getcont() != this || _Where._Ptr == this->_Myhead)
; 1439 : 			_DEBUG_ERROR("list erase iterator outside range");
; 1440 : 		_Nodeptr _Pnode = (_Where)._Mynode();
; 1441 : 		_Orphan_ptr(*this, _Pnode);
; 1442 : 
; 1443 :  #else /* _ITERATOR_DEBUG_LEVEL == 2 */
; 1444 : 		_Nodeptr _Pnode = (_Where)._Mynode();
; 1445 :  #endif /* _ITERATOR_DEBUG_LEVEL == 2 */
; 1446 : 
; 1447 : 		this->_Nextnode(this->_Prevnode(_Pnode)) =
; 1448 : 			this->_Nextnode(_Pnode);
; 1449 : 		this->_Prevnode(this->_Nextnode(_Pnode)) =
; 1450 : 			this->_Prevnode(_Pnode);
; 1451 : 
; 1452 : 		--this->_Mysize;
; 1453 : 		return (_Pnode);
; 1454 : 		}
; 1455 : 
; 1456 : 	iterator erase(const_iterator _Where)
; 1457 : 		{	// erase element at _Where
; 1458 : 		_Nodeptr _Pnode = _Unlinknode(_Where++);
; 1459 : 		this->_Freenode(_Pnode);
; 1460 : 		return (_Make_iter(_Where));
; 1461 : 		}
; 1462 : 
; 1463 : 	void _Unchecked_erase(_Unchecked_const_iterator _Where)
; 1464 : 		{	// erase element at _Where
; 1465 : 		_Nodeptr _Pnode = _Where._Mynode();
; 1466 : 
; 1467 : 		this->_Nextnode(this->_Prevnode(_Pnode)) =
; 1468 : 			this->_Nextnode(_Pnode);
; 1469 : 		this->_Prevnode(this->_Nextnode(_Pnode)) =
; 1470 : 			this->_Prevnode(_Pnode);
; 1471 : 		this->_Freenode(_Pnode);
; 1472 : 		--this->_Mysize;
; 1473 : 		}
; 1474 : 
; 1475 : 	iterator erase(const_iterator _First, const_iterator _Last)
; 1476 : 		{	// erase [_First, _Last)
; 1477 : 		if (_First == begin() && _Last == end())
; 1478 : 			{	// erase all and return fresh iterator
; 1479 : 			clear();
; 1480 : 			return (end());
; 1481 : 			}
; 1482 : 		else
; 1483 : 			{	// erase subrange
; 1484 : 			while (_First != _Last)
; 1485 : 				_First = erase(_First);
; 1486 : 			return (_Make_iter(_Last));
; 1487 : 			}
; 1488 : 		}
; 1489 : 
; 1490 : 	void clear() _NOEXCEPT
; 1491 : 		{	// erase all
; 1492 :  #if _ITERATOR_DEBUG_LEVEL == 2
; 1493 : 		this->_Orphan_ptr(*this, nullptr);
; 1494 :  #endif /* _ITERATOR_DEBUG_LEVEL == 2 */
; 1495 : 
; 1496 : 		_Nodeptr _Pnode = this->_Nextnode(this->_Myhead);
; 1497 : 		this->_Nextnode(this->_Myhead) = this->_Myhead;
; 1498 : 		this->_Prevnode(this->_Myhead) = this->_Myhead;
; 1499 : 		this->_Mysize = 0;
; 1500 : 
; 1501 : 		for (_Nodeptr _Pnext; _Pnode != this->_Myhead; _Pnode = _Pnext)
; 1502 : 			{	// delete an element
; 1503 : 			_Pnext = this->_Nextnode(_Pnode);
; 1504 : 			this->_Freenode(_Pnode);
; 1505 : 			}
; 1506 : 		}
; 1507 : 
; 1508 : 	void swap(_Myt& _Right)
; 1509 : 		{	// exchange contents with _Right
; 1510 : 		if (this == &_Right)
; 1511 : 			;	// same object, do nothing
; 1512 : 		else if (this->_Getal() == _Right._Getal())
; 1513 : 			{	// same allocator, swap control information
; 1514 : 			this->_Swap_all(_Right);
; 1515 : 			_Swap_adl(this->_Myhead, _Right._Myhead);
; 1516 : 			_STD swap(this->_Mysize, _Right._Mysize);
; 1517 : 			}
; 1518 : 
; 1519 : 		else if (_Alty::propagate_on_container_swap::value)
; 1520 : 			{	// swap allocators and control information
; 1521 : 			this->_Swap_alloc(_Right);
; 1522 : 			_Swap_adl(this->_Myhead, _Right._Myhead);
; 1523 : 			_STD swap(this->_Mysize, _Right._Mysize);
; 1524 : 			}
; 1525 : 
; 1526 : 		else	// containers are incompatible
; 1527 : 
; 1528 :  #if _ITERATOR_DEBUG_LEVEL == 2
; 1529 : 			_DEBUG_ERROR("list containers incompatible for swap");
; 1530 : 
; 1531 :  #else /* ITERATOR_DEBUG_LEVEL == 2 */
; 1532 : 			_XSTD terminate();
; 1533 :  #endif /* ITERATOR_DEBUG_LEVEL == 2 */
; 1534 : 		}
; 1535 : 
; 1536 : 	void splice(const_iterator _Where, _Myt& _Right)
; 1537 : 		{	// splice all of _Right at _Where
; 1538 : 		if (this != &_Right && !_Right.empty())
; 1539 : 			{	// worth splicing, do it
; 1540 : 			_Splice(_Where, _Right, _Right.begin(), _Right.end(),
; 1541 : 				_Right._Mysize);
; 1542 : 			}
; 1543 : 		}
; 1544 : 
; 1545 : 	void splice(const_iterator _Where, _Myt&& _Right)
; 1546 : 		{	// splice all of _Right at _Where
; 1547 : 		splice(_Where, (_Myt&)_Right);
; 1548 : 		}
; 1549 : 
; 1550 : 	void splice(const_iterator _Where, _Myt& _Right,
; 1551 : 		const_iterator _First)
; 1552 : 		{	// splice _Right [_First, _First + 1) at _Where
; 1553 :  #if _ITERATOR_DEBUG_LEVEL == 2
; 1554 : 		if (_First == _Right.end())
; 1555 : 			_DEBUG_ERROR("list splice iterator outside range");
; 1556 : 		else
; 1557 : 
; 1558 :  #else /* _ITERATOR_DEBUG_LEVEL == 2 */
; 1559 : 		if (_First != _Right.end())
; 1560 :  #endif /* _ITERATOR_DEBUG_LEVEL == 2 */
; 1561 : 
; 1562 : 			{	// element exists, try splice
; 1563 : 			const_iterator _Last = _First;
; 1564 : 			++_Last;
; 1565 : 			if (this != &_Right
; 1566 : 				|| (_Where != _First && _Where != _Last))
; 1567 : 				_Splice(_Where, _Right, _First, _Last, 1);
; 1568 : 			}
; 1569 : 		}
; 1570 : 
; 1571 : 	void splice(const_iterator _Where, _Myt&& _Right,
; 1572 : 		const_iterator _First)
; 1573 : 		{	// splice _Right [_First, _First + 1) at _Where
; 1574 : 		splice(_Where, (_Myt&)_Right, _First);
; 1575 : 		}
; 1576 : 
; 1577 : 	void splice(const_iterator _Where,
; 1578 : 		_Myt& _Right, const_iterator _First, const_iterator _Last)
; 1579 : 		{	// splice _Right [_First, _Last) at _Where
; 1580 : 		if (_First != _Last && (this != &_Right || _Where != _Last))
; 1581 : 			{	// worth splicing, do it
; 1582 : 			size_type _Count = 0;
; 1583 : 
; 1584 : 			if (this == &_Right)
; 1585 : 				;	// just rearrange this list
; 1586 : 			else if (_First == _Right.begin() && _Last == _Right.end())
; 1587 : 				_Count = _Right._Mysize;	// splice in whole list
; 1588 : 			else
; 1589 : 				{	// count nodes and check for knot
; 1590 : 				const_iterator _Next = _First;
; 1591 : 
; 1592 : 				for (; _Next != _Last; ++_Next, ++_Count)
; 1593 : 					if (_Next == _Right.end())
; 1594 : 						_Xlength_error("list<T> bad splice");
; 1595 : 				}
; 1596 : 			_Splice(_Where, _Right, _First, _Last, _Count);
; 1597 : 			}
; 1598 : 		}
; 1599 : 
; 1600 : 	void splice(const_iterator _Where,
; 1601 : 		_Myt&& _Right, const_iterator _First, const_iterator _Last)
; 1602 : 		{	// splice _Right [_First, _Last) at _Where
; 1603 : 		splice(_Where, (_Myt&)_Right, _First, _Last);
; 1604 : 		}
; 1605 : 
; 1606 : 	void remove(const _Ty& _Val)
; 1607 : 		{	// erase each element matching _Val
; 1608 : 		iterator _Val_it = end();
; 1609 : 
; 1610 : 		for (iterator _First = begin(); _First != end(); )
; 1611 : 			if (*_First == _Val)
; 1612 : 				if (_STD addressof(*_First) == _STD addressof(_Val))
; 1613 : 					_Val_it = _First++;
; 1614 : 				else
; 1615 : 					_First = erase(_First);
; 1616 : 			else
; 1617 : 				++_First;
; 1618 : 
; 1619 : 		if (_Val_it != end())
; 1620 : 			erase(_Val_it);
; 1621 : 		}
; 1622 : 
; 1623 : 	template<class _Pr1>
; 1624 : 		void remove_if(_Pr1 _Pred)
; 1625 : 		{	// erase each element satisfying _Pred
; 1626 : 		for (iterator _First = begin(); _First != end(); )
; 1627 : 			if (_Pred(*_First))
; 1628 : 				_First = erase(_First);
; 1629 : 			else
; 1630 : 				++_First;
; 1631 : 		}
; 1632 : 
; 1633 : 	void unique()
; 1634 : 		{	// erase each element matching previous
; 1635 : 		unique(equal_to<>());
; 1636 : 		}
; 1637 : 
; 1638 : 	template<class _Pr2>
; 1639 : 		void unique(_Pr2 _Pred)
; 1640 : 		{	// erase each element satisfying _Pred with previous
; 1641 : 		const _Nodeptr _Phead = this->_Myhead;
; 1642 : 		_Nodeptr _Pprev = this->_Nextnode(_Phead);
; 1643 : 		_Nodeptr _Pnode = this->_Nextnode(_Pprev);
; 1644 : 
; 1645 : 		while (_Pnode != _Phead)
; 1646 : 			if (_Pred(_Pprev->_Myval, _Pnode->_Myval))
; 1647 : 				{	// match, remove it
; 1648 : 				const _Nodeptr _Perase = _Pnode;
; 1649 : 				_Pnode = this->_Nextnode(_Pnode);
; 1650 : 
; 1651 : 				this->_Nextnode(_Pprev) = _Pnode;
; 1652 : 				this->_Prevnode(_Pnode) = _Pprev;
; 1653 : 				this->_Freenode(_Perase);
; 1654 : 
; 1655 : 				--this->_Mysize;
; 1656 : 				}
; 1657 : 			else
; 1658 : 				{	// no match, advance
; 1659 : 				_Pprev = _Pnode;
; 1660 : 				_Pnode = this->_Nextnode(_Pnode);
; 1661 : 				}
; 1662 : 		}
; 1663 : 
; 1664 : 	void merge(_Myt& _Right)
; 1665 : 		{	// merge in elements from _Right, both ordered by operator<
; 1666 : 		merge(_Right, less<>());
; 1667 : 		}
; 1668 : 
; 1669 : 	void merge(_Myt&& _Right)
; 1670 : 		{	// merge in elements from _Right, both ordered by operator<
; 1671 : 		merge((_Myt&)_Right);
; 1672 : 		}
; 1673 : 
; 1674 : 	template<class _Pr2>
; 1675 : 		void merge(_Myt& _Right, _Pr2 _Pred)
; 1676 : 		{	// merge in elements from _Right, both ordered by _Pred
; 1677 : 		if (&_Right != this)
; 1678 : 			{	// safe to merge, do it
; 1679 : 			iterator _First1 = begin(), _Last1 = end();
; 1680 : 			iterator _First2 = _Right.begin(), _Last2 = _Right.end();
; 1681 : 			_DEBUG_ORDER_PRED(_First1, _Last1, _Pred);
; 1682 : 			_DEBUG_ORDER_PRED(_First2, _Last2, _Pred);
; 1683 : 
; 1684 : 			while (_First1 != _Last1 && _First2 != _Last2)
; 1685 : 				if (_DEBUG_LT_PRED(_Pred, *_First2, *_First1))
; 1686 : 					{	// splice in an element from _Right
; 1687 : 					iterator _Mid2 = _First2;
; 1688 : 					_Splice(_First1, _Right, _First2, ++_Mid2, 1);
; 1689 : 					_First2 = _Mid2;
; 1690 : 					}
; 1691 : 				else
; 1692 : 					++_First1;
; 1693 : 
; 1694 : 			if (_First2 != _Last2)
; 1695 : 				_Splice(_Last1, _Right, _First2, _Last2,
; 1696 : 					_Right._Mysize);	// splice remainder of _Right
; 1697 : 			}
; 1698 : 		}
; 1699 : 
; 1700 : 	template<class _Pr2>
; 1701 : 		void merge(_Myt&& _Right, _Pr2 _Pred)
; 1702 : 		{	// merge in elements from _Right, both ordered by _Pred
; 1703 : 		merge((_Myt&)_Right, _Pred);
; 1704 : 		}
; 1705 : 
; 1706 : 	void sort()
; 1707 : 		{	// order sequence, using operator<
; 1708 : 		sort(less<>());
; 1709 : 		}
; 1710 : 
; 1711 : 	template<class _Pr2>
; 1712 : 		void sort(_Pr2 _Pred)
; 1713 : 		{	// order sequence, using _Pred
; 1714 : 		if (2 <= this->_Mysize)
; 1715 : 			{	// worth sorting, do it
; 1716 : 			const size_t _MAXBINS = 25;
; 1717 : 			_Myt _Templist(this->_Getal()), _Binlist[_MAXBINS + 1];
; 1718 : 			size_t _Maxbin = 0;
; 1719 : 
; 1720 : 			while (!empty())
; 1721 : 				{	// sort another element, using bins
; 1722 : 				_Templist._Splice_same(_Templist.begin(), *this, begin(),
; 1723 : 					++begin(), 1);
; 1724 : 
; 1725 : 				size_t _Bin;
; 1726 : 				for (_Bin = 0; _Bin < _Maxbin && !_Binlist[_Bin].empty();
; 1727 : 					++_Bin)
; 1728 : 					{	// merge into ever larger bins
; 1729 : 					_Binlist[_Bin].merge(_Templist, _Pred);
; 1730 : 					_Binlist[_Bin].swap(_Templist);
; 1731 : 					}
; 1732 : 
; 1733 : 				if (_Bin == _MAXBINS)
; 1734 : 					_Binlist[_Bin - 1].merge(_Templist, _Pred);
; 1735 : 				else
; 1736 : 					{	// spill to new bin, while they last
; 1737 : 					_Binlist[_Bin].swap(_Templist);
; 1738 : 					if (_Bin == _Maxbin)
; 1739 : 						++_Maxbin;
; 1740 : 					}
; 1741 : 				}
; 1742 : 
; 1743 : 			for (size_t _Bin = 1; _Bin < _Maxbin; ++_Bin)
; 1744 : 				_Binlist[_Bin].merge(_Binlist[_Bin - 1],
; 1745 : 					_Pred);	// merge up
; 1746 : 
; 1747 : 			_Analysis_assume_(0 < _Maxbin);
; 1748 : 
; 1749 : 			splice(begin(), _Binlist[_Maxbin - 1]);	// result in last bin
; 1750 : 			}
; 1751 : 		}
; 1752 : 
; 1753 : 	void reverse() _NOEXCEPT
; 1754 : 		{	// reverse sequence
; 1755 : 		const _Nodeptr _Phead = this->_Myhead;
; 1756 : 		_Nodeptr _Pnode = _Phead;
; 1757 : 
; 1758 : 		for (; ; )
; 1759 : 			{	// flip pointers in a node
; 1760 : 			const _Nodeptr _Pnext = this->_Nextnode(_Pnode);
; 1761 : 			this->_Nextnode(_Pnode) = this->_Prevnode(_Pnode);
; 1762 : 			this->_Prevnode(_Pnode) = _Pnext;
; 1763 : 
; 1764 : 			if (_Pnext == _Phead)
; 1765 : 				break;
; 1766 : 			_Pnode = _Pnext;
; 1767 : 			}
; 1768 : 		}
; 1769 : 
; 1770 : 	void _Splice(const_iterator _Where,
; 1771 : 		_Myt& _Right, const_iterator _First, const_iterator _Last,
; 1772 : 		size_type _Count)
; 1773 : 		{	// splice _Right [_First, _Last) before _Where
; 1774 :  #if _ITERATOR_DEBUG_LEVEL == 2
; 1775 : 		if (_Where._Getcont() != this)
; 1776 : 			_DEBUG_ERROR("list splice iterator outside range");
; 1777 : 		if (this->_Getal() != _Right._Getal())
; 1778 : 			_DEBUG_ERROR("list containers incompatible for splice");
; 1779 : 
; 1780 : 		if (this != &_Right)
; 1781 : 			{	// transfer ownership
; 1782 : 			_Lockit _Lock(_LOCK_DEBUG);
; 1783 : 
; 1784 : 			const bool _One = _Count == 1;
; 1785 : 			const bool _All = _Count == _Right.size();
; 1786 : 			const bool _Some = !_One && !_All;
; 1787 : 
; 1788 : 			_Nodeptr _Oldprev = _First._Ptr->_Prev;
; 1789 : 
; 1790 : 			if (_Some)
; 1791 : 				for (_Nodeptr _Ptr = _First._Ptr; _Ptr != _Last._Ptr;
; 1792 : 					_Ptr = _Ptr->_Next)
; 1793 : 					{	// mark _Prev pointers
; 1794 : 					_Ptr->_Prev = 0;
; 1795 : 					}
; 1796 : 
; 1797 : 			const_iterator **_Pnext = (const_iterator **)_Right._Getpfirst();
; 1798 : 
; 1799 : 			if (_Pnext == 0)
; 1800 : 				_DEBUG_ERROR("list container corrupted");
; 1801 : 
; 1802 : 			while (*_Pnext != 0)
; 1803 : 				{	// check the iterator
; 1804 : 				const_iterator& _Iter = **_Pnext;
; 1805 : 
; 1806 : 				if ((_One && _Iter._Ptr == _First._Ptr)
; 1807 : 					|| (_All && _Iter._Ptr != _Right._Myhead)
; 1808 : 					|| (_Some && _Iter._Ptr->_Prev == 0))
; 1809 : 					{	// adopt the iterator
; 1810 : 					*_Pnext = (const_iterator *)_Iter._Mynextiter;
; 1811 : 					_Iter._Myproxy = this->_Myproxy;
; 1812 : 					_Iter._Mynextiter = this->_Myproxy->_Myfirstiter;
; 1813 : 					this->_Myproxy->_Myfirstiter = &_Iter;
; 1814 : 					}
; 1815 : 				else
; 1816 : 					{	// skip the iterator
; 1817 : 					_Pnext = (const_iterator **)_Iter._Getpnext();
; 1818 : 					}
; 1819 : 				}
; 1820 : 
; 1821 : 			if (_Some)
; 1822 : 				for (_Nodeptr _Ptr = _First._Ptr; _Ptr != _Last._Ptr;
; 1823 : 					_Ptr = _Ptr->_Next)
; 1824 : 					{	// restore _Prev pointers
; 1825 : 					_Ptr->_Prev = _Oldprev;
; 1826 : 					_Oldprev = _Ptr;
; 1827 : 					}
; 1828 : 			}
; 1829 : 
; 1830 :  #else /* _ITERATOR_DEBUG_LEVEL == 2 */
; 1831 : 		if (this->_Getal() != _Right._Getal())
; 1832 : 			_XSTD terminate();
; 1833 :  #endif /* _ITERATOR_DEBUG_LEVEL == 2 */
; 1834 : 
; 1835 : 		_Splice_same(_Where, _Right, _First, _Last, _Count);
; 1836 : 		}
; 1837 : 
; 1838 : 	void _Splice_same(const_iterator _Where,
; 1839 : 		_Myt& _Right, const_iterator _First, const_iterator _Last,
; 1840 : 		size_type _Count)
; 1841 : 		{	// splice _Right [_First, _Last) before _Where
; 1842 : 		if (this != &_Right)
; 1843 : 			{	// splicing from another list, adjust counts
; 1844 : 			_Incsize(_Count);
; 1845 : 			_Right._Mysize -= _Count;
; 1846 : 			}
; 1847 : 		this->_Nextnode(this->_Prevnode(_First._Mynode())) =
; 1848 : 			_Last._Mynode();
; 1849 : 		this->_Nextnode(this->_Prevnode(_Last._Mynode())) =
; 1850 : 			_Where._Mynode();
; 1851 : 		this->_Nextnode(this->_Prevnode(_Where._Mynode())) =
; 1852 : 			_First._Mynode();
; 1853 : 
; 1854 : 		_Nodeptr _Pnode = this->_Prevnode(_Where._Mynode());
; 1855 : 		this->_Prevnode(_Where._Mynode()) =
; 1856 : 			this->_Prevnode(_Last._Mynode());
; 1857 : 		this->_Prevnode(_Last._Mynode()) =
; 1858 : 			this->_Prevnode(_First._Mynode());
; 1859 : 		this->_Prevnode(_First._Mynode()) = _Pnode;
; 1860 : 		}
; 1861 : 
; 1862 : 	void _Unchecked_splice(_Unchecked_const_iterator _Where,
; 1863 : 		_Unchecked_const_iterator _First,
; 1864 : 		_Unchecked_const_iterator _Last)
; 1865 : 		{	// splice [_First, _Last) before _Where
; 1866 : 		this->_Nextnode(this->_Prevnode(_First._Mynode())) =
; 1867 : 			_Last._Mynode();
; 1868 : 		this->_Nextnode(this->_Prevnode(_Last._Mynode())) =
; 1869 : 			_Where._Mynode();
; 1870 : 		this->_Nextnode(this->_Prevnode(_Where._Mynode())) =
; 1871 : 			_First._Mynode();
; 1872 : 
; 1873 : 		_Nodeptr _Pnode = this->_Prevnode(_Where._Mynode());
; 1874 : 		this->_Prevnode(_Where._Mynode()) =
; 1875 : 			this->_Prevnode(_Last._Mynode());
; 1876 : 		this->_Prevnode(_Last._Mynode()) =
; 1877 : 			this->_Prevnode(_First._Mynode());
; 1878 : 		this->_Prevnode(_First._Mynode()) = _Pnode;
; 1879 : 		}
; 1880 : 
; 1881 : 	void _Tidy()
; 1882 : 		{	// free all storage
; 1883 : 		clear();
; 1884 : 		}
; 1885 : 
; 1886 : 	void _Insert_n(_Unchecked_const_iterator _Where,
; 1887 : 		size_type _Count, const _Ty& _Val)
; 1888 : 		{	// insert _Count * _Val at _Where
; 1889 : 		size_type _Countsave = _Count;
; 1890 : 
; 1891 : 		_TRY_BEGIN
; 1892 : 		for (; 0 < _Count; --_Count)
; 1893 : 			_Insert(_Where, _Val);
; 1894 : 		_CATCH_ALL
; 1895 : 		for (; _Count < _Countsave; ++_Count)
; 1896 : 			{	// undo inserts
; 1897 : 			_Unchecked_const_iterator _Before = _Where;
; 1898 : 			_Unchecked_erase(--_Before);
; 1899 : 			}
; 1900 : 		_RERAISE;
; 1901 : 		_CATCH_END
; 1902 : 		}
; 1903 : 
; 1904 : 	void _Incsize(size_type _Count)
; 1905 : 		{	// alter element count, with checking
; 1906 : 		if (max_size() - this->_Mysize - 1 < _Count)

	mov	rdx, 576460752303423486			; 07fffffffffffffeH

; 534  : 		}
; 535  : 
; 536  : 	static _Nodepref _Prevnode(_Nodeptr _Pnode)
; 537  : 		{	// return reference to predecessor pointer in node
; 538  : 		return ((_Nodepref)_Pnode->_Prev);
; 539  : 		}
; 540  : 
; 541  : 	static reference _Myval(_Nodeptr _Pnode)
; 542  : 		{	// return reference to value in node
; 543  : 		return ((reference)_Pnode->_Myval);
; 544  : 		}
; 545  : 
; 546  : 	_Nodeptr _Myhead;	// pointer to head node
; 547  : 	size_type _Mysize;	// number of elements
; 548  : 	};
; 549  : 
; 550  : 		// TEMPLATE CLASS _List_alloc
; 551  : template<bool _Al_has_storage,
; 552  : 	class _Alloc_types>
; 553  : 	class _List_alloc
; 554  : 		: public _List_val<typename _Alloc_types::_Val_types>
; 555  : 	{	// base class for list to hold allocator with storage
; 556  : public:
; 557  : 	typename _Alloc_types::_Alnod_type _Alnod;	// allocator object
; 558  : 
; 559  : 	typedef _List_alloc<_Al_has_storage, _Alloc_types> _Myt;
; 560  : 	typedef typename _Alloc_types::_Alloc _Alloc;
; 561  : 	typedef typename _Alloc_types::_Alnod_type _Alty;
; 562  : 	typedef typename _Alloc_types::_Node _Node;
; 563  : 	typedef typename _Alloc_types::_Nodeptr _Nodeptr;
; 564  : 
; 565  :  #if _ITERATOR_DEBUG_LEVEL == 0
; 566  : 	_List_alloc(const _Alloc& _Al = _Alloc())
; 567  : 		: _Alnod(_Al)
; 568  : 		{	// construct head node, allocator from _Al
; 569  : 		this->_Myhead = _Buyheadnode();
; 570  : 		}
; 571  : 
; 572  : 	~_List_alloc() _NOEXCEPT
; 573  : 		{	// destroy head node
; 574  : 		_Freeheadnode(this->_Myhead);
; 575  : 		}
; 576  : 
; 577  : 	void _Change_alloc(const _Alty& _Al)
; 578  : 		{	// replace old allocator
; 579  : 		this->_Alnod = _Al;
; 580  : 		}
; 581  : 
; 582  : 	void _Swap_alloc(_Myt& _Right)
; 583  : 		{	// swap allocators
; 584  : 		_Swap_adl(this->_Alnod, _Right._Alnod);
; 585  : 		}
; 586  : 
; 587  :  #else /* _ITERATOR_DEBUG_LEVEL == 0 */
; 588  : 	_List_alloc(const _Alloc& _Al = _Alloc())
; 589  : 		: _Alnod(_Al)
; 590  : 		{	// construct head node, allocator from _Al
; 591  : 		this->_Myhead = _Buyheadnode();
; 592  : 		_TRY_BEGIN
; 593  : 		_Alloc_proxy();
; 594  : 		_CATCH_ALL
; 595  : 		_Freeheadnode(this->_Myhead);
; 596  : 		_RERAISE;
; 597  : 		_CATCH_END
; 598  : 		}
; 599  : 
; 600  : 	~_List_alloc() _NOEXCEPT
; 601  : 		{	// destroy proxy
; 602  : 		_Freeheadnode(this->_Myhead);
; 603  : 		_Free_proxy();
; 604  : 		}
; 605  : 
; 606  : 	void _Change_alloc(const _Alty& _Al)
; 607  : 		{	// replace old allocator
; 608  : 		_Free_proxy();
; 609  : 		this->_Alnod = _Al;
; 610  : 		_Alloc_proxy();
; 611  : 		}
; 612  : 
; 613  : 	void _Swap_alloc(_Myt& _Right)
; 614  : 		{	// swap allocators
; 615  : 		_Swap_adl(this->_Alnod, _Right._Alnod);
; 616  : 		_Swap_adl(this->_Myproxy, _Right._Myproxy);
; 617  : 		}
; 618  : 
; 619  : 	void _Alloc_proxy()
; 620  : 		{	// construct proxy from _Alnod
; 621  : 		typename _Alty::template rebind<_Container_proxy>::other
; 622  : 			_Alproxy(this->_Alnod);
; 623  : 		this->_Myproxy = _Alproxy.allocate(1);
; 624  : 		_Alproxy.construct(this->_Myproxy, _Container_proxy());
; 625  : 		this->_Myproxy->_Mycont = this;
; 626  : 		}
; 627  : 
; 628  : 	void _Free_proxy()
; 629  : 		{	// destroy proxy
; 630  : 		typename _Alty::template rebind<_Container_proxy>::other
; 631  : 			_Alproxy(this->_Alnod);
; 632  : 		this->_Orphan_all();
; 633  : 		_Alproxy.destroy(this->_Myproxy);
; 634  : 		_Alproxy.deallocate(this->_Myproxy, 1);
; 635  : 		this->_Myproxy = 0;
; 636  : 		}
; 637  :  #endif /* _ITERATOR_DEBUG_LEVEL == 0 */
; 638  : 
; 639  : 	_Nodeptr _Buyheadnode()
; 640  : 		{	// get head node using current allocator
; 641  : 		return (_Buynode0(_Nodeptr(), _Nodeptr()));
; 642  : 		}
; 643  : 
; 644  : 	void _Freeheadnode(_Nodeptr _Pnode)
; 645  : 		{	// free head node using current allocator
; 646  : 		this->_Alnod.destroy(
; 647  : 			_STD addressof(this->_Nextnode(_Pnode)));
; 648  : 		this->_Alnod.destroy(
; 649  : 			_STD addressof(this->_Prevnode(_Pnode)));
; 650  : 		this->_Alnod.deallocate(_Pnode, 1);
; 651  : 		}
; 652  : 
; 653  : 	_Nodeptr _Buynode0(_Nodeptr _Next,
; 654  : 		_Nodeptr _Prev)
; 655  : 		{	// allocate a node and set links
; 656  : 		_Nodeptr _Pnode = this->_Alnod.allocate(1);
; 657  : 
; 658  : 		if (_Next == _Nodeptr())
; 659  : 			{	// point at self
; 660  : 			_Next = _Pnode;
; 661  : 			_Prev = _Pnode;
; 662  : 			}
; 663  : 		_TRY_BEGIN
; 664  : 		this->_Alnod.construct(
; 665  : 			_STD addressof(this->_Nextnode(_Pnode)), _Next);
; 666  : 		this->_Alnod.construct(
; 667  : 			_STD addressof(this->_Prevnode(_Pnode)), _Prev);
; 668  : 		_CATCH_ALL
; 669  : 		this->_Alnod.deallocate(_Pnode, 1);
; 670  : 		_RERAISE;
; 671  : 		_CATCH_END
; 672  : 
; 673  : 		return (_Pnode);
; 674  : 		}
; 675  : 
; 676  : 	_Alty& _Getal()
; 677  : 		{	// get reference to allocator
; 678  : 		return (this->_Alnod);
; 679  : 		}
; 680  : 
; 681  : 	const _Alty& _Getal() const
; 682  : 		{	// get reference to allocator
; 683  : 		return (this->_Alnod);
; 684  : 		}
; 685  : 	};
; 686  : 
; 687  : 		// TEMPLATE CLASS _List_alloc
; 688  : template<class _Alloc_types>
; 689  : 	class _List_alloc<false, _Alloc_types>
; 690  : 		: public _List_val<typename _Alloc_types::_Val_types>
; 691  : 	{	// base class for list to hold allocator with no storage
; 692  : public:
; 693  : 	typedef _List_alloc<false, _Alloc_types> _Myt;
; 694  : 	typedef typename _Alloc_types::_Alloc _Alloc;
; 695  : 	typedef typename _Alloc_types::_Alnod_type _Alty;
; 696  : 	typedef typename _Alloc_types::_Node _Node;
; 697  : 	typedef typename _Alloc_types::_Nodeptr _Nodeptr;
; 698  : 
; 699  :  #if _ITERATOR_DEBUG_LEVEL == 0
; 700  : 	_List_alloc(const _Alloc& = _Alloc())
; 701  : 		{	// construct head node, allocator from _Al
; 702  : 		this->_Myhead = _Buyheadnode();
; 703  : 		}
; 704  : 
; 705  : 	~_List_alloc() _NOEXCEPT
; 706  : 		{	// destroy head node
; 707  : 		_Freeheadnode(this->_Myhead);
; 708  : 		}
; 709  : 
; 710  : 	void _Change_alloc(const _Alty&)
; 711  : 		{	// replace old allocator
; 712  : 		}
; 713  : 
; 714  : 	void _Swap_alloc(_Myt&)
; 715  : 		{	// swap allocators
; 716  : 		}
; 717  : 
; 718  :  #else /* _ITERATOR_DEBUG_LEVEL == 0 */
; 719  : 	_List_alloc(const _Alloc& = _Alloc())
; 720  : 		{	// construct allocators from _Al
; 721  : 		this->_Myhead = _Buyheadnode();
; 722  : 		_TRY_BEGIN
; 723  : 		_Alloc_proxy();
; 724  : 		_CATCH_ALL
; 725  : 		_Freeheadnode(this->_Myhead);
; 726  : 		_RERAISE;
; 727  : 		_CATCH_END
; 728  : 		}
; 729  : 
; 730  : 	~_List_alloc() _NOEXCEPT
; 731  : 		{	// destroy proxy
; 732  : 		_Freeheadnode(this->_Myhead);
; 733  : 		_Free_proxy();
; 734  : 		}
; 735  : 
; 736  : 	void _Change_alloc(const _Alty&)
; 737  : 		{	// replace old allocator
; 738  : 		}
; 739  : 
; 740  : 	void _Swap_alloc(_Myt& _Right)
; 741  : 		{	// swap allocators
; 742  : 		_Swap_adl(this->_Myproxy, _Right._Myproxy);
; 743  : 		}
; 744  : 
; 745  : 	void _Alloc_proxy()
; 746  : 		{	// construct proxy from _Alnod
; 747  : 		typename _Alty::template rebind<_Container_proxy>::other
; 748  : 			_Alproxy;
; 749  : 		this->_Myproxy = _Alproxy.allocate(1);
; 750  : 		_Alproxy.construct(this->_Myproxy, _Container_proxy());
; 751  : 		this->_Myproxy->_Mycont = this;
; 752  : 		}
; 753  : 
; 754  : 	void _Free_proxy()
; 755  : 		{	// destroy proxy
; 756  : 		typename _Alty::template rebind<_Container_proxy>::other
; 757  : 			_Alproxy;
; 758  : 		this->_Orphan_all();
; 759  : 		_Alproxy.destroy(this->_Myproxy);
; 760  : 		_Alproxy.deallocate(this->_Myproxy, 1);
; 761  : 		this->_Myproxy = 0;
; 762  : 		}
; 763  :  #endif /* _ITERATOR_DEBUG_LEVEL == 0 */
; 764  : 
; 765  : 	_Nodeptr _Buyheadnode()
; 766  : 		{	// get head node using current allocator
; 767  : 		return (_Buynode0(_Nodeptr(), _Nodeptr()));
; 768  : 		}
; 769  : 
; 770  : 	void _Freeheadnode(_Nodeptr _Pnode)
; 771  : 		{	// free head node using current allocator
; 772  : 		this->_Getal().destroy(
; 773  : 			_STD addressof(this->_Nextnode(_Pnode)));
; 774  : 		this->_Getal().destroy(
; 775  : 			_STD addressof(this->_Prevnode(_Pnode)));
; 776  : 		this->_Getal().deallocate(_Pnode, 1);
; 777  : 		}
; 778  : 
; 779  : 	_Nodeptr _Buynode0(_Nodeptr _Next,
; 780  : 		_Nodeptr _Prev)
; 781  : 		{	// allocate a node and set links
; 782  : 		_Nodeptr _Pnode = this->_Getal().allocate(1);
; 783  : 
; 784  : 		if (_Next == _Nodeptr())
; 785  : 			{	// point at self
; 786  : 			_Next = _Pnode;
; 787  : 			_Prev = _Pnode;
; 788  : 			}
; 789  : 		_TRY_BEGIN
; 790  : 		this->_Getal().construct(
; 791  : 			_STD addressof(this->_Nextnode(_Pnode)), _Next);
; 792  : 		this->_Getal().construct(
; 793  : 			_STD addressof(this->_Prevnode(_Pnode)), _Prev);
; 794  : 		_CATCH_ALL
; 795  : 		this->_Getal().deallocate(_Pnode, 1);
; 796  : 		_RERAISE;
; 797  : 		_CATCH_END
; 798  : 
; 799  : 		return (_Pnode);
; 800  : 		}
; 801  : 
; 802  : 	_Alty _Getal() const
; 803  : 		{	// get reference to allocator
; 804  : 		return (_Alty());
; 805  : 		}
; 806  : 	};
; 807  : 
; 808  : 		// TEMPLATE CLASS _List_buy
; 809  : template<class _Ty,
; 810  : 	class _Alloc>
; 811  : 	class _List_buy
; 812  : 		: public _List_alloc<!is_empty<_Alloc>::value,
; 813  : 			_List_base_types<_Ty, _Alloc> >
; 814  : 	{	// base class for list to hold buynode/freenode functions
; 815  : public:
; 816  : 	typedef _List_alloc<!is_empty<_Alloc>::value,
; 817  : 		_List_base_types<_Ty, _Alloc> > _Mybase;
; 818  : 	typedef typename _Mybase::_Alty _Alty;
; 819  : 	typedef typename _Mybase::_Nodeptr _Nodeptr;
; 820  : 
; 821  : 	_List_buy(const _Alloc& _Al = _Alloc())
; 822  : 		: _Mybase(_Al)
; 823  : 		{	// construct from allocator
; 824  : 		}
; 825  : 
; 826  : 	template<class... _Valty>
; 827  : 		_Nodeptr _Buynode(_Nodeptr _Next, _Nodeptr _Prev,
; 828  : 			_Valty&&... _Val)
; 829  : 		{	// allocate a node and set links and value
; 830  : 		_Nodeptr _Pnode = this->_Buynode0(_Next, _Prev);
; 831  : 
; 832  : 		_TRY_BEGIN
; 833  : 		this->_Getal().construct(
; 834  : 			_STD addressof(this->_Myval(_Pnode)),
; 835  : 				_STD forward<_Valty>(_Val)...);
; 836  : 		_CATCH_ALL
; 837  : 		this->_Getal().deallocate(_Pnode, 1);
; 838  : 		_RERAISE;
; 839  : 		_CATCH_END
; 840  : 
; 841  : 		return (_Pnode);
; 842  : 		}
; 843  : 
; 844  : 
; 845  : 	void _Freenode(_Nodeptr _Pnode)
; 846  : 		{	// give node back
; 847  : 		this->_Getal().destroy(
; 848  : 			_STD addressof(this->_Nextnode(_Pnode)));
; 849  : 		this->_Getal().destroy(
; 850  : 			_STD addressof(this->_Prevnode(_Pnode)));
; 851  : 		this->_Getal().destroy(
; 852  : 			_STD addressof(this->_Myval(_Pnode)));
; 853  : 		this->_Getal().deallocate(_Pnode, 1);
; 854  : 		}
; 855  : 	};
; 856  : 
; 857  : 		// TEMPLATE CLASS list
; 858  : template<class _Ty,
; 859  : 	class _Alloc = allocator<_Ty> >
; 860  : 	class list
; 861  : 		: public _List_buy<_Ty, _Alloc>
; 862  : 	{	// bidirectional linked list
; 863  : public:
; 864  : 	typedef list<_Ty, _Alloc> _Myt;
; 865  : 	typedef _List_buy<_Ty, _Alloc> _Mybase;
; 866  : 	typedef typename _Mybase::_Node _Node;
; 867  : 	typedef typename _Mybase::_Nodeptr _Nodeptr;
; 868  : 	typedef typename _Mybase::_Alty _Alty;
; 869  : 
; 870  : 	typedef _Alloc allocator_type;
; 871  : 	typedef typename _Mybase::size_type size_type;
; 872  : 	typedef typename _Mybase::difference_type difference_type;
; 873  : 	typedef typename _Mybase::pointer pointer;
; 874  : 	typedef typename _Mybase::const_pointer const_pointer;
; 875  : 	typedef typename _Mybase::reference reference;
; 876  : 	typedef typename _Mybase::const_reference const_reference;
; 877  : 	typedef typename _Mybase::value_type value_type;
; 878  : 
; 879  : 	typedef typename _Mybase::const_iterator const_iterator;
; 880  : 	typedef typename _Mybase::iterator iterator;
; 881  : 	typedef typename _Mybase::_Unchecked_const_iterator
; 882  : 		_Unchecked_const_iterator;
; 883  : 	typedef typename _Mybase::_Unchecked_iterator
; 884  : 		_Unchecked_iterator;
; 885  : 
; 886  : 	typedef _STD reverse_iterator<iterator> reverse_iterator;
; 887  : 	typedef _STD reverse_iterator<const_iterator> const_reverse_iterator;
; 888  : 
; 889  : 	list()
; 890  : 		: _Mybase()
; 891  : 		{	// construct empty list
; 892  : 		}
; 893  : 
; 894  : 	explicit list(const _Alloc& _Al)
; 895  : 		: _Mybase(_Al)
; 896  : 		{	// construct empty list, allocator
; 897  : 		}
; 898  : 
; 899  : 	explicit list(size_type _Count)
; 900  : 		: _Mybase()
; 901  : 		{	// construct list from _Count * _Ty()
; 902  : 		resize(_Count);
; 903  : 		}
; 904  : 
; 905  : 	list(size_type _Count, const _Ty& _Val)
; 906  : 		: _Mybase()
; 907  : 		{	// construct list from _Count * _Val
; 908  : 		_Construct_n(_Count, _Val);
; 909  : 		}
; 910  : 
; 911  : 	list(size_type _Count, const _Ty& _Val, const _Alloc& _Al)
; 912  : 		: _Mybase(_Al)
; 913  : 		{	// construct list from _Count * _Val, allocator
; 914  : 		_Construct_n(_Count, _Val);
; 915  : 		}
; 916  : 
; 917  : 	list(const _Myt& _Right)
; 918  : 
; 919  : 		: _Mybase(_Right._Getal().select_on_container_copy_construction())
; 920  : 
; 921  : 
; 922  : 		{	// construct list by copying _Right
; 923  : 		_TRY_BEGIN
; 924  : 		insert(begin(), _Right.begin(), _Right.end());
; 925  : 		_CATCH_ALL
; 926  : 		_Tidy();
; 927  : 		_RERAISE;
; 928  : 		_CATCH_END
; 929  : 		}
; 930  : 
; 931  : 	list(const _Myt& _Right, const _Alloc& _Al)
; 932  : 		: _Mybase(_Al)
; 933  : 		{	// construct list by copying _Right, allocator
; 934  : 		_TRY_BEGIN
; 935  : 		insert(begin(), _Right.begin(), _Right.end());
; 936  : 		_CATCH_ALL
; 937  : 		_Tidy();
; 938  : 		_RERAISE;
; 939  : 		_CATCH_END
; 940  : 		}
; 941  : 
; 942  : 	template<class _Iter,
; 943  : 		class = typename enable_if<_Is_iterator<_Iter>::value,
; 944  : 			void>::type>
; 945  : 		list(_Iter _First, _Iter _Last)
; 946  : 		: _Mybase()
; 947  : 		{	// construct list from [_First, _Last)
; 948  : 		_Construct(_First, _Last);
; 949  : 		}
; 950  : 
; 951  : 	template<class _Iter,
; 952  : 		class = typename enable_if<_Is_iterator<_Iter>::value,
; 953  : 			void>::type>
; 954  : 		list(_Iter _First, _Iter _Last, const _Alloc& _Al)
; 955  : 		: _Mybase(_Al)
; 956  : 		{	// construct list, allocator from [_First, _Last)
; 957  : 		_Construct(_First, _Last);
; 958  : 		}
; 959  : 
; 960  : 	template<class _Iter>
; 961  : 		void _Construct(_Iter _First, _Iter _Last)
; 962  : 		{	// construct list from [_First, _Last), input iterators
; 963  : 		_TRY_BEGIN
; 964  : 		insert(begin(), _First, _Last);
; 965  : 		_CATCH_ALL
; 966  : 		_Tidy();
; 967  : 		_RERAISE;
; 968  : 		_CATCH_END
; 969  : 		}
; 970  : 
; 971  : 	void _Construct_n(size_type _Count,
; 972  : 		const _Ty& _Val)
; 973  : 		{	// construct from _Count * _Val
; 974  : 		_TRY_BEGIN
; 975  : 		_Insert_n(_Unchecked_begin(), _Count, _Val);
; 976  : 		_CATCH_ALL
; 977  : 		_Tidy();
; 978  : 		_RERAISE;
; 979  : 		_CATCH_END
; 980  : 		}
; 981  : 
; 982  : 	list(_Myt&& _Right)
; 983  : 		: _Mybase(_Right._Getal())
; 984  : 		{	// construct list by moving _Right
; 985  : 		_Assign_rv(_STD forward<_Myt>(_Right));
; 986  : 		}
; 987  : 
; 988  : 	list(_Myt&& _Right, const _Alloc& _Al)
; 989  : 		: _Mybase(_Al)
; 990  : 		{	// construct list by moving _Right, allocator
; 991  : 		_Assign_rv(_STD forward<_Myt>(_Right));
; 992  : 		}
; 993  : 
; 994  : 	_Myt& operator=(_Myt&& _Right)
; 995  : 		{	// assign by moving _Right
; 996  : 		if (this != &_Right)
; 997  : 			{	// different, assign it
; 998  : 			clear();
; 999  : 
; 1000 : 			if (_Alty::propagate_on_container_move_assignment::value
; 1001 : 				&& this->_Getal() != _Right._Getal())
; 1002 : 				this->_Change_alloc(_Right._Getal());
; 1003 : 
; 1004 : 			_Assign_rv(_STD forward<_Myt>(_Right));
; 1005 : 			}
; 1006 : 		return (*this);
; 1007 : 		}
; 1008 : 
; 1009 : 	void _Assign_rv(_Myt&& _Right)
; 1010 : 		{	// swap with empty *this, same allocator
; 1011 : 		this->_Swap_all(_Right);
; 1012 : 		_Swap_adl(this->_Myhead, _Right._Myhead);
; 1013 : 		_STD swap(this->_Mysize, _Right._Mysize);
; 1014 : 		}
; 1015 : 
; 1016 : 	void push_front(_Ty&& _Val)
; 1017 : 		{	// insert element at beginning
; 1018 : 		_Insert(_Unchecked_begin(), _STD forward<_Ty>(_Val));
; 1019 : 		}
; 1020 : 
; 1021 : 	void push_back(_Ty&& _Val)
; 1022 : 		{	// insert element at end
; 1023 : 		_Insert(_Unchecked_end(), _STD forward<_Ty>(_Val));
; 1024 : 		}
; 1025 : 
; 1026 : 	iterator insert(const_iterator _Where, _Ty&& _Val)
; 1027 : 		{	// insert _Val at _Where
; 1028 : 		return (emplace(_Where, _STD forward<_Ty>(_Val)));
; 1029 : 		}
; 1030 : 
; 1031 : 	template<class... _Valty>
; 1032 : 		void emplace_front(_Valty&&... _Val)
; 1033 : 		{	// insert element at beginning
; 1034 : 		_Insert(_Unchecked_begin(), _STD forward<_Valty>(_Val)...);
; 1035 : 		}
; 1036 : 
; 1037 : 	template<class... _Valty>
; 1038 : 		void emplace_back(_Valty&&... _Val)
; 1039 : 		{	// insert element at end
; 1040 : 		_Insert(_Unchecked_end(), _STD forward<_Valty>(_Val)...);
; 1041 : 		}
; 1042 : 
; 1043 : 	template<class... _Valty>
; 1044 : 		iterator emplace(const_iterator _Where, _Valty&&... _Val)
; 1045 : 		{	// insert element at _Where
; 1046 :  #if _ITERATOR_DEBUG_LEVEL == 2
; 1047 : 		if (_Where._Getcont() != this)
; 1048 : 			_DEBUG_ERROR("list emplace iterator outside range");
; 1049 :  #endif /* _ITERATOR_DEBUG_LEVEL == 2 */
; 1050 : 
; 1051 : 		_Insert(_Where._Unchecked(), _STD forward<_Valty>(_Val)...);
; 1052 : 		return (_Make_iter(--_Where));
; 1053 : 		}
; 1054 : 
; 1055 : 	template<class... _Valty>
; 1056 : 		void _Insert(_Unchecked_const_iterator _Where,
; 1057 : 		_Valty&&... _Val)
; 1058 : 		{	// insert element at _Where
; 1059 : 		_Nodeptr _Pnode = _Where._Mynode();
; 1060 : 		_Nodeptr _Newnode =
; 1061 : 			this->_Buynode(_Pnode, this->_Prevnode(_Pnode),
; 1062 : 				_STD forward<_Valty>(_Val)...);

	mov	r8, rax

; 1288 : 
; 1289 : 	void pop_back()
; 1290 : 		{	// erase element at end
; 1291 : 		erase(--end());
; 1292 : 		}
; 1293 : 
; 1294 : 	template<class _Iter>
; 1295 : 		typename enable_if<_Is_iterator<_Iter>::value,
; 1296 : 			void>::type
; 1297 : 		assign(_Iter _First, _Iter _Last)
; 1298 : 		{	// assign [_First, _Last), input iterators
; 1299 : 		iterator _Old = begin();
; 1300 : 		_TRY_BEGIN
; 1301 : 		for (; _First != _Last && _Old != end(); ++_First, ++_Old)
; 1302 : 			_Reusenode(_Old, *_First);
; 1303 : 		for (; _First != _Last; ++_First)
; 1304 : 			_Insert(_Unchecked_end(), *_First);
; 1305 : 		_CATCH_ALL
; 1306 : 		clear();
; 1307 : 		_RERAISE;
; 1308 : 		_CATCH_END
; 1309 : 		erase(_Old, end());
; 1310 : 		}
; 1311 : 
; 1312 : 	template<class _TArg>
; 1313 : 		void _Reusenode(iterator _Where, _TArg&& _Arg)
; 1314 : 		{	// destroy the element at _Where and reconstruct from _Arg
; 1315 : 		_TRY_BEGIN
; 1316 : 		this->_Getal().destroy(
; 1317 : 			_STD addressof(this->_Myval(_Where._Ptr)));
; 1318 : 		this->_Getal().construct(
; 1319 : 			_STD addressof(this->_Myval(_Where._Ptr)),
; 1320 : 			_STD forward<_TArg>(_Arg));
; 1321 : 		_CATCH_ALL
; 1322 : 		_Unlinknode(_Where);
; 1323 : 		this->_Getal().destroy(
; 1324 : 			_STD addressof(this->_Nextnode(_Where._Ptr)));
; 1325 : 		this->_Getal().destroy(
; 1326 : 			_STD addressof(this->_Prevnode(_Where._Ptr)));
; 1327 : 		this->_Getal().deallocate(_Where._Ptr, 1);
; 1328 : 		_RERAISE;
; 1329 : 		_CATCH_END
; 1330 : 		}
; 1331 : 
; 1332 : 	void assign(size_type _Count, const _Ty& _Val)
; 1333 : 		{	// assign _Count * _Val
; 1334 : 		clear();
; 1335 : 		_Insert_n(_Unchecked_begin(), _Count, _Val);
; 1336 : 		}
; 1337 : 
; 1338 : 	iterator insert(const_iterator _Where, const _Ty& _Val)
; 1339 : 		{	// insert _Val at _Where
; 1340 :  #if _ITERATOR_DEBUG_LEVEL == 2
; 1341 : 		if (_Where._Getcont() != this)
; 1342 : 			_DEBUG_ERROR("list insert iterator outside range");
; 1343 :  #endif /* _ITERATOR_DEBUG_LEVEL == 2 */
; 1344 : 
; 1345 : 		_Insert(_Where._Unchecked(), _Val);
; 1346 : 		return (_Make_iter(--_Where));
; 1347 : 		}
; 1348 : 
; 1349 : 	iterator insert(const_iterator _Where, size_type _Count, const _Ty& _Val)
; 1350 : 		{	// insert _Count * _Val at _Where
; 1351 :  #if _ITERATOR_DEBUG_LEVEL == 2
; 1352 : 		if (_Where._Getcont() != this)
; 1353 : 			_DEBUG_ERROR("list insert iterator outside range");
; 1354 :  #endif /* _ITERATOR_DEBUG_LEVEL == 2 */
; 1355 : 
; 1356 : 		iterator _Prev = _Make_iter(_Where);
; 1357 : 		if (_Prev == begin())
; 1358 : 			{	// insert sequence at beginning
; 1359 : 			_Insert_n(_Where._Unchecked(), _Count, _Val);
; 1360 : 			return (begin());
; 1361 : 			}
; 1362 : 		else
; 1363 : 			{	// insert sequence not at beginning
; 1364 : 			--_Prev;
; 1365 : 			_Insert_n(_Where._Unchecked(), _Count, _Val);
; 1366 : 			return (++_Prev);
; 1367 : 			}
; 1368 : 		}
; 1369 : 
; 1370 : 	template<class _Iter>
; 1371 : 		typename enable_if<_Is_iterator<_Iter>::value,
; 1372 : 			iterator>::type
; 1373 : 		insert(const_iterator _Where, _Iter _First, _Iter _Last)
; 1374 : 		{	// insert [_First, _Last) at _Where
; 1375 :  #if _ITERATOR_DEBUG_LEVEL == 2
; 1376 : 		if (_Where._Getcont() != this)
; 1377 : 			_DEBUG_ERROR("list insert iterator outside range");
; 1378 :  #endif /* _ITERATOR_DEBUG_LEVEL == 2 */
; 1379 : 
; 1380 : 		iterator _Prev = _Make_iter(_Where);
; 1381 : 		if (_Prev == begin())
; 1382 : 			{	// insert sequence at beginning
; 1383 : 			_Insert_range(_Where._Unchecked(), _First, _Last,
; 1384 : 				_Iter_cat(_First));
; 1385 : 			return (begin());
; 1386 : 			}
; 1387 : 		else
; 1388 : 			{	// insert sequence not at beginning
; 1389 : 			--_Prev;
; 1390 : 			_Insert_range(_Where._Unchecked(), _First, _Last,
; 1391 : 				_Iter_cat(_First));
; 1392 : 			return (++_Prev);
; 1393 : 			}
; 1394 : 		}
; 1395 : 
; 1396 : 	template<class _Iter>
; 1397 : 		void _Insert_range(_Unchecked_const_iterator _Where,
; 1398 : 			_Iter _First, _Iter _Last, input_iterator_tag)
; 1399 : 		{	// insert [_First, _Last) at _Where, input iterators
; 1400 : 		size_type _Num = 0;
; 1401 : 
; 1402 : 		_TRY_BEGIN
; 1403 : 		for (; _First != _Last; ++_First, ++_Num)
; 1404 : 			_Insert(_Where, *_First);
; 1405 : 		_CATCH_ALL
; 1406 : 		for (; 0 < _Num; --_Num)
; 1407 : 			{	// undo inserts
; 1408 : 			_Unchecked_const_iterator _Before = _Where;
; 1409 : 			_Unchecked_erase(--_Before);
; 1410 : 			}
; 1411 : 		_RERAISE;
; 1412 : 		_CATCH_END
; 1413 : 		}
; 1414 : 
; 1415 : 	template<class _Iter>
; 1416 : 		void _Insert_range(_Unchecked_const_iterator _Where,
; 1417 : 			_Iter _First, _Iter _Last, forward_iterator_tag)
; 1418 : 		{	// insert [_First, _Last) at _Where, forward iterators
; 1419 : 		_DEBUG_RANGE(_First, _Last);
; 1420 : 		_Iter _Next = _First;
; 1421 : 
; 1422 : 		_TRY_BEGIN
; 1423 : 		for (; _First != _Last; ++_First)
; 1424 : 			_Insert(_Where, *_First);
; 1425 : 		_CATCH_ALL
; 1426 : 		for (; _Next != _First; ++_Next)
; 1427 : 			{	// undo inserts
; 1428 : 			_Unchecked_const_iterator _Before = _Where;
; 1429 : 			_Unchecked_erase(--_Before);
; 1430 : 			}
; 1431 : 		_RERAISE;
; 1432 : 		_CATCH_END
; 1433 : 		}
; 1434 : 
; 1435 : 	_Nodeptr _Unlinknode(const_iterator _Where)
; 1436 : 		{	// unlink node at _Where from the list
; 1437 :  #if _ITERATOR_DEBUG_LEVEL == 2
; 1438 : 		if (_Where._Getcont() != this || _Where._Ptr == this->_Myhead)
; 1439 : 			_DEBUG_ERROR("list erase iterator outside range");
; 1440 : 		_Nodeptr _Pnode = (_Where)._Mynode();
; 1441 : 		_Orphan_ptr(*this, _Pnode);
; 1442 : 
; 1443 :  #else /* _ITERATOR_DEBUG_LEVEL == 2 */
; 1444 : 		_Nodeptr _Pnode = (_Where)._Mynode();
; 1445 :  #endif /* _ITERATOR_DEBUG_LEVEL == 2 */
; 1446 : 
; 1447 : 		this->_Nextnode(this->_Prevnode(_Pnode)) =
; 1448 : 			this->_Nextnode(_Pnode);
; 1449 : 		this->_Prevnode(this->_Nextnode(_Pnode)) =
; 1450 : 			this->_Prevnode(_Pnode);
; 1451 : 
; 1452 : 		--this->_Mysize;
; 1453 : 		return (_Pnode);
; 1454 : 		}
; 1455 : 
; 1456 : 	iterator erase(const_iterator _Where)
; 1457 : 		{	// erase element at _Where
; 1458 : 		_Nodeptr _Pnode = _Unlinknode(_Where++);
; 1459 : 		this->_Freenode(_Pnode);
; 1460 : 		return (_Make_iter(_Where));
; 1461 : 		}
; 1462 : 
; 1463 : 	void _Unchecked_erase(_Unchecked_const_iterator _Where)
; 1464 : 		{	// erase element at _Where
; 1465 : 		_Nodeptr _Pnode = _Where._Mynode();
; 1466 : 
; 1467 : 		this->_Nextnode(this->_Prevnode(_Pnode)) =
; 1468 : 			this->_Nextnode(_Pnode);
; 1469 : 		this->_Prevnode(this->_Nextnode(_Pnode)) =
; 1470 : 			this->_Prevnode(_Pnode);
; 1471 : 		this->_Freenode(_Pnode);
; 1472 : 		--this->_Mysize;
; 1473 : 		}
; 1474 : 
; 1475 : 	iterator erase(const_iterator _First, const_iterator _Last)
; 1476 : 		{	// erase [_First, _Last)
; 1477 : 		if (_First == begin() && _Last == end())
; 1478 : 			{	// erase all and return fresh iterator
; 1479 : 			clear();
; 1480 : 			return (end());
; 1481 : 			}
; 1482 : 		else
; 1483 : 			{	// erase subrange
; 1484 : 			while (_First != _Last)
; 1485 : 				_First = erase(_First);
; 1486 : 			return (_Make_iter(_Last));
; 1487 : 			}
; 1488 : 		}
; 1489 : 
; 1490 : 	void clear() _NOEXCEPT
; 1491 : 		{	// erase all
; 1492 :  #if _ITERATOR_DEBUG_LEVEL == 2
; 1493 : 		this->_Orphan_ptr(*this, nullptr);
; 1494 :  #endif /* _ITERATOR_DEBUG_LEVEL == 2 */
; 1495 : 
; 1496 : 		_Nodeptr _Pnode = this->_Nextnode(this->_Myhead);
; 1497 : 		this->_Nextnode(this->_Myhead) = this->_Myhead;
; 1498 : 		this->_Prevnode(this->_Myhead) = this->_Myhead;
; 1499 : 		this->_Mysize = 0;
; 1500 : 
; 1501 : 		for (_Nodeptr _Pnext; _Pnode != this->_Myhead; _Pnode = _Pnext)
; 1502 : 			{	// delete an element
; 1503 : 			_Pnext = this->_Nextnode(_Pnode);
; 1504 : 			this->_Freenode(_Pnode);
; 1505 : 			}
; 1506 : 		}
; 1507 : 
; 1508 : 	void swap(_Myt& _Right)
; 1509 : 		{	// exchange contents with _Right
; 1510 : 		if (this == &_Right)
; 1511 : 			;	// same object, do nothing
; 1512 : 		else if (this->_Getal() == _Right._Getal())
; 1513 : 			{	// same allocator, swap control information
; 1514 : 			this->_Swap_all(_Right);
; 1515 : 			_Swap_adl(this->_Myhead, _Right._Myhead);
; 1516 : 			_STD swap(this->_Mysize, _Right._Mysize);
; 1517 : 			}
; 1518 : 
; 1519 : 		else if (_Alty::propagate_on_container_swap::value)
; 1520 : 			{	// swap allocators and control information
; 1521 : 			this->_Swap_alloc(_Right);
; 1522 : 			_Swap_adl(this->_Myhead, _Right._Myhead);
; 1523 : 			_STD swap(this->_Mysize, _Right._Mysize);
; 1524 : 			}
; 1525 : 
; 1526 : 		else	// containers are incompatible
; 1527 : 
; 1528 :  #if _ITERATOR_DEBUG_LEVEL == 2
; 1529 : 			_DEBUG_ERROR("list containers incompatible for swap");
; 1530 : 
; 1531 :  #else /* ITERATOR_DEBUG_LEVEL == 2 */
; 1532 : 			_XSTD terminate();
; 1533 :  #endif /* ITERATOR_DEBUG_LEVEL == 2 */
; 1534 : 		}
; 1535 : 
; 1536 : 	void splice(const_iterator _Where, _Myt& _Right)
; 1537 : 		{	// splice all of _Right at _Where
; 1538 : 		if (this != &_Right && !_Right.empty())
; 1539 : 			{	// worth splicing, do it
; 1540 : 			_Splice(_Where, _Right, _Right.begin(), _Right.end(),
; 1541 : 				_Right._Mysize);
; 1542 : 			}
; 1543 : 		}
; 1544 : 
; 1545 : 	void splice(const_iterator _Where, _Myt&& _Right)
; 1546 : 		{	// splice all of _Right at _Where
; 1547 : 		splice(_Where, (_Myt&)_Right);
; 1548 : 		}
; 1549 : 
; 1550 : 	void splice(const_iterator _Where, _Myt& _Right,
; 1551 : 		const_iterator _First)
; 1552 : 		{	// splice _Right [_First, _First + 1) at _Where
; 1553 :  #if _ITERATOR_DEBUG_LEVEL == 2
; 1554 : 		if (_First == _Right.end())
; 1555 : 			_DEBUG_ERROR("list splice iterator outside range");
; 1556 : 		else
; 1557 : 
; 1558 :  #else /* _ITERATOR_DEBUG_LEVEL == 2 */
; 1559 : 		if (_First != _Right.end())
; 1560 :  #endif /* _ITERATOR_DEBUG_LEVEL == 2 */
; 1561 : 
; 1562 : 			{	// element exists, try splice
; 1563 : 			const_iterator _Last = _First;
; 1564 : 			++_Last;
; 1565 : 			if (this != &_Right
; 1566 : 				|| (_Where != _First && _Where != _Last))
; 1567 : 				_Splice(_Where, _Right, _First, _Last, 1);
; 1568 : 			}
; 1569 : 		}
; 1570 : 
; 1571 : 	void splice(const_iterator _Where, _Myt&& _Right,
; 1572 : 		const_iterator _First)
; 1573 : 		{	// splice _Right [_First, _First + 1) at _Where
; 1574 : 		splice(_Where, (_Myt&)_Right, _First);
; 1575 : 		}
; 1576 : 
; 1577 : 	void splice(const_iterator _Where,
; 1578 : 		_Myt& _Right, const_iterator _First, const_iterator _Last)
; 1579 : 		{	// splice _Right [_First, _Last) at _Where
; 1580 : 		if (_First != _Last && (this != &_Right || _Where != _Last))
; 1581 : 			{	// worth splicing, do it
; 1582 : 			size_type _Count = 0;
; 1583 : 
; 1584 : 			if (this == &_Right)
; 1585 : 				;	// just rearrange this list
; 1586 : 			else if (_First == _Right.begin() && _Last == _Right.end())
; 1587 : 				_Count = _Right._Mysize;	// splice in whole list
; 1588 : 			else
; 1589 : 				{	// count nodes and check for knot
; 1590 : 				const_iterator _Next = _First;
; 1591 : 
; 1592 : 				for (; _Next != _Last; ++_Next, ++_Count)
; 1593 : 					if (_Next == _Right.end())
; 1594 : 						_Xlength_error("list<T> bad splice");
; 1595 : 				}
; 1596 : 			_Splice(_Where, _Right, _First, _Last, _Count);
; 1597 : 			}
; 1598 : 		}
; 1599 : 
; 1600 : 	void splice(const_iterator _Where,
; 1601 : 		_Myt&& _Right, const_iterator _First, const_iterator _Last)
; 1602 : 		{	// splice _Right [_First, _Last) at _Where
; 1603 : 		splice(_Where, (_Myt&)_Right, _First, _Last);
; 1604 : 		}
; 1605 : 
; 1606 : 	void remove(const _Ty& _Val)
; 1607 : 		{	// erase each element matching _Val
; 1608 : 		iterator _Val_it = end();
; 1609 : 
; 1610 : 		for (iterator _First = begin(); _First != end(); )
; 1611 : 			if (*_First == _Val)
; 1612 : 				if (_STD addressof(*_First) == _STD addressof(_Val))
; 1613 : 					_Val_it = _First++;
; 1614 : 				else
; 1615 : 					_First = erase(_First);
; 1616 : 			else
; 1617 : 				++_First;
; 1618 : 
; 1619 : 		if (_Val_it != end())
; 1620 : 			erase(_Val_it);
; 1621 : 		}
; 1622 : 
; 1623 : 	template<class _Pr1>
; 1624 : 		void remove_if(_Pr1 _Pred)
; 1625 : 		{	// erase each element satisfying _Pred
; 1626 : 		for (iterator _First = begin(); _First != end(); )
; 1627 : 			if (_Pred(*_First))
; 1628 : 				_First = erase(_First);
; 1629 : 			else
; 1630 : 				++_First;
; 1631 : 		}
; 1632 : 
; 1633 : 	void unique()
; 1634 : 		{	// erase each element matching previous
; 1635 : 		unique(equal_to<>());
; 1636 : 		}
; 1637 : 
; 1638 : 	template<class _Pr2>
; 1639 : 		void unique(_Pr2 _Pred)
; 1640 : 		{	// erase each element satisfying _Pred with previous
; 1641 : 		const _Nodeptr _Phead = this->_Myhead;
; 1642 : 		_Nodeptr _Pprev = this->_Nextnode(_Phead);
; 1643 : 		_Nodeptr _Pnode = this->_Nextnode(_Pprev);
; 1644 : 
; 1645 : 		while (_Pnode != _Phead)
; 1646 : 			if (_Pred(_Pprev->_Myval, _Pnode->_Myval))
; 1647 : 				{	// match, remove it
; 1648 : 				const _Nodeptr _Perase = _Pnode;
; 1649 : 				_Pnode = this->_Nextnode(_Pnode);
; 1650 : 
; 1651 : 				this->_Nextnode(_Pprev) = _Pnode;
; 1652 : 				this->_Prevnode(_Pnode) = _Pprev;
; 1653 : 				this->_Freenode(_Perase);
; 1654 : 
; 1655 : 				--this->_Mysize;
; 1656 : 				}
; 1657 : 			else
; 1658 : 				{	// no match, advance
; 1659 : 				_Pprev = _Pnode;
; 1660 : 				_Pnode = this->_Nextnode(_Pnode);
; 1661 : 				}
; 1662 : 		}
; 1663 : 
; 1664 : 	void merge(_Myt& _Right)
; 1665 : 		{	// merge in elements from _Right, both ordered by operator<
; 1666 : 		merge(_Right, less<>());
; 1667 : 		}
; 1668 : 
; 1669 : 	void merge(_Myt&& _Right)
; 1670 : 		{	// merge in elements from _Right, both ordered by operator<
; 1671 : 		merge((_Myt&)_Right);
; 1672 : 		}
; 1673 : 
; 1674 : 	template<class _Pr2>
; 1675 : 		void merge(_Myt& _Right, _Pr2 _Pred)
; 1676 : 		{	// merge in elements from _Right, both ordered by _Pred
; 1677 : 		if (&_Right != this)
; 1678 : 			{	// safe to merge, do it
; 1679 : 			iterator _First1 = begin(), _Last1 = end();
; 1680 : 			iterator _First2 = _Right.begin(), _Last2 = _Right.end();
; 1681 : 			_DEBUG_ORDER_PRED(_First1, _Last1, _Pred);
; 1682 : 			_DEBUG_ORDER_PRED(_First2, _Last2, _Pred);
; 1683 : 
; 1684 : 			while (_First1 != _Last1 && _First2 != _Last2)
; 1685 : 				if (_DEBUG_LT_PRED(_Pred, *_First2, *_First1))
; 1686 : 					{	// splice in an element from _Right
; 1687 : 					iterator _Mid2 = _First2;
; 1688 : 					_Splice(_First1, _Right, _First2, ++_Mid2, 1);
; 1689 : 					_First2 = _Mid2;
; 1690 : 					}
; 1691 : 				else
; 1692 : 					++_First1;
; 1693 : 
; 1694 : 			if (_First2 != _Last2)
; 1695 : 				_Splice(_Last1, _Right, _First2, _Last2,
; 1696 : 					_Right._Mysize);	// splice remainder of _Right
; 1697 : 			}
; 1698 : 		}
; 1699 : 
; 1700 : 	template<class _Pr2>
; 1701 : 		void merge(_Myt&& _Right, _Pr2 _Pred)
; 1702 : 		{	// merge in elements from _Right, both ordered by _Pred
; 1703 : 		merge((_Myt&)_Right, _Pred);
; 1704 : 		}
; 1705 : 
; 1706 : 	void sort()
; 1707 : 		{	// order sequence, using operator<
; 1708 : 		sort(less<>());
; 1709 : 		}
; 1710 : 
; 1711 : 	template<class _Pr2>
; 1712 : 		void sort(_Pr2 _Pred)
; 1713 : 		{	// order sequence, using _Pred
; 1714 : 		if (2 <= this->_Mysize)
; 1715 : 			{	// worth sorting, do it
; 1716 : 			const size_t _MAXBINS = 25;
; 1717 : 			_Myt _Templist(this->_Getal()), _Binlist[_MAXBINS + 1];
; 1718 : 			size_t _Maxbin = 0;
; 1719 : 
; 1720 : 			while (!empty())
; 1721 : 				{	// sort another element, using bins
; 1722 : 				_Templist._Splice_same(_Templist.begin(), *this, begin(),
; 1723 : 					++begin(), 1);
; 1724 : 
; 1725 : 				size_t _Bin;
; 1726 : 				for (_Bin = 0; _Bin < _Maxbin && !_Binlist[_Bin].empty();
; 1727 : 					++_Bin)
; 1728 : 					{	// merge into ever larger bins
; 1729 : 					_Binlist[_Bin].merge(_Templist, _Pred);
; 1730 : 					_Binlist[_Bin].swap(_Templist);
; 1731 : 					}
; 1732 : 
; 1733 : 				if (_Bin == _MAXBINS)
; 1734 : 					_Binlist[_Bin - 1].merge(_Templist, _Pred);
; 1735 : 				else
; 1736 : 					{	// spill to new bin, while they last
; 1737 : 					_Binlist[_Bin].swap(_Templist);
; 1738 : 					if (_Bin == _Maxbin)
; 1739 : 						++_Maxbin;
; 1740 : 					}
; 1741 : 				}
; 1742 : 
; 1743 : 			for (size_t _Bin = 1; _Bin < _Maxbin; ++_Bin)
; 1744 : 				_Binlist[_Bin].merge(_Binlist[_Bin - 1],
; 1745 : 					_Pred);	// merge up
; 1746 : 
; 1747 : 			_Analysis_assume_(0 < _Maxbin);
; 1748 : 
; 1749 : 			splice(begin(), _Binlist[_Maxbin - 1]);	// result in last bin
; 1750 : 			}
; 1751 : 		}
; 1752 : 
; 1753 : 	void reverse() _NOEXCEPT
; 1754 : 		{	// reverse sequence
; 1755 : 		const _Nodeptr _Phead = this->_Myhead;
; 1756 : 		_Nodeptr _Pnode = _Phead;
; 1757 : 
; 1758 : 		for (; ; )
; 1759 : 			{	// flip pointers in a node
; 1760 : 			const _Nodeptr _Pnext = this->_Nextnode(_Pnode);
; 1761 : 			this->_Nextnode(_Pnode) = this->_Prevnode(_Pnode);
; 1762 : 			this->_Prevnode(_Pnode) = _Pnext;
; 1763 : 
; 1764 : 			if (_Pnext == _Phead)
; 1765 : 				break;
; 1766 : 			_Pnode = _Pnext;
; 1767 : 			}
; 1768 : 		}
; 1769 : 
; 1770 : 	void _Splice(const_iterator _Where,
; 1771 : 		_Myt& _Right, const_iterator _First, const_iterator _Last,
; 1772 : 		size_type _Count)
; 1773 : 		{	// splice _Right [_First, _Last) before _Where
; 1774 :  #if _ITERATOR_DEBUG_LEVEL == 2
; 1775 : 		if (_Where._Getcont() != this)
; 1776 : 			_DEBUG_ERROR("list splice iterator outside range");
; 1777 : 		if (this->_Getal() != _Right._Getal())
; 1778 : 			_DEBUG_ERROR("list containers incompatible for splice");
; 1779 : 
; 1780 : 		if (this != &_Right)
; 1781 : 			{	// transfer ownership
; 1782 : 			_Lockit _Lock(_LOCK_DEBUG);
; 1783 : 
; 1784 : 			const bool _One = _Count == 1;
; 1785 : 			const bool _All = _Count == _Right.size();
; 1786 : 			const bool _Some = !_One && !_All;
; 1787 : 
; 1788 : 			_Nodeptr _Oldprev = _First._Ptr->_Prev;
; 1789 : 
; 1790 : 			if (_Some)
; 1791 : 				for (_Nodeptr _Ptr = _First._Ptr; _Ptr != _Last._Ptr;
; 1792 : 					_Ptr = _Ptr->_Next)
; 1793 : 					{	// mark _Prev pointers
; 1794 : 					_Ptr->_Prev = 0;
; 1795 : 					}
; 1796 : 
; 1797 : 			const_iterator **_Pnext = (const_iterator **)_Right._Getpfirst();
; 1798 : 
; 1799 : 			if (_Pnext == 0)
; 1800 : 				_DEBUG_ERROR("list container corrupted");
; 1801 : 
; 1802 : 			while (*_Pnext != 0)
; 1803 : 				{	// check the iterator
; 1804 : 				const_iterator& _Iter = **_Pnext;
; 1805 : 
; 1806 : 				if ((_One && _Iter._Ptr == _First._Ptr)
; 1807 : 					|| (_All && _Iter._Ptr != _Right._Myhead)
; 1808 : 					|| (_Some && _Iter._Ptr->_Prev == 0))
; 1809 : 					{	// adopt the iterator
; 1810 : 					*_Pnext = (const_iterator *)_Iter._Mynextiter;
; 1811 : 					_Iter._Myproxy = this->_Myproxy;
; 1812 : 					_Iter._Mynextiter = this->_Myproxy->_Myfirstiter;
; 1813 : 					this->_Myproxy->_Myfirstiter = &_Iter;
; 1814 : 					}
; 1815 : 				else
; 1816 : 					{	// skip the iterator
; 1817 : 					_Pnext = (const_iterator **)_Iter._Getpnext();
; 1818 : 					}
; 1819 : 				}
; 1820 : 
; 1821 : 			if (_Some)
; 1822 : 				for (_Nodeptr _Ptr = _First._Ptr; _Ptr != _Last._Ptr;
; 1823 : 					_Ptr = _Ptr->_Next)
; 1824 : 					{	// restore _Prev pointers
; 1825 : 					_Ptr->_Prev = _Oldprev;
; 1826 : 					_Oldprev = _Ptr;
; 1827 : 					}
; 1828 : 			}
; 1829 : 
; 1830 :  #else /* _ITERATOR_DEBUG_LEVEL == 2 */
; 1831 : 		if (this->_Getal() != _Right._Getal())
; 1832 : 			_XSTD terminate();
; 1833 :  #endif /* _ITERATOR_DEBUG_LEVEL == 2 */
; 1834 : 
; 1835 : 		_Splice_same(_Where, _Right, _First, _Last, _Count);
; 1836 : 		}
; 1837 : 
; 1838 : 	void _Splice_same(const_iterator _Where,
; 1839 : 		_Myt& _Right, const_iterator _First, const_iterator _Last,
; 1840 : 		size_type _Count)
; 1841 : 		{	// splice _Right [_First, _Last) before _Where
; 1842 : 		if (this != &_Right)
; 1843 : 			{	// splicing from another list, adjust counts
; 1844 : 			_Incsize(_Count);
; 1845 : 			_Right._Mysize -= _Count;
; 1846 : 			}
; 1847 : 		this->_Nextnode(this->_Prevnode(_First._Mynode())) =
; 1848 : 			_Last._Mynode();
; 1849 : 		this->_Nextnode(this->_Prevnode(_Last._Mynode())) =
; 1850 : 			_Where._Mynode();
; 1851 : 		this->_Nextnode(this->_Prevnode(_Where._Mynode())) =
; 1852 : 			_First._Mynode();
; 1853 : 
; 1854 : 		_Nodeptr _Pnode = this->_Prevnode(_Where._Mynode());
; 1855 : 		this->_Prevnode(_Where._Mynode()) =
; 1856 : 			this->_Prevnode(_Last._Mynode());
; 1857 : 		this->_Prevnode(_Last._Mynode()) =
; 1858 : 			this->_Prevnode(_First._Mynode());
; 1859 : 		this->_Prevnode(_First._Mynode()) = _Pnode;
; 1860 : 		}
; 1861 : 
; 1862 : 	void _Unchecked_splice(_Unchecked_const_iterator _Where,
; 1863 : 		_Unchecked_const_iterator _First,
; 1864 : 		_Unchecked_const_iterator _Last)
; 1865 : 		{	// splice [_First, _Last) before _Where
; 1866 : 		this->_Nextnode(this->_Prevnode(_First._Mynode())) =
; 1867 : 			_Last._Mynode();
; 1868 : 		this->_Nextnode(this->_Prevnode(_Last._Mynode())) =
; 1869 : 			_Where._Mynode();
; 1870 : 		this->_Nextnode(this->_Prevnode(_Where._Mynode())) =
; 1871 : 			_First._Mynode();
; 1872 : 
; 1873 : 		_Nodeptr _Pnode = this->_Prevnode(_Where._Mynode());
; 1874 : 		this->_Prevnode(_Where._Mynode()) =
; 1875 : 			this->_Prevnode(_Last._Mynode());
; 1876 : 		this->_Prevnode(_Last._Mynode()) =
; 1877 : 			this->_Prevnode(_First._Mynode());
; 1878 : 		this->_Prevnode(_First._Mynode()) = _Pnode;
; 1879 : 		}
; 1880 : 
; 1881 : 	void _Tidy()
; 1882 : 		{	// free all storage
; 1883 : 		clear();
; 1884 : 		}
; 1885 : 
; 1886 : 	void _Insert_n(_Unchecked_const_iterator _Where,
; 1887 : 		size_type _Count, const _Ty& _Val)
; 1888 : 		{	// insert _Count * _Val at _Where
; 1889 : 		size_type _Countsave = _Count;
; 1890 : 
; 1891 : 		_TRY_BEGIN
; 1892 : 		for (; 0 < _Count; --_Count)
; 1893 : 			_Insert(_Where, _Val);
; 1894 : 		_CATCH_ALL
; 1895 : 		for (; _Count < _Countsave; ++_Count)
; 1896 : 			{	// undo inserts
; 1897 : 			_Unchecked_const_iterator _Before = _Where;
; 1898 : 			_Unchecked_erase(--_Before);
; 1899 : 			}
; 1900 : 		_RERAISE;
; 1901 : 		_CATCH_END
; 1902 : 		}
; 1903 : 
; 1904 : 	void _Incsize(size_type _Count)
; 1905 : 		{	// alter element count, with checking
; 1906 : 		if (max_size() - this->_Mysize - 1 < _Count)

	mov	rax, QWORD PTR [rbx+8]
	sub	rdx, rax
	cmp	rdx, 1
	jae	SHORT $LN19@push_back

; 1907 : 			_Xlength_error("list<T> too long");

	lea	rcx, OFFSET FLAT:??_C@_0BB@MOGOBHAF@list?$DMT?$DO?5too?5long?$AA@
	call	QWORD PTR __imp_?_Xlength_error@std@@YAXPEBD@Z
	int	3
$LN19@push_back:

; 1908 : 		this->_Mysize += _Count;

	inc	rax
	mov	QWORD PTR [rbx+8], rax

; 1286 : 		_Insert(_Unchecked_end(), _Val);
; 1287 : 		}

	mov	rbx, QWORD PTR [rsp+48]

; 1063 : 		_Incsize(1);
; 1064 : 		this->_Prevnode(_Pnode) = _Newnode;

	mov	QWORD PTR [rdi+8], r8

; 97   : 		}
; 98   : 
; 99   : 	_Nodeptr _Ptr;	// pointer to node
; 100  : 	};
; 101  : 
; 102  : 	// TEMPLATE CLASS _List_unchecked_iterator
; 103  : template<class _Mylist>
; 104  : 	class _List_unchecked_iterator
; 105  : 		: public _List_unchecked_const_iterator<_Mylist>
; 106  : 	{	// unchecked iterator for mutable list
; 107  : public:
; 108  : 	typedef _List_unchecked_iterator<_Mylist> _Myiter;
; 109  : 	typedef _List_unchecked_const_iterator<_Mylist> _Mybase;
; 110  : 	typedef bidirectional_iterator_tag iterator_category;
; 111  : 
; 112  : 	typedef typename _Mylist::_Nodeptr _Nodeptr;
; 113  : 	typedef typename _Mylist::value_type value_type;
; 114  : 	typedef typename _Mylist::difference_type difference_type;
; 115  : 	typedef typename _Mylist::pointer pointer;
; 116  : 	typedef typename _Mylist::reference reference;
; 117  : 
; 118  : 	_List_unchecked_iterator()
; 119  : 		{	// construct with null node
; 120  : 		}
; 121  : 
; 122  : 	_List_unchecked_iterator(_Nodeptr _Pnode, const _Mylist *_Plist)
; 123  : 		: _Mybase(_Pnode, _Plist)
; 124  : 		{	// construct with node pointer _Pnode
; 125  : 		}
; 126  : 
; 127  : 	reference operator*() const
; 128  : 		{	// return designated value
; 129  : 		return ((reference)**(_Mybase *)this);
; 130  : 		}
; 131  : 
; 132  : 	pointer operator->() const
; 133  : 		{	// return pointer to class object
; 134  : 		return (_STD pointer_traits<pointer>::pointer_to(**this));
; 135  : 		}
; 136  : 
; 137  : 	_Myiter& operator++()
; 138  : 		{	// preincrement
; 139  : 		++(*(_Mybase *)this);
; 140  : 		return (*this);
; 141  : 		}
; 142  : 
; 143  : 	_Myiter operator++(int)
; 144  : 		{	// postincrement
; 145  : 		_Myiter _Tmp = *this;
; 146  : 		++*this;
; 147  : 		return (_Tmp);
; 148  : 		}
; 149  : 
; 150  : 	_Myiter& operator--()
; 151  : 		{	// predecrement
; 152  : 		--(*(_Mybase *)this);
; 153  : 		return (*this);
; 154  : 		}
; 155  : 
; 156  : 	_Myiter operator--(int)
; 157  : 		{	// postdecrement
; 158  : 		_Myiter _Tmp = *this;
; 159  : 		--*this;
; 160  : 		return (_Tmp);
; 161  : 		}
; 162  : 	};
; 163  : 
; 164  : 	// TEMPLATE CLASS _List_const_iterator
; 165  : template<class _Mylist>
; 166  : 	class _List_const_iterator
; 167  : 		: public _List_unchecked_const_iterator<_Mylist, _Iterator_base>
; 168  : 	{	// iterator for nonmutable list
; 169  : public:
; 170  : 	typedef _List_const_iterator<_Mylist> _Myiter;
; 171  : 	typedef _List_unchecked_const_iterator<_Mylist, _Iterator_base> _Mybase;
; 172  : 	typedef bidirectional_iterator_tag iterator_category;
; 173  : 
; 174  : 	typedef typename _Mylist::_Nodeptr _Nodeptr;
; 175  : 	typedef typename _Mylist::value_type value_type;
; 176  : 	typedef typename _Mylist::difference_type difference_type;
; 177  : 	typedef typename _Mylist::const_pointer pointer;
; 178  : 	typedef typename _Mylist::const_reference reference;
; 179  : 
; 180  : 	_List_const_iterator()
; 181  : 		: _Mybase()
; 182  : 		{	// construct with null node pointer
; 183  : 		}
; 184  : 
; 185  : 	_List_const_iterator(_Nodeptr _Pnode, const _Mylist *_Plist)
; 186  : 		: _Mybase(_Pnode, _Plist)
; 187  : 		{	// construct with node pointer _Pnode
; 188  : 		}
; 189  : 
; 190  : 	typedef _List_unchecked_const_iterator<_Mylist> _Unchecked_type;
; 191  : 
; 192  : 	_Myiter& _Rechecked(_Unchecked_type _Right)
; 193  : 		{	// reset from unchecked iterator
; 194  : 		this->_Ptr = _Right._Ptr;
; 195  : 		return (*this);
; 196  : 		}
; 197  : 
; 198  : 	_Unchecked_type _Unchecked() const
; 199  : 		{	// make an unchecked iterator
; 200  : 		return (_Unchecked_type(this->_Ptr, (_Mylist *)this->_Getcont()));
; 201  : 		}
; 202  : 
; 203  : 	reference operator*() const
; 204  : 		{	// return designated value
; 205  :  #if _ITERATOR_DEBUG_LEVEL == 2
; 206  : 		if (this->_Getcont() == 0
; 207  : 			|| this->_Ptr == 0
; 208  : 			|| this->_Ptr == ((_Mylist *)this->_Getcont())->_Myhead)
; 209  : 			{	// report error
; 210  : 			_DEBUG_ERROR("list iterator not dereferencable");
; 211  : 			_SCL_SECURE_OUT_OF_RANGE;
; 212  : 			}
; 213  : 
; 214  :  #elif _ITERATOR_DEBUG_LEVEL == 1
; 215  : 		_SCL_SECURE_VALIDATE(this->_Getcont() != 0 && this->_Ptr != 0);
; 216  : 		_SCL_SECURE_VALIDATE_RANGE(this->_Ptr !=
; 217  : 			((_Mylist *)this->_Getcont())->_Myhead);
; 218  :  #endif /* _ITERATOR_DEBUG_LEVEL */
; 219  : 
; 220  : 		return (_Mylist::_Myval(this->_Ptr));
; 221  : 		}
; 222  : 
; 223  : 	_Myiter& operator++()
; 224  : 		{	// preincrement
; 225  :  #if _ITERATOR_DEBUG_LEVEL == 2
; 226  : 		if (this->_Getcont() == 0
; 227  : 			|| this->_Ptr == 0
; 228  : 			|| this->_Ptr == ((_Mylist *)this->_Getcont())->_Myhead)
; 229  : 			{	// report error
; 230  : 			_DEBUG_ERROR("list iterator not incrementable");
; 231  : 			_SCL_SECURE_OUT_OF_RANGE;
; 232  : 			}
; 233  : 
; 234  :  #elif _ITERATOR_DEBUG_LEVEL == 1
; 235  : 		_SCL_SECURE_VALIDATE(this->_Getcont() != 0 && this->_Ptr != 0);
; 236  : 		_SCL_SECURE_VALIDATE_RANGE(this->_Ptr !=
; 237  : 			((_Mylist *)this->_Getcont())->_Myhead);
; 238  :  #endif /* _ITERATOR_DEBUG_LEVEL */
; 239  : 
; 240  : 		this->_Ptr = _Mylist::_Nextnode(this->_Ptr);
; 241  : 		return (*this);
; 242  : 		}
; 243  : 
; 244  : 	_Myiter operator++(int)
; 245  : 		{	// postincrement
; 246  : 		_Myiter _Tmp = *this;
; 247  : 		++*this;
; 248  : 		return (_Tmp);
; 249  : 		}
; 250  : 
; 251  : 	_Myiter& operator--()
; 252  : 		{	// predecrement
; 253  :  #if _ITERATOR_DEBUG_LEVEL == 2
; 254  : 		if (this->_Getcont() == 0
; 255  : 			|| this->_Ptr == 0
; 256  : 			|| (this->_Ptr = _Mylist::_Prevnode(this->_Ptr))
; 257  : 				== ((_Mylist *)this->_Getcont())->_Myhead)
; 258  : 			{	// report error
; 259  : 			_DEBUG_ERROR("list iterator not decrementable");
; 260  : 			_SCL_SECURE_OUT_OF_RANGE;
; 261  : 			}
; 262  : 
; 263  :  #elif _ITERATOR_DEBUG_LEVEL == 1
; 264  : 		_SCL_SECURE_VALIDATE(this->_Getcont() != 0 && this->_Ptr != 0);
; 265  : 		this->_Ptr = _Mylist::_Prevnode(this->_Ptr);
; 266  : 		_SCL_SECURE_VALIDATE_RANGE(this->_Ptr !=
; 267  : 			((_Mylist *)this->_Getcont())->_Myhead);
; 268  : 
; 269  :  #else /* _ITERATOR_DEBUG_LEVEL */
; 270  : 		this->_Ptr = _Mylist::_Prevnode(this->_Ptr);
; 271  :  #endif /* _ITERATOR_DEBUG_LEVEL */
; 272  : 
; 273  : 		return (*this);
; 274  : 		}
; 275  : 
; 276  : 	_Myiter operator--(int)
; 277  : 		{	// postdecrement
; 278  : 		_Myiter _Tmp = *this;
; 279  : 		--*this;
; 280  : 		return (_Tmp);
; 281  : 		}
; 282  : 
; 283  : 	bool operator==(const _Myiter& _Right) const
; 284  : 		{	// test for iterator equality
; 285  :  #if _ITERATOR_DEBUG_LEVEL == 2
; 286  : 		if (this->_Getcont() == 0
; 287  : 			|| this->_Getcont() != _Right._Getcont())
; 288  : 			{	// report error
; 289  : 			_DEBUG_ERROR("list iterators incompatible");
; 290  : 			_SCL_SECURE_INVALID_ARGUMENT;
; 291  : 			}
; 292  : 
; 293  :  #elif _ITERATOR_DEBUG_LEVEL == 1
; 294  : 		_SCL_SECURE_VALIDATE(this->_Getcont() != 0
; 295  : 			&& this->_Getcont() == _Right._Getcont());
; 296  :  #endif /* _ITERATOR_DEBUG_LEVEL */
; 297  : 
; 298  : 		return (this->_Ptr == _Right._Ptr);
; 299  : 		}
; 300  : 
; 301  : 	bool operator!=(const _Myiter& _Right) const
; 302  : 		{	// test for iterator inequality
; 303  : 		return (!(*this == _Right));
; 304  : 		}
; 305  : 	};
; 306  : 
; 307  : template<class _Mylist> inline
; 308  : 	typename _List_const_iterator<_Mylist>::_Unchecked_type
; 309  : 		_Unchecked(_List_const_iterator<_Mylist> _Iter)
; 310  : 	{	// convert to unchecked
; 311  : 	return (_Iter._Unchecked());
; 312  : 	}
; 313  : 
; 314  : template<class _Mylist> inline
; 315  : 	_List_const_iterator<_Mylist>&
; 316  : 		_Rechecked(_List_const_iterator<_Mylist>& _Iter,
; 317  : 			typename _List_const_iterator<_Mylist>
; 318  : 				::_Unchecked_type _Right)
; 319  : 	{	// convert to checked
; 320  : 	return (_Iter._Rechecked(_Right));
; 321  : 	}
; 322  : 
; 323  : 	// TEMPLATE CLASS _List_iterator
; 324  : template<class _Mylist>
; 325  : 	class _List_iterator
; 326  : 		: public _List_const_iterator<_Mylist>
; 327  : 	{	// iterator for mutable list
; 328  : public:
; 329  : 	typedef _List_iterator<_Mylist> _Myiter;
; 330  : 	typedef _List_const_iterator<_Mylist> _Mybase;
; 331  : 	typedef bidirectional_iterator_tag iterator_category;
; 332  : 
; 333  : 	typedef typename _Mylist::_Nodeptr _Nodeptr;
; 334  : 	typedef typename _Mylist::value_type value_type;
; 335  : 	typedef typename _Mylist::difference_type difference_type;
; 336  : 	typedef typename _Mylist::pointer pointer;
; 337  : 	typedef typename _Mylist::reference reference;
; 338  : 
; 339  : 	_List_iterator()
; 340  : 		{	// construct with null node
; 341  : 		}
; 342  : 
; 343  : 	_List_iterator(_Nodeptr _Pnode, const _Mylist *_Plist)
; 344  : 		: _Mybase(_Pnode, _Plist)
; 345  : 		{	// construct with node pointer _Pnode
; 346  : 		}
; 347  : 
; 348  : 	typedef _List_unchecked_iterator<_Mylist> _Unchecked_type;
; 349  : 
; 350  : 	_Myiter& _Rechecked(_Unchecked_type _Right)
; 351  : 		{	// reset from unchecked iterator
; 352  : 		this->_Ptr = _Right._Ptr;
; 353  : 		return (*this);
; 354  : 		}
; 355  : 
; 356  : 	_Unchecked_type _Unchecked() const
; 357  : 		{	// make an unchecked iterator
; 358  : 		return (_Unchecked_type(this->_Ptr, (_Mylist *)this->_Getcont()));
; 359  : 		}
; 360  : 
; 361  : 	reference operator*() const
; 362  : 		{	// return designated value
; 363  : 		return ((reference)**(_Mybase *)this);
; 364  : 		}
; 365  : 
; 366  : 	pointer operator->() const
; 367  : 		{	// return pointer to class object
; 368  : 		return (_STD pointer_traits<pointer>::pointer_to(**this));
; 369  : 		}
; 370  : 
; 371  : 	_Myiter& operator++()
; 372  : 		{	// preincrement
; 373  : 		++(*(_Mybase *)this);
; 374  : 		return (*this);
; 375  : 		}
; 376  : 
; 377  : 	_Myiter operator++(int)
; 378  : 		{	// postincrement
; 379  : 		_Myiter _Tmp = *this;
; 380  : 		++*this;
; 381  : 		return (_Tmp);
; 382  : 		}
; 383  : 
; 384  : 	_Myiter& operator--()
; 385  : 		{	// predecrement
; 386  : 		--(*(_Mybase *)this);
; 387  : 		return (*this);
; 388  : 		}
; 389  : 
; 390  : 	_Myiter operator--(int)
; 391  : 		{	// postdecrement
; 392  : 		_Myiter _Tmp = *this;
; 393  : 		--*this;
; 394  : 		return (_Tmp);
; 395  : 		}
; 396  : 	};
; 397  : 
; 398  : template<class _Mylist> inline
; 399  : 	typename _List_iterator<_Mylist>::_Unchecked_type
; 400  : 		_Unchecked(_List_iterator<_Mylist> _Iter)
; 401  : 	{	// convert to unchecked
; 402  : 	return (_Iter._Unchecked());
; 403  : 	}
; 404  : 
; 405  : template<class _Mylist> inline
; 406  : 	_List_iterator<_Mylist>&
; 407  : 		_Rechecked(_List_iterator<_Mylist>& _Iter,
; 408  : 			typename _List_iterator<_Mylist>
; 409  : 				::_Unchecked_type _Right)
; 410  : 	{	// convert to checked
; 411  : 	return (_Iter._Rechecked(_Right));
; 412  : 	}
; 413  : 
; 414  : 		// list TYPE WRAPPERS
; 415  : template<class _Value_type,
; 416  : 	class _Size_type,
; 417  : 	class _Difference_type,
; 418  : 	class _Pointer,
; 419  : 	class _Const_pointer,
; 420  : 	class _Reference,
; 421  : 	class _Const_reference,
; 422  : 	class _Nodeptr_type>
; 423  : 	struct _List_iter_types
; 424  : 	{	// wraps types needed by iterators
; 425  : 	typedef _Value_type value_type;
; 426  : 	typedef _Size_type size_type;
; 427  : 	typedef _Difference_type difference_type;
; 428  : 	typedef _Pointer pointer;
; 429  : 	typedef _Const_pointer const_pointer;
; 430  : 	typedef _Reference reference;
; 431  : 	typedef _Const_reference const_reference;
; 432  : 	typedef _Nodeptr_type _Nodeptr;
; 433  : 	};
; 434  : 
; 435  : template<class _Value_type,
; 436  : 	class _Voidptr>
; 437  : 	struct _List_node
; 438  : 		{	// list node
; 439  : 		_Voidptr _Next;	// successor node, or first element if head
; 440  : 		_Voidptr _Prev;	// predecessor node, or last element if head
; 441  : 		_Value_type _Myval;	// the stored value, unused if head
; 442  : 
; 443  : 	private:
; 444  : 		_List_node& operator=(const _List_node&);
; 445  : 		};
; 446  : 
; 447  : template<class _Value_type>
; 448  : 	struct _List_node<_Value_type, void *>
; 449  : 		{	// list node
; 450  : 		typedef _List_node<_Value_type, void *> *_Nodeptr;
; 451  : 		_Nodeptr _Next;	// successor node, or first element if head
; 452  : 		_Nodeptr _Prev;	// predecessor node, or last element if head
; 453  : 		_Value_type _Myval;	// the stored value, unused if head
; 454  : 
; 455  : 	private:
; 456  : 		_List_node& operator=(const _List_node&);
; 457  : 		};
; 458  : 
; 459  : template<class _Ty>
; 460  : 	struct _List_simple_types
; 461  : 		: public _Simple_types<_Ty>
; 462  : 	{	// wraps types needed by iterators
; 463  : 	typedef _List_node<_Ty, void *> _Node;
; 464  : 	typedef _Node *_Nodeptr;
; 465  : 	};
; 466  : 
; 467  : template<class _Ty,
; 468  : 	class _Alloc0>
; 469  : 	struct _List_base_types
; 470  : 	{	// types needed for a container base
; 471  : 	typedef _Alloc0 _Alloc;
; 472  : 	typedef _List_base_types<_Ty, _Alloc> _Myt;
; 473  : 
; 474  : 	typedef _Wrap_alloc<_Alloc> _Alty0;
; 475  : 	typedef typename _Alty0::template rebind<_Ty>::other _Alty;
; 476  : 
; 477  : 
; 478  : 	typedef typename _Get_voidptr<_Alty, typename _Alty::pointer>::type
; 479  : 		_Voidptr;
; 480  : 	typedef _List_node<typename _Alty::value_type,
; 481  : 		_Voidptr> _Node;
; 482  : 
; 483  : 	typedef typename _Alty::template rebind<_Node>::other _Alnod_type;
; 484  : 	typedef typename _Alnod_type::pointer _Nodeptr;
; 485  : 	typedef _Nodeptr& _Nodepref;
; 486  : 
; 487  : 	typedef typename _If<_Is_simple_alloc<_Alty>::value,
; 488  : 		_List_simple_types<typename _Alty::value_type>,
; 489  : 		_List_iter_types<typename _Alty::value_type,
; 490  : 			typename _Alty::size_type,
; 491  : 			typename _Alty::difference_type,
; 492  : 			typename _Alty::pointer,
; 493  : 			typename _Alty::const_pointer,
; 494  : 			typename _Alty::reference,
; 495  : 			typename _Alty::const_reference,
; 496  : 			_Nodeptr> >::type
; 497  : 		_Val_types;
; 498  : 	};
; 499  : 
; 500  : 		// TEMPLATE CLASS _List_val
; 501  : template<class _Val_types>
; 502  : 	class _List_val
; 503  : 		: public _Container_base
; 504  : 	{	// base class for list to hold data
; 505  : public:
; 506  : 	typedef _List_val<_Val_types> _Myt;
; 507  : 
; 508  : 	typedef typename _Val_types::_Nodeptr _Nodeptr;
; 509  : 	typedef _Nodeptr& _Nodepref;
; 510  : 
; 511  : 	typedef typename _Val_types::value_type value_type;
; 512  : 	typedef typename _Val_types::size_type size_type;
; 513  : 	typedef typename _Val_types::difference_type difference_type;
; 514  : 	typedef typename _Val_types::pointer pointer;
; 515  : 	typedef typename _Val_types::const_pointer const_pointer;
; 516  : 	typedef typename _Val_types::reference reference;
; 517  : 	typedef typename _Val_types::const_reference const_reference;
; 518  : 
; 519  : 	typedef _List_const_iterator<_Myt> const_iterator;
; 520  : 	typedef _List_iterator<_Myt> iterator;
; 521  : 
; 522  : 	typedef _List_unchecked_const_iterator<_Myt> _Unchecked_const_iterator;
; 523  : 	typedef _List_unchecked_iterator<_Myt> _Unchecked_iterator;
; 524  : 
; 525  : 	_List_val()
; 526  : 		{	// initialize data
; 527  : 		this->_Myhead = 0;
; 528  : 		this->_Mysize = 0;
; 529  : 		}
; 530  : 
; 531  : 	static _Nodepref _Nextnode(_Nodeptr _Pnode)
; 532  : 		{	// return reference to successor pointer in node
; 533  : 		return ((_Nodepref)_Pnode->_Next);

	mov	rax, QWORD PTR [r8+8]

; 1065 : 		this->_Nextnode(this->_Prevnode(_Newnode)) = _Newnode;

	mov	QWORD PTR [rax], r8

; 1286 : 		_Insert(_Unchecked_end(), _Val);
; 1287 : 		}

	add	rsp, 32					; 00000020H
	pop	rdi
	ret	0
$LN43@push_back:
?push_back@?$list@U?$_vector3@M@@V?$xalloc@U?$_vector3@M@@@@@std@@QEAAXAEBU?$_vector3@M@@@Z ENDP ; std::list<_vector3<float>,xalloc<_vector3<float> > >::push_back
_TEXT	ENDS
; Function compile flags: /Ogtpy
; File c:\program files (x86)\microsoft visual studio 12.0\vc\include\list
;	COMDAT ?splice@?$list@U?$_vector3@M@@V?$xalloc@U?$_vector3@M@@@@@std@@QEAAXV?$_List_const_iterator@V?$_List_val@U?$_List_simple_types@U?$_vector3@M@@@std@@@std@@@2@AEAV12@0@Z
_TEXT	SEGMENT
this$ = 64
_Where$ = 72
_Right$ = 80
_First$ = 88
?splice@?$list@U?$_vector3@M@@V?$xalloc@U?$_vector3@M@@@@@std@@QEAAXV?$_List_const_iterator@V?$_List_val@U?$_List_simple_types@U?$_vector3@M@@@std@@@std@@@2@AEAV12@0@Z PROC ; std::list<_vector3<float>,xalloc<_vector3<float> > >::splice, COMDAT

; 1552 : 		{	// splice _Right [_First, _First + 1) at _Where

$LN51:
	sub	rsp, 56					; 00000038H

; 241  : 		return (*this);
; 242  : 		}
; 243  : 
; 244  : 	_Myiter operator++(int)
; 245  : 		{	// postincrement
; 246  : 		_Myiter _Tmp = *this;
; 247  : 		++*this;
; 248  : 		return (_Tmp);
; 249  : 		}
; 250  : 
; 251  : 	_Myiter& operator--()
; 252  : 		{	// predecrement
; 253  :  #if _ITERATOR_DEBUG_LEVEL == 2
; 254  : 		if (this->_Getcont() == 0
; 255  : 			|| this->_Ptr == 0
; 256  : 			|| (this->_Ptr = _Mylist::_Prevnode(this->_Ptr))
; 257  : 				== ((_Mylist *)this->_Getcont())->_Myhead)
; 258  : 			{	// report error
; 259  : 			_DEBUG_ERROR("list iterator not decrementable");
; 260  : 			_SCL_SECURE_OUT_OF_RANGE;
; 261  : 			}
; 262  : 
; 263  :  #elif _ITERATOR_DEBUG_LEVEL == 1
; 264  : 		_SCL_SECURE_VALIDATE(this->_Getcont() != 0 && this->_Ptr != 0);
; 265  : 		this->_Ptr = _Mylist::_Prevnode(this->_Ptr);
; 266  : 		_SCL_SECURE_VALIDATE_RANGE(this->_Ptr !=
; 267  : 			((_Mylist *)this->_Getcont())->_Myhead);
; 268  : 
; 269  :  #else /* _ITERATOR_DEBUG_LEVEL */
; 270  : 		this->_Ptr = _Mylist::_Prevnode(this->_Ptr);
; 271  :  #endif /* _ITERATOR_DEBUG_LEVEL */
; 272  : 
; 273  : 		return (*this);
; 274  : 		}
; 275  : 
; 276  : 	_Myiter operator--(int)
; 277  : 		{	// postdecrement
; 278  : 		_Myiter _Tmp = *this;
; 279  : 		--*this;
; 280  : 		return (_Tmp);
; 281  : 		}
; 282  : 
; 283  : 	bool operator==(const _Myiter& _Right) const
; 284  : 		{	// test for iterator equality
; 285  :  #if _ITERATOR_DEBUG_LEVEL == 2
; 286  : 		if (this->_Getcont() == 0
; 287  : 			|| this->_Getcont() != _Right._Getcont())
; 288  : 			{	// report error
; 289  : 			_DEBUG_ERROR("list iterators incompatible");
; 290  : 			_SCL_SECURE_INVALID_ARGUMENT;
; 291  : 			}
; 292  : 
; 293  :  #elif _ITERATOR_DEBUG_LEVEL == 1
; 294  : 		_SCL_SECURE_VALIDATE(this->_Getcont() != 0
; 295  : 			&& this->_Getcont() == _Right._Getcont());
; 296  :  #endif /* _ITERATOR_DEBUG_LEVEL */
; 297  : 
; 298  : 		return (this->_Ptr == _Right._Ptr);

	cmp	r9, QWORD PTR [r8]

; 1553 :  #if _ITERATOR_DEBUG_LEVEL == 2
; 1554 : 		if (_First == _Right.end())
; 1555 : 			_DEBUG_ERROR("list splice iterator outside range");
; 1556 : 		else
; 1557 : 
; 1558 :  #else /* _ITERATOR_DEBUG_LEVEL == 2 */
; 1559 : 		if (_First != _Right.end())

	je	SHORT $LN33@splice

; 240  : 		this->_Ptr = _Mylist::_Nextnode(this->_Ptr);

	mov	rax, QWORD PTR [r9]

; 1560 :  #endif /* _ITERATOR_DEBUG_LEVEL == 2 */
; 1561 : 
; 1562 : 			{	// element exists, try splice
; 1563 : 			const_iterator _Last = _First;
; 1564 : 			++_Last;
; 1565 : 			if (this != &_Right
; 1566 : 				|| (_Where != _First && _Where != _Last))

	cmp	rcx, r8
	jne	SHORT $LN1@splice

; 241  : 		return (*this);
; 242  : 		}
; 243  : 
; 244  : 	_Myiter operator++(int)
; 245  : 		{	// postincrement
; 246  : 		_Myiter _Tmp = *this;
; 247  : 		++*this;
; 248  : 		return (_Tmp);
; 249  : 		}
; 250  : 
; 251  : 	_Myiter& operator--()
; 252  : 		{	// predecrement
; 253  :  #if _ITERATOR_DEBUG_LEVEL == 2
; 254  : 		if (this->_Getcont() == 0
; 255  : 			|| this->_Ptr == 0
; 256  : 			|| (this->_Ptr = _Mylist::_Prevnode(this->_Ptr))
; 257  : 				== ((_Mylist *)this->_Getcont())->_Myhead)
; 258  : 			{	// report error
; 259  : 			_DEBUG_ERROR("list iterator not decrementable");
; 260  : 			_SCL_SECURE_OUT_OF_RANGE;
; 261  : 			}
; 262  : 
; 263  :  #elif _ITERATOR_DEBUG_LEVEL == 1
; 264  : 		_SCL_SECURE_VALIDATE(this->_Getcont() != 0 && this->_Ptr != 0);
; 265  : 		this->_Ptr = _Mylist::_Prevnode(this->_Ptr);
; 266  : 		_SCL_SECURE_VALIDATE_RANGE(this->_Ptr !=
; 267  : 			((_Mylist *)this->_Getcont())->_Myhead);
; 268  : 
; 269  :  #else /* _ITERATOR_DEBUG_LEVEL */
; 270  : 		this->_Ptr = _Mylist::_Prevnode(this->_Ptr);
; 271  :  #endif /* _ITERATOR_DEBUG_LEVEL */
; 272  : 
; 273  : 		return (*this);
; 274  : 		}
; 275  : 
; 276  : 	_Myiter operator--(int)
; 277  : 		{	// postdecrement
; 278  : 		_Myiter _Tmp = *this;
; 279  : 		--*this;
; 280  : 		return (_Tmp);
; 281  : 		}
; 282  : 
; 283  : 	bool operator==(const _Myiter& _Right) const
; 284  : 		{	// test for iterator equality
; 285  :  #if _ITERATOR_DEBUG_LEVEL == 2
; 286  : 		if (this->_Getcont() == 0
; 287  : 			|| this->_Getcont() != _Right._Getcont())
; 288  : 			{	// report error
; 289  : 			_DEBUG_ERROR("list iterators incompatible");
; 290  : 			_SCL_SECURE_INVALID_ARGUMENT;
; 291  : 			}
; 292  : 
; 293  :  #elif _ITERATOR_DEBUG_LEVEL == 1
; 294  : 		_SCL_SECURE_VALIDATE(this->_Getcont() != 0
; 295  : 			&& this->_Getcont() == _Right._Getcont());
; 296  :  #endif /* _ITERATOR_DEBUG_LEVEL */
; 297  : 
; 298  : 		return (this->_Ptr == _Right._Ptr);

	cmp	rdx, r9

; 1560 :  #endif /* _ITERATOR_DEBUG_LEVEL == 2 */
; 1561 : 
; 1562 : 			{	// element exists, try splice
; 1563 : 			const_iterator _Last = _First;
; 1564 : 			++_Last;
; 1565 : 			if (this != &_Right
; 1566 : 				|| (_Where != _First && _Where != _Last))

	je	SHORT $LN33@splice

; 241  : 		return (*this);
; 242  : 		}
; 243  : 
; 244  : 	_Myiter operator++(int)
; 245  : 		{	// postincrement
; 246  : 		_Myiter _Tmp = *this;
; 247  : 		++*this;
; 248  : 		return (_Tmp);
; 249  : 		}
; 250  : 
; 251  : 	_Myiter& operator--()
; 252  : 		{	// predecrement
; 253  :  #if _ITERATOR_DEBUG_LEVEL == 2
; 254  : 		if (this->_Getcont() == 0
; 255  : 			|| this->_Ptr == 0
; 256  : 			|| (this->_Ptr = _Mylist::_Prevnode(this->_Ptr))
; 257  : 				== ((_Mylist *)this->_Getcont())->_Myhead)
; 258  : 			{	// report error
; 259  : 			_DEBUG_ERROR("list iterator not decrementable");
; 260  : 			_SCL_SECURE_OUT_OF_RANGE;
; 261  : 			}
; 262  : 
; 263  :  #elif _ITERATOR_DEBUG_LEVEL == 1
; 264  : 		_SCL_SECURE_VALIDATE(this->_Getcont() != 0 && this->_Ptr != 0);
; 265  : 		this->_Ptr = _Mylist::_Prevnode(this->_Ptr);
; 266  : 		_SCL_SECURE_VALIDATE_RANGE(this->_Ptr !=
; 267  : 			((_Mylist *)this->_Getcont())->_Myhead);
; 268  : 
; 269  :  #else /* _ITERATOR_DEBUG_LEVEL */
; 270  : 		this->_Ptr = _Mylist::_Prevnode(this->_Ptr);
; 271  :  #endif /* _ITERATOR_DEBUG_LEVEL */
; 272  : 
; 273  : 		return (*this);
; 274  : 		}
; 275  : 
; 276  : 	_Myiter operator--(int)
; 277  : 		{	// postdecrement
; 278  : 		_Myiter _Tmp = *this;
; 279  : 		--*this;
; 280  : 		return (_Tmp);
; 281  : 		}
; 282  : 
; 283  : 	bool operator==(const _Myiter& _Right) const
; 284  : 		{	// test for iterator equality
; 285  :  #if _ITERATOR_DEBUG_LEVEL == 2
; 286  : 		if (this->_Getcont() == 0
; 287  : 			|| this->_Getcont() != _Right._Getcont())
; 288  : 			{	// report error
; 289  : 			_DEBUG_ERROR("list iterators incompatible");
; 290  : 			_SCL_SECURE_INVALID_ARGUMENT;
; 291  : 			}
; 292  : 
; 293  :  #elif _ITERATOR_DEBUG_LEVEL == 1
; 294  : 		_SCL_SECURE_VALIDATE(this->_Getcont() != 0
; 295  : 			&& this->_Getcont() == _Right._Getcont());
; 296  :  #endif /* _ITERATOR_DEBUG_LEVEL */
; 297  : 
; 298  : 		return (this->_Ptr == _Right._Ptr);

	cmp	rdx, rax

; 1560 :  #endif /* _ITERATOR_DEBUG_LEVEL == 2 */
; 1561 : 
; 1562 : 			{	// element exists, try splice
; 1563 : 			const_iterator _Last = _First;
; 1564 : 			++_Last;
; 1565 : 			if (this != &_Right
; 1566 : 				|| (_Where != _First && _Where != _Last))

	je	SHORT $LN33@splice
$LN1@splice:

; 1570 : 
; 1571 : 	void splice(const_iterator _Where, _Myt&& _Right,
; 1572 : 		const_iterator _First)
; 1573 : 		{	// splice _Right [_First, _First + 1) at _Where
; 1574 : 		splice(_Where, (_Myt&)_Right, _First);
; 1575 : 		}
; 1576 : 
; 1577 : 	void splice(const_iterator _Where,
; 1578 : 		_Myt& _Right, const_iterator _First, const_iterator _Last)
; 1579 : 		{	// splice _Right [_First, _Last) at _Where
; 1580 : 		if (_First != _Last && (this != &_Right || _Where != _Last))
; 1581 : 			{	// worth splicing, do it
; 1582 : 			size_type _Count = 0;
; 1583 : 
; 1584 : 			if (this == &_Right)
; 1585 : 				;	// just rearrange this list
; 1586 : 			else if (_First == _Right.begin() && _Last == _Right.end())
; 1587 : 				_Count = _Right._Mysize;	// splice in whole list
; 1588 : 			else
; 1589 : 				{	// count nodes and check for knot
; 1590 : 				const_iterator _Next = _First;
; 1591 : 
; 1592 : 				for (; _Next != _Last; ++_Next, ++_Count)
; 1593 : 					if (_Next == _Right.end())
; 1594 : 						_Xlength_error("list<T> bad splice");
; 1595 : 				}
; 1596 : 			_Splice(_Where, _Right, _First, _Last, _Count);
; 1597 : 			}
; 1598 : 		}
; 1599 : 
; 1600 : 	void splice(const_iterator _Where,
; 1601 : 		_Myt&& _Right, const_iterator _First, const_iterator _Last)
; 1602 : 		{	// splice _Right [_First, _Last) at _Where
; 1603 : 		splice(_Where, (_Myt&)_Right, _First, _Last);
; 1604 : 		}
; 1605 : 
; 1606 : 	void remove(const _Ty& _Val)
; 1607 : 		{	// erase each element matching _Val
; 1608 : 		iterator _Val_it = end();
; 1609 : 
; 1610 : 		for (iterator _First = begin(); _First != end(); )
; 1611 : 			if (*_First == _Val)
; 1612 : 				if (_STD addressof(*_First) == _STD addressof(_Val))
; 1613 : 					_Val_it = _First++;
; 1614 : 				else
; 1615 : 					_First = erase(_First);
; 1616 : 			else
; 1617 : 				++_First;
; 1618 : 
; 1619 : 		if (_Val_it != end())
; 1620 : 			erase(_Val_it);
; 1621 : 		}
; 1622 : 
; 1623 : 	template<class _Pr1>
; 1624 : 		void remove_if(_Pr1 _Pred)
; 1625 : 		{	// erase each element satisfying _Pred
; 1626 : 		for (iterator _First = begin(); _First != end(); )
; 1627 : 			if (_Pred(*_First))
; 1628 : 				_First = erase(_First);
; 1629 : 			else
; 1630 : 				++_First;
; 1631 : 		}
; 1632 : 
; 1633 : 	void unique()
; 1634 : 		{	// erase each element matching previous
; 1635 : 		unique(equal_to<>());
; 1636 : 		}
; 1637 : 
; 1638 : 	template<class _Pr2>
; 1639 : 		void unique(_Pr2 _Pred)
; 1640 : 		{	// erase each element satisfying _Pred with previous
; 1641 : 		const _Nodeptr _Phead = this->_Myhead;
; 1642 : 		_Nodeptr _Pprev = this->_Nextnode(_Phead);
; 1643 : 		_Nodeptr _Pnode = this->_Nextnode(_Pprev);
; 1644 : 
; 1645 : 		while (_Pnode != _Phead)
; 1646 : 			if (_Pred(_Pprev->_Myval, _Pnode->_Myval))
; 1647 : 				{	// match, remove it
; 1648 : 				const _Nodeptr _Perase = _Pnode;
; 1649 : 				_Pnode = this->_Nextnode(_Pnode);
; 1650 : 
; 1651 : 				this->_Nextnode(_Pprev) = _Pnode;
; 1652 : 				this->_Prevnode(_Pnode) = _Pprev;
; 1653 : 				this->_Freenode(_Perase);
; 1654 : 
; 1655 : 				--this->_Mysize;
; 1656 : 				}
; 1657 : 			else
; 1658 : 				{	// no match, advance
; 1659 : 				_Pprev = _Pnode;
; 1660 : 				_Pnode = this->_Nextnode(_Pnode);
; 1661 : 				}
; 1662 : 		}
; 1663 : 
; 1664 : 	void merge(_Myt& _Right)
; 1665 : 		{	// merge in elements from _Right, both ordered by operator<
; 1666 : 		merge(_Right, less<>());
; 1667 : 		}
; 1668 : 
; 1669 : 	void merge(_Myt&& _Right)
; 1670 : 		{	// merge in elements from _Right, both ordered by operator<
; 1671 : 		merge((_Myt&)_Right);
; 1672 : 		}
; 1673 : 
; 1674 : 	template<class _Pr2>
; 1675 : 		void merge(_Myt& _Right, _Pr2 _Pred)
; 1676 : 		{	// merge in elements from _Right, both ordered by _Pred
; 1677 : 		if (&_Right != this)
; 1678 : 			{	// safe to merge, do it
; 1679 : 			iterator _First1 = begin(), _Last1 = end();
; 1680 : 			iterator _First2 = _Right.begin(), _Last2 = _Right.end();
; 1681 : 			_DEBUG_ORDER_PRED(_First1, _Last1, _Pred);
; 1682 : 			_DEBUG_ORDER_PRED(_First2, _Last2, _Pred);
; 1683 : 
; 1684 : 			while (_First1 != _Last1 && _First2 != _Last2)
; 1685 : 				if (_DEBUG_LT_PRED(_Pred, *_First2, *_First1))
; 1686 : 					{	// splice in an element from _Right
; 1687 : 					iterator _Mid2 = _First2;
; 1688 : 					_Splice(_First1, _Right, _First2, ++_Mid2, 1);
; 1689 : 					_First2 = _Mid2;
; 1690 : 					}
; 1691 : 				else
; 1692 : 					++_First1;
; 1693 : 
; 1694 : 			if (_First2 != _Last2)
; 1695 : 				_Splice(_Last1, _Right, _First2, _Last2,
; 1696 : 					_Right._Mysize);	// splice remainder of _Right
; 1697 : 			}
; 1698 : 		}
; 1699 : 
; 1700 : 	template<class _Pr2>
; 1701 : 		void merge(_Myt&& _Right, _Pr2 _Pred)
; 1702 : 		{	// merge in elements from _Right, both ordered by _Pred
; 1703 : 		merge((_Myt&)_Right, _Pred);
; 1704 : 		}
; 1705 : 
; 1706 : 	void sort()
; 1707 : 		{	// order sequence, using operator<
; 1708 : 		sort(less<>());
; 1709 : 		}
; 1710 : 
; 1711 : 	template<class _Pr2>
; 1712 : 		void sort(_Pr2 _Pred)
; 1713 : 		{	// order sequence, using _Pred
; 1714 : 		if (2 <= this->_Mysize)
; 1715 : 			{	// worth sorting, do it
; 1716 : 			const size_t _MAXBINS = 25;
; 1717 : 			_Myt _Templist(this->_Getal()), _Binlist[_MAXBINS + 1];
; 1718 : 			size_t _Maxbin = 0;
; 1719 : 
; 1720 : 			while (!empty())
; 1721 : 				{	// sort another element, using bins
; 1722 : 				_Templist._Splice_same(_Templist.begin(), *this, begin(),
; 1723 : 					++begin(), 1);
; 1724 : 
; 1725 : 				size_t _Bin;
; 1726 : 				for (_Bin = 0; _Bin < _Maxbin && !_Binlist[_Bin].empty();
; 1727 : 					++_Bin)
; 1728 : 					{	// merge into ever larger bins
; 1729 : 					_Binlist[_Bin].merge(_Templist, _Pred);
; 1730 : 					_Binlist[_Bin].swap(_Templist);
; 1731 : 					}
; 1732 : 
; 1733 : 				if (_Bin == _MAXBINS)
; 1734 : 					_Binlist[_Bin - 1].merge(_Templist, _Pred);
; 1735 : 				else
; 1736 : 					{	// spill to new bin, while they last
; 1737 : 					_Binlist[_Bin].swap(_Templist);
; 1738 : 					if (_Bin == _Maxbin)
; 1739 : 						++_Maxbin;
; 1740 : 					}
; 1741 : 				}
; 1742 : 
; 1743 : 			for (size_t _Bin = 1; _Bin < _Maxbin; ++_Bin)
; 1744 : 				_Binlist[_Bin].merge(_Binlist[_Bin - 1],
; 1745 : 					_Pred);	// merge up
; 1746 : 
; 1747 : 			_Analysis_assume_(0 < _Maxbin);
; 1748 : 
; 1749 : 			splice(begin(), _Binlist[_Maxbin - 1]);	// result in last bin
; 1750 : 			}
; 1751 : 		}
; 1752 : 
; 1753 : 	void reverse() _NOEXCEPT
; 1754 : 		{	// reverse sequence
; 1755 : 		const _Nodeptr _Phead = this->_Myhead;
; 1756 : 		_Nodeptr _Pnode = _Phead;
; 1757 : 
; 1758 : 		for (; ; )
; 1759 : 			{	// flip pointers in a node
; 1760 : 			const _Nodeptr _Pnext = this->_Nextnode(_Pnode);
; 1761 : 			this->_Nextnode(_Pnode) = this->_Prevnode(_Pnode);
; 1762 : 			this->_Prevnode(_Pnode) = _Pnext;
; 1763 : 
; 1764 : 			if (_Pnext == _Phead)
; 1765 : 				break;
; 1766 : 			_Pnode = _Pnext;
; 1767 : 			}
; 1768 : 		}
; 1769 : 
; 1770 : 	void _Splice(const_iterator _Where,
; 1771 : 		_Myt& _Right, const_iterator _First, const_iterator _Last,
; 1772 : 		size_type _Count)
; 1773 : 		{	// splice _Right [_First, _Last) before _Where
; 1774 :  #if _ITERATOR_DEBUG_LEVEL == 2
; 1775 : 		if (_Where._Getcont() != this)
; 1776 : 			_DEBUG_ERROR("list splice iterator outside range");
; 1777 : 		if (this->_Getal() != _Right._Getal())
; 1778 : 			_DEBUG_ERROR("list containers incompatible for splice");
; 1779 : 
; 1780 : 		if (this != &_Right)
; 1781 : 			{	// transfer ownership
; 1782 : 			_Lockit _Lock(_LOCK_DEBUG);
; 1783 : 
; 1784 : 			const bool _One = _Count == 1;
; 1785 : 			const bool _All = _Count == _Right.size();
; 1786 : 			const bool _Some = !_One && !_All;
; 1787 : 
; 1788 : 			_Nodeptr _Oldprev = _First._Ptr->_Prev;
; 1789 : 
; 1790 : 			if (_Some)
; 1791 : 				for (_Nodeptr _Ptr = _First._Ptr; _Ptr != _Last._Ptr;
; 1792 : 					_Ptr = _Ptr->_Next)
; 1793 : 					{	// mark _Prev pointers
; 1794 : 					_Ptr->_Prev = 0;
; 1795 : 					}
; 1796 : 
; 1797 : 			const_iterator **_Pnext = (const_iterator **)_Right._Getpfirst();
; 1798 : 
; 1799 : 			if (_Pnext == 0)
; 1800 : 				_DEBUG_ERROR("list container corrupted");
; 1801 : 
; 1802 : 			while (*_Pnext != 0)
; 1803 : 				{	// check the iterator
; 1804 : 				const_iterator& _Iter = **_Pnext;
; 1805 : 
; 1806 : 				if ((_One && _Iter._Ptr == _First._Ptr)
; 1807 : 					|| (_All && _Iter._Ptr != _Right._Myhead)
; 1808 : 					|| (_Some && _Iter._Ptr->_Prev == 0))
; 1809 : 					{	// adopt the iterator
; 1810 : 					*_Pnext = (const_iterator *)_Iter._Mynextiter;
; 1811 : 					_Iter._Myproxy = this->_Myproxy;
; 1812 : 					_Iter._Mynextiter = this->_Myproxy->_Myfirstiter;
; 1813 : 					this->_Myproxy->_Myfirstiter = &_Iter;
; 1814 : 					}
; 1815 : 				else
; 1816 : 					{	// skip the iterator
; 1817 : 					_Pnext = (const_iterator **)_Iter._Getpnext();
; 1818 : 					}
; 1819 : 				}
; 1820 : 
; 1821 : 			if (_Some)
; 1822 : 				for (_Nodeptr _Ptr = _First._Ptr; _Ptr != _Last._Ptr;
; 1823 : 					_Ptr = _Ptr->_Next)
; 1824 : 					{	// restore _Prev pointers
; 1825 : 					_Ptr->_Prev = _Oldprev;
; 1826 : 					_Oldprev = _Ptr;
; 1827 : 					}
; 1828 : 			}
; 1829 : 
; 1830 :  #else /* _ITERATOR_DEBUG_LEVEL == 2 */
; 1831 : 		if (this->_Getal() != _Right._Getal())
; 1832 : 			_XSTD terminate();
; 1833 :  #endif /* _ITERATOR_DEBUG_LEVEL == 2 */
; 1834 : 
; 1835 : 		_Splice_same(_Where, _Right, _First, _Last, _Count);

	mov	QWORD PTR [rsp+32], rax
	call	?_Splice_same@?$list@U?$_vector3@M@@V?$xalloc@U?$_vector3@M@@@@@std@@QEAAXV?$_List_const_iterator@V?$_List_val@U?$_List_simple_types@U?$_vector3@M@@@std@@@std@@@2@AEAV12@00_K@Z ; std::list<_vector3<float>,xalloc<_vector3<float> > >::_Splice_same
$LN33@splice:

; 1567 : 				_Splice(_Where, _Right, _First, _Last, 1);
; 1568 : 			}
; 1569 : 		}

	add	rsp, 56					; 00000038H
	ret	0
?splice@?$list@U?$_vector3@M@@V?$xalloc@U?$_vector3@M@@@@@std@@QEAAXV?$_List_const_iterator@V?$_List_val@U?$_List_simple_types@U?$_vector3@M@@@std@@@std@@@2@AEAV12@0@Z ENDP ; std::list<_vector3<float>,xalloc<_vector3<float> > >::splice
_TEXT	ENDS
; Function compile flags: /Ogtpy
; File c:\program files (x86)\microsoft visual studio 12.0\vc\include\list
;	COMDAT ??0?$_List_iterator@V?$_List_val@U?$_List_simple_types@U?$_vector3@M@@@std@@@std@@@std@@QEAA@XZ
_TEXT	SEGMENT
this$ = 8
??0?$_List_iterator@V?$_List_val@U?$_List_simple_types@U?$_vector3@M@@@std@@@std@@@std@@QEAA@XZ PROC ; std::_List_iterator<std::_List_val<std::_List_simple_types<_vector3<float> > > >::_List_iterator<std::_List_val<std::_List_simple_types<_vector3<float> > > >, COMDAT

; 39   : 		{	// construct with null node pointer

	mov	QWORD PTR [rcx], 0

; 340  : 		{	// construct with null node
; 341  : 		}

	mov	rax, rcx
	ret	0
??0?$_List_iterator@V?$_List_val@U?$_List_simple_types@U?$_vector3@M@@@std@@@std@@@std@@QEAA@XZ ENDP ; std::_List_iterator<std::_List_val<std::_List_simple_types<_vector3<float> > > >::_List_iterator<std::_List_val<std::_List_simple_types<_vector3<float> > > >
_TEXT	ENDS
; Function compile flags: /Ogtpy
; File c:\program files (x86)\microsoft visual studio 12.0\vc\include\list
;	COMDAT ??D?$_List_iterator@V?$_List_val@U?$_List_simple_types@U?$_vector3@M@@@std@@@std@@@std@@QEBAAEAU?$_vector3@M@@XZ
_TEXT	SEGMENT
this$ = 8
??D?$_List_iterator@V?$_List_val@U?$_List_simple_types@U?$_vector3@M@@@std@@@std@@@std@@QEBAAEAU?$_vector3@M@@XZ PROC ; std::_List_iterator<std::_List_val<std::_List_simple_types<_vector3<float> > > >::operator*, COMDAT

; 365  : 
; 366  : 	pointer operator->() const
; 367  : 		{	// return pointer to class object
; 368  : 		return (_STD pointer_traits<pointer>::pointer_to(**this));
; 369  : 		}
; 370  : 
; 371  : 	_Myiter& operator++()
; 372  : 		{	// preincrement
; 373  : 		++(*(_Mybase *)this);
; 374  : 		return (*this);
; 375  : 		}
; 376  : 
; 377  : 	_Myiter operator++(int)
; 378  : 		{	// postincrement
; 379  : 		_Myiter _Tmp = *this;
; 380  : 		++*this;
; 381  : 		return (_Tmp);
; 382  : 		}
; 383  : 
; 384  : 	_Myiter& operator--()
; 385  : 		{	// predecrement
; 386  : 		--(*(_Mybase *)this);
; 387  : 		return (*this);
; 388  : 		}
; 389  : 
; 390  : 	_Myiter operator--(int)
; 391  : 		{	// postdecrement
; 392  : 		_Myiter _Tmp = *this;
; 393  : 		--*this;
; 394  : 		return (_Tmp);
; 395  : 		}
; 396  : 	};
; 397  : 
; 398  : template<class _Mylist> inline
; 399  : 	typename _List_iterator<_Mylist>::_Unchecked_type
; 400  : 		_Unchecked(_List_iterator<_Mylist> _Iter)
; 401  : 	{	// convert to unchecked
; 402  : 	return (_Iter._Unchecked());
; 403  : 	}
; 404  : 
; 405  : template<class _Mylist> inline
; 406  : 	_List_iterator<_Mylist>&
; 407  : 		_Rechecked(_List_iterator<_Mylist>& _Iter,
; 408  : 			typename _List_iterator<_Mylist>
; 409  : 				::_Unchecked_type _Right)
; 410  : 	{	// convert to checked
; 411  : 	return (_Iter._Rechecked(_Right));
; 412  : 	}
; 413  : 
; 414  : 		// list TYPE WRAPPERS
; 415  : template<class _Value_type,
; 416  : 	class _Size_type,
; 417  : 	class _Difference_type,
; 418  : 	class _Pointer,
; 419  : 	class _Const_pointer,
; 420  : 	class _Reference,
; 421  : 	class _Const_reference,
; 422  : 	class _Nodeptr_type>
; 423  : 	struct _List_iter_types
; 424  : 	{	// wraps types needed by iterators
; 425  : 	typedef _Value_type value_type;
; 426  : 	typedef _Size_type size_type;
; 427  : 	typedef _Difference_type difference_type;
; 428  : 	typedef _Pointer pointer;
; 429  : 	typedef _Const_pointer const_pointer;
; 430  : 	typedef _Reference reference;
; 431  : 	typedef _Const_reference const_reference;
; 432  : 	typedef _Nodeptr_type _Nodeptr;
; 433  : 	};
; 434  : 
; 435  : template<class _Value_type,
; 436  : 	class _Voidptr>
; 437  : 	struct _List_node
; 438  : 		{	// list node
; 439  : 		_Voidptr _Next;	// successor node, or first element if head
; 440  : 		_Voidptr _Prev;	// predecessor node, or last element if head
; 441  : 		_Value_type _Myval;	// the stored value, unused if head
; 442  : 
; 443  : 	private:
; 444  : 		_List_node& operator=(const _List_node&);
; 445  : 		};
; 446  : 
; 447  : template<class _Value_type>
; 448  : 	struct _List_node<_Value_type, void *>
; 449  : 		{	// list node
; 450  : 		typedef _List_node<_Value_type, void *> *_Nodeptr;
; 451  : 		_Nodeptr _Next;	// successor node, or first element if head
; 452  : 		_Nodeptr _Prev;	// predecessor node, or last element if head
; 453  : 		_Value_type _Myval;	// the stored value, unused if head
; 454  : 
; 455  : 	private:
; 456  : 		_List_node& operator=(const _List_node&);
; 457  : 		};
; 458  : 
; 459  : template<class _Ty>
; 460  : 	struct _List_simple_types
; 461  : 		: public _Simple_types<_Ty>
; 462  : 	{	// wraps types needed by iterators
; 463  : 	typedef _List_node<_Ty, void *> _Node;
; 464  : 	typedef _Node *_Nodeptr;
; 465  : 	};
; 466  : 
; 467  : template<class _Ty,
; 468  : 	class _Alloc0>
; 469  : 	struct _List_base_types
; 470  : 	{	// types needed for a container base
; 471  : 	typedef _Alloc0 _Alloc;
; 472  : 	typedef _List_base_types<_Ty, _Alloc> _Myt;
; 473  : 
; 474  : 	typedef _Wrap_alloc<_Alloc> _Alty0;
; 475  : 	typedef typename _Alty0::template rebind<_Ty>::other _Alty;
; 476  : 
; 477  : 
; 478  : 	typedef typename _Get_voidptr<_Alty, typename _Alty::pointer>::type
; 479  : 		_Voidptr;
; 480  : 	typedef _List_node<typename _Alty::value_type,
; 481  : 		_Voidptr> _Node;
; 482  : 
; 483  : 	typedef typename _Alty::template rebind<_Node>::other _Alnod_type;
; 484  : 	typedef typename _Alnod_type::pointer _Nodeptr;
; 485  : 	typedef _Nodeptr& _Nodepref;
; 486  : 
; 487  : 	typedef typename _If<_Is_simple_alloc<_Alty>::value,
; 488  : 		_List_simple_types<typename _Alty::value_type>,
; 489  : 		_List_iter_types<typename _Alty::value_type,
; 490  : 			typename _Alty::size_type,
; 491  : 			typename _Alty::difference_type,
; 492  : 			typename _Alty::pointer,
; 493  : 			typename _Alty::const_pointer,
; 494  : 			typename _Alty::reference,
; 495  : 			typename _Alty::const_reference,
; 496  : 			_Nodeptr> >::type
; 497  : 		_Val_types;
; 498  : 	};
; 499  : 
; 500  : 		// TEMPLATE CLASS _List_val
; 501  : template<class _Val_types>
; 502  : 	class _List_val
; 503  : 		: public _Container_base
; 504  : 	{	// base class for list to hold data
; 505  : public:
; 506  : 	typedef _List_val<_Val_types> _Myt;
; 507  : 
; 508  : 	typedef typename _Val_types::_Nodeptr _Nodeptr;
; 509  : 	typedef _Nodeptr& _Nodepref;
; 510  : 
; 511  : 	typedef typename _Val_types::value_type value_type;
; 512  : 	typedef typename _Val_types::size_type size_type;
; 513  : 	typedef typename _Val_types::difference_type difference_type;
; 514  : 	typedef typename _Val_types::pointer pointer;
; 515  : 	typedef typename _Val_types::const_pointer const_pointer;
; 516  : 	typedef typename _Val_types::reference reference;
; 517  : 	typedef typename _Val_types::const_reference const_reference;
; 518  : 
; 519  : 	typedef _List_const_iterator<_Myt> const_iterator;
; 520  : 	typedef _List_iterator<_Myt> iterator;
; 521  : 
; 522  : 	typedef _List_unchecked_const_iterator<_Myt> _Unchecked_const_iterator;
; 523  : 	typedef _List_unchecked_iterator<_Myt> _Unchecked_iterator;
; 524  : 
; 525  : 	_List_val()
; 526  : 		{	// initialize data
; 527  : 		this->_Myhead = 0;
; 528  : 		this->_Mysize = 0;
; 529  : 		}
; 530  : 
; 531  : 	static _Nodepref _Nextnode(_Nodeptr _Pnode)
; 532  : 		{	// return reference to successor pointer in node
; 533  : 		return ((_Nodepref)_Pnode->_Next);
; 534  : 		}
; 535  : 
; 536  : 	static _Nodepref _Prevnode(_Nodeptr _Pnode)
; 537  : 		{	// return reference to predecessor pointer in node
; 538  : 		return ((_Nodepref)_Pnode->_Prev);
; 539  : 		}
; 540  : 
; 541  : 	static reference _Myval(_Nodeptr _Pnode)
; 542  : 		{	// return reference to value in node
; 543  : 		return ((reference)_Pnode->_Myval);

	mov	rax, QWORD PTR [rcx]
	add	rax, 16

; 363  : 		return ((reference)**(_Mybase *)this);
; 364  : 		}

	ret	0
??D?$_List_iterator@V?$_List_val@U?$_List_simple_types@U?$_vector3@M@@@std@@@std@@@std@@QEBAAEAU?$_vector3@M@@XZ ENDP ; std::_List_iterator<std::_List_val<std::_List_simple_types<_vector3<float> > > >::operator*
_TEXT	ENDS
; Function compile flags: /Ogtpy
; File c:\program files (x86)\microsoft visual studio 12.0\vc\include\list
;	COMDAT ??E?$_List_iterator@V?$_List_val@U?$_List_simple_types@U?$_vector3@M@@@std@@@std@@@std@@QEAAAEAV01@XZ
_TEXT	SEGMENT
this$ = 8
??E?$_List_iterator@V?$_List_val@U?$_List_simple_types@U?$_vector3@M@@@std@@@std@@@std@@QEAAAEAV01@XZ PROC ; std::_List_iterator<std::_List_val<std::_List_simple_types<_vector3<float> > > >::operator++, COMDAT

; 376  : 
; 377  : 	_Myiter operator++(int)
; 378  : 		{	// postincrement
; 379  : 		_Myiter _Tmp = *this;
; 380  : 		++*this;
; 381  : 		return (_Tmp);
; 382  : 		}
; 383  : 
; 384  : 	_Myiter& operator--()
; 385  : 		{	// predecrement
; 386  : 		--(*(_Mybase *)this);
; 387  : 		return (*this);
; 388  : 		}
; 389  : 
; 390  : 	_Myiter operator--(int)
; 391  : 		{	// postdecrement
; 392  : 		_Myiter _Tmp = *this;
; 393  : 		--*this;
; 394  : 		return (_Tmp);
; 395  : 		}
; 396  : 	};
; 397  : 
; 398  : template<class _Mylist> inline
; 399  : 	typename _List_iterator<_Mylist>::_Unchecked_type
; 400  : 		_Unchecked(_List_iterator<_Mylist> _Iter)
; 401  : 	{	// convert to unchecked
; 402  : 	return (_Iter._Unchecked());
; 403  : 	}
; 404  : 
; 405  : template<class _Mylist> inline
; 406  : 	_List_iterator<_Mylist>&
; 407  : 		_Rechecked(_List_iterator<_Mylist>& _Iter,
; 408  : 			typename _List_iterator<_Mylist>
; 409  : 				::_Unchecked_type _Right)
; 410  : 	{	// convert to checked
; 411  : 	return (_Iter._Rechecked(_Right));
; 412  : 	}
; 413  : 
; 414  : 		// list TYPE WRAPPERS
; 415  : template<class _Value_type,
; 416  : 	class _Size_type,
; 417  : 	class _Difference_type,
; 418  : 	class _Pointer,
; 419  : 	class _Const_pointer,
; 420  : 	class _Reference,
; 421  : 	class _Const_reference,
; 422  : 	class _Nodeptr_type>
; 423  : 	struct _List_iter_types
; 424  : 	{	// wraps types needed by iterators
; 425  : 	typedef _Value_type value_type;
; 426  : 	typedef _Size_type size_type;
; 427  : 	typedef _Difference_type difference_type;
; 428  : 	typedef _Pointer pointer;
; 429  : 	typedef _Const_pointer const_pointer;
; 430  : 	typedef _Reference reference;
; 431  : 	typedef _Const_reference const_reference;
; 432  : 	typedef _Nodeptr_type _Nodeptr;
; 433  : 	};
; 434  : 
; 435  : template<class _Value_type,
; 436  : 	class _Voidptr>
; 437  : 	struct _List_node
; 438  : 		{	// list node
; 439  : 		_Voidptr _Next;	// successor node, or first element if head
; 440  : 		_Voidptr _Prev;	// predecessor node, or last element if head
; 441  : 		_Value_type _Myval;	// the stored value, unused if head
; 442  : 
; 443  : 	private:
; 444  : 		_List_node& operator=(const _List_node&);
; 445  : 		};
; 446  : 
; 447  : template<class _Value_type>
; 448  : 	struct _List_node<_Value_type, void *>
; 449  : 		{	// list node
; 450  : 		typedef _List_node<_Value_type, void *> *_Nodeptr;
; 451  : 		_Nodeptr _Next;	// successor node, or first element if head
; 452  : 		_Nodeptr _Prev;	// predecessor node, or last element if head
; 453  : 		_Value_type _Myval;	// the stored value, unused if head
; 454  : 
; 455  : 	private:
; 456  : 		_List_node& operator=(const _List_node&);
; 457  : 		};
; 458  : 
; 459  : template<class _Ty>
; 460  : 	struct _List_simple_types
; 461  : 		: public _Simple_types<_Ty>
; 462  : 	{	// wraps types needed by iterators
; 463  : 	typedef _List_node<_Ty, void *> _Node;
; 464  : 	typedef _Node *_Nodeptr;
; 465  : 	};
; 466  : 
; 467  : template<class _Ty,
; 468  : 	class _Alloc0>
; 469  : 	struct _List_base_types
; 470  : 	{	// types needed for a container base
; 471  : 	typedef _Alloc0 _Alloc;
; 472  : 	typedef _List_base_types<_Ty, _Alloc> _Myt;
; 473  : 
; 474  : 	typedef _Wrap_alloc<_Alloc> _Alty0;
; 475  : 	typedef typename _Alty0::template rebind<_Ty>::other _Alty;
; 476  : 
; 477  : 
; 478  : 	typedef typename _Get_voidptr<_Alty, typename _Alty::pointer>::type
; 479  : 		_Voidptr;
; 480  : 	typedef _List_node<typename _Alty::value_type,
; 481  : 		_Voidptr> _Node;
; 482  : 
; 483  : 	typedef typename _Alty::template rebind<_Node>::other _Alnod_type;
; 484  : 	typedef typename _Alnod_type::pointer _Nodeptr;
; 485  : 	typedef _Nodeptr& _Nodepref;
; 486  : 
; 487  : 	typedef typename _If<_Is_simple_alloc<_Alty>::value,
; 488  : 		_List_simple_types<typename _Alty::value_type>,
; 489  : 		_List_iter_types<typename _Alty::value_type,
; 490  : 			typename _Alty::size_type,
; 491  : 			typename _Alty::difference_type,
; 492  : 			typename _Alty::pointer,
; 493  : 			typename _Alty::const_pointer,
; 494  : 			typename _Alty::reference,
; 495  : 			typename _Alty::const_reference,
; 496  : 			_Nodeptr> >::type
; 497  : 		_Val_types;
; 498  : 	};
; 499  : 
; 500  : 		// TEMPLATE CLASS _List_val
; 501  : template<class _Val_types>
; 502  : 	class _List_val
; 503  : 		: public _Container_base
; 504  : 	{	// base class for list to hold data
; 505  : public:
; 506  : 	typedef _List_val<_Val_types> _Myt;
; 507  : 
; 508  : 	typedef typename _Val_types::_Nodeptr _Nodeptr;
; 509  : 	typedef _Nodeptr& _Nodepref;
; 510  : 
; 511  : 	typedef typename _Val_types::value_type value_type;
; 512  : 	typedef typename _Val_types::size_type size_type;
; 513  : 	typedef typename _Val_types::difference_type difference_type;
; 514  : 	typedef typename _Val_types::pointer pointer;
; 515  : 	typedef typename _Val_types::const_pointer const_pointer;
; 516  : 	typedef typename _Val_types::reference reference;
; 517  : 	typedef typename _Val_types::const_reference const_reference;
; 518  : 
; 519  : 	typedef _List_const_iterator<_Myt> const_iterator;
; 520  : 	typedef _List_iterator<_Myt> iterator;
; 521  : 
; 522  : 	typedef _List_unchecked_const_iterator<_Myt> _Unchecked_const_iterator;
; 523  : 	typedef _List_unchecked_iterator<_Myt> _Unchecked_iterator;
; 524  : 
; 525  : 	_List_val()
; 526  : 		{	// initialize data
; 527  : 		this->_Myhead = 0;
; 528  : 		this->_Mysize = 0;
; 529  : 		}
; 530  : 
; 531  : 	static _Nodepref _Nextnode(_Nodeptr _Pnode)
; 532  : 		{	// return reference to successor pointer in node
; 533  : 		return ((_Nodepref)_Pnode->_Next);

	mov	rax, QWORD PTR [rcx]

; 240  : 		this->_Ptr = _Mylist::_Nextnode(this->_Ptr);

	mov	rdx, QWORD PTR [rax]

; 373  : 		++(*(_Mybase *)this);
; 374  : 		return (*this);

	mov	rax, rcx

; 240  : 		this->_Ptr = _Mylist::_Nextnode(this->_Ptr);

	mov	QWORD PTR [rcx], rdx

; 375  : 		}

	ret	0
??E?$_List_iterator@V?$_List_val@U?$_List_simple_types@U?$_vector3@M@@@std@@@std@@@std@@QEAAAEAV01@XZ ENDP ; std::_List_iterator<std::_List_val<std::_List_simple_types<_vector3<float> > > >::operator++
_TEXT	ENDS
; Function compile flags: /Ogtpy
; File c:\program files (x86)\microsoft visual studio 12.0\vc\include\list
;	COMDAT ??E?$_List_iterator@V?$_List_val@U?$_List_simple_types@U?$_vector3@M@@@std@@@std@@@std@@QEAA?AV01@H@Z
_TEXT	SEGMENT
this$ = 8
__$ReturnUdt$ = 16
__formal$dead$ = 24
??E?$_List_iterator@V?$_List_val@U?$_List_simple_types@U?$_vector3@M@@@std@@@std@@@std@@QEAA?AV01@H@Z PROC ; std::_List_iterator<std::_List_val<std::_List_simple_types<_vector3<float> > > >::operator++, COMDAT

; 379  : 		_Myiter _Tmp = *this;

	mov	rax, QWORD PTR [rcx]
	mov	QWORD PTR [rdx], rax

; 240  : 		this->_Ptr = _Mylist::_Nextnode(this->_Ptr);

	mov	rax, QWORD PTR [rax]
	mov	QWORD PTR [rcx], rax

; 380  : 		++*this;
; 381  : 		return (_Tmp);

	mov	rax, rdx

; 382  : 		}

	ret	0
??E?$_List_iterator@V?$_List_val@U?$_List_simple_types@U?$_vector3@M@@@std@@@std@@@std@@QEAA?AV01@H@Z ENDP ; std::_List_iterator<std::_List_val<std::_List_simple_types<_vector3<float> > > >::operator++
_TEXT	ENDS
; Function compile flags: /Ogtpy
; File c:\program files (x86)\microsoft visual studio 12.0\vc\include\list
;	COMDAT ??8?$_List_const_iterator@V?$_List_val@U?$_List_simple_types@U?$_vector3@M@@@std@@@std@@@std@@QEBA_NAEBV01@@Z
_TEXT	SEGMENT
this$ = 8
_Right$ = 16
??8?$_List_const_iterator@V?$_List_val@U?$_List_simple_types@U?$_vector3@M@@@std@@@std@@@std@@QEBA_NAEBV01@@Z PROC ; std::_List_const_iterator<std::_List_val<std::_List_simple_types<_vector3<float> > > >::operator==, COMDAT

; 285  :  #if _ITERATOR_DEBUG_LEVEL == 2
; 286  : 		if (this->_Getcont() == 0
; 287  : 			|| this->_Getcont() != _Right._Getcont())
; 288  : 			{	// report error
; 289  : 			_DEBUG_ERROR("list iterators incompatible");
; 290  : 			_SCL_SECURE_INVALID_ARGUMENT;
; 291  : 			}
; 292  : 
; 293  :  #elif _ITERATOR_DEBUG_LEVEL == 1
; 294  : 		_SCL_SECURE_VALIDATE(this->_Getcont() != 0
; 295  : 			&& this->_Getcont() == _Right._Getcont());
; 296  :  #endif /* _ITERATOR_DEBUG_LEVEL */
; 297  : 
; 298  : 		return (this->_Ptr == _Right._Ptr);

	mov	rdx, QWORD PTR [rdx]
	cmp	QWORD PTR [rcx], rdx
	sete	al

; 299  : 		}

	ret	0
??8?$_List_const_iterator@V?$_List_val@U?$_List_simple_types@U?$_vector3@M@@@std@@@std@@@std@@QEBA_NAEBV01@@Z ENDP ; std::_List_const_iterator<std::_List_val<std::_List_simple_types<_vector3<float> > > >::operator==
_TEXT	ENDS
; Function compile flags: /Ogtpy
; File c:\program files (x86)\microsoft visual studio 12.0\vc\include\list
;	COMDAT ??9?$_List_const_iterator@V?$_List_val@U?$_List_simple_types@U?$_vector3@M@@@std@@@std@@@std@@QEBA_NAEBV01@@Z
_TEXT	SEGMENT
this$ = 8
_Right$ = 16
??9?$_List_const_iterator@V?$_List_val@U?$_List_simple_types@U?$_vector3@M@@@std@@@std@@@std@@QEBA_NAEBV01@@Z PROC ; std::_List_const_iterator<std::_List_val<std::_List_simple_types<_vector3<float> > > >::operator!=, COMDAT

; 298  : 		return (this->_Ptr == _Right._Ptr);

	mov	rdx, QWORD PTR [rdx]
	cmp	QWORD PTR [rcx], rdx

; 303  : 		return (!(*this == _Right));

	setne	al

; 304  : 		}

	ret	0
??9?$_List_const_iterator@V?$_List_val@U?$_List_simple_types@U?$_vector3@M@@@std@@@std@@@std@@QEBA_NAEBV01@@Z ENDP ; std::_List_const_iterator<std::_List_val<std::_List_simple_types<_vector3<float> > > >::operator!=
_TEXT	ENDS
; Function compile flags: /Ogtpy
; File c:\program files (x86)\microsoft visual studio 12.0\vc\include\xmemory0
; File c:\users\nummer\documents\github\olr-3.0\src\xray\xrcore\_stl_extensions.h
; File c:\program files (x86)\microsoft visual studio 12.0\vc\include\xmemory0
; File c:\users\nummer\documents\github\olr-3.0\src\xray\xrcore\_stl_extensions.h
;	COMDAT ??1?$_List_buy@U?$_vector3@M@@V?$xalloc@U?$_vector3@M@@@@@std@@QEAA@XZ
_TEXT	SEGMENT
p$1 = 48
this$ = 48
??1?$_List_buy@U?$_vector3@M@@V?$xalloc@U?$_vector3@M@@@@@std@@QEAA@XZ PROC ; std::_List_buy<_vector3<float>,xalloc<_vector3<float> > >::~_List_buy<_vector3<float>,xalloc<_vector3<float> > >, COMDAT
$LN26:
	sub	rsp, 40					; 00000028H
; File c:\program files (x86)\microsoft visual studio 12.0\vc\include\xmemory0

; 858  : 		_Mybase::deallocate(_Ptr, _Count);

	mov	rax, QWORD PTR [rcx]
; File c:\users\nummer\documents\github\olr-3.0\src\xray\xrcore\_stl_extensions.h

; 82   : 							void					deallocate		(pointer p, size_type n) const			{	xr_free	(p);				}

	lea	rcx, QWORD PTR p$1[rsp]
; File c:\program files (x86)\microsoft visual studio 12.0\vc\include\xmemory0

; 858  : 		_Mybase::deallocate(_Ptr, _Count);

	mov	QWORD PTR p$1[rsp], rax
; File c:\users\nummer\documents\github\olr-3.0\src\xray\xrcore\_stl_extensions.h

; 82   : 							void					deallocate		(pointer p, size_type n) const			{	xr_free	(p);				}

	call	??$xr_free@U?$_List_node@U?$_vector3@M@@PEAX@std@@@@YAXAEAPEAU?$_List_node@U?$_vector3@M@@PEAX@std@@@Z ; xr_free<std::_List_node<_vector3<float>,void * __ptr64> >
	add	rsp, 40					; 00000028H
	ret	0
??1?$_List_buy@U?$_vector3@M@@V?$xalloc@U?$_vector3@M@@@@@std@@QEAA@XZ ENDP ; std::_List_buy<_vector3<float>,xalloc<_vector3<float> > >::~_List_buy<_vector3<float>,xalloc<_vector3<float> > >
_TEXT	ENDS
; Function compile flags: /Ogtpy
; File c:\users\nummer\documents\github\olr-3.0\src\xray\xrcore\_stl_extensions.h
;	COMDAT ??0?$xalloc@U?$_vector3@M@@@@QEAA@XZ
_TEXT	SEGMENT
this$ = 8
??0?$xalloc@U?$_vector3@M@@@@QEAA@XZ PROC		; xalloc<_vector3<float> >::xalloc<_vector3<float> >, COMDAT

; 76   : 													xalloc			()										{	}

	mov	rax, rcx
	ret	0
??0?$xalloc@U?$_vector3@M@@@@QEAA@XZ ENDP		; xalloc<_vector3<float> >::xalloc<_vector3<float> >
_TEXT	ENDS
; Function compile flags: /Ogtpy
; File c:\program files (x86)\microsoft visual studio 12.0\vc\include\list
;	COMDAT ?_Unchecked_end@?$list@U?$_vector3@M@@V?$xalloc@U?$_vector3@M@@@@@std@@QEAA?AV?$_List_unchecked_iterator@V?$_List_val@U?$_List_simple_types@U?$_vector3@M@@@std@@@std@@@2@XZ
_TEXT	SEGMENT
this$ = 8
__$ReturnUdt$ = 16
?_Unchecked_end@?$list@U?$_vector3@M@@V?$xalloc@U?$_vector3@M@@@@@std@@QEAA?AV?$_List_unchecked_iterator@V?$_List_val@U?$_List_simple_types@U?$_vector3@M@@@std@@@std@@@2@XZ PROC ; std::list<_vector3<float>,xalloc<_vector3<float> > >::_Unchecked_end, COMDAT

; 44   : 		{	// construct with node pointer _Pnode

	mov	rax, QWORD PTR [rcx]
	mov	QWORD PTR [rdx], rax

; 1148 : 		return (_Unchecked_iterator(this->_Myhead, this));

	mov	rax, rdx

; 1149 : 		}

	ret	0
?_Unchecked_end@?$list@U?$_vector3@M@@V?$xalloc@U?$_vector3@M@@@@@std@@QEAA?AV?$_List_unchecked_iterator@V?$_List_val@U?$_List_simple_types@U?$_vector3@M@@@std@@@std@@@2@XZ ENDP ; std::list<_vector3<float>,xalloc<_vector3<float> > >::_Unchecked_end
_TEXT	ENDS
; Function compile flags: /Ogtpy
; File c:\program files (x86)\microsoft visual studio 12.0\vc\include\list
;	COMDAT ?_Splice@?$list@U?$_vector3@M@@V?$xalloc@U?$_vector3@M@@@@@std@@QEAAXV?$_List_const_iterator@V?$_List_val@U?$_List_simple_types@U?$_vector3@M@@@std@@@std@@@2@AEAV12@00_K@Z
_TEXT	SEGMENT
this$ = 64
_Where$ = 72
_Right$ = 80
_First$ = 88
_Last$ = 96
_Count$dead$ = 104
?_Splice@?$list@U?$_vector3@M@@V?$xalloc@U?$_vector3@M@@@@@std@@QEAAXV?$_List_const_iterator@V?$_List_val@U?$_List_simple_types@U?$_vector3@M@@@std@@@std@@@2@AEAV12@00_K@Z PROC ; std::list<_vector3<float>,xalloc<_vector3<float> > >::_Splice, COMDAT

; 1773 : 		{	// splice _Right [_First, _Last) before _Where

$LN19:
	sub	rsp, 56					; 00000038H

; 1774 :  #if _ITERATOR_DEBUG_LEVEL == 2
; 1775 : 		if (_Where._Getcont() != this)
; 1776 : 			_DEBUG_ERROR("list splice iterator outside range");
; 1777 : 		if (this->_Getal() != _Right._Getal())
; 1778 : 			_DEBUG_ERROR("list containers incompatible for splice");
; 1779 : 
; 1780 : 		if (this != &_Right)
; 1781 : 			{	// transfer ownership
; 1782 : 			_Lockit _Lock(_LOCK_DEBUG);
; 1783 : 
; 1784 : 			const bool _One = _Count == 1;
; 1785 : 			const bool _All = _Count == _Right.size();
; 1786 : 			const bool _Some = !_One && !_All;
; 1787 : 
; 1788 : 			_Nodeptr _Oldprev = _First._Ptr->_Prev;
; 1789 : 
; 1790 : 			if (_Some)
; 1791 : 				for (_Nodeptr _Ptr = _First._Ptr; _Ptr != _Last._Ptr;
; 1792 : 					_Ptr = _Ptr->_Next)
; 1793 : 					{	// mark _Prev pointers
; 1794 : 					_Ptr->_Prev = 0;
; 1795 : 					}
; 1796 : 
; 1797 : 			const_iterator **_Pnext = (const_iterator **)_Right._Getpfirst();
; 1798 : 
; 1799 : 			if (_Pnext == 0)
; 1800 : 				_DEBUG_ERROR("list container corrupted");
; 1801 : 
; 1802 : 			while (*_Pnext != 0)
; 1803 : 				{	// check the iterator
; 1804 : 				const_iterator& _Iter = **_Pnext;
; 1805 : 
; 1806 : 				if ((_One && _Iter._Ptr == _First._Ptr)
; 1807 : 					|| (_All && _Iter._Ptr != _Right._Myhead)
; 1808 : 					|| (_Some && _Iter._Ptr->_Prev == 0))
; 1809 : 					{	// adopt the iterator
; 1810 : 					*_Pnext = (const_iterator *)_Iter._Mynextiter;
; 1811 : 					_Iter._Myproxy = this->_Myproxy;
; 1812 : 					_Iter._Mynextiter = this->_Myproxy->_Myfirstiter;
; 1813 : 					this->_Myproxy->_Myfirstiter = &_Iter;
; 1814 : 					}
; 1815 : 				else
; 1816 : 					{	// skip the iterator
; 1817 : 					_Pnext = (const_iterator **)_Iter._Getpnext();
; 1818 : 					}
; 1819 : 				}
; 1820 : 
; 1821 : 			if (_Some)
; 1822 : 				for (_Nodeptr _Ptr = _First._Ptr; _Ptr != _Last._Ptr;
; 1823 : 					_Ptr = _Ptr->_Next)
; 1824 : 					{	// restore _Prev pointers
; 1825 : 					_Ptr->_Prev = _Oldprev;
; 1826 : 					_Oldprev = _Ptr;
; 1827 : 					}
; 1828 : 			}
; 1829 : 
; 1830 :  #else /* _ITERATOR_DEBUG_LEVEL == 2 */
; 1831 : 		if (this->_Getal() != _Right._Getal())
; 1832 : 			_XSTD terminate();
; 1833 :  #endif /* _ITERATOR_DEBUG_LEVEL == 2 */
; 1834 : 
; 1835 : 		_Splice_same(_Where, _Right, _First, _Last, _Count);

	mov	rax, QWORD PTR _Last$[rsp]
	mov	QWORD PTR [rsp+32], rax
	call	?_Splice_same@?$list@U?$_vector3@M@@V?$xalloc@U?$_vector3@M@@@@@std@@QEAAXV?$_List_const_iterator@V?$_List_val@U?$_List_simple_types@U?$_vector3@M@@@std@@@std@@@2@AEAV12@00_K@Z ; std::list<_vector3<float>,xalloc<_vector3<float> > >::_Splice_same

; 1836 : 		}

	add	rsp, 56					; 00000038H
	ret	0
?_Splice@?$list@U?$_vector3@M@@V?$xalloc@U?$_vector3@M@@@@@std@@QEAAXV?$_List_const_iterator@V?$_List_val@U?$_List_simple_types@U?$_vector3@M@@@std@@@std@@@2@AEAV12@00_K@Z ENDP ; std::list<_vector3<float>,xalloc<_vector3<float> > >::_Splice
_TEXT	ENDS
; Function compile flags: /Ogtpy
; File c:\program files (x86)\microsoft visual studio 12.0\vc\include\list
;	COMDAT ?_Tidy@?$list@U?$_vector3@M@@V?$xalloc@U?$_vector3@M@@@@@std@@QEAAXXZ
_TEXT	SEGMENT
this$ = 8
?_Tidy@?$list@U?$_vector3@M@@V?$xalloc@U?$_vector3@M@@@@@std@@QEAAXXZ PROC ; std::list<_vector3<float>,xalloc<_vector3<float> > >::_Tidy, COMDAT

; 1883 : 		clear();

	jmp	?clear@?$list@U?$_vector3@M@@V?$xalloc@U?$_vector3@M@@@@@std@@QEAAXXZ ; std::list<_vector3<float>,xalloc<_vector3<float> > >::clear
?_Tidy@?$list@U?$_vector3@M@@V?$xalloc@U?$_vector3@M@@@@@std@@QEAAXXZ ENDP ; std::list<_vector3<float>,xalloc<_vector3<float> > >::_Tidy
_TEXT	ENDS
; Function compile flags: /Ogtpy
; File c:\program files (x86)\microsoft visual studio 12.0\vc\include\list
;	COMDAT ??0?$_List_buy@U?$_vector3@M@@V?$xalloc@U?$_vector3@M@@@@@std@@QEAA@AEBV?$xalloc@U?$_vector3@M@@@@@Z
_TEXT	SEGMENT
this$ = 48
_Al$dead$ = 56
??0?$_List_buy@U?$_vector3@M@@V?$xalloc@U?$_vector3@M@@@@@std@@QEAA@AEBV?$xalloc@U?$_vector3@M@@@@@Z PROC ; std::_List_buy<_vector3<float>,xalloc<_vector3<float> > >::_List_buy<_vector3<float>,xalloc<_vector3<float> > >, COMDAT

; 823  : 		{	// construct from allocator

$LN10:
	push	rbx
	sub	rsp, 32					; 00000020H

; 527  : 		this->_Myhead = 0;

	xor	eax, eax

; 703  : 		}
; 704  : 
; 705  : 	~_List_alloc() _NOEXCEPT
; 706  : 		{	// destroy head node
; 707  : 		_Freeheadnode(this->_Myhead);
; 708  : 		}
; 709  : 
; 710  : 	void _Change_alloc(const _Alty&)
; 711  : 		{	// replace old allocator
; 712  : 		}
; 713  : 
; 714  : 	void _Swap_alloc(_Myt&)
; 715  : 		{	// swap allocators
; 716  : 		}
; 717  : 
; 718  :  #else /* _ITERATOR_DEBUG_LEVEL == 0 */
; 719  : 	_List_alloc(const _Alloc& = _Alloc())
; 720  : 		{	// construct allocators from _Al
; 721  : 		this->_Myhead = _Buyheadnode();
; 722  : 		_TRY_BEGIN
; 723  : 		_Alloc_proxy();
; 724  : 		_CATCH_ALL
; 725  : 		_Freeheadnode(this->_Myhead);
; 726  : 		_RERAISE;
; 727  : 		_CATCH_END
; 728  : 		}
; 729  : 
; 730  : 	~_List_alloc() _NOEXCEPT
; 731  : 		{	// destroy proxy
; 732  : 		_Freeheadnode(this->_Myhead);
; 733  : 		_Free_proxy();
; 734  : 		}
; 735  : 
; 736  : 	void _Change_alloc(const _Alty&)
; 737  : 		{	// replace old allocator
; 738  : 		}
; 739  : 
; 740  : 	void _Swap_alloc(_Myt& _Right)
; 741  : 		{	// swap allocators
; 742  : 		_Swap_adl(this->_Myproxy, _Right._Myproxy);
; 743  : 		}
; 744  : 
; 745  : 	void _Alloc_proxy()
; 746  : 		{	// construct proxy from _Alnod
; 747  : 		typename _Alty::template rebind<_Container_proxy>::other
; 748  : 			_Alproxy;
; 749  : 		this->_Myproxy = _Alproxy.allocate(1);
; 750  : 		_Alproxy.construct(this->_Myproxy, _Container_proxy());
; 751  : 		this->_Myproxy->_Mycont = this;
; 752  : 		}
; 753  : 
; 754  : 	void _Free_proxy()
; 755  : 		{	// destroy proxy
; 756  : 		typename _Alty::template rebind<_Container_proxy>::other
; 757  : 			_Alproxy;
; 758  : 		this->_Orphan_all();
; 759  : 		_Alproxy.destroy(this->_Myproxy);
; 760  : 		_Alproxy.deallocate(this->_Myproxy, 1);
; 761  : 		this->_Myproxy = 0;
; 762  : 		}
; 763  :  #endif /* _ITERATOR_DEBUG_LEVEL == 0 */
; 764  : 
; 765  : 	_Nodeptr _Buyheadnode()
; 766  : 		{	// get head node using current allocator
; 767  : 		return (_Buynode0(_Nodeptr(), _Nodeptr()));

	xor	r8d, r8d
	xor	edx, edx

; 527  : 		this->_Myhead = 0;

	mov	QWORD PTR [rcx], rax

; 528  : 		this->_Mysize = 0;

	mov	QWORD PTR [rcx+8], rax

; 823  : 		{	// construct from allocator

	mov	rbx, rcx

; 703  : 		}
; 704  : 
; 705  : 	~_List_alloc() _NOEXCEPT
; 706  : 		{	// destroy head node
; 707  : 		_Freeheadnode(this->_Myhead);
; 708  : 		}
; 709  : 
; 710  : 	void _Change_alloc(const _Alty&)
; 711  : 		{	// replace old allocator
; 712  : 		}
; 713  : 
; 714  : 	void _Swap_alloc(_Myt&)
; 715  : 		{	// swap allocators
; 716  : 		}
; 717  : 
; 718  :  #else /* _ITERATOR_DEBUG_LEVEL == 0 */
; 719  : 	_List_alloc(const _Alloc& = _Alloc())
; 720  : 		{	// construct allocators from _Al
; 721  : 		this->_Myhead = _Buyheadnode();
; 722  : 		_TRY_BEGIN
; 723  : 		_Alloc_proxy();
; 724  : 		_CATCH_ALL
; 725  : 		_Freeheadnode(this->_Myhead);
; 726  : 		_RERAISE;
; 727  : 		_CATCH_END
; 728  : 		}
; 729  : 
; 730  : 	~_List_alloc() _NOEXCEPT
; 731  : 		{	// destroy proxy
; 732  : 		_Freeheadnode(this->_Myhead);
; 733  : 		_Free_proxy();
; 734  : 		}
; 735  : 
; 736  : 	void _Change_alloc(const _Alty&)
; 737  : 		{	// replace old allocator
; 738  : 		}
; 739  : 
; 740  : 	void _Swap_alloc(_Myt& _Right)
; 741  : 		{	// swap allocators
; 742  : 		_Swap_adl(this->_Myproxy, _Right._Myproxy);
; 743  : 		}
; 744  : 
; 745  : 	void _Alloc_proxy()
; 746  : 		{	// construct proxy from _Alnod
; 747  : 		typename _Alty::template rebind<_Container_proxy>::other
; 748  : 			_Alproxy;
; 749  : 		this->_Myproxy = _Alproxy.allocate(1);
; 750  : 		_Alproxy.construct(this->_Myproxy, _Container_proxy());
; 751  : 		this->_Myproxy->_Mycont = this;
; 752  : 		}
; 753  : 
; 754  : 	void _Free_proxy()
; 755  : 		{	// destroy proxy
; 756  : 		typename _Alty::template rebind<_Container_proxy>::other
; 757  : 			_Alproxy;
; 758  : 		this->_Orphan_all();
; 759  : 		_Alproxy.destroy(this->_Myproxy);
; 760  : 		_Alproxy.deallocate(this->_Myproxy, 1);
; 761  : 		this->_Myproxy = 0;
; 762  : 		}
; 763  :  #endif /* _ITERATOR_DEBUG_LEVEL == 0 */
; 764  : 
; 765  : 	_Nodeptr _Buyheadnode()
; 766  : 		{	// get head node using current allocator
; 767  : 		return (_Buynode0(_Nodeptr(), _Nodeptr()));

	call	?_Buynode0@?$_List_alloc@$0A@U?$_List_base_types@U?$_vector3@M@@V?$xalloc@U?$_vector3@M@@@@@std@@@std@@QEAAPEAU?$_List_node@U?$_vector3@M@@PEAX@2@PEAU32@0@Z ; std::_List_alloc<0,std::_List_base_types<_vector3<float>,xalloc<_vector3<float> > > >::_Buynode0

; 529  : 		}
; 530  : 
; 531  : 	static _Nodepref _Nextnode(_Nodeptr _Pnode)
; 532  : 		{	// return reference to successor pointer in node
; 533  : 		return ((_Nodepref)_Pnode->_Next);
; 534  : 		}
; 535  : 
; 536  : 	static _Nodepref _Prevnode(_Nodeptr _Pnode)
; 537  : 		{	// return reference to predecessor pointer in node
; 538  : 		return ((_Nodepref)_Pnode->_Prev);
; 539  : 		}
; 540  : 
; 541  : 	static reference _Myval(_Nodeptr _Pnode)
; 542  : 		{	// return reference to value in node
; 543  : 		return ((reference)_Pnode->_Myval);
; 544  : 		}
; 545  : 
; 546  : 	_Nodeptr _Myhead;	// pointer to head node
; 547  : 	size_type _Mysize;	// number of elements
; 548  : 	};
; 549  : 
; 550  : 		// TEMPLATE CLASS _List_alloc
; 551  : template<bool _Al_has_storage,
; 552  : 	class _Alloc_types>
; 553  : 	class _List_alloc
; 554  : 		: public _List_val<typename _Alloc_types::_Val_types>
; 555  : 	{	// base class for list to hold allocator with storage
; 556  : public:
; 557  : 	typename _Alloc_types::_Alnod_type _Alnod;	// allocator object
; 558  : 
; 559  : 	typedef _List_alloc<_Al_has_storage, _Alloc_types> _Myt;
; 560  : 	typedef typename _Alloc_types::_Alloc _Alloc;
; 561  : 	typedef typename _Alloc_types::_Alnod_type _Alty;
; 562  : 	typedef typename _Alloc_types::_Node _Node;
; 563  : 	typedef typename _Alloc_types::_Nodeptr _Nodeptr;
; 564  : 
; 565  :  #if _ITERATOR_DEBUG_LEVEL == 0
; 566  : 	_List_alloc(const _Alloc& _Al = _Alloc())
; 567  : 		: _Alnod(_Al)
; 568  : 		{	// construct head node, allocator from _Al
; 569  : 		this->_Myhead = _Buyheadnode();
; 570  : 		}
; 571  : 
; 572  : 	~_List_alloc() _NOEXCEPT
; 573  : 		{	// destroy head node
; 574  : 		_Freeheadnode(this->_Myhead);
; 575  : 		}
; 576  : 
; 577  : 	void _Change_alloc(const _Alty& _Al)
; 578  : 		{	// replace old allocator
; 579  : 		this->_Alnod = _Al;
; 580  : 		}
; 581  : 
; 582  : 	void _Swap_alloc(_Myt& _Right)
; 583  : 		{	// swap allocators
; 584  : 		_Swap_adl(this->_Alnod, _Right._Alnod);
; 585  : 		}
; 586  : 
; 587  :  #else /* _ITERATOR_DEBUG_LEVEL == 0 */
; 588  : 	_List_alloc(const _Alloc& _Al = _Alloc())
; 589  : 		: _Alnod(_Al)
; 590  : 		{	// construct head node, allocator from _Al
; 591  : 		this->_Myhead = _Buyheadnode();
; 592  : 		_TRY_BEGIN
; 593  : 		_Alloc_proxy();
; 594  : 		_CATCH_ALL
; 595  : 		_Freeheadnode(this->_Myhead);
; 596  : 		_RERAISE;
; 597  : 		_CATCH_END
; 598  : 		}
; 599  : 
; 600  : 	~_List_alloc() _NOEXCEPT
; 601  : 		{	// destroy proxy
; 602  : 		_Freeheadnode(this->_Myhead);
; 603  : 		_Free_proxy();
; 604  : 		}
; 605  : 
; 606  : 	void _Change_alloc(const _Alty& _Al)
; 607  : 		{	// replace old allocator
; 608  : 		_Free_proxy();
; 609  : 		this->_Alnod = _Al;
; 610  : 		_Alloc_proxy();
; 611  : 		}
; 612  : 
; 613  : 	void _Swap_alloc(_Myt& _Right)
; 614  : 		{	// swap allocators
; 615  : 		_Swap_adl(this->_Alnod, _Right._Alnod);
; 616  : 		_Swap_adl(this->_Myproxy, _Right._Myproxy);
; 617  : 		}
; 618  : 
; 619  : 	void _Alloc_proxy()
; 620  : 		{	// construct proxy from _Alnod
; 621  : 		typename _Alty::template rebind<_Container_proxy>::other
; 622  : 			_Alproxy(this->_Alnod);
; 623  : 		this->_Myproxy = _Alproxy.allocate(1);
; 624  : 		_Alproxy.construct(this->_Myproxy, _Container_proxy());
; 625  : 		this->_Myproxy->_Mycont = this;
; 626  : 		}
; 627  : 
; 628  : 	void _Free_proxy()
; 629  : 		{	// destroy proxy
; 630  : 		typename _Alty::template rebind<_Container_proxy>::other
; 631  : 			_Alproxy(this->_Alnod);
; 632  : 		this->_Orphan_all();
; 633  : 		_Alproxy.destroy(this->_Myproxy);
; 634  : 		_Alproxy.deallocate(this->_Myproxy, 1);
; 635  : 		this->_Myproxy = 0;
; 636  : 		}
; 637  :  #endif /* _ITERATOR_DEBUG_LEVEL == 0 */
; 638  : 
; 639  : 	_Nodeptr _Buyheadnode()
; 640  : 		{	// get head node using current allocator
; 641  : 		return (_Buynode0(_Nodeptr(), _Nodeptr()));
; 642  : 		}
; 643  : 
; 644  : 	void _Freeheadnode(_Nodeptr _Pnode)
; 645  : 		{	// free head node using current allocator
; 646  : 		this->_Alnod.destroy(
; 647  : 			_STD addressof(this->_Nextnode(_Pnode)));
; 648  : 		this->_Alnod.destroy(
; 649  : 			_STD addressof(this->_Prevnode(_Pnode)));
; 650  : 		this->_Alnod.deallocate(_Pnode, 1);
; 651  : 		}
; 652  : 
; 653  : 	_Nodeptr _Buynode0(_Nodeptr _Next,
; 654  : 		_Nodeptr _Prev)
; 655  : 		{	// allocate a node and set links
; 656  : 		_Nodeptr _Pnode = this->_Alnod.allocate(1);
; 657  : 
; 658  : 		if (_Next == _Nodeptr())
; 659  : 			{	// point at self
; 660  : 			_Next = _Pnode;
; 661  : 			_Prev = _Pnode;
; 662  : 			}
; 663  : 		_TRY_BEGIN
; 664  : 		this->_Alnod.construct(
; 665  : 			_STD addressof(this->_Nextnode(_Pnode)), _Next);
; 666  : 		this->_Alnod.construct(
; 667  : 			_STD addressof(this->_Prevnode(_Pnode)), _Prev);
; 668  : 		_CATCH_ALL
; 669  : 		this->_Alnod.deallocate(_Pnode, 1);
; 670  : 		_RERAISE;
; 671  : 		_CATCH_END
; 672  : 
; 673  : 		return (_Pnode);
; 674  : 		}
; 675  : 
; 676  : 	_Alty& _Getal()
; 677  : 		{	// get reference to allocator
; 678  : 		return (this->_Alnod);
; 679  : 		}
; 680  : 
; 681  : 	const _Alty& _Getal() const
; 682  : 		{	// get reference to allocator
; 683  : 		return (this->_Alnod);
; 684  : 		}
; 685  : 	};
; 686  : 
; 687  : 		// TEMPLATE CLASS _List_alloc
; 688  : template<class _Alloc_types>
; 689  : 	class _List_alloc<false, _Alloc_types>
; 690  : 		: public _List_val<typename _Alloc_types::_Val_types>
; 691  : 	{	// base class for list to hold allocator with no storage
; 692  : public:
; 693  : 	typedef _List_alloc<false, _Alloc_types> _Myt;
; 694  : 	typedef typename _Alloc_types::_Alloc _Alloc;
; 695  : 	typedef typename _Alloc_types::_Alnod_type _Alty;
; 696  : 	typedef typename _Alloc_types::_Node _Node;
; 697  : 	typedef typename _Alloc_types::_Nodeptr _Nodeptr;
; 698  : 
; 699  :  #if _ITERATOR_DEBUG_LEVEL == 0
; 700  : 	_List_alloc(const _Alloc& = _Alloc())
; 701  : 		{	// construct head node, allocator from _Al
; 702  : 		this->_Myhead = _Buyheadnode();

	mov	QWORD PTR [rbx], rax

; 824  : 		}

	mov	rax, rbx
	add	rsp, 32					; 00000020H
	pop	rbx
	ret	0
??0?$_List_buy@U?$_vector3@M@@V?$xalloc@U?$_vector3@M@@@@@std@@QEAA@AEBV?$xalloc@U?$_vector3@M@@@@@Z ENDP ; std::_List_buy<_vector3<float>,xalloc<_vector3<float> > >::_List_buy<_vector3<float>,xalloc<_vector3<float> > >
_TEXT	ENDS
; Function compile flags: /Ogtpy
; File c:\program files (x86)\microsoft visual studio 12.0\vc\include\list
; File c:\program files (x86)\microsoft visual studio 12.0\vc\include\xmemory0
; File c:\users\nummer\documents\github\olr-3.0\src\xray\xrcore\_stl_extensions.h
; File c:\program files (x86)\microsoft visual studio 12.0\vc\include\xmemory0
; File c:\users\nummer\documents\github\olr-3.0\src\xray\xrcore\_stl_extensions.h
; File c:\program files (x86)\microsoft visual studio 12.0\vc\include\list
;	COMDAT ??1?$_List_alloc@$0A@U?$_List_base_types@U?$_vector3@M@@V?$xalloc@U?$_vector3@M@@@@@std@@@std@@QEAA@XZ
_TEXT	SEGMENT
p$1 = 48
this$ = 48
??1?$_List_alloc@$0A@U?$_List_base_types@U?$_vector3@M@@V?$xalloc@U?$_vector3@M@@@@@std@@@std@@QEAA@XZ PROC ; std::_List_alloc<0,std::_List_base_types<_vector3<float>,xalloc<_vector3<float> > > >::~_List_alloc<0,std::_List_base_types<_vector3<float>,xalloc<_vector3<float> > > >, COMDAT

; 706  : 		{	// destroy head node

$LN24:
	sub	rsp, 40					; 00000028H
; File c:\program files (x86)\microsoft visual studio 12.0\vc\include\xmemory0

; 858  : 		_Mybase::deallocate(_Ptr, _Count);

	mov	rax, QWORD PTR [rcx]
; File c:\users\nummer\documents\github\olr-3.0\src\xray\xrcore\_stl_extensions.h

; 82   : 							void					deallocate		(pointer p, size_type n) const			{	xr_free	(p);				}

	lea	rcx, QWORD PTR p$1[rsp]
; File c:\program files (x86)\microsoft visual studio 12.0\vc\include\xmemory0

; 858  : 		_Mybase::deallocate(_Ptr, _Count);

	mov	QWORD PTR p$1[rsp], rax
; File c:\users\nummer\documents\github\olr-3.0\src\xray\xrcore\_stl_extensions.h

; 82   : 							void					deallocate		(pointer p, size_type n) const			{	xr_free	(p);				}

	call	??$xr_free@U?$_List_node@U?$_vector3@M@@PEAX@std@@@@YAXAEAPEAU?$_List_node@U?$_vector3@M@@PEAX@std@@@Z ; xr_free<std::_List_node<_vector3<float>,void * __ptr64> >
; File c:\program files (x86)\microsoft visual studio 12.0\vc\include\list

; 708  : 		}

	add	rsp, 40					; 00000028H
	ret	0
??1?$_List_alloc@$0A@U?$_List_base_types@U?$_vector3@M@@V?$xalloc@U?$_vector3@M@@@@@std@@@std@@QEAA@XZ ENDP ; std::_List_alloc<0,std::_List_base_types<_vector3<float>,xalloc<_vector3<float> > > >::~_List_alloc<0,std::_List_base_types<_vector3<float>,xalloc<_vector3<float> > > >
_TEXT	ENDS
; Function compile flags: /Ogtpy
; File c:\program files (x86)\microsoft visual studio 12.0\vc\include\list
;	COMDAT ?_Nextnode@?$_List_val@U?$_List_simple_types@U?$_vector3@M@@@std@@@std@@SAAEAPEAU?$_List_node@U?$_vector3@M@@PEAX@2@PEAU32@@Z
_TEXT	SEGMENT
_Pnode$ = 8
?_Nextnode@?$_List_val@U?$_List_simple_types@U?$_vector3@M@@@std@@@std@@SAAEAPEAU?$_List_node@U?$_vector3@M@@PEAX@2@PEAU32@@Z PROC ; std::_List_val<std::_List_simple_types<_vector3<float> > >::_Nextnode, COMDAT

; 533  : 		return ((_Nodepref)_Pnode->_Next);

	mov	rax, rcx

; 534  : 		}

	ret	0
?_Nextnode@?$_List_val@U?$_List_simple_types@U?$_vector3@M@@@std@@@std@@SAAEAPEAU?$_List_node@U?$_vector3@M@@PEAX@2@PEAU32@@Z ENDP ; std::_List_val<std::_List_simple_types<_vector3<float> > >::_Nextnode
_TEXT	ENDS
; Function compile flags: /Ogtpy
; File c:\program files (x86)\microsoft visual studio 12.0\vc\include\list
;	COMDAT ??0?$_List_iterator@V?$_List_val@U?$_List_simple_types@U?$_vector3@M@@@std@@@std@@@std@@QEAA@PEAU?$_List_node@U?$_vector3@M@@PEAX@1@PEBV?$_List_val@U?$_List_simple_types@U?$_vector3@M@@@std@@@1@@Z
_TEXT	SEGMENT
this$ = 8
_Pnode$ = 16
_Plist$dead$ = 24
??0?$_List_iterator@V?$_List_val@U?$_List_simple_types@U?$_vector3@M@@@std@@@std@@@std@@QEAA@PEAU?$_List_node@U?$_vector3@M@@PEAX@1@PEBV?$_List_val@U?$_List_simple_types@U?$_vector3@M@@@std@@@1@@Z PROC ; std::_List_iterator<std::_List_val<std::_List_simple_types<_vector3<float> > > >::_List_iterator<std::_List_val<std::_List_simple_types<_vector3<float> > > >, COMDAT

; 44   : 		{	// construct with node pointer _Pnode

	mov	QWORD PTR [rcx], rdx

; 346  : 		}

	mov	rax, rcx
	ret	0
??0?$_List_iterator@V?$_List_val@U?$_List_simple_types@U?$_vector3@M@@@std@@@std@@@std@@QEAA@PEAU?$_List_node@U?$_vector3@M@@PEAX@1@PEBV?$_List_val@U?$_List_simple_types@U?$_vector3@M@@@std@@@1@@Z ENDP ; std::_List_iterator<std::_List_val<std::_List_simple_types<_vector3<float> > > >::_List_iterator<std::_List_val<std::_List_simple_types<_vector3<float> > > >
_TEXT	ENDS
; Function compile flags: /Ogtpy
; File c:\program files (x86)\microsoft visual studio 12.0\vc\include\list
;	COMDAT ??0?$_List_const_iterator@V?$_List_val@U?$_List_simple_types@U?$_vector3@M@@@std@@@std@@@std@@QEAA@XZ
_TEXT	SEGMENT
this$ = 8
??0?$_List_const_iterator@V?$_List_val@U?$_List_simple_types@U?$_vector3@M@@@std@@@std@@@std@@QEAA@XZ PROC ; std::_List_const_iterator<std::_List_val<std::_List_simple_types<_vector3<float> > > >::_List_const_iterator<std::_List_val<std::_List_simple_types<_vector3<float> > > >, COMDAT

; 39   : 		{	// construct with null node pointer

	mov	QWORD PTR [rcx], 0

; 183  : 		}

	mov	rax, rcx
	ret	0
??0?$_List_const_iterator@V?$_List_val@U?$_List_simple_types@U?$_vector3@M@@@std@@@std@@@std@@QEAA@XZ ENDP ; std::_List_const_iterator<std::_List_val<std::_List_simple_types<_vector3<float> > > >::_List_const_iterator<std::_List_val<std::_List_simple_types<_vector3<float> > > >
_TEXT	ENDS
; Function compile flags: /Ogtpy
; File c:\program files (x86)\microsoft visual studio 12.0\vc\include\list
;	COMDAT ??0?$_List_const_iterator@V?$_List_val@U?$_List_simple_types@U?$_vector3@M@@@std@@@std@@@std@@QEAA@PEAU?$_List_node@U?$_vector3@M@@PEAX@1@PEBV?$_List_val@U?$_List_simple_types@U?$_vector3@M@@@std@@@1@@Z
_TEXT	SEGMENT
this$ = 8
_Pnode$ = 16
_Plist$dead$ = 24
??0?$_List_const_iterator@V?$_List_val@U?$_List_simple_types@U?$_vector3@M@@@std@@@std@@@std@@QEAA@PEAU?$_List_node@U?$_vector3@M@@PEAX@1@PEBV?$_List_val@U?$_List_simple_types@U?$_vector3@M@@@std@@@1@@Z PROC ; std::_List_const_iterator<std::_List_val<std::_List_simple_types<_vector3<float> > > >::_List_const_iterator<std::_List_val<std::_List_simple_types<_vector3<float> > > >, COMDAT

; 44   : 		{	// construct with node pointer _Pnode

	mov	QWORD PTR [rcx], rdx

; 188  : 		}

	mov	rax, rcx
	ret	0
??0?$_List_const_iterator@V?$_List_val@U?$_List_simple_types@U?$_vector3@M@@@std@@@std@@@std@@QEAA@PEAU?$_List_node@U?$_vector3@M@@PEAX@1@PEBV?$_List_val@U?$_List_simple_types@U?$_vector3@M@@@std@@@1@@Z ENDP ; std::_List_const_iterator<std::_List_val<std::_List_simple_types<_vector3<float> > > >::_List_const_iterator<std::_List_val<std::_List_simple_types<_vector3<float> > > >
_TEXT	ENDS
; Function compile flags: /Ogtpy
; File c:\program files (x86)\microsoft visual studio 12.0\vc\include\list
;	COMDAT ??D?$_List_const_iterator@V?$_List_val@U?$_List_simple_types@U?$_vector3@M@@@std@@@std@@@std@@QEBAAEBU?$_vector3@M@@XZ
_TEXT	SEGMENT
this$ = 8
??D?$_List_const_iterator@V?$_List_val@U?$_List_simple_types@U?$_vector3@M@@@std@@@std@@@std@@QEBAAEBU?$_vector3@M@@XZ PROC ; std::_List_const_iterator<std::_List_val<std::_List_simple_types<_vector3<float> > > >::operator*, COMDAT

; 222  : 
; 223  : 	_Myiter& operator++()
; 224  : 		{	// preincrement
; 225  :  #if _ITERATOR_DEBUG_LEVEL == 2
; 226  : 		if (this->_Getcont() == 0
; 227  : 			|| this->_Ptr == 0
; 228  : 			|| this->_Ptr == ((_Mylist *)this->_Getcont())->_Myhead)
; 229  : 			{	// report error
; 230  : 			_DEBUG_ERROR("list iterator not incrementable");
; 231  : 			_SCL_SECURE_OUT_OF_RANGE;
; 232  : 			}
; 233  : 
; 234  :  #elif _ITERATOR_DEBUG_LEVEL == 1
; 235  : 		_SCL_SECURE_VALIDATE(this->_Getcont() != 0 && this->_Ptr != 0);
; 236  : 		_SCL_SECURE_VALIDATE_RANGE(this->_Ptr !=
; 237  : 			((_Mylist *)this->_Getcont())->_Myhead);
; 238  :  #endif /* _ITERATOR_DEBUG_LEVEL */
; 239  : 
; 240  : 		this->_Ptr = _Mylist::_Nextnode(this->_Ptr);
; 241  : 		return (*this);
; 242  : 		}
; 243  : 
; 244  : 	_Myiter operator++(int)
; 245  : 		{	// postincrement
; 246  : 		_Myiter _Tmp = *this;
; 247  : 		++*this;
; 248  : 		return (_Tmp);
; 249  : 		}
; 250  : 
; 251  : 	_Myiter& operator--()
; 252  : 		{	// predecrement
; 253  :  #if _ITERATOR_DEBUG_LEVEL == 2
; 254  : 		if (this->_Getcont() == 0
; 255  : 			|| this->_Ptr == 0
; 256  : 			|| (this->_Ptr = _Mylist::_Prevnode(this->_Ptr))
; 257  : 				== ((_Mylist *)this->_Getcont())->_Myhead)
; 258  : 			{	// report error
; 259  : 			_DEBUG_ERROR("list iterator not decrementable");
; 260  : 			_SCL_SECURE_OUT_OF_RANGE;
; 261  : 			}
; 262  : 
; 263  :  #elif _ITERATOR_DEBUG_LEVEL == 1
; 264  : 		_SCL_SECURE_VALIDATE(this->_Getcont() != 0 && this->_Ptr != 0);
; 265  : 		this->_Ptr = _Mylist::_Prevnode(this->_Ptr);
; 266  : 		_SCL_SECURE_VALIDATE_RANGE(this->_Ptr !=
; 267  : 			((_Mylist *)this->_Getcont())->_Myhead);
; 268  : 
; 269  :  #else /* _ITERATOR_DEBUG_LEVEL */
; 270  : 		this->_Ptr = _Mylist::_Prevnode(this->_Ptr);
; 271  :  #endif /* _ITERATOR_DEBUG_LEVEL */
; 272  : 
; 273  : 		return (*this);
; 274  : 		}
; 275  : 
; 276  : 	_Myiter operator--(int)
; 277  : 		{	// postdecrement
; 278  : 		_Myiter _Tmp = *this;
; 279  : 		--*this;
; 280  : 		return (_Tmp);
; 281  : 		}
; 282  : 
; 283  : 	bool operator==(const _Myiter& _Right) const
; 284  : 		{	// test for iterator equality
; 285  :  #if _ITERATOR_DEBUG_LEVEL == 2
; 286  : 		if (this->_Getcont() == 0
; 287  : 			|| this->_Getcont() != _Right._Getcont())
; 288  : 			{	// report error
; 289  : 			_DEBUG_ERROR("list iterators incompatible");
; 290  : 			_SCL_SECURE_INVALID_ARGUMENT;
; 291  : 			}
; 292  : 
; 293  :  #elif _ITERATOR_DEBUG_LEVEL == 1
; 294  : 		_SCL_SECURE_VALIDATE(this->_Getcont() != 0
; 295  : 			&& this->_Getcont() == _Right._Getcont());
; 296  :  #endif /* _ITERATOR_DEBUG_LEVEL */
; 297  : 
; 298  : 		return (this->_Ptr == _Right._Ptr);
; 299  : 		}
; 300  : 
; 301  : 	bool operator!=(const _Myiter& _Right) const
; 302  : 		{	// test for iterator inequality
; 303  : 		return (!(*this == _Right));
; 304  : 		}
; 305  : 	};
; 306  : 
; 307  : template<class _Mylist> inline
; 308  : 	typename _List_const_iterator<_Mylist>::_Unchecked_type
; 309  : 		_Unchecked(_List_const_iterator<_Mylist> _Iter)
; 310  : 	{	// convert to unchecked
; 311  : 	return (_Iter._Unchecked());
; 312  : 	}
; 313  : 
; 314  : template<class _Mylist> inline
; 315  : 	_List_const_iterator<_Mylist>&
; 316  : 		_Rechecked(_List_const_iterator<_Mylist>& _Iter,
; 317  : 			typename _List_const_iterator<_Mylist>
; 318  : 				::_Unchecked_type _Right)
; 319  : 	{	// convert to checked
; 320  : 	return (_Iter._Rechecked(_Right));
; 321  : 	}
; 322  : 
; 323  : 	// TEMPLATE CLASS _List_iterator
; 324  : template<class _Mylist>
; 325  : 	class _List_iterator
; 326  : 		: public _List_const_iterator<_Mylist>
; 327  : 	{	// iterator for mutable list
; 328  : public:
; 329  : 	typedef _List_iterator<_Mylist> _Myiter;
; 330  : 	typedef _List_const_iterator<_Mylist> _Mybase;
; 331  : 	typedef bidirectional_iterator_tag iterator_category;
; 332  : 
; 333  : 	typedef typename _Mylist::_Nodeptr _Nodeptr;
; 334  : 	typedef typename _Mylist::value_type value_type;
; 335  : 	typedef typename _Mylist::difference_type difference_type;
; 336  : 	typedef typename _Mylist::pointer pointer;
; 337  : 	typedef typename _Mylist::reference reference;
; 338  : 
; 339  : 	_List_iterator()
; 340  : 		{	// construct with null node
; 341  : 		}
; 342  : 
; 343  : 	_List_iterator(_Nodeptr _Pnode, const _Mylist *_Plist)
; 344  : 		: _Mybase(_Pnode, _Plist)
; 345  : 		{	// construct with node pointer _Pnode
; 346  : 		}
; 347  : 
; 348  : 	typedef _List_unchecked_iterator<_Mylist> _Unchecked_type;
; 349  : 
; 350  : 	_Myiter& _Rechecked(_Unchecked_type _Right)
; 351  : 		{	// reset from unchecked iterator
; 352  : 		this->_Ptr = _Right._Ptr;
; 353  : 		return (*this);
; 354  : 		}
; 355  : 
; 356  : 	_Unchecked_type _Unchecked() const
; 357  : 		{	// make an unchecked iterator
; 358  : 		return (_Unchecked_type(this->_Ptr, (_Mylist *)this->_Getcont()));
; 359  : 		}
; 360  : 
; 361  : 	reference operator*() const
; 362  : 		{	// return designated value
; 363  : 		return ((reference)**(_Mybase *)this);
; 364  : 		}
; 365  : 
; 366  : 	pointer operator->() const
; 367  : 		{	// return pointer to class object
; 368  : 		return (_STD pointer_traits<pointer>::pointer_to(**this));
; 369  : 		}
; 370  : 
; 371  : 	_Myiter& operator++()
; 372  : 		{	// preincrement
; 373  : 		++(*(_Mybase *)this);
; 374  : 		return (*this);
; 375  : 		}
; 376  : 
; 377  : 	_Myiter operator++(int)
; 378  : 		{	// postincrement
; 379  : 		_Myiter _Tmp = *this;
; 380  : 		++*this;
; 381  : 		return (_Tmp);
; 382  : 		}
; 383  : 
; 384  : 	_Myiter& operator--()
; 385  : 		{	// predecrement
; 386  : 		--(*(_Mybase *)this);
; 387  : 		return (*this);
; 388  : 		}
; 389  : 
; 390  : 	_Myiter operator--(int)
; 391  : 		{	// postdecrement
; 392  : 		_Myiter _Tmp = *this;
; 393  : 		--*this;
; 394  : 		return (_Tmp);
; 395  : 		}
; 396  : 	};
; 397  : 
; 398  : template<class _Mylist> inline
; 399  : 	typename _List_iterator<_Mylist>::_Unchecked_type
; 400  : 		_Unchecked(_List_iterator<_Mylist> _Iter)
; 401  : 	{	// convert to unchecked
; 402  : 	return (_Iter._Unchecked());
; 403  : 	}
; 404  : 
; 405  : template<class _Mylist> inline
; 406  : 	_List_iterator<_Mylist>&
; 407  : 		_Rechecked(_List_iterator<_Mylist>& _Iter,
; 408  : 			typename _List_iterator<_Mylist>
; 409  : 				::_Unchecked_type _Right)
; 410  : 	{	// convert to checked
; 411  : 	return (_Iter._Rechecked(_Right));
; 412  : 	}
; 413  : 
; 414  : 		// list TYPE WRAPPERS
; 415  : template<class _Value_type,
; 416  : 	class _Size_type,
; 417  : 	class _Difference_type,
; 418  : 	class _Pointer,
; 419  : 	class _Const_pointer,
; 420  : 	class _Reference,
; 421  : 	class _Const_reference,
; 422  : 	class _Nodeptr_type>
; 423  : 	struct _List_iter_types
; 424  : 	{	// wraps types needed by iterators
; 425  : 	typedef _Value_type value_type;
; 426  : 	typedef _Size_type size_type;
; 427  : 	typedef _Difference_type difference_type;
; 428  : 	typedef _Pointer pointer;
; 429  : 	typedef _Const_pointer const_pointer;
; 430  : 	typedef _Reference reference;
; 431  : 	typedef _Const_reference const_reference;
; 432  : 	typedef _Nodeptr_type _Nodeptr;
; 433  : 	};
; 434  : 
; 435  : template<class _Value_type,
; 436  : 	class _Voidptr>
; 437  : 	struct _List_node
; 438  : 		{	// list node
; 439  : 		_Voidptr _Next;	// successor node, or first element if head
; 440  : 		_Voidptr _Prev;	// predecessor node, or last element if head
; 441  : 		_Value_type _Myval;	// the stored value, unused if head
; 442  : 
; 443  : 	private:
; 444  : 		_List_node& operator=(const _List_node&);
; 445  : 		};
; 446  : 
; 447  : template<class _Value_type>
; 448  : 	struct _List_node<_Value_type, void *>
; 449  : 		{	// list node
; 450  : 		typedef _List_node<_Value_type, void *> *_Nodeptr;
; 451  : 		_Nodeptr _Next;	// successor node, or first element if head
; 452  : 		_Nodeptr _Prev;	// predecessor node, or last element if head
; 453  : 		_Value_type _Myval;	// the stored value, unused if head
; 454  : 
; 455  : 	private:
; 456  : 		_List_node& operator=(const _List_node&);
; 457  : 		};
; 458  : 
; 459  : template<class _Ty>
; 460  : 	struct _List_simple_types
; 461  : 		: public _Simple_types<_Ty>
; 462  : 	{	// wraps types needed by iterators
; 463  : 	typedef _List_node<_Ty, void *> _Node;
; 464  : 	typedef _Node *_Nodeptr;
; 465  : 	};
; 466  : 
; 467  : template<class _Ty,
; 468  : 	class _Alloc0>
; 469  : 	struct _List_base_types
; 470  : 	{	// types needed for a container base
; 471  : 	typedef _Alloc0 _Alloc;
; 472  : 	typedef _List_base_types<_Ty, _Alloc> _Myt;
; 473  : 
; 474  : 	typedef _Wrap_alloc<_Alloc> _Alty0;
; 475  : 	typedef typename _Alty0::template rebind<_Ty>::other _Alty;
; 476  : 
; 477  : 
; 478  : 	typedef typename _Get_voidptr<_Alty, typename _Alty::pointer>::type
; 479  : 		_Voidptr;
; 480  : 	typedef _List_node<typename _Alty::value_type,
; 481  : 		_Voidptr> _Node;
; 482  : 
; 483  : 	typedef typename _Alty::template rebind<_Node>::other _Alnod_type;
; 484  : 	typedef typename _Alnod_type::pointer _Nodeptr;
; 485  : 	typedef _Nodeptr& _Nodepref;
; 486  : 
; 487  : 	typedef typename _If<_Is_simple_alloc<_Alty>::value,
; 488  : 		_List_simple_types<typename _Alty::value_type>,
; 489  : 		_List_iter_types<typename _Alty::value_type,
; 490  : 			typename _Alty::size_type,
; 491  : 			typename _Alty::difference_type,
; 492  : 			typename _Alty::pointer,
; 493  : 			typename _Alty::const_pointer,
; 494  : 			typename _Alty::reference,
; 495  : 			typename _Alty::const_reference,
; 496  : 			_Nodeptr> >::type
; 497  : 		_Val_types;
; 498  : 	};
; 499  : 
; 500  : 		// TEMPLATE CLASS _List_val
; 501  : template<class _Val_types>
; 502  : 	class _List_val
; 503  : 		: public _Container_base
; 504  : 	{	// base class for list to hold data
; 505  : public:
; 506  : 	typedef _List_val<_Val_types> _Myt;
; 507  : 
; 508  : 	typedef typename _Val_types::_Nodeptr _Nodeptr;
; 509  : 	typedef _Nodeptr& _Nodepref;
; 510  : 
; 511  : 	typedef typename _Val_types::value_type value_type;
; 512  : 	typedef typename _Val_types::size_type size_type;
; 513  : 	typedef typename _Val_types::difference_type difference_type;
; 514  : 	typedef typename _Val_types::pointer pointer;
; 515  : 	typedef typename _Val_types::const_pointer const_pointer;
; 516  : 	typedef typename _Val_types::reference reference;
; 517  : 	typedef typename _Val_types::const_reference const_reference;
; 518  : 
; 519  : 	typedef _List_const_iterator<_Myt> const_iterator;
; 520  : 	typedef _List_iterator<_Myt> iterator;
; 521  : 
; 522  : 	typedef _List_unchecked_const_iterator<_Myt> _Unchecked_const_iterator;
; 523  : 	typedef _List_unchecked_iterator<_Myt> _Unchecked_iterator;
; 524  : 
; 525  : 	_List_val()
; 526  : 		{	// initialize data
; 527  : 		this->_Myhead = 0;
; 528  : 		this->_Mysize = 0;
; 529  : 		}
; 530  : 
; 531  : 	static _Nodepref _Nextnode(_Nodeptr _Pnode)
; 532  : 		{	// return reference to successor pointer in node
; 533  : 		return ((_Nodepref)_Pnode->_Next);
; 534  : 		}
; 535  : 
; 536  : 	static _Nodepref _Prevnode(_Nodeptr _Pnode)
; 537  : 		{	// return reference to predecessor pointer in node
; 538  : 		return ((_Nodepref)_Pnode->_Prev);
; 539  : 		}
; 540  : 
; 541  : 	static reference _Myval(_Nodeptr _Pnode)
; 542  : 		{	// return reference to value in node
; 543  : 		return ((reference)_Pnode->_Myval);

	mov	rax, QWORD PTR [rcx]
	add	rax, 16

; 205  :  #if _ITERATOR_DEBUG_LEVEL == 2
; 206  : 		if (this->_Getcont() == 0
; 207  : 			|| this->_Ptr == 0
; 208  : 			|| this->_Ptr == ((_Mylist *)this->_Getcont())->_Myhead)
; 209  : 			{	// report error
; 210  : 			_DEBUG_ERROR("list iterator not dereferencable");
; 211  : 			_SCL_SECURE_OUT_OF_RANGE;
; 212  : 			}
; 213  : 
; 214  :  #elif _ITERATOR_DEBUG_LEVEL == 1
; 215  : 		_SCL_SECURE_VALIDATE(this->_Getcont() != 0 && this->_Ptr != 0);
; 216  : 		_SCL_SECURE_VALIDATE_RANGE(this->_Ptr !=
; 217  : 			((_Mylist *)this->_Getcont())->_Myhead);
; 218  :  #endif /* _ITERATOR_DEBUG_LEVEL */
; 219  : 
; 220  : 		return (_Mylist::_Myval(this->_Ptr));
; 221  : 		}

	ret	0
??D?$_List_const_iterator@V?$_List_val@U?$_List_simple_types@U?$_vector3@M@@@std@@@std@@@std@@QEBAAEBU?$_vector3@M@@XZ ENDP ; std::_List_const_iterator<std::_List_val<std::_List_simple_types<_vector3<float> > > >::operator*
_TEXT	ENDS
; Function compile flags: /Ogtpy
; File c:\program files (x86)\microsoft visual studio 12.0\vc\include\list
;	COMDAT ??E?$_List_const_iterator@V?$_List_val@U?$_List_simple_types@U?$_vector3@M@@@std@@@std@@@std@@QEAAAEAV01@XZ
_TEXT	SEGMENT
this$ = 8
??E?$_List_const_iterator@V?$_List_val@U?$_List_simple_types@U?$_vector3@M@@@std@@@std@@@std@@QEAAAEAV01@XZ PROC ; std::_List_const_iterator<std::_List_val<std::_List_simple_types<_vector3<float> > > >::operator++, COMDAT

; 243  : 
; 244  : 	_Myiter operator++(int)
; 245  : 		{	// postincrement
; 246  : 		_Myiter _Tmp = *this;
; 247  : 		++*this;
; 248  : 		return (_Tmp);
; 249  : 		}
; 250  : 
; 251  : 	_Myiter& operator--()
; 252  : 		{	// predecrement
; 253  :  #if _ITERATOR_DEBUG_LEVEL == 2
; 254  : 		if (this->_Getcont() == 0
; 255  : 			|| this->_Ptr == 0
; 256  : 			|| (this->_Ptr = _Mylist::_Prevnode(this->_Ptr))
; 257  : 				== ((_Mylist *)this->_Getcont())->_Myhead)
; 258  : 			{	// report error
; 259  : 			_DEBUG_ERROR("list iterator not decrementable");
; 260  : 			_SCL_SECURE_OUT_OF_RANGE;
; 261  : 			}
; 262  : 
; 263  :  #elif _ITERATOR_DEBUG_LEVEL == 1
; 264  : 		_SCL_SECURE_VALIDATE(this->_Getcont() != 0 && this->_Ptr != 0);
; 265  : 		this->_Ptr = _Mylist::_Prevnode(this->_Ptr);
; 266  : 		_SCL_SECURE_VALIDATE_RANGE(this->_Ptr !=
; 267  : 			((_Mylist *)this->_Getcont())->_Myhead);
; 268  : 
; 269  :  #else /* _ITERATOR_DEBUG_LEVEL */
; 270  : 		this->_Ptr = _Mylist::_Prevnode(this->_Ptr);
; 271  :  #endif /* _ITERATOR_DEBUG_LEVEL */
; 272  : 
; 273  : 		return (*this);
; 274  : 		}
; 275  : 
; 276  : 	_Myiter operator--(int)
; 277  : 		{	// postdecrement
; 278  : 		_Myiter _Tmp = *this;
; 279  : 		--*this;
; 280  : 		return (_Tmp);
; 281  : 		}
; 282  : 
; 283  : 	bool operator==(const _Myiter& _Right) const
; 284  : 		{	// test for iterator equality
; 285  :  #if _ITERATOR_DEBUG_LEVEL == 2
; 286  : 		if (this->_Getcont() == 0
; 287  : 			|| this->_Getcont() != _Right._Getcont())
; 288  : 			{	// report error
; 289  : 			_DEBUG_ERROR("list iterators incompatible");
; 290  : 			_SCL_SECURE_INVALID_ARGUMENT;
; 291  : 			}
; 292  : 
; 293  :  #elif _ITERATOR_DEBUG_LEVEL == 1
; 294  : 		_SCL_SECURE_VALIDATE(this->_Getcont() != 0
; 295  : 			&& this->_Getcont() == _Right._Getcont());
; 296  :  #endif /* _ITERATOR_DEBUG_LEVEL */
; 297  : 
; 298  : 		return (this->_Ptr == _Right._Ptr);
; 299  : 		}
; 300  : 
; 301  : 	bool operator!=(const _Myiter& _Right) const
; 302  : 		{	// test for iterator inequality
; 303  : 		return (!(*this == _Right));
; 304  : 		}
; 305  : 	};
; 306  : 
; 307  : template<class _Mylist> inline
; 308  : 	typename _List_const_iterator<_Mylist>::_Unchecked_type
; 309  : 		_Unchecked(_List_const_iterator<_Mylist> _Iter)
; 310  : 	{	// convert to unchecked
; 311  : 	return (_Iter._Unchecked());
; 312  : 	}
; 313  : 
; 314  : template<class _Mylist> inline
; 315  : 	_List_const_iterator<_Mylist>&
; 316  : 		_Rechecked(_List_const_iterator<_Mylist>& _Iter,
; 317  : 			typename _List_const_iterator<_Mylist>
; 318  : 				::_Unchecked_type _Right)
; 319  : 	{	// convert to checked
; 320  : 	return (_Iter._Rechecked(_Right));
; 321  : 	}
; 322  : 
; 323  : 	// TEMPLATE CLASS _List_iterator
; 324  : template<class _Mylist>
; 325  : 	class _List_iterator
; 326  : 		: public _List_const_iterator<_Mylist>
; 327  : 	{	// iterator for mutable list
; 328  : public:
; 329  : 	typedef _List_iterator<_Mylist> _Myiter;
; 330  : 	typedef _List_const_iterator<_Mylist> _Mybase;
; 331  : 	typedef bidirectional_iterator_tag iterator_category;
; 332  : 
; 333  : 	typedef typename _Mylist::_Nodeptr _Nodeptr;
; 334  : 	typedef typename _Mylist::value_type value_type;
; 335  : 	typedef typename _Mylist::difference_type difference_type;
; 336  : 	typedef typename _Mylist::pointer pointer;
; 337  : 	typedef typename _Mylist::reference reference;
; 338  : 
; 339  : 	_List_iterator()
; 340  : 		{	// construct with null node
; 341  : 		}
; 342  : 
; 343  : 	_List_iterator(_Nodeptr _Pnode, const _Mylist *_Plist)
; 344  : 		: _Mybase(_Pnode, _Plist)
; 345  : 		{	// construct with node pointer _Pnode
; 346  : 		}
; 347  : 
; 348  : 	typedef _List_unchecked_iterator<_Mylist> _Unchecked_type;
; 349  : 
; 350  : 	_Myiter& _Rechecked(_Unchecked_type _Right)
; 351  : 		{	// reset from unchecked iterator
; 352  : 		this->_Ptr = _Right._Ptr;
; 353  : 		return (*this);
; 354  : 		}
; 355  : 
; 356  : 	_Unchecked_type _Unchecked() const
; 357  : 		{	// make an unchecked iterator
; 358  : 		return (_Unchecked_type(this->_Ptr, (_Mylist *)this->_Getcont()));
; 359  : 		}
; 360  : 
; 361  : 	reference operator*() const
; 362  : 		{	// return designated value
; 363  : 		return ((reference)**(_Mybase *)this);
; 364  : 		}
; 365  : 
; 366  : 	pointer operator->() const
; 367  : 		{	// return pointer to class object
; 368  : 		return (_STD pointer_traits<pointer>::pointer_to(**this));
; 369  : 		}
; 370  : 
; 371  : 	_Myiter& operator++()
; 372  : 		{	// preincrement
; 373  : 		++(*(_Mybase *)this);
; 374  : 		return (*this);
; 375  : 		}
; 376  : 
; 377  : 	_Myiter operator++(int)
; 378  : 		{	// postincrement
; 379  : 		_Myiter _Tmp = *this;
; 380  : 		++*this;
; 381  : 		return (_Tmp);
; 382  : 		}
; 383  : 
; 384  : 	_Myiter& operator--()
; 385  : 		{	// predecrement
; 386  : 		--(*(_Mybase *)this);
; 387  : 		return (*this);
; 388  : 		}
; 389  : 
; 390  : 	_Myiter operator--(int)
; 391  : 		{	// postdecrement
; 392  : 		_Myiter _Tmp = *this;
; 393  : 		--*this;
; 394  : 		return (_Tmp);
; 395  : 		}
; 396  : 	};
; 397  : 
; 398  : template<class _Mylist> inline
; 399  : 	typename _List_iterator<_Mylist>::_Unchecked_type
; 400  : 		_Unchecked(_List_iterator<_Mylist> _Iter)
; 401  : 	{	// convert to unchecked
; 402  : 	return (_Iter._Unchecked());
; 403  : 	}
; 404  : 
; 405  : template<class _Mylist> inline
; 406  : 	_List_iterator<_Mylist>&
; 407  : 		_Rechecked(_List_iterator<_Mylist>& _Iter,
; 408  : 			typename _List_iterator<_Mylist>
; 409  : 				::_Unchecked_type _Right)
; 410  : 	{	// convert to checked
; 411  : 	return (_Iter._Rechecked(_Right));
; 412  : 	}
; 413  : 
; 414  : 		// list TYPE WRAPPERS
; 415  : template<class _Value_type,
; 416  : 	class _Size_type,
; 417  : 	class _Difference_type,
; 418  : 	class _Pointer,
; 419  : 	class _Const_pointer,
; 420  : 	class _Reference,
; 421  : 	class _Const_reference,
; 422  : 	class _Nodeptr_type>
; 423  : 	struct _List_iter_types
; 424  : 	{	// wraps types needed by iterators
; 425  : 	typedef _Value_type value_type;
; 426  : 	typedef _Size_type size_type;
; 427  : 	typedef _Difference_type difference_type;
; 428  : 	typedef _Pointer pointer;
; 429  : 	typedef _Const_pointer const_pointer;
; 430  : 	typedef _Reference reference;
; 431  : 	typedef _Const_reference const_reference;
; 432  : 	typedef _Nodeptr_type _Nodeptr;
; 433  : 	};
; 434  : 
; 435  : template<class _Value_type,
; 436  : 	class _Voidptr>
; 437  : 	struct _List_node
; 438  : 		{	// list node
; 439  : 		_Voidptr _Next;	// successor node, or first element if head
; 440  : 		_Voidptr _Prev;	// predecessor node, or last element if head
; 441  : 		_Value_type _Myval;	// the stored value, unused if head
; 442  : 
; 443  : 	private:
; 444  : 		_List_node& operator=(const _List_node&);
; 445  : 		};
; 446  : 
; 447  : template<class _Value_type>
; 448  : 	struct _List_node<_Value_type, void *>
; 449  : 		{	// list node
; 450  : 		typedef _List_node<_Value_type, void *> *_Nodeptr;
; 451  : 		_Nodeptr _Next;	// successor node, or first element if head
; 452  : 		_Nodeptr _Prev;	// predecessor node, or last element if head
; 453  : 		_Value_type _Myval;	// the stored value, unused if head
; 454  : 
; 455  : 	private:
; 456  : 		_List_node& operator=(const _List_node&);
; 457  : 		};
; 458  : 
; 459  : template<class _Ty>
; 460  : 	struct _List_simple_types
; 461  : 		: public _Simple_types<_Ty>
; 462  : 	{	// wraps types needed by iterators
; 463  : 	typedef _List_node<_Ty, void *> _Node;
; 464  : 	typedef _Node *_Nodeptr;
; 465  : 	};
; 466  : 
; 467  : template<class _Ty,
; 468  : 	class _Alloc0>
; 469  : 	struct _List_base_types
; 470  : 	{	// types needed for a container base
; 471  : 	typedef _Alloc0 _Alloc;
; 472  : 	typedef _List_base_types<_Ty, _Alloc> _Myt;
; 473  : 
; 474  : 	typedef _Wrap_alloc<_Alloc> _Alty0;
; 475  : 	typedef typename _Alty0::template rebind<_Ty>::other _Alty;
; 476  : 
; 477  : 
; 478  : 	typedef typename _Get_voidptr<_Alty, typename _Alty::pointer>::type
; 479  : 		_Voidptr;
; 480  : 	typedef _List_node<typename _Alty::value_type,
; 481  : 		_Voidptr> _Node;
; 482  : 
; 483  : 	typedef typename _Alty::template rebind<_Node>::other _Alnod_type;
; 484  : 	typedef typename _Alnod_type::pointer _Nodeptr;
; 485  : 	typedef _Nodeptr& _Nodepref;
; 486  : 
; 487  : 	typedef typename _If<_Is_simple_alloc<_Alty>::value,
; 488  : 		_List_simple_types<typename _Alty::value_type>,
; 489  : 		_List_iter_types<typename _Alty::value_type,
; 490  : 			typename _Alty::size_type,
; 491  : 			typename _Alty::difference_type,
; 492  : 			typename _Alty::pointer,
; 493  : 			typename _Alty::const_pointer,
; 494  : 			typename _Alty::reference,
; 495  : 			typename _Alty::const_reference,
; 496  : 			_Nodeptr> >::type
; 497  : 		_Val_types;
; 498  : 	};
; 499  : 
; 500  : 		// TEMPLATE CLASS _List_val
; 501  : template<class _Val_types>
; 502  : 	class _List_val
; 503  : 		: public _Container_base
; 504  : 	{	// base class for list to hold data
; 505  : public:
; 506  : 	typedef _List_val<_Val_types> _Myt;
; 507  : 
; 508  : 	typedef typename _Val_types::_Nodeptr _Nodeptr;
; 509  : 	typedef _Nodeptr& _Nodepref;
; 510  : 
; 511  : 	typedef typename _Val_types::value_type value_type;
; 512  : 	typedef typename _Val_types::size_type size_type;
; 513  : 	typedef typename _Val_types::difference_type difference_type;
; 514  : 	typedef typename _Val_types::pointer pointer;
; 515  : 	typedef typename _Val_types::const_pointer const_pointer;
; 516  : 	typedef typename _Val_types::reference reference;
; 517  : 	typedef typename _Val_types::const_reference const_reference;
; 518  : 
; 519  : 	typedef _List_const_iterator<_Myt> const_iterator;
; 520  : 	typedef _List_iterator<_Myt> iterator;
; 521  : 
; 522  : 	typedef _List_unchecked_const_iterator<_Myt> _Unchecked_const_iterator;
; 523  : 	typedef _List_unchecked_iterator<_Myt> _Unchecked_iterator;
; 524  : 
; 525  : 	_List_val()
; 526  : 		{	// initialize data
; 527  : 		this->_Myhead = 0;
; 528  : 		this->_Mysize = 0;
; 529  : 		}
; 530  : 
; 531  : 	static _Nodepref _Nextnode(_Nodeptr _Pnode)
; 532  : 		{	// return reference to successor pointer in node
; 533  : 		return ((_Nodepref)_Pnode->_Next);

	mov	rax, QWORD PTR [rcx]

; 225  :  #if _ITERATOR_DEBUG_LEVEL == 2
; 226  : 		if (this->_Getcont() == 0
; 227  : 			|| this->_Ptr == 0
; 228  : 			|| this->_Ptr == ((_Mylist *)this->_Getcont())->_Myhead)
; 229  : 			{	// report error
; 230  : 			_DEBUG_ERROR("list iterator not incrementable");
; 231  : 			_SCL_SECURE_OUT_OF_RANGE;
; 232  : 			}
; 233  : 
; 234  :  #elif _ITERATOR_DEBUG_LEVEL == 1
; 235  : 		_SCL_SECURE_VALIDATE(this->_Getcont() != 0 && this->_Ptr != 0);
; 236  : 		_SCL_SECURE_VALIDATE_RANGE(this->_Ptr !=
; 237  : 			((_Mylist *)this->_Getcont())->_Myhead);
; 238  :  #endif /* _ITERATOR_DEBUG_LEVEL */
; 239  : 
; 240  : 		this->_Ptr = _Mylist::_Nextnode(this->_Ptr);

	mov	rdx, QWORD PTR [rax]

; 241  : 		return (*this);

	mov	rax, rcx
	mov	QWORD PTR [rcx], rdx

; 242  : 		}

	ret	0
??E?$_List_const_iterator@V?$_List_val@U?$_List_simple_types@U?$_vector3@M@@@std@@@std@@@std@@QEAAAEAV01@XZ ENDP ; std::_List_const_iterator<std::_List_val<std::_List_simple_types<_vector3<float> > > >::operator++
_TEXT	ENDS
; Function compile flags: /Ogtpy
; File c:\program files (x86)\microsoft visual studio 12.0\vc\include\list
; File c:\users\nummer\documents\github\olr-3.0\src\xray\xrcore\xrmemory_subst_msvc.cpp
; File c:\users\nummer\documents\github\olr-3.0\src\xray\xrcore\xrmemory_align.cpp
; File c:\users\nummer\documents\github\olr-3.0\src\xray\xrcore\xrmemory_subst_msvc.cpp
; File c:\users\nummer\documents\github\olr-3.0\src\xray\xrcore\xrsyncronize.cpp
; File c:\users\nummer\documents\github\olr-3.0\src\xray\xrcore\xrmemory_pool.h
; File c:\users\nummer\documents\github\olr-3.0\src\xray\xrcore\xrsyncronize.cpp
; File c:\users\nummer\documents\github\olr-3.0\src\xray\xrcore\xrmemory_pool.h
; File c:\users\nummer\documents\github\olr-3.0\src\xray\xrcore\xrsyncronize.cpp
; File c:\program files (x86)\microsoft visual studio 12.0\vc\include\list
;	COMDAT ?clear@?$list@U?$_vector3@M@@V?$xalloc@U?$_vector3@M@@@@@std@@QEAAXXZ
_TEXT	SEGMENT
this$ = 48
?clear@?$list@U?$_vector3@M@@V?$xalloc@U?$_vector3@M@@@@@std@@QEAAXXZ PROC ; std::list<_vector3<float>,xalloc<_vector3<float> > >::clear, COMDAT

; 1491 : 		{	// erase all

$LN73:
	mov	QWORD PTR [rsp+32], rbx
	push	r14
	sub	rsp, 32					; 00000020H

; 533  : 		return ((_Nodepref)_Pnode->_Next);

	mov	rax, QWORD PTR [rcx]

; 1491 : 		{	// erase all

	mov	r14, rcx

; 1492 :  #if _ITERATOR_DEBUG_LEVEL == 2
; 1493 : 		this->_Orphan_ptr(*this, nullptr);
; 1494 :  #endif /* _ITERATOR_DEBUG_LEVEL == 2 */
; 1495 : 
; 1496 : 		_Nodeptr _Pnode = this->_Nextnode(this->_Myhead);

	mov	rbx, QWORD PTR [rax]

; 1497 : 		this->_Nextnode(this->_Myhead) = this->_Myhead;

	mov	QWORD PTR [rax], rax

; 534  : 		}
; 535  : 
; 536  : 	static _Nodepref _Prevnode(_Nodeptr _Pnode)
; 537  : 		{	// return reference to predecessor pointer in node
; 538  : 		return ((_Nodepref)_Pnode->_Prev);

	mov	rax, QWORD PTR [rcx]

; 1498 : 		this->_Prevnode(this->_Myhead) = this->_Myhead;

	mov	QWORD PTR [rax+8], rax

; 1499 : 		this->_Mysize = 0;

	mov	QWORD PTR [rcx+8], 0

; 1501 : 		for (_Nodeptr _Pnext; _Pnode != this->_Myhead; _Pnode = _Pnext)

	cmp	rbx, QWORD PTR [rcx]
	je	$LN1@clear
	mov	QWORD PTR [rsp+48], rsi
	mov	QWORD PTR [rsp+64], r15
	lea	r15, OFFSET FLAT:?mem_pools@@3PAVMEMPOOL@@A ; mem_pools
	mov	QWORD PTR [rsp+56], rdi
	npad	11
$LL3@clear:

; 1502 : 			{	// delete an element
; 1503 : 			_Pnext = this->_Nextnode(_Pnode);

	mov	rsi, QWORD PTR [rbx]
; File c:\users\nummer\documents\github\olr-3.0\src\xray\xrcore\xrmemory_subst_msvc.cpp

; 130  : 	stat_calls++;

	inc	DWORD PTR ?Memory@@3VxrMemory@@A

; 25   : ICF	u32		get_header			(void* P)	{	return	(u32)*acc_header(P);				}

	movzx	eax, BYTE PTR [rbx-1]

; 24   : ICF	u8*		acc_header			(void* P)	{	u8*		_P		= (u8*)P;	return	_P-1;	}

	dec	rbx

; 131  : #ifdef USE_MEMORY_MONITOR
; 132  : 	memory_monitor::monitor_free(P);
; 133  : #endif // USE_MEMORY_MONITOR
; 134  : 
; 135  : #ifdef PURE_ALLOC
; 136  : 	if (g_use_pure_alloc) {
; 137  : 		free					(P);
; 138  : 		return;
; 139  : 	}
; 140  : #endif // PURE_ALLOC
; 141  : 
; 142  : #ifdef DEBUG_MEMORY_MANAGER
; 143  : 	if(g_globalCheckAddr==P)
; 144  : 		__asm int 3;
; 145  : #endif // DEBUG_MEMORY_MANAGER
; 146  : 
; 147  : #ifdef DEBUG_MEMORY_MANAGER
; 148  : 	if (mem_initialized)		debug_cs.Enter		();
; 149  : #endif // DEBUG_MEMORY_MANAGER
; 150  : 	if		(debug_mode)		dbg_unregister	(P);
; 151  : 	u32	pool					= get_header	(P);
; 152  : 	void* _real					= (void*)(((u8*)P)-1);
; 153  : 	if (mem_generic==pool)		

	cmp	eax, 55					; 00000037H
	jne	SHORT $LN45@clear
; File c:\users\nummer\documents\github\olr-3.0\src\xray\xrcore\xrmemory_align.cpp

; 293  : 	if (memblock == NULL)

	test	rbx, rbx
	je	SHORT $LN2@clear

; 294  : 		return;
; 295  : 
; 296  : 	ptr = (uintptr_t)memblock;
; 297  : 
; 298  : 	/* ptr points to the pointer to starting of the memory block */
; 299  : 	ptr = (ptr & ~(PTR_SZ -1)) - PTR_SZ;

	and	rbx, -8

; 300  : 
; 301  : 	/* ptr is the pointer to the start of memory block*/
; 302  : 	ptr = *((uintptr_t *)ptr);
; 303  : 	free((void *)ptr);

	mov	rcx, QWORD PTR [rbx-8]
	call	QWORD PTR __imp_free
; File c:\users\nummer\documents\github\olr-3.0\src\xray\xrcore\xrmemory_subst_msvc.cpp

; 157  : 	} else {

	jmp	SHORT $LN2@clear
$LN45@clear:

; 158  : 		// pooled
; 159  : 		VERIFY2					(pool<mem_pools_count,"Memory corruption");
; 160  : 		mem_pools[pool].destroy	(_real);

	lea	rcx, QWORD PTR [rax+rax*4]
	lea	rdi, QWORD PTR [r15+rcx*8]
; File c:\users\nummer\documents\github\olr-3.0\src\xray\xrcore\xrsyncronize.cpp

; 64   : 	EnterCriticalSection			( (CRITICAL_SECTION*)pmutex );

	mov	rcx, QWORD PTR [r15+rcx*8]
	call	QWORD PTR __imp_EnterCriticalSection
; File c:\users\nummer\documents\github\olr-3.0\src\xray\xrcore\xrmemory_pool.h

; 46   : 		*access(P)		= list;

	mov	rax, QWORD PTR [rdi+32]
	mov	QWORD PTR [rbx], rax
; File c:\users\nummer\documents\github\olr-3.0\src\xray\xrcore\xrsyncronize.cpp

; 69   : 	LeaveCriticalSection			( (CRITICAL_SECTION*)pmutex );

	mov	rcx, QWORD PTR [rdi]
; File c:\users\nummer\documents\github\olr-3.0\src\xray\xrcore\xrmemory_pool.h

; 47   : 		list			= (u8*)P;

	mov	QWORD PTR [rdi+32], rbx
; File c:\users\nummer\documents\github\olr-3.0\src\xray\xrcore\xrsyncronize.cpp

; 69   : 	LeaveCriticalSection			( (CRITICAL_SECTION*)pmutex );

	call	QWORD PTR __imp_LeaveCriticalSection
$LN2@clear:
; File c:\program files (x86)\microsoft visual studio 12.0\vc\include\list

; 1501 : 		for (_Nodeptr _Pnext; _Pnode != this->_Myhead; _Pnode = _Pnext)

	mov	rbx, rsi
	cmp	rsi, QWORD PTR [r14]
	jne	SHORT $LL3@clear
	mov	r15, QWORD PTR [rsp+64]
	mov	rdi, QWORD PTR [rsp+56]
	mov	rsi, QWORD PTR [rsp+48]
$LN1@clear:

; 1504 : 			this->_Freenode(_Pnode);
; 1505 : 			}
; 1506 : 		}

	mov	rbx, QWORD PTR [rsp+72]
	add	rsp, 32					; 00000020H
	pop	r14
	ret	0
?clear@?$list@U?$_vector3@M@@V?$xalloc@U?$_vector3@M@@@@@std@@QEAAXXZ ENDP ; std::list<_vector3<float>,xalloc<_vector3<float> > >::clear
_TEXT	ENDS
; Function compile flags: /Ogtpy
; File c:\program files (x86)\microsoft visual studio 12.0\vc\include\list
;	COMDAT ?_Splice_same@?$list@U?$_vector3@M@@V?$xalloc@U?$_vector3@M@@@@@std@@QEAAXV?$_List_const_iterator@V?$_List_val@U?$_List_simple_types@U?$_vector3@M@@@std@@@std@@@2@AEAV12@00_K@Z
_TEXT	SEGMENT
this$ = 48
_Where$ = 56
_Right$ = 64
_First$ = 72
_Last$ = 80
_Count$dead$ = 88
?_Splice_same@?$list@U?$_vector3@M@@V?$xalloc@U?$_vector3@M@@@@@std@@QEAAXV?$_List_const_iterator@V?$_List_val@U?$_List_simple_types@U?$_vector3@M@@@std@@@std@@@2@AEAV12@00_K@Z PROC ; std::list<_vector3<float>,xalloc<_vector3<float> > >::_Splice_same, COMDAT

; 1841 : 		{	// splice _Right [_First, _Last) before _Where

$LN70:
	mov	QWORD PTR [rsp+32], r9
	mov	QWORD PTR [rsp+16], rdx
	sub	rsp, 40					; 00000028H

; 1842 : 		if (this != &_Right)

	cmp	rcx, r8
	je	SHORT $LN1@Splice_sam

; 1861 : 
; 1862 : 	void _Unchecked_splice(_Unchecked_const_iterator _Where,
; 1863 : 		_Unchecked_const_iterator _First,
; 1864 : 		_Unchecked_const_iterator _Last)
; 1865 : 		{	// splice [_First, _Last) before _Where
; 1866 : 		this->_Nextnode(this->_Prevnode(_First._Mynode())) =
; 1867 : 			_Last._Mynode();
; 1868 : 		this->_Nextnode(this->_Prevnode(_Last._Mynode())) =
; 1869 : 			_Where._Mynode();
; 1870 : 		this->_Nextnode(this->_Prevnode(_Where._Mynode())) =
; 1871 : 			_First._Mynode();
; 1872 : 
; 1873 : 		_Nodeptr _Pnode = this->_Prevnode(_Where._Mynode());
; 1874 : 		this->_Prevnode(_Where._Mynode()) =
; 1875 : 			this->_Prevnode(_Last._Mynode());
; 1876 : 		this->_Prevnode(_Last._Mynode()) =
; 1877 : 			this->_Prevnode(_First._Mynode());
; 1878 : 		this->_Prevnode(_First._Mynode()) = _Pnode;
; 1879 : 		}
; 1880 : 
; 1881 : 	void _Tidy()
; 1882 : 		{	// free all storage
; 1883 : 		clear();
; 1884 : 		}
; 1885 : 
; 1886 : 	void _Insert_n(_Unchecked_const_iterator _Where,
; 1887 : 		size_type _Count, const _Ty& _Val)
; 1888 : 		{	// insert _Count * _Val at _Where
; 1889 : 		size_type _Countsave = _Count;
; 1890 : 
; 1891 : 		_TRY_BEGIN
; 1892 : 		for (; 0 < _Count; --_Count)
; 1893 : 			_Insert(_Where, _Val);
; 1894 : 		_CATCH_ALL
; 1895 : 		for (; _Count < _Countsave; ++_Count)
; 1896 : 			{	// undo inserts
; 1897 : 			_Unchecked_const_iterator _Before = _Where;
; 1898 : 			_Unchecked_erase(--_Before);
; 1899 : 			}
; 1900 : 		_RERAISE;
; 1901 : 		_CATCH_END
; 1902 : 		}
; 1903 : 
; 1904 : 	void _Incsize(size_type _Count)
; 1905 : 		{	// alter element count, with checking
; 1906 : 		if (max_size() - this->_Mysize - 1 < _Count)

	mov	rdx, QWORD PTR [rcx+8]
	mov	rax, 576460752303423486			; 07fffffffffffffeH
	sub	rax, rdx
	cmp	rax, 1
	jae	SHORT $LN4@Splice_sam

; 1907 : 			_Xlength_error("list<T> too long");

	lea	rcx, OFFSET FLAT:??_C@_0BB@MOGOBHAF@list?$DMT?$DO?5too?5long?$AA@
	call	QWORD PTR __imp_?_Xlength_error@std@@YAXPEBD@Z
	int	3
$LN4@Splice_sam:

; 1908 : 		this->_Mysize += _Count;

	lea	rax, QWORD PTR [rdx+1]
	mov	QWORD PTR [rcx+8], rax

; 1843 : 			{	// splicing from another list, adjust counts
; 1844 : 			_Incsize(_Count);
; 1845 : 			_Right._Mysize -= _Count;

	dec	QWORD PTR [r8+8]
$LN1@Splice_sam:

; 533  : 		return ((_Nodepref)_Pnode->_Next);

	mov	rcx, QWORD PTR [r9+8]

; 1846 : 			}
; 1847 : 		this->_Nextnode(this->_Prevnode(_First._Mynode())) =
; 1848 : 			_Last._Mynode();

	mov	rax, QWORD PTR _Last$[rsp]
	mov	QWORD PTR [rcx], rax

; 533  : 		return ((_Nodepref)_Pnode->_Next);

	mov	rax, QWORD PTR _Last$[rsp]
	mov	rcx, QWORD PTR [rax+8]

; 1849 : 		this->_Nextnode(this->_Prevnode(_Last._Mynode())) =
; 1850 : 			_Where._Mynode();

	mov	rax, QWORD PTR _Where$[rsp]
	mov	QWORD PTR [rcx], rax

; 533  : 		return ((_Nodepref)_Pnode->_Next);

	mov	rax, QWORD PTR _Where$[rsp]
	mov	rcx, QWORD PTR [rax+8]

; 1851 : 		this->_Nextnode(this->_Prevnode(_Where._Mynode())) =
; 1852 : 			_First._Mynode();

	mov	rax, QWORD PTR _First$[rsp]
	mov	QWORD PTR [rcx], rax

; 1853 : 
; 1854 : 		_Nodeptr _Pnode = this->_Prevnode(_Where._Mynode());
; 1855 : 		this->_Prevnode(_Where._Mynode()) =
; 1856 : 			this->_Prevnode(_Last._Mynode());

	mov	rax, QWORD PTR _Last$[rsp]

; 534  : 		}
; 535  : 
; 536  : 	static _Nodepref _Prevnode(_Nodeptr _Pnode)
; 537  : 		{	// return reference to predecessor pointer in node
; 538  : 		return ((_Nodepref)_Pnode->_Prev);

	mov	rdx, QWORD PTR _Where$[rsp]

; 1853 : 
; 1854 : 		_Nodeptr _Pnode = this->_Prevnode(_Where._Mynode());
; 1855 : 		this->_Prevnode(_Where._Mynode()) =
; 1856 : 			this->_Prevnode(_Last._Mynode());

	mov	rcx, QWORD PTR [rax+8]
	mov	r8, QWORD PTR [rdx+8]
	mov	QWORD PTR [rdx+8], rcx

; 1857 : 		this->_Prevnode(_Last._Mynode()) =
; 1858 : 			this->_Prevnode(_First._Mynode());

	mov	rax, QWORD PTR _First$[rsp]
	mov	rcx, QWORD PTR [rax+8]
	mov	rax, QWORD PTR _Last$[rsp]
	mov	QWORD PTR [rax+8], rcx

; 1859 : 		this->_Prevnode(_First._Mynode()) = _Pnode;

	mov	rax, QWORD PTR _First$[rsp]
	mov	QWORD PTR [rax+8], r8

; 1860 : 		}

	add	rsp, 40					; 00000028H
	ret	0
$LN69@Splice_sam:
?_Splice_same@?$list@U?$_vector3@M@@V?$xalloc@U?$_vector3@M@@@@@std@@QEAAXV?$_List_const_iterator@V?$_List_val@U?$_List_simple_types@U?$_vector3@M@@@std@@@std@@@2@AEAV12@00_K@Z ENDP ; std::list<_vector3<float>,xalloc<_vector3<float> > >::_Splice_same
_TEXT	ENDS
; Function compile flags: /Ogtpy
; File c:\program files (x86)\microsoft visual studio 12.0\vc\include\list
;	COMDAT ??0?$_List_alloc@$0A@U?$_List_base_types@U?$_vector3@M@@V?$xalloc@U?$_vector3@M@@@@@std@@@std@@QEAA@AEBV?$xalloc@U?$_vector3@M@@@@@Z
_TEXT	SEGMENT
this$ = 48
__formal$dead$ = 56
??0?$_List_alloc@$0A@U?$_List_base_types@U?$_vector3@M@@V?$xalloc@U?$_vector3@M@@@@@std@@@std@@QEAA@AEBV?$xalloc@U?$_vector3@M@@@@@Z PROC ; std::_List_alloc<0,std::_List_base_types<_vector3<float>,xalloc<_vector3<float> > > >::_List_alloc<0,std::_List_base_types<_vector3<float>,xalloc<_vector3<float> > > >, COMDAT

; 700  : 	_List_alloc(const _Alloc& = _Alloc())

$LN8:
	push	rbx
	sub	rsp, 32					; 00000020H

; 527  : 		this->_Myhead = 0;

	xor	eax, eax

; 704  : 
; 705  : 	~_List_alloc() _NOEXCEPT
; 706  : 		{	// destroy head node
; 707  : 		_Freeheadnode(this->_Myhead);
; 708  : 		}
; 709  : 
; 710  : 	void _Change_alloc(const _Alty&)
; 711  : 		{	// replace old allocator
; 712  : 		}
; 713  : 
; 714  : 	void _Swap_alloc(_Myt&)
; 715  : 		{	// swap allocators
; 716  : 		}
; 717  : 
; 718  :  #else /* _ITERATOR_DEBUG_LEVEL == 0 */
; 719  : 	_List_alloc(const _Alloc& = _Alloc())
; 720  : 		{	// construct allocators from _Al
; 721  : 		this->_Myhead = _Buyheadnode();
; 722  : 		_TRY_BEGIN
; 723  : 		_Alloc_proxy();
; 724  : 		_CATCH_ALL
; 725  : 		_Freeheadnode(this->_Myhead);
; 726  : 		_RERAISE;
; 727  : 		_CATCH_END
; 728  : 		}
; 729  : 
; 730  : 	~_List_alloc() _NOEXCEPT
; 731  : 		{	// destroy proxy
; 732  : 		_Freeheadnode(this->_Myhead);
; 733  : 		_Free_proxy();
; 734  : 		}
; 735  : 
; 736  : 	void _Change_alloc(const _Alty&)
; 737  : 		{	// replace old allocator
; 738  : 		}
; 739  : 
; 740  : 	void _Swap_alloc(_Myt& _Right)
; 741  : 		{	// swap allocators
; 742  : 		_Swap_adl(this->_Myproxy, _Right._Myproxy);
; 743  : 		}
; 744  : 
; 745  : 	void _Alloc_proxy()
; 746  : 		{	// construct proxy from _Alnod
; 747  : 		typename _Alty::template rebind<_Container_proxy>::other
; 748  : 			_Alproxy;
; 749  : 		this->_Myproxy = _Alproxy.allocate(1);
; 750  : 		_Alproxy.construct(this->_Myproxy, _Container_proxy());
; 751  : 		this->_Myproxy->_Mycont = this;
; 752  : 		}
; 753  : 
; 754  : 	void _Free_proxy()
; 755  : 		{	// destroy proxy
; 756  : 		typename _Alty::template rebind<_Container_proxy>::other
; 757  : 			_Alproxy;
; 758  : 		this->_Orphan_all();
; 759  : 		_Alproxy.destroy(this->_Myproxy);
; 760  : 		_Alproxy.deallocate(this->_Myproxy, 1);
; 761  : 		this->_Myproxy = 0;
; 762  : 		}
; 763  :  #endif /* _ITERATOR_DEBUG_LEVEL == 0 */
; 764  : 
; 765  : 	_Nodeptr _Buyheadnode()
; 766  : 		{	// get head node using current allocator
; 767  : 		return (_Buynode0(_Nodeptr(), _Nodeptr()));

	xor	r8d, r8d
	xor	edx, edx

; 527  : 		this->_Myhead = 0;

	mov	QWORD PTR [rcx], rax

; 528  : 		this->_Mysize = 0;

	mov	QWORD PTR [rcx+8], rax

; 700  : 	_List_alloc(const _Alloc& = _Alloc())

	mov	rbx, rcx

; 704  : 
; 705  : 	~_List_alloc() _NOEXCEPT
; 706  : 		{	// destroy head node
; 707  : 		_Freeheadnode(this->_Myhead);
; 708  : 		}
; 709  : 
; 710  : 	void _Change_alloc(const _Alty&)
; 711  : 		{	// replace old allocator
; 712  : 		}
; 713  : 
; 714  : 	void _Swap_alloc(_Myt&)
; 715  : 		{	// swap allocators
; 716  : 		}
; 717  : 
; 718  :  #else /* _ITERATOR_DEBUG_LEVEL == 0 */
; 719  : 	_List_alloc(const _Alloc& = _Alloc())
; 720  : 		{	// construct allocators from _Al
; 721  : 		this->_Myhead = _Buyheadnode();
; 722  : 		_TRY_BEGIN
; 723  : 		_Alloc_proxy();
; 724  : 		_CATCH_ALL
; 725  : 		_Freeheadnode(this->_Myhead);
; 726  : 		_RERAISE;
; 727  : 		_CATCH_END
; 728  : 		}
; 729  : 
; 730  : 	~_List_alloc() _NOEXCEPT
; 731  : 		{	// destroy proxy
; 732  : 		_Freeheadnode(this->_Myhead);
; 733  : 		_Free_proxy();
; 734  : 		}
; 735  : 
; 736  : 	void _Change_alloc(const _Alty&)
; 737  : 		{	// replace old allocator
; 738  : 		}
; 739  : 
; 740  : 	void _Swap_alloc(_Myt& _Right)
; 741  : 		{	// swap allocators
; 742  : 		_Swap_adl(this->_Myproxy, _Right._Myproxy);
; 743  : 		}
; 744  : 
; 745  : 	void _Alloc_proxy()
; 746  : 		{	// construct proxy from _Alnod
; 747  : 		typename _Alty::template rebind<_Container_proxy>::other
; 748  : 			_Alproxy;
; 749  : 		this->_Myproxy = _Alproxy.allocate(1);
; 750  : 		_Alproxy.construct(this->_Myproxy, _Container_proxy());
; 751  : 		this->_Myproxy->_Mycont = this;
; 752  : 		}
; 753  : 
; 754  : 	void _Free_proxy()
; 755  : 		{	// destroy proxy
; 756  : 		typename _Alty::template rebind<_Container_proxy>::other
; 757  : 			_Alproxy;
; 758  : 		this->_Orphan_all();
; 759  : 		_Alproxy.destroy(this->_Myproxy);
; 760  : 		_Alproxy.deallocate(this->_Myproxy, 1);
; 761  : 		this->_Myproxy = 0;
; 762  : 		}
; 763  :  #endif /* _ITERATOR_DEBUG_LEVEL == 0 */
; 764  : 
; 765  : 	_Nodeptr _Buyheadnode()
; 766  : 		{	// get head node using current allocator
; 767  : 		return (_Buynode0(_Nodeptr(), _Nodeptr()));

	call	?_Buynode0@?$_List_alloc@$0A@U?$_List_base_types@U?$_vector3@M@@V?$xalloc@U?$_vector3@M@@@@@std@@@std@@QEAAPEAU?$_List_node@U?$_vector3@M@@PEAX@2@PEAU32@0@Z ; std::_List_alloc<0,std::_List_base_types<_vector3<float>,xalloc<_vector3<float> > > >::_Buynode0

; 701  : 		{	// construct head node, allocator from _Al
; 702  : 		this->_Myhead = _Buyheadnode();

	mov	QWORD PTR [rbx], rax

; 703  : 		}

	mov	rax, rbx
	add	rsp, 32					; 00000020H
	pop	rbx
	ret	0
??0?$_List_alloc@$0A@U?$_List_base_types@U?$_vector3@M@@V?$xalloc@U?$_vector3@M@@@@@std@@@std@@QEAA@AEBV?$xalloc@U?$_vector3@M@@@@@Z ENDP ; std::_List_alloc<0,std::_List_base_types<_vector3<float>,xalloc<_vector3<float> > > >::_List_alloc<0,std::_List_base_types<_vector3<float>,xalloc<_vector3<float> > > >
_TEXT	ENDS
; Function compile flags: /Ogtpy
; File c:\program files (x86)\microsoft visual studio 12.0\vc\include\list
; File c:\users\nummer\documents\github\olr-3.0\src\xray\xrcore\_stl_extensions.h
; File c:\program files (x86)\microsoft visual studio 12.0\vc\include\xmemory0
; File c:\users\nummer\documents\github\olr-3.0\src\xray\xrcore\_stl_extensions.h
; File c:\program files (x86)\microsoft visual studio 12.0\vc\include\list
;	COMDAT ?_Freeheadnode@?$_List_alloc@$0A@U?$_List_base_types@U?$_vector3@M@@V?$xalloc@U?$_vector3@M@@@@@std@@@std@@QEAAXPEAU?$_List_node@U?$_vector3@M@@PEAX@2@@Z
_TEXT	SEGMENT
p$ = 48
this$dead$ = 48
_Pnode$ = 56
?_Freeheadnode@?$_List_alloc@$0A@U?$_List_base_types@U?$_vector3@M@@V?$xalloc@U?$_vector3@M@@@@@std@@@std@@QEAAXPEAU?$_List_node@U?$_vector3@M@@PEAX@2@@Z PROC ; std::_List_alloc<0,std::_List_base_types<_vector3<float>,xalloc<_vector3<float> > > >::_Freeheadnode, COMDAT

; 771  : 		{	// free head node using current allocator

$LN22:
	mov	QWORD PTR [rsp+8], rcx
	sub	rsp, 40					; 00000028H
; File c:\users\nummer\documents\github\olr-3.0\src\xray\xrcore\_stl_extensions.h

; 82   : 							void					deallocate		(pointer p, size_type n) const			{	xr_free	(p);				}

	lea	rcx, QWORD PTR p$[rsp]
; File c:\program files (x86)\microsoft visual studio 12.0\vc\include\xmemory0

; 858  : 		_Mybase::deallocate(_Ptr, _Count);

	mov	QWORD PTR p$[rsp], rdx
; File c:\users\nummer\documents\github\olr-3.0\src\xray\xrcore\_stl_extensions.h

; 82   : 							void					deallocate		(pointer p, size_type n) const			{	xr_free	(p);				}

	call	??$xr_free@U?$_List_node@U?$_vector3@M@@PEAX@std@@@@YAXAEAPEAU?$_List_node@U?$_vector3@M@@PEAX@std@@@Z ; xr_free<std::_List_node<_vector3<float>,void * __ptr64> >
; File c:\program files (x86)\microsoft visual studio 12.0\vc\include\list

; 777  : 		}

	add	rsp, 40					; 00000028H
	ret	0
?_Freeheadnode@?$_List_alloc@$0A@U?$_List_base_types@U?$_vector3@M@@V?$xalloc@U?$_vector3@M@@@@@std@@@std@@QEAAXPEAU?$_List_node@U?$_vector3@M@@PEAX@2@@Z ENDP ; std::_List_alloc<0,std::_List_base_types<_vector3<float>,xalloc<_vector3<float> > > >::_Freeheadnode
_TEXT	ENDS
; Function compile flags: /Ogtpy
; File c:\program files (x86)\microsoft visual studio 12.0\vc\include\list
;	COMDAT ?_Getal@?$_List_alloc@$0A@U?$_List_base_types@U?$_vector3@M@@V?$xalloc@U?$_vector3@M@@@@@std@@@std@@QEBA?AU?$_Wrap_alloc@V?$xalloc@U?$_List_node@U?$_vector3@M@@PEAX@std@@@@@2@XZ
_TEXT	SEGMENT
this$dead$ = 8
__$ReturnUdt$ = 16
?_Getal@?$_List_alloc@$0A@U?$_List_base_types@U?$_vector3@M@@V?$xalloc@U?$_vector3@M@@@@@std@@@std@@QEBA?AU?$_Wrap_alloc@V?$xalloc@U?$_List_node@U?$_vector3@M@@PEAX@std@@@@@2@XZ PROC ; std::_List_alloc<0,std::_List_base_types<_vector3<float>,xalloc<_vector3<float> > > >::_Getal, COMDAT

; 804  : 		return (_Alty());

	mov	rax, rdx

; 805  : 		}

	ret	0
?_Getal@?$_List_alloc@$0A@U?$_List_base_types@U?$_vector3@M@@V?$xalloc@U?$_vector3@M@@@@@std@@@std@@QEBA?AU?$_Wrap_alloc@V?$xalloc@U?$_List_node@U?$_vector3@M@@PEAX@std@@@@@2@XZ ENDP ; std::_List_alloc<0,std::_List_base_types<_vector3<float>,xalloc<_vector3<float> > > >::_Getal
_TEXT	ENDS
; Function compile flags: /Ogtpy
; File c:\program files (x86)\microsoft visual studio 12.0\vc\include\list
;	COMDAT ?_Myval@?$_List_val@U?$_List_simple_types@U?$_vector3@M@@@std@@@std@@SAAEAU?$_vector3@M@@PEAU?$_List_node@U?$_vector3@M@@PEAX@2@@Z
_TEXT	SEGMENT
_Pnode$ = 8
?_Myval@?$_List_val@U?$_List_simple_types@U?$_vector3@M@@@std@@@std@@SAAEAU?$_vector3@M@@PEAU?$_List_node@U?$_vector3@M@@PEAX@2@@Z PROC ; std::_List_val<std::_List_simple_types<_vector3<float> > >::_Myval, COMDAT

; 543  : 		return ((reference)_Pnode->_Myval);

	lea	rax, QWORD PTR [rcx+16]

; 544  : 		}

	ret	0
?_Myval@?$_List_val@U?$_List_simple_types@U?$_vector3@M@@@std@@@std@@SAAEAU?$_vector3@M@@PEAU?$_List_node@U?$_vector3@M@@PEAX@2@@Z ENDP ; std::_List_val<std::_List_simple_types<_vector3<float> > >::_Myval
_TEXT	ENDS
; Function compile flags: /Ogtpy
; File c:\program files (x86)\microsoft visual studio 12.0\vc\include\list
;	COMDAT ??0?$_List_unchecked_const_iterator@V?$_List_val@U?$_List_simple_types@U?$_vector3@M@@@std@@@std@@U_Iterator_base0@2@@std@@QEAA@XZ
_TEXT	SEGMENT
this$ = 8
??0?$_List_unchecked_const_iterator@V?$_List_val@U?$_List_simple_types@U?$_vector3@M@@@std@@@std@@U_Iterator_base0@2@@std@@QEAA@XZ PROC ; std::_List_unchecked_const_iterator<std::_List_val<std::_List_simple_types<_vector3<float> > >,std::_Iterator_base0>::_List_unchecked_const_iterator<std::_List_val<std::_List_simple_types<_vector3<float> > >,std::_Iterator_base0>, COMDAT

; 39   : 		{	// construct with null node pointer

	mov	QWORD PTR [rcx], 0

; 40   : 		}

	mov	rax, rcx
	ret	0
??0?$_List_unchecked_const_iterator@V?$_List_val@U?$_List_simple_types@U?$_vector3@M@@@std@@@std@@U_Iterator_base0@2@@std@@QEAA@XZ ENDP ; std::_List_unchecked_const_iterator<std::_List_val<std::_List_simple_types<_vector3<float> > >,std::_Iterator_base0>::_List_unchecked_const_iterator<std::_List_val<std::_List_simple_types<_vector3<float> > >,std::_Iterator_base0>
_TEXT	ENDS
; Function compile flags: /Ogtpy
; File c:\program files (x86)\microsoft visual studio 12.0\vc\include\list
;	COMDAT ??0?$_List_unchecked_const_iterator@V?$_List_val@U?$_List_simple_types@U?$_vector3@M@@@std@@@std@@U_Iterator_base0@2@@std@@QEAA@PEAU?$_List_node@U?$_vector3@M@@PEAX@1@PEBV?$_List_val@U?$_List_simple_types@U?$_vector3@M@@@std@@@1@@Z
_TEXT	SEGMENT
this$ = 8
_Pnode$ = 16
_Plist$dead$ = 24
??0?$_List_unchecked_const_iterator@V?$_List_val@U?$_List_simple_types@U?$_vector3@M@@@std@@@std@@U_Iterator_base0@2@@std@@QEAA@PEAU?$_List_node@U?$_vector3@M@@PEAX@1@PEBV?$_List_val@U?$_List_simple_types@U?$_vector3@M@@@std@@@1@@Z PROC ; std::_List_unchecked_const_iterator<std::_List_val<std::_List_simple_types<_vector3<float> > >,std::_Iterator_base0>::_List_unchecked_const_iterator<std::_List_val<std::_List_simple_types<_vector3<float> > >,std::_Iterator_base0>, COMDAT

; 44   : 		{	// construct with node pointer _Pnode

	mov	QWORD PTR [rcx], rdx

; 45   : 		this->_Adopt(_Plist);
; 46   : 		}

	mov	rax, rcx
	ret	0
??0?$_List_unchecked_const_iterator@V?$_List_val@U?$_List_simple_types@U?$_vector3@M@@@std@@@std@@U_Iterator_base0@2@@std@@QEAA@PEAU?$_List_node@U?$_vector3@M@@PEAX@1@PEBV?$_List_val@U?$_List_simple_types@U?$_vector3@M@@@std@@@1@@Z ENDP ; std::_List_unchecked_const_iterator<std::_List_val<std::_List_simple_types<_vector3<float> > >,std::_Iterator_base0>::_List_unchecked_const_iterator<std::_List_val<std::_List_simple_types<_vector3<float> > >,std::_Iterator_base0>
_TEXT	ENDS
; Function compile flags: /Ogtpy
; File c:\program files (x86)\microsoft visual studio 12.0\vc\include\list
;	COMDAT ??0?$_List_unchecked_iterator@V?$_List_val@U?$_List_simple_types@U?$_vector3@M@@@std@@@std@@@std@@QEAA@PEAU?$_List_node@U?$_vector3@M@@PEAX@1@PEBV?$_List_val@U?$_List_simple_types@U?$_vector3@M@@@std@@@1@@Z
_TEXT	SEGMENT
this$ = 8
_Pnode$ = 16
_Plist$dead$ = 24
??0?$_List_unchecked_iterator@V?$_List_val@U?$_List_simple_types@U?$_vector3@M@@@std@@@std@@@std@@QEAA@PEAU?$_List_node@U?$_vector3@M@@PEAX@1@PEBV?$_List_val@U?$_List_simple_types@U?$_vector3@M@@@std@@@1@@Z PROC ; std::_List_unchecked_iterator<std::_List_val<std::_List_simple_types<_vector3<float> > > >::_List_unchecked_iterator<std::_List_val<std::_List_simple_types<_vector3<float> > > >, COMDAT

; 44   : 		{	// construct with node pointer _Pnode

	mov	QWORD PTR [rcx], rdx

; 125  : 		}

	mov	rax, rcx
	ret	0
??0?$_List_unchecked_iterator@V?$_List_val@U?$_List_simple_types@U?$_vector3@M@@@std@@@std@@@std@@QEAA@PEAU?$_List_node@U?$_vector3@M@@PEAX@1@PEBV?$_List_val@U?$_List_simple_types@U?$_vector3@M@@@std@@@1@@Z ENDP ; std::_List_unchecked_iterator<std::_List_val<std::_List_simple_types<_vector3<float> > > >::_List_unchecked_iterator<std::_List_val<std::_List_simple_types<_vector3<float> > > >
_TEXT	ENDS
; Function compile flags: /Ogtpy
; File c:\program files (x86)\microsoft visual studio 12.0\vc\include\list
;	COMDAT ?_Incsize@?$list@U?$_vector3@M@@V?$xalloc@U?$_vector3@M@@@@@std@@QEAAX_K@Z
_TEXT	SEGMENT
this$ = 48
_Count$dead$ = 56
?_Incsize@?$list@U?$_vector3@M@@V?$xalloc@U?$_vector3@M@@@@@std@@QEAAX_K@Z PROC ; std::list<_vector3<float>,xalloc<_vector3<float> > >::_Incsize, COMDAT

; 1905 : 		{	// alter element count, with checking

$LN18:
	sub	rsp, 40					; 00000028H

; 1906 : 		if (max_size() - this->_Mysize - 1 < _Count)

	mov	rdx, QWORD PTR [rcx+8]
	mov	rax, 576460752303423486			; 07fffffffffffffeH
	sub	rax, rdx
	cmp	rax, 1
	jae	SHORT $LN1@Incsize

; 1907 : 			_Xlength_error("list<T> too long");

	lea	rcx, OFFSET FLAT:??_C@_0BB@MOGOBHAF@list?$DMT?$DO?5too?5long?$AA@
	call	QWORD PTR __imp_?_Xlength_error@std@@YAXPEBD@Z
	int	3
$LN1@Incsize:

; 1908 : 		this->_Mysize += _Count;

	lea	rax, QWORD PTR [rdx+1]
	mov	QWORD PTR [rcx+8], rax

; 1909 : 		}

	add	rsp, 40					; 00000028H
	ret	0
$LN17@Incsize:
?_Incsize@?$list@U?$_vector3@M@@V?$xalloc@U?$_vector3@M@@@@@std@@QEAAX_K@Z ENDP ; std::list<_vector3<float>,xalloc<_vector3<float> > >::_Incsize
_TEXT	ENDS
; Function compile flags: /Ogtpy
; File c:\program files (x86)\microsoft visual studio 12.0\vc\include\list
; File c:\users\nummer\documents\github\olr-3.0\src\xray\xrcore\_stl_extensions.h
; File c:\program files (x86)\microsoft visual studio 12.0\vc\include\xmemory0
; File c:\users\nummer\documents\github\olr-3.0\src\xray\xrcore\_stl_extensions.h
; File c:\program files (x86)\microsoft visual studio 12.0\vc\include\list
;	COMDAT ?_Freenode@?$_List_buy@U?$_vector3@M@@V?$xalloc@U?$_vector3@M@@@@@std@@QEAAXPEAU?$_List_node@U?$_vector3@M@@PEAX@2@@Z
_TEXT	SEGMENT
p$ = 48
this$dead$ = 48
_Pnode$ = 56
?_Freenode@?$_List_buy@U?$_vector3@M@@V?$xalloc@U?$_vector3@M@@@@@std@@QEAAXPEAU?$_List_node@U?$_vector3@M@@PEAX@2@@Z PROC ; std::_List_buy<_vector3<float>,xalloc<_vector3<float> > >::_Freenode, COMDAT

; 846  : 		{	// give node back

$LN28:
	mov	QWORD PTR [rsp+8], rcx
	sub	rsp, 40					; 00000028H
; File c:\users\nummer\documents\github\olr-3.0\src\xray\xrcore\_stl_extensions.h

; 82   : 							void					deallocate		(pointer p, size_type n) const			{	xr_free	(p);				}

	lea	rcx, QWORD PTR p$[rsp]
; File c:\program files (x86)\microsoft visual studio 12.0\vc\include\xmemory0

; 858  : 		_Mybase::deallocate(_Ptr, _Count);

	mov	QWORD PTR p$[rsp], rdx
; File c:\users\nummer\documents\github\olr-3.0\src\xray\xrcore\_stl_extensions.h

; 82   : 							void					deallocate		(pointer p, size_type n) const			{	xr_free	(p);				}

	call	??$xr_free@U?$_List_node@U?$_vector3@M@@PEAX@std@@@@YAXAEAPEAU?$_List_node@U?$_vector3@M@@PEAX@std@@@Z ; xr_free<std::_List_node<_vector3<float>,void * __ptr64> >
; File c:\program files (x86)\microsoft visual studio 12.0\vc\include\list

; 854  : 		}

	add	rsp, 40					; 00000028H
	ret	0
?_Freenode@?$_List_buy@U?$_vector3@M@@V?$xalloc@U?$_vector3@M@@@@@std@@QEAAXPEAU?$_List_node@U?$_vector3@M@@PEAX@2@@Z ENDP ; std::_List_buy<_vector3<float>,xalloc<_vector3<float> > >::_Freenode
_TEXT	ENDS
; Function compile flags: /Ogtpy
; File c:\program files (x86)\microsoft visual studio 12.0\vc\include\list
;	COMDAT ?_Buyheadnode@?$_List_alloc@$0A@U?$_List_base_types@U?$_vector3@M@@V?$xalloc@U?$_vector3@M@@@@@std@@@std@@QEAAPEAU?$_List_node@U?$_vector3@M@@PEAX@2@XZ
_TEXT	SEGMENT
this$dead$ = 8
?_Buyheadnode@?$_List_alloc@$0A@U?$_List_base_types@U?$_vector3@M@@V?$xalloc@U?$_vector3@M@@@@@std@@@std@@QEAAPEAU?$_List_node@U?$_vector3@M@@PEAX@2@XZ PROC ; std::_List_alloc<0,std::_List_base_types<_vector3<float>,xalloc<_vector3<float> > > >::_Buyheadnode, COMDAT

; 767  : 		return (_Buynode0(_Nodeptr(), _Nodeptr()));

	xor	r8d, r8d
	xor	edx, edx
	jmp	?_Buynode0@?$_List_alloc@$0A@U?$_List_base_types@U?$_vector3@M@@V?$xalloc@U?$_vector3@M@@@@@std@@@std@@QEAAPEAU?$_List_node@U?$_vector3@M@@PEAX@2@PEAU32@0@Z ; std::_List_alloc<0,std::_List_base_types<_vector3<float>,xalloc<_vector3<float> > > >::_Buynode0
?_Buyheadnode@?$_List_alloc@$0A@U?$_List_base_types@U?$_vector3@M@@V?$xalloc@U?$_vector3@M@@@@@std@@@std@@QEAAPEAU?$_List_node@U?$_vector3@M@@PEAX@2@XZ ENDP ; std::_List_alloc<0,std::_List_base_types<_vector3<float>,xalloc<_vector3<float> > > >::_Buyheadnode
_TEXT	ENDS
; Function compile flags: /Ogtpy
; File c:\program files (x86)\microsoft visual studio 12.0\vc\include\xmemory0
;	COMDAT ??0?$_Wrap_alloc@V?$xalloc@U?$_List_node@U?$_vector3@M@@PEAX@std@@@@@std@@QEAA@XZ
_TEXT	SEGMENT
this$ = 8
??0?$_Wrap_alloc@V?$xalloc@U?$_List_node@U?$_vector3@M@@PEAX@std@@@@@std@@QEAA@XZ PROC ; std::_Wrap_alloc<xalloc<std::_List_node<_vector3<float>,void * __ptr64> > >::_Wrap_alloc<xalloc<std::_List_node<_vector3<float>,void * __ptr64> > >, COMDAT

; 802  : 		}

	mov	rax, rcx
	ret	0
??0?$_Wrap_alloc@V?$xalloc@U?$_List_node@U?$_vector3@M@@PEAX@std@@@@@std@@QEAA@XZ ENDP ; std::_Wrap_alloc<xalloc<std::_List_node<_vector3<float>,void * __ptr64> > >::_Wrap_alloc<xalloc<std::_List_node<_vector3<float>,void * __ptr64> > >
_TEXT	ENDS
; Function compile flags: /Ogtpy
; File c:\program files (x86)\microsoft visual studio 12.0\vc\include\xmemory0
; File c:\users\nummer\documents\github\olr-3.0\src\xray\xrcore\_stl_extensions.h
; File c:\program files (x86)\microsoft visual studio 12.0\vc\include\xmemory0
; File c:\users\nummer\documents\github\olr-3.0\src\xray\xrcore\_stl_extensions.h
; File c:\program files (x86)\microsoft visual studio 12.0\vc\include\xmemory0
;	COMDAT ?deallocate@?$_Wrap_alloc@V?$xalloc@U?$_List_node@U?$_vector3@M@@PEAX@std@@@@@std@@QEAAXPEAU?$_List_node@U?$_vector3@M@@PEAX@2@_K@Z
_TEXT	SEGMENT
this$dead$ = 48
_Ptr$ = 56
p$ = 64
_Count$dead$ = 64
?deallocate@?$_Wrap_alloc@V?$xalloc@U?$_List_node@U?$_vector3@M@@PEAX@std@@@@@std@@QEAAXPEAU?$_List_node@U?$_vector3@M@@PEAX@2@_K@Z PROC ; std::_Wrap_alloc<xalloc<std::_List_node<_vector3<float>,void * __ptr64> > >::deallocate, COMDAT

; 857  : 		{	// deallocate object at _Ptr, ignore size

$LN6:
	mov	QWORD PTR [rsp+24], r8
	sub	rsp, 40					; 00000028H
; File c:\users\nummer\documents\github\olr-3.0\src\xray\xrcore\_stl_extensions.h

; 82   : 							void					deallocate		(pointer p, size_type n) const			{	xr_free	(p);				}

	lea	rcx, QWORD PTR p$[rsp]
; File c:\program files (x86)\microsoft visual studio 12.0\vc\include\xmemory0

; 858  : 		_Mybase::deallocate(_Ptr, _Count);

	mov	QWORD PTR p$[rsp], rdx
; File c:\users\nummer\documents\github\olr-3.0\src\xray\xrcore\_stl_extensions.h

; 82   : 							void					deallocate		(pointer p, size_type n) const			{	xr_free	(p);				}

	call	??$xr_free@U?$_List_node@U?$_vector3@M@@PEAX@std@@@@YAXAEAPEAU?$_List_node@U?$_vector3@M@@PEAX@std@@@Z ; xr_free<std::_List_node<_vector3<float>,void * __ptr64> >
; File c:\program files (x86)\microsoft visual studio 12.0\vc\include\xmemory0

; 859  : 		}

	add	rsp, 40					; 00000028H
	ret	0
?deallocate@?$_Wrap_alloc@V?$xalloc@U?$_List_node@U?$_vector3@M@@PEAX@std@@@@@std@@QEAAXPEAU?$_List_node@U?$_vector3@M@@PEAX@2@_K@Z ENDP ; std::_Wrap_alloc<xalloc<std::_List_node<_vector3<float>,void * __ptr64> > >::deallocate
_TEXT	ENDS
; Function compile flags: /Ogtpy
; File c:\program files (x86)\microsoft visual studio 12.0\vc\include\list
;	COMDAT ??0?$_List_val@U?$_List_simple_types@U?$_vector3@M@@@std@@@std@@QEAA@XZ
_TEXT	SEGMENT
this$ = 8
??0?$_List_val@U?$_List_simple_types@U?$_vector3@M@@@std@@@std@@QEAA@XZ PROC ; std::_List_val<std::_List_simple_types<_vector3<float> > >::_List_val<std::_List_simple_types<_vector3<float> > >, COMDAT

; 526  : 		{	// initialize data
; 527  : 		this->_Myhead = 0;

	xor	eax, eax
	mov	QWORD PTR [rcx], rax

; 528  : 		this->_Mysize = 0;

	mov	QWORD PTR [rcx+8], rax

; 529  : 		}

	mov	rax, rcx
	ret	0
??0?$_List_val@U?$_List_simple_types@U?$_vector3@M@@@std@@@std@@QEAA@XZ ENDP ; std::_List_val<std::_List_simple_types<_vector3<float> > >::_List_val<std::_List_simple_types<_vector3<float> > >
_TEXT	ENDS
; Function compile flags: /Ogtpy
; File c:\program files (x86)\microsoft visual studio 12.0\vc\include\list
;	COMDAT ?_Prevnode@?$_List_val@U?$_List_simple_types@U?$_vector3@M@@@std@@@std@@SAAEAPEAU?$_List_node@U?$_vector3@M@@PEAX@2@PEAU32@@Z
_TEXT	SEGMENT
_Pnode$ = 8
?_Prevnode@?$_List_val@U?$_List_simple_types@U?$_vector3@M@@@std@@@std@@SAAEAPEAU?$_List_node@U?$_vector3@M@@PEAX@2@PEAU32@@Z PROC ; std::_List_val<std::_List_simple_types<_vector3<float> > >::_Prevnode, COMDAT

; 538  : 		return ((_Nodepref)_Pnode->_Prev);

	lea	rax, QWORD PTR [rcx+8]

; 539  : 		}

	ret	0
?_Prevnode@?$_List_val@U?$_List_simple_types@U?$_vector3@M@@@std@@@std@@SAAEAPEAU?$_List_node@U?$_vector3@M@@PEAX@2@PEAU32@@Z ENDP ; std::_List_val<std::_List_simple_types<_vector3<float> > >::_Prevnode
_TEXT	ENDS
; Function compile flags: /Ogtpy
; File c:\program files (x86)\microsoft visual studio 12.0\vc\include\list
;	COMDAT ?_Mynode@?$_List_unchecked_const_iterator@V?$_List_val@U?$_List_simple_types@U?$_vector3@M@@@std@@@std@@U_Iterator_base0@2@@std@@QEBAPEAU?$_List_node@U?$_vector3@M@@PEAX@2@XZ
_TEXT	SEGMENT
this$ = 8
?_Mynode@?$_List_unchecked_const_iterator@V?$_List_val@U?$_List_simple_types@U?$_vector3@M@@@std@@@std@@U_Iterator_base0@2@@std@@QEBAPEAU?$_List_node@U?$_vector3@M@@PEAX@2@XZ PROC ; std::_List_unchecked_const_iterator<std::_List_val<std::_List_simple_types<_vector3<float> > >,std::_Iterator_base0>::_Mynode, COMDAT

; 96   : 		return (_Ptr);

	mov	rax, QWORD PTR [rcx]

; 97   : 		}

	ret	0
?_Mynode@?$_List_unchecked_const_iterator@V?$_List_val@U?$_List_simple_types@U?$_vector3@M@@@std@@@std@@U_Iterator_base0@2@@std@@QEBAPEAU?$_List_node@U?$_vector3@M@@PEAX@2@XZ ENDP ; std::_List_unchecked_const_iterator<std::_List_val<std::_List_simple_types<_vector3<float> > >,std::_Iterator_base0>::_Mynode
_TEXT	ENDS
; Function compile flags: /Ogtpy
; File c:\program files (x86)\microsoft visual studio 12.0\vc\include\list
;	COMDAT ?max_size@?$list@U?$_vector3@M@@V?$xalloc@U?$_vector3@M@@@@@std@@QEBA_KXZ
_TEXT	SEGMENT
this$dead$ = 8
?max_size@?$list@U?$_vector3@M@@V?$xalloc@U?$_vector3@M@@@@@std@@QEBA_KXZ PROC ; std::list<_vector3<float>,xalloc<_vector3<float> > >::max_size, COMDAT

; 1241 : 		return (this->_Getal().max_size());

	mov	rax, 576460752303423487			; 07ffffffffffffffH

; 1242 : 		}

	ret	0
?max_size@?$list@U?$_vector3@M@@V?$xalloc@U?$_vector3@M@@@@@std@@QEBA_KXZ ENDP ; std::list<_vector3<float>,xalloc<_vector3<float> > >::max_size
_TEXT	ENDS
; Function compile flags: /Ogtpy
; File c:\program files (x86)\microsoft visual studio 12.0\vc\include\list
; File c:\users\nummer\documents\github\olr-3.0\src\xray\xrcore\xrmemory.h
; File c:\program files (x86)\microsoft visual studio 12.0\vc\include\list
; File c:\program files (x86)\microsoft visual studio 12.0\vc\include\xmemory0
; File c:\program files (x86)\microsoft visual studio 12.0\vc\include\list
; File c:\program files (x86)\microsoft visual studio 12.0\vc\include\xmemory0
; File c:\program files (x86)\microsoft visual studio 12.0\vc\include\list
;	COMDAT ?_Buynode0@?$_List_alloc@$0A@U?$_List_base_types@U?$_vector3@M@@V?$xalloc@U?$_vector3@M@@@@@std@@@std@@QEAAPEAU?$_List_node@U?$_vector3@M@@PEAX@2@PEAU32@0@Z
_TEXT	SEGMENT
$T1 = 32
p$ = 64
this$dead$ = 64
_Pnode$ = 64
_Next$ = 72
_Prev$ = 80
?_Buynode0@?$_List_alloc@$0A@U?$_List_base_types@U?$_vector3@M@@V?$xalloc@U?$_vector3@M@@@@@std@@@std@@QEAAPEAU?$_List_node@U?$_vector3@M@@PEAX@2@PEAU32@0@Z PROC ; std::_List_alloc<0,std::_List_base_types<_vector3<float>,xalloc<_vector3<float> > > >::_Buynode0, COMDAT

; 781  : 		{	// allocate a node and set links

$LN72:
	mov	QWORD PTR [rsp+8], rcx
	push	rdi
	sub	rsp, 48					; 00000030H
	mov	QWORD PTR $T1[rsp], -2
	mov	QWORD PTR [rsp+72], rbx
	mov	rdi, r8
	mov	rbx, rdx
; File c:\users\nummer\documents\github\olr-3.0\src\xray\xrcore\xrmemory.h

; 107  : 	IC T*		xr_alloc	(u32 count)				{	return  (T*)Memory.mem_alloc(count*sizeof(T));	}

	mov	edx, 32					; 00000020H
	lea	rcx, OFFSET FLAT:?Memory@@3VxrMemory@@A	; Memory
	call	?mem_alloc@xrMemory@@QEAAPEAX_K@Z	; xrMemory::mem_alloc
	mov	QWORD PTR _Pnode$[rsp], rax
; File c:\program files (x86)\microsoft visual studio 12.0\vc\include\list

; 784  : 		if (_Next == _Nodeptr())

	test	rbx, rbx
	jne	SHORT $LN2@Buynode0

; 785  : 			{	// point at self
; 786  : 			_Next = _Pnode;

	mov	rbx, rax

; 787  : 			_Prev = _Pnode;

	mov	rdi, rax
$LN2@Buynode0:
; File c:\program files (x86)\microsoft visual studio 12.0\vc\include\xmemory0

; 349  : 			_Objty(_STD forward<_Types>(_Args)...);

	test	rax, rax
	je	SHORT $LN35@Buynode0
	mov	QWORD PTR [rax], rbx
$LN35@Buynode0:
; File c:\program files (x86)\microsoft visual studio 12.0\vc\include\list

; 538  : 		return ((_Nodepref)_Pnode->_Prev);

	lea	rcx, QWORD PTR [rax+8]
; File c:\program files (x86)\microsoft visual studio 12.0\vc\include\xmemory0

; 349  : 			_Objty(_STD forward<_Types>(_Args)...);

	test	rcx, rcx
	je	SHORT $LN59@Buynode0
	mov	QWORD PTR [rcx], rdi
$LN59@Buynode0:
; File c:\program files (x86)\microsoft visual studio 12.0\vc\include\list

; 800  : 		}

	mov	rbx, QWORD PTR [rsp+72]
	add	rsp, 48					; 00000030H
	pop	rdi
	ret	0
$LN71@Buynode0:
?_Buynode0@?$_List_alloc@$0A@U?$_List_base_types@U?$_vector3@M@@V?$xalloc@U?$_vector3@M@@@@@std@@@std@@QEAAPEAU?$_List_node@U?$_vector3@M@@PEAX@2@PEAU32@0@Z ENDP ; std::_List_alloc<0,std::_List_base_types<_vector3<float>,xalloc<_vector3<float> > > >::_Buynode0
_TEXT	ENDS
; Function compile flags: /Ogtpy
; File c:\program files (x86)\microsoft visual studio 12.0\vc\include\xmemory0
; File c:\users\nummer\documents\github\olr-3.0\src\xray\xrcore\_stl_extensions.h
; File c:\program files (x86)\microsoft visual studio 12.0\vc\include\list
;	COMDAT text$x
text$x	SEGMENT
$T1 = 32
p$ = 64
this$dead$ = 64
_Pnode$ = 64
_Next$ = 72
_Prev$ = 80
?catch$0@?0??_Buynode0@?$_List_alloc@$0A@U?$_List_base_types@U?$_vector3@M@@V?$xalloc@U?$_vector3@M@@@@@std@@@std@@QEAAPEAU?$_List_node@U?$_vector3@M@@PEAX@2@PEAU32@0@Z@4HA PROC ; `std::_List_alloc<0,std::_List_base_types<_vector3<float>,xalloc<_vector3<float> > > >::_Buynode0'::`1'::catch$0

; 794  : 		_CATCH_ALL

	mov	QWORD PTR [rsp+16], rdx
	push	rbp
	sub	rsp, 32					; 00000020H
	mov	rbp, rdx
__catch$?_Buynode0@?$_List_alloc@$0A@U?$_List_base_types@U?$_vector3@M@@V?$xalloc@U?$_vector3@M@@@@@std@@@std@@QEAAPEAU?$_List_node@U?$_vector3@M@@PEAX@2@PEAU32@0@Z$0:
; File c:\program files (x86)\microsoft visual studio 12.0\vc\include\xmemory0

; 858  : 		_Mybase::deallocate(_Ptr, _Count);

	mov	rax, QWORD PTR _Pnode$[rbp]
	mov	QWORD PTR p$[rbp], rax
; File c:\users\nummer\documents\github\olr-3.0\src\xray\xrcore\_stl_extensions.h

; 82   : 							void					deallocate		(pointer p, size_type n) const			{	xr_free	(p);				}

	lea	rcx, QWORD PTR p$[rbp]
	call	??$xr_free@U?$_List_node@U?$_vector3@M@@PEAX@std@@@@YAXAEAPEAU?$_List_node@U?$_vector3@M@@PEAX@std@@@Z ; xr_free<std::_List_node<_vector3<float>,void * __ptr64> >
; File c:\program files (x86)\microsoft visual studio 12.0\vc\include\list

; 796  : 		_RERAISE;

	xor	edx, edx
	xor	ecx, ecx
	call	_CxxThrowException
	npad	1
?catch$0@?0??_Buynode0@?$_List_alloc@$0A@U?$_List_base_types@U?$_vector3@M@@V?$xalloc@U?$_vector3@M@@@@@std@@@std@@QEAAPEAU?$_List_node@U?$_vector3@M@@PEAX@2@PEAU32@0@Z@4HA ENDP ; `std::_List_alloc<0,std::_List_base_types<_vector3<float>,xalloc<_vector3<float> > > >::_Buynode0'::`1'::catch$0
text$x	ENDS
; Function compile flags: /Ogtpy
; File c:\users\nummer\documents\github\olr-3.0\src\xray\xrcore\_stl_extensions.h
;	COMDAT ??0?$xalloc@U?$_List_node@U?$_vector3@M@@PEAX@std@@@@QEAA@XZ
_TEXT	SEGMENT
this$ = 8
??0?$xalloc@U?$_List_node@U?$_vector3@M@@PEAX@std@@@@QEAA@XZ PROC ; xalloc<std::_List_node<_vector3<float>,void * __ptr64> >::xalloc<std::_List_node<_vector3<float>,void * __ptr64> >, COMDAT

; 76   : 													xalloc			()										{	}

	mov	rax, rcx
	ret	0
??0?$xalloc@U?$_List_node@U?$_vector3@M@@PEAX@std@@@@QEAA@XZ ENDP ; xalloc<std::_List_node<_vector3<float>,void * __ptr64> >::xalloc<std::_List_node<_vector3<float>,void * __ptr64> >
_TEXT	ENDS
; Function compile flags: /Ogtpy
; File c:\users\nummer\documents\github\olr-3.0\src\xray\xrcore\_stl_extensions.h
;	COMDAT ?deallocate@?$xalloc@U?$_List_node@U?$_vector3@M@@PEAX@std@@@@QEBAXPEAU?$_List_node@U?$_vector3@M@@PEAX@std@@_K@Z
_TEXT	SEGMENT
this$dead$ = 48
p$ = 56
n$dead$ = 64
?deallocate@?$xalloc@U?$_List_node@U?$_vector3@M@@PEAX@std@@@@QEBAXPEAU?$_List_node@U?$_vector3@M@@PEAX@std@@_K@Z PROC ; xalloc<std::_List_node<_vector3<float>,void * __ptr64> >::deallocate, COMDAT

; 82   : 							void					deallocate		(pointer p, size_type n) const			{	xr_free	(p);				}

$LN4:
	mov	QWORD PTR [rsp+16], rdx
	sub	rsp, 40					; 00000028H
	lea	rcx, QWORD PTR p$[rsp]
	call	??$xr_free@U?$_List_node@U?$_vector3@M@@PEAX@std@@@@YAXAEAPEAU?$_List_node@U?$_vector3@M@@PEAX@std@@@Z ; xr_free<std::_List_node<_vector3<float>,void * __ptr64> >
	add	rsp, 40					; 00000028H
	ret	0
?deallocate@?$xalloc@U?$_List_node@U?$_vector3@M@@PEAX@std@@@@QEBAXPEAU?$_List_node@U?$_vector3@M@@PEAX@std@@_K@Z ENDP ; xalloc<std::_List_node<_vector3<float>,void * __ptr64> >::deallocate
_TEXT	ENDS
; Function compile flags: /Ogtpy
; File c:\program files (x86)\microsoft visual studio 12.0\vc\include\xmemory0
; File c:\users\nummer\documents\github\olr-3.0\src\xray\xrcore\xrmemory.h
; File c:\program files (x86)\microsoft visual studio 12.0\vc\include\xmemory0
;	COMDAT ?allocate@?$_Wrap_alloc@V?$xalloc@U?$_List_node@U?$_vector3@M@@PEAX@std@@@@@std@@QEAAPEAU?$_List_node@U?$_vector3@M@@PEAX@2@_K@Z
_TEXT	SEGMENT
this$dead$ = 8
_Count$dead$ = 16
?allocate@?$_Wrap_alloc@V?$xalloc@U?$_List_node@U?$_vector3@M@@PEAX@std@@@@@std@@QEAAPEAU?$_List_node@U?$_vector3@M@@PEAX@2@_K@Z PROC ; std::_Wrap_alloc<xalloc<std::_List_node<_vector3<float>,void * __ptr64> > >::allocate, COMDAT
; File c:\users\nummer\documents\github\olr-3.0\src\xray\xrcore\xrmemory.h

; 107  : 	IC T*		xr_alloc	(u32 count)				{	return  (T*)Memory.mem_alloc(count*sizeof(T));	}

	lea	rcx, OFFSET FLAT:?Memory@@3VxrMemory@@A	; Memory
	mov	edx, 32					; 00000020H
	jmp	?mem_alloc@xrMemory@@QEAAPEAX_K@Z	; xrMemory::mem_alloc
?allocate@?$_Wrap_alloc@V?$xalloc@U?$_List_node@U?$_vector3@M@@PEAX@std@@@@@std@@QEAAPEAU?$_List_node@U?$_vector3@M@@PEAX@2@_K@Z ENDP ; std::_Wrap_alloc<xalloc<std::_List_node<_vector3<float>,void * __ptr64> > >::allocate
_TEXT	ENDS
; Function compile flags: /Ogtpy
; File c:\program files (x86)\microsoft visual studio 12.0\vc\include\xmemory0
;	COMDAT ?max_size@?$_Wrap_alloc@V?$xalloc@U?$_List_node@U?$_vector3@M@@PEAX@std@@@@@std@@QEBA_KXZ
_TEXT	SEGMENT
this$dead$ = 8
?max_size@?$_Wrap_alloc@V?$xalloc@U?$_List_node@U?$_vector3@M@@PEAX@std@@@@@std@@QEBA_KXZ PROC ; std::_Wrap_alloc<xalloc<std::_List_node<_vector3<float>,void * __ptr64> > >::max_size, COMDAT

; 884  : 		return (_Mytraits::max_size(*this));

	mov	rax, 576460752303423487			; 07ffffffffffffffH

; 885  : 		}

	ret	0
?max_size@?$_Wrap_alloc@V?$xalloc@U?$_List_node@U?$_vector3@M@@PEAX@std@@@@@std@@QEBA_KXZ ENDP ; std::_Wrap_alloc<xalloc<std::_List_node<_vector3<float>,void * __ptr64> > >::max_size
_TEXT	ENDS
; Function compile flags: /Ogtpy
; File c:\users\nummer\documents\github\olr-3.0\src\xray\xrcore\_stl_extensions.h
; File c:\users\nummer\documents\github\olr-3.0\src\xray\xrcore\xrmemory.h
; File c:\users\nummer\documents\github\olr-3.0\src\xray\xrcore\_stl_extensions.h
;	COMDAT ?allocate@?$xalloc@U?$_List_node@U?$_vector3@M@@PEAX@std@@@@QEBAPEAU?$_List_node@U?$_vector3@M@@PEAX@std@@_KPEBX@Z
_TEXT	SEGMENT
this$dead$ = 8
n$dead$ = 16
p$dead$ = 24
?allocate@?$xalloc@U?$_List_node@U?$_vector3@M@@PEAX@std@@@@QEBAPEAU?$_List_node@U?$_vector3@M@@PEAX@std@@_KPEBX@Z PROC ; xalloc<std::_List_node<_vector3<float>,void * __ptr64> >::allocate, COMDAT
; File c:\users\nummer\documents\github\olr-3.0\src\xray\xrcore\xrmemory.h

; 107  : 	IC T*		xr_alloc	(u32 count)				{	return  (T*)Memory.mem_alloc(count*sizeof(T));	}

	lea	rcx, OFFSET FLAT:?Memory@@3VxrMemory@@A	; Memory
	mov	edx, 32					; 00000020H
	jmp	?mem_alloc@xrMemory@@QEAAPEAX_K@Z	; xrMemory::mem_alloc
?allocate@?$xalloc@U?$_List_node@U?$_vector3@M@@PEAX@std@@@@QEBAPEAU?$_List_node@U?$_vector3@M@@PEAX@std@@_KPEBX@Z ENDP ; xalloc<std::_List_node<_vector3<float>,void * __ptr64> >::allocate
_TEXT	ENDS
; Function compile flags: /Ogtpy
; File c:\program files (x86)\microsoft visual studio 12.0\vc\include\xmemory0
;	COMDAT ?max_size@?$allocator_traits@V?$xalloc@U?$_List_node@U?$_vector3@M@@PEAX@std@@@@@std@@SA_KAEBV?$xalloc@U?$_List_node@U?$_vector3@M@@PEAX@std@@@@@Z
_TEXT	SEGMENT
_Al$dead$ = 8
?max_size@?$allocator_traits@V?$xalloc@U?$_List_node@U?$_vector3@M@@PEAX@std@@@@@std@@SA_KAEBV?$xalloc@U?$_List_node@U?$_vector3@M@@PEAX@std@@@@@Z PROC ; std::allocator_traits<xalloc<std::_List_node<_vector3<float>,void * __ptr64> > >::max_size, COMDAT

; 481  : 		return (_Alloc_max_size::_Fn(0, _Al));

	mov	rax, 576460752303423487			; 07ffffffffffffffH

; 482  : 		}

	ret	0
?max_size@?$allocator_traits@V?$xalloc@U?$_List_node@U?$_vector3@M@@PEAX@std@@@@@std@@SA_KAEBV?$xalloc@U?$_List_node@U?$_vector3@M@@PEAX@std@@@@@Z ENDP ; std::allocator_traits<xalloc<std::_List_node<_vector3<float>,void * __ptr64> > >::max_size
_TEXT	ENDS
; Function compile flags: /Ogtpy
; File c:\program files (x86)\microsoft visual studio 12.0\vc\include\list
;	COMDAT ??$_Insert@AEBU?$_vector3@M@@@?$list@U?$_vector3@M@@V?$xalloc@U?$_vector3@M@@@@@std@@QEAAXV?$_List_unchecked_const_iterator@V?$_List_val@U?$_List_simple_types@U?$_vector3@M@@@std@@@std@@U_Iterator_base0@2@@1@AEBU?$_vector3@M@@@Z
_TEXT	SEGMENT
this$ = 48
_Where$ = 56
<_Val_0>$ = 64
??$_Insert@AEBU?$_vector3@M@@@?$list@U?$_vector3@M@@V?$xalloc@U?$_vector3@M@@@@@std@@QEAAXV?$_List_unchecked_const_iterator@V?$_List_val@U?$_List_simple_types@U?$_vector3@M@@@std@@@std@@U_Iterator_base0@2@@1@AEBU?$_vector3@M@@@Z PROC ; std::list<_vector3<float>,xalloc<_vector3<float> > >::_Insert<_vector3<float> const & __ptr64>, COMDAT

; 1056 : 		void _Insert(_Unchecked_const_iterator _Where,

$LN33:
	mov	QWORD PTR [rsp+8], rbx
	push	rdi
	sub	rsp, 32					; 00000020H

; 1057 : 		_Valty&&... _Val)
; 1058 : 		{	// insert element at _Where
; 1059 : 		_Nodeptr _Pnode = _Where._Mynode();
; 1060 : 		_Nodeptr _Newnode =
; 1061 : 			this->_Buynode(_Pnode, this->_Prevnode(_Pnode),
; 1062 : 				_STD forward<_Valty>(_Val)...);

	mov	r9, r8
	mov	r8, QWORD PTR [rdx+8]
	mov	rbx, rdx
	mov	rdi, rcx
	call	??$_Buynode@AEBU?$_vector3@M@@@?$_List_buy@U?$_vector3@M@@V?$xalloc@U?$_vector3@M@@@@@std@@QEAAPEAU?$_List_node@U?$_vector3@M@@PEAX@1@PEAU21@0AEBU?$_vector3@M@@@Z ; std::_List_buy<_vector3<float>,xalloc<_vector3<float> > >::_Buynode<_vector3<float> const & __ptr64>

; 1067 : 
; 1068 : 
; 1069 : 	list(_XSTD initializer_list<_Ty> _Ilist,
; 1070 : 		const _Alloc& _Al = allocator_type())
; 1071 : 		: _Mybase(_Al)
; 1072 : 		{	// construct from initializer_list
; 1073 : 		insert(begin(), _Ilist.begin(), _Ilist.end());
; 1074 : 		}
; 1075 : 
; 1076 : 	_Myt& operator=(_XSTD initializer_list<_Ty> _Ilist)
; 1077 : 		{	// assign initializer_list
; 1078 : 		assign(_Ilist.begin(), _Ilist.end());
; 1079 : 		return (*this);
; 1080 : 		}
; 1081 : 
; 1082 : 	void assign(_XSTD initializer_list<_Ty> _Ilist)
; 1083 : 		{	// assign initializer_list
; 1084 : 		assign(_Ilist.begin(), _Ilist.end());
; 1085 : 		}
; 1086 : 
; 1087 : 	iterator insert(const_iterator _Where,
; 1088 : 		_XSTD initializer_list<_Ty> _Ilist)
; 1089 : 		{	// insert initializer_list
; 1090 : 		return (insert(_Where, _Ilist.begin(), _Ilist.end()));
; 1091 : 		}
; 1092 : 
; 1093 : 	~list() _NOEXCEPT
; 1094 : 		{	// destroy the object
; 1095 : 		_Tidy();
; 1096 : 		}
; 1097 : 
; 1098 : 	_Myt& operator=(const _Myt& _Right)
; 1099 : 		{	// assign _Right
; 1100 : 		if (this != &_Right)
; 1101 : 			{	// different, assign it
; 1102 : 			if (this->_Getal() != _Right._Getal()
; 1103 : 				&& _Alty::propagate_on_container_copy_assignment::value)
; 1104 : 				{	// change allocator before copying
; 1105 : 				clear();
; 1106 : 				this->_Change_alloc(_Right._Getal());
; 1107 : 				}
; 1108 : 
; 1109 : 			assign(_Right.begin(), _Right.end());
; 1110 : 			}
; 1111 : 		return (*this);
; 1112 : 		}
; 1113 : 
; 1114 : 	iterator begin() _NOEXCEPT
; 1115 : 		{	// return iterator for beginning of mutable sequence
; 1116 : 		return (iterator(this->_Nextnode(this->_Myhead), this));
; 1117 : 		}
; 1118 : 
; 1119 : 	const_iterator begin() const _NOEXCEPT
; 1120 : 		{	// return iterator for beginning of nonmutable sequence
; 1121 : 		return (const_iterator(this->_Nextnode(this->_Myhead), this));
; 1122 : 		}
; 1123 : 
; 1124 : 	iterator end() _NOEXCEPT
; 1125 : 		{	// return iterator for end of mutable sequence
; 1126 : 		return (iterator(this->_Myhead, this));
; 1127 : 		}
; 1128 : 
; 1129 : 	const_iterator end() const _NOEXCEPT
; 1130 : 		{	// return iterator for end of nonmutable sequence
; 1131 : 		return (const_iterator(this->_Myhead, this));
; 1132 : 		}
; 1133 : 
; 1134 : 	_Unchecked_iterator _Unchecked_begin()
; 1135 : 		{	// return iterator for beginning of mutable sequence
; 1136 : 		return (_Unchecked_iterator(this->_Nextnode(this->_Myhead),
; 1137 : 			this));
; 1138 : 		}
; 1139 : 
; 1140 : 	_Unchecked_const_iterator _Unchecked_begin() const
; 1141 : 		{	// return iterator for beginning of nonmutable sequence
; 1142 : 		return (_Unchecked_const_iterator(this->_Nextnode(this->_Myhead),
; 1143 : 			this));
; 1144 : 		}
; 1145 : 
; 1146 : 	_Unchecked_iterator _Unchecked_end()
; 1147 : 		{	// return unchecked iterator for end of mutable sequence
; 1148 : 		return (_Unchecked_iterator(this->_Myhead, this));
; 1149 : 		}
; 1150 : 
; 1151 : 	_Unchecked_const_iterator _Unchecked_end() const
; 1152 : 		{	// return unchecked iterator for end of nonmutable sequence
; 1153 : 		return (_Unchecked_const_iterator(this->_Myhead, this));
; 1154 : 		}
; 1155 : 
; 1156 : 	iterator _Make_iter(const_iterator _Where) const _NOEXCEPT
; 1157 : 		{	// make iterator from const_iterator
; 1158 : 		return (iterator(_Where._Ptr, this));
; 1159 : 		}
; 1160 : 
; 1161 : 	iterator _Make_iter(_Unchecked_const_iterator _Where) const
; 1162 : 		{	// make iterator from _Unchecked_const_iterator
; 1163 : 		return (iterator(_Where._Ptr, this));
; 1164 : 		}
; 1165 : 
; 1166 : 	reverse_iterator rbegin() _NOEXCEPT
; 1167 : 		{	// return iterator for beginning of reversed mutable sequence
; 1168 : 		return (reverse_iterator(end()));
; 1169 : 		}
; 1170 : 
; 1171 : 	const_reverse_iterator rbegin() const _NOEXCEPT
; 1172 : 		{	// return iterator for beginning of reversed nonmutable sequence
; 1173 : 		return (const_reverse_iterator(end()));
; 1174 : 		}
; 1175 : 
; 1176 : 	reverse_iterator rend() _NOEXCEPT
; 1177 : 		{	// return iterator for end of reversed mutable sequence
; 1178 : 		return (reverse_iterator(begin()));
; 1179 : 		}
; 1180 : 
; 1181 : 	const_reverse_iterator rend() const _NOEXCEPT
; 1182 : 		{	// return iterator for end of reversed nonmutable sequence
; 1183 : 		return (const_reverse_iterator(begin()));
; 1184 : 		}
; 1185 : 
; 1186 : 	const_iterator cbegin() const _NOEXCEPT
; 1187 : 		{	// return iterator for beginning of nonmutable sequence
; 1188 : 		return (((const _Myt *)this)->begin());
; 1189 : 		}
; 1190 : 
; 1191 : 	const_iterator cend() const _NOEXCEPT
; 1192 : 		{	// return iterator for end of nonmutable sequence
; 1193 : 		return (((const _Myt *)this)->end());
; 1194 : 		}
; 1195 : 
; 1196 : 	const_reverse_iterator crbegin() const _NOEXCEPT
; 1197 : 		{	// return iterator for beginning of reversed nonmutable sequence
; 1198 : 		return (((const _Myt *)this)->rbegin());
; 1199 : 		}
; 1200 : 
; 1201 : 	const_reverse_iterator crend() const _NOEXCEPT
; 1202 : 		{	// return iterator for end of reversed nonmutable sequence
; 1203 : 		return (((const _Myt *)this)->rend());
; 1204 : 		}
; 1205 : 
; 1206 : 	void resize(size_type _Newsize)
; 1207 : 		{	// determine new length, padding with _Ty() elements as needed
; 1208 : 		if (this->_Mysize < _Newsize)
; 1209 : 			{	// pad to make larger
; 1210 : 			size_type _Count = 0;
; 1211 : 			_TRY_BEGIN
; 1212 : 			for (; this->_Mysize < _Newsize; ++_Count)
; 1213 : 				_Insert(_Unchecked_end());
; 1214 : 			_CATCH_ALL
; 1215 : 			for (; 0 < _Count; --_Count)
; 1216 : 				pop_back();	// undo inserts
; 1217 : 			_RERAISE;
; 1218 : 			_CATCH_END
; 1219 : 			}
; 1220 : 		else
; 1221 : 			while (_Newsize < this->_Mysize)
; 1222 : 				pop_back();
; 1223 : 		}
; 1224 : 
; 1225 : 	void resize(size_type _Newsize, const _Ty& _Val)
; 1226 : 		{	// determine new length, padding with _Val elements as needed
; 1227 : 		if (this->_Mysize < _Newsize)
; 1228 : 			_Insert_n(_Unchecked_end(), _Newsize - this->_Mysize, _Val);
; 1229 : 		else
; 1230 : 			while (_Newsize < this->_Mysize)
; 1231 : 				pop_back();
; 1232 : 		}
; 1233 : 
; 1234 : 	size_type size() const _NOEXCEPT
; 1235 : 		{	// return length of sequence
; 1236 : 		return (this->_Mysize);
; 1237 : 		}
; 1238 : 
; 1239 : 	size_type max_size() const _NOEXCEPT
; 1240 : 		{	// return maximum possible length of sequence
; 1241 : 		return (this->_Getal().max_size());
; 1242 : 		}
; 1243 : 
; 1244 : 	bool empty() const _NOEXCEPT
; 1245 : 		{	// test if sequence is empty
; 1246 : 		return (this->_Mysize == 0);
; 1247 : 		}
; 1248 : 
; 1249 : 	allocator_type get_allocator() const _NOEXCEPT
; 1250 : 		{	// return allocator object for values
; 1251 : 		return (this->_Getal());
; 1252 : 		}
; 1253 : 
; 1254 : 	reference front()
; 1255 : 		{	// return first element of mutable sequence
; 1256 : 		return (*begin());
; 1257 : 		}
; 1258 : 
; 1259 : 	const_reference front() const
; 1260 : 		{	// return first element of nonmutable sequence
; 1261 : 		return (*begin());
; 1262 : 		}
; 1263 : 
; 1264 : 	reference back()
; 1265 : 		{	// return last element of mutable sequence
; 1266 : 		return (*(--end()));
; 1267 : 		}
; 1268 : 
; 1269 : 	const_reference back() const
; 1270 : 		{	// return last element of nonmutable sequence
; 1271 : 		return (*(--end()));
; 1272 : 		}
; 1273 : 
; 1274 : 	void push_front(const _Ty& _Val)
; 1275 : 		{	// insert element at beginning
; 1276 : 		_Insert(_Unchecked_begin(), _Val);
; 1277 : 		}
; 1278 : 
; 1279 : 	void pop_front()
; 1280 : 		{	// erase element at beginning
; 1281 : 		erase(begin());
; 1282 : 		}
; 1283 : 
; 1284 : 	void push_back(const _Ty& _Val)
; 1285 : 		{	// insert element at end
; 1286 : 		_Insert(_Unchecked_end(), _Val);
; 1287 : 		}
; 1288 : 
; 1289 : 	void pop_back()
; 1290 : 		{	// erase element at end
; 1291 : 		erase(--end());
; 1292 : 		}
; 1293 : 
; 1294 : 	template<class _Iter>
; 1295 : 		typename enable_if<_Is_iterator<_Iter>::value,
; 1296 : 			void>::type
; 1297 : 		assign(_Iter _First, _Iter _Last)
; 1298 : 		{	// assign [_First, _Last), input iterators
; 1299 : 		iterator _Old = begin();
; 1300 : 		_TRY_BEGIN
; 1301 : 		for (; _First != _Last && _Old != end(); ++_First, ++_Old)
; 1302 : 			_Reusenode(_Old, *_First);
; 1303 : 		for (; _First != _Last; ++_First)
; 1304 : 			_Insert(_Unchecked_end(), *_First);
; 1305 : 		_CATCH_ALL
; 1306 : 		clear();
; 1307 : 		_RERAISE;
; 1308 : 		_CATCH_END
; 1309 : 		erase(_Old, end());
; 1310 : 		}
; 1311 : 
; 1312 : 	template<class _TArg>
; 1313 : 		void _Reusenode(iterator _Where, _TArg&& _Arg)
; 1314 : 		{	// destroy the element at _Where and reconstruct from _Arg
; 1315 : 		_TRY_BEGIN
; 1316 : 		this->_Getal().destroy(
; 1317 : 			_STD addressof(this->_Myval(_Where._Ptr)));
; 1318 : 		this->_Getal().construct(
; 1319 : 			_STD addressof(this->_Myval(_Where._Ptr)),
; 1320 : 			_STD forward<_TArg>(_Arg));
; 1321 : 		_CATCH_ALL
; 1322 : 		_Unlinknode(_Where);
; 1323 : 		this->_Getal().destroy(
; 1324 : 			_STD addressof(this->_Nextnode(_Where._Ptr)));
; 1325 : 		this->_Getal().destroy(
; 1326 : 			_STD addressof(this->_Prevnode(_Where._Ptr)));
; 1327 : 		this->_Getal().deallocate(_Where._Ptr, 1);
; 1328 : 		_RERAISE;
; 1329 : 		_CATCH_END
; 1330 : 		}
; 1331 : 
; 1332 : 	void assign(size_type _Count, const _Ty& _Val)
; 1333 : 		{	// assign _Count * _Val
; 1334 : 		clear();
; 1335 : 		_Insert_n(_Unchecked_begin(), _Count, _Val);
; 1336 : 		}
; 1337 : 
; 1338 : 	iterator insert(const_iterator _Where, const _Ty& _Val)
; 1339 : 		{	// insert _Val at _Where
; 1340 :  #if _ITERATOR_DEBUG_LEVEL == 2
; 1341 : 		if (_Where._Getcont() != this)
; 1342 : 			_DEBUG_ERROR("list insert iterator outside range");
; 1343 :  #endif /* _ITERATOR_DEBUG_LEVEL == 2 */
; 1344 : 
; 1345 : 		_Insert(_Where._Unchecked(), _Val);
; 1346 : 		return (_Make_iter(--_Where));
; 1347 : 		}
; 1348 : 
; 1349 : 	iterator insert(const_iterator _Where, size_type _Count, const _Ty& _Val)
; 1350 : 		{	// insert _Count * _Val at _Where
; 1351 :  #if _ITERATOR_DEBUG_LEVEL == 2
; 1352 : 		if (_Where._Getcont() != this)
; 1353 : 			_DEBUG_ERROR("list insert iterator outside range");
; 1354 :  #endif /* _ITERATOR_DEBUG_LEVEL == 2 */
; 1355 : 
; 1356 : 		iterator _Prev = _Make_iter(_Where);
; 1357 : 		if (_Prev == begin())
; 1358 : 			{	// insert sequence at beginning
; 1359 : 			_Insert_n(_Where._Unchecked(), _Count, _Val);
; 1360 : 			return (begin());
; 1361 : 			}
; 1362 : 		else
; 1363 : 			{	// insert sequence not at beginning
; 1364 : 			--_Prev;
; 1365 : 			_Insert_n(_Where._Unchecked(), _Count, _Val);
; 1366 : 			return (++_Prev);
; 1367 : 			}
; 1368 : 		}
; 1369 : 
; 1370 : 	template<class _Iter>
; 1371 : 		typename enable_if<_Is_iterator<_Iter>::value,
; 1372 : 			iterator>::type
; 1373 : 		insert(const_iterator _Where, _Iter _First, _Iter _Last)
; 1374 : 		{	// insert [_First, _Last) at _Where
; 1375 :  #if _ITERATOR_DEBUG_LEVEL == 2
; 1376 : 		if (_Where._Getcont() != this)
; 1377 : 			_DEBUG_ERROR("list insert iterator outside range");
; 1378 :  #endif /* _ITERATOR_DEBUG_LEVEL == 2 */
; 1379 : 
; 1380 : 		iterator _Prev = _Make_iter(_Where);
; 1381 : 		if (_Prev == begin())
; 1382 : 			{	// insert sequence at beginning
; 1383 : 			_Insert_range(_Where._Unchecked(), _First, _Last,
; 1384 : 				_Iter_cat(_First));
; 1385 : 			return (begin());
; 1386 : 			}
; 1387 : 		else
; 1388 : 			{	// insert sequence not at beginning
; 1389 : 			--_Prev;
; 1390 : 			_Insert_range(_Where._Unchecked(), _First, _Last,
; 1391 : 				_Iter_cat(_First));
; 1392 : 			return (++_Prev);
; 1393 : 			}
; 1394 : 		}
; 1395 : 
; 1396 : 	template<class _Iter>
; 1397 : 		void _Insert_range(_Unchecked_const_iterator _Where,
; 1398 : 			_Iter _First, _Iter _Last, input_iterator_tag)
; 1399 : 		{	// insert [_First, _Last) at _Where, input iterators
; 1400 : 		size_type _Num = 0;
; 1401 : 
; 1402 : 		_TRY_BEGIN
; 1403 : 		for (; _First != _Last; ++_First, ++_Num)
; 1404 : 			_Insert(_Where, *_First);
; 1405 : 		_CATCH_ALL
; 1406 : 		for (; 0 < _Num; --_Num)
; 1407 : 			{	// undo inserts
; 1408 : 			_Unchecked_const_iterator _Before = _Where;
; 1409 : 			_Unchecked_erase(--_Before);
; 1410 : 			}
; 1411 : 		_RERAISE;
; 1412 : 		_CATCH_END
; 1413 : 		}
; 1414 : 
; 1415 : 	template<class _Iter>
; 1416 : 		void _Insert_range(_Unchecked_const_iterator _Where,
; 1417 : 			_Iter _First, _Iter _Last, forward_iterator_tag)
; 1418 : 		{	// insert [_First, _Last) at _Where, forward iterators
; 1419 : 		_DEBUG_RANGE(_First, _Last);
; 1420 : 		_Iter _Next = _First;
; 1421 : 
; 1422 : 		_TRY_BEGIN
; 1423 : 		for (; _First != _Last; ++_First)
; 1424 : 			_Insert(_Where, *_First);
; 1425 : 		_CATCH_ALL
; 1426 : 		for (; _Next != _First; ++_Next)
; 1427 : 			{	// undo inserts
; 1428 : 			_Unchecked_const_iterator _Before = _Where;
; 1429 : 			_Unchecked_erase(--_Before);
; 1430 : 			}
; 1431 : 		_RERAISE;
; 1432 : 		_CATCH_END
; 1433 : 		}
; 1434 : 
; 1435 : 	_Nodeptr _Unlinknode(const_iterator _Where)
; 1436 : 		{	// unlink node at _Where from the list
; 1437 :  #if _ITERATOR_DEBUG_LEVEL == 2
; 1438 : 		if (_Where._Getcont() != this || _Where._Ptr == this->_Myhead)
; 1439 : 			_DEBUG_ERROR("list erase iterator outside range");
; 1440 : 		_Nodeptr _Pnode = (_Where)._Mynode();
; 1441 : 		_Orphan_ptr(*this, _Pnode);
; 1442 : 
; 1443 :  #else /* _ITERATOR_DEBUG_LEVEL == 2 */
; 1444 : 		_Nodeptr _Pnode = (_Where)._Mynode();
; 1445 :  #endif /* _ITERATOR_DEBUG_LEVEL == 2 */
; 1446 : 
; 1447 : 		this->_Nextnode(this->_Prevnode(_Pnode)) =
; 1448 : 			this->_Nextnode(_Pnode);
; 1449 : 		this->_Prevnode(this->_Nextnode(_Pnode)) =
; 1450 : 			this->_Prevnode(_Pnode);
; 1451 : 
; 1452 : 		--this->_Mysize;
; 1453 : 		return (_Pnode);
; 1454 : 		}
; 1455 : 
; 1456 : 	iterator erase(const_iterator _Where)
; 1457 : 		{	// erase element at _Where
; 1458 : 		_Nodeptr _Pnode = _Unlinknode(_Where++);
; 1459 : 		this->_Freenode(_Pnode);
; 1460 : 		return (_Make_iter(_Where));
; 1461 : 		}
; 1462 : 
; 1463 : 	void _Unchecked_erase(_Unchecked_const_iterator _Where)
; 1464 : 		{	// erase element at _Where
; 1465 : 		_Nodeptr _Pnode = _Where._Mynode();
; 1466 : 
; 1467 : 		this->_Nextnode(this->_Prevnode(_Pnode)) =
; 1468 : 			this->_Nextnode(_Pnode);
; 1469 : 		this->_Prevnode(this->_Nextnode(_Pnode)) =
; 1470 : 			this->_Prevnode(_Pnode);
; 1471 : 		this->_Freenode(_Pnode);
; 1472 : 		--this->_Mysize;
; 1473 : 		}
; 1474 : 
; 1475 : 	iterator erase(const_iterator _First, const_iterator _Last)
; 1476 : 		{	// erase [_First, _Last)
; 1477 : 		if (_First == begin() && _Last == end())
; 1478 : 			{	// erase all and return fresh iterator
; 1479 : 			clear();
; 1480 : 			return (end());
; 1481 : 			}
; 1482 : 		else
; 1483 : 			{	// erase subrange
; 1484 : 			while (_First != _Last)
; 1485 : 				_First = erase(_First);
; 1486 : 			return (_Make_iter(_Last));
; 1487 : 			}
; 1488 : 		}
; 1489 : 
; 1490 : 	void clear() _NOEXCEPT
; 1491 : 		{	// erase all
; 1492 :  #if _ITERATOR_DEBUG_LEVEL == 2
; 1493 : 		this->_Orphan_ptr(*this, nullptr);
; 1494 :  #endif /* _ITERATOR_DEBUG_LEVEL == 2 */
; 1495 : 
; 1496 : 		_Nodeptr _Pnode = this->_Nextnode(this->_Myhead);
; 1497 : 		this->_Nextnode(this->_Myhead) = this->_Myhead;
; 1498 : 		this->_Prevnode(this->_Myhead) = this->_Myhead;
; 1499 : 		this->_Mysize = 0;
; 1500 : 
; 1501 : 		for (_Nodeptr _Pnext; _Pnode != this->_Myhead; _Pnode = _Pnext)
; 1502 : 			{	// delete an element
; 1503 : 			_Pnext = this->_Nextnode(_Pnode);
; 1504 : 			this->_Freenode(_Pnode);
; 1505 : 			}
; 1506 : 		}
; 1507 : 
; 1508 : 	void swap(_Myt& _Right)
; 1509 : 		{	// exchange contents with _Right
; 1510 : 		if (this == &_Right)
; 1511 : 			;	// same object, do nothing
; 1512 : 		else if (this->_Getal() == _Right._Getal())
; 1513 : 			{	// same allocator, swap control information
; 1514 : 			this->_Swap_all(_Right);
; 1515 : 			_Swap_adl(this->_Myhead, _Right._Myhead);
; 1516 : 			_STD swap(this->_Mysize, _Right._Mysize);
; 1517 : 			}
; 1518 : 
; 1519 : 		else if (_Alty::propagate_on_container_swap::value)
; 1520 : 			{	// swap allocators and control information
; 1521 : 			this->_Swap_alloc(_Right);
; 1522 : 			_Swap_adl(this->_Myhead, _Right._Myhead);
; 1523 : 			_STD swap(this->_Mysize, _Right._Mysize);
; 1524 : 			}
; 1525 : 
; 1526 : 		else	// containers are incompatible
; 1527 : 
; 1528 :  #if _ITERATOR_DEBUG_LEVEL == 2
; 1529 : 			_DEBUG_ERROR("list containers incompatible for swap");
; 1530 : 
; 1531 :  #else /* ITERATOR_DEBUG_LEVEL == 2 */
; 1532 : 			_XSTD terminate();
; 1533 :  #endif /* ITERATOR_DEBUG_LEVEL == 2 */
; 1534 : 		}
; 1535 : 
; 1536 : 	void splice(const_iterator _Where, _Myt& _Right)
; 1537 : 		{	// splice all of _Right at _Where
; 1538 : 		if (this != &_Right && !_Right.empty())
; 1539 : 			{	// worth splicing, do it
; 1540 : 			_Splice(_Where, _Right, _Right.begin(), _Right.end(),
; 1541 : 				_Right._Mysize);
; 1542 : 			}
; 1543 : 		}
; 1544 : 
; 1545 : 	void splice(const_iterator _Where, _Myt&& _Right)
; 1546 : 		{	// splice all of _Right at _Where
; 1547 : 		splice(_Where, (_Myt&)_Right);
; 1548 : 		}
; 1549 : 
; 1550 : 	void splice(const_iterator _Where, _Myt& _Right,
; 1551 : 		const_iterator _First)
; 1552 : 		{	// splice _Right [_First, _First + 1) at _Where
; 1553 :  #if _ITERATOR_DEBUG_LEVEL == 2
; 1554 : 		if (_First == _Right.end())
; 1555 : 			_DEBUG_ERROR("list splice iterator outside range");
; 1556 : 		else
; 1557 : 
; 1558 :  #else /* _ITERATOR_DEBUG_LEVEL == 2 */
; 1559 : 		if (_First != _Right.end())
; 1560 :  #endif /* _ITERATOR_DEBUG_LEVEL == 2 */
; 1561 : 
; 1562 : 			{	// element exists, try splice
; 1563 : 			const_iterator _Last = _First;
; 1564 : 			++_Last;
; 1565 : 			if (this != &_Right
; 1566 : 				|| (_Where != _First && _Where != _Last))
; 1567 : 				_Splice(_Where, _Right, _First, _Last, 1);
; 1568 : 			}
; 1569 : 		}
; 1570 : 
; 1571 : 	void splice(const_iterator _Where, _Myt&& _Right,
; 1572 : 		const_iterator _First)
; 1573 : 		{	// splice _Right [_First, _First + 1) at _Where
; 1574 : 		splice(_Where, (_Myt&)_Right, _First);
; 1575 : 		}
; 1576 : 
; 1577 : 	void splice(const_iterator _Where,
; 1578 : 		_Myt& _Right, const_iterator _First, const_iterator _Last)
; 1579 : 		{	// splice _Right [_First, _Last) at _Where
; 1580 : 		if (_First != _Last && (this != &_Right || _Where != _Last))
; 1581 : 			{	// worth splicing, do it
; 1582 : 			size_type _Count = 0;
; 1583 : 
; 1584 : 			if (this == &_Right)
; 1585 : 				;	// just rearrange this list
; 1586 : 			else if (_First == _Right.begin() && _Last == _Right.end())
; 1587 : 				_Count = _Right._Mysize;	// splice in whole list
; 1588 : 			else
; 1589 : 				{	// count nodes and check for knot
; 1590 : 				const_iterator _Next = _First;
; 1591 : 
; 1592 : 				for (; _Next != _Last; ++_Next, ++_Count)
; 1593 : 					if (_Next == _Right.end())
; 1594 : 						_Xlength_error("list<T> bad splice");
; 1595 : 				}
; 1596 : 			_Splice(_Where, _Right, _First, _Last, _Count);
; 1597 : 			}
; 1598 : 		}
; 1599 : 
; 1600 : 	void splice(const_iterator _Where,
; 1601 : 		_Myt&& _Right, const_iterator _First, const_iterator _Last)
; 1602 : 		{	// splice _Right [_First, _Last) at _Where
; 1603 : 		splice(_Where, (_Myt&)_Right, _First, _Last);
; 1604 : 		}
; 1605 : 
; 1606 : 	void remove(const _Ty& _Val)
; 1607 : 		{	// erase each element matching _Val
; 1608 : 		iterator _Val_it = end();
; 1609 : 
; 1610 : 		for (iterator _First = begin(); _First != end(); )
; 1611 : 			if (*_First == _Val)
; 1612 : 				if (_STD addressof(*_First) == _STD addressof(_Val))
; 1613 : 					_Val_it = _First++;
; 1614 : 				else
; 1615 : 					_First = erase(_First);
; 1616 : 			else
; 1617 : 				++_First;
; 1618 : 
; 1619 : 		if (_Val_it != end())
; 1620 : 			erase(_Val_it);
; 1621 : 		}
; 1622 : 
; 1623 : 	template<class _Pr1>
; 1624 : 		void remove_if(_Pr1 _Pred)
; 1625 : 		{	// erase each element satisfying _Pred
; 1626 : 		for (iterator _First = begin(); _First != end(); )
; 1627 : 			if (_Pred(*_First))
; 1628 : 				_First = erase(_First);
; 1629 : 			else
; 1630 : 				++_First;
; 1631 : 		}
; 1632 : 
; 1633 : 	void unique()
; 1634 : 		{	// erase each element matching previous
; 1635 : 		unique(equal_to<>());
; 1636 : 		}
; 1637 : 
; 1638 : 	template<class _Pr2>
; 1639 : 		void unique(_Pr2 _Pred)
; 1640 : 		{	// erase each element satisfying _Pred with previous
; 1641 : 		const _Nodeptr _Phead = this->_Myhead;
; 1642 : 		_Nodeptr _Pprev = this->_Nextnode(_Phead);
; 1643 : 		_Nodeptr _Pnode = this->_Nextnode(_Pprev);
; 1644 : 
; 1645 : 		while (_Pnode != _Phead)
; 1646 : 			if (_Pred(_Pprev->_Myval, _Pnode->_Myval))
; 1647 : 				{	// match, remove it
; 1648 : 				const _Nodeptr _Perase = _Pnode;
; 1649 : 				_Pnode = this->_Nextnode(_Pnode);
; 1650 : 
; 1651 : 				this->_Nextnode(_Pprev) = _Pnode;
; 1652 : 				this->_Prevnode(_Pnode) = _Pprev;
; 1653 : 				this->_Freenode(_Perase);
; 1654 : 
; 1655 : 				--this->_Mysize;
; 1656 : 				}
; 1657 : 			else
; 1658 : 				{	// no match, advance
; 1659 : 				_Pprev = _Pnode;
; 1660 : 				_Pnode = this->_Nextnode(_Pnode);
; 1661 : 				}
; 1662 : 		}
; 1663 : 
; 1664 : 	void merge(_Myt& _Right)
; 1665 : 		{	// merge in elements from _Right, both ordered by operator<
; 1666 : 		merge(_Right, less<>());
; 1667 : 		}
; 1668 : 
; 1669 : 	void merge(_Myt&& _Right)
; 1670 : 		{	// merge in elements from _Right, both ordered by operator<
; 1671 : 		merge((_Myt&)_Right);
; 1672 : 		}
; 1673 : 
; 1674 : 	template<class _Pr2>
; 1675 : 		void merge(_Myt& _Right, _Pr2 _Pred)
; 1676 : 		{	// merge in elements from _Right, both ordered by _Pred
; 1677 : 		if (&_Right != this)
; 1678 : 			{	// safe to merge, do it
; 1679 : 			iterator _First1 = begin(), _Last1 = end();
; 1680 : 			iterator _First2 = _Right.begin(), _Last2 = _Right.end();
; 1681 : 			_DEBUG_ORDER_PRED(_First1, _Last1, _Pred);
; 1682 : 			_DEBUG_ORDER_PRED(_First2, _Last2, _Pred);
; 1683 : 
; 1684 : 			while (_First1 != _Last1 && _First2 != _Last2)
; 1685 : 				if (_DEBUG_LT_PRED(_Pred, *_First2, *_First1))
; 1686 : 					{	// splice in an element from _Right
; 1687 : 					iterator _Mid2 = _First2;
; 1688 : 					_Splice(_First1, _Right, _First2, ++_Mid2, 1);
; 1689 : 					_First2 = _Mid2;
; 1690 : 					}
; 1691 : 				else
; 1692 : 					++_First1;
; 1693 : 
; 1694 : 			if (_First2 != _Last2)
; 1695 : 				_Splice(_Last1, _Right, _First2, _Last2,
; 1696 : 					_Right._Mysize);	// splice remainder of _Right
; 1697 : 			}
; 1698 : 		}
; 1699 : 
; 1700 : 	template<class _Pr2>
; 1701 : 		void merge(_Myt&& _Right, _Pr2 _Pred)
; 1702 : 		{	// merge in elements from _Right, both ordered by _Pred
; 1703 : 		merge((_Myt&)_Right, _Pred);
; 1704 : 		}
; 1705 : 
; 1706 : 	void sort()
; 1707 : 		{	// order sequence, using operator<
; 1708 : 		sort(less<>());
; 1709 : 		}
; 1710 : 
; 1711 : 	template<class _Pr2>
; 1712 : 		void sort(_Pr2 _Pred)
; 1713 : 		{	// order sequence, using _Pred
; 1714 : 		if (2 <= this->_Mysize)
; 1715 : 			{	// worth sorting, do it
; 1716 : 			const size_t _MAXBINS = 25;
; 1717 : 			_Myt _Templist(this->_Getal()), _Binlist[_MAXBINS + 1];
; 1718 : 			size_t _Maxbin = 0;
; 1719 : 
; 1720 : 			while (!empty())
; 1721 : 				{	// sort another element, using bins
; 1722 : 				_Templist._Splice_same(_Templist.begin(), *this, begin(),
; 1723 : 					++begin(), 1);
; 1724 : 
; 1725 : 				size_t _Bin;
; 1726 : 				for (_Bin = 0; _Bin < _Maxbin && !_Binlist[_Bin].empty();
; 1727 : 					++_Bin)
; 1728 : 					{	// merge into ever larger bins
; 1729 : 					_Binlist[_Bin].merge(_Templist, _Pred);
; 1730 : 					_Binlist[_Bin].swap(_Templist);
; 1731 : 					}
; 1732 : 
; 1733 : 				if (_Bin == _MAXBINS)
; 1734 : 					_Binlist[_Bin - 1].merge(_Templist, _Pred);
; 1735 : 				else
; 1736 : 					{	// spill to new bin, while they last
; 1737 : 					_Binlist[_Bin].swap(_Templist);
; 1738 : 					if (_Bin == _Maxbin)
; 1739 : 						++_Maxbin;
; 1740 : 					}
; 1741 : 				}
; 1742 : 
; 1743 : 			for (size_t _Bin = 1; _Bin < _Maxbin; ++_Bin)
; 1744 : 				_Binlist[_Bin].merge(_Binlist[_Bin - 1],
; 1745 : 					_Pred);	// merge up
; 1746 : 
; 1747 : 			_Analysis_assume_(0 < _Maxbin);
; 1748 : 
; 1749 : 			splice(begin(), _Binlist[_Maxbin - 1]);	// result in last bin
; 1750 : 			}
; 1751 : 		}
; 1752 : 
; 1753 : 	void reverse() _NOEXCEPT
; 1754 : 		{	// reverse sequence
; 1755 : 		const _Nodeptr _Phead = this->_Myhead;
; 1756 : 		_Nodeptr _Pnode = _Phead;
; 1757 : 
; 1758 : 		for (; ; )
; 1759 : 			{	// flip pointers in a node
; 1760 : 			const _Nodeptr _Pnext = this->_Nextnode(_Pnode);
; 1761 : 			this->_Nextnode(_Pnode) = this->_Prevnode(_Pnode);
; 1762 : 			this->_Prevnode(_Pnode) = _Pnext;
; 1763 : 
; 1764 : 			if (_Pnext == _Phead)
; 1765 : 				break;
; 1766 : 			_Pnode = _Pnext;
; 1767 : 			}
; 1768 : 		}
; 1769 : 
; 1770 : 	void _Splice(const_iterator _Where,
; 1771 : 		_Myt& _Right, const_iterator _First, const_iterator _Last,
; 1772 : 		size_type _Count)
; 1773 : 		{	// splice _Right [_First, _Last) before _Where
; 1774 :  #if _ITERATOR_DEBUG_LEVEL == 2
; 1775 : 		if (_Where._Getcont() != this)
; 1776 : 			_DEBUG_ERROR("list splice iterator outside range");
; 1777 : 		if (this->_Getal() != _Right._Getal())
; 1778 : 			_DEBUG_ERROR("list containers incompatible for splice");
; 1779 : 
; 1780 : 		if (this != &_Right)
; 1781 : 			{	// transfer ownership
; 1782 : 			_Lockit _Lock(_LOCK_DEBUG);
; 1783 : 
; 1784 : 			const bool _One = _Count == 1;
; 1785 : 			const bool _All = _Count == _Right.size();
; 1786 : 			const bool _Some = !_One && !_All;
; 1787 : 
; 1788 : 			_Nodeptr _Oldprev = _First._Ptr->_Prev;
; 1789 : 
; 1790 : 			if (_Some)
; 1791 : 				for (_Nodeptr _Ptr = _First._Ptr; _Ptr != _Last._Ptr;
; 1792 : 					_Ptr = _Ptr->_Next)
; 1793 : 					{	// mark _Prev pointers
; 1794 : 					_Ptr->_Prev = 0;
; 1795 : 					}
; 1796 : 
; 1797 : 			const_iterator **_Pnext = (const_iterator **)_Right._Getpfirst();
; 1798 : 
; 1799 : 			if (_Pnext == 0)
; 1800 : 				_DEBUG_ERROR("list container corrupted");
; 1801 : 
; 1802 : 			while (*_Pnext != 0)
; 1803 : 				{	// check the iterator
; 1804 : 				const_iterator& _Iter = **_Pnext;
; 1805 : 
; 1806 : 				if ((_One && _Iter._Ptr == _First._Ptr)
; 1807 : 					|| (_All && _Iter._Ptr != _Right._Myhead)
; 1808 : 					|| (_Some && _Iter._Ptr->_Prev == 0))
; 1809 : 					{	// adopt the iterator
; 1810 : 					*_Pnext = (const_iterator *)_Iter._Mynextiter;
; 1811 : 					_Iter._Myproxy = this->_Myproxy;
; 1812 : 					_Iter._Mynextiter = this->_Myproxy->_Myfirstiter;
; 1813 : 					this->_Myproxy->_Myfirstiter = &_Iter;
; 1814 : 					}
; 1815 : 				else
; 1816 : 					{	// skip the iterator
; 1817 : 					_Pnext = (const_iterator **)_Iter._Getpnext();
; 1818 : 					}
; 1819 : 				}
; 1820 : 
; 1821 : 			if (_Some)
; 1822 : 				for (_Nodeptr _Ptr = _First._Ptr; _Ptr != _Last._Ptr;
; 1823 : 					_Ptr = _Ptr->_Next)
; 1824 : 					{	// restore _Prev pointers
; 1825 : 					_Ptr->_Prev = _Oldprev;
; 1826 : 					_Oldprev = _Ptr;
; 1827 : 					}
; 1828 : 			}
; 1829 : 
; 1830 :  #else /* _ITERATOR_DEBUG_LEVEL == 2 */
; 1831 : 		if (this->_Getal() != _Right._Getal())
; 1832 : 			_XSTD terminate();
; 1833 :  #endif /* _ITERATOR_DEBUG_LEVEL == 2 */
; 1834 : 
; 1835 : 		_Splice_same(_Where, _Right, _First, _Last, _Count);
; 1836 : 		}
; 1837 : 
; 1838 : 	void _Splice_same(const_iterator _Where,
; 1839 : 		_Myt& _Right, const_iterator _First, const_iterator _Last,
; 1840 : 		size_type _Count)
; 1841 : 		{	// splice _Right [_First, _Last) before _Where
; 1842 : 		if (this != &_Right)
; 1843 : 			{	// splicing from another list, adjust counts
; 1844 : 			_Incsize(_Count);
; 1845 : 			_Right._Mysize -= _Count;
; 1846 : 			}
; 1847 : 		this->_Nextnode(this->_Prevnode(_First._Mynode())) =
; 1848 : 			_Last._Mynode();
; 1849 : 		this->_Nextnode(this->_Prevnode(_Last._Mynode())) =
; 1850 : 			_Where._Mynode();
; 1851 : 		this->_Nextnode(this->_Prevnode(_Where._Mynode())) =
; 1852 : 			_First._Mynode();
; 1853 : 
; 1854 : 		_Nodeptr _Pnode = this->_Prevnode(_Where._Mynode());
; 1855 : 		this->_Prevnode(_Where._Mynode()) =
; 1856 : 			this->_Prevnode(_Last._Mynode());
; 1857 : 		this->_Prevnode(_Last._Mynode()) =
; 1858 : 			this->_Prevnode(_First._Mynode());
; 1859 : 		this->_Prevnode(_First._Mynode()) = _Pnode;
; 1860 : 		}
; 1861 : 
; 1862 : 	void _Unchecked_splice(_Unchecked_const_iterator _Where,
; 1863 : 		_Unchecked_const_iterator _First,
; 1864 : 		_Unchecked_const_iterator _Last)
; 1865 : 		{	// splice [_First, _Last) before _Where
; 1866 : 		this->_Nextnode(this->_Prevnode(_First._Mynode())) =
; 1867 : 			_Last._Mynode();
; 1868 : 		this->_Nextnode(this->_Prevnode(_Last._Mynode())) =
; 1869 : 			_Where._Mynode();
; 1870 : 		this->_Nextnode(this->_Prevnode(_Where._Mynode())) =
; 1871 : 			_First._Mynode();
; 1872 : 
; 1873 : 		_Nodeptr _Pnode = this->_Prevnode(_Where._Mynode());
; 1874 : 		this->_Prevnode(_Where._Mynode()) =
; 1875 : 			this->_Prevnode(_Last._Mynode());
; 1876 : 		this->_Prevnode(_Last._Mynode()) =
; 1877 : 			this->_Prevnode(_First._Mynode());
; 1878 : 		this->_Prevnode(_First._Mynode()) = _Pnode;
; 1879 : 		}
; 1880 : 
; 1881 : 	void _Tidy()
; 1882 : 		{	// free all storage
; 1883 : 		clear();
; 1884 : 		}
; 1885 : 
; 1886 : 	void _Insert_n(_Unchecked_const_iterator _Where,
; 1887 : 		size_type _Count, const _Ty& _Val)
; 1888 : 		{	// insert _Count * _Val at _Where
; 1889 : 		size_type _Countsave = _Count;
; 1890 : 
; 1891 : 		_TRY_BEGIN
; 1892 : 		for (; 0 < _Count; --_Count)
; 1893 : 			_Insert(_Where, _Val);
; 1894 : 		_CATCH_ALL
; 1895 : 		for (; _Count < _Countsave; ++_Count)
; 1896 : 			{	// undo inserts
; 1897 : 			_Unchecked_const_iterator _Before = _Where;
; 1898 : 			_Unchecked_erase(--_Before);
; 1899 : 			}
; 1900 : 		_RERAISE;
; 1901 : 		_CATCH_END
; 1902 : 		}
; 1903 : 
; 1904 : 	void _Incsize(size_type _Count)
; 1905 : 		{	// alter element count, with checking
; 1906 : 		if (max_size() - this->_Mysize - 1 < _Count)

	mov	rdx, 576460752303423486			; 07fffffffffffffeH

; 1057 : 		_Valty&&... _Val)
; 1058 : 		{	// insert element at _Where
; 1059 : 		_Nodeptr _Pnode = _Where._Mynode();
; 1060 : 		_Nodeptr _Newnode =
; 1061 : 			this->_Buynode(_Pnode, this->_Prevnode(_Pnode),
; 1062 : 				_STD forward<_Valty>(_Val)...);

	mov	r8, rax

; 1067 : 
; 1068 : 
; 1069 : 	list(_XSTD initializer_list<_Ty> _Ilist,
; 1070 : 		const _Alloc& _Al = allocator_type())
; 1071 : 		: _Mybase(_Al)
; 1072 : 		{	// construct from initializer_list
; 1073 : 		insert(begin(), _Ilist.begin(), _Ilist.end());
; 1074 : 		}
; 1075 : 
; 1076 : 	_Myt& operator=(_XSTD initializer_list<_Ty> _Ilist)
; 1077 : 		{	// assign initializer_list
; 1078 : 		assign(_Ilist.begin(), _Ilist.end());
; 1079 : 		return (*this);
; 1080 : 		}
; 1081 : 
; 1082 : 	void assign(_XSTD initializer_list<_Ty> _Ilist)
; 1083 : 		{	// assign initializer_list
; 1084 : 		assign(_Ilist.begin(), _Ilist.end());
; 1085 : 		}
; 1086 : 
; 1087 : 	iterator insert(const_iterator _Where,
; 1088 : 		_XSTD initializer_list<_Ty> _Ilist)
; 1089 : 		{	// insert initializer_list
; 1090 : 		return (insert(_Where, _Ilist.begin(), _Ilist.end()));
; 1091 : 		}
; 1092 : 
; 1093 : 	~list() _NOEXCEPT
; 1094 : 		{	// destroy the object
; 1095 : 		_Tidy();
; 1096 : 		}
; 1097 : 
; 1098 : 	_Myt& operator=(const _Myt& _Right)
; 1099 : 		{	// assign _Right
; 1100 : 		if (this != &_Right)
; 1101 : 			{	// different, assign it
; 1102 : 			if (this->_Getal() != _Right._Getal()
; 1103 : 				&& _Alty::propagate_on_container_copy_assignment::value)
; 1104 : 				{	// change allocator before copying
; 1105 : 				clear();
; 1106 : 				this->_Change_alloc(_Right._Getal());
; 1107 : 				}
; 1108 : 
; 1109 : 			assign(_Right.begin(), _Right.end());
; 1110 : 			}
; 1111 : 		return (*this);
; 1112 : 		}
; 1113 : 
; 1114 : 	iterator begin() _NOEXCEPT
; 1115 : 		{	// return iterator for beginning of mutable sequence
; 1116 : 		return (iterator(this->_Nextnode(this->_Myhead), this));
; 1117 : 		}
; 1118 : 
; 1119 : 	const_iterator begin() const _NOEXCEPT
; 1120 : 		{	// return iterator for beginning of nonmutable sequence
; 1121 : 		return (const_iterator(this->_Nextnode(this->_Myhead), this));
; 1122 : 		}
; 1123 : 
; 1124 : 	iterator end() _NOEXCEPT
; 1125 : 		{	// return iterator for end of mutable sequence
; 1126 : 		return (iterator(this->_Myhead, this));
; 1127 : 		}
; 1128 : 
; 1129 : 	const_iterator end() const _NOEXCEPT
; 1130 : 		{	// return iterator for end of nonmutable sequence
; 1131 : 		return (const_iterator(this->_Myhead, this));
; 1132 : 		}
; 1133 : 
; 1134 : 	_Unchecked_iterator _Unchecked_begin()
; 1135 : 		{	// return iterator for beginning of mutable sequence
; 1136 : 		return (_Unchecked_iterator(this->_Nextnode(this->_Myhead),
; 1137 : 			this));
; 1138 : 		}
; 1139 : 
; 1140 : 	_Unchecked_const_iterator _Unchecked_begin() const
; 1141 : 		{	// return iterator for beginning of nonmutable sequence
; 1142 : 		return (_Unchecked_const_iterator(this->_Nextnode(this->_Myhead),
; 1143 : 			this));
; 1144 : 		}
; 1145 : 
; 1146 : 	_Unchecked_iterator _Unchecked_end()
; 1147 : 		{	// return unchecked iterator for end of mutable sequence
; 1148 : 		return (_Unchecked_iterator(this->_Myhead, this));
; 1149 : 		}
; 1150 : 
; 1151 : 	_Unchecked_const_iterator _Unchecked_end() const
; 1152 : 		{	// return unchecked iterator for end of nonmutable sequence
; 1153 : 		return (_Unchecked_const_iterator(this->_Myhead, this));
; 1154 : 		}
; 1155 : 
; 1156 : 	iterator _Make_iter(const_iterator _Where) const _NOEXCEPT
; 1157 : 		{	// make iterator from const_iterator
; 1158 : 		return (iterator(_Where._Ptr, this));
; 1159 : 		}
; 1160 : 
; 1161 : 	iterator _Make_iter(_Unchecked_const_iterator _Where) const
; 1162 : 		{	// make iterator from _Unchecked_const_iterator
; 1163 : 		return (iterator(_Where._Ptr, this));
; 1164 : 		}
; 1165 : 
; 1166 : 	reverse_iterator rbegin() _NOEXCEPT
; 1167 : 		{	// return iterator for beginning of reversed mutable sequence
; 1168 : 		return (reverse_iterator(end()));
; 1169 : 		}
; 1170 : 
; 1171 : 	const_reverse_iterator rbegin() const _NOEXCEPT
; 1172 : 		{	// return iterator for beginning of reversed nonmutable sequence
; 1173 : 		return (const_reverse_iterator(end()));
; 1174 : 		}
; 1175 : 
; 1176 : 	reverse_iterator rend() _NOEXCEPT
; 1177 : 		{	// return iterator for end of reversed mutable sequence
; 1178 : 		return (reverse_iterator(begin()));
; 1179 : 		}
; 1180 : 
; 1181 : 	const_reverse_iterator rend() const _NOEXCEPT
; 1182 : 		{	// return iterator for end of reversed nonmutable sequence
; 1183 : 		return (const_reverse_iterator(begin()));
; 1184 : 		}
; 1185 : 
; 1186 : 	const_iterator cbegin() const _NOEXCEPT
; 1187 : 		{	// return iterator for beginning of nonmutable sequence
; 1188 : 		return (((const _Myt *)this)->begin());
; 1189 : 		}
; 1190 : 
; 1191 : 	const_iterator cend() const _NOEXCEPT
; 1192 : 		{	// return iterator for end of nonmutable sequence
; 1193 : 		return (((const _Myt *)this)->end());
; 1194 : 		}
; 1195 : 
; 1196 : 	const_reverse_iterator crbegin() const _NOEXCEPT
; 1197 : 		{	// return iterator for beginning of reversed nonmutable sequence
; 1198 : 		return (((const _Myt *)this)->rbegin());
; 1199 : 		}
; 1200 : 
; 1201 : 	const_reverse_iterator crend() const _NOEXCEPT
; 1202 : 		{	// return iterator for end of reversed nonmutable sequence
; 1203 : 		return (((const _Myt *)this)->rend());
; 1204 : 		}
; 1205 : 
; 1206 : 	void resize(size_type _Newsize)
; 1207 : 		{	// determine new length, padding with _Ty() elements as needed
; 1208 : 		if (this->_Mysize < _Newsize)
; 1209 : 			{	// pad to make larger
; 1210 : 			size_type _Count = 0;
; 1211 : 			_TRY_BEGIN
; 1212 : 			for (; this->_Mysize < _Newsize; ++_Count)
; 1213 : 				_Insert(_Unchecked_end());
; 1214 : 			_CATCH_ALL
; 1215 : 			for (; 0 < _Count; --_Count)
; 1216 : 				pop_back();	// undo inserts
; 1217 : 			_RERAISE;
; 1218 : 			_CATCH_END
; 1219 : 			}
; 1220 : 		else
; 1221 : 			while (_Newsize < this->_Mysize)
; 1222 : 				pop_back();
; 1223 : 		}
; 1224 : 
; 1225 : 	void resize(size_type _Newsize, const _Ty& _Val)
; 1226 : 		{	// determine new length, padding with _Val elements as needed
; 1227 : 		if (this->_Mysize < _Newsize)
; 1228 : 			_Insert_n(_Unchecked_end(), _Newsize - this->_Mysize, _Val);
; 1229 : 		else
; 1230 : 			while (_Newsize < this->_Mysize)
; 1231 : 				pop_back();
; 1232 : 		}
; 1233 : 
; 1234 : 	size_type size() const _NOEXCEPT
; 1235 : 		{	// return length of sequence
; 1236 : 		return (this->_Mysize);
; 1237 : 		}
; 1238 : 
; 1239 : 	size_type max_size() const _NOEXCEPT
; 1240 : 		{	// return maximum possible length of sequence
; 1241 : 		return (this->_Getal().max_size());
; 1242 : 		}
; 1243 : 
; 1244 : 	bool empty() const _NOEXCEPT
; 1245 : 		{	// test if sequence is empty
; 1246 : 		return (this->_Mysize == 0);
; 1247 : 		}
; 1248 : 
; 1249 : 	allocator_type get_allocator() const _NOEXCEPT
; 1250 : 		{	// return allocator object for values
; 1251 : 		return (this->_Getal());
; 1252 : 		}
; 1253 : 
; 1254 : 	reference front()
; 1255 : 		{	// return first element of mutable sequence
; 1256 : 		return (*begin());
; 1257 : 		}
; 1258 : 
; 1259 : 	const_reference front() const
; 1260 : 		{	// return first element of nonmutable sequence
; 1261 : 		return (*begin());
; 1262 : 		}
; 1263 : 
; 1264 : 	reference back()
; 1265 : 		{	// return last element of mutable sequence
; 1266 : 		return (*(--end()));
; 1267 : 		}
; 1268 : 
; 1269 : 	const_reference back() const
; 1270 : 		{	// return last element of nonmutable sequence
; 1271 : 		return (*(--end()));
; 1272 : 		}
; 1273 : 
; 1274 : 	void push_front(const _Ty& _Val)
; 1275 : 		{	// insert element at beginning
; 1276 : 		_Insert(_Unchecked_begin(), _Val);
; 1277 : 		}
; 1278 : 
; 1279 : 	void pop_front()
; 1280 : 		{	// erase element at beginning
; 1281 : 		erase(begin());
; 1282 : 		}
; 1283 : 
; 1284 : 	void push_back(const _Ty& _Val)
; 1285 : 		{	// insert element at end
; 1286 : 		_Insert(_Unchecked_end(), _Val);
; 1287 : 		}
; 1288 : 
; 1289 : 	void pop_back()
; 1290 : 		{	// erase element at end
; 1291 : 		erase(--end());
; 1292 : 		}
; 1293 : 
; 1294 : 	template<class _Iter>
; 1295 : 		typename enable_if<_Is_iterator<_Iter>::value,
; 1296 : 			void>::type
; 1297 : 		assign(_Iter _First, _Iter _Last)
; 1298 : 		{	// assign [_First, _Last), input iterators
; 1299 : 		iterator _Old = begin();
; 1300 : 		_TRY_BEGIN
; 1301 : 		for (; _First != _Last && _Old != end(); ++_First, ++_Old)
; 1302 : 			_Reusenode(_Old, *_First);
; 1303 : 		for (; _First != _Last; ++_First)
; 1304 : 			_Insert(_Unchecked_end(), *_First);
; 1305 : 		_CATCH_ALL
; 1306 : 		clear();
; 1307 : 		_RERAISE;
; 1308 : 		_CATCH_END
; 1309 : 		erase(_Old, end());
; 1310 : 		}
; 1311 : 
; 1312 : 	template<class _TArg>
; 1313 : 		void _Reusenode(iterator _Where, _TArg&& _Arg)
; 1314 : 		{	// destroy the element at _Where and reconstruct from _Arg
; 1315 : 		_TRY_BEGIN
; 1316 : 		this->_Getal().destroy(
; 1317 : 			_STD addressof(this->_Myval(_Where._Ptr)));
; 1318 : 		this->_Getal().construct(
; 1319 : 			_STD addressof(this->_Myval(_Where._Ptr)),
; 1320 : 			_STD forward<_TArg>(_Arg));
; 1321 : 		_CATCH_ALL
; 1322 : 		_Unlinknode(_Where);
; 1323 : 		this->_Getal().destroy(
; 1324 : 			_STD addressof(this->_Nextnode(_Where._Ptr)));
; 1325 : 		this->_Getal().destroy(
; 1326 : 			_STD addressof(this->_Prevnode(_Where._Ptr)));
; 1327 : 		this->_Getal().deallocate(_Where._Ptr, 1);
; 1328 : 		_RERAISE;
; 1329 : 		_CATCH_END
; 1330 : 		}
; 1331 : 
; 1332 : 	void assign(size_type _Count, const _Ty& _Val)
; 1333 : 		{	// assign _Count * _Val
; 1334 : 		clear();
; 1335 : 		_Insert_n(_Unchecked_begin(), _Count, _Val);
; 1336 : 		}
; 1337 : 
; 1338 : 	iterator insert(const_iterator _Where, const _Ty& _Val)
; 1339 : 		{	// insert _Val at _Where
; 1340 :  #if _ITERATOR_DEBUG_LEVEL == 2
; 1341 : 		if (_Where._Getcont() != this)
; 1342 : 			_DEBUG_ERROR("list insert iterator outside range");
; 1343 :  #endif /* _ITERATOR_DEBUG_LEVEL == 2 */
; 1344 : 
; 1345 : 		_Insert(_Where._Unchecked(), _Val);
; 1346 : 		return (_Make_iter(--_Where));
; 1347 : 		}
; 1348 : 
; 1349 : 	iterator insert(const_iterator _Where, size_type _Count, const _Ty& _Val)
; 1350 : 		{	// insert _Count * _Val at _Where
; 1351 :  #if _ITERATOR_DEBUG_LEVEL == 2
; 1352 : 		if (_Where._Getcont() != this)
; 1353 : 			_DEBUG_ERROR("list insert iterator outside range");
; 1354 :  #endif /* _ITERATOR_DEBUG_LEVEL == 2 */
; 1355 : 
; 1356 : 		iterator _Prev = _Make_iter(_Where);
; 1357 : 		if (_Prev == begin())
; 1358 : 			{	// insert sequence at beginning
; 1359 : 			_Insert_n(_Where._Unchecked(), _Count, _Val);
; 1360 : 			return (begin());
; 1361 : 			}
; 1362 : 		else
; 1363 : 			{	// insert sequence not at beginning
; 1364 : 			--_Prev;
; 1365 : 			_Insert_n(_Where._Unchecked(), _Count, _Val);
; 1366 : 			return (++_Prev);
; 1367 : 			}
; 1368 : 		}
; 1369 : 
; 1370 : 	template<class _Iter>
; 1371 : 		typename enable_if<_Is_iterator<_Iter>::value,
; 1372 : 			iterator>::type
; 1373 : 		insert(const_iterator _Where, _Iter _First, _Iter _Last)
; 1374 : 		{	// insert [_First, _Last) at _Where
; 1375 :  #if _ITERATOR_DEBUG_LEVEL == 2
; 1376 : 		if (_Where._Getcont() != this)
; 1377 : 			_DEBUG_ERROR("list insert iterator outside range");
; 1378 :  #endif /* _ITERATOR_DEBUG_LEVEL == 2 */
; 1379 : 
; 1380 : 		iterator _Prev = _Make_iter(_Where);
; 1381 : 		if (_Prev == begin())
; 1382 : 			{	// insert sequence at beginning
; 1383 : 			_Insert_range(_Where._Unchecked(), _First, _Last,
; 1384 : 				_Iter_cat(_First));
; 1385 : 			return (begin());
; 1386 : 			}
; 1387 : 		else
; 1388 : 			{	// insert sequence not at beginning
; 1389 : 			--_Prev;
; 1390 : 			_Insert_range(_Where._Unchecked(), _First, _Last,
; 1391 : 				_Iter_cat(_First));
; 1392 : 			return (++_Prev);
; 1393 : 			}
; 1394 : 		}
; 1395 : 
; 1396 : 	template<class _Iter>
; 1397 : 		void _Insert_range(_Unchecked_const_iterator _Where,
; 1398 : 			_Iter _First, _Iter _Last, input_iterator_tag)
; 1399 : 		{	// insert [_First, _Last) at _Where, input iterators
; 1400 : 		size_type _Num = 0;
; 1401 : 
; 1402 : 		_TRY_BEGIN
; 1403 : 		for (; _First != _Last; ++_First, ++_Num)
; 1404 : 			_Insert(_Where, *_First);
; 1405 : 		_CATCH_ALL
; 1406 : 		for (; 0 < _Num; --_Num)
; 1407 : 			{	// undo inserts
; 1408 : 			_Unchecked_const_iterator _Before = _Where;
; 1409 : 			_Unchecked_erase(--_Before);
; 1410 : 			}
; 1411 : 		_RERAISE;
; 1412 : 		_CATCH_END
; 1413 : 		}
; 1414 : 
; 1415 : 	template<class _Iter>
; 1416 : 		void _Insert_range(_Unchecked_const_iterator _Where,
; 1417 : 			_Iter _First, _Iter _Last, forward_iterator_tag)
; 1418 : 		{	// insert [_First, _Last) at _Where, forward iterators
; 1419 : 		_DEBUG_RANGE(_First, _Last);
; 1420 : 		_Iter _Next = _First;
; 1421 : 
; 1422 : 		_TRY_BEGIN
; 1423 : 		for (; _First != _Last; ++_First)
; 1424 : 			_Insert(_Where, *_First);
; 1425 : 		_CATCH_ALL
; 1426 : 		for (; _Next != _First; ++_Next)
; 1427 : 			{	// undo inserts
; 1428 : 			_Unchecked_const_iterator _Before = _Where;
; 1429 : 			_Unchecked_erase(--_Before);
; 1430 : 			}
; 1431 : 		_RERAISE;
; 1432 : 		_CATCH_END
; 1433 : 		}
; 1434 : 
; 1435 : 	_Nodeptr _Unlinknode(const_iterator _Where)
; 1436 : 		{	// unlink node at _Where from the list
; 1437 :  #if _ITERATOR_DEBUG_LEVEL == 2
; 1438 : 		if (_Where._Getcont() != this || _Where._Ptr == this->_Myhead)
; 1439 : 			_DEBUG_ERROR("list erase iterator outside range");
; 1440 : 		_Nodeptr _Pnode = (_Where)._Mynode();
; 1441 : 		_Orphan_ptr(*this, _Pnode);
; 1442 : 
; 1443 :  #else /* _ITERATOR_DEBUG_LEVEL == 2 */
; 1444 : 		_Nodeptr _Pnode = (_Where)._Mynode();
; 1445 :  #endif /* _ITERATOR_DEBUG_LEVEL == 2 */
; 1446 : 
; 1447 : 		this->_Nextnode(this->_Prevnode(_Pnode)) =
; 1448 : 			this->_Nextnode(_Pnode);
; 1449 : 		this->_Prevnode(this->_Nextnode(_Pnode)) =
; 1450 : 			this->_Prevnode(_Pnode);
; 1451 : 
; 1452 : 		--this->_Mysize;
; 1453 : 		return (_Pnode);
; 1454 : 		}
; 1455 : 
; 1456 : 	iterator erase(const_iterator _Where)
; 1457 : 		{	// erase element at _Where
; 1458 : 		_Nodeptr _Pnode = _Unlinknode(_Where++);
; 1459 : 		this->_Freenode(_Pnode);
; 1460 : 		return (_Make_iter(_Where));
; 1461 : 		}
; 1462 : 
; 1463 : 	void _Unchecked_erase(_Unchecked_const_iterator _Where)
; 1464 : 		{	// erase element at _Where
; 1465 : 		_Nodeptr _Pnode = _Where._Mynode();
; 1466 : 
; 1467 : 		this->_Nextnode(this->_Prevnode(_Pnode)) =
; 1468 : 			this->_Nextnode(_Pnode);
; 1469 : 		this->_Prevnode(this->_Nextnode(_Pnode)) =
; 1470 : 			this->_Prevnode(_Pnode);
; 1471 : 		this->_Freenode(_Pnode);
; 1472 : 		--this->_Mysize;
; 1473 : 		}
; 1474 : 
; 1475 : 	iterator erase(const_iterator _First, const_iterator _Last)
; 1476 : 		{	// erase [_First, _Last)
; 1477 : 		if (_First == begin() && _Last == end())
; 1478 : 			{	// erase all and return fresh iterator
; 1479 : 			clear();
; 1480 : 			return (end());
; 1481 : 			}
; 1482 : 		else
; 1483 : 			{	// erase subrange
; 1484 : 			while (_First != _Last)
; 1485 : 				_First = erase(_First);
; 1486 : 			return (_Make_iter(_Last));
; 1487 : 			}
; 1488 : 		}
; 1489 : 
; 1490 : 	void clear() _NOEXCEPT
; 1491 : 		{	// erase all
; 1492 :  #if _ITERATOR_DEBUG_LEVEL == 2
; 1493 : 		this->_Orphan_ptr(*this, nullptr);
; 1494 :  #endif /* _ITERATOR_DEBUG_LEVEL == 2 */
; 1495 : 
; 1496 : 		_Nodeptr _Pnode = this->_Nextnode(this->_Myhead);
; 1497 : 		this->_Nextnode(this->_Myhead) = this->_Myhead;
; 1498 : 		this->_Prevnode(this->_Myhead) = this->_Myhead;
; 1499 : 		this->_Mysize = 0;
; 1500 : 
; 1501 : 		for (_Nodeptr _Pnext; _Pnode != this->_Myhead; _Pnode = _Pnext)
; 1502 : 			{	// delete an element
; 1503 : 			_Pnext = this->_Nextnode(_Pnode);
; 1504 : 			this->_Freenode(_Pnode);
; 1505 : 			}
; 1506 : 		}
; 1507 : 
; 1508 : 	void swap(_Myt& _Right)
; 1509 : 		{	// exchange contents with _Right
; 1510 : 		if (this == &_Right)
; 1511 : 			;	// same object, do nothing
; 1512 : 		else if (this->_Getal() == _Right._Getal())
; 1513 : 			{	// same allocator, swap control information
; 1514 : 			this->_Swap_all(_Right);
; 1515 : 			_Swap_adl(this->_Myhead, _Right._Myhead);
; 1516 : 			_STD swap(this->_Mysize, _Right._Mysize);
; 1517 : 			}
; 1518 : 
; 1519 : 		else if (_Alty::propagate_on_container_swap::value)
; 1520 : 			{	// swap allocators and control information
; 1521 : 			this->_Swap_alloc(_Right);
; 1522 : 			_Swap_adl(this->_Myhead, _Right._Myhead);
; 1523 : 			_STD swap(this->_Mysize, _Right._Mysize);
; 1524 : 			}
; 1525 : 
; 1526 : 		else	// containers are incompatible
; 1527 : 
; 1528 :  #if _ITERATOR_DEBUG_LEVEL == 2
; 1529 : 			_DEBUG_ERROR("list containers incompatible for swap");
; 1530 : 
; 1531 :  #else /* ITERATOR_DEBUG_LEVEL == 2 */
; 1532 : 			_XSTD terminate();
; 1533 :  #endif /* ITERATOR_DEBUG_LEVEL == 2 */
; 1534 : 		}
; 1535 : 
; 1536 : 	void splice(const_iterator _Where, _Myt& _Right)
; 1537 : 		{	// splice all of _Right at _Where
; 1538 : 		if (this != &_Right && !_Right.empty())
; 1539 : 			{	// worth splicing, do it
; 1540 : 			_Splice(_Where, _Right, _Right.begin(), _Right.end(),
; 1541 : 				_Right._Mysize);
; 1542 : 			}
; 1543 : 		}
; 1544 : 
; 1545 : 	void splice(const_iterator _Where, _Myt&& _Right)
; 1546 : 		{	// splice all of _Right at _Where
; 1547 : 		splice(_Where, (_Myt&)_Right);
; 1548 : 		}
; 1549 : 
; 1550 : 	void splice(const_iterator _Where, _Myt& _Right,
; 1551 : 		const_iterator _First)
; 1552 : 		{	// splice _Right [_First, _First + 1) at _Where
; 1553 :  #if _ITERATOR_DEBUG_LEVEL == 2
; 1554 : 		if (_First == _Right.end())
; 1555 : 			_DEBUG_ERROR("list splice iterator outside range");
; 1556 : 		else
; 1557 : 
; 1558 :  #else /* _ITERATOR_DEBUG_LEVEL == 2 */
; 1559 : 		if (_First != _Right.end())
; 1560 :  #endif /* _ITERATOR_DEBUG_LEVEL == 2 */
; 1561 : 
; 1562 : 			{	// element exists, try splice
; 1563 : 			const_iterator _Last = _First;
; 1564 : 			++_Last;
; 1565 : 			if (this != &_Right
; 1566 : 				|| (_Where != _First && _Where != _Last))
; 1567 : 				_Splice(_Where, _Right, _First, _Last, 1);
; 1568 : 			}
; 1569 : 		}
; 1570 : 
; 1571 : 	void splice(const_iterator _Where, _Myt&& _Right,
; 1572 : 		const_iterator _First)
; 1573 : 		{	// splice _Right [_First, _First + 1) at _Where
; 1574 : 		splice(_Where, (_Myt&)_Right, _First);
; 1575 : 		}
; 1576 : 
; 1577 : 	void splice(const_iterator _Where,
; 1578 : 		_Myt& _Right, const_iterator _First, const_iterator _Last)
; 1579 : 		{	// splice _Right [_First, _Last) at _Where
; 1580 : 		if (_First != _Last && (this != &_Right || _Where != _Last))
; 1581 : 			{	// worth splicing, do it
; 1582 : 			size_type _Count = 0;
; 1583 : 
; 1584 : 			if (this == &_Right)
; 1585 : 				;	// just rearrange this list
; 1586 : 			else if (_First == _Right.begin() && _Last == _Right.end())
; 1587 : 				_Count = _Right._Mysize;	// splice in whole list
; 1588 : 			else
; 1589 : 				{	// count nodes and check for knot
; 1590 : 				const_iterator _Next = _First;
; 1591 : 
; 1592 : 				for (; _Next != _Last; ++_Next, ++_Count)
; 1593 : 					if (_Next == _Right.end())
; 1594 : 						_Xlength_error("list<T> bad splice");
; 1595 : 				}
; 1596 : 			_Splice(_Where, _Right, _First, _Last, _Count);
; 1597 : 			}
; 1598 : 		}
; 1599 : 
; 1600 : 	void splice(const_iterator _Where,
; 1601 : 		_Myt&& _Right, const_iterator _First, const_iterator _Last)
; 1602 : 		{	// splice _Right [_First, _Last) at _Where
; 1603 : 		splice(_Where, (_Myt&)_Right, _First, _Last);
; 1604 : 		}
; 1605 : 
; 1606 : 	void remove(const _Ty& _Val)
; 1607 : 		{	// erase each element matching _Val
; 1608 : 		iterator _Val_it = end();
; 1609 : 
; 1610 : 		for (iterator _First = begin(); _First != end(); )
; 1611 : 			if (*_First == _Val)
; 1612 : 				if (_STD addressof(*_First) == _STD addressof(_Val))
; 1613 : 					_Val_it = _First++;
; 1614 : 				else
; 1615 : 					_First = erase(_First);
; 1616 : 			else
; 1617 : 				++_First;
; 1618 : 
; 1619 : 		if (_Val_it != end())
; 1620 : 			erase(_Val_it);
; 1621 : 		}
; 1622 : 
; 1623 : 	template<class _Pr1>
; 1624 : 		void remove_if(_Pr1 _Pred)
; 1625 : 		{	// erase each element satisfying _Pred
; 1626 : 		for (iterator _First = begin(); _First != end(); )
; 1627 : 			if (_Pred(*_First))
; 1628 : 				_First = erase(_First);
; 1629 : 			else
; 1630 : 				++_First;
; 1631 : 		}
; 1632 : 
; 1633 : 	void unique()
; 1634 : 		{	// erase each element matching previous
; 1635 : 		unique(equal_to<>());
; 1636 : 		}
; 1637 : 
; 1638 : 	template<class _Pr2>
; 1639 : 		void unique(_Pr2 _Pred)
; 1640 : 		{	// erase each element satisfying _Pred with previous
; 1641 : 		const _Nodeptr _Phead = this->_Myhead;
; 1642 : 		_Nodeptr _Pprev = this->_Nextnode(_Phead);
; 1643 : 		_Nodeptr _Pnode = this->_Nextnode(_Pprev);
; 1644 : 
; 1645 : 		while (_Pnode != _Phead)
; 1646 : 			if (_Pred(_Pprev->_Myval, _Pnode->_Myval))
; 1647 : 				{	// match, remove it
; 1648 : 				const _Nodeptr _Perase = _Pnode;
; 1649 : 				_Pnode = this->_Nextnode(_Pnode);
; 1650 : 
; 1651 : 				this->_Nextnode(_Pprev) = _Pnode;
; 1652 : 				this->_Prevnode(_Pnode) = _Pprev;
; 1653 : 				this->_Freenode(_Perase);
; 1654 : 
; 1655 : 				--this->_Mysize;
; 1656 : 				}
; 1657 : 			else
; 1658 : 				{	// no match, advance
; 1659 : 				_Pprev = _Pnode;
; 1660 : 				_Pnode = this->_Nextnode(_Pnode);
; 1661 : 				}
; 1662 : 		}
; 1663 : 
; 1664 : 	void merge(_Myt& _Right)
; 1665 : 		{	// merge in elements from _Right, both ordered by operator<
; 1666 : 		merge(_Right, less<>());
; 1667 : 		}
; 1668 : 
; 1669 : 	void merge(_Myt&& _Right)
; 1670 : 		{	// merge in elements from _Right, both ordered by operator<
; 1671 : 		merge((_Myt&)_Right);
; 1672 : 		}
; 1673 : 
; 1674 : 	template<class _Pr2>
; 1675 : 		void merge(_Myt& _Right, _Pr2 _Pred)
; 1676 : 		{	// merge in elements from _Right, both ordered by _Pred
; 1677 : 		if (&_Right != this)
; 1678 : 			{	// safe to merge, do it
; 1679 : 			iterator _First1 = begin(), _Last1 = end();
; 1680 : 			iterator _First2 = _Right.begin(), _Last2 = _Right.end();
; 1681 : 			_DEBUG_ORDER_PRED(_First1, _Last1, _Pred);
; 1682 : 			_DEBUG_ORDER_PRED(_First2, _Last2, _Pred);
; 1683 : 
; 1684 : 			while (_First1 != _Last1 && _First2 != _Last2)
; 1685 : 				if (_DEBUG_LT_PRED(_Pred, *_First2, *_First1))
; 1686 : 					{	// splice in an element from _Right
; 1687 : 					iterator _Mid2 = _First2;
; 1688 : 					_Splice(_First1, _Right, _First2, ++_Mid2, 1);
; 1689 : 					_First2 = _Mid2;
; 1690 : 					}
; 1691 : 				else
; 1692 : 					++_First1;
; 1693 : 
; 1694 : 			if (_First2 != _Last2)
; 1695 : 				_Splice(_Last1, _Right, _First2, _Last2,
; 1696 : 					_Right._Mysize);	// splice remainder of _Right
; 1697 : 			}
; 1698 : 		}
; 1699 : 
; 1700 : 	template<class _Pr2>
; 1701 : 		void merge(_Myt&& _Right, _Pr2 _Pred)
; 1702 : 		{	// merge in elements from _Right, both ordered by _Pred
; 1703 : 		merge((_Myt&)_Right, _Pred);
; 1704 : 		}
; 1705 : 
; 1706 : 	void sort()
; 1707 : 		{	// order sequence, using operator<
; 1708 : 		sort(less<>());
; 1709 : 		}
; 1710 : 
; 1711 : 	template<class _Pr2>
; 1712 : 		void sort(_Pr2 _Pred)
; 1713 : 		{	// order sequence, using _Pred
; 1714 : 		if (2 <= this->_Mysize)
; 1715 : 			{	// worth sorting, do it
; 1716 : 			const size_t _MAXBINS = 25;
; 1717 : 			_Myt _Templist(this->_Getal()), _Binlist[_MAXBINS + 1];
; 1718 : 			size_t _Maxbin = 0;
; 1719 : 
; 1720 : 			while (!empty())
; 1721 : 				{	// sort another element, using bins
; 1722 : 				_Templist._Splice_same(_Templist.begin(), *this, begin(),
; 1723 : 					++begin(), 1);
; 1724 : 
; 1725 : 				size_t _Bin;
; 1726 : 				for (_Bin = 0; _Bin < _Maxbin && !_Binlist[_Bin].empty();
; 1727 : 					++_Bin)
; 1728 : 					{	// merge into ever larger bins
; 1729 : 					_Binlist[_Bin].merge(_Templist, _Pred);
; 1730 : 					_Binlist[_Bin].swap(_Templist);
; 1731 : 					}
; 1732 : 
; 1733 : 				if (_Bin == _MAXBINS)
; 1734 : 					_Binlist[_Bin - 1].merge(_Templist, _Pred);
; 1735 : 				else
; 1736 : 					{	// spill to new bin, while they last
; 1737 : 					_Binlist[_Bin].swap(_Templist);
; 1738 : 					if (_Bin == _Maxbin)
; 1739 : 						++_Maxbin;
; 1740 : 					}
; 1741 : 				}
; 1742 : 
; 1743 : 			for (size_t _Bin = 1; _Bin < _Maxbin; ++_Bin)
; 1744 : 				_Binlist[_Bin].merge(_Binlist[_Bin - 1],
; 1745 : 					_Pred);	// merge up
; 1746 : 
; 1747 : 			_Analysis_assume_(0 < _Maxbin);
; 1748 : 
; 1749 : 			splice(begin(), _Binlist[_Maxbin - 1]);	// result in last bin
; 1750 : 			}
; 1751 : 		}
; 1752 : 
; 1753 : 	void reverse() _NOEXCEPT
; 1754 : 		{	// reverse sequence
; 1755 : 		const _Nodeptr _Phead = this->_Myhead;
; 1756 : 		_Nodeptr _Pnode = _Phead;
; 1757 : 
; 1758 : 		for (; ; )
; 1759 : 			{	// flip pointers in a node
; 1760 : 			const _Nodeptr _Pnext = this->_Nextnode(_Pnode);
; 1761 : 			this->_Nextnode(_Pnode) = this->_Prevnode(_Pnode);
; 1762 : 			this->_Prevnode(_Pnode) = _Pnext;
; 1763 : 
; 1764 : 			if (_Pnext == _Phead)
; 1765 : 				break;
; 1766 : 			_Pnode = _Pnext;
; 1767 : 			}
; 1768 : 		}
; 1769 : 
; 1770 : 	void _Splice(const_iterator _Where,
; 1771 : 		_Myt& _Right, const_iterator _First, const_iterator _Last,
; 1772 : 		size_type _Count)
; 1773 : 		{	// splice _Right [_First, _Last) before _Where
; 1774 :  #if _ITERATOR_DEBUG_LEVEL == 2
; 1775 : 		if (_Where._Getcont() != this)
; 1776 : 			_DEBUG_ERROR("list splice iterator outside range");
; 1777 : 		if (this->_Getal() != _Right._Getal())
; 1778 : 			_DEBUG_ERROR("list containers incompatible for splice");
; 1779 : 
; 1780 : 		if (this != &_Right)
; 1781 : 			{	// transfer ownership
; 1782 : 			_Lockit _Lock(_LOCK_DEBUG);
; 1783 : 
; 1784 : 			const bool _One = _Count == 1;
; 1785 : 			const bool _All = _Count == _Right.size();
; 1786 : 			const bool _Some = !_One && !_All;
; 1787 : 
; 1788 : 			_Nodeptr _Oldprev = _First._Ptr->_Prev;
; 1789 : 
; 1790 : 			if (_Some)
; 1791 : 				for (_Nodeptr _Ptr = _First._Ptr; _Ptr != _Last._Ptr;
; 1792 : 					_Ptr = _Ptr->_Next)
; 1793 : 					{	// mark _Prev pointers
; 1794 : 					_Ptr->_Prev = 0;
; 1795 : 					}
; 1796 : 
; 1797 : 			const_iterator **_Pnext = (const_iterator **)_Right._Getpfirst();
; 1798 : 
; 1799 : 			if (_Pnext == 0)
; 1800 : 				_DEBUG_ERROR("list container corrupted");
; 1801 : 
; 1802 : 			while (*_Pnext != 0)
; 1803 : 				{	// check the iterator
; 1804 : 				const_iterator& _Iter = **_Pnext;
; 1805 : 
; 1806 : 				if ((_One && _Iter._Ptr == _First._Ptr)
; 1807 : 					|| (_All && _Iter._Ptr != _Right._Myhead)
; 1808 : 					|| (_Some && _Iter._Ptr->_Prev == 0))
; 1809 : 					{	// adopt the iterator
; 1810 : 					*_Pnext = (const_iterator *)_Iter._Mynextiter;
; 1811 : 					_Iter._Myproxy = this->_Myproxy;
; 1812 : 					_Iter._Mynextiter = this->_Myproxy->_Myfirstiter;
; 1813 : 					this->_Myproxy->_Myfirstiter = &_Iter;
; 1814 : 					}
; 1815 : 				else
; 1816 : 					{	// skip the iterator
; 1817 : 					_Pnext = (const_iterator **)_Iter._Getpnext();
; 1818 : 					}
; 1819 : 				}
; 1820 : 
; 1821 : 			if (_Some)
; 1822 : 				for (_Nodeptr _Ptr = _First._Ptr; _Ptr != _Last._Ptr;
; 1823 : 					_Ptr = _Ptr->_Next)
; 1824 : 					{	// restore _Prev pointers
; 1825 : 					_Ptr->_Prev = _Oldprev;
; 1826 : 					_Oldprev = _Ptr;
; 1827 : 					}
; 1828 : 			}
; 1829 : 
; 1830 :  #else /* _ITERATOR_DEBUG_LEVEL == 2 */
; 1831 : 		if (this->_Getal() != _Right._Getal())
; 1832 : 			_XSTD terminate();
; 1833 :  #endif /* _ITERATOR_DEBUG_LEVEL == 2 */
; 1834 : 
; 1835 : 		_Splice_same(_Where, _Right, _First, _Last, _Count);
; 1836 : 		}
; 1837 : 
; 1838 : 	void _Splice_same(const_iterator _Where,
; 1839 : 		_Myt& _Right, const_iterator _First, const_iterator _Last,
; 1840 : 		size_type _Count)
; 1841 : 		{	// splice _Right [_First, _Last) before _Where
; 1842 : 		if (this != &_Right)
; 1843 : 			{	// splicing from another list, adjust counts
; 1844 : 			_Incsize(_Count);
; 1845 : 			_Right._Mysize -= _Count;
; 1846 : 			}
; 1847 : 		this->_Nextnode(this->_Prevnode(_First._Mynode())) =
; 1848 : 			_Last._Mynode();
; 1849 : 		this->_Nextnode(this->_Prevnode(_Last._Mynode())) =
; 1850 : 			_Where._Mynode();
; 1851 : 		this->_Nextnode(this->_Prevnode(_Where._Mynode())) =
; 1852 : 			_First._Mynode();
; 1853 : 
; 1854 : 		_Nodeptr _Pnode = this->_Prevnode(_Where._Mynode());
; 1855 : 		this->_Prevnode(_Where._Mynode()) =
; 1856 : 			this->_Prevnode(_Last._Mynode());
; 1857 : 		this->_Prevnode(_Last._Mynode()) =
; 1858 : 			this->_Prevnode(_First._Mynode());
; 1859 : 		this->_Prevnode(_First._Mynode()) = _Pnode;
; 1860 : 		}
; 1861 : 
; 1862 : 	void _Unchecked_splice(_Unchecked_const_iterator _Where,
; 1863 : 		_Unchecked_const_iterator _First,
; 1864 : 		_Unchecked_const_iterator _Last)
; 1865 : 		{	// splice [_First, _Last) before _Where
; 1866 : 		this->_Nextnode(this->_Prevnode(_First._Mynode())) =
; 1867 : 			_Last._Mynode();
; 1868 : 		this->_Nextnode(this->_Prevnode(_Last._Mynode())) =
; 1869 : 			_Where._Mynode();
; 1870 : 		this->_Nextnode(this->_Prevnode(_Where._Mynode())) =
; 1871 : 			_First._Mynode();
; 1872 : 
; 1873 : 		_Nodeptr _Pnode = this->_Prevnode(_Where._Mynode());
; 1874 : 		this->_Prevnode(_Where._Mynode()) =
; 1875 : 			this->_Prevnode(_Last._Mynode());
; 1876 : 		this->_Prevnode(_Last._Mynode()) =
; 1877 : 			this->_Prevnode(_First._Mynode());
; 1878 : 		this->_Prevnode(_First._Mynode()) = _Pnode;
; 1879 : 		}
; 1880 : 
; 1881 : 	void _Tidy()
; 1882 : 		{	// free all storage
; 1883 : 		clear();
; 1884 : 		}
; 1885 : 
; 1886 : 	void _Insert_n(_Unchecked_const_iterator _Where,
; 1887 : 		size_type _Count, const _Ty& _Val)
; 1888 : 		{	// insert _Count * _Val at _Where
; 1889 : 		size_type _Countsave = _Count;
; 1890 : 
; 1891 : 		_TRY_BEGIN
; 1892 : 		for (; 0 < _Count; --_Count)
; 1893 : 			_Insert(_Where, _Val);
; 1894 : 		_CATCH_ALL
; 1895 : 		for (; _Count < _Countsave; ++_Count)
; 1896 : 			{	// undo inserts
; 1897 : 			_Unchecked_const_iterator _Before = _Where;
; 1898 : 			_Unchecked_erase(--_Before);
; 1899 : 			}
; 1900 : 		_RERAISE;
; 1901 : 		_CATCH_END
; 1902 : 		}
; 1903 : 
; 1904 : 	void _Incsize(size_type _Count)
; 1905 : 		{	// alter element count, with checking
; 1906 : 		if (max_size() - this->_Mysize - 1 < _Count)

	mov	rax, QWORD PTR [rdi+8]
	sub	rdx, rax
	cmp	rdx, 1
	jae	SHORT $LN9@Insert

; 1907 : 			_Xlength_error("list<T> too long");

	lea	rcx, OFFSET FLAT:??_C@_0BB@MOGOBHAF@list?$DMT?$DO?5too?5long?$AA@
	call	QWORD PTR __imp_?_Xlength_error@std@@YAXPEBD@Z
	int	3
$LN9@Insert:

; 1908 : 		this->_Mysize += _Count;

	inc	rax
	mov	QWORD PTR [rdi+8], rax

; 1063 : 		_Incsize(1);
; 1064 : 		this->_Prevnode(_Pnode) = _Newnode;

	mov	QWORD PTR [rbx+8], r8

; 533  : 		return ((_Nodepref)_Pnode->_Next);

	mov	rax, QWORD PTR [r8+8]

; 1065 : 		this->_Nextnode(this->_Prevnode(_Newnode)) = _Newnode;
; 1066 : 		}

	mov	rbx, QWORD PTR [rsp+48]
	mov	QWORD PTR [rax], r8
	add	rsp, 32					; 00000020H
	pop	rdi
	ret	0
$LN32@Insert:
??$_Insert@AEBU?$_vector3@M@@@?$list@U?$_vector3@M@@V?$xalloc@U?$_vector3@M@@@@@std@@QEAAXV?$_List_unchecked_const_iterator@V?$_List_val@U?$_List_simple_types@U?$_vector3@M@@@std@@@std@@U_Iterator_base0@2@@1@AEBU?$_vector3@M@@@Z ENDP ; std::list<_vector3<float>,xalloc<_vector3<float> > >::_Insert<_vector3<float> const & __ptr64>
_TEXT	ENDS
; Function compile flags: /Ogtpy
; File c:\program files (x86)\microsoft visual studio 12.0\vc\include\xmemory0
;	COMDAT ??$?9V?$xalloc@U?$_List_node@U?$_vector3@M@@PEAX@std@@@@V0@@std@@YA_NAEBU?$_Wrap_alloc@V?$xalloc@U?$_List_node@U?$_vector3@M@@PEAX@std@@@@@0@0@Z
_TEXT	SEGMENT
_Left$dead$ = 8
_Right$dead$ = 16
??$?9V?$xalloc@U?$_List_node@U?$_vector3@M@@PEAX@std@@@@V0@@std@@YA_NAEBU?$_Wrap_alloc@V?$xalloc@U?$_List_node@U?$_vector3@M@@PEAX@std@@@@@0@0@Z PROC ; std::operator!=<xalloc<std::_List_node<_vector3<float>,void * __ptr64> >,xalloc<std::_List_node<_vector3<float>,void * __ptr64> > >, COMDAT

; 901  : 	return (!(_Left == _Right));

	xor	al, al

; 902  : 	}

	ret	0
??$?9V?$xalloc@U?$_List_node@U?$_vector3@M@@PEAX@std@@@@V0@@std@@YA_NAEBU?$_Wrap_alloc@V?$xalloc@U?$_List_node@U?$_vector3@M@@PEAX@std@@@@@0@0@Z ENDP ; std::operator!=<xalloc<std::_List_node<_vector3<float>,void * __ptr64> >,xalloc<std::_List_node<_vector3<float>,void * __ptr64> > >
_TEXT	ENDS
; Function compile flags: /Ogtpy
; File c:\program files (x86)\microsoft visual studio 12.0\vc\include\xstddef
;	COMDAT ??$addressof@PEAU?$_List_node@U?$_vector3@M@@PEAX@std@@@std@@YAPEAPEAU?$_List_node@U?$_vector3@M@@PEAX@0@AEAPEAU10@@Z
_TEXT	SEGMENT
_Val$ = 8
??$addressof@PEAU?$_List_node@U?$_vector3@M@@PEAX@std@@@std@@YAPEAPEAU?$_List_node@U?$_vector3@M@@PEAX@0@AEAPEAU10@@Z PROC ; std::addressof<std::_List_node<_vector3<float>,void * __ptr64> * __ptr64>, COMDAT

; 93   : 	return (reinterpret_cast<_Ty *>(
; 94   : 		(&const_cast<char&>(
; 95   : 		reinterpret_cast<const volatile char&>(_Val)))));

	mov	rax, rcx

; 96   : 	}

	ret	0
??$addressof@PEAU?$_List_node@U?$_vector3@M@@PEAX@std@@@std@@YAPEAPEAU?$_List_node@U?$_vector3@M@@PEAX@0@AEAPEAU10@@Z ENDP ; std::addressof<std::_List_node<_vector3<float>,void * __ptr64> * __ptr64>
_TEXT	ENDS
; Function compile flags: /Ogtpy
; File c:\program files (x86)\microsoft visual studio 12.0\vc\include\xmemory0
;	COMDAT ??$destroy@PEAU?$_List_node@U?$_vector3@M@@PEAX@std@@@?$_Wrap_alloc@V?$xalloc@U?$_List_node@U?$_vector3@M@@PEAX@std@@@@@std@@QEAAXPEAPEAU?$_List_node@U?$_vector3@M@@PEAX@1@@Z
_TEXT	SEGMENT
this$dead$ = 8
_Ptr$dead$ = 16
??$destroy@PEAU?$_List_node@U?$_vector3@M@@PEAX@std@@@?$_Wrap_alloc@V?$xalloc@U?$_List_node@U?$_vector3@M@@PEAX@std@@@@@std@@QEAAXPEAPEAU?$_List_node@U?$_vector3@M@@PEAX@1@@Z PROC ; std::_Wrap_alloc<xalloc<std::_List_node<_vector3<float>,void * __ptr64> > >::destroy<std::_List_node<_vector3<float>,void * __ptr64> * __ptr64>, COMDAT

; 878  : 		{	// destroy object at _Ptr
; 879  : 		_Mytraits::destroy(*this, _Ptr);
; 880  : 		}

	ret	0
??$destroy@PEAU?$_List_node@U?$_vector3@M@@PEAX@std@@@?$_Wrap_alloc@V?$xalloc@U?$_List_node@U?$_vector3@M@@PEAX@std@@@@@std@@QEAAXPEAPEAU?$_List_node@U?$_vector3@M@@PEAX@1@@Z ENDP ; std::_Wrap_alloc<xalloc<std::_List_node<_vector3<float>,void * __ptr64> > >::destroy<std::_List_node<_vector3<float>,void * __ptr64> * __ptr64>
_TEXT	ENDS
; Function compile flags: /Ogtpy
; File c:\program files (x86)\microsoft visual studio 12.0\vc\include\xstddef
;	COMDAT ??$addressof@U?$_vector3@M@@@std@@YAPEAU?$_vector3@M@@AEAU1@@Z
_TEXT	SEGMENT
_Val$ = 8
??$addressof@U?$_vector3@M@@@std@@YAPEAU?$_vector3@M@@AEAU1@@Z PROC ; std::addressof<_vector3<float> >, COMDAT

; 93   : 	return (reinterpret_cast<_Ty *>(
; 94   : 		(&const_cast<char&>(
; 95   : 		reinterpret_cast<const volatile char&>(_Val)))));

	mov	rax, rcx

; 96   : 	}

	ret	0
??$addressof@U?$_vector3@M@@@std@@YAPEAU?$_vector3@M@@AEAU1@@Z ENDP ; std::addressof<_vector3<float> >
_TEXT	ENDS
; Function compile flags: /Ogtpy
; File c:\program files (x86)\microsoft visual studio 12.0\vc\include\xmemory0
;	COMDAT ??$destroy@U?$_vector3@M@@@?$_Wrap_alloc@V?$xalloc@U?$_List_node@U?$_vector3@M@@PEAX@std@@@@@std@@QEAAXPEAU?$_vector3@M@@@Z
_TEXT	SEGMENT
this$dead$ = 8
_Ptr$dead$ = 16
??$destroy@U?$_vector3@M@@@?$_Wrap_alloc@V?$xalloc@U?$_List_node@U?$_vector3@M@@PEAX@std@@@@@std@@QEAAXPEAU?$_vector3@M@@@Z PROC ; std::_Wrap_alloc<xalloc<std::_List_node<_vector3<float>,void * __ptr64> > >::destroy<_vector3<float> >, COMDAT

; 878  : 		{	// destroy object at _Ptr
; 879  : 		_Mytraits::destroy(*this, _Ptr);
; 880  : 		}

	ret	0
??$destroy@U?$_vector3@M@@@?$_Wrap_alloc@V?$xalloc@U?$_List_node@U?$_vector3@M@@PEAX@std@@@@@std@@QEAAXPEAU?$_vector3@M@@@Z ENDP ; std::_Wrap_alloc<xalloc<std::_List_node<_vector3<float>,void * __ptr64> > >::destroy<_vector3<float> >
_TEXT	ENDS
; Function compile flags: /Ogtpy
; File c:\program files (x86)\microsoft visual studio 12.0\vc\include\xmemory0
;	COMDAT ??$construct@PEAU?$_List_node@U?$_vector3@M@@PEAX@std@@AEAPEAU12@@?$_Wrap_alloc@V?$xalloc@U?$_List_node@U?$_vector3@M@@PEAX@std@@@@@std@@QEAAXPEAPEAU?$_List_node@U?$_vector3@M@@PEAX@1@AEAPEAU21@@Z
_TEXT	SEGMENT
this$dead$ = 8
_Ptr$ = 16
<_Args_0>$ = 24
??$construct@PEAU?$_List_node@U?$_vector3@M@@PEAX@std@@AEAPEAU12@@?$_Wrap_alloc@V?$xalloc@U?$_List_node@U?$_vector3@M@@PEAX@std@@@@@std@@QEAAXPEAPEAU?$_List_node@U?$_vector3@M@@PEAX@1@AEAPEAU21@@Z PROC ; std::_Wrap_alloc<xalloc<std::_List_node<_vector3<float>,void * __ptr64> > >::construct<std::_List_node<_vector3<float>,void * __ptr64> * __ptr64,std::_List_node<_vector3<float>,void * __ptr64> * __ptr64 & __ptr64>, COMDAT

; 349  : 			_Objty(_STD forward<_Types>(_Args)...);

	test	rdx, rdx
	je	SHORT $LN13@construct
	mov	rax, QWORD PTR [r8]
	mov	QWORD PTR [rdx], rax
$LN13@construct:

; 869  : 			_Types&&... _Args)
; 870  : 		{	// construct _Ty(_Types...) at _Ptr
; 871  : 		_Mytraits::construct(*this, _Ptr,
; 872  : 			_STD forward<_Types>(_Args)...);
; 873  : 		}

	ret	0
??$construct@PEAU?$_List_node@U?$_vector3@M@@PEAX@std@@AEAPEAU12@@?$_Wrap_alloc@V?$xalloc@U?$_List_node@U?$_vector3@M@@PEAX@std@@@@@std@@QEAAXPEAPEAU?$_List_node@U?$_vector3@M@@PEAX@1@AEAPEAU21@@Z ENDP ; std::_Wrap_alloc<xalloc<std::_List_node<_vector3<float>,void * __ptr64> > >::construct<std::_List_node<_vector3<float>,void * __ptr64> * __ptr64,std::_List_node<_vector3<float>,void * __ptr64> * __ptr64 & __ptr64>
_TEXT	ENDS
; Function compile flags: /Ogtpy
; File c:\users\nummer\documents\github\olr-3.0\src\xray\xrcore\xrmemory.h
; File c:\users\nummer\documents\github\olr-3.0\src\xray\xrcore\xrmemory_subst_msvc.cpp
; File c:\users\nummer\documents\github\olr-3.0\src\xray\xrcore\xrmemory_align.cpp
; File c:\users\nummer\documents\github\olr-3.0\src\xray\xrcore\xrmemory.h
; File c:\users\nummer\documents\github\olr-3.0\src\xray\xrcore\xrmemory_subst_msvc.cpp
; File c:\users\nummer\documents\github\olr-3.0\src\xray\xrcore\xrsyncronize.cpp
; File c:\users\nummer\documents\github\olr-3.0\src\xray\xrcore\xrmemory_pool.h
; File c:\users\nummer\documents\github\olr-3.0\src\xray\xrcore\xrsyncronize.cpp
; File c:\users\nummer\documents\github\olr-3.0\src\xray\xrcore\xrmemory_pool.h
; File c:\users\nummer\documents\github\olr-3.0\src\xray\xrcore\xrsyncronize.cpp
; File c:\users\nummer\documents\github\olr-3.0\src\xray\xrcore\xrmemory.h
;	COMDAT ??$xr_free@U?$_List_node@U?$_vector3@M@@PEAX@std@@@@YAXAEAPEAU?$_List_node@U?$_vector3@M@@PEAX@std@@@Z
_TEXT	SEGMENT
P$ = 48
??$xr_free@U?$_List_node@U?$_vector3@M@@PEAX@std@@@@YAXAEAPEAU?$_List_node@U?$_vector3@M@@PEAX@std@@@Z PROC ; xr_free<std::_List_node<_vector3<float>,void * __ptr64> >, COMDAT

; 109  : 	IC void		xr_free		(T* &P)					{	if (P) { Memory.mem_free((void*)P); P=NULL;	};	}

$LN30:
	mov	QWORD PTR [rsp+16], rsi
	push	rdi
	sub	rsp, 32					; 00000020H
	mov	rdi, QWORD PTR [rcx]
	mov	rsi, rcx
	test	rdi, rdi
	je	SHORT $LN1@xr_free
; File c:\users\nummer\documents\github\olr-3.0\src\xray\xrcore\xrmemory_subst_msvc.cpp

; 130  : 	stat_calls++;

	inc	DWORD PTR ?Memory@@3VxrMemory@@A

; 25   : ICF	u32		get_header			(void* P)	{	return	(u32)*acc_header(P);				}

	movzx	eax, BYTE PTR [rdi-1]

; 24   : ICF	u8*		acc_header			(void* P)	{	u8*		_P		= (u8*)P;	return	_P-1;	}

	dec	rdi

; 131  : #ifdef USE_MEMORY_MONITOR
; 132  : 	memory_monitor::monitor_free(P);
; 133  : #endif // USE_MEMORY_MONITOR
; 134  : 
; 135  : #ifdef PURE_ALLOC
; 136  : 	if (g_use_pure_alloc) {
; 137  : 		free					(P);
; 138  : 		return;
; 139  : 	}
; 140  : #endif // PURE_ALLOC
; 141  : 
; 142  : #ifdef DEBUG_MEMORY_MANAGER
; 143  : 	if(g_globalCheckAddr==P)
; 144  : 		__asm int 3;
; 145  : #endif // DEBUG_MEMORY_MANAGER
; 146  : 
; 147  : #ifdef DEBUG_MEMORY_MANAGER
; 148  : 	if (mem_initialized)		debug_cs.Enter		();
; 149  : #endif // DEBUG_MEMORY_MANAGER
; 150  : 	if		(debug_mode)		dbg_unregister	(P);
; 151  : 	u32	pool					= get_header	(P);
; 152  : 	void* _real					= (void*)(((u8*)P)-1);
; 153  : 	if (mem_generic==pool)		

	cmp	eax, 55					; 00000037H
	jne	SHORT $LN6@xr_free
; File c:\users\nummer\documents\github\olr-3.0\src\xray\xrcore\xrmemory_align.cpp

; 293  : 	if (memblock == NULL)

	test	rdi, rdi
	je	SHORT $LN27@xr_free

; 294  : 		return;
; 295  : 
; 296  : 	ptr = (uintptr_t)memblock;
; 297  : 
; 298  : 	/* ptr points to the pointer to starting of the memory block */
; 299  : 	ptr = (ptr & ~(PTR_SZ -1)) - PTR_SZ;

	and	rdi, -8

; 300  : 
; 301  : 	/* ptr is the pointer to the start of memory block*/
; 302  : 	ptr = *((uintptr_t *)ptr);
; 303  : 	free((void *)ptr);

	mov	rcx, QWORD PTR [rdi-8]
	call	QWORD PTR __imp_free
; File c:\users\nummer\documents\github\olr-3.0\src\xray\xrcore\xrmemory.h

; 109  : 	IC void		xr_free		(T* &P)					{	if (P) { Memory.mem_free((void*)P); P=NULL;	};	}

	mov	QWORD PTR [rsi], 0
	mov	rsi, QWORD PTR [rsp+56]
	add	rsp, 32					; 00000020H
	pop	rdi
	ret	0
$LN6@xr_free:
; File c:\users\nummer\documents\github\olr-3.0\src\xray\xrcore\xrmemory_subst_msvc.cpp

; 160  : 		mem_pools[pool].destroy	(_real);

	lea	rcx, QWORD PTR [rax+rax*4]
	lea	rax, OFFSET FLAT:?mem_pools@@3PAVMEMPOOL@@A ; mem_pools
	mov	QWORD PTR [rsp+48], rbx
	lea	rbx, QWORD PTR [rax+rcx*8]
; File c:\users\nummer\documents\github\olr-3.0\src\xray\xrcore\xrsyncronize.cpp

; 64   : 	EnterCriticalSection			( (CRITICAL_SECTION*)pmutex );

	mov	rcx, QWORD PTR [rax+rcx*8]
	call	QWORD PTR __imp_EnterCriticalSection
; File c:\users\nummer\documents\github\olr-3.0\src\xray\xrcore\xrmemory_pool.h

; 46   : 		*access(P)		= list;

	mov	rax, QWORD PTR [rbx+32]
	mov	QWORD PTR [rdi], rax
; File c:\users\nummer\documents\github\olr-3.0\src\xray\xrcore\xrsyncronize.cpp

; 69   : 	LeaveCriticalSection			( (CRITICAL_SECTION*)pmutex );

	mov	rcx, QWORD PTR [rbx]
; File c:\users\nummer\documents\github\olr-3.0\src\xray\xrcore\xrmemory_pool.h

; 47   : 		list			= (u8*)P;

	mov	QWORD PTR [rbx+32], rdi
; File c:\users\nummer\documents\github\olr-3.0\src\xray\xrcore\xrsyncronize.cpp

; 69   : 	LeaveCriticalSection			( (CRITICAL_SECTION*)pmutex );

	call	QWORD PTR __imp_LeaveCriticalSection
	mov	rbx, QWORD PTR [rsp+48]
$LN27@xr_free:
; File c:\users\nummer\documents\github\olr-3.0\src\xray\xrcore\xrmemory.h

; 109  : 	IC void		xr_free		(T* &P)					{	if (P) { Memory.mem_free((void*)P); P=NULL;	};	}

	mov	QWORD PTR [rsi], 0
$LN1@xr_free:
	mov	rsi, QWORD PTR [rsp+56]
	add	rsp, 32					; 00000020H
	pop	rdi
	ret	0
??$xr_free@U?$_List_node@U?$_vector3@M@@PEAX@std@@@@YAXAEAPEAU?$_List_node@U?$_vector3@M@@PEAX@std@@@Z ENDP ; xr_free<std::_List_node<_vector3<float>,void * __ptr64> >
_TEXT	ENDS
; Function compile flags: /Ogtpy
; File c:\users\nummer\documents\github\olr-3.0\src\xray\xrcore\xrmemory.h
;	COMDAT ??$xr_alloc@U?$_List_node@U?$_vector3@M@@PEAX@std@@@@YAPEAU?$_List_node@U?$_vector3@M@@PEAX@std@@I@Z
_TEXT	SEGMENT
count$ = 8
??$xr_alloc@U?$_List_node@U?$_vector3@M@@PEAX@std@@@@YAPEAU?$_List_node@U?$_vector3@M@@PEAX@std@@I@Z PROC ; xr_alloc<std::_List_node<_vector3<float>,void * __ptr64> >, COMDAT

; 107  : 	IC T*		xr_alloc	(u32 count)				{	return  (T*)Memory.mem_alloc(count*sizeof(T));	}

	mov	edx, ecx
	lea	rcx, OFFSET FLAT:?Memory@@3VxrMemory@@A	; Memory
	shl	rdx, 5
	jmp	?mem_alloc@xrMemory@@QEAAPEAX_K@Z	; xrMemory::mem_alloc
??$xr_alloc@U?$_List_node@U?$_vector3@M@@PEAX@std@@@@YAPEAU?$_List_node@U?$_vector3@M@@PEAX@std@@I@Z ENDP ; xr_alloc<std::_List_node<_vector3<float>,void * __ptr64> >
_TEXT	ENDS
; Function compile flags: /Ogtpy
; File c:\program files (x86)\microsoft visual studio 12.0\vc\include\xmemory0
;	COMDAT ??$_Fn@V?$xalloc@U?$_List_node@U?$_vector3@M@@PEAX@std@@@@@_Alloc_max_size@std@@SA_KHAEBV?$xalloc@U?$_List_node@U?$_vector3@M@@PEAX@std@@@@@Z
_TEXT	SEGMENT
__formal$dead$ = 8
_Al$dead$ = 16
??$_Fn@V?$xalloc@U?$_List_node@U?$_vector3@M@@PEAX@std@@@@@_Alloc_max_size@std@@SA_KHAEBV?$xalloc@U?$_List_node@U?$_vector3@M@@PEAX@std@@@@@Z PROC ; std::_Alloc_max_size::_Fn<xalloc<std::_List_node<_vector3<float>,void * __ptr64> > >, COMDAT

; 381  : 		return (_Al.max_size());

	mov	rax, 576460752303423487			; 07ffffffffffffffH

; 382  : 		}

	ret	0
??$_Fn@V?$xalloc@U?$_List_node@U?$_vector3@M@@PEAX@std@@@@@_Alloc_max_size@std@@SA_KHAEBV?$xalloc@U?$_List_node@U?$_vector3@M@@PEAX@std@@@@@Z ENDP ; std::_Alloc_max_size::_Fn<xalloc<std::_List_node<_vector3<float>,void * __ptr64> > >
_TEXT	ENDS
; Function compile flags: /Ogtpy
; File c:\users\nummer\documents\github\olr-3.0\src\xray\xrcore\_stl_extensions.h
;	COMDAT ?max_size@?$xalloc@U?$_List_node@U?$_vector3@M@@PEAX@std@@@@QEBA_KXZ
_TEXT	SEGMENT
this$dead$ = 8
?max_size@?$xalloc@U?$_List_node@U?$_vector3@M@@PEAX@std@@@@QEBA_KXZ PROC ; xalloc<std::_List_node<_vector3<float>,void * __ptr64> >::max_size, COMDAT

; 86   : 							size_type				max_size		() const								{	size_type _Count = (size_type)(-1) / sizeof (T);	return (0 < _Count ? _Count : 1);	}

	mov	rax, 576460752303423487			; 07ffffffffffffffH
	ret	0
?max_size@?$xalloc@U?$_List_node@U?$_vector3@M@@PEAX@std@@@@QEBA_KXZ ENDP ; xalloc<std::_List_node<_vector3<float>,void * __ptr64> >::max_size
_TEXT	ENDS
; Function compile flags: /Ogtpy
; File c:\program files (x86)\microsoft visual studio 12.0\vc\include\type_traits
;	COMDAT ??$forward@AEBU?$_vector3@M@@@std@@YAAEBU?$_vector3@M@@AEBU1@@Z
_TEXT	SEGMENT
_Arg$ = 8
??$forward@AEBU?$_vector3@M@@@std@@YAAEBU?$_vector3@M@@AEBU1@@Z PROC ; std::forward<_vector3<float> const & __ptr64>, COMDAT

; 1505 : 	return (static_cast<_Ty&&>(_Arg));

	mov	rax, rcx

; 1506 : 	}

	ret	0
??$forward@AEBU?$_vector3@M@@@std@@YAAEBU?$_vector3@M@@AEBU1@@Z ENDP ; std::forward<_vector3<float> const & __ptr64>
_TEXT	ENDS
; Function compile flags: /Ogtpy
; File c:\program files (x86)\microsoft visual studio 12.0\vc\include\list
; File c:\program files (x86)\microsoft visual studio 12.0\vc\include\xmemory0
; File c:\program files (x86)\microsoft visual studio 12.0\vc\include\list
;	COMDAT ??$_Buynode@AEBU?$_vector3@M@@@?$_List_buy@U?$_vector3@M@@V?$xalloc@U?$_vector3@M@@@@@std@@QEAAPEAU?$_List_node@U?$_vector3@M@@PEAX@1@PEAU21@0AEBU?$_vector3@M@@@Z
_TEXT	SEGMENT
$T1 = 32
p$ = 64
this$dead$ = 64
_Pnode$ = 64
_Next$ = 72
_Prev$ = 80
<_Val_0>$ = 88
??$_Buynode@AEBU?$_vector3@M@@@?$_List_buy@U?$_vector3@M@@V?$xalloc@U?$_vector3@M@@@@@std@@QEAAPEAU?$_List_node@U?$_vector3@M@@PEAX@1@PEAU21@0AEBU?$_vector3@M@@@Z PROC ; std::_List_buy<_vector3<float>,xalloc<_vector3<float> > >::_Buynode<_vector3<float> const & __ptr64>, COMDAT

; 827  : 		_Nodeptr _Buynode(_Nodeptr _Next, _Nodeptr _Prev,

$LN41:
	mov	QWORD PTR [rsp+8], rcx
	push	rbx
	sub	rsp, 48					; 00000030H
	mov	QWORD PTR $T1[rsp], -2
	mov	rbx, r9

; 828  : 			_Valty&&... _Val)
; 829  : 		{	// allocate a node and set links and value
; 830  : 		_Nodeptr _Pnode = this->_Buynode0(_Next, _Prev);

	call	?_Buynode0@?$_List_alloc@$0A@U?$_List_base_types@U?$_vector3@M@@V?$xalloc@U?$_vector3@M@@@@@std@@@std@@QEAAPEAU?$_List_node@U?$_vector3@M@@PEAX@2@PEAU32@0@Z ; std::_List_alloc<0,std::_List_base_types<_vector3<float>,xalloc<_vector3<float> > > >::_Buynode0
	mov	rdx, rax
	mov	QWORD PTR _Pnode$[rsp], rax

; 543  : 		return ((reference)_Pnode->_Myval);

	lea	rcx, QWORD PTR [rax+16]
; File c:\program files (x86)\microsoft visual studio 12.0\vc\include\xmemory0

; 349  : 			_Objty(_STD forward<_Types>(_Args)...);

	test	rcx, rcx
	je	SHORT $LN28@Buynode
	movsdx	xmm0, QWORD PTR [rbx]
	movsdx	QWORD PTR [rcx], xmm0
	mov	eax, DWORD PTR [rbx+8]
	mov	DWORD PTR [rcx+8], eax
$LN28@Buynode:
; File c:\program files (x86)\microsoft visual studio 12.0\vc\include\list

; 841  : 		return (_Pnode);

	mov	rax, rdx

; 842  : 		}

	add	rsp, 48					; 00000030H
	pop	rbx
	ret	0
$LN40@Buynode:
??$_Buynode@AEBU?$_vector3@M@@@?$_List_buy@U?$_vector3@M@@V?$xalloc@U?$_vector3@M@@@@@std@@QEAAPEAU?$_List_node@U?$_vector3@M@@PEAX@1@PEAU21@0AEBU?$_vector3@M@@@Z ENDP ; std::_List_buy<_vector3<float>,xalloc<_vector3<float> > >::_Buynode<_vector3<float> const & __ptr64>
_TEXT	ENDS
; Function compile flags: /Ogtpy
; File c:\program files (x86)\microsoft visual studio 12.0\vc\include\xmemory0
; File c:\users\nummer\documents\github\olr-3.0\src\xray\xrcore\_stl_extensions.h
; File c:\program files (x86)\microsoft visual studio 12.0\vc\include\list
;	COMDAT text$x
text$x	SEGMENT
$T1 = 32
p$ = 64
this$dead$ = 64
_Pnode$ = 64
_Next$ = 72
_Prev$ = 80
<_Val_0>$ = 88
?catch$0@?0???$_Buynode@AEBU?$_vector3@M@@@?$_List_buy@U?$_vector3@M@@V?$xalloc@U?$_vector3@M@@@@@std@@QEAAPEAU?$_List_node@U?$_vector3@M@@PEAX@1@PEAU21@0AEBU?$_vector3@M@@@Z@4HA PROC ; `std::_List_buy<_vector3<float>,xalloc<_vector3<float> > >::_Buynode<_vector3<float> const & __ptr64>'::`1'::catch$0

; 836  : 		_CATCH_ALL

	mov	QWORD PTR [rsp+16], rdx
	push	rbp
	sub	rsp, 32					; 00000020H
	mov	rbp, rdx
__catch$??$_Buynode@AEBU?$_vector3@M@@@?$_List_buy@U?$_vector3@M@@V?$xalloc@U?$_vector3@M@@@@@std@@QEAAPEAU?$_List_node@U?$_vector3@M@@PEAX@1@PEAU21@0AEBU?$_vector3@M@@@Z$0:
; File c:\program files (x86)\microsoft visual studio 12.0\vc\include\xmemory0

; 858  : 		_Mybase::deallocate(_Ptr, _Count);

	mov	rax, QWORD PTR _Pnode$[rbp]
	mov	QWORD PTR p$[rbp], rax
; File c:\users\nummer\documents\github\olr-3.0\src\xray\xrcore\_stl_extensions.h

; 82   : 							void					deallocate		(pointer p, size_type n) const			{	xr_free	(p);				}

	lea	rcx, QWORD PTR p$[rbp]
	call	??$xr_free@U?$_List_node@U?$_vector3@M@@PEAX@std@@@@YAXAEAPEAU?$_List_node@U?$_vector3@M@@PEAX@std@@@Z ; xr_free<std::_List_node<_vector3<float>,void * __ptr64> >
; File c:\program files (x86)\microsoft visual studio 12.0\vc\include\list

; 838  : 		_RERAISE;

	xor	edx, edx
	xor	ecx, ecx
	call	_CxxThrowException
	npad	1
?catch$0@?0???$_Buynode@AEBU?$_vector3@M@@@?$_List_buy@U?$_vector3@M@@V?$xalloc@U?$_vector3@M@@@@@std@@QEAAPEAU?$_List_node@U?$_vector3@M@@PEAX@1@PEAU21@0AEBU?$_vector3@M@@@Z@4HA ENDP ; `std::_List_buy<_vector3<float>,xalloc<_vector3<float> > >::_Buynode<_vector3<float> const & __ptr64>'::`1'::catch$0
text$x	ENDS
; Function compile flags: /Ogtpy
; File c:\program files (x86)\microsoft visual studio 12.0\vc\include\xmemory0
;	COMDAT ??$?8V?$xalloc@U?$_List_node@U?$_vector3@M@@PEAX@std@@@@V0@@std@@YA_NAEBU?$_Wrap_alloc@V?$xalloc@U?$_List_node@U?$_vector3@M@@PEAX@std@@@@@0@0@Z
_TEXT	SEGMENT
_Left$dead$ = 8
_Right$dead$ = 16
??$?8V?$xalloc@U?$_List_node@U?$_vector3@M@@PEAX@std@@@@V0@@std@@YA_NAEBU?$_Wrap_alloc@V?$xalloc@U?$_List_node@U?$_vector3@M@@PEAX@std@@@@@0@0@Z PROC ; std::operator==<xalloc<std::_List_node<_vector3<float>,void * __ptr64> >,xalloc<std::_List_node<_vector3<float>,void * __ptr64> > >, COMDAT

; 893  : 	return (static_cast<_Ty>(_Left) == static_cast<_Other>(_Right));

	mov	al, 1

; 894  : 	}

	ret	0
??$?8V?$xalloc@U?$_List_node@U?$_vector3@M@@PEAX@std@@@@V0@@std@@YA_NAEBU?$_Wrap_alloc@V?$xalloc@U?$_List_node@U?$_vector3@M@@PEAX@std@@@@@0@0@Z ENDP ; std::operator==<xalloc<std::_List_node<_vector3<float>,void * __ptr64> >,xalloc<std::_List_node<_vector3<float>,void * __ptr64> > >
_TEXT	ENDS
; Function compile flags: /Ogtpy
; File c:\program files (x86)\microsoft visual studio 12.0\vc\include\xmemory0
;	COMDAT ??$destroy@PEAU?$_List_node@U?$_vector3@M@@PEAX@std@@@?$allocator_traits@V?$xalloc@U?$_List_node@U?$_vector3@M@@PEAX@std@@@@@std@@SAXAEAV?$xalloc@U?$_List_node@U?$_vector3@M@@PEAX@std@@@@PEAPEAU?$_List_node@U?$_vector3@M@@PEAX@1@@Z
_TEXT	SEGMENT
_Al$dead$ = 8
_Ptr$dead$ = 16
??$destroy@PEAU?$_List_node@U?$_vector3@M@@PEAX@std@@@?$allocator_traits@V?$xalloc@U?$_List_node@U?$_vector3@M@@PEAX@std@@@@@std@@SAXAEAV?$xalloc@U?$_List_node@U?$_vector3@M@@PEAX@std@@@@PEAPEAU?$_List_node@U?$_vector3@M@@PEAX@1@@Z PROC ; std::allocator_traits<xalloc<std::_List_node<_vector3<float>,void * __ptr64> > >::destroy<std::_List_node<_vector3<float>,void * __ptr64> * __ptr64>, COMDAT

; 475  : 		{	// destroy object at _Ptr
; 476  : 		_Alloc_destroy::_Fn(0, _Al, _Ptr);
; 477  : 		}

	ret	0
??$destroy@PEAU?$_List_node@U?$_vector3@M@@PEAX@std@@@?$allocator_traits@V?$xalloc@U?$_List_node@U?$_vector3@M@@PEAX@std@@@@@std@@SAXAEAV?$xalloc@U?$_List_node@U?$_vector3@M@@PEAX@std@@@@PEAPEAU?$_List_node@U?$_vector3@M@@PEAX@1@@Z ENDP ; std::allocator_traits<xalloc<std::_List_node<_vector3<float>,void * __ptr64> > >::destroy<std::_List_node<_vector3<float>,void * __ptr64> * __ptr64>
_TEXT	ENDS
; Function compile flags: /Ogtpy
; File c:\program files (x86)\microsoft visual studio 12.0\vc\include\xmemory0
;	COMDAT ??$destroy@U?$_vector3@M@@@?$allocator_traits@V?$xalloc@U?$_List_node@U?$_vector3@M@@PEAX@std@@@@@std@@SAXAEAV?$xalloc@U?$_List_node@U?$_vector3@M@@PEAX@std@@@@PEAU?$_vector3@M@@@Z
_TEXT	SEGMENT
_Al$dead$ = 8
_Ptr$dead$ = 16
??$destroy@U?$_vector3@M@@@?$allocator_traits@V?$xalloc@U?$_List_node@U?$_vector3@M@@PEAX@std@@@@@std@@SAXAEAV?$xalloc@U?$_List_node@U?$_vector3@M@@PEAX@std@@@@PEAU?$_vector3@M@@@Z PROC ; std::allocator_traits<xalloc<std::_List_node<_vector3<float>,void * __ptr64> > >::destroy<_vector3<float> >, COMDAT

; 475  : 		{	// destroy object at _Ptr
; 476  : 		_Alloc_destroy::_Fn(0, _Al, _Ptr);
; 477  : 		}

	ret	0
??$destroy@U?$_vector3@M@@@?$allocator_traits@V?$xalloc@U?$_List_node@U?$_vector3@M@@PEAX@std@@@@@std@@SAXAEAV?$xalloc@U?$_List_node@U?$_vector3@M@@PEAX@std@@@@PEAU?$_vector3@M@@@Z ENDP ; std::allocator_traits<xalloc<std::_List_node<_vector3<float>,void * __ptr64> > >::destroy<_vector3<float> >
_TEXT	ENDS
; Function compile flags: /Ogtpy
; File c:\program files (x86)\microsoft visual studio 12.0\vc\include\type_traits
;	COMDAT ??$forward@AEAPEAU?$_List_node@U?$_vector3@M@@PEAX@std@@@std@@YAAEAPEAU?$_List_node@U?$_vector3@M@@PEAX@0@AEAPEAU10@@Z
_TEXT	SEGMENT
_Arg$ = 8
??$forward@AEAPEAU?$_List_node@U?$_vector3@M@@PEAX@std@@@std@@YAAEAPEAU?$_List_node@U?$_vector3@M@@PEAX@0@AEAPEAU10@@Z PROC ; std::forward<std::_List_node<_vector3<float>,void * __ptr64> * __ptr64 & __ptr64>, COMDAT

; 1505 : 	return (static_cast<_Ty&&>(_Arg));

	mov	rax, rcx

; 1506 : 	}

	ret	0
??$forward@AEAPEAU?$_List_node@U?$_vector3@M@@PEAX@std@@@std@@YAAEAPEAU?$_List_node@U?$_vector3@M@@PEAX@0@AEAPEAU10@@Z ENDP ; std::forward<std::_List_node<_vector3<float>,void * __ptr64> * __ptr64 & __ptr64>
_TEXT	ENDS
; Function compile flags: /Ogtpy
; File c:\program files (x86)\microsoft visual studio 12.0\vc\include\xmemory0
;	COMDAT ??$construct@PEAU?$_List_node@U?$_vector3@M@@PEAX@std@@AEAPEAU12@@?$allocator_traits@V?$xalloc@U?$_List_node@U?$_vector3@M@@PEAX@std@@@@@std@@SAXAEAV?$xalloc@U?$_List_node@U?$_vector3@M@@PEAX@std@@@@PEAPEAU?$_List_node@U?$_vector3@M@@PEAX@1@AEAPEAU31@@Z
_TEXT	SEGMENT
_Al$dead$ = 8
_Ptr$ = 16
<_Args_0>$ = 24
??$construct@PEAU?$_List_node@U?$_vector3@M@@PEAX@std@@AEAPEAU12@@?$allocator_traits@V?$xalloc@U?$_List_node@U?$_vector3@M@@PEAX@std@@@@@std@@SAXAEAV?$xalloc@U?$_List_node@U?$_vector3@M@@PEAX@std@@@@PEAPEAU?$_List_node@U?$_vector3@M@@PEAX@1@AEAPEAU31@@Z PROC ; std::allocator_traits<xalloc<std::_List_node<_vector3<float>,void * __ptr64> > >::construct<std::_List_node<_vector3<float>,void * __ptr64> * __ptr64,std::_List_node<_vector3<float>,void * __ptr64> * __ptr64 & __ptr64>, COMDAT

; 349  : 			_Objty(_STD forward<_Types>(_Args)...);

	test	rdx, rdx
	je	SHORT $LN9@construct
	mov	rax, QWORD PTR [r8]
	mov	QWORD PTR [rdx], rax
$LN9@construct:

; 466  : 			_Types&&... _Args)
; 467  : 		{	// construct _Ty(_Types...) at _Ptr
; 468  : 		_Alloc_construct::_Fn(0, _Al, _Ptr,
; 469  : 			_STD forward<_Types>(_Args)...);
; 470  : 		}

	ret	0
??$construct@PEAU?$_List_node@U?$_vector3@M@@PEAX@std@@AEAPEAU12@@?$allocator_traits@V?$xalloc@U?$_List_node@U?$_vector3@M@@PEAX@std@@@@@std@@SAXAEAV?$xalloc@U?$_List_node@U?$_vector3@M@@PEAX@std@@@@PEAPEAU?$_List_node@U?$_vector3@M@@PEAX@1@AEAPEAU31@@Z ENDP ; std::allocator_traits<xalloc<std::_List_node<_vector3<float>,void * __ptr64> > >::construct<std::_List_node<_vector3<float>,void * __ptr64> * __ptr64,std::_List_node<_vector3<float>,void * __ptr64> * __ptr64 & __ptr64>
_TEXT	ENDS
; Function compile flags: /Ogtpy
; File c:\users\nummer\documents\github\olr-3.0\src\xray\xrcore\_stl_extensions.h
;	COMDAT ??0?$xalloc@U?$_List_node@U?$_vector3@M@@PEAX@std@@@@QEAA@AEBV0@@Z
_TEXT	SEGMENT
this$ = 8
__formal$dead$ = 16
??0?$xalloc@U?$_List_node@U?$_vector3@M@@PEAX@std@@@@QEAA@AEBV0@@Z PROC ; xalloc<std::_List_node<_vector3<float>,void * __ptr64> >::xalloc<std::_List_node<_vector3<float>,void * __ptr64> >, COMDAT

; 77   : 													xalloc			(const xalloc<T>&)						{	}

	mov	rax, rcx
	ret	0
??0?$xalloc@U?$_List_node@U?$_vector3@M@@PEAX@std@@@@QEAA@AEBV0@@Z ENDP ; xalloc<std::_List_node<_vector3<float>,void * __ptr64> >::xalloc<std::_List_node<_vector3<float>,void * __ptr64> >
_TEXT	ENDS
; Function compile flags: /Ogtpy
; File c:\program files (x86)\microsoft visual studio 12.0\vc\include\xmemory0
;	COMDAT ??$construct@U?$_vector3@M@@AEBU1@@?$_Wrap_alloc@V?$xalloc@U?$_List_node@U?$_vector3@M@@PEAX@std@@@@@std@@QEAAXPEAU?$_vector3@M@@AEBU2@@Z
_TEXT	SEGMENT
this$dead$ = 8
_Ptr$ = 16
<_Args_0>$ = 24
??$construct@U?$_vector3@M@@AEBU1@@?$_Wrap_alloc@V?$xalloc@U?$_List_node@U?$_vector3@M@@PEAX@std@@@@@std@@QEAAXPEAU?$_vector3@M@@AEBU2@@Z PROC ; std::_Wrap_alloc<xalloc<std::_List_node<_vector3<float>,void * __ptr64> > >::construct<_vector3<float>,_vector3<float> const & __ptr64>, COMDAT

; 349  : 			_Objty(_STD forward<_Types>(_Args)...);

	test	rdx, rdx
	je	SHORT $LN13@construct
	movsdx	xmm0, QWORD PTR [r8]
	movsdx	QWORD PTR [rdx], xmm0
	mov	eax, DWORD PTR [r8+8]
	mov	DWORD PTR [rdx+8], eax
$LN13@construct:

; 869  : 			_Types&&... _Args)
; 870  : 		{	// construct _Ty(_Types...) at _Ptr
; 871  : 		_Mytraits::construct(*this, _Ptr,
; 872  : 			_STD forward<_Types>(_Args)...);
; 873  : 		}

	ret	0
??$construct@U?$_vector3@M@@AEBU1@@?$_Wrap_alloc@V?$xalloc@U?$_List_node@U?$_vector3@M@@PEAX@std@@@@@std@@QEAAXPEAU?$_vector3@M@@AEBU2@@Z ENDP ; std::_Wrap_alloc<xalloc<std::_List_node<_vector3<float>,void * __ptr64> > >::construct<_vector3<float>,_vector3<float> const & __ptr64>
_TEXT	ENDS
; Function compile flags: /Ogtpy
; File c:\users\nummer\documents\github\olr-3.0\src\xray\xrcore\_stl_extensions.h
;	COMDAT ??$?8U?$_List_node@U?$_vector3@M@@PEAX@std@@U01@@@YA_NAEBV?$xalloc@U?$_List_node@U?$_vector3@M@@PEAX@std@@@@0@Z
_TEXT	SEGMENT
__formal$dead$ = 8
__formal$dead$ = 16
??$?8U?$_List_node@U?$_vector3@M@@PEAX@std@@U01@@@YA_NAEBV?$xalloc@U?$_List_node@U?$_vector3@M@@PEAX@std@@@@0@Z PROC ; operator==<std::_List_node<_vector3<float>,void * __ptr64>,std::_List_node<_vector3<float>,void * __ptr64> >, COMDAT

; 100  : template<class _Ty,	class _Other>	inline	bool operator==(const xalloc<_Ty>&, const xalloc<_Other>&)		{	return (true);							}

	mov	al, 1
	ret	0
??$?8U?$_List_node@U?$_vector3@M@@PEAX@std@@U01@@@YA_NAEBV?$xalloc@U?$_List_node@U?$_vector3@M@@PEAX@std@@@@0@Z ENDP ; operator==<std::_List_node<_vector3<float>,void * __ptr64>,std::_List_node<_vector3<float>,void * __ptr64> >
_TEXT	ENDS
; Function compile flags: /Ogtpy
; File c:\program files (x86)\microsoft visual studio 12.0\vc\include\xmemory0
;	COMDAT ??$_Fn@V?$xalloc@U?$_List_node@U?$_vector3@M@@PEAX@std@@@@PEAU?$_List_node@U?$_vector3@M@@PEAX@std@@@_Alloc_destroy@std@@SAXU_Wrap_int@1@AEAV?$xalloc@U?$_List_node@U?$_vector3@M@@PEAX@std@@@@PEAPEAU?$_List_node@U?$_vector3@M@@PEAX@1@@Z
_TEXT	SEGMENT
__formal$dead$ = 8
__formal$dead$ = 16
_Ptr$dead$ = 24
??$_Fn@V?$xalloc@U?$_List_node@U?$_vector3@M@@PEAX@std@@@@PEAU?$_List_node@U?$_vector3@M@@PEAX@std@@@_Alloc_destroy@std@@SAXU_Wrap_int@1@AEAV?$xalloc@U?$_List_node@U?$_vector3@M@@PEAX@std@@@@PEAPEAU?$_List_node@U?$_vector3@M@@PEAX@1@@Z PROC ; std::_Alloc_destroy::_Fn<xalloc<std::_List_node<_vector3<float>,void * __ptr64> >,std::_List_node<_vector3<float>,void * __ptr64> * __ptr64>, COMDAT

; 370  : 		_Ptr->~_Objty();
; 371  : 		}

	ret	0
??$_Fn@V?$xalloc@U?$_List_node@U?$_vector3@M@@PEAX@std@@@@PEAU?$_List_node@U?$_vector3@M@@PEAX@std@@@_Alloc_destroy@std@@SAXU_Wrap_int@1@AEAV?$xalloc@U?$_List_node@U?$_vector3@M@@PEAX@std@@@@PEAPEAU?$_List_node@U?$_vector3@M@@PEAX@1@@Z ENDP ; std::_Alloc_destroy::_Fn<xalloc<std::_List_node<_vector3<float>,void * __ptr64> >,std::_List_node<_vector3<float>,void * __ptr64> * __ptr64>
_TEXT	ENDS
; Function compile flags: /Ogtpy
; File c:\program files (x86)\microsoft visual studio 12.0\vc\include\xmemory0
;	COMDAT ??$_Fn@V?$xalloc@U?$_List_node@U?$_vector3@M@@PEAX@std@@@@U?$_vector3@M@@@_Alloc_destroy@std@@SAXU_Wrap_int@1@AEAV?$xalloc@U?$_List_node@U?$_vector3@M@@PEAX@std@@@@PEAU?$_vector3@M@@@Z
_TEXT	SEGMENT
__formal$dead$ = 8
__formal$dead$ = 16
_Ptr$dead$ = 24
??$_Fn@V?$xalloc@U?$_List_node@U?$_vector3@M@@PEAX@std@@@@U?$_vector3@M@@@_Alloc_destroy@std@@SAXU_Wrap_int@1@AEAV?$xalloc@U?$_List_node@U?$_vector3@M@@PEAX@std@@@@PEAU?$_vector3@M@@@Z PROC ; std::_Alloc_destroy::_Fn<xalloc<std::_List_node<_vector3<float>,void * __ptr64> >,_vector3<float> >, COMDAT

; 370  : 		_Ptr->~_Objty();
; 371  : 		}

	ret	0
??$_Fn@V?$xalloc@U?$_List_node@U?$_vector3@M@@PEAX@std@@@@U?$_vector3@M@@@_Alloc_destroy@std@@SAXU_Wrap_int@1@AEAV?$xalloc@U?$_List_node@U?$_vector3@M@@PEAX@std@@@@PEAU?$_vector3@M@@@Z ENDP ; std::_Alloc_destroy::_Fn<xalloc<std::_List_node<_vector3<float>,void * __ptr64> >,_vector3<float> >
_TEXT	ENDS
; Function compile flags: /Ogtpy
; File c:\program files (x86)\microsoft visual studio 12.0\vc\include\xmemory0
;	COMDAT ??$_Fn@V?$xalloc@U?$_List_node@U?$_vector3@M@@PEAX@std@@@@PEAU?$_List_node@U?$_vector3@M@@PEAX@std@@AEAPEAU23@@_Alloc_construct@std@@SAXU_Wrap_int@1@AEAV?$xalloc@U?$_List_node@U?$_vector3@M@@PEAX@std@@@@PEAPEAU?$_List_node@U?$_vector3@M@@PEAX@1@AEAPEAU41@@Z
_TEXT	SEGMENT
__formal$dead$ = 8
__formal$dead$ = 16
_Ptr$ = 24
<_Args_0>$ = 32
??$_Fn@V?$xalloc@U?$_List_node@U?$_vector3@M@@PEAX@std@@@@PEAU?$_List_node@U?$_vector3@M@@PEAX@std@@AEAPEAU23@@_Alloc_construct@std@@SAXU_Wrap_int@1@AEAV?$xalloc@U?$_List_node@U?$_vector3@M@@PEAX@std@@@@PEAPEAU?$_List_node@U?$_vector3@M@@PEAX@1@AEAPEAU41@@Z PROC ; std::_Alloc_construct::_Fn<xalloc<std::_List_node<_vector3<float>,void * __ptr64> >,std::_List_node<_vector3<float>,void * __ptr64> * __ptr64,std::_List_node<_vector3<float>,void * __ptr64> * __ptr64 & __ptr64>, COMDAT

; 348  : 		::new (static_cast<void *>(_Ptr))
; 349  : 			_Objty(_STD forward<_Types>(_Args)...);

	test	r8, r8
	je	SHORT $LN3@Fn
	mov	rax, QWORD PTR [r9]
	mov	QWORD PTR [r8], rax
$LN3@Fn:

; 350  : 		}

	ret	0
??$_Fn@V?$xalloc@U?$_List_node@U?$_vector3@M@@PEAX@std@@@@PEAU?$_List_node@U?$_vector3@M@@PEAX@std@@AEAPEAU23@@_Alloc_construct@std@@SAXU_Wrap_int@1@AEAV?$xalloc@U?$_List_node@U?$_vector3@M@@PEAX@std@@@@PEAPEAU?$_List_node@U?$_vector3@M@@PEAX@1@AEAPEAU41@@Z ENDP ; std::_Alloc_construct::_Fn<xalloc<std::_List_node<_vector3<float>,void * __ptr64> >,std::_List_node<_vector3<float>,void * __ptr64> * __ptr64,std::_List_node<_vector3<float>,void * __ptr64> * __ptr64 & __ptr64>
_TEXT	ENDS
; Function compile flags: /Ogtpy
; File c:\program files (x86)\microsoft visual studio 12.0\vc\include\xmemory0
;	COMDAT ??$construct@U?$_vector3@M@@AEBU1@@?$allocator_traits@V?$xalloc@U?$_List_node@U?$_vector3@M@@PEAX@std@@@@@std@@SAXAEAV?$xalloc@U?$_List_node@U?$_vector3@M@@PEAX@std@@@@PEAU?$_vector3@M@@AEBU3@@Z
_TEXT	SEGMENT
_Al$dead$ = 8
_Ptr$ = 16
<_Args_0>$ = 24
??$construct@U?$_vector3@M@@AEBU1@@?$allocator_traits@V?$xalloc@U?$_List_node@U?$_vector3@M@@PEAX@std@@@@@std@@SAXAEAV?$xalloc@U?$_List_node@U?$_vector3@M@@PEAX@std@@@@PEAU?$_vector3@M@@AEBU3@@Z PROC ; std::allocator_traits<xalloc<std::_List_node<_vector3<float>,void * __ptr64> > >::construct<_vector3<float>,_vector3<float> const & __ptr64>, COMDAT

; 349  : 			_Objty(_STD forward<_Types>(_Args)...);

	test	rdx, rdx
	je	SHORT $LN9@construct
	movsdx	xmm0, QWORD PTR [r8]
	movsdx	QWORD PTR [rdx], xmm0
	mov	eax, DWORD PTR [r8+8]
	mov	DWORD PTR [rdx+8], eax
$LN9@construct:

; 466  : 			_Types&&... _Args)
; 467  : 		{	// construct _Ty(_Types...) at _Ptr
; 468  : 		_Alloc_construct::_Fn(0, _Al, _Ptr,
; 469  : 			_STD forward<_Types>(_Args)...);
; 470  : 		}

	ret	0
??$construct@U?$_vector3@M@@AEBU1@@?$allocator_traits@V?$xalloc@U?$_List_node@U?$_vector3@M@@PEAX@std@@@@@std@@SAXAEAV?$xalloc@U?$_List_node@U?$_vector3@M@@PEAX@std@@@@PEAU?$_vector3@M@@AEBU3@@Z ENDP ; std::allocator_traits<xalloc<std::_List_node<_vector3<float>,void * __ptr64> > >::construct<_vector3<float>,_vector3<float> const & __ptr64>
_TEXT	ENDS
; Function compile flags: /Ogtpy
; File c:\program files (x86)\microsoft visual studio 12.0\vc\include\xmemory0
;	COMDAT ??$_Fn@V?$xalloc@U?$_List_node@U?$_vector3@M@@PEAX@std@@@@U?$_vector3@M@@AEBU2@@_Alloc_construct@std@@SAXU_Wrap_int@1@AEAV?$xalloc@U?$_List_node@U?$_vector3@M@@PEAX@std@@@@PEAU?$_vector3@M@@AEBU4@@Z
_TEXT	SEGMENT
__formal$dead$ = 8
__formal$dead$ = 16
_Ptr$ = 24
<_Args_0>$ = 32
??$_Fn@V?$xalloc@U?$_List_node@U?$_vector3@M@@PEAX@std@@@@U?$_vector3@M@@AEBU2@@_Alloc_construct@std@@SAXU_Wrap_int@1@AEAV?$xalloc@U?$_List_node@U?$_vector3@M@@PEAX@std@@@@PEAU?$_vector3@M@@AEBU4@@Z PROC ; std::_Alloc_construct::_Fn<xalloc<std::_List_node<_vector3<float>,void * __ptr64> >,_vector3<float>,_vector3<float> const & __ptr64>, COMDAT

; 348  : 		::new (static_cast<void *>(_Ptr))
; 349  : 			_Objty(_STD forward<_Types>(_Args)...);

	test	r8, r8
	je	SHORT $LN3@Fn
	movsdx	xmm0, QWORD PTR [r9]
	movsdx	QWORD PTR [r8], xmm0
	mov	eax, DWORD PTR [r9+8]
	mov	DWORD PTR [r8+8], eax
$LN3@Fn:

; 350  : 		}

	ret	0
??$_Fn@V?$xalloc@U?$_List_node@U?$_vector3@M@@PEAX@std@@@@U?$_vector3@M@@AEBU2@@_Alloc_construct@std@@SAXU_Wrap_int@1@AEAV?$xalloc@U?$_List_node@U?$_vector3@M@@PEAX@std@@@@PEAU?$_vector3@M@@AEBU4@@Z ENDP ; std::_Alloc_construct::_Fn<xalloc<std::_List_node<_vector3<float>,void * __ptr64> >,_vector3<float>,_vector3<float> const & __ptr64>
_TEXT	ENDS
END
