; Listing generated by Microsoft (R) Optimizing Compiler Version 16.00.40219.01 

include listing.inc

INCLUDELIB OLDNAMES

PUBLIC	??0CTimerBase@@QEAA@XZ				; CTimerBase::CTimerBase
PUBLIC	??0CTimer@@QEAA@XZ				; CTimer::CTimer
PUBLIC	??0?$xalloc@PEAVCTimer_paused@@@@QEAA@XZ	; xalloc<CTimer_paused * __ptr64>::xalloc<CTimer_paused * __ptr64>
PUBLIC	??0?$xalloc@PEAVCTimer_paused@@@@QEAA@AEBV0@@Z	; xalloc<CTimer_paused * __ptr64>::xalloc<CTimer_paused * __ptr64>
PUBLIC	??0?$_Vector_val@PEAVCTimer_paused@@V?$xalloc@PEAVCTimer_paused@@@@@std@@QEAA@V?$xalloc@PEAVCTimer_paused@@@@@Z ; std::_Vector_val<CTimer_paused * __ptr64,xalloc<CTimer_paused * __ptr64> >::_Vector_val<CTimer_paused * __ptr64,xalloc<CTimer_paused * __ptr64> >
PUBLIC	??0?$vector@PEAVCTimer_paused@@V?$xalloc@PEAVCTimer_paused@@@@@std@@QEAA@XZ ; std::vector<CTimer_paused * __ptr64,xalloc<CTimer_paused * __ptr64> >::vector<CTimer_paused * __ptr64,xalloc<CTimer_paused * __ptr64> >
PUBLIC	??0?$xr_vector@PEAVCTimer_paused@@V?$xalloc@PEAVCTimer_paused@@@@@@QEAA@XZ ; xr_vector<CTimer_paused * __ptr64,xalloc<CTimer_paused * __ptr64> >::xr_vector<CTimer_paused * __ptr64,xalloc<CTimer_paused * __ptr64> >
PUBLIC	?GetElapsed_ticks@CTimerBase@@QEBA_KXZ		; CTimerBase::GetElapsed_ticks
PUBLIC	?Pause@CTimer_paused_ex@@QEAAXH@Z		; CTimer_paused_ex::Pause
PUBLIC	??D?$_Vector_const_iterator@V?$_Vector_val@PEAVCTimer_paused@@V?$xalloc@PEAVCTimer_paused@@@@@std@@@std@@QEBAAEBQEAVCTimer_paused@@XZ ; std::_Vector_const_iterator<std::_Vector_val<CTimer_paused * __ptr64,xalloc<CTimer_paused * __ptr64> > >::operator*
PUBLIC	??D?$_Vector_iterator@V?$_Vector_val@PEAVCTimer_paused@@V?$xalloc@PEAVCTimer_paused@@@@@std@@@std@@QEBAAEAPEAVCTimer_paused@@XZ ; std::_Vector_iterator<std::_Vector_val<CTimer_paused * __ptr64,xalloc<CTimer_paused * __ptr64> > >::operator*
PUBLIC	??E?$_Vector_const_iterator@V?$_Vector_val@PEAVCTimer_paused@@V?$xalloc@PEAVCTimer_paused@@@@@std@@@std@@QEAAAEAV01@XZ ; std::_Vector_const_iterator<std::_Vector_val<CTimer_paused * __ptr64,xalloc<CTimer_paused * __ptr64> > >::operator++
PUBLIC	??E?$_Vector_iterator@V?$_Vector_val@PEAVCTimer_paused@@V?$xalloc@PEAVCTimer_paused@@@@@std@@@std@@QEAAAEAV01@XZ ; std::_Vector_iterator<std::_Vector_val<CTimer_paused * __ptr64,xalloc<CTimer_paused * __ptr64> > >::operator++
PUBLIC	?_Inside@?$vector@PEAVCTimer_paused@@V?$xalloc@PEAVCTimer_paused@@@@@std@@IEBA_NPEBQEAVCTimer_paused@@@Z ; std::vector<CTimer_paused * __ptr64,xalloc<CTimer_paused * __ptr64> >::_Inside
PUBLIC	??$xr_alloc@PEAVCTimer_paused@@@@YAPEAPEAVCTimer_paused@@I@Z ; xr_alloc<CTimer_paused * __ptr64>
PUBLIC	?allocate@?$xalloc@PEAVCTimer_paused@@@@QEBAPEAPEAVCTimer_paused@@_KPEBX@Z ; xalloc<CTimer_paused * __ptr64>::allocate
PUBLIC	??$_Val_type@PEAPEAVCTimer_paused@@@std@@YAPEAPEAVCTimer_paused@@PEAPEAV1@@Z ; std::_Val_type<CTimer_paused * __ptr64 * __ptr64>
PUBLIC	??$_Destroy@PEAVCTimer_paused@@@std@@YAXPEAPEAVCTimer_paused@@@Z ; std::_Destroy<CTimer_paused * __ptr64>
PUBLIC	?destroy@?$xalloc@PEAVCTimer_paused@@@@QEAAXPEAPEAVCTimer_paused@@@Z ; xalloc<CTimer_paused * __ptr64>::destroy
PUBLIC	??$_Dest_val@V?$xalloc@PEAVCTimer_paused@@@@PEAVCTimer_paused@@@std@@YAXAEAV?$xalloc@PEAVCTimer_paused@@@@PEAPEAVCTimer_paused@@@Z ; std::_Dest_val<xalloc<CTimer_paused * __ptr64>,CTimer_paused * __ptr64>
PUBLIC	??$forward@PEAVCTimer_paused@@@std@@YA$$QEAPEAVCTimer_paused@@AEAPEAV1@@Z ; std::forward<CTimer_paused * __ptr64>
PUBLIC	??$_Cons_val@V?$xalloc@PEAVCTimer_paused@@@@PEAVCTimer_paused@@PEAV2@@std@@YAXAEAV?$xalloc@PEAVCTimer_paused@@@@PEAPEAVCTimer_paused@@$$QEAPEAV2@@Z ; std::_Cons_val<xalloc<CTimer_paused * __ptr64>,CTimer_paused * __ptr64,CTimer_paused * __ptr64>
PUBLIC	??$_Uninit_move@PEAPEAVCTimer_paused@@PEAPEAV1@V?$xalloc@PEAVCTimer_paused@@@@PEAV1@@std@@YAPEAPEAVCTimer_paused@@PEAPEAV1@00AEAV?$xalloc@PEAVCTimer_paused@@@@0U_Nonscalar_ptr_iterator_tag@0@@Z ; std::_Uninit_move<CTimer_paused * __ptr64 * __ptr64,CTimer_paused * __ptr64 * __ptr64,xalloc<CTimer_paused * __ptr64>,CTimer_paused * __ptr64>
PUBLIC	??$_Uninit_move@PEAPEAVCTimer_paused@@PEAPEAV1@V?$xalloc@PEAVCTimer_paused@@@@PEAV1@@std@@YAPEAPEAVCTimer_paused@@PEAPEAV1@00AEAV?$xalloc@PEAVCTimer_paused@@@@0U_Scalar_ptr_iterator_tag@0@@Z ; std::_Uninit_move<CTimer_paused * __ptr64 * __ptr64,CTimer_paused * __ptr64 * __ptr64,xalloc<CTimer_paused * __ptr64>,CTimer_paused * __ptr64>
PUBLIC	??$_Uninitialized_move@PEAPEAVCTimer_paused@@PEAPEAV1@V?$xalloc@PEAVCTimer_paused@@@@@std@@YAPEAPEAVCTimer_paused@@PEAPEAV1@00AEAV?$xalloc@PEAVCTimer_paused@@@@@Z ; std::_Uninitialized_move<CTimer_paused * __ptr64 * __ptr64,CTimer_paused * __ptr64 * __ptr64,xalloc<CTimer_paused * __ptr64> >
PUBLIC	??$_Umove@PEAPEAVCTimer_paused@@@?$vector@PEAVCTimer_paused@@V?$xalloc@PEAVCTimer_paused@@@@@std@@IEAAPEAPEAVCTimer_paused@@PEAPEAV2@00@Z ; std::vector<CTimer_paused * __ptr64,xalloc<CTimer_paused * __ptr64> >::_Umove<CTimer_paused * __ptr64 * __ptr64>
PUBLIC	?reserve@?$vector@PEAVCTimer_paused@@V?$xalloc@PEAVCTimer_paused@@@@@std@@QEAAX_K@Z ; std::vector<CTimer_paused * __ptr64,xalloc<CTimer_paused * __ptr64> >::reserve
PUBLIC	?size@?$vector@PEAVCTimer_paused@@V?$xalloc@PEAVCTimer_paused@@@@@std@@QEBA_KXZ ; std::vector<CTimer_paused * __ptr64,xalloc<CTimer_paused * __ptr64> >::size
PUBLIC	?capacity@?$vector@PEAVCTimer_paused@@V?$xalloc@PEAVCTimer_paused@@@@@std@@QEBA_KXZ ; std::vector<CTimer_paused * __ptr64,xalloc<CTimer_paused * __ptr64> >::capacity
PUBLIC	?max_size@?$xalloc@PEAVCTimer_paused@@@@QEBA_KXZ ; xalloc<CTimer_paused * __ptr64>::max_size
PUBLIC	?max_size@?$vector@PEAVCTimer_paused@@V?$xalloc@PEAVCTimer_paused@@@@@std@@QEBA_KXZ ; std::vector<CTimer_paused * __ptr64,xalloc<CTimer_paused * __ptr64> >::max_size
PUBLIC	?_Grow_to@?$vector@PEAVCTimer_paused@@V?$xalloc@PEAVCTimer_paused@@@@@std@@IEBA_K_K@Z ; std::vector<CTimer_paused * __ptr64,xalloc<CTimer_paused * __ptr64> >::_Grow_to
PUBLIC	?_Xlen@?$vector@PEAVCTimer_paused@@V?$xalloc@PEAVCTimer_paused@@@@@std@@IEBAXXZ ; std::vector<CTimer_paused * __ptr64,xalloc<CTimer_paused * __ptr64> >::_Xlen
PUBLIC	?_Reserve@?$vector@PEAVCTimer_paused@@V?$xalloc@PEAVCTimer_paused@@@@@std@@IEAAX_K@Z ; std::vector<CTimer_paused * __ptr64,xalloc<CTimer_paused * __ptr64> >::_Reserve
PUBLIC	?_Orphan_range@?$vector@PEAVCTimer_paused@@V?$xalloc@PEAVCTimer_paused@@@@@std@@IEBAXPEAPEAVCTimer_paused@@0@Z ; std::vector<CTimer_paused * __ptr64,xalloc<CTimer_paused * __ptr64> >::_Orphan_range
PUBLIC	??$_Cons_val@V?$xalloc@PEAVCTimer_paused@@@@PEAVCTimer_paused@@AEBQEAV2@@std@@YAXAEAV?$xalloc@PEAVCTimer_paused@@@@PEAPEAVCTimer_paused@@AEBQEAV2@@Z ; std::_Cons_val<xalloc<CTimer_paused * __ptr64>,CTimer_paused * __ptr64,CTimer_paused * __ptr64 const & __ptr64>
PUBLIC	??2@YAPEAX_KPEAX@Z				; operator new
PUBLIC	??$forward@AEBQEAVCTimer_paused@@@std@@YAAEBQEAVCTimer_paused@@AEBQEAV1@@Z ; std::forward<CTimer_paused * __ptr64 const & __ptr64>
PUBLIC	??$_Construct@PEAVCTimer_paused@@AEBQEAV1@@std@@YAXPEAPEAVCTimer_paused@@AEBQEAV1@@Z ; std::_Construct<CTimer_paused * __ptr64,CTimer_paused * __ptr64 const & __ptr64>
PUBLIC	?construct@?$xalloc@PEAVCTimer_paused@@@@QEAAXPEAPEAVCTimer_paused@@AEBQEAV2@@Z ; xalloc<CTimer_paused * __ptr64>::construct
PUBLIC	??$forward@AEAPEAVCTimer_paused@@@std@@YAAEAPEAVCTimer_paused@@AEAPEAV1@@Z ; std::forward<CTimer_paused * __ptr64 & __ptr64>
PUBLIC	??$_Cons_val@V?$xalloc@PEAVCTimer_paused@@@@PEAVCTimer_paused@@AEAPEAV2@@std@@YAXAEAV?$xalloc@PEAVCTimer_paused@@@@PEAPEAVCTimer_paused@@AEAPEAV2@@Z ; std::_Cons_val<xalloc<CTimer_paused * __ptr64>,CTimer_paused * __ptr64,CTimer_paused * __ptr64 & __ptr64>
PUBLIC	??$addressof@QEAVCTimer_paused@@@std@@YAPEBQEAVCTimer_paused@@AEBQEAV1@@Z ; std::addressof<CTimer_paused * __ptr64 const>
PUBLIC	?push_back@?$vector@PEAVCTimer_paused@@V?$xalloc@PEAVCTimer_paused@@@@@std@@QEAAXAEBQEAVCTimer_paused@@@Z ; std::vector<CTimer_paused * __ptr64,xalloc<CTimer_paused * __ptr64> >::push_back
PUBLIC	?begin@?$vector@PEAVCTimer_paused@@V?$xalloc@PEAVCTimer_paused@@@@@std@@QEAA?AV?$_Vector_iterator@V?$_Vector_val@PEAVCTimer_paused@@V?$xalloc@PEAVCTimer_paused@@@@@std@@@2@XZ ; std::vector<CTimer_paused * __ptr64,xalloc<CTimer_paused * __ptr64> >::begin
PUBLIC	?end@?$vector@PEAVCTimer_paused@@V?$xalloc@PEAVCTimer_paused@@@@@std@@QEAA?AV?$_Vector_iterator@V?$_Vector_val@PEAVCTimer_paused@@V?$xalloc@PEAVCTimer_paused@@@@@std@@@2@XZ ; std::vector<CTimer_paused * __ptr64,xalloc<CTimer_paused * __ptr64> >::end
PUBLIC	?_Adopt@_Iterator_base0@std@@QEAAXPEBX@Z	; std::_Iterator_base0::_Adopt
PUBLIC	??0?$_Vector_const_iterator@V?$_Vector_val@PEAVCTimer_paused@@V?$xalloc@PEAVCTimer_paused@@@@@std@@@std@@QEAA@PEAPEAVCTimer_paused@@PEBU_Container_base0@1@@Z ; std::_Vector_const_iterator<std::_Vector_val<CTimer_paused * __ptr64,xalloc<CTimer_paused * __ptr64> > >::_Vector_const_iterator<std::_Vector_val<CTimer_paused * __ptr64,xalloc<CTimer_paused * __ptr64> > >
PUBLIC	??0?$_Vector_iterator@V?$_Vector_val@PEAVCTimer_paused@@V?$xalloc@PEAVCTimer_paused@@@@@std@@@std@@QEAA@PEAPEAVCTimer_paused@@PEBU_Container_base0@1@@Z ; std::_Vector_iterator<std::_Vector_val<CTimer_paused * __ptr64,xalloc<CTimer_paused * __ptr64> > >::_Vector_iterator<std::_Vector_val<CTimer_paused * __ptr64,xalloc<CTimer_paused * __ptr64> > >
PUBLIC	?_Make_iter@?$vector@PEAVCTimer_paused@@V?$xalloc@PEAVCTimer_paused@@@@@std@@QEBA?AV?$_Vector_iterator@V?$_Vector_val@PEAVCTimer_paused@@V?$xalloc@PEAVCTimer_paused@@@@@std@@@2@V?$_Vector_const_iterator@V?$_Vector_val@PEAVCTimer_paused@@V?$xalloc@PEAVCTimer_paused@@@@@std@@@2@@Z ; std::vector<CTimer_paused * __ptr64,xalloc<CTimer_paused * __ptr64> >::_Make_iter
PUBLIC	??$_Move@PEAPEAVCTimer_paused@@PEAPEAV1@@std@@YAPEAPEAVCTimer_paused@@PEAPEAV1@00U_Scalar_ptr_iterator_tag@0@@Z ; std::_Move<CTimer_paused * __ptr64 * __ptr64,CTimer_paused * __ptr64 * __ptr64>
PUBLIC	??$_Move@PEAPEAVCTimer_paused@@PEAPEAV1@@std@@YAPEAPEAVCTimer_paused@@PEAPEAV1@00@Z ; std::_Move<CTimer_paused * __ptr64 * __ptr64,CTimer_paused * __ptr64 * __ptr64>
PUBLIC	?erase@?$vector@PEAVCTimer_paused@@V?$xalloc@PEAVCTimer_paused@@@@@std@@QEAA?AV?$_Vector_iterator@V?$_Vector_val@PEAVCTimer_paused@@V?$xalloc@PEAVCTimer_paused@@@@@std@@@2@V?$_Vector_const_iterator@V?$_Vector_val@PEAVCTimer_paused@@V?$xalloc@PEAVCTimer_paused@@@@@std@@@2@@Z ; std::vector<CTimer_paused * __ptr64,xalloc<CTimer_paused * __ptr64> >::erase
PUBLIC	?_Compat@?$_Vector_const_iterator@V?$_Vector_val@PEAVCTimer_paused@@V?$xalloc@PEAVCTimer_paused@@@@@std@@@std@@QEBAXAEBV12@@Z ; std::_Vector_const_iterator<std::_Vector_val<CTimer_paused * __ptr64,xalloc<CTimer_paused * __ptr64> > >::_Compat
PUBLIC	??8?$_Vector_const_iterator@V?$_Vector_val@PEAVCTimer_paused@@V?$xalloc@PEAVCTimer_paused@@@@@std@@@std@@QEBA_NAEBV01@@Z ; std::_Vector_const_iterator<std::_Vector_val<CTimer_paused * __ptr64,xalloc<CTimer_paused * __ptr64> > >::operator==
PUBLIC	??9?$_Vector_const_iterator@V?$_Vector_val@PEAVCTimer_paused@@V?$xalloc@PEAVCTimer_paused@@@@@std@@@std@@QEBA_NAEBV01@@Z ; std::_Vector_const_iterator<std::_Vector_val<CTimer_paused * __ptr64,xalloc<CTimer_paused * __ptr64> > >::operator!=
PUBLIC	?_Unchecked@?$_Vector_iterator@V?$_Vector_val@PEAVCTimer_paused@@V?$xalloc@PEAVCTimer_paused@@@@@std@@@std@@QEBAPEAPEAVCTimer_paused@@XZ ; std::_Vector_iterator<std::_Vector_val<CTimer_paused * __ptr64,xalloc<CTimer_paused * __ptr64> > >::_Unchecked
PUBLIC	??$_Unchecked@V?$_Vector_val@PEAVCTimer_paused@@V?$xalloc@PEAVCTimer_paused@@@@@std@@@std@@YAPEAPEAVCTimer_paused@@V?$_Vector_iterator@V?$_Vector_val@PEAVCTimer_paused@@V?$xalloc@PEAVCTimer_paused@@@@@std@@@0@@Z ; std::_Unchecked<std::_Vector_val<CTimer_paused * __ptr64,xalloc<CTimer_paused * __ptr64> > >
PUBLIC	??$_Find@PEAPEAVCTimer_paused@@PEAV1@@std@@YAPEAPEAVCTimer_paused@@PEAPEAV1@0AEBQEAV1@@Z ; std::_Find<CTimer_paused * __ptr64 * __ptr64,CTimer_paused * __ptr64>
PUBLIC	?_Rechecked@?$_Vector_iterator@V?$_Vector_val@PEAVCTimer_paused@@V?$xalloc@PEAVCTimer_paused@@@@@std@@@std@@QEAAAEAV12@PEAPEAVCTimer_paused@@@Z ; std::_Vector_iterator<std::_Vector_val<CTimer_paused * __ptr64,xalloc<CTimer_paused * __ptr64> > >::_Rechecked
PUBLIC	??$_Rechecked@V?$_Vector_val@PEAVCTimer_paused@@V?$xalloc@PEAVCTimer_paused@@@@@std@@@std@@YAAEAV?$_Vector_iterator@V?$_Vector_val@PEAVCTimer_paused@@V?$xalloc@PEAVCTimer_paused@@@@@std@@@0@AEAV10@PEAPEAVCTimer_paused@@@Z ; std::_Rechecked<std::_Vector_val<CTimer_paused * __ptr64,xalloc<CTimer_paused * __ptr64> > >
PUBLIC	??$find@V?$_Vector_iterator@V?$_Vector_val@PEAVCTimer_paused@@V?$xalloc@PEAVCTimer_paused@@@@@std@@@std@@PEAVCTimer_paused@@@std@@YA?AV?$_Vector_iterator@V?$_Vector_val@PEAVCTimer_paused@@V?$xalloc@PEAVCTimer_paused@@@@@std@@@0@V10@0AEBQEAVCTimer_paused@@@Z ; std::find<std::_Vector_iterator<std::_Vector_val<CTimer_paused * __ptr64,xalloc<CTimer_paused * __ptr64> > >,CTimer_paused * __ptr64>
PUBLIC	??1?$_Vector_val@PEAVCTimer_paused@@V?$xalloc@PEAVCTimer_paused@@@@@std@@QEAA@XZ ; std::_Vector_val<CTimer_paused * __ptr64,xalloc<CTimer_paused * __ptr64> >::~_Vector_val<CTimer_paused * __ptr64,xalloc<CTimer_paused * __ptr64> >
PUBLIC	??$xr_free@PEAVCTimer_paused@@@@YAXAEAPEAPEAVCTimer_paused@@@Z ; xr_free<CTimer_paused * __ptr64>
PUBLIC	?deallocate@?$xalloc@PEAVCTimer_paused@@@@QEBAXPEAPEAVCTimer_paused@@_K@Z ; xalloc<CTimer_paused * __ptr64>::deallocate
PUBLIC	??$_Ptr_cat@PEAVCTimer_paused@@PEAV1@@std@@YA?AU_Scalar_ptr_iterator_tag@0@PEAPEAVCTimer_paused@@0@Z ; std::_Ptr_cat<CTimer_paused * __ptr64,CTimer_paused * __ptr64>
PUBLIC	??$_Destroy_range@V?$xalloc@PEAVCTimer_paused@@@@@std@@YAXPEAPEAVCTimer_paused@@0AEAV?$xalloc@PEAVCTimer_paused@@@@U_Scalar_ptr_iterator_tag@0@@Z ; std::_Destroy_range<xalloc<CTimer_paused * __ptr64> >
PUBLIC	??$_Destroy_range@V?$xalloc@PEAVCTimer_paused@@@@@std@@YAXPEAPEAVCTimer_paused@@0AEAV?$xalloc@PEAVCTimer_paused@@@@@Z ; std::_Destroy_range<xalloc<CTimer_paused * __ptr64> >
PUBLIC	?_Destroy@?$vector@PEAVCTimer_paused@@V?$xalloc@PEAVCTimer_paused@@@@@std@@IEAAXPEAPEAVCTimer_paused@@0@Z ; std::vector<CTimer_paused * __ptr64,xalloc<CTimer_paused * __ptr64> >::_Destroy
PUBLIC	?_Tidy@?$vector@PEAVCTimer_paused@@V?$xalloc@PEAVCTimer_paused@@@@@std@@IEAAXXZ ; std::vector<CTimer_paused * __ptr64,xalloc<CTimer_paused * __ptr64> >::_Tidy
PUBLIC	??1?$vector@PEAVCTimer_paused@@V?$xalloc@PEAVCTimer_paused@@@@@std@@QEAA@XZ ; std::vector<CTimer_paused * __ptr64,xalloc<CTimer_paused * __ptr64> >::~vector<CTimer_paused * __ptr64,xalloc<CTimer_paused * __ptr64> >
PUBLIC	??1?$xr_vector@PEAVCTimer_paused@@V?$xalloc@PEAVCTimer_paused@@@@@@QEAA@XZ ; xr_vector<CTimer_paused * __ptr64,xalloc<CTimer_paused * __ptr64> >::~xr_vector<CTimer_paused * __ptr64,xalloc<CTimer_paused * __ptr64> >
PUBLIC	??1pauseMngr@@QEAA@XZ				; pauseMngr::~pauseMngr
PUBLIC	?g_bEnableStatGather@@3HA			; g_bEnableStatGather
PUBLIC	??_C@_0BD@OLBABOEK@vector?$DMT?$DO?5too?5long?$AA@ ; `string'
EXTRN	__imp_?_Xlength_error@std@@YAXPEBD@Z:PROC
EXTRN	__imp_memmove:PROC
EXTRN	atexit:PROC
EXTRN	__imp_?_Orphan_all@_Container_base0@std@@QEAAXXZ:PROC
?g_bEnableStatGather@@3HA DD 01H DUP (?)		; g_bEnableStatGather
;	COMDAT ??_C@_0BD@OLBABOEK@vector?$DMT?$DO?5too?5long?$AA@
CONST	SEGMENT
??_C@_0BD@OLBABOEK@vector?$DMT?$DO?5too?5long?$AA@ DB 'vector<T> too long'
	DB	00H						; `string'
; Function compile flags: /Ogtpy
; File c:\users\nummer\documents\github\olr-3.0\src\xray\xrcore\ftimer.h
;	COMDAT ??0CTimerBase@@QEAA@XZ
_TEXT	SEGMENT
this$ = 8
??0CTimerBase@@QEAA@XZ PROC				; CTimerBase::CTimerBase, COMDAT

; 28   : 				CTimerBase		()		: qwStartTime(0),qwPausedTime(0),qwPauseAccum(0),bPause(FALSE)		{ }

	xor	eax, eax
	mov	QWORD PTR [rcx], rax
	mov	QWORD PTR [rcx+8], rax
	mov	QWORD PTR [rcx+16], rax
	mov	DWORD PTR [rcx+24], eax
	mov	rax, rcx
	ret	0
??0CTimerBase@@QEAA@XZ ENDP				; CTimerBase::CTimerBase
; Function compile flags: /Ogtpy
; File c:\program files (x86)\microsoft visual studio 10.0\vc\include\xutility
_TEXT	ENDS
;	COMDAT ??$_Ptr_cat@PEAVCTimer_paused@@PEAV1@@std@@YA?AU_Scalar_ptr_iterator_tag@0@PEAPEAVCTimer_paused@@0@Z
_TEXT	SEGMENT
_Cat$ = 8
??$_Ptr_cat@PEAVCTimer_paused@@PEAV1@@std@@YA?AU_Scalar_ptr_iterator_tag@0@PEAPEAVCTimer_paused@@0@Z PROC ; std::_Ptr_cat<CTimer_paused * __ptr64,CTimer_paused * __ptr64>, COMDAT

; 517  : 	typename _Ptr_cat_helper<_Elem1, _Elem2>::_Type _Cat;
; 518  : 	return (_Cat);

	movzx	eax, BYTE PTR _Cat$[rsp]

; 519  : 	}

	ret	0
??$_Ptr_cat@PEAVCTimer_paused@@PEAV1@@std@@YA?AU_Scalar_ptr_iterator_tag@0@PEAPEAVCTimer_paused@@0@Z ENDP ; std::_Ptr_cat<CTimer_paused * __ptr64,CTimer_paused * __ptr64>
; Function compile flags: /Ogtpy
; File c:\program files (x86)\microsoft visual studio 10.0\vc\include\xmemory
_TEXT	ENDS
;	COMDAT ??$_Destroy_range@V?$xalloc@PEAVCTimer_paused@@@@@std@@YAXPEAPEAVCTimer_paused@@0AEAV?$xalloc@PEAVCTimer_paused@@@@U_Scalar_ptr_iterator_tag@0@@Z
_TEXT	SEGMENT
??$_Destroy_range@V?$xalloc@PEAVCTimer_paused@@@@@std@@YAXPEAPEAVCTimer_paused@@0AEAV?$xalloc@PEAVCTimer_paused@@@@U_Scalar_ptr_iterator_tag@0@@Z PROC ; std::_Destroy_range<xalloc<CTimer_paused * __ptr64> >, COMDAT

; 105  : 	}

	ret	0
??$_Destroy_range@V?$xalloc@PEAVCTimer_paused@@@@@std@@YAXPEAPEAVCTimer_paused@@0AEAV?$xalloc@PEAVCTimer_paused@@@@U_Scalar_ptr_iterator_tag@0@@Z ENDP ; std::_Destroy_range<xalloc<CTimer_paused * __ptr64> >
; Function compile flags: /Ogtpy
; File c:\program files (x86)\microsoft visual studio 10.0\vc\include\vector
_TEXT	ENDS
;	COMDAT ??1?$_Vector_val@PEAVCTimer_paused@@V?$xalloc@PEAVCTimer_paused@@@@@std@@QEAA@XZ
_TEXT	SEGMENT
??1?$_Vector_val@PEAVCTimer_paused@@V?$xalloc@PEAVCTimer_paused@@@@@std@@QEAA@XZ PROC ; std::_Vector_val<CTimer_paused * __ptr64,xalloc<CTimer_paused * __ptr64> >::~_Vector_val<CTimer_paused * __ptr64,xalloc<CTimer_paused * __ptr64> >, COMDAT

; 434  : 		}

	ret	0
??1?$_Vector_val@PEAVCTimer_paused@@V?$xalloc@PEAVCTimer_paused@@@@@std@@QEAA@XZ ENDP ; std::_Vector_val<CTimer_paused * __ptr64,xalloc<CTimer_paused * __ptr64> >::~_Vector_val<CTimer_paused * __ptr64,xalloc<CTimer_paused * __ptr64> >
; Function compile flags: /Ogtpy
; File c:\program files (x86)\microsoft visual studio 10.0\vc\include\xutility
_TEXT	ENDS
;	COMDAT ?_Adopt@_Iterator_base0@std@@QEAAXPEBX@Z
_TEXT	SEGMENT
?_Adopt@_Iterator_base0@std@@QEAAXPEBX@Z PROC		; std::_Iterator_base0::_Adopt, COMDAT

; 49   : 		}

	ret	0
?_Adopt@_Iterator_base0@std@@QEAAXPEBX@Z ENDP		; std::_Iterator_base0::_Adopt
; Function compile flags: /Ogtpy
; File c:\program files (x86)\microsoft visual studio 10.0\vc\include\vector
_TEXT	ENDS
;	COMDAT ?_Compat@?$_Vector_const_iterator@V?$_Vector_val@PEAVCTimer_paused@@V?$xalloc@PEAVCTimer_paused@@@@@std@@@std@@QEBAXAEBV12@@Z
_TEXT	SEGMENT
?_Compat@?$_Vector_const_iterator@V?$_Vector_val@PEAVCTimer_paused@@V?$xalloc@PEAVCTimer_paused@@@@@std@@@std@@QEBAXAEBV12@@Z PROC ; std::_Vector_const_iterator<std::_Vector_val<CTimer_paused * __ptr64,xalloc<CTimer_paused * __ptr64> > >::_Compat, COMDAT

; 253  : 		}

	ret	0
?_Compat@?$_Vector_const_iterator@V?$_Vector_val@PEAVCTimer_paused@@V?$xalloc@PEAVCTimer_paused@@@@@std@@@std@@QEBAXAEBV12@@Z ENDP ; std::_Vector_const_iterator<std::_Vector_val<CTimer_paused * __ptr64,xalloc<CTimer_paused * __ptr64> > >::_Compat
_TEXT	ENDS
;	COMDAT pdata
; File c:\users\nummer\documents\github\olr-3.0\src\xray\xrcore\_math.cpp
pdata	SEGMENT
$pdata$?GetElapsed_ticks@CTimerBase@@QEBA_KXZ DD imagerel $LN7
	DD	imagerel $LN7+67
	DD	imagerel $unwind$?GetElapsed_ticks@CTimerBase@@QEBA_KXZ
pdata	ENDS
;	COMDAT xdata
xdata	SEGMENT
$unwind$?GetElapsed_ticks@CTimerBase@@QEBA_KXZ DD 020601H
	DD	030023206H
; Function compile flags: /Ogtpy
; File c:\users\nummer\documents\github\olr-3.0\src\xray\xrcore\ftimer.h
xdata	ENDS
;	COMDAT ?GetElapsed_ticks@CTimerBase@@QEBA_KXZ
_TEXT	SEGMENT
_dest$172227 = 48
this$ = 48
?GetElapsed_ticks@CTimerBase@@QEBA_KXZ PROC		; CTimerBase::GetElapsed_ticks, COMDAT

; 30   : 	ICF u64		GetElapsed_ticks()const	{	if(bPause) return	qwPausedTime; else return CPU::QPC()-qwStartTime-CPU::qpc_overhead-qwPauseAccum; }

$LN7:
	push	rbx
	sub	rsp, 32					; 00000020H
	cmp	DWORD PTR [rcx+24], 0
	mov	rbx, rcx
	je	SHORT $LN2@GetElapsed@2
	mov	rax, QWORD PTR [rcx+8]
	add	rsp, 32					; 00000020H
	pop	rbx
	ret	0
$LN2@GetElapsed@2:
	lea	rcx, QWORD PTR _dest$172227[rsp]
	call	QWORD PTR __imp_QueryPerformanceCounter
	inc	DWORD PTR ?qpc_counter@CPU@@3IA		; CPU::qpc_counter
	mov	rax, QWORD PTR _dest$172227[rsp]
	sub	rax, QWORD PTR [rbx+16]
	sub	rax, QWORD PTR [rbx]
	sub	rax, QWORD PTR ?qpc_overhead@CPU@@3_KA	; CPU::qpc_overhead
	add	rsp, 32					; 00000020H
	pop	rbx
	ret	0
?GetElapsed_ticks@CTimerBase@@QEBA_KXZ ENDP		; CTimerBase::GetElapsed_ticks
; Function compile flags: /Ogtpy
; File c:\users\nummer\documents\github\olr-3.0\src\xray\xrcore\_stl_extensions.h
_TEXT	ENDS
;	COMDAT ?max_size@?$xalloc@PEAVCTimer_paused@@@@QEBA_KXZ
_TEXT	SEGMENT
?max_size@?$xalloc@PEAVCTimer_paused@@@@QEBA_KXZ PROC	; xalloc<CTimer_paused * __ptr64>::max_size, COMDAT

; 86   : 							size_type				max_size		() const								{	size_type _Count = (size_type)(-1) / sizeof (T);	return (0 < _Count ? _Count : 1);	}

	mov	rax, 2305843009213693951		; 1fffffffffffffffH
	ret	0
?max_size@?$xalloc@PEAVCTimer_paused@@@@QEBA_KXZ ENDP	; xalloc<CTimer_paused * __ptr64>::max_size
_TEXT	ENDS
;	COMDAT pdata
; File c:\program files (x86)\microsoft visual studio 10.0\vc\include\vector
pdata	SEGMENT
$pdata$?_Xlen@?$vector@PEAVCTimer_paused@@V?$xalloc@PEAVCTimer_paused@@@@@std@@IEBAXXZ DD imagerel $LN4
	DD	imagerel $LN4+18
	DD	imagerel $unwind$?_Xlen@?$vector@PEAVCTimer_paused@@V?$xalloc@PEAVCTimer_paused@@@@@std@@IEBAXXZ
pdata	ENDS
;	COMDAT xdata
xdata	SEGMENT
$unwind$?_Xlen@?$vector@PEAVCTimer_paused@@V?$xalloc@PEAVCTimer_paused@@@@@std@@IEBAXXZ DD 010401H
	DD	04204H
; Function compile flags: /Ogtpy
xdata	ENDS
;	COMDAT ?_Xlen@?$vector@PEAVCTimer_paused@@V?$xalloc@PEAVCTimer_paused@@@@@std@@IEBAXXZ
_TEXT	SEGMENT
?_Xlen@?$vector@PEAVCTimer_paused@@V?$xalloc@PEAVCTimer_paused@@@@@std@@IEBAXXZ PROC ; std::vector<CTimer_paused * __ptr64,xalloc<CTimer_paused * __ptr64> >::_Xlen, COMDAT

; 1426 : 		{	// report a length_error

$LN4:
	sub	rsp, 40					; 00000028H

; 1427 : 		_Xlength_error("vector<T> too long");

	lea	rcx, OFFSET FLAT:??_C@_0BD@OLBABOEK@vector?$DMT?$DO?5too?5long?$AA@
	call	QWORD PTR __imp_?_Xlength_error@std@@YAXPEBD@Z
	int	3
$LN3@Xlen@13:
?_Xlen@?$vector@PEAVCTimer_paused@@V?$xalloc@PEAVCTimer_paused@@@@@std@@IEBAXXZ ENDP ; std::vector<CTimer_paused * __ptr64,xalloc<CTimer_paused * __ptr64> >::_Xlen
; Function compile flags: /Ogtpy
_TEXT	ENDS
;	COMDAT ?capacity@?$vector@PEAVCTimer_paused@@V?$xalloc@PEAVCTimer_paused@@@@@std@@QEBA_KXZ
_TEXT	SEGMENT
this$ = 8
?capacity@?$vector@PEAVCTimer_paused@@V?$xalloc@PEAVCTimer_paused@@@@@std@@QEBA_KXZ PROC ; std::vector<CTimer_paused * __ptr64,xalloc<CTimer_paused * __ptr64> >::capacity, COMDAT

; 777  : 		return (this->_Myend - this->_Myfirst);

	mov	rax, QWORD PTR [rcx+16]
	sub	rax, QWORD PTR [rcx]
	sar	rax, 3

; 778  : 		}

	ret	0
?capacity@?$vector@PEAVCTimer_paused@@V?$xalloc@PEAVCTimer_paused@@@@@std@@QEBA_KXZ ENDP ; std::vector<CTimer_paused * __ptr64,xalloc<CTimer_paused * __ptr64> >::capacity
; Function compile flags: /Ogtpy
_TEXT	ENDS
;	COMDAT ?size@?$vector@PEAVCTimer_paused@@V?$xalloc@PEAVCTimer_paused@@@@@std@@QEBA_KXZ
_TEXT	SEGMENT
this$ = 8
?size@?$vector@PEAVCTimer_paused@@V?$xalloc@PEAVCTimer_paused@@@@@std@@QEBA_KXZ PROC ; std::vector<CTimer_paused * __ptr64,xalloc<CTimer_paused * __ptr64> >::size, COMDAT

; 879  : 		return (this->_Mylast - this->_Myfirst);

	mov	rax, QWORD PTR [rcx+8]
	sub	rax, QWORD PTR [rcx]
	sar	rax, 3

; 880  : 		}

	ret	0
?size@?$vector@PEAVCTimer_paused@@V?$xalloc@PEAVCTimer_paused@@@@@std@@QEBA_KXZ ENDP ; std::vector<CTimer_paused * __ptr64,xalloc<CTimer_paused * __ptr64> >::size
; Function compile flags: /Ogtpy
; File c:\program files (x86)\microsoft visual studio 10.0\vc\include\utility
_TEXT	ENDS
;	COMDAT ??$forward@AEAPEAVCTimer_paused@@@std@@YAAEAPEAVCTimer_paused@@AEAPEAV1@@Z
_TEXT	SEGMENT
_Arg$ = 8
??$forward@AEAPEAVCTimer_paused@@@std@@YAAEAPEAVCTimer_paused@@AEAPEAV1@@Z PROC ; std::forward<CTimer_paused * __ptr64 & __ptr64>, COMDAT

; 79   : 	return ((_Ty&&)_Arg);

	mov	rax, rcx

; 80   : 	}

	ret	0
??$forward@AEAPEAVCTimer_paused@@@std@@YAAEAPEAVCTimer_paused@@AEAPEAV1@@Z ENDP ; std::forward<CTimer_paused * __ptr64 & __ptr64>
; Function compile flags: /Ogtpy
_TEXT	ENDS
;	COMDAT ??$forward@AEBQEAVCTimer_paused@@@std@@YAAEBQEAVCTimer_paused@@AEBQEAV1@@Z
_TEXT	SEGMENT
_Arg$ = 8
??$forward@AEBQEAVCTimer_paused@@@std@@YAAEBQEAVCTimer_paused@@AEBQEAV1@@Z PROC ; std::forward<CTimer_paused * __ptr64 const & __ptr64>, COMDAT

; 79   : 	return ((_Ty&&)_Arg);

	mov	rax, rcx

; 80   : 	}

	ret	0
??$forward@AEBQEAVCTimer_paused@@@std@@YAAEBQEAVCTimer_paused@@AEBQEAV1@@Z ENDP ; std::forward<CTimer_paused * __ptr64 const & __ptr64>
; Function compile flags: /Ogtpy
; File c:\program files (x86)\microsoft visual studio 10.0\vc\include\new
_TEXT	ENDS
;	COMDAT ??2@YAPEAX_KPEAX@Z
_TEXT	SEGMENT
_Where$ = 8
??2@YAPEAX_KPEAX@Z PROC					; operator new, COMDAT

; 57   : 	return (_Where);

	mov	rax, rcx

; 58   : 	}

	ret	0
??2@YAPEAX_KPEAX@Z ENDP					; operator new
_TEXT	ENDS
;	COMDAT pdata
; File c:\program files (x86)\microsoft visual studio 10.0\vc\include\xutility
pdata	SEGMENT
$pdata$??$_Move@PEAPEAVCTimer_paused@@PEAPEAV1@@std@@YAPEAPEAVCTimer_paused@@PEAPEAV1@00U_Scalar_ptr_iterator_tag@0@@Z DD imagerel $LN3
	DD	imagerel $LN3+58
	DD	imagerel $unwind$??$_Move@PEAPEAVCTimer_paused@@PEAPEAV1@@std@@YAPEAPEAVCTimer_paused@@PEAPEAV1@00U_Scalar_ptr_iterator_tag@0@@Z
pdata	ENDS
;	COMDAT xdata
xdata	SEGMENT
$unwind$??$_Move@PEAPEAVCTimer_paused@@PEAPEAV1@@std@@YAPEAPEAVCTimer_paused@@PEAPEAV1@00U_Scalar_ptr_iterator_tag@0@@Z DD 040a01H
	DD	06340aH
	DD	07006320aH
; Function compile flags: /Ogtpy
xdata	ENDS
;	COMDAT ??$_Move@PEAPEAVCTimer_paused@@PEAPEAV1@@std@@YAPEAPEAVCTimer_paused@@PEAPEAV1@00U_Scalar_ptr_iterator_tag@0@@Z
_TEXT	SEGMENT
_First$ = 48
_Last$ = 56
_Dest$ = 64
??$_Move@PEAPEAVCTimer_paused@@PEAPEAV1@@std@@YAPEAPEAVCTimer_paused@@PEAPEAV1@00U_Scalar_ptr_iterator_tag@0@@Z PROC ; std::_Move<CTimer_paused * __ptr64 * __ptr64,CTimer_paused * __ptr64 * __ptr64>, COMDAT

; 2522 : 	{	// move [_First, _Last) to [_Dest, ...), pointers to scalars

$LN3:
	mov	QWORD PTR [rsp+8], rbx
	push	rdi
	sub	rsp, 32					; 00000020H

; 2523 : 	ptrdiff_t _Count = _Last - _First;

	sub	rdx, rcx
	mov	rdi, r8
	sar	rdx, 3

; 2524 : 	_CSTD memmove(&*_Dest, &*_First,
; 2525 : 		_Count * sizeof (*_First));

	lea	rbx, QWORD PTR [rdx*8]
	mov	rdx, rcx
	mov	rcx, rdi
	mov	r8, rbx
	call	QWORD PTR __imp_memmove

; 2526 : 	return (_Dest + _Count);

	lea	rax, QWORD PTR [rbx+rdi]

; 2527 : 	}

	mov	rbx, QWORD PTR [rsp+48]
	add	rsp, 32					; 00000020H
	pop	rdi
	ret	0
??$_Move@PEAPEAVCTimer_paused@@PEAPEAV1@@std@@YAPEAPEAVCTimer_paused@@PEAPEAV1@00U_Scalar_ptr_iterator_tag@0@@Z ENDP ; std::_Move<CTimer_paused * __ptr64 * __ptr64,CTimer_paused * __ptr64 * __ptr64>
; Function compile flags: /Ogtpy
; File c:\program files (x86)\microsoft visual studio 10.0\vc\include\vector
_TEXT	ENDS
;	COMDAT ??D?$_Vector_const_iterator@V?$_Vector_val@PEAVCTimer_paused@@V?$xalloc@PEAVCTimer_paused@@@@@std@@@std@@QEBAAEBQEAVCTimer_paused@@XZ
_TEXT	SEGMENT
this$ = 8
??D?$_Vector_const_iterator@V?$_Vector_val@PEAVCTimer_paused@@V?$xalloc@PEAVCTimer_paused@@@@@std@@@std@@QEBAAEBQEAVCTimer_paused@@XZ PROC ; std::_Vector_const_iterator<std::_Vector_val<CTimer_paused * __ptr64,xalloc<CTimer_paused * __ptr64> > >::operator*, COMDAT

; 64   :  #if _ITERATOR_DEBUG_LEVEL == 2
; 65   : 		if (this->_Getcont() == 0
; 66   : 			|| this->_Ptr == 0
; 67   : 			|| this->_Ptr < ((_Myvec *)this->_Getcont())->_Myfirst
; 68   : 			|| ((_Myvec *)this->_Getcont())->_Mylast <= this->_Ptr)
; 69   : 			{	// report error
; 70   : 			_DEBUG_ERROR("vector iterator not dereferencable");
; 71   : 			_SCL_SECURE_OUT_OF_RANGE;
; 72   : 			}
; 73   : 
; 74   :  #elif _ITERATOR_DEBUG_LEVEL == 1
; 75   : 		_SCL_SECURE_VALIDATE(this->_Getcont() != 0);
; 76   : 		_SCL_SECURE_VALIDATE_RANGE(
; 77   : 			this->_Ptr != 0
; 78   : 			&& ((_Myvec *)this->_Getcont())->_Myfirst <= this->_Ptr
; 79   : 			&& this->_Ptr < ((_Myvec *)this->_Getcont())->_Mylast);
; 80   :  #endif /* _ITERATOR_DEBUG_LEVEL */
; 81   : 
; 82   : 		__analysis_assume(this->_Ptr != 0);
; 83   : 
; 84   : 		return (*this->_Ptr);

	mov	rax, QWORD PTR [rcx]

; 85   : 		}

	ret	0
??D?$_Vector_const_iterator@V?$_Vector_val@PEAVCTimer_paused@@V?$xalloc@PEAVCTimer_paused@@@@@std@@@std@@QEBAAEBQEAVCTimer_paused@@XZ ENDP ; std::_Vector_const_iterator<std::_Vector_val<CTimer_paused * __ptr64,xalloc<CTimer_paused * __ptr64> > >::operator*
; Function compile flags: /Ogtpy
_TEXT	ENDS
;	COMDAT ??E?$_Vector_const_iterator@V?$_Vector_val@PEAVCTimer_paused@@V?$xalloc@PEAVCTimer_paused@@@@@std@@@std@@QEAAAEAV01@XZ
_TEXT	SEGMENT
this$ = 8
??E?$_Vector_const_iterator@V?$_Vector_val@PEAVCTimer_paused@@V?$xalloc@PEAVCTimer_paused@@@@@std@@@std@@QEAAAEAV01@XZ PROC ; std::_Vector_const_iterator<std::_Vector_val<CTimer_paused * __ptr64,xalloc<CTimer_paused * __ptr64> > >::operator++, COMDAT

; 94   :  #if _ITERATOR_DEBUG_LEVEL == 2
; 95   : 		if (this->_Getcont() == 0
; 96   : 			|| this->_Ptr == 0
; 97   : 			|| ((_Myvec *)this->_Getcont())->_Mylast <= this->_Ptr)
; 98   : 			{	// report error
; 99   : 			_DEBUG_ERROR("vector iterator not incrementable");
; 100  : 			_SCL_SECURE_OUT_OF_RANGE;
; 101  : 			}
; 102  : 
; 103  :  #elif _ITERATOR_DEBUG_LEVEL == 1
; 104  : 		_SCL_SECURE_VALIDATE(this->_Getcont() != 0);
; 105  : 		_SCL_SECURE_VALIDATE_RANGE(
; 106  : 			this->_Ptr != 0
; 107  : 			&& this->_Ptr < ((_Myvec *)this->_Getcont())->_Mylast);
; 108  :  #endif /* _ITERATOR_DEBUG_LEVEL */
; 109  : 
; 110  : 		++this->_Ptr;

	add	QWORD PTR [rcx], 8

; 111  : 		return (*this);

	mov	rax, rcx

; 112  : 		}

	ret	0
??E?$_Vector_const_iterator@V?$_Vector_val@PEAVCTimer_paused@@V?$xalloc@PEAVCTimer_paused@@@@@std@@@std@@QEAAAEAV01@XZ ENDP ; std::_Vector_const_iterator<std::_Vector_val<CTimer_paused * __ptr64,xalloc<CTimer_paused * __ptr64> > >::operator++
; Function compile flags: /Ogtpy
; File c:\users\nummer\documents\github\olr-3.0\src\xray\xrcore\_stl_extensions.h
_TEXT	ENDS
;	COMDAT ??0?$xalloc@PEAVCTimer_paused@@@@QEAA@AEBV0@@Z
_TEXT	SEGMENT
this$ = 8
??0?$xalloc@PEAVCTimer_paused@@@@QEAA@AEBV0@@Z PROC	; xalloc<CTimer_paused * __ptr64>::xalloc<CTimer_paused * __ptr64>, COMDAT

; 77   : 													xalloc			(const xalloc<T>&)						{	}

	mov	rax, rcx
	ret	0
??0?$xalloc@PEAVCTimer_paused@@@@QEAA@AEBV0@@Z ENDP	; xalloc<CTimer_paused * __ptr64>::xalloc<CTimer_paused * __ptr64>
; Function compile flags: /Ogtpy
; File c:\program files (x86)\microsoft visual studio 10.0\vc\include\xmemory
_TEXT	ENDS
;	COMDAT ??$_Destroy@PEAVCTimer_paused@@@std@@YAXPEAPEAVCTimer_paused@@@Z
_TEXT	SEGMENT
??$_Destroy@PEAVCTimer_paused@@@std@@YAXPEAPEAVCTimer_paused@@@Z PROC ; std::_Destroy<CTimer_paused * __ptr64>, COMDAT

; 63   : 	_Ptr->~_Ty();
; 64   : 	}

	ret	0
??$_Destroy@PEAVCTimer_paused@@@std@@YAXPEAPEAVCTimer_paused@@@Z ENDP ; std::_Destroy<CTimer_paused * __ptr64>
; Function compile flags: /Ogtpy
; File c:\program files (x86)\microsoft visual studio 10.0\vc\include\utility
_TEXT	ENDS
;	COMDAT ??$forward@PEAVCTimer_paused@@@std@@YA$$QEAPEAVCTimer_paused@@AEAPEAV1@@Z
_TEXT	SEGMENT
_Arg$ = 8
??$forward@PEAVCTimer_paused@@@std@@YA$$QEAPEAVCTimer_paused@@AEAPEAV1@@Z PROC ; std::forward<CTimer_paused * __ptr64>, COMDAT

; 79   : 	return ((_Ty&&)_Arg);

	mov	rax, rcx

; 80   : 	}

	ret	0
??$forward@PEAVCTimer_paused@@@std@@YA$$QEAPEAVCTimer_paused@@AEAPEAV1@@Z ENDP ; std::forward<CTimer_paused * __ptr64>
; Function compile flags: /Ogtpy
; File c:\program files (x86)\microsoft visual studio 10.0\vc\include\xutility
_TEXT	ENDS
;	COMDAT ??$_Val_type@PEAPEAVCTimer_paused@@@std@@YAPEAPEAVCTimer_paused@@PEAPEAV1@@Z
_TEXT	SEGMENT
??$_Val_type@PEAPEAVCTimer_paused@@@std@@YAPEAPEAVCTimer_paused@@PEAPEAV1@@Z PROC ; std::_Val_type<CTimer_paused * __ptr64 * __ptr64>, COMDAT

; 790  : 	return (0);

	xor	eax, eax

; 791  : 	}

	ret	0
??$_Val_type@PEAPEAVCTimer_paused@@@std@@YAPEAPEAVCTimer_paused@@PEAPEAV1@@Z ENDP ; std::_Val_type<CTimer_paused * __ptr64 * __ptr64>
; Function compile flags: /Ogtpy
; File c:\program files (x86)\microsoft visual studio 10.0\vc\include\vector
_TEXT	ENDS
;	COMDAT ?_Unchecked@?$_Vector_iterator@V?$_Vector_val@PEAVCTimer_paused@@V?$xalloc@PEAVCTimer_paused@@@@@std@@@std@@QEBAPEAPEAVCTimer_paused@@XZ
_TEXT	SEGMENT
this$ = 8
?_Unchecked@?$_Vector_iterator@V?$_Vector_val@PEAVCTimer_paused@@V?$xalloc@PEAVCTimer_paused@@@@@std@@@std@@QEBAPEAPEAVCTimer_paused@@XZ PROC ; std::_Vector_iterator<std::_Vector_val<CTimer_paused * __ptr64,xalloc<CTimer_paused * __ptr64> > >::_Unchecked, COMDAT

; 317  : 		return (_Unchecked_type(this->_Ptr));

	mov	rax, QWORD PTR [rcx]

; 318  : 		}

	ret	0
?_Unchecked@?$_Vector_iterator@V?$_Vector_val@PEAVCTimer_paused@@V?$xalloc@PEAVCTimer_paused@@@@@std@@@std@@QEBAPEAPEAVCTimer_paused@@XZ ENDP ; std::_Vector_iterator<std::_Vector_val<CTimer_paused * __ptr64,xalloc<CTimer_paused * __ptr64> > >::_Unchecked
; Function compile flags: /Ogtpy
_TEXT	ENDS
;	COMDAT ?_Rechecked@?$_Vector_iterator@V?$_Vector_val@PEAVCTimer_paused@@V?$xalloc@PEAVCTimer_paused@@@@@std@@@std@@QEAAAEAV12@PEAPEAVCTimer_paused@@@Z
_TEXT	SEGMENT
this$ = 8
_Right$ = 16
?_Rechecked@?$_Vector_iterator@V?$_Vector_val@PEAVCTimer_paused@@V?$xalloc@PEAVCTimer_paused@@@@@std@@@std@@QEAAAEAV12@PEAPEAVCTimer_paused@@@Z PROC ; std::_Vector_iterator<std::_Vector_val<CTimer_paused * __ptr64,xalloc<CTimer_paused * __ptr64> > >::_Rechecked, COMDAT

; 311  : 		this->_Ptr = _Right;

	mov	QWORD PTR [rcx], rdx

; 312  : 		return (*this);

	mov	rax, rcx

; 313  : 		}

	ret	0
?_Rechecked@?$_Vector_iterator@V?$_Vector_val@PEAVCTimer_paused@@V?$xalloc@PEAVCTimer_paused@@@@@std@@@std@@QEAAAEAV12@PEAPEAVCTimer_paused@@@Z ENDP ; std::_Vector_iterator<std::_Vector_val<CTimer_paused * __ptr64,xalloc<CTimer_paused * __ptr64> > >::_Rechecked
; Function compile flags: /Ogtpy
_TEXT	ENDS
;	COMDAT ??$_Rechecked@V?$_Vector_val@PEAVCTimer_paused@@V?$xalloc@PEAVCTimer_paused@@@@@std@@@std@@YAAEAV?$_Vector_iterator@V?$_Vector_val@PEAVCTimer_paused@@V?$xalloc@PEAVCTimer_paused@@@@@std@@@0@AEAV10@PEAPEAVCTimer_paused@@@Z
_TEXT	SEGMENT
_Iter$ = 8
_Right$ = 16
??$_Rechecked@V?$_Vector_val@PEAVCTimer_paused@@V?$xalloc@PEAVCTimer_paused@@@@@std@@@std@@YAAEAV?$_Vector_iterator@V?$_Vector_val@PEAVCTimer_paused@@V?$xalloc@PEAVCTimer_paused@@@@@std@@@0@AEAV10@PEAPEAVCTimer_paused@@@Z PROC ; std::_Rechecked<std::_Vector_val<CTimer_paused * __ptr64,xalloc<CTimer_paused * __ptr64> > >, COMDAT

; 403  : 	return (_Iter._Rechecked(_Right));

	mov	QWORD PTR [rcx], rdx
	mov	rax, rcx

; 404  : 	}

	ret	0
??$_Rechecked@V?$_Vector_val@PEAVCTimer_paused@@V?$xalloc@PEAVCTimer_paused@@@@@std@@@std@@YAAEAV?$_Vector_iterator@V?$_Vector_val@PEAVCTimer_paused@@V?$xalloc@PEAVCTimer_paused@@@@@std@@@0@AEAV10@PEAPEAVCTimer_paused@@@Z ENDP ; std::_Rechecked<std::_Vector_val<CTimer_paused * __ptr64,xalloc<CTimer_paused * __ptr64> > >
; Function compile flags: /Ogtpy
; File c:\program files (x86)\microsoft visual studio 10.0\vc\include\algorithm
_TEXT	ENDS
;	COMDAT ??$_Find@PEAPEAVCTimer_paused@@PEAV1@@std@@YAPEAPEAVCTimer_paused@@PEAPEAV1@0AEBQEAV1@@Z
_TEXT	SEGMENT
_First$ = 8
_Last$ = 16
_Val$ = 24
??$_Find@PEAPEAVCTimer_paused@@PEAV1@@std@@YAPEAPEAVCTimer_paused@@PEAPEAV1@0AEBQEAV1@@Z PROC ; std::_Find<CTimer_paused * __ptr64 * __ptr64,CTimer_paused * __ptr64>, COMDAT

; 40   : 	for (; _First != _Last; ++_First)

	cmp	rcx, rdx
	je	SHORT $LN11@Find@2
	mov	rax, QWORD PTR [r8]
$LL4@Find@2:

; 41   : 		if (*_First == _Val)

	cmp	QWORD PTR [rcx], rax
	je	SHORT $LN11@Find@2

; 40   : 	for (; _First != _Last; ++_First)

	add	rcx, 8
	cmp	rcx, rdx
	jne	SHORT $LL4@Find@2
$LN11@Find@2:

; 42   : 			break;
; 43   : 	return (_First);

	mov	rax, rcx

; 44   : 	}

	ret	0
??$_Find@PEAPEAVCTimer_paused@@PEAV1@@std@@YAPEAPEAVCTimer_paused@@PEAPEAV1@0AEBQEAV1@@Z ENDP ; std::_Find<CTimer_paused * __ptr64 * __ptr64,CTimer_paused * __ptr64>
; Function compile flags: /Ogtpy
; File c:\program files (x86)\microsoft visual studio 10.0\vc\include\vector
_TEXT	ENDS
;	COMDAT ??$_Unchecked@V?$_Vector_val@PEAVCTimer_paused@@V?$xalloc@PEAVCTimer_paused@@@@@std@@@std@@YAPEAPEAVCTimer_paused@@V?$_Vector_iterator@V?$_Vector_val@PEAVCTimer_paused@@V?$xalloc@PEAVCTimer_paused@@@@@std@@@0@@Z
_TEXT	SEGMENT
_Iter$ = 8
??$_Unchecked@V?$_Vector_val@PEAVCTimer_paused@@V?$xalloc@PEAVCTimer_paused@@@@@std@@@std@@YAPEAPEAVCTimer_paused@@V?$_Vector_iterator@V?$_Vector_val@PEAVCTimer_paused@@V?$xalloc@PEAVCTimer_paused@@@@@std@@@0@@Z PROC ; std::_Unchecked<std::_Vector_val<CTimer_paused * __ptr64,xalloc<CTimer_paused * __ptr64> > >, COMDAT

; 394  : 	return (_Iter._Unchecked());

	mov	rax, rcx

; 395  : 	}

	ret	0
??$_Unchecked@V?$_Vector_val@PEAVCTimer_paused@@V?$xalloc@PEAVCTimer_paused@@@@@std@@@std@@YAPEAPEAVCTimer_paused@@V?$_Vector_iterator@V?$_Vector_val@PEAVCTimer_paused@@V?$xalloc@PEAVCTimer_paused@@@@@std@@@0@@Z ENDP ; std::_Unchecked<std::_Vector_val<CTimer_paused * __ptr64,xalloc<CTimer_paused * __ptr64> > >
; Function compile flags: /Ogtpy
; File c:\program files (x86)\microsoft visual studio 10.0\vc\include\xmemory
_TEXT	ENDS
;	COMDAT ??$addressof@QEAVCTimer_paused@@@std@@YAPEBQEAVCTimer_paused@@AEBQEAV1@@Z
_TEXT	SEGMENT
_Val$ = 8
??$addressof@QEAVCTimer_paused@@@std@@YAPEBQEAVCTimer_paused@@AEBQEAV1@@Z PROC ; std::addressof<CTimer_paused * __ptr64 const>, COMDAT

; 111  : 	return ((_Ty *) &(char&)_Val);

	mov	rax, rcx

; 112  : 	}

	ret	0
??$addressof@QEAVCTimer_paused@@@std@@YAPEBQEAVCTimer_paused@@AEBQEAV1@@Z ENDP ; std::addressof<CTimer_paused * __ptr64 const>
; Function compile flags: /Ogtpy
; File c:\program files (x86)\microsoft visual studio 10.0\vc\include\algorithm
_TEXT	ENDS
;	COMDAT ??$find@V?$_Vector_iterator@V?$_Vector_val@PEAVCTimer_paused@@V?$xalloc@PEAVCTimer_paused@@@@@std@@@std@@PEAVCTimer_paused@@@std@@YA?AV?$_Vector_iterator@V?$_Vector_val@PEAVCTimer_paused@@V?$xalloc@PEAVCTimer_paused@@@@@std@@@0@V10@0AEBQEAVCTimer_paused@@@Z
_TEXT	SEGMENT
__$ReturnUdt$ = 8
_First$ = 16
_Last$ = 24
_Val$ = 32
??$find@V?$_Vector_iterator@V?$_Vector_val@PEAVCTimer_paused@@V?$xalloc@PEAVCTimer_paused@@@@@std@@@std@@PEAVCTimer_paused@@@std@@YA?AV?$_Vector_iterator@V?$_Vector_val@PEAVCTimer_paused@@V?$xalloc@PEAVCTimer_paused@@@@@std@@@0@V10@0AEBQEAVCTimer_paused@@@Z PROC ; std::find<std::_Vector_iterator<std::_Vector_val<CTimer_paused * __ptr64,xalloc<CTimer_paused * __ptr64> > >,CTimer_paused * __ptr64>, COMDAT

; 72   : 	_DEBUG_RANGE(_First, _Last);
; 73   : 	return (_Rechecked(_First,
; 74   : 		_Find(_Unchecked(_First), _Unchecked(_Last), _Val)));

	cmp	rdx, r8
	je	SHORT $LN25@find
	mov	rax, QWORD PTR [r9]
$LL14@find:
	cmp	QWORD PTR [rdx], rax
	je	SHORT $LN25@find
	add	rdx, 8
	cmp	rdx, r8
	jne	SHORT $LL14@find
$LN25@find:
	mov	QWORD PTR [rcx], rdx
	mov	rax, rcx

; 75   : 	}

	ret	0
??$find@V?$_Vector_iterator@V?$_Vector_val@PEAVCTimer_paused@@V?$xalloc@PEAVCTimer_paused@@@@@std@@@std@@PEAVCTimer_paused@@@std@@YA?AV?$_Vector_iterator@V?$_Vector_val@PEAVCTimer_paused@@V?$xalloc@PEAVCTimer_paused@@@@@std@@@0@V10@0AEBQEAVCTimer_paused@@@Z ENDP ; std::find<std::_Vector_iterator<std::_Vector_val<CTimer_paused * __ptr64,xalloc<CTimer_paused * __ptr64> > >,CTimer_paused * __ptr64>
; Function compile flags: /Ogtpy
; File c:\users\nummer\documents\github\olr-3.0\src\xray\xrcore\_stl_extensions.h
_TEXT	ENDS
;	COMDAT ??0?$xalloc@PEAVCTimer_paused@@@@QEAA@XZ
_TEXT	SEGMENT
this$ = 8
??0?$xalloc@PEAVCTimer_paused@@@@QEAA@XZ PROC		; xalloc<CTimer_paused * __ptr64>::xalloc<CTimer_paused * __ptr64>, COMDAT

; 76   : 													xalloc			()										{	}

	mov	rax, rcx
	ret	0
??0?$xalloc@PEAVCTimer_paused@@@@QEAA@XZ ENDP		; xalloc<CTimer_paused * __ptr64>::xalloc<CTimer_paused * __ptr64>
; Function compile flags: /Ogtpy
; File c:\program files (x86)\microsoft visual studio 10.0\vc\include\vector
_TEXT	ENDS
;	COMDAT ?_Orphan_range@?$vector@PEAVCTimer_paused@@V?$xalloc@PEAVCTimer_paused@@@@@std@@IEBAXPEAPEAVCTimer_paused@@0@Z
_TEXT	SEGMENT
?_Orphan_range@?$vector@PEAVCTimer_paused@@V?$xalloc@PEAVCTimer_paused@@@@@std@@IEBAXPEAPEAVCTimer_paused@@0@Z PROC ; std::vector<CTimer_paused * __ptr64,xalloc<CTimer_paused * __ptr64> >::_Orphan_range, COMDAT

; 1454 : 		}

	ret	0
?_Orphan_range@?$vector@PEAVCTimer_paused@@V?$xalloc@PEAVCTimer_paused@@@@@std@@IEBAXPEAPEAVCTimer_paused@@0@Z ENDP ; std::vector<CTimer_paused * __ptr64,xalloc<CTimer_paused * __ptr64> >::_Orphan_range
; Function compile flags: /Ogtpy
_TEXT	ENDS
;	COMDAT ?_Inside@?$vector@PEAVCTimer_paused@@V?$xalloc@PEAVCTimer_paused@@@@@std@@IEBA_NPEBQEAVCTimer_paused@@@Z
_TEXT	SEGMENT
this$ = 8
_Ptr$ = 16
?_Inside@?$vector@PEAVCTimer_paused@@V?$xalloc@PEAVCTimer_paused@@@@@std@@IEBA_NPEBQEAVCTimer_paused@@@Z PROC ; std::vector<CTimer_paused * __ptr64,xalloc<CTimer_paused * __ptr64> >::_Inside, COMDAT

; 1286 : 		return (_Ptr < this->_Mylast && this->_Myfirst <= _Ptr);

	cmp	rdx, QWORD PTR [rcx+8]
	jae	SHORT $LN3@Inside@8
	cmp	QWORD PTR [rcx], rdx
	ja	SHORT $LN3@Inside@8
	mov	al, 1

; 1287 : 		}

	ret	0
$LN3@Inside@8:

; 1286 : 		return (_Ptr < this->_Mylast && this->_Myfirst <= _Ptr);

	xor	al, al

; 1287 : 		}

	ret	0
?_Inside@?$vector@PEAVCTimer_paused@@V?$xalloc@PEAVCTimer_paused@@@@@std@@IEBA_NPEBQEAVCTimer_paused@@@Z ENDP ; std::vector<CTimer_paused * __ptr64,xalloc<CTimer_paused * __ptr64> >::_Inside
; Function compile flags: /Ogtpy
_TEXT	ENDS
;	COMDAT ??E?$_Vector_iterator@V?$_Vector_val@PEAVCTimer_paused@@V?$xalloc@PEAVCTimer_paused@@@@@std@@@std@@QEAAAEAV01@XZ
_TEXT	SEGMENT
this$ = 8
??E?$_Vector_iterator@V?$_Vector_val@PEAVCTimer_paused@@V?$xalloc@PEAVCTimer_paused@@@@@std@@@std@@QEAAAEAV01@XZ PROC ; std::_Vector_iterator<std::_Vector_val<CTimer_paused * __ptr64,xalloc<CTimer_paused * __ptr64> > >::operator++, COMDAT

; 332  : 		++*(_Mybase *)this;

	add	QWORD PTR [rcx], 8

; 333  : 		return (*this);

	mov	rax, rcx

; 334  : 		}

	ret	0
??E?$_Vector_iterator@V?$_Vector_val@PEAVCTimer_paused@@V?$xalloc@PEAVCTimer_paused@@@@@std@@@std@@QEAAAEAV01@XZ ENDP ; std::_Vector_iterator<std::_Vector_val<CTimer_paused * __ptr64,xalloc<CTimer_paused * __ptr64> > >::operator++
; Function compile flags: /Ogtpy
_TEXT	ENDS
;	COMDAT ??D?$_Vector_iterator@V?$_Vector_val@PEAVCTimer_paused@@V?$xalloc@PEAVCTimer_paused@@@@@std@@@std@@QEBAAEAPEAVCTimer_paused@@XZ
_TEXT	SEGMENT
this$ = 8
??D?$_Vector_iterator@V?$_Vector_val@PEAVCTimer_paused@@V?$xalloc@PEAVCTimer_paused@@@@@std@@@std@@QEBAAEAPEAVCTimer_paused@@XZ PROC ; std::_Vector_iterator<std::_Vector_val<CTimer_paused * __ptr64,xalloc<CTimer_paused * __ptr64> > >::operator*, COMDAT

; 322  : 		return ((reference)**(_Mybase *)this);

	mov	rax, QWORD PTR [rcx]

; 323  : 		}

	ret	0
??D?$_Vector_iterator@V?$_Vector_val@PEAVCTimer_paused@@V?$xalloc@PEAVCTimer_paused@@@@@std@@@std@@QEBAAEAPEAVCTimer_paused@@XZ ENDP ; std::_Vector_iterator<std::_Vector_val<CTimer_paused * __ptr64,xalloc<CTimer_paused * __ptr64> > >::operator*
_TEXT	ENDS
PUBLIC	?FrameStart@CStatTimer@@QEAAXXZ			; CStatTimer::FrameStart
; Function compile flags: /Ogtpy
; File c:\users\nummer\documents\github\olr-3.0\src\xray\xrcore\ftimer.cpp
_TEXT	SEGMENT
this$ = 8
?FrameStart@CStatTimer@@QEAAXXZ PROC			; CStatTimer::FrameStart

; 24   : 	accum	= 0;

	xor	eax, eax
	mov	QWORD PTR [rcx+56], rax

; 25   : 	count	= 0;

	mov	QWORD PTR [rcx+100], rax

; 26   : 	cycles  = 0;
; 27   : }

	ret	0
?FrameStart@CStatTimer@@QEAAXXZ ENDP			; CStatTimer::FrameStart
_TEXT	ENDS
PUBLIC	?CalcEMA@@YAMAEAMMMM@Z				; CalcEMA
; Function compile flags: /Ogtpy
_TEXT	SEGMENT
avg$ = 8
src$ = 16
period$ = 24
treshold$ = 32
?CalcEMA@@YAMAEAMMMM@Z PROC				; CalcEMA

; 8    : 	float f = 1 / period;

	movss	xmm0, DWORD PTR __real@3f800000

; 9    : 	avg = avg > treshold ? avg * (1 - f) + src * f : src;

	movss	xmm5, DWORD PTR [rcx]
	comiss	xmm5, xmm3
	movaps	xmm4, xmm0
	divss	xmm4, xmm2
	jbe	SHORT $LN3@CalcEMA
	subss	xmm0, xmm4
	mulss	xmm4, xmm1
	mulss	xmm0, xmm5
	addss	xmm0, xmm4
	movss	DWORD PTR [rcx], xmm0

; 11   : }

	ret	0
$LN3@CalcEMA:

; 9    : 	avg = avg > treshold ? avg * (1 - f) + src * f : src;

	movss	DWORD PTR [rcx], xmm1

; 10   : 	return avg;

	movaps	xmm0, xmm1

; 11   : }

	ret	0
?CalcEMA@@YAMAEAMMMM@Z ENDP				; CalcEMA
; Function compile flags: /Ogtpy
; File c:\users\nummer\documents\github\olr-3.0\src\xray\xrcore\ftimer.h
;	COMDAT ??0CTimer@@QEAA@XZ
_TEXT	SEGMENT
this$ = 8
??0CTimer@@QEAA@XZ PROC					; CTimer::CTimer, COMDAT

; 69   : 	IC					CTimer			() : m_time_factor(1.f), m_real_ticks(0), m_ticks(0) {}

	xor	eax, eax
	mov	DWORD PTR [rcx+32], 1065353216		; 3f800000H
	mov	QWORD PTR [rcx], rax
	mov	QWORD PTR [rcx+8], rax
	mov	QWORD PTR [rcx+16], rax
	mov	DWORD PTR [rcx+24], eax
	mov	QWORD PTR [rcx+40], rax
	mov	QWORD PTR [rcx+48], rax
	mov	rax, rcx
	ret	0
??0CTimer@@QEAA@XZ ENDP					; CTimer::CTimer
; Function compile flags: /Ogtpy
; File c:\program files (x86)\microsoft visual studio 10.0\vc\include\xmemory
_TEXT	ENDS
;	COMDAT ??$_Destroy_range@V?$xalloc@PEAVCTimer_paused@@@@@std@@YAXPEAPEAVCTimer_paused@@0AEAV?$xalloc@PEAVCTimer_paused@@@@@Z
_TEXT	SEGMENT
??$_Destroy_range@V?$xalloc@PEAVCTimer_paused@@@@@std@@YAXPEAPEAVCTimer_paused@@0AEAV?$xalloc@PEAVCTimer_paused@@@@@Z PROC ; std::_Destroy_range<xalloc<CTimer_paused * __ptr64> >, COMDAT

; 88   : 	_Destroy_range(_First, _Last, _Al, _Ptr_cat(_First, _Last));
; 89   : 	}

	ret	0
??$_Destroy_range@V?$xalloc@PEAVCTimer_paused@@@@@std@@YAXPEAPEAVCTimer_paused@@0AEAV?$xalloc@PEAVCTimer_paused@@@@@Z ENDP ; std::_Destroy_range<xalloc<CTimer_paused * __ptr64> >
; Function compile flags: /Ogtpy
; File c:\program files (x86)\microsoft visual studio 10.0\vc\include\vector
_TEXT	ENDS
;	COMDAT ??0?$_Vector_const_iterator@V?$_Vector_val@PEAVCTimer_paused@@V?$xalloc@PEAVCTimer_paused@@@@@std@@@std@@QEAA@PEAPEAVCTimer_paused@@PEBU_Container_base0@1@@Z
_TEXT	SEGMENT
this$ = 8
_Parg$ = 16
??0?$_Vector_const_iterator@V?$_Vector_val@PEAVCTimer_paused@@V?$xalloc@PEAVCTimer_paused@@@@@std@@@std@@QEAA@PEAPEAVCTimer_paused@@PEBU_Container_base0@1@@Z PROC ; std::_Vector_const_iterator<std::_Vector_val<CTimer_paused * __ptr64,xalloc<CTimer_paused * __ptr64> > >::_Vector_const_iterator<std::_Vector_val<CTimer_paused * __ptr64,xalloc<CTimer_paused * __ptr64> > >, COMDAT

; 45   : 		{	// construct with pointer _Parg

	mov	QWORD PTR [rcx], rdx

; 46   : 		this->_Adopt(_Pvector);
; 47   : 		}

	mov	rax, rcx
	ret	0
??0?$_Vector_const_iterator@V?$_Vector_val@PEAVCTimer_paused@@V?$xalloc@PEAVCTimer_paused@@@@@std@@@std@@QEAA@PEAPEAVCTimer_paused@@PEBU_Container_base0@1@@Z ENDP ; std::_Vector_const_iterator<std::_Vector_val<CTimer_paused * __ptr64,xalloc<CTimer_paused * __ptr64> > >::_Vector_const_iterator<std::_Vector_val<CTimer_paused * __ptr64,xalloc<CTimer_paused * __ptr64> > >
; Function compile flags: /Ogtpy
_TEXT	ENDS
;	COMDAT ??8?$_Vector_const_iterator@V?$_Vector_val@PEAVCTimer_paused@@V?$xalloc@PEAVCTimer_paused@@@@@std@@@std@@QEBA_NAEBV01@@Z
_TEXT	SEGMENT
this$ = 8
_Right$ = 16
??8?$_Vector_const_iterator@V?$_Vector_val@PEAVCTimer_paused@@V?$xalloc@PEAVCTimer_paused@@@@@std@@@std@@QEBA_NAEBV01@@Z PROC ; std::_Vector_const_iterator<std::_Vector_val<CTimer_paused * __ptr64,xalloc<CTimer_paused * __ptr64> > >::operator==, COMDAT

; 202  : 		_Compat(_Right);
; 203  : 		return (this->_Ptr == _Right._Ptr);

	mov	rdx, QWORD PTR [rdx]
	cmp	QWORD PTR [rcx], rdx
	sete	al

; 204  : 		}

	ret	0
??8?$_Vector_const_iterator@V?$_Vector_val@PEAVCTimer_paused@@V?$xalloc@PEAVCTimer_paused@@@@@std@@@std@@QEBA_NAEBV01@@Z ENDP ; std::_Vector_const_iterator<std::_Vector_val<CTimer_paused * __ptr64,xalloc<CTimer_paused * __ptr64> > >::operator==
_TEXT	ENDS
;	COMDAT pdata
; File c:\users\nummer\documents\github\olr-3.0\src\xray\xrcore\_math.cpp
pdata	SEGMENT
$pdata$?Pause@CTimer_paused_ex@@QEAAXH@Z DD imagerel $LN14
	DD	imagerel $LN14+166
	DD	imagerel $unwind$?Pause@CTimer_paused_ex@@QEAAXH@Z
pdata	ENDS
;	COMDAT xdata
xdata	SEGMENT
$unwind$?Pause@CTimer_paused_ex@@QEAAXH@Z DD 040a01H
	DD	07340aH
	DD	07006320aH
; Function compile flags: /Ogtpy
; File c:\users\nummer\documents\github\olr-3.0\src\xray\xrcore\ftimer.h
xdata	ENDS
;	COMDAT ?Pause@CTimer_paused_ex@@QEAAXH@Z
_TEXT	SEGMENT
_dest$182748 = 48
_dest$182736 = 48
this$ = 48
b$ = 56
?Pause@CTimer_paused_ex@@QEAAXH@Z PROC			; CTimer_paused_ex::Pause, COMDAT

; 139  : 	IC void		Pause			(BOOL b){

$LN14:
	mov	QWORD PTR [rsp+16], rbx
	push	rdi
	sub	rsp, 32					; 00000020H
	mov	edi, edx
	mov	rbx, rcx

; 140  : 		if(bPause==b)			return	;

	cmp	DWORD PTR [rcx+32], edx
	je	$LN4@Pause

; 141  : 
; 142  : 		u64		_current		=		CPU::QPC()-CPU::qpc_overhead	;

	lea	rcx, QWORD PTR _dest$182736[rsp]
	call	QWORD PTR __imp_QueryPerformanceCounter
	mov	rax, QWORD PTR _dest$182736[rsp]
	inc	DWORD PTR ?qpc_counter@CPU@@3IA		; CPU::qpc_counter
	sub	rax, QWORD PTR ?qpc_overhead@CPU@@3_KA	; CPU::qpc_overhead

; 143  : 		if( b )	{

	test	edi, edi
	je	SHORT $LN2@Pause

; 144  : 			save_clock			= _current				;

	mov	QWORD PTR [rbx+64], rax

; 145  : 			qwPausedTime		= CTimerBase::GetElapsed_ticks()	;

	cmp	DWORD PTR [rbx+32], 0
	je	SHORT $LN9@Pause
	mov	rax, QWORD PTR [rbx+16]

; 148  : 		}
; 149  : 		bPause = b;

	mov	DWORD PTR [rbx+32], edi
	mov	QWORD PTR [rbx+16], rax

; 150  : 	}

	mov	rbx, QWORD PTR [rsp+56]
	add	rsp, 32					; 00000020H
	pop	rdi
	ret	0

; 145  : 			qwPausedTime		= CTimerBase::GetElapsed_ticks()	;

$LN9@Pause:
	lea	rcx, QWORD PTR _dest$182748[rsp]
	call	QWORD PTR __imp_QueryPerformanceCounter
	inc	DWORD PTR ?qpc_counter@CPU@@3IA		; CPU::qpc_counter
	mov	rax, QWORD PTR _dest$182748[rsp]
	sub	rax, QWORD PTR [rbx+24]
	sub	rax, QWORD PTR [rbx+8]
	sub	rax, QWORD PTR ?qpc_overhead@CPU@@3_KA	; CPU::qpc_overhead

; 148  : 		}
; 149  : 		bPause = b;

	mov	DWORD PTR [rbx+32], edi
	mov	QWORD PTR [rbx+16], rax

; 150  : 	}

	mov	rbx, QWORD PTR [rsp+56]
	add	rsp, 32					; 00000020H
	pop	rdi
	ret	0
$LN2@Pause:

; 146  : 		}else	{
; 147  : 			qwPauseAccum		+=		_current - save_clock;

	sub	rax, QWORD PTR [rbx+64]

; 148  : 		}
; 149  : 		bPause = b;

	mov	DWORD PTR [rbx+32], edi
	add	QWORD PTR [rbx+24], rax
$LN4@Pause:

; 150  : 	}

	mov	rbx, QWORD PTR [rsp+56]
	add	rsp, 32					; 00000020H
	pop	rdi
	ret	0
?Pause@CTimer_paused_ex@@QEAAXH@Z ENDP			; CTimer_paused_ex::Pause
; Function compile flags: /Ogtpy
; File c:\program files (x86)\microsoft visual studio 10.0\vc\include\vector
_TEXT	ENDS
;	COMDAT ?max_size@?$vector@PEAVCTimer_paused@@V?$xalloc@PEAVCTimer_paused@@@@@std@@QEBA_KXZ
_TEXT	SEGMENT
?max_size@?$vector@PEAVCTimer_paused@@V?$xalloc@PEAVCTimer_paused@@@@@std@@QEBA_KXZ PROC ; std::vector<CTimer_paused * __ptr64,xalloc<CTimer_paused * __ptr64> >::max_size, COMDAT

; 884  : 		return (this->_Alval.max_size());

	mov	rax, 2305843009213693951		; 1fffffffffffffffH

; 885  : 		}

	ret	0
?max_size@?$vector@PEAVCTimer_paused@@V?$xalloc@PEAVCTimer_paused@@@@@std@@QEBA_KXZ ENDP ; std::vector<CTimer_paused * __ptr64,xalloc<CTimer_paused * __ptr64> >::max_size
; Function compile flags: /Ogtpy
; File c:\program files (x86)\microsoft visual studio 10.0\vc\include\xmemory
_TEXT	ENDS
;	COMDAT ??$_Construct@PEAVCTimer_paused@@AEBQEAV1@@std@@YAXPEAPEAVCTimer_paused@@AEBQEAV1@@Z
_TEXT	SEGMENT
_Ptr$ = 8
_Val$ = 16
??$_Construct@PEAVCTimer_paused@@AEBQEAV1@@std@@YAXPEAPEAVCTimer_paused@@AEBQEAV1@@Z PROC ; std::_Construct<CTimer_paused * __ptr64,CTimer_paused * __ptr64 const & __ptr64>, COMDAT

; 47   : 	void _FARQ *_Vptr = _Ptr;
; 48   : 	::new (_Vptr) _Ty1(_STD forward<_Ty2>(_Val));

	test	rcx, rcx
	je	SHORT $LN3@Construct@10
	mov	rax, QWORD PTR [rdx]
	mov	QWORD PTR [rcx], rax
$LN3@Construct@10:

; 49   : 	}

	fatret	0
??$_Construct@PEAVCTimer_paused@@AEBQEAV1@@std@@YAXPEAPEAVCTimer_paused@@AEBQEAV1@@Z ENDP ; std::_Construct<CTimer_paused * __ptr64,CTimer_paused * __ptr64 const & __ptr64>
_TEXT	ENDS
;	COMDAT pdata
; File c:\program files (x86)\microsoft visual studio 10.0\vc\include\xutility
pdata	SEGMENT
$pdata$??$_Move@PEAPEAVCTimer_paused@@PEAPEAV1@@std@@YAPEAPEAVCTimer_paused@@PEAPEAV1@00@Z DD imagerel $LN7
	DD	imagerel $LN7+58
	DD	imagerel $unwind$??$_Move@PEAPEAVCTimer_paused@@PEAPEAV1@@std@@YAPEAPEAVCTimer_paused@@PEAPEAV1@00@Z
pdata	ENDS
;	COMDAT xdata
xdata	SEGMENT
$unwind$??$_Move@PEAPEAVCTimer_paused@@PEAPEAV1@@std@@YAPEAPEAVCTimer_paused@@PEAPEAV1@00@Z DD 040a01H
	DD	06340aH
	DD	07006320aH
; Function compile flags: /Ogtpy
xdata	ENDS
;	COMDAT ??$_Move@PEAPEAVCTimer_paused@@PEAPEAV1@@std@@YAPEAPEAVCTimer_paused@@PEAPEAV1@00@Z
_TEXT	SEGMENT
_First$ = 48
_Last$ = 56
_Dest$ = 64
??$_Move@PEAPEAVCTimer_paused@@PEAPEAV1@@std@@YAPEAPEAVCTimer_paused@@PEAPEAV1@00@Z PROC ; std::_Move<CTimer_paused * __ptr64 * __ptr64,CTimer_paused * __ptr64 * __ptr64>, COMDAT

; 2533 : 	{	// move [_First, _Last) to [_Dest, ...), unchecked

$LN7:
	mov	QWORD PTR [rsp+8], rbx
	push	rdi
	sub	rsp, 32					; 00000020H

; 2534 : 	return (_Move(_First, _Last,
; 2535 : 		_Dest, _Ptr_cat(_First, _Dest)));

	sub	rdx, rcx
	mov	rdi, r8
	sar	rdx, 3
	lea	rbx, QWORD PTR [rdx*8]
	mov	rdx, rcx
	mov	rcx, rdi
	mov	r8, rbx
	call	QWORD PTR __imp_memmove
	lea	rax, QWORD PTR [rbx+rdi]

; 2536 : 	}

	mov	rbx, QWORD PTR [rsp+48]
	add	rsp, 32					; 00000020H
	pop	rdi
	ret	0
??$_Move@PEAPEAVCTimer_paused@@PEAPEAV1@@std@@YAPEAPEAVCTimer_paused@@PEAPEAV1@00@Z ENDP ; std::_Move<CTimer_paused * __ptr64 * __ptr64,CTimer_paused * __ptr64 * __ptr64>
; Function compile flags: /Ogtpy
; File c:\program files (x86)\microsoft visual studio 10.0\vc\include\vector
_TEXT	ENDS
;	COMDAT ??0?$_Vector_val@PEAVCTimer_paused@@V?$xalloc@PEAVCTimer_paused@@@@@std@@QEAA@V?$xalloc@PEAVCTimer_paused@@@@@Z
_TEXT	SEGMENT
this$ = 8
??0?$_Vector_val@PEAVCTimer_paused@@V?$xalloc@PEAVCTimer_paused@@@@@std@@QEAA@V?$xalloc@PEAVCTimer_paused@@@@@Z PROC ; std::_Vector_val<CTimer_paused * __ptr64,xalloc<CTimer_paused * __ptr64> >::_Vector_val<CTimer_paused * __ptr64,xalloc<CTimer_paused * __ptr64> >, COMDAT

; 427  : 		_Myfirst = 0;

	xor	eax, eax
	mov	QWORD PTR [rcx], rax

; 428  : 		_Mylast = 0;

	mov	QWORD PTR [rcx+8], rax

; 429  : 		_Myend = 0;

	mov	QWORD PTR [rcx+16], rax

; 430  : 		}

	mov	rax, rcx
	ret	0
??0?$_Vector_val@PEAVCTimer_paused@@V?$xalloc@PEAVCTimer_paused@@@@@std@@QEAA@V?$xalloc@PEAVCTimer_paused@@@@@Z ENDP ; std::_Vector_val<CTimer_paused * __ptr64,xalloc<CTimer_paused * __ptr64> >::_Vector_val<CTimer_paused * __ptr64,xalloc<CTimer_paused * __ptr64> >
; Function compile flags: /Ogtpy
; File c:\users\nummer\documents\github\olr-3.0\src\xray\xrcore\_stl_extensions.h
_TEXT	ENDS
;	COMDAT ?destroy@?$xalloc@PEAVCTimer_paused@@@@QEAAXPEAPEAVCTimer_paused@@@Z
_TEXT	SEGMENT
?destroy@?$xalloc@PEAVCTimer_paused@@@@QEAAXPEAPEAVCTimer_paused@@@Z PROC ; xalloc<CTimer_paused * __ptr64>::destroy, COMDAT

; 85   : 							void					destroy			(pointer p)								{	std::_Destroy(p);			}

	ret	0
?destroy@?$xalloc@PEAVCTimer_paused@@@@QEAAXPEAPEAVCTimer_paused@@@Z ENDP ; xalloc<CTimer_paused * __ptr64>::destroy
; Function compile flags: /Ogtpy
; File c:\program files (x86)\microsoft visual studio 10.0\vc\include\vector
_TEXT	ENDS
;	COMDAT ?_Grow_to@?$vector@PEAVCTimer_paused@@V?$xalloc@PEAVCTimer_paused@@@@@std@@IEBA_K_K@Z
_TEXT	SEGMENT
this$ = 8
_Count$ = 16
?_Grow_to@?$vector@PEAVCTimer_paused@@V?$xalloc@PEAVCTimer_paused@@@@@std@@IEBA_K_K@Z PROC ; std::vector<CTimer_paused * __ptr64,xalloc<CTimer_paused * __ptr64> >::_Grow_to, COMDAT

; 1275 : 		size_type _Capacity = capacity();

	mov	r8, QWORD PTR [rcx+16]

; 1276 : 
; 1277 : 		_Capacity = max_size() - _Capacity / 2 < _Capacity
; 1278 : 			? 0 : _Capacity + _Capacity / 2;	// try to grow by 50%

	mov	rax, 2305843009213693951		; 1fffffffffffffffH
	sub	r8, QWORD PTR [rcx]
	sar	r8, 3
	mov	rcx, r8
	shr	rcx, 1
	sub	rax, rcx
	cmp	rax, r8
	jae	SHORT $LN4@Grow_to@11
	xor	r8d, r8d

; 1279 : 		if (_Capacity < _Count)

	cmp	r8, rdx
	cmovb	r8, rdx

; 1280 : 			_Capacity = _Count;
; 1281 : 		return (_Capacity);

	mov	rax, r8

; 1282 : 		}

	ret	0
$LN4@Grow_to@11:

; 1276 : 
; 1277 : 		_Capacity = max_size() - _Capacity / 2 < _Capacity
; 1278 : 			? 0 : _Capacity + _Capacity / 2;	// try to grow by 50%

	add	r8, rcx

; 1279 : 		if (_Capacity < _Count)

	cmp	r8, rdx
	cmovb	r8, rdx

; 1280 : 			_Capacity = _Count;
; 1281 : 		return (_Capacity);

	mov	rax, r8

; 1282 : 		}

	ret	0
?_Grow_to@?$vector@PEAVCTimer_paused@@V?$xalloc@PEAVCTimer_paused@@@@@std@@IEBA_K_K@Z ENDP ; std::vector<CTimer_paused * __ptr64,xalloc<CTimer_paused * __ptr64> >::_Grow_to
; Function compile flags: /Ogtpy
_TEXT	ENDS
;	COMDAT ??0?$vector@PEAVCTimer_paused@@V?$xalloc@PEAVCTimer_paused@@@@@std@@QEAA@XZ
_TEXT	SEGMENT
this$ = 8
??0?$vector@PEAVCTimer_paused@@V?$xalloc@PEAVCTimer_paused@@@@@std@@QEAA@XZ PROC ; std::vector<CTimer_paused * __ptr64,xalloc<CTimer_paused * __ptr64> >::vector<CTimer_paused * __ptr64,xalloc<CTimer_paused * __ptr64> >, COMDAT

; 507  : 		{	// construct empty vector

	xor	eax, eax
	mov	QWORD PTR [rcx], rax
	mov	QWORD PTR [rcx+8], rax
	mov	QWORD PTR [rcx+16], rax

; 508  : 		}

	mov	rax, rcx
	ret	0
??0?$vector@PEAVCTimer_paused@@V?$xalloc@PEAVCTimer_paused@@@@@std@@QEAA@XZ ENDP ; std::vector<CTimer_paused * __ptr64,xalloc<CTimer_paused * __ptr64> >::vector<CTimer_paused * __ptr64,xalloc<CTimer_paused * __ptr64> >
_TEXT	ENDS
PUBLIC	__real@3f7fbe77
PUBLIC	__real@3a83126f
PUBLIC	__real@3f666666
PUBLIC	__real@3dcccccd
PUBLIC	__real@447a0000
PUBLIC	__real@3f7d70a4
PUBLIC	__real@3c23d70a
PUBLIC	?FrameEnd@CStatTimer@@QEAAXXZ			; CStatTimer::FrameEnd
;	COMDAT __real@3f7fbe77
; File c:\users\nummer\documents\github\olr-3.0\src\xray\xrcore\ftimer.cpp
CONST	SEGMENT
__real@3f7fbe77 DD 03f7fbe77r			; 0.999
CONST	ENDS
;	COMDAT __real@3a83126f
CONST	SEGMENT
__real@3a83126f DD 03a83126fr			; 0.001
CONST	ENDS
;	COMDAT __real@3f666666
CONST	SEGMENT
__real@3f666666 DD 03f666666r			; 0.9
CONST	ENDS
;	COMDAT __real@3dcccccd
CONST	SEGMENT
__real@3dcccccd DD 03dcccccdr			; 0.1
CONST	ENDS
;	COMDAT __real@447a0000
CONST	SEGMENT
__real@447a0000 DD 0447a0000r			; 1000
CONST	ENDS
;	COMDAT __real@3f7d70a4
CONST	SEGMENT
__real@3f7d70a4 DD 03f7d70a4r			; 0.99
CONST	ENDS
;	COMDAT __real@3c23d70a
CONST	SEGMENT
__real@3c23d70a DD 03c23d70ar			; 0.01
; Function compile flags: /Ogtpy
CONST	ENDS
_TEXT	SEGMENT
this$ = 8
?FrameEnd@CStatTimer@@QEAAXXZ PROC			; CStatTimer::FrameEnd

; 30   : 	float _time			= 1000.f*float(double(accum)/double(CPU::qpc_freq)	)	;

	mov	rax, QWORD PTR [rcx+56]
	movsdx	xmm2, QWORD PTR __real@43f0000000000000
	pxor	xmm0, xmm0
	cvtsi2sd xmm0, rax
	test	rax, rax
	jns	SHORT $LN18@FrameEnd
	addsd	xmm0, xmm2
$LN18@FrameEnd:
	mov	rax, QWORD PTR ?qpc_freq@CPU@@3_KA	; CPU::qpc_freq
	pxor	xmm1, xmm1
	cvtsi2sd xmm1, rax
	test	rax, rax
	jns	SHORT $LN17@FrameEnd
	addsd	xmm1, xmm2
$LN17@FrameEnd:

; 31   : 	if (_time > result)	result	=	_time		;

	movss	xmm3, DWORD PTR __real@3c23d70a
	movss	xmm4, DWORD PTR __real@3f7d70a4
	divsd	xmm0, xmm1
	movss	xmm1, DWORD PTR [rcx+64]
	cvtsd2ss xmm0, xmm0
	mulss	xmm0, DWORD PTR __real@447a0000
	comiss	xmm0, xmm1
	ja	SHORT $LN19@FrameEnd

; 32   : 	else				result	=	0.99f*result + 0.01f*_time; // EMA 100

	mulss	xmm0, xmm3
	mulss	xmm1, xmm4
	addss	xmm0, xmm1
$LN19@FrameEnd:

; 33   : 	CalcEMA(xrs[0], result, 10);

	movss	xmm2, DWORD PTR __real@3dcccccd
	movss	DWORD PTR [rcx+64], xmm0
	movss	xmm1, xmm0
	movss	xmm0, DWORD PTR [rcx+68]
	comiss	xmm0, xmm2
	jbe	SHORT $LN7@FrameEnd
	mulss	xmm0, DWORD PTR __real@3f666666
	mulss	xmm1, xmm2
	addss	xmm0, xmm1
	jmp	SHORT $LN8@FrameEnd
$LN7@FrameEnd:
	movaps	xmm0, xmm1
$LN8@FrameEnd:
	movss	DWORD PTR [rcx+68], xmm0

; 34   : 	CalcEMA(xrs[1], result, 100);

	movss	xmm0, DWORD PTR [rcx+72]
	movss	xmm1, DWORD PTR [rcx+64]
	comiss	xmm0, xmm2
	jbe	SHORT $LN11@FrameEnd
	mulss	xmm0, xmm4
	mulss	xmm1, xmm3
	addss	xmm0, xmm1
	jmp	SHORT $LN12@FrameEnd
$LN11@FrameEnd:
	movaps	xmm0, xmm1
$LN12@FrameEnd:
	movss	DWORD PTR [rcx+72], xmm0

; 35   : 	CalcEMA(xrs[2], result, 1000);

	movss	xmm1, DWORD PTR [rcx+76]
	movss	xmm0, DWORD PTR [rcx+64]
	comiss	xmm1, xmm2
	jbe	SHORT $LN15@FrameEnd
	mulss	xmm0, DWORD PTR __real@3a83126f
	mulss	xmm1, DWORD PTR __real@3f7fbe77
	addss	xmm0, xmm1
$LN15@FrameEnd:
	movss	DWORD PTR [rcx+76], xmm0

; 36   : }

	ret	0
?FrameEnd@CStatTimer@@QEAAXXZ ENDP			; CStatTimer::FrameEnd
_TEXT	ENDS
PUBLIC	??0CStatTimer@@QEAA@XZ				; CStatTimer::CStatTimer
; Function compile flags: /Ogtpy
_TEXT	SEGMENT
this$ = 8
??0CStatTimer@@QEAA@XZ PROC				; CStatTimer::CStatTimer

; 16   : {

	xor	eax, eax
	mov	DWORD PTR [rcx+32], 1065353216		; 3f800000H
	mov	QWORD PTR [rcx], rax
	mov	QWORD PTR [rcx+8], rax
	mov	QWORD PTR [rcx+16], rax
	mov	DWORD PTR [rcx+24], eax
	mov	QWORD PTR [rcx+40], rax
	mov	QWORD PTR [rcx+48], rax

; 17   : 	accum	= 0;

	mov	QWORD PTR [rcx+56], rax

; 18   : 	result	= 0.f;

	mov	DWORD PTR [rcx+64], eax

; 19   : 	count	= 0;

	mov	DWORD PTR [rcx+100], eax

; 20   : }

	mov	rax, rcx
	ret	0
??0CStatTimer@@QEAA@XZ ENDP				; CStatTimer::CStatTimer
;	COMDAT pdata
; File c:\users\nummer\documents\github\olr-3.0\src\xray\xrcore\xrsyncronize.cpp
pdata	SEGMENT
$pdata$??$xr_free@PEAVCTimer_paused@@@@YAXAEAPEAPEAVCTimer_paused@@@Z DD imagerel $LN29
	DD	imagerel $LN29+80
	DD	imagerel $unwind$??$xr_free@PEAVCTimer_paused@@@@YAXAEAPEAPEAVCTimer_paused@@@Z
pdata	ENDS
;	COMDAT pdata
pdata	SEGMENT
$pdata$1$??$xr_free@PEAVCTimer_paused@@@@YAXAEAPEAPEAVCTimer_paused@@@Z DD imagerel $LN29+80
	DD	imagerel $LN29+146
	DD	imagerel $chain$1$??$xr_free@PEAVCTimer_paused@@@@YAXAEAPEAPEAVCTimer_paused@@@Z
pdata	ENDS
;	COMDAT pdata
pdata	SEGMENT
$pdata$2$??$xr_free@PEAVCTimer_paused@@@@YAXAEAPEAPEAVCTimer_paused@@@Z DD imagerel $LN29+146
	DD	imagerel $LN29+164
	DD	imagerel $chain$2$??$xr_free@PEAVCTimer_paused@@@@YAXAEAPEAPEAVCTimer_paused@@@Z
pdata	ENDS
;	COMDAT xdata
xdata	SEGMENT
$chain$2$??$xr_free@PEAVCTimer_paused@@@@YAXAEAPEAPEAVCTimer_paused@@@Z DD 021H
	DD	imagerel $LN29
	DD	imagerel $LN29+80
	DD	imagerel $unwind$??$xr_free@PEAVCTimer_paused@@@@YAXAEAPEAPEAVCTimer_paused@@@Z
xdata	ENDS
;	COMDAT xdata
xdata	SEGMENT
$chain$1$??$xr_free@PEAVCTimer_paused@@@@YAXAEAPEAPEAVCTimer_paused@@@Z DD 040e21H
	DD	07540eH
	DD	063405H
	DD	imagerel $LN29
	DD	imagerel $LN29+80
	DD	imagerel $unwind$??$xr_free@PEAVCTimer_paused@@@@YAXAEAPEAPEAVCTimer_paused@@@Z
xdata	ENDS
;	COMDAT xdata
xdata	SEGMENT
$unwind$??$xr_free@PEAVCTimer_paused@@@@YAXAEAPEAPEAVCTimer_paused@@@Z DD 040a01H
	DD	08640aH
	DD	07006320aH
; Function compile flags: /Ogtpy
; File c:\users\nummer\documents\github\olr-3.0\src\xray\xrcore\xrmemory.h
xdata	ENDS
;	COMDAT ??$xr_free@PEAVCTimer_paused@@@@YAXAEAPEAPEAVCTimer_paused@@@Z
_TEXT	SEGMENT
P$ = 48
??$xr_free@PEAVCTimer_paused@@@@YAXAEAPEAPEAVCTimer_paused@@@Z PROC ; xr_free<CTimer_paused * __ptr64>, COMDAT

; 109  : 	IC void		xr_free		(T* &P)					{	if (P) { Memory.mem_free((void*)P); P=NULL;	};	}

$LN29:
	mov	QWORD PTR [rsp+24], rsi
	push	rdi
	sub	rsp, 32					; 00000020H
	mov	rdi, QWORD PTR [rcx]
	mov	rsi, rcx
	test	rdi, rdi
	je	$LN1@xr_free@20
	inc	DWORD PTR ?Memory@@3VxrMemory@@A
	movzx	eax, BYTE PTR [rdi-1]
	dec	rdi
	cmp	eax, 55					; 00000037H
	jne	SHORT $LN6@xr_free@20
	test	rdi, rdi
	je	SHORT $LN27@xr_free@20
	and	rdi, -8
	mov	rcx, QWORD PTR [rdi-8]
	call	QWORD PTR __imp_free
	mov	QWORD PTR [rsi], 0
	mov	rsi, QWORD PTR [rsp+64]
	add	rsp, 32					; 00000020H
	pop	rdi
	ret	0
$LN6@xr_free@20:
	mov	QWORD PTR [rsp+48], rbx
	lea	rbx, QWORD PTR [rax+rax*4]
	mov	QWORD PTR [rsp+56], rbp
	lea	rbp, OFFSET FLAT:?mem_pools@@3PAVMEMPOOL@@A ; mem_pools
	mov	rcx, QWORD PTR [rbp+rbx*8]
	call	QWORD PTR __imp_EnterCriticalSection
	mov	rax, QWORD PTR [rbp+rbx*8+32]
	mov	QWORD PTR [rdi], rax
	mov	rcx, QWORD PTR [rbp+rbx*8]
	mov	QWORD PTR [rbp+rbx*8+32], rdi
	call	QWORD PTR __imp_LeaveCriticalSection
	mov	rbp, QWORD PTR [rsp+56]
	mov	rbx, QWORD PTR [rsp+48]
$LN27@xr_free@20:
	mov	QWORD PTR [rsi], 0
$LN1@xr_free@20:
	mov	rsi, QWORD PTR [rsp+64]
	add	rsp, 32					; 00000020H
	pop	rdi
	ret	0
??$xr_free@PEAVCTimer_paused@@@@YAXAEAPEAPEAVCTimer_paused@@@Z ENDP ; xr_free<CTimer_paused * __ptr64>
; Function compile flags: /Ogtpy
; File c:\program files (x86)\microsoft visual studio 10.0\vc\include\vector
_TEXT	ENDS
;	COMDAT ?_Destroy@?$vector@PEAVCTimer_paused@@V?$xalloc@PEAVCTimer_paused@@@@@std@@IEAAXPEAPEAVCTimer_paused@@0@Z
_TEXT	SEGMENT
?_Destroy@?$vector@PEAVCTimer_paused@@V?$xalloc@PEAVCTimer_paused@@@@@std@@IEAAXPEAPEAVCTimer_paused@@0@Z PROC ; std::vector<CTimer_paused * __ptr64,xalloc<CTimer_paused * __ptr64> >::_Destroy, COMDAT

; 1270 : 		_Destroy_range(_First, _Last, this->_Alval);
; 1271 : 		}

	ret	0
?_Destroy@?$vector@PEAVCTimer_paused@@V?$xalloc@PEAVCTimer_paused@@@@@std@@IEAAXPEAPEAVCTimer_paused@@0@Z ENDP ; std::vector<CTimer_paused * __ptr64,xalloc<CTimer_paused * __ptr64> >::_Destroy
; Function compile flags: /Ogtpy
_TEXT	ENDS
;	COMDAT ??0?$_Vector_iterator@V?$_Vector_val@PEAVCTimer_paused@@V?$xalloc@PEAVCTimer_paused@@@@@std@@@std@@QEAA@PEAPEAVCTimer_paused@@PEBU_Container_base0@1@@Z
_TEXT	SEGMENT
this$ = 8
_Parg$ = 16
??0?$_Vector_iterator@V?$_Vector_val@PEAVCTimer_paused@@V?$xalloc@PEAVCTimer_paused@@@@@std@@@std@@QEAA@PEAPEAVCTimer_paused@@PEBU_Container_base0@1@@Z PROC ; std::_Vector_iterator<std::_Vector_val<CTimer_paused * __ptr64,xalloc<CTimer_paused * __ptr64> > >::_Vector_iterator<std::_Vector_val<CTimer_paused * __ptr64,xalloc<CTimer_paused * __ptr64> > >, COMDAT

; 304  : 		{	// construct with pointer _Parg

	mov	QWORD PTR [rcx], rdx

; 305  : 		}

	mov	rax, rcx
	ret	0
??0?$_Vector_iterator@V?$_Vector_val@PEAVCTimer_paused@@V?$xalloc@PEAVCTimer_paused@@@@@std@@@std@@QEAA@PEAPEAVCTimer_paused@@PEBU_Container_base0@1@@Z ENDP ; std::_Vector_iterator<std::_Vector_val<CTimer_paused * __ptr64,xalloc<CTimer_paused * __ptr64> > >::_Vector_iterator<std::_Vector_val<CTimer_paused * __ptr64,xalloc<CTimer_paused * __ptr64> > >
; Function compile flags: /Ogtpy
_TEXT	ENDS
;	COMDAT ??9?$_Vector_const_iterator@V?$_Vector_val@PEAVCTimer_paused@@V?$xalloc@PEAVCTimer_paused@@@@@std@@@std@@QEBA_NAEBV01@@Z
_TEXT	SEGMENT
this$ = 8
_Right$ = 16
??9?$_Vector_const_iterator@V?$_Vector_val@PEAVCTimer_paused@@V?$xalloc@PEAVCTimer_paused@@@@@std@@@std@@QEBA_NAEBV01@@Z PROC ; std::_Vector_const_iterator<std::_Vector_val<CTimer_paused * __ptr64,xalloc<CTimer_paused * __ptr64> > >::operator!=, COMDAT

; 208  : 		return (!(*this == _Right));

	mov	rdx, QWORD PTR [rdx]
	cmp	QWORD PTR [rcx], rdx
	setne	al

; 209  : 		}

	ret	0
??9?$_Vector_const_iterator@V?$_Vector_val@PEAVCTimer_paused@@V?$xalloc@PEAVCTimer_paused@@@@@std@@@std@@QEBA_NAEBV01@@Z ENDP ; std::_Vector_const_iterator<std::_Vector_val<CTimer_paused * __ptr64,xalloc<CTimer_paused * __ptr64> > >::operator!=
; Function compile flags: /Ogtpy
_TEXT	ENDS
;	COMDAT ?end@?$vector@PEAVCTimer_paused@@V?$xalloc@PEAVCTimer_paused@@@@@std@@QEAA?AV?$_Vector_iterator@V?$_Vector_val@PEAVCTimer_paused@@V?$xalloc@PEAVCTimer_paused@@@@@std@@@2@XZ
_TEXT	SEGMENT
this$ = 8
__$ReturnUdt$ = 16
?end@?$vector@PEAVCTimer_paused@@V?$xalloc@PEAVCTimer_paused@@@@@std@@QEAA?AV?$_Vector_iterator@V?$_Vector_val@PEAVCTimer_paused@@V?$xalloc@PEAVCTimer_paused@@@@@std@@@2@XZ PROC ; std::vector<CTimer_paused * __ptr64,xalloc<CTimer_paused * __ptr64> >::end, COMDAT

; 792  : 		return (iterator(this->_Mylast, this));

	mov	rax, QWORD PTR [rcx+8]
	mov	QWORD PTR [rdx], rax
	mov	rax, rdx

; 793  : 		}

	ret	0
?end@?$vector@PEAVCTimer_paused@@V?$xalloc@PEAVCTimer_paused@@@@@std@@QEAA?AV?$_Vector_iterator@V?$_Vector_val@PEAVCTimer_paused@@V?$xalloc@PEAVCTimer_paused@@@@@std@@@2@XZ ENDP ; std::vector<CTimer_paused * __ptr64,xalloc<CTimer_paused * __ptr64> >::end
; Function compile flags: /Ogtpy
; File c:\users\nummer\documents\github\olr-3.0\src\xray\xrcore\_stl_extensions.h
_TEXT	ENDS
;	COMDAT ?construct@?$xalloc@PEAVCTimer_paused@@@@QEAAXPEAPEAVCTimer_paused@@AEBQEAV2@@Z
_TEXT	SEGMENT
p$ = 8
_Val$ = 16
?construct@?$xalloc@PEAVCTimer_paused@@@@QEAAXPEAPEAVCTimer_paused@@AEBQEAV2@@Z PROC ; xalloc<CTimer_paused * __ptr64>::construct, COMDAT

; 84   : 							void					construct		(pointer p, const T& _Val)				{	std::_Construct(p, _Val);	}

	test	rcx, rcx
	je	SHORT $LN5@construct@12
	mov	rax, QWORD PTR [rdx]
	mov	QWORD PTR [rcx], rax
$LN5@construct@12:
	fatret	0
?construct@?$xalloc@PEAVCTimer_paused@@@@QEAAXPEAPEAVCTimer_paused@@AEBQEAV2@@Z ENDP ; xalloc<CTimer_paused * __ptr64>::construct
; Function compile flags: /Ogtpy
; File c:\program files (x86)\microsoft visual studio 10.0\vc\include\xmemory
_TEXT	ENDS
;	COMDAT ??$_Cons_val@V?$xalloc@PEAVCTimer_paused@@@@PEAVCTimer_paused@@AEBQEAV2@@std@@YAXAEAV?$xalloc@PEAVCTimer_paused@@@@PEAPEAVCTimer_paused@@AEBQEAV2@@Z
_TEXT	SEGMENT
_Pdest$ = 8
_Src$ = 16
??$_Cons_val@V?$xalloc@PEAVCTimer_paused@@@@PEAVCTimer_paused@@AEBQEAV2@@std@@YAXAEAV?$xalloc@PEAVCTimer_paused@@@@PEAPEAVCTimer_paused@@AEBQEAV2@@Z PROC ; std::_Cons_val<xalloc<CTimer_paused * __ptr64>,CTimer_paused * __ptr64,CTimer_paused * __ptr64 const & __ptr64>, COMDAT

; 280  : 	_Alval.construct(_Pdest, _STD forward<_Ty2>(_Src));

	test	rcx, rcx
	je	SHORT $LN9@Cons_val@21
	mov	rax, QWORD PTR [rdx]
	mov	QWORD PTR [rcx], rax
$LN9@Cons_val@21:

; 281  : 	}

	fatret	0
??$_Cons_val@V?$xalloc@PEAVCTimer_paused@@@@PEAVCTimer_paused@@AEBQEAV2@@std@@YAXAEAV?$xalloc@PEAVCTimer_paused@@@@PEAPEAVCTimer_paused@@AEBQEAV2@@Z ENDP ; std::_Cons_val<xalloc<CTimer_paused * __ptr64>,CTimer_paused * __ptr64,CTimer_paused * __ptr64 const & __ptr64>
; Function compile flags: /Ogtpy
; File c:\program files (x86)\microsoft visual studio 10.0\vc\include\vector
_TEXT	ENDS
;	COMDAT ?_Make_iter@?$vector@PEAVCTimer_paused@@V?$xalloc@PEAVCTimer_paused@@@@@std@@QEBA?AV?$_Vector_iterator@V?$_Vector_val@PEAVCTimer_paused@@V?$xalloc@PEAVCTimer_paused@@@@@std@@@2@V?$_Vector_const_iterator@V?$_Vector_val@PEAVCTimer_paused@@V?$xalloc@PEAVCTimer_paused@@@@@std@@@2@@Z
_TEXT	SEGMENT
__$ReturnUdt$ = 8
_Where$ = 16
?_Make_iter@?$vector@PEAVCTimer_paused@@V?$xalloc@PEAVCTimer_paused@@@@@std@@QEBA?AV?$_Vector_iterator@V?$_Vector_val@PEAVCTimer_paused@@V?$xalloc@PEAVCTimer_paused@@@@@std@@@2@V?$_Vector_const_iterator@V?$_Vector_val@PEAVCTimer_paused@@V?$xalloc@PEAVCTimer_paused@@@@@std@@@2@@Z PROC ; std::vector<CTimer_paused * __ptr64,xalloc<CTimer_paused * __ptr64> >::_Make_iter, COMDAT

; 802  : 		return (iterator(_Where._Ptr, this));

	mov	QWORD PTR [rcx], rdx
	mov	rax, rcx

; 803  : 		}

	ret	0
?_Make_iter@?$vector@PEAVCTimer_paused@@V?$xalloc@PEAVCTimer_paused@@@@@std@@QEBA?AV?$_Vector_iterator@V?$_Vector_val@PEAVCTimer_paused@@V?$xalloc@PEAVCTimer_paused@@@@@std@@@2@V?$_Vector_const_iterator@V?$_Vector_val@PEAVCTimer_paused@@V?$xalloc@PEAVCTimer_paused@@@@@std@@@2@@Z ENDP ; std::vector<CTimer_paused * __ptr64,xalloc<CTimer_paused * __ptr64> >::_Make_iter
; Function compile flags: /Ogtpy
; File c:\program files (x86)\microsoft visual studio 10.0\vc\include\xmemory
_TEXT	ENDS
;	COMDAT ??$_Dest_val@V?$xalloc@PEAVCTimer_paused@@@@PEAVCTimer_paused@@@std@@YAXAEAV?$xalloc@PEAVCTimer_paused@@@@PEAPEAVCTimer_paused@@@Z
_TEXT	SEGMENT
??$_Dest_val@V?$xalloc@PEAVCTimer_paused@@@@PEAVCTimer_paused@@@std@@YAXAEAV?$xalloc@PEAVCTimer_paused@@@@PEAPEAVCTimer_paused@@@Z PROC ; std::_Dest_val<xalloc<CTimer_paused * __ptr64>,CTimer_paused * __ptr64>, COMDAT

; 287  : 	_Alval.destroy(_Pdest);
; 288  : 	}

	ret	0
??$_Dest_val@V?$xalloc@PEAVCTimer_paused@@@@PEAVCTimer_paused@@@std@@YAXAEAV?$xalloc@PEAVCTimer_paused@@@@PEAPEAVCTimer_paused@@@Z ENDP ; std::_Dest_val<xalloc<CTimer_paused * __ptr64>,CTimer_paused * __ptr64>
; Function compile flags: /Ogtpy
_TEXT	ENDS
;	COMDAT ??$_Cons_val@V?$xalloc@PEAVCTimer_paused@@@@PEAVCTimer_paused@@PEAV2@@std@@YAXAEAV?$xalloc@PEAVCTimer_paused@@@@PEAPEAVCTimer_paused@@$$QEAPEAV2@@Z
_TEXT	SEGMENT
_Pdest$ = 8
_Src$ = 16
??$_Cons_val@V?$xalloc@PEAVCTimer_paused@@@@PEAVCTimer_paused@@PEAV2@@std@@YAXAEAV?$xalloc@PEAVCTimer_paused@@@@PEAPEAVCTimer_paused@@$$QEAPEAV2@@Z PROC ; std::_Cons_val<xalloc<CTimer_paused * __ptr64>,CTimer_paused * __ptr64,CTimer_paused * __ptr64>, COMDAT

; 280  : 	_Alval.construct(_Pdest, _STD forward<_Ty2>(_Src));

	test	rcx, rcx
	je	SHORT $LN9@Cons_val@22
	mov	rax, QWORD PTR [rdx]
	mov	QWORD PTR [rcx], rax
$LN9@Cons_val@22:

; 281  : 	}

	fatret	0
??$_Cons_val@V?$xalloc@PEAVCTimer_paused@@@@PEAVCTimer_paused@@PEAV2@@std@@YAXAEAV?$xalloc@PEAVCTimer_paused@@@@PEAPEAVCTimer_paused@@$$QEAPEAV2@@Z ENDP ; std::_Cons_val<xalloc<CTimer_paused * __ptr64>,CTimer_paused * __ptr64,CTimer_paused * __ptr64>
_TEXT	ENDS
;	COMDAT pdata
; File c:\program files (x86)\microsoft visual studio 10.0\vc\include\utility
pdata	SEGMENT
$pdata$??$_Uninit_move@PEAPEAVCTimer_paused@@PEAPEAV1@V?$xalloc@PEAVCTimer_paused@@@@PEAV1@@std@@YAPEAPEAVCTimer_paused@@PEAPEAV1@00AEAV?$xalloc@PEAVCTimer_paused@@@@0U_Nonscalar_ptr_iterator_tag@0@@Z DD imagerel $LN32
	DD	imagerel $LN32+60
	DD	imagerel $unwind$??$_Uninit_move@PEAPEAVCTimer_paused@@PEAPEAV1@V?$xalloc@PEAVCTimer_paused@@@@PEAV1@@std@@YAPEAPEAVCTimer_paused@@PEAPEAV1@00AEAV?$xalloc@PEAVCTimer_paused@@@@0U_Nonscalar_ptr_iterator_tag@0@@Z
pdata	ENDS
;	COMDAT pdata
pdata	SEGMENT
$pdata$?catch$0@?0???$_Uninit_move@PEAPEAVCTimer_paused@@PEAPEAV1@V?$xalloc@PEAVCTimer_paused@@@@PEAV1@@std@@YAPEAPEAVCTimer_paused@@PEAPEAV1@00AEAV?$xalloc@PEAVCTimer_paused@@@@0U_Nonscalar_ptr_iterator_tag@0@@Z@4HA DD imagerel ?catch$0@?0???$_Uninit_move@PEAPEAVCTimer_paused@@PEAPEAV1@V?$xalloc@PEAVCTimer_paused@@@@PEAV1@@std@@YAPEAPEAVCTimer_paused@@PEAPEAV1@00AEAV?$xalloc@PEAVCTimer_paused@@@@0U_Nonscalar_ptr_iterator_tag@0@@Z@4HA
	DD	imagerel ?catch$0@?0???$_Uninit_move@PEAPEAVCTimer_paused@@PEAPEAV1@V?$xalloc@PEAVCTimer_paused@@@@PEAV1@@std@@YAPEAPEAVCTimer_paused@@PEAPEAV1@00AEAV?$xalloc@PEAVCTimer_paused@@@@0U_Nonscalar_ptr_iterator_tag@0@@Z@4HA+23
	DD	imagerel $unwind$?catch$0@?0???$_Uninit_move@PEAPEAVCTimer_paused@@PEAPEAV1@V?$xalloc@PEAVCTimer_paused@@@@PEAV1@@std@@YAPEAPEAVCTimer_paused@@PEAPEAV1@00AEAV?$xalloc@PEAVCTimer_paused@@@@0U_Nonscalar_ptr_iterator_tag@0@@Z@4HA
pdata	ENDS
;	COMDAT xdata
xdata	SEGMENT
$ip2state$??$_Uninit_move@PEAPEAVCTimer_paused@@PEAPEAV1@V?$xalloc@PEAVCTimer_paused@@@@PEAV1@@std@@YAPEAPEAVCTimer_paused@@PEAPEAV1@00AEAV?$xalloc@PEAVCTimer_paused@@@@0U_Nonscalar_ptr_iterator_tag@0@@Z DD imagerel ??$_Uninit_move@PEAPEAVCTimer_paused@@PEAPEAV1@V?$xalloc@PEAVCTimer_paused@@@@PEAV1@@std@@YAPEAPEAVCTimer_paused@@PEAPEAV1@00AEAV?$xalloc@PEAVCTimer_paused@@@@0U_Nonscalar_ptr_iterator_tag@0@@Z
	DD	0ffffffffH
	DD	imagerel ??$_Uninit_move@PEAPEAVCTimer_paused@@PEAPEAV1@V?$xalloc@PEAVCTimer_paused@@@@PEAV1@@std@@YAPEAPEAVCTimer_paused@@PEAPEAV1@00AEAV?$xalloc@PEAVCTimer_paused@@@@0U_Nonscalar_ptr_iterator_tag@0@@Z+16
	DD	00H
	DD	imagerel ??$_Uninit_move@PEAPEAVCTimer_paused@@PEAPEAV1@V?$xalloc@PEAVCTimer_paused@@@@PEAV1@@std@@YAPEAPEAVCTimer_paused@@PEAPEAV1@00AEAV?$xalloc@PEAVCTimer_paused@@@@0U_Nonscalar_ptr_iterator_tag@0@@Z+52
	DD	0ffffffffH
	DD	imagerel ?catch$0@?0???$_Uninit_move@PEAPEAVCTimer_paused@@PEAPEAV1@V?$xalloc@PEAVCTimer_paused@@@@PEAV1@@std@@YAPEAPEAVCTimer_paused@@PEAPEAV1@00AEAV?$xalloc@PEAVCTimer_paused@@@@0U_Nonscalar_ptr_iterator_tag@0@@Z@4HA
	DD	00H
	DD	imagerel ?catch$0@?0???$_Uninit_move@PEAPEAVCTimer_paused@@PEAPEAV1@V?$xalloc@PEAVCTimer_paused@@@@PEAV1@@std@@YAPEAPEAVCTimer_paused@@PEAPEAV1@00AEAV?$xalloc@PEAVCTimer_paused@@@@0U_Nonscalar_ptr_iterator_tag@0@@Z@4HA+13
	DD	01H
xdata	ENDS
;	COMDAT xdata
xdata	SEGMENT
$unwind$?catch$0@?0???$_Uninit_move@PEAPEAVCTimer_paused@@PEAPEAV1@V?$xalloc@PEAVCTimer_paused@@@@PEAV1@@std@@YAPEAPEAVCTimer_paused@@PEAPEAV1@00AEAV?$xalloc@PEAVCTimer_paused@@@@0U_Nonscalar_ptr_iterator_tag@0@@Z@4HA DD 020a19H
	DD	05006320aH
	DD	imagerel __CxxFrameHandler3
	DD	imagerel $cppxdata$??$_Uninit_move@PEAPEAVCTimer_paused@@PEAPEAV1@V?$xalloc@PEAVCTimer_paused@@@@PEAV1@@std@@YAPEAPEAVCTimer_paused@@PEAPEAV1@00AEAV?$xalloc@PEAVCTimer_paused@@@@0U_Nonscalar_ptr_iterator_tag@0@@Z
xdata	ENDS
;	COMDAT xdata
xdata	SEGMENT
$unwind$??$_Uninit_move@PEAPEAVCTimer_paused@@PEAPEAV1@V?$xalloc@PEAVCTimer_paused@@@@PEAV1@@std@@YAPEAPEAVCTimer_paused@@PEAPEAV1@00AEAV?$xalloc@PEAVCTimer_paused@@@@0U_Nonscalar_ptr_iterator_tag@0@@Z DD 010d19H
	DD	06204H
	DD	imagerel __CxxFrameHandler3
	DD	imagerel $cppxdata$??$_Uninit_move@PEAPEAVCTimer_paused@@PEAPEAV1@V?$xalloc@PEAVCTimer_paused@@@@PEAV1@@std@@YAPEAPEAVCTimer_paused@@PEAPEAV1@00AEAV?$xalloc@PEAVCTimer_paused@@@@0U_Nonscalar_ptr_iterator_tag@0@@Z
xdata	ENDS
;	COMDAT CONST
CONST	SEGMENT
$cppxdata$??$_Uninit_move@PEAPEAVCTimer_paused@@PEAPEAV1@V?$xalloc@PEAVCTimer_paused@@@@PEAV1@@std@@YAPEAPEAVCTimer_paused@@PEAPEAV1@00AEAV?$xalloc@PEAVCTimer_paused@@@@0U_Nonscalar_ptr_iterator_tag@0@@Z DD 019930522H
	DD	02H
	DD	imagerel $stateUnwindMap$??$_Uninit_move@PEAPEAVCTimer_paused@@PEAPEAV1@V?$xalloc@PEAVCTimer_paused@@@@PEAV1@@std@@YAPEAPEAVCTimer_paused@@PEAPEAV1@00AEAV?$xalloc@PEAVCTimer_paused@@@@0U_Nonscalar_ptr_iterator_tag@0@@Z
	DD	01H
	DD	imagerel $tryMap$??$_Uninit_move@PEAPEAVCTimer_paused@@PEAPEAV1@V?$xalloc@PEAVCTimer_paused@@@@PEAV1@@std@@YAPEAPEAVCTimer_paused@@PEAPEAV1@00AEAV?$xalloc@PEAVCTimer_paused@@@@0U_Nonscalar_ptr_iterator_tag@0@@Z
	DD	05H
	DD	imagerel $ip2state$??$_Uninit_move@PEAPEAVCTimer_paused@@PEAPEAV1@V?$xalloc@PEAVCTimer_paused@@@@PEAV1@@std@@YAPEAPEAVCTimer_paused@@PEAPEAV1@00AEAV?$xalloc@PEAVCTimer_paused@@@@0U_Nonscalar_ptr_iterator_tag@0@@Z
	DD	020H
	DD	00H
	DD	00H
CONST	ENDS
;	COMDAT xdata
xdata	SEGMENT
$tryMap$??$_Uninit_move@PEAPEAVCTimer_paused@@PEAPEAV1@V?$xalloc@PEAVCTimer_paused@@@@PEAV1@@std@@YAPEAPEAVCTimer_paused@@PEAPEAV1@00AEAV?$xalloc@PEAVCTimer_paused@@@@0U_Nonscalar_ptr_iterator_tag@0@@Z DD 00H
	DD	00H
	DD	01H
	DD	01H
	DD	imagerel $handlerMap$0$??$_Uninit_move@PEAPEAVCTimer_paused@@PEAPEAV1@V?$xalloc@PEAVCTimer_paused@@@@PEAV1@@std@@YAPEAPEAVCTimer_paused@@PEAPEAV1@00AEAV?$xalloc@PEAVCTimer_paused@@@@0U_Nonscalar_ptr_iterator_tag@0@@Z
xdata	ENDS
;	COMDAT xdata
xdata	SEGMENT
$handlerMap$0$??$_Uninit_move@PEAPEAVCTimer_paused@@PEAPEAV1@V?$xalloc@PEAVCTimer_paused@@@@PEAV1@@std@@YAPEAPEAVCTimer_paused@@PEAPEAV1@00AEAV?$xalloc@PEAVCTimer_paused@@@@0U_Nonscalar_ptr_iterator_tag@0@@Z DD 00H
	DD	00H
	DD	00H
	DD	imagerel ?catch$0@?0???$_Uninit_move@PEAPEAVCTimer_paused@@PEAPEAV1@V?$xalloc@PEAVCTimer_paused@@@@PEAV1@@std@@YAPEAPEAVCTimer_paused@@PEAPEAV1@00AEAV?$xalloc@PEAVCTimer_paused@@@@0U_Nonscalar_ptr_iterator_tag@0@@Z@4HA
	DD	038H
xdata	ENDS
;	COMDAT xdata
xdata	SEGMENT
$stateUnwindMap$??$_Uninit_move@PEAPEAVCTimer_paused@@PEAPEAV1@V?$xalloc@PEAVCTimer_paused@@@@PEAV1@@std@@YAPEAPEAVCTimer_paused@@PEAPEAV1@00AEAV?$xalloc@PEAVCTimer_paused@@@@0U_Nonscalar_ptr_iterator_tag@0@@Z DD 0ffffffffH
	DD	00H
	DD	0ffffffffH
	DD	00H
; Function compile flags: /Ogtpy
; File c:\program files (x86)\microsoft visual studio 10.0\vc\include\memory
xdata	ENDS
;	COMDAT ??$_Uninit_move@PEAPEAVCTimer_paused@@PEAPEAV1@V?$xalloc@PEAVCTimer_paused@@@@PEAV1@@std@@YAPEAPEAVCTimer_paused@@PEAPEAV1@00AEAV?$xalloc@PEAVCTimer_paused@@@@0U_Nonscalar_ptr_iterator_tag@0@@Z
_TEXT	SEGMENT
$T198697 = 32
_First$ = 64
_Last$ = 72
_Dest$ = 80
??$_Uninit_move@PEAPEAVCTimer_paused@@PEAPEAV1@V?$xalloc@PEAVCTimer_paused@@@@PEAV1@@std@@YAPEAPEAVCTimer_paused@@PEAPEAV1@00AEAV?$xalloc@PEAVCTimer_paused@@@@0U_Nonscalar_ptr_iterator_tag@0@@Z PROC ; std::_Uninit_move<CTimer_paused * __ptr64 * __ptr64,CTimer_paused * __ptr64 * __ptr64,xalloc<CTimer_paused * __ptr64>,CTimer_paused * __ptr64>, COMDAT

; 424  : 	{	// move [_First, _Last) to raw _Dest, using _Al, arbitrary type

$LN32:
	sub	rsp, 56					; 00000038H
	mov	QWORD PTR $T198697[rsp], -2
	npad	3
$LL6@Uninit_mov@6:

; 425  : 	_DEBUG_RANGE(_First, _Last);
; 426  : 	_DEBUG_POINTER(_Dest);
; 427  : 	_FwdIt _Next = _Dest;
; 428  : 
; 429  : 	_TRY_BEGIN
; 430  : 	for (; _First != _Last; ++_Dest, ++_First)

	cmp	rcx, rdx
	je	SHORT $LN4@Uninit_mov@6

; 431  : 		_Cons_val(_Al, _Dest, (_Valty &&)*_First);

	mov	rax, QWORD PTR [rcx]
	test	r8, r8
	je	SHORT $LN22@Uninit_mov@6
	mov	QWORD PTR [r8], rax
$LN22@Uninit_mov@6:

; 425  : 	_DEBUG_RANGE(_First, _Last);
; 426  : 	_DEBUG_POINTER(_Dest);
; 427  : 	_FwdIt _Next = _Dest;
; 428  : 
; 429  : 	_TRY_BEGIN
; 430  : 	for (; _First != _Last; ++_Dest, ++_First)

	add	r8, 8
	mov	QWORD PTR _Dest$[rsp], r8
	add	rcx, 8
	mov	QWORD PTR _First$[rsp], rcx
	jmp	SHORT $LL6@Uninit_mov@6
$LN4@Uninit_mov@6:

; 432  : 	_CATCH_ALL
; 433  : 	for (; _Next != _Dest; ++_Next)
; 434  : 		_Dest_val(_Al, _Next);
; 435  : 	_RERAISE;
; 436  : 	_CATCH_END
; 437  : 	return (_Dest);

	mov	rax, r8

; 438  : 	}

	add	rsp, 56					; 00000038H
	ret	0
$LN31@Uninit_mov@6:
??$_Uninit_move@PEAPEAVCTimer_paused@@PEAPEAV1@V?$xalloc@PEAVCTimer_paused@@@@PEAV1@@std@@YAPEAPEAVCTimer_paused@@PEAPEAV1@00AEAV?$xalloc@PEAVCTimer_paused@@@@0U_Nonscalar_ptr_iterator_tag@0@@Z ENDP ; std::_Uninit_move<CTimer_paused * __ptr64 * __ptr64,CTimer_paused * __ptr64 * __ptr64,xalloc<CTimer_paused * __ptr64>,CTimer_paused * __ptr64>
; Function compile flags: /Ogtpy
_TEXT	ENDS
;	COMDAT text$x
text$x	SEGMENT
$T198697 = 32
_First$ = 64
_Last$ = 72
_Dest$ = 80
?catch$0@?0???$_Uninit_move@PEAPEAVCTimer_paused@@PEAPEAV1@V?$xalloc@PEAVCTimer_paused@@@@PEAV1@@std@@YAPEAPEAVCTimer_paused@@PEAPEAV1@00AEAV?$xalloc@PEAVCTimer_paused@@@@0U_Nonscalar_ptr_iterator_tag@0@@Z@4HA PROC ; `std::_Uninit_move<CTimer_paused * __ptr64 * __ptr64,CTimer_paused * __ptr64 * __ptr64,xalloc<CTimer_paused * __ptr64>,CTimer_paused * __ptr64>'::`1'::catch$0

; 432  : 	_CATCH_ALL

	mov	QWORD PTR [rsp+16], rdx
	push	rbp
	sub	rsp, 32					; 00000020H
	mov	rbp, rdx
__catch$??$_Uninit_move@PEAPEAVCTimer_paused@@PEAPEAV1@V?$xalloc@PEAVCTimer_paused@@@@PEAV1@@std@@YAPEAPEAVCTimer_paused@@PEAPEAV1@00AEAV?$xalloc@PEAVCTimer_paused@@@@0U_Nonscalar_ptr_iterator_tag@0@@Z$0:

; 433  : 	for (; _Next != _Dest; ++_Next)
; 434  : 		_Dest_val(_Al, _Next);
; 435  : 	_RERAISE;

	xor	edx, edx
	xor	ecx, ecx
	call	_CxxThrowException
	npad	1
?catch$0@?0???$_Uninit_move@PEAPEAVCTimer_paused@@PEAPEAV1@V?$xalloc@PEAVCTimer_paused@@@@PEAV1@@std@@YAPEAPEAVCTimer_paused@@PEAPEAV1@00AEAV?$xalloc@PEAVCTimer_paused@@@@0U_Nonscalar_ptr_iterator_tag@0@@Z@4HA ENDP ; `std::_Uninit_move<CTimer_paused * __ptr64 * __ptr64,CTimer_paused * __ptr64 * __ptr64,xalloc<CTimer_paused * __ptr64>,CTimer_paused * __ptr64>'::`1'::catch$0
text$x	ENDS
;	COMDAT pdata
pdata	SEGMENT
$pdata$??$_Uninit_move@PEAPEAVCTimer_paused@@PEAPEAV1@V?$xalloc@PEAVCTimer_paused@@@@PEAV1@@std@@YAPEAPEAVCTimer_paused@@PEAPEAV1@00AEAV?$xalloc@PEAVCTimer_paused@@@@0U_Scalar_ptr_iterator_tag@0@@Z DD imagerel $LN3
	DD	imagerel $LN3+14
	DD	imagerel $unwind$??$_Uninit_move@PEAPEAVCTimer_paused@@PEAPEAV1@V?$xalloc@PEAVCTimer_paused@@@@PEAV1@@std@@YAPEAPEAVCTimer_paused@@PEAPEAV1@00AEAV?$xalloc@PEAVCTimer_paused@@@@0U_Scalar_ptr_iterator_tag@0@@Z
pdata	ENDS
;	COMDAT xdata
xdata	SEGMENT
$unwind$??$_Uninit_move@PEAPEAVCTimer_paused@@PEAPEAV1@V?$xalloc@PEAVCTimer_paused@@@@PEAV1@@std@@YAPEAPEAVCTimer_paused@@PEAPEAV1@00AEAV?$xalloc@PEAVCTimer_paused@@@@0U_Scalar_ptr_iterator_tag@0@@Z DD 010401H
	DD	04204H
; Function compile flags: /Ogtpy
xdata	ENDS
;	COMDAT ??$_Uninit_move@PEAPEAVCTimer_paused@@PEAPEAV1@V?$xalloc@PEAVCTimer_paused@@@@PEAV1@@std@@YAPEAPEAVCTimer_paused@@PEAPEAV1@00AEAV?$xalloc@PEAVCTimer_paused@@@@0U_Scalar_ptr_iterator_tag@0@@Z
_TEXT	SEGMENT
_First$ = 48
_Last$ = 56
_Dest$ = 64
??$_Uninit_move@PEAPEAVCTimer_paused@@PEAPEAV1@V?$xalloc@PEAVCTimer_paused@@@@PEAV1@@std@@YAPEAPEAVCTimer_paused@@PEAPEAV1@00AEAV?$xalloc@PEAVCTimer_paused@@@@0U_Scalar_ptr_iterator_tag@0@@Z PROC ; std::_Uninit_move<CTimer_paused * __ptr64 * __ptr64,CTimer_paused * __ptr64 * __ptr64,xalloc<CTimer_paused * __ptr64>,CTimer_paused * __ptr64>, COMDAT

; 446  : 	{	// move [_First, _Last) to raw _Dest, using _Al, scalar type

$LN3:
	sub	rsp, 40					; 00000028H

; 447  : 	return (_Uninit_move(_First, _Last, _Dest,
; 448  : 		_Al, (_Valty *)0, _Nonscalar_ptr_iterator_tag()));

	call	??$_Uninit_move@PEAPEAVCTimer_paused@@PEAPEAV1@V?$xalloc@PEAVCTimer_paused@@@@PEAV1@@std@@YAPEAPEAVCTimer_paused@@PEAPEAV1@00AEAV?$xalloc@PEAVCTimer_paused@@@@0U_Nonscalar_ptr_iterator_tag@0@@Z ; std::_Uninit_move<CTimer_paused * __ptr64 * __ptr64,CTimer_paused * __ptr64 * __ptr64,xalloc<CTimer_paused * __ptr64>,CTimer_paused * __ptr64>

; 449  : 	}

	add	rsp, 40					; 00000028H
	ret	0
??$_Uninit_move@PEAPEAVCTimer_paused@@PEAPEAV1@V?$xalloc@PEAVCTimer_paused@@@@PEAV1@@std@@YAPEAPEAVCTimer_paused@@PEAPEAV1@00AEAV?$xalloc@PEAVCTimer_paused@@@@0U_Scalar_ptr_iterator_tag@0@@Z ENDP ; std::_Uninit_move<CTimer_paused * __ptr64 * __ptr64,CTimer_paused * __ptr64 * __ptr64,xalloc<CTimer_paused * __ptr64>,CTimer_paused * __ptr64>
; Function compile flags: /Ogtpy
_TEXT	ENDS
;	COMDAT ??$_Uninitialized_move@PEAPEAVCTimer_paused@@PEAPEAV1@V?$xalloc@PEAVCTimer_paused@@@@@std@@YAPEAPEAVCTimer_paused@@PEAPEAV1@00AEAV?$xalloc@PEAVCTimer_paused@@@@@Z
_TEXT	SEGMENT
_First$ = 8
_Last$ = 16
_Dest$ = 24
??$_Uninitialized_move@PEAPEAVCTimer_paused@@PEAPEAV1@V?$xalloc@PEAVCTimer_paused@@@@@std@@YAPEAPEAVCTimer_paused@@PEAPEAV1@00AEAV?$xalloc@PEAVCTimer_paused@@@@@Z PROC ; std::_Uninitialized_move<CTimer_paused * __ptr64 * __ptr64,CTimer_paused * __ptr64 * __ptr64,xalloc<CTimer_paused * __ptr64> >, COMDAT

; 470  : 	return (_Uninit_move(_First, _Last, _Dest, _Al,
; 471  : 		_Val_type(_First), _Ptr_cat(_First, _Dest)));
; 472  : 	}

	jmp	??$_Uninit_move@PEAPEAVCTimer_paused@@PEAPEAV1@V?$xalloc@PEAVCTimer_paused@@@@PEAV1@@std@@YAPEAPEAVCTimer_paused@@PEAPEAV1@00AEAV?$xalloc@PEAVCTimer_paused@@@@0U_Nonscalar_ptr_iterator_tag@0@@Z ; std::_Uninit_move<CTimer_paused * __ptr64 * __ptr64,CTimer_paused * __ptr64 * __ptr64,xalloc<CTimer_paused * __ptr64>,CTimer_paused * __ptr64>
??$_Uninitialized_move@PEAPEAVCTimer_paused@@PEAPEAV1@V?$xalloc@PEAVCTimer_paused@@@@@std@@YAPEAPEAVCTimer_paused@@PEAPEAV1@00AEAV?$xalloc@PEAVCTimer_paused@@@@@Z ENDP ; std::_Uninitialized_move<CTimer_paused * __ptr64 * __ptr64,CTimer_paused * __ptr64 * __ptr64,xalloc<CTimer_paused * __ptr64> >
; Function compile flags: /Ogtpy
; File c:\program files (x86)\microsoft visual studio 10.0\vc\include\vector
_TEXT	ENDS
;	COMDAT ??$_Umove@PEAPEAVCTimer_paused@@@?$vector@PEAVCTimer_paused@@V?$xalloc@PEAVCTimer_paused@@@@@std@@IEAAPEAPEAVCTimer_paused@@PEAPEAV2@00@Z
_TEXT	SEGMENT
_First$ = 8
_Last$ = 16
_Ptr$ = 24
??$_Umove@PEAPEAVCTimer_paused@@@?$vector@PEAVCTimer_paused@@V?$xalloc@PEAVCTimer_paused@@@@@std@@IEAAPEAPEAVCTimer_paused@@PEAPEAV2@00@Z PROC ; std::vector<CTimer_paused * __ptr64,xalloc<CTimer_paused * __ptr64> >::_Umove<CTimer_paused * __ptr64 * __ptr64>, COMDAT

; 1323 : 		{	// move initializing [_First, _Last), using allocator
; 1324 : 		return (_Uninitialized_move(_First, _Last,
; 1325 : 			_Ptr, this->_Alval));
; 1326 : 		}

	jmp	??$_Uninit_move@PEAPEAVCTimer_paused@@PEAPEAV1@V?$xalloc@PEAVCTimer_paused@@@@PEAV1@@std@@YAPEAPEAVCTimer_paused@@PEAPEAV1@00AEAV?$xalloc@PEAVCTimer_paused@@@@0U_Nonscalar_ptr_iterator_tag@0@@Z ; std::_Uninit_move<CTimer_paused * __ptr64 * __ptr64,CTimer_paused * __ptr64 * __ptr64,xalloc<CTimer_paused * __ptr64>,CTimer_paused * __ptr64>
??$_Umove@PEAPEAVCTimer_paused@@@?$vector@PEAVCTimer_paused@@V?$xalloc@PEAVCTimer_paused@@@@@std@@IEAAPEAPEAVCTimer_paused@@PEAPEAV2@00@Z ENDP ; std::vector<CTimer_paused * __ptr64,xalloc<CTimer_paused * __ptr64> >::_Umove<CTimer_paused * __ptr64 * __ptr64>
_TEXT	ENDS
;	COMDAT pdata
; File c:\program files (x86)\microsoft visual studio 10.0\vc\include\xutility
pdata	SEGMENT
$pdata$?erase@?$vector@PEAVCTimer_paused@@V?$xalloc@PEAVCTimer_paused@@@@@std@@QEAA?AV?$_Vector_iterator@V?$_Vector_val@PEAVCTimer_paused@@V?$xalloc@PEAVCTimer_paused@@@@@std@@@2@V?$_Vector_const_iterator@V?$_Vector_val@PEAVCTimer_paused@@V?$xalloc@PEAVCTimer_paused@@@@@std@@@2@@Z DD imagerel $LN17
	DD	imagerel $LN17+75
	DD	imagerel $unwind$?erase@?$vector@PEAVCTimer_paused@@V?$xalloc@PEAVCTimer_paused@@@@@std@@QEAA?AV?$_Vector_iterator@V?$_Vector_val@PEAVCTimer_paused@@V?$xalloc@PEAVCTimer_paused@@@@@std@@@2@V?$_Vector_const_iterator@V?$_Vector_val@PEAVCTimer_paused@@V?$xalloc@PEAVCTimer_paused@@@@@std@@@2@@Z
pdata	ENDS
;	COMDAT xdata
xdata	SEGMENT
$unwind$?erase@?$vector@PEAVCTimer_paused@@V?$xalloc@PEAVCTimer_paused@@@@@std@@QEAA?AV?$_Vector_iterator@V?$_Vector_val@PEAVCTimer_paused@@V?$xalloc@PEAVCTimer_paused@@@@@std@@@2@V?$_Vector_const_iterator@V?$_Vector_val@PEAVCTimer_paused@@V?$xalloc@PEAVCTimer_paused@@@@@std@@@2@@Z DD 040f01H
	DD	06340fH
	DD	0700b320fH
; Function compile flags: /Ogtpy
; File c:\program files (x86)\microsoft visual studio 10.0\vc\include\vector
xdata	ENDS
;	COMDAT ?erase@?$vector@PEAVCTimer_paused@@V?$xalloc@PEAVCTimer_paused@@@@@std@@QEAA?AV?$_Vector_iterator@V?$_Vector_val@PEAVCTimer_paused@@V?$xalloc@PEAVCTimer_paused@@@@@std@@@2@V?$_Vector_const_iterator@V?$_Vector_val@PEAVCTimer_paused@@V?$xalloc@PEAVCTimer_paused@@@@@std@@@2@@Z
_TEXT	SEGMENT
this$ = 48
__$ReturnUdt$ = 56
_Where$ = 64
?erase@?$vector@PEAVCTimer_paused@@V?$xalloc@PEAVCTimer_paused@@@@@std@@QEAA?AV?$_Vector_iterator@V?$_Vector_val@PEAVCTimer_paused@@V?$xalloc@PEAVCTimer_paused@@@@@std@@@2@V?$_Vector_const_iterator@V?$_Vector_val@PEAVCTimer_paused@@V?$xalloc@PEAVCTimer_paused@@@@@std@@@2@@Z PROC ; std::vector<CTimer_paused * __ptr64,xalloc<CTimer_paused * __ptr64> >::erase, COMDAT

; 1179 : 		{	// erase element at where

$LN17:
	mov	QWORD PTR [rsp+8], rbx
	mov	QWORD PTR [rsp+24], r8
	push	rdi
	sub	rsp, 32					; 00000020H
	mov	rax, r8
	mov	rdi, rdx

; 1180 : 		_Move(_VIPTR(_Where) + 1, this->_Mylast,
; 1181 : 			_VIPTR(_Where));

	lea	rdx, QWORD PTR [r8+8]
	mov	r8, QWORD PTR [rcx+8]
	mov	rbx, rcx
	mov	rcx, rax
	sub	r8, rdx
	and	r8, -8
	call	QWORD PTR __imp_memmove

; 1182 : 		_Destroy(this->_Mylast - 1, this->_Mylast);
; 1183 : 		--this->_Mylast;
; 1184 : 		return (_Make_iter(_Where));

	mov	rax, QWORD PTR _Where$[rsp]
	add	QWORD PTR [rbx+8], -8

; 1185 : 		}

	mov	rbx, QWORD PTR [rsp+48]
	mov	QWORD PTR [rdi], rax
	mov	rax, rdi
	add	rsp, 32					; 00000020H
	pop	rdi
	ret	0
?erase@?$vector@PEAVCTimer_paused@@V?$xalloc@PEAVCTimer_paused@@@@@std@@QEAA?AV?$_Vector_iterator@V?$_Vector_val@PEAVCTimer_paused@@V?$xalloc@PEAVCTimer_paused@@@@@std@@@2@V?$_Vector_const_iterator@V?$_Vector_val@PEAVCTimer_paused@@V?$xalloc@PEAVCTimer_paused@@@@@std@@@2@@Z ENDP ; std::vector<CTimer_paused * __ptr64,xalloc<CTimer_paused * __ptr64> >::erase
;	COMDAT pdata
; File c:\users\nummer\documents\github\olr-3.0\src\xray\xrcore\_stl_extensions.h
pdata	SEGMENT
$pdata$?deallocate@?$xalloc@PEAVCTimer_paused@@@@QEBAXPEAPEAVCTimer_paused@@_K@Z DD imagerel $LN3
	DD	imagerel $LN3+24
	DD	imagerel $unwind$?deallocate@?$xalloc@PEAVCTimer_paused@@@@QEBAXPEAPEAVCTimer_paused@@_K@Z
pdata	ENDS
;	COMDAT xdata
xdata	SEGMENT
$unwind$?deallocate@?$xalloc@PEAVCTimer_paused@@@@QEBAXPEAPEAVCTimer_paused@@_K@Z DD 010901H
	DD	04209H
; Function compile flags: /Ogtpy
xdata	ENDS
;	COMDAT ?deallocate@?$xalloc@PEAVCTimer_paused@@@@QEBAXPEAPEAVCTimer_paused@@_K@Z
_TEXT	SEGMENT
p$ = 48
?deallocate@?$xalloc@PEAVCTimer_paused@@@@QEBAXPEAPEAVCTimer_paused@@_K@Z PROC ; xalloc<CTimer_paused * __ptr64>::deallocate, COMDAT

; 82   : 							void					deallocate		(pointer p, size_type n) const			{	xr_free	(p);				}

$LN3:
	mov	QWORD PTR [rsp+8], rcx
	sub	rsp, 40					; 00000028H
	lea	rcx, QWORD PTR p$[rsp]
	call	??$xr_free@PEAVCTimer_paused@@@@YAXAEAPEAPEAVCTimer_paused@@@Z ; xr_free<CTimer_paused * __ptr64>
	add	rsp, 40					; 00000028H
	ret	0
?deallocate@?$xalloc@PEAVCTimer_paused@@@@QEBAXPEAPEAVCTimer_paused@@_K@Z ENDP ; xalloc<CTimer_paused * __ptr64>::deallocate
; Function compile flags: /Ogtpy
; File c:\program files (x86)\microsoft visual studio 10.0\vc\include\vector
_TEXT	ENDS
;	COMDAT ?begin@?$vector@PEAVCTimer_paused@@V?$xalloc@PEAVCTimer_paused@@@@@std@@QEAA?AV?$_Vector_iterator@V?$_Vector_val@PEAVCTimer_paused@@V?$xalloc@PEAVCTimer_paused@@@@@std@@@2@XZ
_TEXT	SEGMENT
this$ = 8
__$ReturnUdt$ = 16
?begin@?$vector@PEAVCTimer_paused@@V?$xalloc@PEAVCTimer_paused@@@@@std@@QEAA?AV?$_Vector_iterator@V?$_Vector_val@PEAVCTimer_paused@@V?$xalloc@PEAVCTimer_paused@@@@@std@@@2@XZ PROC ; std::vector<CTimer_paused * __ptr64,xalloc<CTimer_paused * __ptr64> >::begin, COMDAT

; 782  : 		return (iterator(this->_Myfirst, this));

	mov	rax, QWORD PTR [rcx]
	mov	QWORD PTR [rdx], rax
	mov	rax, rdx

; 783  : 		}

	ret	0
?begin@?$vector@PEAVCTimer_paused@@V?$xalloc@PEAVCTimer_paused@@@@@std@@QEAA?AV?$_Vector_iterator@V?$_Vector_val@PEAVCTimer_paused@@V?$xalloc@PEAVCTimer_paused@@@@@std@@@2@XZ ENDP ; std::vector<CTimer_paused * __ptr64,xalloc<CTimer_paused * __ptr64> >::begin
; Function compile flags: /Ogtpy
; File c:\program files (x86)\microsoft visual studio 10.0\vc\include\xmemory
_TEXT	ENDS
;	COMDAT ??$_Cons_val@V?$xalloc@PEAVCTimer_paused@@@@PEAVCTimer_paused@@AEAPEAV2@@std@@YAXAEAV?$xalloc@PEAVCTimer_paused@@@@PEAPEAVCTimer_paused@@AEAPEAV2@@Z
_TEXT	SEGMENT
_Pdest$ = 8
_Src$ = 16
??$_Cons_val@V?$xalloc@PEAVCTimer_paused@@@@PEAVCTimer_paused@@AEAPEAV2@@std@@YAXAEAV?$xalloc@PEAVCTimer_paused@@@@PEAPEAVCTimer_paused@@AEAPEAV2@@Z PROC ; std::_Cons_val<xalloc<CTimer_paused * __ptr64>,CTimer_paused * __ptr64,CTimer_paused * __ptr64 & __ptr64>, COMDAT

; 280  : 	_Alval.construct(_Pdest, _STD forward<_Ty2>(_Src));

	test	rcx, rcx
	je	SHORT $LN9@Cons_val@27
	mov	rax, QWORD PTR [rdx]
	mov	QWORD PTR [rcx], rax
$LN9@Cons_val@27:

; 281  : 	}

	fatret	0
??$_Cons_val@V?$xalloc@PEAVCTimer_paused@@@@PEAVCTimer_paused@@AEAPEAV2@@std@@YAXAEAV?$xalloc@PEAVCTimer_paused@@@@PEAPEAVCTimer_paused@@AEAPEAV2@@Z ENDP ; std::_Cons_val<xalloc<CTimer_paused * __ptr64>,CTimer_paused * __ptr64,CTimer_paused * __ptr64 & __ptr64>
_TEXT	ENDS
PUBLIC	?UnRegister@pauseMngr@@QEAAXPEAVCTimer_paused@@@Z ; pauseMngr::UnRegister
pdata	SEGMENT
$pdata$?UnRegister@pauseMngr@@QEAAXPEAVCTimer_paused@@@Z DD imagerel $LN75
	DD	imagerel $LN75+68
	DD	imagerel $unwind$?UnRegister@pauseMngr@@QEAAXPEAVCTimer_paused@@@Z
pdata	ENDS
xdata	SEGMENT
$unwind$?UnRegister@pauseMngr@@QEAAXPEAVCTimer_paused@@@Z DD 020601H
	DD	030023206H
; Function compile flags: /Ogtpy
; File c:\users\nummer\documents\github\olr-3.0\src\xray\xrcore\ftimer.cpp
xdata	ENDS
_TEXT	SEGMENT
this$ = 48
t$ = 56
?UnRegister@pauseMngr@@QEAAXPEAVCTimer_paused@@@Z PROC	; pauseMngr::UnRegister

; 61   : void pauseMngr::UnRegister (CTimer_paused* t){

$LN75:
	push	rbx
	sub	rsp, 32					; 00000020H

; 62   : 	xr_vector<CTimer_paused*>::iterator it = std::find(m_timers.begin(),m_timers.end(),t);

	mov	r8, QWORD PTR [rcx+8]
	mov	rbx, rcx
	mov	rcx, QWORD PTR [rcx]
	cmp	rcx, r8
	je	SHORT $LN68@UnRegister
$LL33@UnRegister:
	cmp	QWORD PTR [rcx], rdx
	je	SHORT $LN73@UnRegister
	add	rcx, 8
	cmp	rcx, r8
	jne	SHORT $LL33@UnRegister
$LN73@UnRegister:

; 63   : 	if( it!=m_timers.end() )

	cmp	rcx, r8
	je	SHORT $LN68@UnRegister

; 64   : 		m_timers.erase(it);

	lea	rdx, QWORD PTR [rcx+8]
	sub	r8, rdx
	and	r8, -8
	call	QWORD PTR __imp_memmove
	add	QWORD PTR [rbx+8], -8
$LN68@UnRegister:

; 65   : }

	add	rsp, 32					; 00000020H
	pop	rbx
	ret	0
?UnRegister@pauseMngr@@QEAAXPEAVCTimer_paused@@@Z ENDP	; pauseMngr::UnRegister
_TEXT	ENDS
PUBLIC	?Pause@pauseMngr@@QEAAXH@Z			; pauseMngr::Pause
pdata	SEGMENT
$pdata$?Pause@pauseMngr@@QEAAXH@Z DD imagerel $LN42
	DD	imagerel $LN42+20
	DD	imagerel $unwind$?Pause@pauseMngr@@QEAAXH@Z
$pdata$0$?Pause@pauseMngr@@QEAAXH@Z DD imagerel $LN42+20
	DD	imagerel $LN42+62
	DD	imagerel $chain$0$?Pause@pauseMngr@@QEAAXH@Z
$pdata$1$?Pause@pauseMngr@@QEAAXH@Z DD imagerel $LN42+62
	DD	imagerel $LN42+73
	DD	imagerel $chain$1$?Pause@pauseMngr@@QEAAXH@Z
pdata	ENDS
xdata	SEGMENT
$unwind$?Pause@pauseMngr@@QEAAXH@Z DD 040a01H
	DD	07640aH
	DD	07006320aH
$chain$0$?Pause@pauseMngr@@QEAAXH@Z DD 020521H
	DD	063405H
	DD	imagerel $LN42
	DD	imagerel $LN42+20
	DD	imagerel $unwind$?Pause@pauseMngr@@QEAAXH@Z
$chain$1$?Pause@pauseMngr@@QEAAXH@Z DD 021H
	DD	imagerel $LN42
	DD	imagerel $LN42+20
	DD	imagerel $unwind$?Pause@pauseMngr@@QEAAXH@Z
; Function compile flags: /Ogtpy
xdata	ENDS
_TEXT	SEGMENT
this$ = 48
b$ = 56
?Pause@pauseMngr@@QEAAXH@Z PROC				; pauseMngr::Pause

; 47   : {

$LN42:
	mov	QWORD PTR [rsp+16], rsi
	push	rdi
	sub	rsp, 32					; 00000020H
	mov	esi, edx
	mov	rdi, rcx

; 48   : 	if(m_paused == b)return;

	cmp	DWORD PTR [rcx+32], edx
	je	SHORT $LN5@Pause@2

; 49   : 
; 50   : 	xr_vector<CTimer_paused*>::iterator it = m_timers.begin();

	mov	QWORD PTR [rsp+48], rbx
	mov	rbx, QWORD PTR [rcx]

; 51   : 	for(;it!=m_timers.end();++it)

	cmp	rbx, QWORD PTR [rcx+8]
	je	SHORT $LN1@Pause@2
$LL17@Pause@2:

; 52   : 		(*it)->Pause(b);

	mov	rcx, QWORD PTR [rbx]
	mov	edx, esi
	call	?Pause@CTimer_paused_ex@@QEAAXH@Z	; CTimer_paused_ex::Pause
	add	rbx, 8
	cmp	rbx, QWORD PTR [rdi+8]
	jne	SHORT $LL17@Pause@2
$LN1@Pause@2:
	mov	rbx, QWORD PTR [rsp+48]

; 53   : 
; 54   : 	m_paused = b;

	mov	DWORD PTR [rdi+32], esi
$LN5@Pause@2:

; 55   : }

	mov	rsi, QWORD PTR [rsp+56]
	add	rsp, 32					; 00000020H
	pop	rdi
	ret	0
?Pause@pauseMngr@@QEAAXH@Z ENDP				; pauseMngr::Pause
;	COMDAT pdata
; File c:\users\nummer\documents\github\olr-3.0\src\xray\xrcore\_stl_extensions.h
pdata	SEGMENT
$pdata$?_Tidy@?$vector@PEAVCTimer_paused@@V?$xalloc@PEAVCTimer_paused@@@@@std@@IEAAXXZ DD imagerel $LN8
	DD	imagerel $LN8+51
	DD	imagerel $unwind$?_Tidy@?$vector@PEAVCTimer_paused@@V?$xalloc@PEAVCTimer_paused@@@@@std@@IEAAXXZ
pdata	ENDS
;	COMDAT xdata
xdata	SEGMENT
$unwind$?_Tidy@?$vector@PEAVCTimer_paused@@V?$xalloc@PEAVCTimer_paused@@@@@std@@IEAAXXZ DD 020601H
	DD	030023206H
; Function compile flags: /Ogtpy
; File c:\program files (x86)\microsoft visual studio 10.0\vc\include\vector
xdata	ENDS
;	COMDAT ?_Tidy@?$vector@PEAVCTimer_paused@@V?$xalloc@PEAVCTimer_paused@@@@@std@@IEAAXXZ
_TEXT	SEGMENT
$T264992 = 48
this$ = 48
?_Tidy@?$vector@PEAVCTimer_paused@@V?$xalloc@PEAVCTimer_paused@@@@@std@@IEAAXXZ PROC ; std::vector<CTimer_paused * __ptr64,xalloc<CTimer_paused * __ptr64> >::_Tidy, COMDAT

; 1301 : 		{	// free all storage

$LN8:
	push	rbx
	sub	rsp, 32					; 00000020H

; 1302 : 		if (this->_Myfirst != 0)

	mov	rax, QWORD PTR [rcx]
	mov	rbx, rcx
	test	rax, rax
	je	SHORT $LN6@Tidy@13

; 1303 : 			{	// something to free, destroy and deallocate it
; 1304 : 			this->_Orphan_all();
; 1305 : 			_Destroy(this->_Myfirst, this->_Mylast);
; 1306 : 			this->_Alval.deallocate(this->_Myfirst,
; 1307 : 				this->_Myend - this->_Myfirst);

	lea	rcx, QWORD PTR $T264992[rsp]
	mov	QWORD PTR $T264992[rsp], rax
	call	??$xr_free@PEAVCTimer_paused@@@@YAXAEAPEAPEAVCTimer_paused@@@Z ; xr_free<CTimer_paused * __ptr64>
$LN6@Tidy@13:

; 1308 : 			}
; 1309 : 		this->_Myfirst = 0;

	xor	eax, eax
	mov	QWORD PTR [rbx], rax

; 1310 : 		this->_Mylast = 0;

	mov	QWORD PTR [rbx+8], rax

; 1311 : 		this->_Myend = 0;

	mov	QWORD PTR [rbx+16], rax

; 1312 : 		}

	add	rsp, 32					; 00000020H
	pop	rbx
	ret	0
?_Tidy@?$vector@PEAVCTimer_paused@@V?$xalloc@PEAVCTimer_paused@@@@@std@@IEAAXXZ ENDP ; std::vector<CTimer_paused * __ptr64,xalloc<CTimer_paused * __ptr64> >::_Tidy
;	COMDAT pdata
pdata	SEGMENT
$pdata$??1?$vector@PEAVCTimer_paused@@V?$xalloc@PEAVCTimer_paused@@@@@std@@QEAA@XZ DD imagerel $LN12
	DD	imagerel $LN12+51
	DD	imagerel $unwind$??1?$vector@PEAVCTimer_paused@@V?$xalloc@PEAVCTimer_paused@@@@@std@@QEAA@XZ
pdata	ENDS
;	COMDAT xdata
xdata	SEGMENT
$unwind$??1?$vector@PEAVCTimer_paused@@V?$xalloc@PEAVCTimer_paused@@@@@std@@QEAA@XZ DD 020601H
	DD	030023206H
; Function compile flags: /Ogtpy
xdata	ENDS
;	COMDAT ??1?$vector@PEAVCTimer_paused@@V?$xalloc@PEAVCTimer_paused@@@@@std@@QEAA@XZ
_TEXT	SEGMENT
$T270594 = 48
this$ = 48
??1?$vector@PEAVCTimer_paused@@V?$xalloc@PEAVCTimer_paused@@@@@std@@QEAA@XZ PROC ; std::vector<CTimer_paused * __ptr64,xalloc<CTimer_paused * __ptr64> >::~vector<CTimer_paused * __ptr64,xalloc<CTimer_paused * __ptr64> >, COMDAT

; 704  : 		{	// destroy the object

$LN12:
	push	rbx
	sub	rsp, 32					; 00000020H

; 705  : 		_Tidy();

	mov	rax, QWORD PTR [rcx]
	mov	rbx, rcx
	test	rax, rax
	je	SHORT $LN8@vector@19
	lea	rcx, QWORD PTR $T270594[rsp]
	mov	QWORD PTR $T270594[rsp], rax
	call	??$xr_free@PEAVCTimer_paused@@@@YAXAEAPEAPEAVCTimer_paused@@@Z ; xr_free<CTimer_paused * __ptr64>
$LN8@vector@19:
	xor	eax, eax
	mov	QWORD PTR [rbx], rax
	mov	QWORD PTR [rbx+8], rax
	mov	QWORD PTR [rbx+16], rax

; 706  : 		}

	add	rsp, 32					; 00000020H
	pop	rbx
	ret	0
??1?$vector@PEAVCTimer_paused@@V?$xalloc@PEAVCTimer_paused@@@@@std@@QEAA@XZ ENDP ; std::vector<CTimer_paused * __ptr64,xalloc<CTimer_paused * __ptr64> >::~vector<CTimer_paused * __ptr64,xalloc<CTimer_paused * __ptr64> >
; Function compile flags: /Ogtpy
; File c:\users\nummer\documents\github\olr-3.0\src\xray\xrcore\_stl_extensions.h
_TEXT	ENDS
;	COMDAT ??0?$xr_vector@PEAVCTimer_paused@@V?$xalloc@PEAVCTimer_paused@@@@@@QEAA@XZ
_TEXT	SEGMENT
this$ = 8
??0?$xr_vector@PEAVCTimer_paused@@V?$xalloc@PEAVCTimer_paused@@@@@@QEAA@XZ PROC ; xr_vector<CTimer_paused * __ptr64,xalloc<CTimer_paused * __ptr64> >::xr_vector<CTimer_paused * __ptr64,xalloc<CTimer_paused * __ptr64> >, COMDAT

; 122  : 			xr_vector			()									: inherited	()					{}

	xor	eax, eax
	mov	QWORD PTR [rcx], rax
	mov	QWORD PTR [rcx+8], rax
	mov	QWORD PTR [rcx+16], rax
	mov	rax, rcx
	ret	0
??0?$xr_vector@PEAVCTimer_paused@@V?$xalloc@PEAVCTimer_paused@@@@@@QEAA@XZ ENDP ; xr_vector<CTimer_paused * __ptr64,xalloc<CTimer_paused * __ptr64> >::xr_vector<CTimer_paused * __ptr64,xalloc<CTimer_paused * __ptr64> >
;	COMDAT pdata
pdata	SEGMENT
$pdata$??1?$xr_vector@PEAVCTimer_paused@@V?$xalloc@PEAVCTimer_paused@@@@@@QEAA@XZ DD imagerel $LN14
	DD	imagerel $LN14+51
	DD	imagerel $unwind$??1?$xr_vector@PEAVCTimer_paused@@V?$xalloc@PEAVCTimer_paused@@@@@@QEAA@XZ
pdata	ENDS
;	COMDAT xdata
xdata	SEGMENT
$unwind$??1?$xr_vector@PEAVCTimer_paused@@V?$xalloc@PEAVCTimer_paused@@@@@@QEAA@XZ DD 020601H
	DD	030023206H
; Function compile flags: /Ogtpy
xdata	ENDS
;	COMDAT ??1?$xr_vector@PEAVCTimer_paused@@V?$xalloc@PEAVCTimer_paused@@@@@@QEAA@XZ
_TEXT	SEGMENT
$T271587 = 48
this$ = 48
??1?$xr_vector@PEAVCTimer_paused@@V?$xalloc@PEAVCTimer_paused@@@@@@QEAA@XZ PROC ; xr_vector<CTimer_paused * __ptr64,xalloc<CTimer_paused * __ptr64> >::~xr_vector<CTimer_paused * __ptr64,xalloc<CTimer_paused * __ptr64> >, COMDAT
$LN14:
	push	rbx
	sub	rsp, 32					; 00000020H
	mov	rax, QWORD PTR [rcx]
	mov	rbx, rcx
	test	rax, rax
	je	SHORT $LN10@xr_vector@7
	lea	rcx, QWORD PTR $T271587[rsp]
	mov	QWORD PTR $T271587[rsp], rax
	call	??$xr_free@PEAVCTimer_paused@@@@YAXAEAPEAPEAVCTimer_paused@@@Z ; xr_free<CTimer_paused * __ptr64>
$LN10@xr_vector@7:
	xor	eax, eax
	mov	QWORD PTR [rbx], rax
	mov	QWORD PTR [rbx+8], rax
	mov	QWORD PTR [rbx+16], rax
	add	rsp, 32					; 00000020H
	pop	rbx
	ret	0
??1?$xr_vector@PEAVCTimer_paused@@V?$xalloc@PEAVCTimer_paused@@@@@@QEAA@XZ ENDP ; xr_vector<CTimer_paused * __ptr64,xalloc<CTimer_paused * __ptr64> >::~xr_vector<CTimer_paused * __ptr64,xalloc<CTimer_paused * __ptr64> >
;	COMDAT pdata
pdata	SEGMENT
$pdata$??1pauseMngr@@QEAA@XZ DD imagerel $LN16
	DD	imagerel $LN16+51
	DD	imagerel $unwind$??1pauseMngr@@QEAA@XZ
pdata	ENDS
;	COMDAT xdata
xdata	SEGMENT
$unwind$??1pauseMngr@@QEAA@XZ DD 020601H
	DD	030023206H
; Function compile flags: /Ogtpy
xdata	ENDS
;	COMDAT ??1pauseMngr@@QEAA@XZ
_TEXT	SEGMENT
$T272185 = 48
this$ = 48
??1pauseMngr@@QEAA@XZ PROC				; pauseMngr::~pauseMngr, COMDAT
$LN16:
	push	rbx
	sub	rsp, 32					; 00000020H
	mov	rax, QWORD PTR [rcx]
	mov	rbx, rcx
	test	rax, rax
	je	SHORT $LN12@pauseMngr
	lea	rcx, QWORD PTR $T272185[rsp]
	mov	QWORD PTR $T272185[rsp], rax
	call	??$xr_free@PEAVCTimer_paused@@@@YAXAEAPEAPEAVCTimer_paused@@@Z ; xr_free<CTimer_paused * __ptr64>
$LN12@pauseMngr:
	xor	eax, eax
	mov	QWORD PTR [rbx], rax
	mov	QWORD PTR [rbx+8], rax
	mov	QWORD PTR [rbx+16], rax
	add	rsp, 32					; 00000020H
	pop	rbx
	ret	0
??1pauseMngr@@QEAA@XZ ENDP				; pauseMngr::~pauseMngr
; Function compile flags: /Ogtpy
; File c:\users\nummer\documents\github\olr-3.0\src\xray\xrcore\xrmemory.h
;	COMDAT ??$xr_alloc@PEAVCTimer_paused@@@@YAPEAPEAVCTimer_paused@@I@Z
_TEXT	SEGMENT
count$ = 8
??$xr_alloc@PEAVCTimer_paused@@@@YAPEAPEAVCTimer_paused@@I@Z PROC ; xr_alloc<CTimer_paused * __ptr64>, COMDAT

; 107  : 	IC T*		xr_alloc	(u32 count)				{	return  (T*)Memory.mem_alloc(count*sizeof(T));	}

	mov	edx, ecx
	lea	rcx, OFFSET FLAT:?Memory@@3VxrMemory@@A	; Memory
	shl	rdx, 3
	jmp	?mem_alloc@xrMemory@@QEAAPEAX_K@Z	; xrMemory::mem_alloc
??$xr_alloc@PEAVCTimer_paused@@@@YAPEAPEAVCTimer_paused@@I@Z ENDP ; xr_alloc<CTimer_paused * __ptr64>
; Function compile flags: /Ogtpy
; File c:\users\nummer\documents\github\olr-3.0\src\xray\xrcore\_stl_extensions.h
;	COMDAT ?allocate@?$xalloc@PEAVCTimer_paused@@@@QEBAPEAPEAVCTimer_paused@@_KPEBX@Z
_TEXT	SEGMENT
n$ = 8
?allocate@?$xalloc@PEAVCTimer_paused@@@@QEBAPEAPEAVCTimer_paused@@_KPEBX@Z PROC ; xalloc<CTimer_paused * __ptr64>::allocate, COMDAT

; 80   : 							pointer					allocate		(size_type n, const void* p=0) const	{	return xr_alloc<T>((u32)n);	}

	mov	edx, ecx
	lea	rcx, OFFSET FLAT:?Memory@@3VxrMemory@@A	; Memory
	shl	rdx, 3
	jmp	?mem_alloc@xrMemory@@QEAAPEAX_K@Z	; xrMemory::mem_alloc
?allocate@?$xalloc@PEAVCTimer_paused@@@@QEBAPEAPEAVCTimer_paused@@_KPEBX@Z ENDP ; xalloc<CTimer_paused * __ptr64>::allocate
_TEXT	ENDS
;	COMDAT pdata
; File c:\program files (x86)\microsoft visual studio 10.0\vc\include\xutility
pdata	SEGMENT
$pdata$?reserve@?$vector@PEAVCTimer_paused@@V?$xalloc@PEAVCTimer_paused@@@@@std@@QEAAX_K@Z DD imagerel $LN44
	DD	imagerel $LN44+198
	DD	imagerel $unwind$?reserve@?$vector@PEAVCTimer_paused@@V?$xalloc@PEAVCTimer_paused@@@@@std@@QEAAX_K@Z
pdata	ENDS
;	COMDAT pdata
pdata	SEGMENT
$pdata$?catch$0@?0??reserve@?$vector@PEAVCTimer_paused@@V?$xalloc@PEAVCTimer_paused@@@@@std@@QEAAX_K@Z@4HA DD imagerel ?catch$0@?0??reserve@?$vector@PEAVCTimer_paused@@V?$xalloc@PEAVCTimer_paused@@@@@std@@QEAAX_K@Z@4HA
	DD	imagerel ?catch$0@?0??reserve@?$vector@PEAVCTimer_paused@@V?$xalloc@PEAVCTimer_paused@@@@@std@@QEAAX_K@Z@4HA+40
	DD	imagerel $unwind$?catch$0@?0??reserve@?$vector@PEAVCTimer_paused@@V?$xalloc@PEAVCTimer_paused@@@@@std@@QEAAX_K@Z@4HA
pdata	ENDS
;	COMDAT xdata
xdata	SEGMENT
$ip2state$?reserve@?$vector@PEAVCTimer_paused@@V?$xalloc@PEAVCTimer_paused@@@@@std@@QEAAX_K@Z DD imagerel ?reserve@?$vector@PEAVCTimer_paused@@V?$xalloc@PEAVCTimer_paused@@@@@std@@QEAAX_K@Z
	DD	0ffffffffH
	DD	imagerel ?reserve@?$vector@PEAVCTimer_paused@@V?$xalloc@PEAVCTimer_paused@@@@@std@@QEAAX_K@Z+107
	DD	00H
	DD	imagerel ?reserve@?$vector@PEAVCTimer_paused@@V?$xalloc@PEAVCTimer_paused@@@@@std@@QEAAX_K@Z+123
	DD	0ffffffffH
	DD	imagerel ?catch$0@?0??reserve@?$vector@PEAVCTimer_paused@@V?$xalloc@PEAVCTimer_paused@@@@@std@@QEAAX_K@Z@4HA
	DD	00H
	DD	imagerel ?catch$0@?0??reserve@?$vector@PEAVCTimer_paused@@V?$xalloc@PEAVCTimer_paused@@@@@std@@QEAAX_K@Z@4HA+13
	DD	01H
xdata	ENDS
;	COMDAT xdata
xdata	SEGMENT
$unwind$?catch$0@?0??reserve@?$vector@PEAVCTimer_paused@@V?$xalloc@PEAVCTimer_paused@@@@@std@@QEAAX_K@Z@4HA DD 020a19H
	DD	05006320aH
	DD	imagerel __CxxFrameHandler3
	DD	imagerel $cppxdata$?reserve@?$vector@PEAVCTimer_paused@@V?$xalloc@PEAVCTimer_paused@@@@@std@@QEAAX_K@Z
xdata	ENDS
;	COMDAT xdata
xdata	SEGMENT
$unwind$?reserve@?$vector@PEAVCTimer_paused@@V?$xalloc@PEAVCTimer_paused@@@@@std@@QEAAX_K@Z DD 081e19H
	DD	0b741eH
	DD	0a6419H
	DD	083414H
	DD	0c0025206H
	DD	imagerel __CxxFrameHandler3
	DD	imagerel $cppxdata$?reserve@?$vector@PEAVCTimer_paused@@V?$xalloc@PEAVCTimer_paused@@@@@std@@QEAAX_K@Z
xdata	ENDS
;	COMDAT CONST
CONST	SEGMENT
$cppxdata$?reserve@?$vector@PEAVCTimer_paused@@V?$xalloc@PEAVCTimer_paused@@@@@std@@QEAAX_K@Z DD 019930522H
	DD	02H
	DD	imagerel $stateUnwindMap$?reserve@?$vector@PEAVCTimer_paused@@V?$xalloc@PEAVCTimer_paused@@@@@std@@QEAAX_K@Z
	DD	01H
	DD	imagerel $tryMap$?reserve@?$vector@PEAVCTimer_paused@@V?$xalloc@PEAVCTimer_paused@@@@@std@@QEAAX_K@Z
	DD	05H
	DD	imagerel $ip2state$?reserve@?$vector@PEAVCTimer_paused@@V?$xalloc@PEAVCTimer_paused@@@@@std@@QEAAX_K@Z
	DD	020H
	DD	00H
	DD	00H
CONST	ENDS
;	COMDAT xdata
xdata	SEGMENT
$tryMap$?reserve@?$vector@PEAVCTimer_paused@@V?$xalloc@PEAVCTimer_paused@@@@@std@@QEAAX_K@Z DD 00H
	DD	00H
	DD	01H
	DD	01H
	DD	imagerel $handlerMap$0$?reserve@?$vector@PEAVCTimer_paused@@V?$xalloc@PEAVCTimer_paused@@@@@std@@QEAAX_K@Z
xdata	ENDS
;	COMDAT xdata
xdata	SEGMENT
$handlerMap$0$?reserve@?$vector@PEAVCTimer_paused@@V?$xalloc@PEAVCTimer_paused@@@@@std@@QEAAX_K@Z DD 00H
	DD	00H
	DD	00H
	DD	imagerel ?catch$0@?0??reserve@?$vector@PEAVCTimer_paused@@V?$xalloc@PEAVCTimer_paused@@@@@std@@QEAAX_K@Z@4HA
	DD	038H
xdata	ENDS
;	COMDAT xdata
xdata	SEGMENT
$stateUnwindMap$?reserve@?$vector@PEAVCTimer_paused@@V?$xalloc@PEAVCTimer_paused@@@@@std@@QEAAX_K@Z DD 0ffffffffH
	DD	00H
	DD	0ffffffffH
	DD	00H
; Function compile flags: /Ogtpy
; File c:\program files (x86)\microsoft visual studio 10.0\vc\include\vector
xdata	ENDS
;	COMDAT ?reserve@?$vector@PEAVCTimer_paused@@V?$xalloc@PEAVCTimer_paused@@@@@std@@QEAAX_K@Z
_TEXT	SEGMENT
$T321769 = 32
this$ = 64
$T321757 = 72
$T321750 = 72
_Ptr$97004 = 72
_Count$ = 72
?reserve@?$vector@PEAVCTimer_paused@@V?$xalloc@PEAVCTimer_paused@@@@@std@@QEAAX_K@Z PROC ; std::vector<CTimer_paused * __ptr64,xalloc<CTimer_paused * __ptr64> >::reserve, COMDAT

; 746  : 		{	// determine new minimum length of allocated storage

$LN44:
	push	r12
	sub	rsp, 48					; 00000030H
	mov	QWORD PTR $T321769[rsp], -2
	mov	QWORD PTR [rsp+64], rbx
	mov	QWORD PTR [rsp+80], rsi
	mov	QWORD PTR [rsp+88], rdi
	mov	rdi, rdx
	mov	rbx, rcx

; 747  : 		if (max_size() < _Count)

	mov	rax, 2305843009213693951		; 1fffffffffffffffH
	cmp	rdx, rax
	jbe	SHORT $LN5@reserve@11

; 748  : 			_Xlen();	// result too long

	lea	rcx, OFFSET FLAT:??_C@_0BD@OLBABOEK@vector?$DMT?$DO?5too?5long?$AA@
	call	QWORD PTR __imp_?_Xlength_error@std@@YAXPEBD@Z
	int	3
$LN5@reserve@11:

; 749  : 		else if (capacity() < _Count)

	mov	rax, QWORD PTR [rcx+16]
	sub	rax, QWORD PTR [rcx]
	sar	rax, 3
	cmp	rax, rdx
	jae	SHORT $LN3@reserve@11

; 750  : 			{	// not enough room, reallocate
; 751  : 			pointer _Ptr = this->_Alval.allocate(_Count);

	mov	edx, edx
	shl	rdx, 3
	lea	rcx, OFFSET FLAT:?Memory@@3VxrMemory@@A	; Memory
	call	?mem_alloc@xrMemory@@QEAAPEAX_K@Z	; xrMemory::mem_alloc
	mov	rsi, rax
	mov	QWORD PTR _Ptr$97004[rsp], rax

; 752  : 
; 753  : 			_TRY_BEGIN
; 754  : 			_Umove(this->_Myfirst, this->_Mylast, _Ptr);

	mov	r8, rax
	mov	rdx, QWORD PTR [rbx+8]
	mov	rcx, QWORD PTR [rbx]
	call	??$_Uninit_move@PEAPEAVCTimer_paused@@PEAPEAV1@V?$xalloc@PEAVCTimer_paused@@@@PEAV1@@std@@YAPEAPEAVCTimer_paused@@PEAPEAV1@00AEAV?$xalloc@PEAVCTimer_paused@@@@0U_Nonscalar_ptr_iterator_tag@0@@Z ; std::_Uninit_move<CTimer_paused * __ptr64 * __ptr64,CTimer_paused * __ptr64 * __ptr64,xalloc<CTimer_paused * __ptr64>,CTimer_paused * __ptr64>
	npad	1

; 755  : 			_CATCH_ALL
; 756  : 			this->_Alval.deallocate(_Ptr, _Count);
; 757  : 			_RERAISE;
; 758  : 			_CATCH_END
; 759  : 
; 760  : 			size_type _Size = size();

	mov	rax, QWORD PTR [rbx]
	mov	r12, QWORD PTR [rbx+8]
	sub	r12, rax
	sar	r12, 3

; 761  : 			if (this->_Myfirst != 0)

	test	rax, rax
	je	SHORT $LN39@reserve@11

; 762  : 				{	// destroy and deallocate old array
; 763  : 				_Destroy(this->_Myfirst, this->_Mylast);
; 764  : 				this->_Alval.deallocate(this->_Myfirst,
; 765  : 					this->_Myend - this->_Myfirst);

	mov	QWORD PTR $T321757[rsp], rax
	lea	rcx, QWORD PTR $T321757[rsp]
	call	??$xr_free@PEAVCTimer_paused@@@@YAXAEAPEAPEAVCTimer_paused@@@Z ; xr_free<CTimer_paused * __ptr64>
$LN39@reserve@11:

; 766  : 				}
; 767  : 
; 768  : 			this->_Orphan_all();
; 769  : 			this->_Myend = _Ptr + _Count;

	lea	rax, QWORD PTR [rsi+rdi*8]
	mov	QWORD PTR [rbx+16], rax

; 770  : 			this->_Mylast = _Ptr + _Size;

	lea	rax, QWORD PTR [rsi+r12*8]
	mov	QWORD PTR [rbx+8], rax

; 771  : 			this->_Myfirst = _Ptr;

	mov	QWORD PTR [rbx], rsi
$LN3@reserve@11:

; 772  : 			}
; 773  : 		}

	mov	rbx, QWORD PTR [rsp+64]
	mov	rsi, QWORD PTR [rsp+80]
	mov	rdi, QWORD PTR [rsp+88]
	add	rsp, 48					; 00000030H
	pop	r12
	ret	0
$LN43@reserve@11:
?reserve@?$vector@PEAVCTimer_paused@@V?$xalloc@PEAVCTimer_paused@@@@@std@@QEAAX_K@Z ENDP ; std::vector<CTimer_paused * __ptr64,xalloc<CTimer_paused * __ptr64> >::reserve
; Function compile flags: /Ogtpy
_TEXT	ENDS
;	COMDAT text$x
text$x	SEGMENT
$T321769 = 32
this$ = 64
$T321757 = 72
$T321750 = 72
_Ptr$97004 = 72
_Count$ = 72
?catch$0@?0??reserve@?$vector@PEAVCTimer_paused@@V?$xalloc@PEAVCTimer_paused@@@@@std@@QEAAX_K@Z@4HA PROC ; `std::vector<CTimer_paused * __ptr64,xalloc<CTimer_paused * __ptr64> >::reserve'::`1'::catch$0

; 755  : 			_CATCH_ALL

	mov	QWORD PTR [rsp+16], rdx
	push	rbp
	sub	rsp, 32					; 00000020H
	mov	rbp, rdx
__catch$?reserve@?$vector@PEAVCTimer_paused@@V?$xalloc@PEAVCTimer_paused@@@@@std@@QEAAX_K@Z$0:

; 756  : 			this->_Alval.deallocate(_Ptr, _Count);

	mov	rax, QWORD PTR _Ptr$97004[rbp]
	mov	QWORD PTR $T321750[rbp], rax
	lea	rcx, QWORD PTR $T321750[rbp]
	call	??$xr_free@PEAVCTimer_paused@@@@YAXAEAPEAPEAVCTimer_paused@@@Z ; xr_free<CTimer_paused * __ptr64>

; 757  : 			_RERAISE;

	xor	edx, edx
	xor	ecx, ecx
	call	_CxxThrowException
	npad	1
?catch$0@?0??reserve@?$vector@PEAVCTimer_paused@@V?$xalloc@PEAVCTimer_paused@@@@@std@@QEAAX_K@Z@4HA ENDP ; `std::vector<CTimer_paused * __ptr64,xalloc<CTimer_paused * __ptr64> >::reserve'::`1'::catch$0
text$x	ENDS
PUBLIC	??0pauseMngr@@QEAA@XZ				; pauseMngr::pauseMngr
pdata	SEGMENT
$pdata$??0pauseMngr@@QEAA@XZ DD imagerel $LN13
	DD	imagerel $LN13+42
	DD	imagerel $unwind$??0pauseMngr@@QEAA@XZ
pdata	ENDS
xdata	SEGMENT
$unwind$??0pauseMngr@@QEAA@XZ DD 020601H
	DD	030023206H
; Function compile flags: /Ogtpy
; File c:\users\nummer\documents\github\olr-3.0\src\xray\xrcore\ftimer.cpp
xdata	ENDS
_TEXT	SEGMENT
this$ = 48
??0pauseMngr@@QEAA@XZ PROC				; pauseMngr::pauseMngr

; 42   : {

$LN13:
	push	rbx
	sub	rsp, 32					; 00000020H
	xor	eax, eax
	mov	rbx, rcx

; 43   : 	m_timers.reserve	(3);

	lea	edx, QWORD PTR [rax+3]
	mov	QWORD PTR [rcx], rax
	mov	QWORD PTR [rcx+8], rax
	mov	QWORD PTR [rcx+16], rax
	mov	DWORD PTR [rcx+32], eax
	call	?reserve@?$vector@PEAVCTimer_paused@@V?$xalloc@PEAVCTimer_paused@@@@@std@@QEAAX_K@Z ; std::vector<CTimer_paused * __ptr64,xalloc<CTimer_paused * __ptr64> >::reserve

; 44   : }

	mov	rax, rbx
	add	rsp, 32					; 00000020H
	pop	rbx
	ret	0
??0pauseMngr@@QEAA@XZ ENDP				; pauseMngr::pauseMngr
;	COMDAT pdata
; File c:\users\nummer\documents\github\olr-3.0\src\xray\xrcore\_stl_extensions.h
pdata	SEGMENT
$pdata$?_Reserve@?$vector@PEAVCTimer_paused@@V?$xalloc@PEAVCTimer_paused@@@@@std@@IEAAX_K@Z DD imagerel $LN30
	DD	imagerel $LN30+137
	DD	imagerel $unwind$?_Reserve@?$vector@PEAVCTimer_paused@@V?$xalloc@PEAVCTimer_paused@@@@@std@@IEAAX_K@Z
pdata	ENDS
;	COMDAT xdata
xdata	SEGMENT
$unwind$?_Reserve@?$vector@PEAVCTimer_paused@@V?$xalloc@PEAVCTimer_paused@@@@@std@@IEAAX_K@Z DD 010401H
	DD	04204H
; Function compile flags: /Ogtpy
; File c:\program files (x86)\microsoft visual studio 10.0\vc\include\vector
xdata	ENDS
;	COMDAT ?_Reserve@?$vector@PEAVCTimer_paused@@V?$xalloc@PEAVCTimer_paused@@@@@std@@IEAAX_K@Z
_TEXT	SEGMENT
this$ = 48
?_Reserve@?$vector@PEAVCTimer_paused@@V?$xalloc@PEAVCTimer_paused@@@@@std@@IEAAX_K@Z PROC ; std::vector<CTimer_paused * __ptr64,xalloc<CTimer_paused * __ptr64> >::_Reserve, COMDAT

; 1290 : 		{	// ensure room for _Count new elements, grow exponentially

$LN30:
	sub	rsp, 40					; 00000028H

; 1291 : 		size_type _Size = size();

	mov	rax, QWORD PTR [rcx]
	mov	r8, QWORD PTR [rcx+8]
	mov	r9, rcx
	sub	r8, rax

; 1292 : 		if (max_size() - _Count < _Size)

	mov	rcx, 2305843009213693950		; 1ffffffffffffffeH
	sar	r8, 3
	cmp	r8, rcx
	jbe	SHORT $LN4@Reserve@11

; 1293 : 			_Xlen();

	lea	rcx, OFFSET FLAT:??_C@_0BD@OLBABOEK@vector?$DMT?$DO?5too?5long?$AA@
	call	QWORD PTR __imp_?_Xlength_error@std@@YAXPEBD@Z
	int	3
$LN4@Reserve@11:

; 1294 : 		else if ((_Size += _Count) <= capacity())

	mov	rdx, QWORD PTR [r9+16]
	inc	r8
	sub	rdx, rax
	sar	rdx, 3
	cmp	r8, rdx
	jbe	SHORT $LN1@Reserve@11

; 1295 : 			;
; 1296 : 		else
; 1297 : 			reserve(_Grow_to(_Size));

	mov	rcx, rdx
	mov	rax, 2305843009213693951		; 1fffffffffffffffH
	shr	rcx, 1
	sub	rax, rcx
	cmp	rax, rdx
	jae	SHORT $LN21@Reserve@11
	xor	edx, edx
	mov	rcx, r9
	cmp	rdx, r8
	cmovb	rdx, r8

; 1298 : 		}

	add	rsp, 40					; 00000028H
	jmp	?reserve@?$vector@PEAVCTimer_paused@@V?$xalloc@PEAVCTimer_paused@@@@@std@@QEAAX_K@Z ; std::vector<CTimer_paused * __ptr64,xalloc<CTimer_paused * __ptr64> >::reserve

; 1295 : 			;
; 1296 : 		else
; 1297 : 			reserve(_Grow_to(_Size));

$LN21@Reserve@11:
	add	rdx, rcx
	mov	rcx, r9
	cmp	rdx, r8
	cmovb	rdx, r8
	call	?reserve@?$vector@PEAVCTimer_paused@@V?$xalloc@PEAVCTimer_paused@@@@@std@@QEAAX_K@Z ; std::vector<CTimer_paused * __ptr64,xalloc<CTimer_paused * __ptr64> >::reserve
$LN1@Reserve@11:

; 1298 : 		}

	add	rsp, 40					; 00000028H
	ret	0
$LN29@Reserve@11:
?_Reserve@?$vector@PEAVCTimer_paused@@V?$xalloc@PEAVCTimer_paused@@@@@std@@IEAAX_K@Z ENDP ; std::vector<CTimer_paused * __ptr64,xalloc<CTimer_paused * __ptr64> >::_Reserve
_TEXT	ENDS
;	COMDAT pdata
; File c:\program files (x86)\microsoft visual studio 10.0\vc\include\utility
pdata	SEGMENT
$pdata$?push_back@?$vector@PEAVCTimer_paused@@V?$xalloc@PEAVCTimer_paused@@@@@std@@QEAAXAEBQEAVCTimer_paused@@@Z DD imagerel $LN48
	DD	imagerel $LN48+134
	DD	imagerel $unwind$?push_back@?$vector@PEAVCTimer_paused@@V?$xalloc@PEAVCTimer_paused@@@@@std@@QEAAXAEBQEAVCTimer_paused@@@Z
pdata	ENDS
;	COMDAT xdata
xdata	SEGMENT
$unwind$?push_back@?$vector@PEAVCTimer_paused@@V?$xalloc@PEAVCTimer_paused@@@@@std@@QEAAXAEBQEAVCTimer_paused@@@Z DD 040a01H
	DD	06340aH
	DD	07006320aH
; Function compile flags: /Ogtpy
; File c:\program files (x86)\microsoft visual studio 10.0\vc\include\vector
xdata	ENDS
;	COMDAT ?push_back@?$vector@PEAVCTimer_paused@@V?$xalloc@PEAVCTimer_paused@@@@@std@@QEAAXAEBQEAVCTimer_paused@@@Z
_TEXT	SEGMENT
this$ = 48
_Val$ = 56
?push_back@?$vector@PEAVCTimer_paused@@V?$xalloc@PEAVCTimer_paused@@@@@std@@QEAAXAEBQEAVCTimer_paused@@@Z PROC ; std::vector<CTimer_paused * __ptr64,xalloc<CTimer_paused * __ptr64> >::push_back, COMDAT

; 976  : 		{	// insert element at end

$LN48:
	mov	QWORD PTR [rsp+8], rbx
	push	rdi
	sub	rsp, 32					; 00000020H

; 977  : 		if (_Inside(_STD addressof(_Val)))

	mov	rax, QWORD PTR [rcx+8]
	mov	rdi, rdx
	mov	rbx, rcx
	cmp	rdx, rax
	jae	SHORT $LN4@push_back@9
	mov	rcx, QWORD PTR [rcx]
	cmp	rcx, rdx
	ja	SHORT $LN4@push_back@9

; 978  : 			{	// push back an element
; 979  : 			size_type _Idx = _STD addressof(_Val) - this->_Myfirst;

	sub	rdi, rcx
	sar	rdi, 3

; 980  : 			if (this->_Mylast == this->_Myend)

	cmp	rax, QWORD PTR [rbx+16]
	jne	SHORT $LN3@push_back@9

; 981  : 				_Reserve(1);

	mov	rcx, rbx
	call	?_Reserve@?$vector@PEAVCTimer_paused@@V?$xalloc@PEAVCTimer_paused@@@@@std@@IEAAX_K@Z ; std::vector<CTimer_paused * __ptr64,xalloc<CTimer_paused * __ptr64> >::_Reserve
$LN3@push_back@9:

; 982  : 			_Orphan_range(this->_Mylast, this->_Mylast);
; 983  : 			_Cons_val(this->_Alval,
; 984  : 				this->_Mylast,
; 985  : 				this->_Myfirst[_Idx]);

	mov	rdx, QWORD PTR [rbx+8]
	test	rdx, rdx
	je	SHORT $LN41@push_back@9
	mov	rax, QWORD PTR [rbx]
	mov	rcx, QWORD PTR [rax+rdi*8]
	mov	QWORD PTR [rdx], rcx

; 996  : 			++this->_Mylast;

	add	QWORD PTR [rbx+8], 8

; 997  : 			}
; 998  : 		}

	mov	rbx, QWORD PTR [rsp+48]
	add	rsp, 32					; 00000020H
	pop	rdi
	ret	0
$LN4@push_back@9:

; 986  : 			++this->_Mylast;
; 987  : 			}
; 988  : 		else
; 989  : 			{	// push back a non-element
; 990  : 			if (this->_Mylast == this->_Myend)

	cmp	rax, QWORD PTR [rbx+16]
	jne	SHORT $LN1@push_back@9

; 991  : 				_Reserve(1);

	mov	rcx, rbx
	call	?_Reserve@?$vector@PEAVCTimer_paused@@V?$xalloc@PEAVCTimer_paused@@@@@std@@IEAAX_K@Z ; std::vector<CTimer_paused * __ptr64,xalloc<CTimer_paused * __ptr64> >::_Reserve
$LN1@push_back@9:

; 992  : 			_Orphan_range(this->_Mylast, this->_Mylast);
; 993  : 			_Cons_val(this->_Alval,
; 994  : 				this->_Mylast,
; 995  : 				_Val);

	mov	rcx, QWORD PTR [rbx+8]
	test	rcx, rcx
	je	SHORT $LN41@push_back@9
	mov	rax, QWORD PTR [rdi]
	mov	QWORD PTR [rcx], rax
$LN41@push_back@9:

; 996  : 			++this->_Mylast;

	add	QWORD PTR [rbx+8], 8

; 997  : 			}
; 998  : 		}

	mov	rbx, QWORD PTR [rsp+48]
	add	rsp, 32					; 00000020H
	pop	rdi
	ret	0
?push_back@?$vector@PEAVCTimer_paused@@V?$xalloc@PEAVCTimer_paused@@@@@std@@QEAAXAEBQEAVCTimer_paused@@@Z ENDP ; std::vector<CTimer_paused * __ptr64,xalloc<CTimer_paused * __ptr64> >::push_back
_TEXT	ENDS
PUBLIC	?Register@pauseMngr@@QEAAXPEAVCTimer_paused@@@Z	; pauseMngr::Register
pdata	SEGMENT
$pdata$?Register@pauseMngr@@QEAAXPEAVCTimer_paused@@@Z DD imagerel $LN50
	DD	imagerel $LN50+151
	DD	imagerel $unwind$?Register@pauseMngr@@QEAAXPEAVCTimer_paused@@@Z
pdata	ENDS
xdata	SEGMENT
$unwind$?Register@pauseMngr@@QEAAXPEAVCTimer_paused@@@Z DD 040f01H
	DD	06340fH
	DD	0700b320fH
; Function compile flags: /Ogtpy
; File c:\users\nummer\documents\github\olr-3.0\src\xray\xrcore\ftimer.cpp
xdata	ENDS
_TEXT	SEGMENT
this$ = 48
t$ = 56
?Register@pauseMngr@@QEAAXPEAVCTimer_paused@@@Z PROC	; pauseMngr::Register

; 57   : void pauseMngr::Register (CTimer_paused* t){

$LN50:
	mov	QWORD PTR [rsp+8], rbx
	mov	QWORD PTR [rsp+16], rdx
	push	rdi
	sub	rsp, 32					; 00000020H

; 58   : 		m_timers.push_back(t);

	mov	rax, QWORD PTR [rcx+8]
	mov	rbx, rcx
	lea	rcx, QWORD PTR t$[rsp]
	mov	rdi, rdx
	cmp	rcx, rax
	jae	SHORT $LN6@Register@2
	mov	rcx, QWORD PTR [rbx]
	lea	rdx, QWORD PTR t$[rsp]
	cmp	rcx, rdx
	ja	SHORT $LN6@Register@2
	lea	rdi, QWORD PTR t$[rsp]
	sub	rdi, rcx
	sar	rdi, 3
	cmp	rax, QWORD PTR [rbx+16]
	jne	SHORT $LN5@Register@2
	mov	rcx, rbx
	call	?_Reserve@?$vector@PEAVCTimer_paused@@V?$xalloc@PEAVCTimer_paused@@@@@std@@IEAAX_K@Z ; std::vector<CTimer_paused * __ptr64,xalloc<CTimer_paused * __ptr64> >::_Reserve
$LN5@Register@2:
	mov	rdx, QWORD PTR [rbx+8]
	test	rdx, rdx
	je	SHORT $LN43@Register@2
	mov	rax, QWORD PTR [rbx]
	mov	rcx, QWORD PTR [rax+rdi*8]
	mov	QWORD PTR [rdx], rcx
	add	QWORD PTR [rbx+8], 8

; 59   : }

	mov	rbx, QWORD PTR [rsp+48]
	add	rsp, 32					; 00000020H
	pop	rdi
	ret	0

; 58   : 		m_timers.push_back(t);

$LN6@Register@2:
	cmp	rax, QWORD PTR [rbx+16]
	jne	SHORT $LN3@Register@2
	mov	rcx, rbx
	call	?_Reserve@?$vector@PEAVCTimer_paused@@V?$xalloc@PEAVCTimer_paused@@@@@std@@IEAAX_K@Z ; std::vector<CTimer_paused * __ptr64,xalloc<CTimer_paused * __ptr64> >::_Reserve
$LN3@Register@2:
	mov	rax, QWORD PTR [rbx+8]
	test	rax, rax
	je	SHORT $LN43@Register@2
	mov	QWORD PTR [rax], rdi
$LN43@Register@2:
	add	QWORD PTR [rbx+8], 8

; 59   : }

	mov	rbx, QWORD PTR [rsp+48]
	add	rsp, 32					; 00000020H
	pop	rdi
	ret	0
?Register@pauseMngr@@QEAAXPEAVCTimer_paused@@@Z ENDP	; pauseMngr::Register
;	COMDAT pdata
; File c:\users\nummer\documents\github\olr-3.0\src\xray\xrcore\_stl_extensions.h
pdata	SEGMENT
$pdata$??__Eg_pauseMngr@@YAXXZ DD imagerel ??__Eg_pauseMngr@@YAXXZ
	DD	imagerel ??__Eg_pauseMngr@@YAXXZ+37
	DD	imagerel $unwind$??__Eg_pauseMngr@@YAXXZ
pdata	ENDS
;	COMDAT xdata
xdata	SEGMENT
$unwind$??__Eg_pauseMngr@@YAXXZ DD 010401H
	DD	04204H
; Function compile flags: /Ogtpy
; File c:\users\nummer\documents\github\olr-3.0\src\xray\xrcore\ftimer.cpp
xdata	ENDS
;	COMDAT ??__Eg_pauseMngr@@YAXXZ
text$yc	SEGMENT
??__Eg_pauseMngr@@YAXXZ PROC				; `dynamic initializer for 'g_pauseMngr'', COMDAT

; 38   : XRCORE_API pauseMngr	g_pauseMngr;

	sub	rsp, 40					; 00000028H
	lea	rcx, OFFSET FLAT:?g_pauseMngr@@3VpauseMngr@@A ; g_pauseMngr
	mov	edx, 3
	call	?reserve@?$vector@PEAVCTimer_paused@@V?$xalloc@PEAVCTimer_paused@@@@@std@@QEAAX_K@Z ; std::vector<CTimer_paused * __ptr64,xalloc<CTimer_paused * __ptr64> >::reserve
	lea	rcx, OFFSET FLAT:??__Fg_pauseMngr@@YAXXZ ; `dynamic atexit destructor for 'g_pauseMngr''
	add	rsp, 40					; 00000028H
	jmp	atexit
??__Eg_pauseMngr@@YAXXZ ENDP				; `dynamic initializer for 'g_pauseMngr''
;	COMDAT pdata
pdata	SEGMENT
$pdata$??__Fg_pauseMngr@@YAXXZ DD imagerel ??__Fg_pauseMngr@@YAXXZ
	DD	imagerel ??__Fg_pauseMngr@@YAXXZ+59
	DD	imagerel $unwind$??__Fg_pauseMngr@@YAXXZ
pdata	ENDS
;	COMDAT xdata
xdata	SEGMENT
$unwind$??__Fg_pauseMngr@@YAXXZ DD 010401H
	DD	04204H
; Function compile flags: /Ogtpy
xdata	ENDS
;	COMDAT ??__Fg_pauseMngr@@YAXXZ
text$yd	SEGMENT
$T384133 = 48
??__Fg_pauseMngr@@YAXXZ PROC				; `dynamic atexit destructor for 'g_pauseMngr'', COMDAT
	sub	rsp, 40					; 00000028H
	mov	rax, QWORD PTR ?g_pauseMngr@@3VpauseMngr@@A
	test	rax, rax
	je	SHORT $LN14@dynamic@6
	lea	rcx, QWORD PTR $T384133[rsp]
	mov	QWORD PTR $T384133[rsp], rax
	call	??$xr_free@PEAVCTimer_paused@@@@YAXAEAPEAPEAVCTimer_paused@@@Z ; xr_free<CTimer_paused * __ptr64>
$LN14@dynamic@6:
	xor	eax, eax
	mov	QWORD PTR ?g_pauseMngr@@3VpauseMngr@@A, rax
	mov	QWORD PTR ?g_pauseMngr@@3VpauseMngr@@A+8, rax
	mov	QWORD PTR ?g_pauseMngr@@3VpauseMngr@@A+16, rax
	add	rsp, 40					; 00000028H
	ret	0
??__Fg_pauseMngr@@YAXXZ ENDP				; `dynamic atexit destructor for 'g_pauseMngr''
PUBLIC	?g_pauseMngr@@3VpauseMngr@@A			; g_pauseMngr
?g_pauseMngr@@3VpauseMngr@@A DB 028H DUP (?)		; g_pauseMngr
CRT$XCL	ENDS
CRT$XCU	SEGMENT
g_pauseMngr$initializer$ DQ FLAT:??__Eg_pauseMngr@@YAXXZ
CRT$XCU	ENDS
END
