; Listing generated by Microsoft (R) Optimizing Compiler Version 16.00.40219.01 

include listing.inc

INCLUDELIB OLDNAMES

PUBLIC	??_R4bad_alloc@std@@6B@				; std::bad_alloc::`RTTI Complete Object Locator'
PUBLIC	??_R3bad_alloc@std@@8				; std::bad_alloc::`RTTI Class Hierarchy Descriptor'
PUBLIC	??_R2bad_alloc@std@@8				; std::bad_alloc::`RTTI Base Class Array'
PUBLIC	??_R1A@?0A@EA@exception@std@@8			; std::exception::`RTTI Base Class Descriptor at (0,-1,0,64)'
PUBLIC	??_R3exception@std@@8				; std::exception::`RTTI Class Hierarchy Descriptor'
PUBLIC	??_R2exception@std@@8				; std::exception::`RTTI Base Class Array'
PUBLIC	??_R1A@?0A@EA@bad_alloc@std@@8			; std::bad_alloc::`RTTI Base Class Descriptor at (0,-1,0,64)'
PUBLIC	??_R4CFileStreamReader@@6B@			; CFileStreamReader::`RTTI Complete Object Locator'
PUBLIC	??_R3CFileStreamReader@@8			; CFileStreamReader::`RTTI Class Hierarchy Descriptor'
PUBLIC	??_R2CFileStreamReader@@8			; CFileStreamReader::`RTTI Base Class Array'
PUBLIC	??_R1A@?0A@EA@CFileStreamReader@@8		; CFileStreamReader::`RTTI Base Class Descriptor at (0,-1,0,64)'
PUBLIC	??_R0?AVCFileStreamReader@@@8			; CFileStreamReader `RTTI Type Descriptor'
PUBLIC	??_E?$IReaderBase@VCStreamReader@@@@UEAAPEAXI@Z	; IReaderBase<CStreamReader>::`vector deleting destructor'
PUBLIC	??_R4?$IReaderBase@VCStreamReader@@@@6B@	; IReaderBase<CStreamReader>::`RTTI Complete Object Locator'
PUBLIC	??_R4CFileWriter@@6B@				; CFileWriter::`RTTI Complete Object Locator'
PUBLIC	??_R3CFileWriter@@8				; CFileWriter::`RTTI Class Hierarchy Descriptor'
PUBLIC	??_R2CFileWriter@@8				; CFileWriter::`RTTI Base Class Array'
PUBLIC	??_R1A@?0A@EA@CFileWriter@@8			; CFileWriter::`RTTI Base Class Descriptor at (0,-1,0,64)'
PUBLIC	??_R0?AVCFileWriter@@@8				; CFileWriter `RTTI Type Descriptor'
PUBLIC	??_ECStreamReader@@UEAAPEAXI@Z			; CStreamReader::`vector deleting destructor'
PUBLIC	??_R4CStreamReader@@6B@				; CStreamReader::`RTTI Complete Object Locator'
PUBLIC	??_R3CStreamReader@@8				; CStreamReader::`RTTI Class Hierarchy Descriptor'
PUBLIC	??_R2CStreamReader@@8				; CStreamReader::`RTTI Base Class Array'
PUBLIC	??_R1A@?0A@EA@?$IReaderBase@VCStreamReader@@@@8	; IReaderBase<CStreamReader>::`RTTI Base Class Descriptor at (0,-1,0,64)'
PUBLIC	??_R3?$IReaderBase@VCStreamReader@@@@8		; IReaderBase<CStreamReader>::`RTTI Class Hierarchy Descriptor'
PUBLIC	??_R2?$IReaderBase@VCStreamReader@@@@8		; IReaderBase<CStreamReader>::`RTTI Base Class Array'
PUBLIC	??_R0?AV?$IReaderBase@VCStreamReader@@@@@8	; IReaderBase<CStreamReader> `RTTI Type Descriptor'
PUBLIC	??_R1A@?0A@EA@CStreamReader@@8			; CStreamReader::`RTTI Base Class Descriptor at (0,-1,0,64)'
PUBLIC	??_R0?AVCStreamReader@@@8			; CStreamReader `RTTI Type Descriptor'
PUBLIC	??R?$xr_special_free@$00VCStreamReader@@@@QEAAXAEAPEAVCStreamReader@@@Z ; xr_special_free<1,CStreamReader>::operator()
PUBLIC	??$xr_delete@VCStreamReader@@@@YAXAEAPEAVCStreamReader@@@Z ; xr_delete<CStreamReader>
PUBLIC	??0eq_fname_check@@QEAA@Vshared_str@@@Z		; eq_fname_check::eq_fname_check
PUBLIC	??0eq_fname_check@@QEAA@AEBU0@@Z		; eq_fname_check::eq_fname_check
PUBLIC	??Req_fname_check@@QEAA_NAEAU_open_file@@@Z	; eq_fname_check::operator()
PUBLIC	??1eq_fname_check@@QEAA@XZ			; eq_fname_check::~eq_fname_check
PUBLIC	??$_Find_if@PEAU_open_file@@Ueq_fname_check@@@std@@YAPEAU_open_file@@PEAU1@0Ueq_fname_check@@@Z ; std::_Find_if<_open_file * __ptr64,eq_fname_check>
PUBLIC	??$find_if@V?$_Vector_iterator@V?$_Vector_val@U_open_file@@V?$xalloc@U_open_file@@@@@std@@@std@@Ueq_fname_check@@@std@@YA?AV?$_Vector_iterator@V?$_Vector_val@U_open_file@@V?$xalloc@U_open_file@@@@@std@@@0@V10@0Ueq_fname_check@@@Z ; std::find_if<std::_Vector_iterator<std::_Vector_val<_open_file,xalloc<_open_file> > >,eq_fname_check>
PUBLIC	??0eq_fname_free@@QEAA@Vshared_str@@@Z		; eq_fname_free::eq_fname_free
PUBLIC	?_Make_iter@?$vector@U_open_file@@V?$xalloc@U_open_file@@@@@std@@QEBA?AV?$_Vector_iterator@V?$_Vector_val@U_open_file@@V?$xalloc@U_open_file@@@@@std@@@2@V?$_Vector_const_iterator@V?$_Vector_val@U_open_file@@V?$xalloc@U_open_file@@@@@std@@@2@@Z ; std::vector<_open_file,xalloc<_open_file> >::_Make_iter
PUBLIC	??4_open_file@@QEAAAEAU0@AEBU0@@Z		; _open_file::operator=
PUBLIC	??$move@AEAU_open_file@@@std@@YA$$QEAU_open_file@@AEAU1@@Z ; std::move<_open_file & __ptr64>
PUBLIC	??$_Move@PEAU_open_file@@PEAU1@@std@@YAPEAU_open_file@@PEAU1@00U_Nonscalar_ptr_iterator_tag@0@@Z ; std::_Move<_open_file * __ptr64,_open_file * __ptr64>
PUBLIC	??$_Move@PEAU_open_file@@PEAU1@@std@@YAPEAU_open_file@@PEAU1@00@Z ; std::_Move<_open_file * __ptr64,_open_file * __ptr64>
PUBLIC	?erase@?$vector@U_open_file@@V?$xalloc@U_open_file@@@@@std@@QEAA?AV?$_Vector_iterator@V?$_Vector_val@U_open_file@@V?$xalloc@U_open_file@@@@@std@@@2@V?$_Vector_const_iterator@V?$_Vector_val@U_open_file@@V?$xalloc@U_open_file@@@@@std@@@2@0@Z ; std::vector<_open_file,xalloc<_open_file> >::erase
PUBLIC	??$xr_alloc@U_open_file@@@@YAPEAU_open_file@@I@Z ; xr_alloc<_open_file>
PUBLIC	?allocate@?$xalloc@U_open_file@@@@QEBAPEAU_open_file@@_KPEBX@Z ; xalloc<_open_file>::allocate
PUBLIC	??$_Uninit_move@PEAU_open_file@@PEAU1@V?$xalloc@U_open_file@@@@U1@@std@@YAPEAU_open_file@@PEAU1@00AEAV?$xalloc@U_open_file@@@@0U_Nonscalar_ptr_iterator_tag@0@@Z ; std::_Uninit_move<_open_file * __ptr64,_open_file * __ptr64,xalloc<_open_file>,_open_file>
PUBLIC	??$_Uninitialized_move@PEAU_open_file@@PEAU1@V?$xalloc@U_open_file@@@@@std@@YAPEAU_open_file@@PEAU1@00AEAV?$xalloc@U_open_file@@@@@Z ; std::_Uninitialized_move<_open_file * __ptr64,_open_file * __ptr64,xalloc<_open_file> >
PUBLIC	??$_Umove@PEAU_open_file@@@?$vector@U_open_file@@V?$xalloc@U_open_file@@@@@std@@IEAAPEAU_open_file@@PEAU2@00@Z ; std::vector<_open_file,xalloc<_open_file> >::_Umove<_open_file * __ptr64>
PUBLIC	?reserve@?$vector@U_open_file@@V?$xalloc@U_open_file@@@@@std@@QEAAX_K@Z ; std::vector<_open_file,xalloc<_open_file> >::reserve
PUBLIC	?capacity@?$vector@U_open_file@@V?$xalloc@U_open_file@@@@@std@@QEBA_KXZ ; std::vector<_open_file,xalloc<_open_file> >::capacity
PUBLIC	?max_size@?$xalloc@U_open_file@@@@QEBA_KXZ	; xalloc<_open_file>::max_size
PUBLIC	?max_size@?$vector@U_open_file@@V?$xalloc@U_open_file@@@@@std@@QEBA_KXZ ; std::vector<_open_file,xalloc<_open_file> >::max_size
PUBLIC	?_Grow_to@?$vector@U_open_file@@V?$xalloc@U_open_file@@@@@std@@IEBA_K_K@Z ; std::vector<_open_file,xalloc<_open_file> >::_Grow_to
PUBLIC	?_Xlen@?$vector@U_open_file@@V?$xalloc@U_open_file@@@@@std@@IEBAXXZ ; std::vector<_open_file,xalloc<_open_file> >::_Xlen
PUBLIC	?_Reserve@?$vector@U_open_file@@V?$xalloc@U_open_file@@@@@std@@IEAAX_K@Z ; std::vector<_open_file,xalloc<_open_file> >::_Reserve
PUBLIC	??H?$_Vector_iterator@V?$_Vector_val@U_open_file@@V?$xalloc@U_open_file@@@@@std@@@std@@QEBA?AV01@_J@Z ; std::_Vector_iterator<std::_Vector_val<_open_file,xalloc<_open_file> > >::operator+
PUBLIC	??$_Val_type@PEAU_open_file@@@std@@YAPEAU_open_file@@PEAU1@@Z ; std::_Val_type<_open_file * __ptr64>
PUBLIC	??0_open_file@@QEAA@XZ				; _open_file::_open_file
PUBLIC	??0_open_file@@QEAA@AEBU0@@Z			; _open_file::_open_file
PUBLIC	??$forward@AEBU_open_file@@@std@@YAAEBU_open_file@@AEBU1@@Z ; std::forward<_open_file const & __ptr64>
PUBLIC	??$_Construct@U_open_file@@AEBU1@@std@@YAXPEAU_open_file@@AEBU1@@Z ; std::_Construct<_open_file,_open_file const & __ptr64>
PUBLIC	?construct@?$xalloc@U_open_file@@@@QEAAXPEAU_open_file@@AEBU2@@Z ; xalloc<_open_file>::construct
PUBLIC	??$forward@U_open_file@@@std@@YA$$QEAU_open_file@@AEAU1@@Z ; std::forward<_open_file>
PUBLIC	??$_Cons_val@V?$xalloc@U_open_file@@@@U_open_file@@U2@@std@@YAXAEAV?$xalloc@U_open_file@@@@PEAU_open_file@@$$QEAU2@@Z ; std::_Cons_val<xalloc<_open_file>,_open_file,_open_file>
PUBLIC	??$_Uninit_def_fill_n@PEAU_open_file@@_KU1@V?$xalloc@U_open_file@@@@U1@@std@@YAXPEAU_open_file@@_KPEBU1@AEAV?$xalloc@U_open_file@@@@0U_Nonscalar_ptr_iterator_tag@0@@Z ; std::_Uninit_def_fill_n<_open_file * __ptr64,unsigned __int64,_open_file,xalloc<_open_file>,_open_file>
PUBLIC	??$_Uninitialized_default_fill_n@PEAU_open_file@@_KU1@V?$xalloc@U_open_file@@@@@std@@YAXPEAU_open_file@@_KPEBU1@AEAV?$xalloc@U_open_file@@@@@Z ; std::_Uninitialized_default_fill_n<_open_file * __ptr64,unsigned __int64,_open_file,xalloc<_open_file> >
PUBLIC	?resize@?$vector@U_open_file@@V?$xalloc@U_open_file@@@@@std@@QEAAX_K@Z ; std::vector<_open_file,xalloc<_open_file> >::resize
PUBLIC	??Y?$_Vector_const_iterator@V?$_Vector_val@U_open_file@@V?$xalloc@U_open_file@@@@@std@@@std@@QEAAAEAV01@_J@Z ; std::_Vector_const_iterator<std::_Vector_val<_open_file,xalloc<_open_file> > >::operator+=
PUBLIC	??Y?$_Vector_iterator@V?$_Vector_val@U_open_file@@V?$xalloc@U_open_file@@@@@std@@@std@@QEAAAEAV01@_J@Z ; std::_Vector_iterator<std::_Vector_val<_open_file,xalloc<_open_file> > >::operator+=
PUBLIC	??Z?$_Vector_iterator@V?$_Vector_val@U_open_file@@V?$xalloc@U_open_file@@@@@std@@@std@@QEAAAEAV01@_J@Z ; std::_Vector_iterator<std::_Vector_val<_open_file,xalloc<_open_file> > >::operator-=
PUBLIC	??G?$_Vector_iterator@V?$_Vector_val@U_open_file@@V?$xalloc@U_open_file@@@@@std@@@std@@QEBA?AV01@_J@Z ; std::_Vector_iterator<std::_Vector_val<_open_file,xalloc<_open_file> > >::operator-
PUBLIC	?back@?$vector@U_open_file@@V?$xalloc@U_open_file@@@@@std@@QEAAAEAU_open_file@@XZ ; std::vector<_open_file,xalloc<_open_file> >::back
PUBLIC	??0eq_fname_free@@QEAA@AEBU0@@Z			; eq_fname_free::eq_fname_free
PUBLIC	??Req_fname_free@@QEAA_NAEAU_open_file@@@Z	; eq_fname_free::operator()
PUBLIC	??1eq_fname_free@@QEAA@XZ			; eq_fname_free::~eq_fname_free
PUBLIC	??$_Find_if@PEAU_open_file@@Ueq_fname_free@@@std@@YAPEAU_open_file@@PEAU1@0Ueq_fname_free@@@Z ; std::_Find_if<_open_file * __ptr64,eq_fname_free>
PUBLIC	??$find_if@V?$_Vector_iterator@V?$_Vector_val@U_open_file@@V?$xalloc@U_open_file@@@@@std@@@std@@Ueq_fname_free@@@std@@YA?AV?$_Vector_iterator@V?$_Vector_val@U_open_file@@V?$xalloc@U_open_file@@@@@std@@@0@V10@0Ueq_fname_free@@@Z ; std::find_if<std::_Vector_iterator<std::_Vector_val<_open_file,xalloc<_open_file> > >,eq_fname_free>
PUBLIC	?c_str@shared_str@@QEBAPEBDXZ			; shared_str::c_str
PUBLIC	?size@?$vector@U_open_file@@V?$xalloc@U_open_file@@@@@std@@QEBA_KXZ ; std::vector<_open_file,xalloc<_open_file> >::size
PUBLIC	?size@?$xr_vector@U_open_file@@V?$xalloc@U_open_file@@@@@@QEBAIXZ ; xr_vector<_open_file,xalloc<_open_file> >::size
PUBLIC	?_Compat@?$_Vector_const_iterator@V?$_Vector_val@U_open_file@@V?$xalloc@U_open_file@@@@@std@@@std@@QEBAXAEBV12@@Z ; std::_Vector_const_iterator<std::_Vector_val<_open_file,xalloc<_open_file> > >::_Compat
PUBLIC	??8?$_Vector_const_iterator@V?$_Vector_val@U_open_file@@V?$xalloc@U_open_file@@@@@std@@@std@@QEBA_NAEBV01@@Z ; std::_Vector_const_iterator<std::_Vector_val<_open_file,xalloc<_open_file> > >::operator==
PUBLIC	??9?$_Vector_const_iterator@V?$_Vector_val@U_open_file@@V?$xalloc@U_open_file@@@@@std@@@std@@QEBA_NAEBV01@@Z ; std::_Vector_const_iterator<std::_Vector_val<_open_file,xalloc<_open_file> > >::operator!=
PUBLIC	??E?$_Vector_const_iterator@V?$_Vector_val@U_open_file@@V?$xalloc@U_open_file@@@@@std@@@std@@QEAAAEAV01@XZ ; std::_Vector_const_iterator<std::_Vector_val<_open_file,xalloc<_open_file> > >::operator++
PUBLIC	??E?$_Vector_iterator@V?$_Vector_val@U_open_file@@V?$xalloc@U_open_file@@@@@std@@@std@@QEAAAEAV01@XZ ; std::_Vector_iterator<std::_Vector_val<_open_file,xalloc<_open_file> > >::operator++
PUBLIC	?zero@?$_flags@I@@QEAAAEAU1@XZ			; _flags<unsigned int>::zero
PUBLIC	??0?$xalloc@U?$pair@QEBDPEAVFS_Path@@@std@@@@QEAA@XZ ; xalloc<std::pair<char const * __ptr64 const,FS_Path * __ptr64> >::xalloc<std::pair<char const * __ptr64 const,FS_Path * __ptr64> >
PUBLIC	??0?$_Tree@V?$_Tmap_traits@PEBDPEAVFS_Path@@Upred_str@@V?$xalloc@U?$pair@PEBDPEAVFS_Path@@@std@@@@$0A@@std@@@std@@QEAA@AEBUpred_str@@AEBV?$xalloc@U?$pair@QEBDPEAVFS_Path@@@std@@@@@Z ; std::_Tree<std::_Tmap_traits<char const * __ptr64,FS_Path * __ptr64,pred_str,xalloc<std::pair<char const * __ptr64,FS_Path * __ptr64> >,0> >::_Tree<std::_Tmap_traits<char const * __ptr64,FS_Path * __ptr64,pred_str,xalloc<std::pair<char const * __ptr64,FS_Path * __ptr64> >,0> >
PUBLIC	??0?$map@PEBDPEAVFS_Path@@Upred_str@@V?$xalloc@U?$pair@PEBDPEAVFS_Path@@@std@@@@@std@@QEAA@XZ ; std::map<char const * __ptr64,FS_Path * __ptr64,pred_str,xalloc<std::pair<char const * __ptr64,FS_Path * __ptr64> > >::map<char const * __ptr64,FS_Path * __ptr64,pred_str,xalloc<std::pair<char const * __ptr64,FS_Path * __ptr64> > >
PUBLIC	??0?$xr_map@PEBDPEAVFS_Path@@Upred_str@@V?$xalloc@U?$pair@PEBDPEAVFS_Path@@@std@@@@@@QEAA@XZ ; xr_map<char const * __ptr64,FS_Path * __ptr64,pred_str,xalloc<std::pair<char const * __ptr64,FS_Path * __ptr64> > >::xr_map<char const * __ptr64,FS_Path * __ptr64,pred_str,xalloc<std::pair<char const * __ptr64,FS_Path * __ptr64> > >
PUBLIC	??0?$xalloc@Uarchive@CLocatorAPI@@@@QEAA@XZ	; xalloc<CLocatorAPI::archive>::xalloc<CLocatorAPI::archive>
PUBLIC	??0?$vector@Uarchive@CLocatorAPI@@V?$xalloc@Uarchive@CLocatorAPI@@@@@std@@QEAA@XZ ; std::vector<CLocatorAPI::archive,xalloc<CLocatorAPI::archive> >::vector<CLocatorAPI::archive,xalloc<CLocatorAPI::archive> >
PUBLIC	??0?$xr_vector@Uarchive@CLocatorAPI@@V?$xalloc@Uarchive@CLocatorAPI@@@@@@QEAA@XZ ; xr_vector<CLocatorAPI::archive,xalloc<CLocatorAPI::archive> >::xr_vector<CLocatorAPI::archive,xalloc<CLocatorAPI::archive> >
PUBLIC	??0?$xalloc@U_finddata64i32_t@@@@QEAA@XZ	; xalloc<_finddata64i32_t>::xalloc<_finddata64i32_t>
PUBLIC	??0?$vector@U_finddata64i32_t@@V?$xalloc@U_finddata64i32_t@@@@@std@@QEAA@XZ ; std::vector<_finddata64i32_t,xalloc<_finddata64i32_t> >::vector<_finddata64i32_t,xalloc<_finddata64i32_t> >
PUBLIC	??0?$xr_vector@U_finddata64i32_t@@V?$xalloc@U_finddata64i32_t@@@@@@QEAA@XZ ; xr_vector<_finddata64i32_t,xalloc<_finddata64i32_t> >::xr_vector<_finddata64i32_t,xalloc<_finddata64i32_t> >
PUBLIC	?_get@shared_str@@QEBAPEBUstr_value@@XZ		; shared_str::_get
PUBLIC	??8@YA_NAEBVshared_str@@0@Z			; operator==
PUBLIC	??0?$xalloc@Vshared_str@@@@QEAA@XZ		; xalloc<shared_str>::xalloc<shared_str>
PUBLIC	??0?$xalloc@Vshared_str@@@@QEAA@AEBV0@@Z	; xalloc<shared_str>::xalloc<shared_str>
PUBLIC	??0?$_Vector_val@Vshared_str@@V?$xalloc@Vshared_str@@@@@std@@QEAA@V?$xalloc@Vshared_str@@@@@Z ; std::_Vector_val<shared_str,xalloc<shared_str> >::_Vector_val<shared_str,xalloc<shared_str> >
PUBLIC	??0?$vector@Vshared_str@@V?$xalloc@Vshared_str@@@@@std@@QEAA@XZ ; std::vector<shared_str,xalloc<shared_str> >::vector<shared_str,xalloc<shared_str> >
PUBLIC	??0?$xr_vector@Vshared_str@@V?$xalloc@Vshared_str@@@@@@QEAA@XZ ; xr_vector<shared_str,xalloc<shared_str> >::xr_vector<shared_str,xalloc<shared_str> >
PUBLIC	??1?$_Vector_val@Vshared_str@@V?$xalloc@Vshared_str@@@@@std@@QEAA@XZ ; std::_Vector_val<shared_str,xalloc<shared_str> >::~_Vector_val<shared_str,xalloc<shared_str> >
PUBLIC	?_Tidy@?$vector@Vshared_str@@V?$xalloc@Vshared_str@@@@@std@@IEAAXXZ ; std::vector<shared_str,xalloc<shared_str> >::_Tidy
PUBLIC	??1?$vector@Vshared_str@@V?$xalloc@Vshared_str@@@@@std@@QEAA@XZ ; std::vector<shared_str,xalloc<shared_str> >::~vector<shared_str,xalloc<shared_str> >
PUBLIC	??1?$xr_vector@Vshared_str@@V?$xalloc@Vshared_str@@@@@@QEAA@XZ ; xr_vector<shared_str,xalloc<shared_str> >::~xr_vector<shared_str,xalloc<shared_str> >
PUBLIC	??0archive@CLocatorAPI@@QEAA@XZ			; CLocatorAPI::archive::archive
PUBLIC	?_Inside@?$vector@Uarchive@CLocatorAPI@@V?$xalloc@Uarchive@CLocatorAPI@@@@@std@@IEBA_NPEBUarchive@CLocatorAPI@@@Z ; std::vector<CLocatorAPI::archive,xalloc<CLocatorAPI::archive> >::_Inside
PUBLIC	??$_Val_type@PEAUarchive@CLocatorAPI@@@std@@YAPEAUarchive@CLocatorAPI@@PEAU12@@Z ; std::_Val_type<CLocatorAPI::archive * __ptr64>
PUBLIC	??$_Uninit_move@PEAUarchive@CLocatorAPI@@PEAU12@V?$xalloc@Uarchive@CLocatorAPI@@@@U12@@std@@YAPEAUarchive@CLocatorAPI@@PEAU12@00AEAV?$xalloc@Uarchive@CLocatorAPI@@@@0U_Nonscalar_ptr_iterator_tag@0@@Z ; std::_Uninit_move<CLocatorAPI::archive * __ptr64,CLocatorAPI::archive * __ptr64,xalloc<CLocatorAPI::archive>,CLocatorAPI::archive>
PUBLIC	??$_Uninitialized_move@PEAUarchive@CLocatorAPI@@PEAU12@V?$xalloc@Uarchive@CLocatorAPI@@@@@std@@YAPEAUarchive@CLocatorAPI@@PEAU12@00AEAV?$xalloc@Uarchive@CLocatorAPI@@@@@Z ; std::_Uninitialized_move<CLocatorAPI::archive * __ptr64,CLocatorAPI::archive * __ptr64,xalloc<CLocatorAPI::archive> >
PUBLIC	??$_Umove@PEAUarchive@CLocatorAPI@@@?$vector@Uarchive@CLocatorAPI@@V?$xalloc@Uarchive@CLocatorAPI@@@@@std@@IEAAPEAUarchive@CLocatorAPI@@PEAU23@00@Z ; std::vector<CLocatorAPI::archive,xalloc<CLocatorAPI::archive> >::_Umove<CLocatorAPI::archive * __ptr64>
PUBLIC	?reserve@?$vector@Uarchive@CLocatorAPI@@V?$xalloc@Uarchive@CLocatorAPI@@@@@std@@QEAAX_K@Z ; std::vector<CLocatorAPI::archive,xalloc<CLocatorAPI::archive> >::reserve
PUBLIC	?_Grow_to@?$vector@Uarchive@CLocatorAPI@@V?$xalloc@Uarchive@CLocatorAPI@@@@@std@@IEBA_K_K@Z ; std::vector<CLocatorAPI::archive,xalloc<CLocatorAPI::archive> >::_Grow_to
PUBLIC	?_Reserve@?$vector@Uarchive@CLocatorAPI@@V?$xalloc@Uarchive@CLocatorAPI@@@@@std@@IEAAX_K@Z ; std::vector<CLocatorAPI::archive,xalloc<CLocatorAPI::archive> >::_Reserve
PUBLIC	?_Orphan_range@?$vector@Uarchive@CLocatorAPI@@V?$xalloc@Uarchive@CLocatorAPI@@@@@std@@IEBAXPEAUarchive@CLocatorAPI@@0@Z ; std::vector<CLocatorAPI::archive,xalloc<CLocatorAPI::archive> >::_Orphan_range
PUBLIC	??$addressof@Uarchive@CLocatorAPI@@@std@@YAPEAUarchive@CLocatorAPI@@AEAU12@@Z ; std::addressof<CLocatorAPI::archive>
PUBLIC	??$forward@Uarchive@CLocatorAPI@@@std@@YA$$QEAUarchive@CLocatorAPI@@AEAU12@@Z ; std::forward<CLocatorAPI::archive>
PUBLIC	??$_Cons_val@V?$xalloc@Uarchive@CLocatorAPI@@@@Uarchive@CLocatorAPI@@U23@@std@@YAXAEAV?$xalloc@Uarchive@CLocatorAPI@@@@PEAUarchive@CLocatorAPI@@$$QEAU23@@Z ; std::_Cons_val<xalloc<CLocatorAPI::archive>,CLocatorAPI::archive,CLocatorAPI::archive>
PUBLIC	?push_back@?$vector@Uarchive@CLocatorAPI@@V?$xalloc@Uarchive@CLocatorAPI@@@@@std@@QEAAX$$QEAUarchive@CLocatorAPI@@@Z ; std::vector<CLocatorAPI::archive,xalloc<CLocatorAPI::archive> >::push_back
PUBLIC	??Z?$_Vector_iterator@V?$_Vector_val@Uarchive@CLocatorAPI@@V?$xalloc@Uarchive@CLocatorAPI@@@@@std@@@std@@QEAAAEAV01@_J@Z ; std::_Vector_iterator<std::_Vector_val<CLocatorAPI::archive,xalloc<CLocatorAPI::archive> > >::operator-=
PUBLIC	??G?$_Vector_iterator@V?$_Vector_val@Uarchive@CLocatorAPI@@V?$xalloc@Uarchive@CLocatorAPI@@@@@std@@@std@@QEBA?AV01@_J@Z ; std::_Vector_iterator<std::_Vector_val<CLocatorAPI::archive,xalloc<CLocatorAPI::archive> > >::operator-
PUBLIC	?back@?$vector@Uarchive@CLocatorAPI@@V?$xalloc@Uarchive@CLocatorAPI@@@@@std@@QEAAAEAUarchive@CLocatorAPI@@XZ ; std::vector<CLocatorAPI::archive,xalloc<CLocatorAPI::archive> >::back
PUBLIC	?size@?$xr_vector@Uarchive@CLocatorAPI@@V?$xalloc@Uarchive@CLocatorAPI@@@@@@QEBAIXZ ; xr_vector<CLocatorAPI::archive,xalloc<CLocatorAPI::archive> >::size
PUBLIC	??$strcat_s@$0CAI@@@YAHAEAY0CAI@DPEBD@Z		; strcat_s<520>
PUBLIC	?_Inside@?$vector@U_finddata64i32_t@@V?$xalloc@U_finddata64i32_t@@@@@std@@IEBA_NPEBU_finddata64i32_t@@@Z ; std::vector<_finddata64i32_t,xalloc<_finddata64i32_t> >::_Inside
PUBLIC	??$forward@U_finddata64i32_t@@@std@@YA$$QEAU_finddata64i32_t@@AEAU1@@Z ; std::forward<_finddata64i32_t>
PUBLIC	??$_Cons_val@V?$xalloc@U_finddata64i32_t@@@@U_finddata64i32_t@@U2@@std@@YAXAEAV?$xalloc@U_finddata64i32_t@@@@PEAU_finddata64i32_t@@$$QEAU2@@Z ; std::_Cons_val<xalloc<_finddata64i32_t>,_finddata64i32_t,_finddata64i32_t>
PUBLIC	??$_Uninit_move@PEAU_finddata64i32_t@@PEAU1@V?$xalloc@U_finddata64i32_t@@@@U1@@std@@YAPEAU_finddata64i32_t@@PEAU1@00AEAV?$xalloc@U_finddata64i32_t@@@@0U_Nonscalar_ptr_iterator_tag@0@@Z ; std::_Uninit_move<_finddata64i32_t * __ptr64,_finddata64i32_t * __ptr64,xalloc<_finddata64i32_t>,_finddata64i32_t>
PUBLIC	??$_Uninitialized_move@PEAU_finddata64i32_t@@PEAU1@V?$xalloc@U_finddata64i32_t@@@@@std@@YAPEAU_finddata64i32_t@@PEAU1@00AEAV?$xalloc@U_finddata64i32_t@@@@@Z ; std::_Uninitialized_move<_finddata64i32_t * __ptr64,_finddata64i32_t * __ptr64,xalloc<_finddata64i32_t> >
PUBLIC	??$_Umove@PEAU_finddata64i32_t@@@?$vector@U_finddata64i32_t@@V?$xalloc@U_finddata64i32_t@@@@@std@@IEAAPEAU_finddata64i32_t@@PEAU2@00@Z ; std::vector<_finddata64i32_t,xalloc<_finddata64i32_t> >::_Umove<_finddata64i32_t * __ptr64>
PUBLIC	?reserve@?$vector@U_finddata64i32_t@@V?$xalloc@U_finddata64i32_t@@@@@std@@QEAAX_K@Z ; std::vector<_finddata64i32_t,xalloc<_finddata64i32_t> >::reserve
PUBLIC	?_Grow_to@?$vector@U_finddata64i32_t@@V?$xalloc@U_finddata64i32_t@@@@@std@@IEBA_K_K@Z ; std::vector<_finddata64i32_t,xalloc<_finddata64i32_t> >::_Grow_to
PUBLIC	?_Reserve@?$vector@U_finddata64i32_t@@V?$xalloc@U_finddata64i32_t@@@@@std@@IEAAX_K@Z ; std::vector<_finddata64i32_t,xalloc<_finddata64i32_t> >::_Reserve
PUBLIC	?_Orphan_range@?$vector@U_finddata64i32_t@@V?$xalloc@U_finddata64i32_t@@@@@std@@IEBAXPEAU_finddata64i32_t@@0@Z ; std::vector<_finddata64i32_t,xalloc<_finddata64i32_t> >::_Orphan_range
PUBLIC	??$addressof@$$CBU_finddata64i32_t@@@std@@YAPEBU_finddata64i32_t@@AEBU1@@Z ; std::addressof<_finddata64i32_t const >
PUBLIC	?push_back@?$vector@U_finddata64i32_t@@V?$xalloc@U_finddata64i32_t@@@@@std@@QEAAXAEBU_finddata64i32_t@@@Z ; std::vector<_finddata64i32_t,xalloc<_finddata64i32_t> >::push_back
PUBLIC	?size@?$xr_vector@U_finddata64i32_t@@V?$xalloc@U_finddata64i32_t@@@@@@QEBAIXZ ; xr_vector<_finddata64i32_t,xalloc<_finddata64i32_t> >::size
PUBLIC	?clear_not_free@?$xr_vector@U_finddata64i32_t@@V?$xalloc@U_finddata64i32_t@@@@@@QEAAXXZ ; xr_vector<_finddata64i32_t,xalloc<_finddata64i32_t> >::clear_not_free
PUBLIC	??D?$_Vector_iterator@V?$_Vector_val@U_finddata64i32_t@@V?$xalloc@U_finddata64i32_t@@@@@std@@@std@@QEBAAEAU_finddata64i32_t@@XZ ; std::_Vector_iterator<std::_Vector_val<_finddata64i32_t,xalloc<_finddata64i32_t> > >::operator*
PUBLIC	?pred_str_ff@@YA_NAEBU_finddata64i32_t@@0@Z	; pred_str_ff
PUBLIC	??$_Rechecked@PEAU_finddata64i32_t@@PEAU1@@std@@YAAEAPEAU_finddata64i32_t@@AEAPEAU1@PEAU1@@Z ; std::_Rechecked<_finddata64i32_t * __ptr64,_finddata64i32_t * __ptr64>
PUBLIC	??$copy@PEAU_finddata64i32_t@@PEAU1@@std@@YAPEAU_finddata64i32_t@@PEAU1@00@Z ; std::copy<_finddata64i32_t * __ptr64,_finddata64i32_t * __ptr64>
PUBLIC	??$_Med3@PEAU_finddata64i32_t@@P6A_NAEBU1@0@Z@std@@YAXPEAU_finddata64i32_t@@00P6A_NAEBU1@1@Z@Z ; std::_Med3<_finddata64i32_t * __ptr64,bool (__cdecl*)(_finddata64i32_t const & __ptr64,_finddata64i32_t const & __ptr64)>
PUBLIC	??$_Median@PEAU_finddata64i32_t@@P6A_NAEBU1@0@Z@std@@YAXPEAU_finddata64i32_t@@00P6A_NAEBU1@1@Z@Z ; std::_Median<_finddata64i32_t * __ptr64,bool (__cdecl*)(_finddata64i32_t const & __ptr64,_finddata64i32_t const & __ptr64)>
PUBLIC	??$swap@U_finddata64i32_t@@@std@@YAXAEAU_finddata64i32_t@@0@Z ; std::swap<_finddata64i32_t>
PUBLIC	??$iter_swap@PEAU_finddata64i32_t@@PEAU1@@std@@YAXPEAU_finddata64i32_t@@0@Z ; std::iter_swap<_finddata64i32_t * __ptr64,_finddata64i32_t * __ptr64>
PUBLIC	??$forward@AEAPEAU_finddata64i32_t@@@std@@YAAEAPEAU_finddata64i32_t@@AEAPEAU1@@Z ; std::forward<_finddata64i32_t * __ptr64 & __ptr64>
PUBLIC	??$?0AEAPEAU_finddata64i32_t@@AEAPEAU0@@?$_Pair_base@PEAU_finddata64i32_t@@PEAU1@@std@@QEAA@AEAPEAU_finddata64i32_t@@0@Z ; std::_Pair_base<_finddata64i32_t * __ptr64,_finddata64i32_t * __ptr64>::_Pair_base<_finddata64i32_t * __ptr64,_finddata64i32_t * __ptr64><_finddata64i32_t * __ptr64 & __ptr64,_finddata64i32_t * __ptr64 & __ptr64>
PUBLIC	??$?0AEAPEAU_finddata64i32_t@@AEAPEAU0@@?$pair@PEAU_finddata64i32_t@@PEAU1@@std@@QEAA@AEAPEAU_finddata64i32_t@@0@Z ; std::pair<_finddata64i32_t * __ptr64,_finddata64i32_t * __ptr64>::pair<_finddata64i32_t * __ptr64,_finddata64i32_t * __ptr64><_finddata64i32_t * __ptr64 & __ptr64,_finddata64i32_t * __ptr64 & __ptr64>
PUBLIC	??$_Unguarded_partition@PEAU_finddata64i32_t@@P6A_NAEBU1@0@Z@std@@YA?AU?$pair@PEAU_finddata64i32_t@@PEAU1@@0@PEAU_finddata64i32_t@@0P6A_NAEBU2@1@Z@Z ; std::_Unguarded_partition<_finddata64i32_t * __ptr64,bool (__cdecl*)(_finddata64i32_t const & __ptr64,_finddata64i32_t const & __ptr64)>
PUBLIC	??$_Make_heap@PEAU_finddata64i32_t@@_JU1@P6A_NAEBU1@0@Z@std@@YAXPEAU_finddata64i32_t@@0P6A_NAEBU1@1@ZPEA_J0@Z ; std::_Make_heap<_finddata64i32_t * __ptr64,__int64,_finddata64i32_t,bool (__cdecl*)(_finddata64i32_t const & __ptr64,_finddata64i32_t const & __ptr64)>
PUBLIC	??$make_heap@PEAU_finddata64i32_t@@P6A_NAEBU1@0@Z@std@@YAXPEAU_finddata64i32_t@@0P6A_NAEBU1@1@Z@Z ; std::make_heap<_finddata64i32_t * __ptr64,bool (__cdecl*)(_finddata64i32_t const & __ptr64,_finddata64i32_t const & __ptr64)>
PUBLIC	??$_Unchecked@PEAU_finddata64i32_t@@@std@@YAPEAU_finddata64i32_t@@PEAU1@@Z ; std::_Unchecked<_finddata64i32_t * __ptr64>
PUBLIC	??$_Dist_type@PEAU_finddata64i32_t@@@std@@YAPEA_JPEAU_finddata64i32_t@@@Z ; std::_Dist_type<_finddata64i32_t * __ptr64>
PUBLIC	??$_Push_heap@PEAU_finddata64i32_t@@_JU1@P6A_NAEBU1@0@Z@std@@YAXPEAU_finddata64i32_t@@_J1$$QEAU1@P6A_NAEBU1@3@Z@Z ; std::_Push_heap<_finddata64i32_t * __ptr64,__int64,_finddata64i32_t,bool (__cdecl*)(_finddata64i32_t const & __ptr64,_finddata64i32_t const & __ptr64)>
PUBLIC	??$_Adjust_heap@PEAU_finddata64i32_t@@_JU1@P6A_NAEBU1@0@Z@std@@YAXPEAU_finddata64i32_t@@_J1$$QEAU1@P6A_NAEBU1@3@Z@Z ; std::_Adjust_heap<_finddata64i32_t * __ptr64,__int64,_finddata64i32_t,bool (__cdecl*)(_finddata64i32_t const & __ptr64,_finddata64i32_t const & __ptr64)>
PUBLIC	??$_Pop_heap@PEAU_finddata64i32_t@@_JU1@P6A_NAEBU1@0@Z@std@@YAXPEAU_finddata64i32_t@@00$$QEAU1@P6A_NAEBU1@2@ZPEA_J@Z ; std::_Pop_heap<_finddata64i32_t * __ptr64,__int64,_finddata64i32_t,bool (__cdecl*)(_finddata64i32_t const & __ptr64,_finddata64i32_t const & __ptr64)>
PUBLIC	??$_Pop_heap_0@PEAU_finddata64i32_t@@U1@P6A_NAEBU1@0@Z@std@@YAXPEAU_finddata64i32_t@@0P6A_NAEBU1@1@Z0@Z ; std::_Pop_heap_0<_finddata64i32_t * __ptr64,_finddata64i32_t,bool (__cdecl*)(_finddata64i32_t const & __ptr64,_finddata64i32_t const & __ptr64)>
PUBLIC	??$_Pop_heap@PEAU_finddata64i32_t@@P6A_NAEBU1@0@Z@std@@YAXPEAU_finddata64i32_t@@0P6A_NAEBU1@1@Z@Z ; std::_Pop_heap<_finddata64i32_t * __ptr64,bool (__cdecl*)(_finddata64i32_t const & __ptr64,_finddata64i32_t const & __ptr64)>
PUBLIC	??$_Sort_heap@PEAU_finddata64i32_t@@P6A_NAEBU1@0@Z@std@@YAXPEAU_finddata64i32_t@@0P6A_NAEBU1@1@Z@Z ; std::_Sort_heap<_finddata64i32_t * __ptr64,bool (__cdecl*)(_finddata64i32_t const & __ptr64,_finddata64i32_t const & __ptr64)>
PUBLIC	??$sort_heap@PEAU_finddata64i32_t@@P6A_NAEBU1@0@Z@std@@YAXPEAU_finddata64i32_t@@0P6A_NAEBU1@1@Z@Z ; std::sort_heap<_finddata64i32_t * __ptr64,bool (__cdecl*)(_finddata64i32_t const & __ptr64,_finddata64i32_t const & __ptr64)>
PUBLIC	??$_Val_type@PEAU_finddata64i32_t@@@std@@YAPEAU_finddata64i32_t@@PEAU1@@Z ; std::_Val_type<_finddata64i32_t * __ptr64>
PUBLIC	??$_Move@AEAU_finddata64i32_t@@@std@@YA$$QEAU_finddata64i32_t@@AEAU1@@Z ; std::_Move<_finddata64i32_t & __ptr64>
PUBLIC	??$_Move_backward@PEAU_finddata64i32_t@@PEAU1@@std@@YAPEAU_finddata64i32_t@@PEAU1@00U_Nonscalar_ptr_iterator_tag@0@@Z ; std::_Move_backward<_finddata64i32_t * __ptr64,_finddata64i32_t * __ptr64>
PUBLIC	??$_Move_backward@PEAU_finddata64i32_t@@PEAU1@@std@@YAPEAU_finddata64i32_t@@PEAU1@00@Z ; std::_Move_backward<_finddata64i32_t * __ptr64,_finddata64i32_t * __ptr64>
PUBLIC	??$_Insertion_sort1@PEAU_finddata64i32_t@@P6A_NAEBU1@0@ZU1@@std@@YAXPEAU_finddata64i32_t@@0P6A_NAEBU1@1@Z0@Z ; std::_Insertion_sort1<_finddata64i32_t * __ptr64,bool (__cdecl*)(_finddata64i32_t const & __ptr64,_finddata64i32_t const & __ptr64),_finddata64i32_t>
PUBLIC	??$_Insertion_sort@PEAU_finddata64i32_t@@P6A_NAEBU1@0@Z@std@@YAXPEAU_finddata64i32_t@@0P6A_NAEBU1@1@Z@Z ; std::_Insertion_sort<_finddata64i32_t * __ptr64,bool (__cdecl*)(_finddata64i32_t const & __ptr64,_finddata64i32_t const & __ptr64)>
PUBLIC	??$_Sort@PEAU_finddata64i32_t@@_JP6A_NAEBU1@0@Z@std@@YAXPEAU_finddata64i32_t@@0_JP6A_NAEBU1@2@Z@Z ; std::_Sort<_finddata64i32_t * __ptr64,__int64,bool (__cdecl*)(_finddata64i32_t const & __ptr64,_finddata64i32_t const & __ptr64)>
PUBLIC	??$sort@PEAU_finddata64i32_t@@P6A_NAEBU1@0@Z@std@@YAXPEAU_finddata64i32_t@@0P6A_NAEBU1@1@Z@Z ; std::sort<_finddata64i32_t * __ptr64,bool (__cdecl*)(_finddata64i32_t const & __ptr64,_finddata64i32_t const & __ptr64)>
PUBLIC	?strrchr@@YAPEADPEADH@Z				; strrchr
PUBLIC	?clear_and_free@?$xr_vector@U_finddata64i32_t@@V?$xalloc@U_finddata64i32_t@@@@@@QEAAXXZ ; xr_vector<_finddata64i32_t,xalloc<_finddata64i32_t> >::clear_and_free
PUBLIC	?clear@?$xr_vector@U_finddata64i32_t@@V?$xalloc@U_finddata64i32_t@@@@@@QEAAXXZ ; xr_vector<_finddata64i32_t,xalloc<_finddata64i32_t> >::clear
PUBLIC	??0?$_Tree_unchecked_const_iterator@V?$_Tree_val@V?$_Tmap_traits@PEBDPEAVFS_Path@@Upred_str@@V?$xalloc@U?$pair@PEBDPEAVFS_Path@@@std@@@@$0A@@std@@@std@@U_Iterator_base0@2@@std@@QEAA@XZ ; std::_Tree_unchecked_const_iterator<std::_Tree_val<std::_Tmap_traits<char const * __ptr64,FS_Path * __ptr64,pred_str,xalloc<std::pair<char const * __ptr64,FS_Path * __ptr64> >,0> >,std::_Iterator_base0>::_Tree_unchecked_const_iterator<std::_Tree_val<std::_Tmap_traits<char const * __ptr64,FS_Path * __ptr64,pred_str,xalloc<std::pair<char const * __ptr64,FS_Path * __ptr64> >,0> >,std::_Iterator_base0>
PUBLIC	??0?$_Tree_const_iterator@V?$_Tree_val@V?$_Tmap_traits@PEBDPEAVFS_Path@@Upred_str@@V?$xalloc@U?$pair@PEBDPEAVFS_Path@@@std@@@@$0A@@std@@@std@@@std@@QEAA@XZ ; std::_Tree_const_iterator<std::_Tree_val<std::_Tmap_traits<char const * __ptr64,FS_Path * __ptr64,pred_str,xalloc<std::pair<char const * __ptr64,FS_Path * __ptr64> >,0> > >::_Tree_const_iterator<std::_Tree_val<std::_Tmap_traits<char const * __ptr64,FS_Path * __ptr64,pred_str,xalloc<std::pair<char const * __ptr64,FS_Path * __ptr64> >,0> > >
PUBLIC	??0?$_Tree_iterator@V?$_Tree_val@V?$_Tmap_traits@PEBDPEAVFS_Path@@Upred_str@@V?$xalloc@U?$pair@PEBDPEAVFS_Path@@@std@@@@$0A@@std@@@std@@@std@@QEAA@XZ ; std::_Tree_iterator<std::_Tree_val<std::_Tmap_traits<char const * __ptr64,FS_Path * __ptr64,pred_str,xalloc<std::pair<char const * __ptr64,FS_Path * __ptr64> >,0> > >::_Tree_iterator<std::_Tree_val<std::_Tmap_traits<char const * __ptr64,FS_Path * __ptr64,pred_str,xalloc<std::pair<char const * __ptr64,FS_Path * __ptr64> >,0> > >
PUBLIC	??0?$_Pair_base@V?$_Tree_iterator@V?$_Tree_val@V?$_Tmap_traits@PEBDPEAVFS_Path@@Upred_str@@V?$xalloc@U?$pair@PEBDPEAVFS_Path@@@std@@@@$0A@@std@@@std@@@std@@_N@std@@QEAA@XZ ; std::_Pair_base<std::_Tree_iterator<std::_Tree_val<std::_Tmap_traits<char const * __ptr64,FS_Path * __ptr64,pred_str,xalloc<std::pair<char const * __ptr64,FS_Path * __ptr64> >,0> > >,bool>::_Pair_base<std::_Tree_iterator<std::_Tree_val<std::_Tmap_traits<char const * __ptr64,FS_Path * __ptr64,pred_str,xalloc<std::pair<char const * __ptr64,FS_Path * __ptr64> >,0> > >,bool>
PUBLIC	??0?$pair@V?$_Tree_iterator@V?$_Tree_val@V?$_Tmap_traits@PEBDPEAVFS_Path@@Upred_str@@V?$xalloc@U?$pair@PEBDPEAVFS_Path@@@std@@@@$0A@@std@@@std@@@std@@_N@std@@QEAA@XZ ; std::pair<std::_Tree_iterator<std::_Tree_val<std::_Tmap_traits<char const * __ptr64,FS_Path * __ptr64,pred_str,xalloc<std::pair<char const * __ptr64,FS_Path * __ptr64> >,0> > >,bool>::pair<std::_Tree_iterator<std::_Tree_val<std::_Tmap_traits<char const * __ptr64,FS_Path * __ptr64,pred_str,xalloc<std::pair<char const * __ptr64,FS_Path * __ptr64> >,0> > >,bool>
PUBLIC	??4?$pair@V?$_Tree_iterator@V?$_Tree_val@V?$_Tmap_traits@PEBDPEAVFS_Path@@Upred_str@@V?$xalloc@U?$pair@PEBDPEAVFS_Path@@@std@@@@$0A@@std@@@std@@@std@@_N@std@@QEAAAEAU01@$$QEAU01@@Z ; std::pair<std::_Tree_iterator<std::_Tree_val<std::_Tmap_traits<char const * __ptr64,FS_Path * __ptr64,pred_str,xalloc<std::pair<char const * __ptr64,FS_Path * __ptr64> >,0> > >,bool>::operator=
PUBLIC	??$xr_new@VFS_Path@@PEADPEBDPEBDPEBDI@@YAPEAVFS_Path@@AEBQEADAEBQEBD11AEBI@Z ; xr_new<FS_Path,char * __ptr64,char const * __ptr64,char const * __ptr64,char const * __ptr64,unsigned int>
PUBLIC	?clear_and_free@?$xr_vector@Uarchive@CLocatorAPI@@V?$xalloc@Uarchive@CLocatorAPI@@@@@@QEAAXXZ ; xr_vector<CLocatorAPI::archive,xalloc<CLocatorAPI::archive> >::clear_and_free
PUBLIC	?clear@?$xr_vector@Uarchive@CLocatorAPI@@V?$xalloc@Uarchive@CLocatorAPI@@@@@@QEAAXXZ ; xr_vector<CLocatorAPI::archive,xalloc<CLocatorAPI::archive> >::clear
PUBLIC	??C?$_Vector_iterator@V?$_Vector_val@Uarchive@CLocatorAPI@@V?$xalloc@Uarchive@CLocatorAPI@@@@@std@@@std@@QEBAPEAUarchive@CLocatorAPI@@XZ ; std::_Vector_iterator<std::_Vector_val<CLocatorAPI::archive,xalloc<CLocatorAPI::archive> > >::operator->
PUBLIC	??E?$_Vector_iterator@V?$_Vector_val@Uarchive@CLocatorAPI@@V?$xalloc@Uarchive@CLocatorAPI@@@@@std@@@std@@QEAAAEAV01@XZ ; std::_Vector_iterator<std::_Vector_val<CLocatorAPI::archive,xalloc<CLocatorAPI::archive> > >::operator++
PUBLIC	??E?$_Vector_iterator@V?$_Vector_val@Uarchive@CLocatorAPI@@V?$xalloc@Uarchive@CLocatorAPI@@@@@std@@@std@@QEAA?AV01@H@Z ; std::_Vector_iterator<std::_Vector_val<CLocatorAPI::archive,xalloc<CLocatorAPI::archive> > >::operator++
PUBLIC	??_GFS_Path@@QEAAPEAXI@Z			; FS_Path::`scalar deleting destructor'
PUBLIC	??R?$xr_special_free@$0A@VFS_Path@@@@QEAAXAEAPEAVFS_Path@@@Z ; xr_special_free<0,FS_Path>::operator()
PUBLIC	??$xr_delete@VFS_Path@@@@YAXAEAPEAVFS_Path@@@Z	; xr_delete<FS_Path>
PUBLIC	??Y?$_Vector_const_iterator@V?$_Vector_val@PEADV?$xalloc@PEAD@@@std@@@std@@QEAAAEAV01@_J@Z ; std::_Vector_const_iterator<std::_Vector_val<char * __ptr64,xalloc<char * __ptr64> > >::operator+=
PUBLIC	??Y?$_Vector_iterator@V?$_Vector_val@PEADV?$xalloc@PEAD@@@std@@@std@@QEAAAEAV01@_J@Z ; std::_Vector_iterator<std::_Vector_val<char * __ptr64,xalloc<char * __ptr64> > >::operator+=
PUBLIC	??Z?$_Vector_iterator@V?$_Vector_val@PEADV?$xalloc@PEAD@@@std@@@std@@QEAAAEAV01@_J@Z ; std::_Vector_iterator<std::_Vector_val<char * __ptr64,xalloc<char * __ptr64> > >::operator-=
PUBLIC	??G?$_Vector_iterator@V?$_Vector_val@PEADV?$xalloc@PEAD@@@std@@@std@@QEBA?AV01@_J@Z ; std::_Vector_iterator<std::_Vector_val<char * __ptr64,xalloc<char * __ptr64> > >::operator-
PUBLIC	?back@?$vector@PEADV?$xalloc@PEAD@@@std@@QEAAAEAPEADXZ ; std::vector<char * __ptr64,xalloc<char * __ptr64> >::back
PUBLIC	??0?$xalloc@PEAD@@QEAA@XZ			; xalloc<char * __ptr64>::xalloc<char * __ptr64>
PUBLIC	??0?$xalloc@PEAD@@QEAA@AEBV0@@Z			; xalloc<char * __ptr64>::xalloc<char * __ptr64>
PUBLIC	??0?$_Vector_val@PEADV?$xalloc@PEAD@@@std@@QEAA@V?$xalloc@PEAD@@@Z ; std::_Vector_val<char * __ptr64,xalloc<char * __ptr64> >::_Vector_val<char * __ptr64,xalloc<char * __ptr64> >
PUBLIC	??0?$vector@PEADV?$xalloc@PEAD@@@std@@QEAA@XZ	; std::vector<char * __ptr64,xalloc<char * __ptr64> >::vector<char * __ptr64,xalloc<char * __ptr64> >
PUBLIC	??0?$xr_vector@PEADV?$xalloc@PEAD@@@@QEAA@XZ	; xr_vector<char * __ptr64,xalloc<char * __ptr64> >::xr_vector<char * __ptr64,xalloc<char * __ptr64> >
PUBLIC	??$xr_new@V?$xr_vector@PEADV?$xalloc@PEAD@@@@@@YAPEAV?$xr_vector@PEADV?$xalloc@PEAD@@@@XZ ; xr_new<xr_vector<char * __ptr64,xalloc<char * __ptr64> > >
PUBLIC	?begin@?$vector@PEADV?$xalloc@PEAD@@@std@@QEAA?AV?$_Vector_iterator@V?$_Vector_val@PEADV?$xalloc@PEAD@@@std@@@2@XZ ; std::vector<char * __ptr64,xalloc<char * __ptr64> >::begin
PUBLIC	??0?$_Vector_const_iterator@V?$_Vector_val@PEADV?$xalloc@PEAD@@@std@@@std@@QEAA@PEAPEADPEBU_Container_base0@1@@Z ; std::_Vector_const_iterator<std::_Vector_val<char * __ptr64,xalloc<char * __ptr64> > >::_Vector_const_iterator<std::_Vector_val<char * __ptr64,xalloc<char * __ptr64> > >
PUBLIC	??0?$_Vector_iterator@V?$_Vector_val@PEADV?$xalloc@PEAD@@@std@@@std@@QEAA@PEAPEADPEBU_Container_base0@1@@Z ; std::_Vector_iterator<std::_Vector_val<char * __ptr64,xalloc<char * __ptr64> > >::_Vector_iterator<std::_Vector_val<char * __ptr64,xalloc<char * __ptr64> > >
PUBLIC	?end@?$vector@PEADV?$xalloc@PEAD@@@std@@QEAA?AV?$_Vector_iterator@V?$_Vector_val@PEADV?$xalloc@PEAD@@@std@@@2@XZ ; std::vector<char * __ptr64,xalloc<char * __ptr64> >::end
PUBLIC	?_Compat@?$_Vector_const_iterator@V?$_Vector_val@PEADV?$xalloc@PEAD@@@std@@@std@@QEBAXAEBV12@@Z ; std::_Vector_const_iterator<std::_Vector_val<char * __ptr64,xalloc<char * __ptr64> > >::_Compat
PUBLIC	??8?$_Vector_const_iterator@V?$_Vector_val@PEADV?$xalloc@PEAD@@@std@@@std@@QEBA_NAEBV01@@Z ; std::_Vector_const_iterator<std::_Vector_val<char * __ptr64,xalloc<char * __ptr64> > >::operator==
PUBLIC	??9?$_Vector_const_iterator@V?$_Vector_val@PEADV?$xalloc@PEAD@@@std@@@std@@QEBA_NAEBV01@@Z ; std::_Vector_const_iterator<std::_Vector_val<char * __ptr64,xalloc<char * __ptr64> > >::operator!=
PUBLIC	??D?$_Vector_const_iterator@V?$_Vector_val@PEADV?$xalloc@PEAD@@@std@@@std@@QEBAAEBQEADXZ ; std::_Vector_const_iterator<std::_Vector_val<char * __ptr64,xalloc<char * __ptr64> > >::operator*
PUBLIC	??D?$_Vector_iterator@V?$_Vector_val@PEADV?$xalloc@PEAD@@@std@@@std@@QEBAAEAPEADXZ ; std::_Vector_iterator<std::_Vector_val<char * __ptr64,xalloc<char * __ptr64> > >::operator*
PUBLIC	??E?$_Vector_const_iterator@V?$_Vector_val@PEADV?$xalloc@PEAD@@@std@@@std@@QEAAAEAV01@XZ ; std::_Vector_const_iterator<std::_Vector_val<char * __ptr64,xalloc<char * __ptr64> > >::operator++
PUBLIC	??E?$_Vector_iterator@V?$_Vector_val@PEADV?$xalloc@PEAD@@@std@@@std@@QEAAAEAV01@XZ ; std::_Vector_iterator<std::_Vector_val<char * __ptr64,xalloc<char * __ptr64> > >::operator++
PUBLIC	??E?$_Vector_iterator@V?$_Vector_val@PEADV?$xalloc@PEAD@@@std@@@std@@QEAA?AV01@H@Z ; std::_Vector_iterator<std::_Vector_val<char * __ptr64,xalloc<char * __ptr64> > >::operator++
PUBLIC	??1?$_Vector_val@PEADV?$xalloc@PEAD@@@std@@QEAA@XZ ; std::_Vector_val<char * __ptr64,xalloc<char * __ptr64> >::~_Vector_val<char * __ptr64,xalloc<char * __ptr64> >
PUBLIC	?_Tidy@?$vector@PEADV?$xalloc@PEAD@@@std@@IEAAXXZ ; std::vector<char * __ptr64,xalloc<char * __ptr64> >::_Tidy
PUBLIC	??1?$vector@PEADV?$xalloc@PEAD@@@std@@QEAA@XZ	; std::vector<char * __ptr64,xalloc<char * __ptr64> >::~vector<char * __ptr64,xalloc<char * __ptr64> >
PUBLIC	??1?$xr_vector@PEADV?$xalloc@PEAD@@@@QEAA@XZ	; xr_vector<char * __ptr64,xalloc<char * __ptr64> >::~xr_vector<char * __ptr64,xalloc<char * __ptr64> >
PUBLIC	??_G?$xr_vector@PEADV?$xalloc@PEAD@@@@QEAAPEAXI@Z ; xr_vector<char * __ptr64,xalloc<char * __ptr64> >::`scalar deleting destructor'
PUBLIC	??R?$xr_special_free@$0A@V?$xr_vector@PEADV?$xalloc@PEAD@@@@@@QEAAXAEAPEAV?$xr_vector@PEADV?$xalloc@PEAD@@@@@Z ; xr_special_free<0,xr_vector<char * __ptr64,xalloc<char * __ptr64> > >::operator()
PUBLIC	??$xr_delete@V?$xr_vector@PEADV?$xalloc@PEAD@@@@@@YAXAEAPEAV?$xr_vector@PEADV?$xalloc@PEAD@@@@@Z ; xr_delete<xr_vector<char * __ptr64,xalloc<char * __ptr64> > >
PUBLIC	?empty@?$vector@V?$basic_string@DU?$char_traits@D@std@@V?$xalloc@D@@@std@@V?$xalloc@V?$basic_string@DU?$char_traits@D@std@@V?$xalloc@D@@@std@@@@@std@@QEBA_NXZ ; std::vector<std::basic_string<char,std::char_traits<char>,xalloc<char> >,xalloc<std::basic_string<char,std::char_traits<char>,xalloc<char> > > >::empty
PUBLIC	??0?$xalloc@V?$basic_string@DU?$char_traits@D@std@@V?$xalloc@D@@@std@@@@QEAA@XZ ; xalloc<std::basic_string<char,std::char_traits<char>,xalloc<char> > >::xalloc<std::basic_string<char,std::char_traits<char>,xalloc<char> > >
PUBLIC	??0?$xalloc@V?$basic_string@DU?$char_traits@D@std@@V?$xalloc@D@@@std@@@@QEAA@AEBV0@@Z ; xalloc<std::basic_string<char,std::char_traits<char>,xalloc<char> > >::xalloc<std::basic_string<char,std::char_traits<char>,xalloc<char> > >
PUBLIC	??0?$_Vector_val@V?$basic_string@DU?$char_traits@D@std@@V?$xalloc@D@@@std@@V?$xalloc@V?$basic_string@DU?$char_traits@D@std@@V?$xalloc@D@@@std@@@@@std@@QEAA@V?$xalloc@V?$basic_string@DU?$char_traits@D@std@@V?$xalloc@D@@@std@@@@@Z ; std::_Vector_val<std::basic_string<char,std::char_traits<char>,xalloc<char> >,xalloc<std::basic_string<char,std::char_traits<char>,xalloc<char> > > >::_Vector_val<std::basic_string<char,std::char_traits<char>,xalloc<char> >,xalloc<std::basic_string<char,std::char_traits<char>,xalloc<char> > > >
PUBLIC	??0?$vector@V?$basic_string@DU?$char_traits@D@std@@V?$xalloc@D@@@std@@V?$xalloc@V?$basic_string@DU?$char_traits@D@std@@V?$xalloc@D@@@std@@@@@std@@QEAA@XZ ; std::vector<std::basic_string<char,std::char_traits<char>,xalloc<char> >,xalloc<std::basic_string<char,std::char_traits<char>,xalloc<char> > > >::vector<std::basic_string<char,std::char_traits<char>,xalloc<char> >,xalloc<std::basic_string<char,std::char_traits<char>,xalloc<char> > > >
PUBLIC	??0?$xr_vector@V?$basic_string@DU?$char_traits@D@std@@V?$xalloc@D@@@std@@V?$xalloc@V?$basic_string@DU?$char_traits@D@std@@V?$xalloc@D@@@std@@@@@@QEAA@XZ ; xr_vector<std::basic_string<char,std::char_traits<char>,xalloc<char> >,xalloc<std::basic_string<char,std::char_traits<char>,xalloc<char> > > >::xr_vector<std::basic_string<char,std::char_traits<char>,xalloc<char> >,xalloc<std::basic_string<char,std::char_traits<char>,xalloc<char> > > >
PUBLIC	??1?$_Vector_val@V?$basic_string@DU?$char_traits@D@std@@V?$xalloc@D@@@std@@V?$xalloc@V?$basic_string@DU?$char_traits@D@std@@V?$xalloc@D@@@std@@@@@std@@QEAA@XZ ; std::_Vector_val<std::basic_string<char,std::char_traits<char>,xalloc<char> >,xalloc<std::basic_string<char,std::char_traits<char>,xalloc<char> > > >::~_Vector_val<std::basic_string<char,std::char_traits<char>,xalloc<char> >,xalloc<std::basic_string<char,std::char_traits<char>,xalloc<char> > > >
PUBLIC	?_Tidy@?$vector@V?$basic_string@DU?$char_traits@D@std@@V?$xalloc@D@@@std@@V?$xalloc@V?$basic_string@DU?$char_traits@D@std@@V?$xalloc@D@@@std@@@@@std@@IEAAXXZ ; std::vector<std::basic_string<char,std::char_traits<char>,xalloc<char> >,xalloc<std::basic_string<char,std::char_traits<char>,xalloc<char> > > >::_Tidy
PUBLIC	??1?$vector@V?$basic_string@DU?$char_traits@D@std@@V?$xalloc@D@@@std@@V?$xalloc@V?$basic_string@DU?$char_traits@D@std@@V?$xalloc@D@@@std@@@@@std@@QEAA@XZ ; std::vector<std::basic_string<char,std::char_traits<char>,xalloc<char> >,xalloc<std::basic_string<char,std::char_traits<char>,xalloc<char> > > >::~vector<std::basic_string<char,std::char_traits<char>,xalloc<char> >,xalloc<std::basic_string<char,std::char_traits<char>,xalloc<char> > > >
PUBLIC	??1?$xr_vector@V?$basic_string@DU?$char_traits@D@std@@V?$xalloc@D@@@std@@V?$xalloc@V?$basic_string@DU?$char_traits@D@std@@V?$xalloc@D@@@std@@@@@@QEAA@XZ ; xr_vector<std::basic_string<char,std::char_traits<char>,xalloc<char> >,xalloc<std::basic_string<char,std::char_traits<char>,xalloc<char> > > >::~xr_vector<std::basic_string<char,std::char_traits<char>,xalloc<char> >,xalloc<std::basic_string<char,std::char_traits<char>,xalloc<char> > > >
PUBLIC	?size@?$_Tree@V?$_Tset_traits@UFS_File@@U?$less@UFS_File@@@std@@V?$xalloc@UFS_File@@@@$0A@@std@@@std@@QEBA_KXZ ; std::_Tree<std::_Tset_traits<FS_File,std::less<FS_File>,xalloc<FS_File>,0> >::size
PUBLIC	?size@?$xr_set@UFS_File@@U?$less@UFS_File@@@std@@V?$xalloc@UFS_File@@@@@@QEBAIXZ ; xr_set<FS_File,std::less<FS_File>,xalloc<FS_File> >::size
PUBLIC	??D?$_Vector_iterator@V?$_Vector_val@V?$basic_string@DU?$char_traits@D@std@@V?$xalloc@D@@@std@@V?$xalloc@V?$basic_string@DU?$char_traits@D@std@@V?$xalloc@D@@@std@@@@@std@@@std@@QEBAAEAV?$basic_string@DU?$char_traits@D@std@@V?$xalloc@D@@@1@XZ ; std::_Vector_iterator<std::_Vector_val<std::basic_string<char,std::char_traits<char>,xalloc<char> >,xalloc<std::basic_string<char,std::char_traits<char>,xalloc<char> > > > >::operator*
PUBLIC	??C?$_Vector_iterator@V?$_Vector_val@V?$basic_string@DU?$char_traits@D@std@@V?$xalloc@D@@@std@@V?$xalloc@V?$basic_string@DU?$char_traits@D@std@@V?$xalloc@D@@@std@@@@@std@@@std@@QEBAPEAV?$basic_string@DU?$char_traits@D@std@@V?$xalloc@D@@@1@XZ ; std::_Vector_iterator<std::_Vector_val<std::basic_string<char,std::char_traits<char>,xalloc<char> >,xalloc<std::basic_string<char,std::char_traits<char>,xalloc<char> > > > >::operator->
PUBLIC	??E?$_Vector_iterator@V?$_Vector_val@V?$basic_string@DU?$char_traits@D@std@@V?$xalloc@D@@@std@@V?$xalloc@V?$basic_string@DU?$char_traits@D@std@@V?$xalloc@D@@@std@@@@@std@@@std@@QEAAAEAV01@XZ ; std::_Vector_iterator<std::_Vector_val<std::basic_string<char,std::char_traits<char>,xalloc<char> >,xalloc<std::basic_string<char,std::char_traits<char>,xalloc<char> > > > >::operator++
PUBLIC	??E?$_Vector_iterator@V?$_Vector_val@V?$basic_string@DU?$char_traits@D@std@@V?$xalloc@D@@@std@@V?$xalloc@V?$basic_string@DU?$char_traits@D@std@@V?$xalloc@D@@@std@@@@@std@@@std@@QEAA?AV01@H@Z ; std::_Vector_iterator<std::_Vector_val<std::basic_string<char,std::char_traits<char>,xalloc<char> >,xalloc<std::basic_string<char,std::char_traits<char>,xalloc<char> > > > >::operator++
PUBLIC	??R?$less@UFS_File@@@std@@QEBA_NAEBUFS_File@@0@Z ; std::less<FS_File>::operator()
PUBLIC	?_Kfn@?$_Tset_traits@UFS_File@@U?$less@UFS_File@@@std@@V?$xalloc@UFS_File@@@@$0A@@std@@SAAEBUFS_File@@AEBU3@@Z ; std::_Tset_traits<FS_File,std::less<FS_File>,xalloc<FS_File>,0>::_Kfn
PUBLIC	?_Key@?$_Tree_val@V?$_Tset_traits@UFS_File@@U?$less@UFS_File@@@std@@V?$xalloc@UFS_File@@@@$0A@@std@@@std@@SAAEAUFS_File@@PEAU_Node@?$_Tree_nod@V?$_Tset_traits@UFS_File@@U?$less@UFS_File@@@std@@V?$xalloc@UFS_File@@@@$0A@@std@@@2@@Z ; std::_Tree_val<std::_Tset_traits<FS_File,std::less<FS_File>,xalloc<FS_File>,0> >::_Key
PUBLIC	?max_size@?$xalloc@UFS_File@@@@QEBA_KXZ		; xalloc<FS_File>::max_size
PUBLIC	?max_size@?$_Tree@V?$_Tset_traits@UFS_File@@U?$less@UFS_File@@@std@@V?$xalloc@UFS_File@@@@$0A@@std@@@std@@QEBA_KXZ ; std::_Tree<std::_Tset_traits<FS_File,std::less<FS_File>,xalloc<FS_File>,0> >::max_size
PUBLIC	?_Insert@?$_Tree@V?$_Tset_traits@UFS_File@@U?$less@UFS_File@@@std@@V?$xalloc@UFS_File@@@@$0A@@std@@@std@@IEAA?AV?$_Tree_const_iterator@V?$_Tree_val@V?$_Tset_traits@UFS_File@@U?$less@UFS_File@@@std@@V?$xalloc@UFS_File@@@@$0A@@std@@@std@@@2@_NPEAU_Node@?$_Tree_nod@V?$_Tset_traits@UFS_File@@U?$less@UFS_File@@@std@@V?$xalloc@UFS_File@@@@$0A@@std@@@2@1@Z ; std::_Tree<std::_Tset_traits<FS_File,std::less<FS_File>,xalloc<FS_File>,0> >::_Insert
PUBLIC	??F?$_Tree_unchecked_const_iterator@V?$_Tree_val@V?$_Tset_traits@UFS_File@@U?$less@UFS_File@@@std@@V?$xalloc@UFS_File@@@@$0A@@std@@@std@@U_Iterator_base0@2@@std@@QEAAAEAV01@XZ ; std::_Tree_unchecked_const_iterator<std::_Tree_val<std::_Tset_traits<FS_File,std::less<FS_File>,xalloc<FS_File>,0> >,std::_Iterator_base0>::operator--
PUBLIC	??F?$_Tree_const_iterator@V?$_Tree_val@V?$_Tset_traits@UFS_File@@U?$less@UFS_File@@@std@@V?$xalloc@UFS_File@@@@$0A@@std@@@std@@@std@@QEAAAEAV01@XZ ; std::_Tree_const_iterator<std::_Tree_val<std::_Tset_traits<FS_File,std::less<FS_File>,xalloc<FS_File>,0> > >::operator--
PUBLIC	??0?$_Pair_base@V?$_Tree_const_iterator@V?$_Tree_val@V?$_Tset_traits@UFS_File@@U?$less@UFS_File@@@std@@V?$xalloc@UFS_File@@@@$0A@@std@@@std@@@std@@_N@std@@QEAA@$$QEAV?$_Tree_const_iterator@V?$_Tree_val@V?$_Tset_traits@UFS_File@@U?$less@UFS_File@@@std@@V?$xalloc@UFS_File@@@@$0A@@std@@@std@@@1@$$QEA_N@Z ; std::_Pair_base<std::_Tree_const_iterator<std::_Tree_val<std::_Tset_traits<FS_File,std::less<FS_File>,xalloc<FS_File>,0> > >,bool>::_Pair_base<std::_Tree_const_iterator<std::_Tree_val<std::_Tset_traits<FS_File,std::less<FS_File>,xalloc<FS_File>,0> > >,bool>
PUBLIC	??$move@AEAV?$_Tree_const_iterator@V?$_Tree_val@V?$_Tset_traits@UFS_File@@U?$less@UFS_File@@@std@@V?$xalloc@UFS_File@@@@$0A@@std@@@std@@@std@@@std@@YA$$QEAV?$_Tree_const_iterator@V?$_Tree_val@V?$_Tset_traits@UFS_File@@U?$less@UFS_File@@@std@@V?$xalloc@UFS_File@@@@$0A@@std@@@std@@@0@AEAV10@@Z ; std::move<std::_Tree_const_iterator<std::_Tree_val<std::_Tset_traits<FS_File,std::less<FS_File>,xalloc<FS_File>,0> > > & __ptr64>
PUBLIC	??0?$pair@V?$_Tree_const_iterator@V?$_Tree_val@V?$_Tset_traits@UFS_File@@U?$less@UFS_File@@@std@@V?$xalloc@UFS_File@@@@$0A@@std@@@std@@@std@@_N@std@@QEAA@$$QEAV?$_Tree_const_iterator@V?$_Tree_val@V?$_Tset_traits@UFS_File@@U?$less@UFS_File@@@std@@V?$xalloc@UFS_File@@@@$0A@@std@@@std@@@1@$$QEA_N@Z ; std::pair<std::_Tree_const_iterator<std::_Tree_val<std::_Tset_traits<FS_File,std::less<FS_File>,xalloc<FS_File>,0> > >,bool>::pair<std::_Tree_const_iterator<std::_Tree_val<std::_Tset_traits<FS_File,std::less<FS_File>,xalloc<FS_File>,0> > >,bool>
PUBLIC	??$forward@AEAV?$_Tree_const_iterator@V?$_Tree_val@V?$_Tset_traits@UFS_File@@U?$less@UFS_File@@@std@@V?$xalloc@UFS_File@@@@$0A@@std@@@std@@@std@@@std@@YAAEAV?$_Tree_const_iterator@V?$_Tree_val@V?$_Tset_traits@UFS_File@@U?$less@UFS_File@@@std@@V?$xalloc@UFS_File@@@@$0A@@std@@@std@@@0@AEAV10@@Z ; std::forward<std::_Tree_const_iterator<std::_Tree_val<std::_Tset_traits<FS_File,std::less<FS_File>,xalloc<FS_File>,0> > > & __ptr64>
PUBLIC	??$?0AEAV?$_Tree_const_iterator@V?$_Tree_val@V?$_Tset_traits@UFS_File@@U?$less@UFS_File@@@std@@V?$xalloc@UFS_File@@@@$0A@@std@@@std@@@std@@_N@?$_Pair_base@V?$_Tree_const_iterator@V?$_Tree_val@V?$_Tset_traits@UFS_File@@U?$less@UFS_File@@@std@@V?$xalloc@UFS_File@@@@$0A@@std@@@std@@@std@@_N@std@@QEAA@AEAV?$_Tree_const_iterator@V?$_Tree_val@V?$_Tset_traits@UFS_File@@U?$less@UFS_File@@@std@@V?$xalloc@UFS_File@@@@$0A@@std@@@std@@@1@$$QEA_N@Z ; std::_Pair_base<std::_Tree_const_iterator<std::_Tree_val<std::_Tset_traits<FS_File,std::less<FS_File>,xalloc<FS_File>,0> > >,bool>::_Pair_base<std::_Tree_const_iterator<std::_Tree_val<std::_Tset_traits<FS_File,std::less<FS_File>,xalloc<FS_File>,0> > >,bool><std::_Tree_const_iterator<std::_Tree_val<std::_Tset_traits<FS_File,std::less<FS_File>,xalloc<FS_File>,0> > > & __ptr64,bool>
PUBLIC	??$?0AEAV?$_Tree_const_iterator@V?$_Tree_val@V?$_Tset_traits@UFS_File@@U?$less@UFS_File@@@std@@V?$xalloc@UFS_File@@@@$0A@@std@@@std@@@std@@_N@?$pair@V?$_Tree_const_iterator@V?$_Tree_val@V?$_Tset_traits@UFS_File@@U?$less@UFS_File@@@std@@V?$xalloc@UFS_File@@@@$0A@@std@@@std@@@std@@_N@std@@QEAA@AEAV?$_Tree_const_iterator@V?$_Tree_val@V?$_Tset_traits@UFS_File@@U?$less@UFS_File@@@std@@V?$xalloc@UFS_File@@@@$0A@@std@@@std@@@1@$$QEA_N@Z ; std::pair<std::_Tree_const_iterator<std::_Tree_val<std::_Tset_traits<FS_File,std::less<FS_File>,xalloc<FS_File>,0> > >,bool>::pair<std::_Tree_const_iterator<std::_Tree_val<std::_Tset_traits<FS_File,std::less<FS_File>,xalloc<FS_File>,0> > >,bool><std::_Tree_const_iterator<std::_Tree_val<std::_Tset_traits<FS_File,std::less<FS_File>,xalloc<FS_File>,0> > > & __ptr64,bool>
PUBLIC	?_Linsert@?$_Tree@V?$_Tset_traits@UFS_File@@U?$less@UFS_File@@@std@@V?$xalloc@UFS_File@@@@$0A@@std@@@std@@QEAA?AU?$pair@V?$_Tree_const_iterator@V?$_Tree_val@V?$_Tset_traits@UFS_File@@U?$less@UFS_File@@@std@@V?$xalloc@UFS_File@@@@$0A@@std@@@std@@@std@@_N@2@PEAU_Node@?$_Tree_nod@V?$_Tset_traits@UFS_File@@U?$less@UFS_File@@@std@@V?$xalloc@UFS_File@@@@$0A@@std@@@2@_N@Z ; std::_Tree<std::_Tset_traits<FS_File,std::less<FS_File>,xalloc<FS_File>,0> >::_Linsert
PUBLIC	?_Buynode@?$_Tree_val@V?$_Tset_traits@UFS_File@@U?$less@UFS_File@@@std@@V?$xalloc@UFS_File@@@@$0A@@std@@@std@@QEAAPEAU_Node@?$_Tree_nod@V?$_Tset_traits@UFS_File@@U?$less@UFS_File@@@std@@V?$xalloc@UFS_File@@@@$0A@@std@@@2@XZ ; std::_Tree_val<std::_Tset_traits<FS_File,std::less<FS_File>,xalloc<FS_File>,0> >::_Buynode
PUBLIC	??$forward@AEBUFS_File@@@std@@YAAEBUFS_File@@AEBU1@@Z ; std::forward<FS_File const & __ptr64>
PUBLIC	??$_Construct@UFS_File@@AEBU1@@std@@YAXPEAUFS_File@@AEBU1@@Z ; std::_Construct<FS_File,FS_File const & __ptr64>
PUBLIC	?construct@?$xalloc@UFS_File@@@@QEAAXPEAUFS_File@@AEBU2@@Z ; xalloc<FS_File>::construct
PUBLIC	??$forward@UFS_File@@@std@@YA$$QEAUFS_File@@AEAU1@@Z ; std::forward<FS_File>
PUBLIC	??$_Cons_val@V?$xalloc@UFS_File@@@@UFS_File@@U2@@std@@YAXAEAV?$xalloc@UFS_File@@@@PEAUFS_File@@$$QEAU2@@Z ; std::_Cons_val<xalloc<FS_File>,FS_File,FS_File>
PUBLIC	??$_Buynode@UFS_File@@@?$_Tree_val@V?$_Tset_traits@UFS_File@@U?$less@UFS_File@@@std@@V?$xalloc@UFS_File@@@@$0A@@std@@@std@@QEAAPEAU_Node@?$_Tree_nod@V?$_Tset_traits@UFS_File@@U?$less@UFS_File@@@std@@V?$xalloc@UFS_File@@@@$0A@@std@@@1@$$QEAUFS_File@@@Z ; std::_Tree_val<std::_Tset_traits<FS_File,std::less<FS_File>,xalloc<FS_File>,0> >::_Buynode<FS_File>
PUBLIC	??$insert@UFS_File@@@?$_Tree@V?$_Tset_traits@UFS_File@@U?$less@UFS_File@@@std@@V?$xalloc@UFS_File@@@@$0A@@std@@@std@@QEAA?AU?$pair@V?$_Tree_const_iterator@V?$_Tree_val@V?$_Tset_traits@UFS_File@@U?$less@UFS_File@@@std@@V?$xalloc@UFS_File@@@@$0A@@std@@@std@@@std@@_N@1@$$QEAUFS_File@@@Z ; std::_Tree<std::_Tset_traits<FS_File,std::less<FS_File>,xalloc<FS_File>,0> >::insert<FS_File>
PUBLIC	?size@?$xr_map@PEBDPEAVFS_Path@@Upred_str@@V?$xalloc@U?$pair@PEBDPEAVFS_Path@@@std@@@@@@QEBAIXZ ; xr_map<char const * __ptr64,FS_Path * __ptr64,pred_str,xalloc<std::pair<char const * __ptr64,FS_Path * __ptr64> > >::size
PUBLIC	??$xr_new@VCFileReader@@PEAD@@YAPEAVCFileReader@@AEBQEAD@Z ; xr_new<CFileReader,char * __ptr64>
PUBLIC	??$xr_new@VCVirtualFileReader@@PEAD@@YAPEAVCVirtualFileReader@@AEBQEAD@Z ; xr_new<CVirtualFileReader,char * __ptr64>
PUBLIC	??1CFileStreamReader@@UEAA@XZ			; CFileStreamReader::~CFileStreamReader
PUBLIC	??_GCFileStreamReader@@UEAAPEAXI@Z		; CFileStreamReader::`scalar deleting destructor'
PUBLIC	??0CFileStreamReader@@QEAA@XZ			; CFileStreamReader::CFileStreamReader
PUBLIC	??$xr_new@VCFileStreamReader@@@@YAPEAVCFileStreamReader@@XZ ; xr_new<CFileStreamReader>
PUBLIC	??$xr_new@VCTempReader@@PEAEIH@@YAPEAVCTempReader@@AEBQEAEAEBIAEBH@Z ; xr_new<CTempReader,unsigned char * __ptr64,unsigned int,int>
PUBLIC	??0CPackReader@@QEAA@PEAX0H@Z			; CPackReader::CPackReader
PUBLIC	??$xr_new@VCPackReader@@PEAEPEAEI@@YAPEAVCPackReader@@AEBQEAE0AEBI@Z ; xr_new<CPackReader,unsigned char * __ptr64,unsigned char * __ptr64,unsigned int>
PUBLIC	??0?$allocator@D@std@@QEAA@XZ			; std::allocator<char>::allocator<char>
PUBLIC	??0?$allocator@D@std@@QEAA@AEBV01@@Z		; std::allocator<char>::allocator<char>
PUBLIC	??0?$_String_val@DV?$allocator@D@std@@@std@@QEAA@V?$allocator@D@1@@Z ; std::_String_val<char,std::allocator<char> >::_String_val<char,std::allocator<char> >
PUBLIC	?erase@?$basic_string@DU?$char_traits@D@std@@V?$allocator@D@2@@std@@QEAAAEAV12@_K0@Z ; std::basic_string<char,std::char_traits<char>,std::allocator<char> >::erase
PUBLIC	?size@?$basic_string@DU?$char_traits@D@std@@V?$allocator@D@2@@std@@QEBA_KXZ ; std::basic_string<char,std::char_traits<char>,std::allocator<char> >::size
PUBLIC	?_Myptr@?$basic_string@DU?$char_traits@D@std@@V?$allocator@D@2@@std@@QEBAPEBDXZ ; std::basic_string<char,std::char_traits<char>,std::allocator<char> >::_Myptr
PUBLIC	?_Xran@?$basic_string@DU?$char_traits@D@std@@V?$allocator@D@2@@std@@QEBAXXZ ; std::basic_string<char,std::char_traits<char>,std::allocator<char> >::_Xran
PUBLIC	?assign@?$basic_string@DU?$char_traits@D@std@@V?$allocator@D@2@@std@@QEAAAEAV12@AEBV12@_K1@Z ; std::basic_string<char,std::char_traits<char>,std::allocator<char> >::assign
PUBLIC	??0bad_alloc@std@@QEAA@PEBD@Z			; std::bad_alloc::bad_alloc
PUBLIC	??1bad_alloc@std@@UEAA@XZ			; std::bad_alloc::~bad_alloc
PUBLIC	??_Gbad_alloc@std@@UEAAPEAXI@Z			; std::bad_alloc::`scalar deleting destructor'
PUBLIC	??0bad_alloc@std@@QEAA@AEBV01@@Z		; std::bad_alloc::bad_alloc
PUBLIC	??$_Allocate@D@std@@YAPEAD_KPEAD@Z		; std::_Allocate<char>
PUBLIC	?allocate@?$allocator@D@std@@QEAAPEAD_K@Z	; std::allocator<char>::allocate
PUBLIC	?max_size@?$allocator@D@std@@QEBA_KXZ		; std::allocator<char>::max_size
PUBLIC	?max_size@?$basic_string@DU?$char_traits@D@std@@V?$allocator@D@2@@std@@QEBA_KXZ ; std::basic_string<char,std::char_traits<char>,std::allocator<char> >::max_size
PUBLIC	?_Copy@?$basic_string@DU?$char_traits@D@std@@V?$allocator@D@2@@std@@QEAAX_K0@Z ; std::basic_string<char,std::char_traits<char>,std::allocator<char> >::_Copy
PUBLIC	?_Xlen@?$basic_string@DU?$char_traits@D@std@@V?$allocator@D@2@@std@@QEBAXXZ ; std::basic_string<char,std::char_traits<char>,std::allocator<char> >::_Xlen
PUBLIC	?_Grow@?$basic_string@DU?$char_traits@D@std@@V?$allocator@D@2@@std@@QEAA_N_K_N@Z ; std::basic_string<char,std::char_traits<char>,std::allocator<char> >::_Grow
PUBLIC	?_Inside@?$basic_string@DU?$char_traits@D@std@@V?$allocator@D@2@@std@@QEAA_NPEBD@Z ; std::basic_string<char,std::char_traits<char>,std::allocator<char> >::_Inside
PUBLIC	?assign@?$basic_string@DU?$char_traits@D@std@@V?$allocator@D@2@@std@@QEAAAEAV12@PEBD_K@Z ; std::basic_string<char,std::char_traits<char>,std::allocator<char> >::assign
PUBLIC	?assign@?$basic_string@DU?$char_traits@D@std@@V?$allocator@D@2@@std@@QEAAAEAV12@PEBD@Z ; std::basic_string<char,std::char_traits<char>,std::allocator<char> >::assign
PUBLIC	??0?$basic_string@DU?$char_traits@D@std@@V?$allocator@D@2@@std@@QEAA@PEBD@Z ; std::basic_string<char,std::char_traits<char>,std::allocator<char> >::basic_string<char,std::char_traits<char>,std::allocator<char> >
PUBLIC	??1?$_String_val@DV?$allocator@D@std@@@std@@QEAA@XZ ; std::_String_val<char,std::allocator<char> >::~_String_val<char,std::allocator<char> >
PUBLIC	?deallocate@?$allocator@D@std@@QEAAXPEAD_K@Z	; std::allocator<char>::deallocate
PUBLIC	?_Myptr@?$basic_string@DU?$char_traits@D@std@@V?$allocator@D@2@@std@@QEAAPEADXZ ; std::basic_string<char,std::char_traits<char>,std::allocator<char> >::_Myptr
PUBLIC	?_Eos@?$basic_string@DU?$char_traits@D@std@@V?$allocator@D@2@@std@@QEAAX_K@Z ; std::basic_string<char,std::char_traits<char>,std::allocator<char> >::_Eos
PUBLIC	?_Tidy@?$basic_string@DU?$char_traits@D@std@@V?$allocator@D@2@@std@@QEAAX_N_K@Z ; std::basic_string<char,std::char_traits<char>,std::allocator<char> >::_Tidy
PUBLIC	??1?$basic_string@DU?$char_traits@D@std@@V?$allocator@D@2@@std@@QEAA@XZ ; std::basic_string<char,std::char_traits<char>,std::allocator<char> >::~basic_string<char,std::char_traits<char>,std::allocator<char> >
PUBLIC	?make_string@@YA?AV?$basic_string@DU?$char_traits@D@std@@V?$allocator@D@2@@std@@PEBDZZ ; make_string
PUBLIC	??D?$_Vector_iterator@V?$_Vector_val@Uarchive@CLocatorAPI@@V?$xalloc@Uarchive@CLocatorAPI@@@@@std@@@std@@QEBAAEAUarchive@CLocatorAPI@@XZ ; std::_Vector_iterator<std::_Vector_val<CLocatorAPI::archive,xalloc<CLocatorAPI::archive> > >::operator*
PUBLIC	??Y?$_Vector_const_iterator@V?$_Vector_val@Uarchive@CLocatorAPI@@V?$xalloc@Uarchive@CLocatorAPI@@@@@std@@@std@@QEAAAEAV01@_J@Z ; std::_Vector_const_iterator<std::_Vector_val<CLocatorAPI::archive,xalloc<CLocatorAPI::archive> > >::operator+=
PUBLIC	??Y?$_Vector_iterator@V?$_Vector_val@Uarchive@CLocatorAPI@@V?$xalloc@Uarchive@CLocatorAPI@@@@@std@@@std@@QEAAAEAV01@_J@Z ; std::_Vector_iterator<std::_Vector_val<CLocatorAPI::archive,xalloc<CLocatorAPI::archive> > >::operator+=
PUBLIC	??H?$_Vector_iterator@V?$_Vector_val@Uarchive@CLocatorAPI@@V?$xalloc@Uarchive@CLocatorAPI@@@@@std@@@std@@QEBA?AV01@_J@Z ; std::_Vector_iterator<std::_Vector_val<CLocatorAPI::archive,xalloc<CLocatorAPI::archive> > >::operator+
PUBLIC	??A?$xr_vector@Uarchive@CLocatorAPI@@V?$xalloc@Uarchive@CLocatorAPI@@@@@@QEAAAEAUarchive@CLocatorAPI@@_K@Z ; xr_vector<CLocatorAPI::archive,xalloc<CLocatorAPI::archive> >::operator[]
PUBLIC	??$xr_new@VCStreamReader@@@@YAPEAVCStreamReader@@XZ ; xr_new<CStreamReader>
PUBLIC	??$xr_alloc@E@@YAPEAEI@Z			; xr_alloc<unsigned char>
PUBLIC	?size@?$xr_set@Ufile@CLocatorAPI@@Ufile_pred@2@V?$xalloc@Ufile@CLocatorAPI@@@@@@QEBAIXZ ; xr_set<CLocatorAPI::file,CLocatorAPI::file_pred,xalloc<CLocatorAPI::file> >::size
PUBLIC	??$file_from_cache@VCStreamReader@@@CLocatorAPI@@AEAAXAEAPEAVCStreamReader@@PEADAEBUfile@0@AEAPEBD@Z ; CLocatorAPI::file_from_cache<CStreamReader>
PUBLIC	??$_register_open_file@VCStreamReader@@@@YAXPEAVCStreamReader@@PEBD@Z ; _register_open_file<CStreamReader>
PUBLIC	??$r_open_impl@VCStreamReader@@@CLocatorAPI@@AEAAPEAVCStreamReader@@PEBD0@Z ; CLocatorAPI::r_open_impl<CStreamReader>
PUBLIC	??$file_from_cache@VIReader@@@CLocatorAPI@@AEAAXAEAPEAVIReader@@PEADAEBUfile@0@AEAPEBD@Z ; CLocatorAPI::file_from_cache<IReader>
PUBLIC	??$_register_open_file@VIReader@@@@YAXPEAVIReader@@PEBD@Z ; _register_open_file<IReader>
PUBLIC	??$r_open_impl@VIReader@@@CLocatorAPI@@AEAAPEAVIReader@@PEBD0@Z ; CLocatorAPI::r_open_impl<IReader>
PUBLIC	??0?$eq_pointer@VIReader@@@@QEAA@PEAVIReader@@@Z ; eq_pointer<IReader>::eq_pointer<IReader>
PUBLIC	??R?$eq_pointer@VIReader@@@@QEAA_NAEAU_open_file@@@Z ; eq_pointer<IReader>::operator()
PUBLIC	??$_Find_if@PEAU_open_file@@U?$eq_pointer@VIReader@@@@@std@@YAPEAU_open_file@@PEAU1@0U?$eq_pointer@VIReader@@@@@Z ; std::_Find_if<_open_file * __ptr64,eq_pointer<IReader> >
PUBLIC	??$find_if@V?$_Vector_iterator@V?$_Vector_val@U_open_file@@V?$xalloc@U_open_file@@@@@std@@@std@@U?$eq_pointer@VIReader@@@@@std@@YA?AV?$_Vector_iterator@V?$_Vector_val@U_open_file@@V?$xalloc@U_open_file@@@@@std@@@0@V10@0U?$eq_pointer@VIReader@@@@@Z ; std::find_if<std::_Vector_iterator<std::_Vector_val<_open_file,xalloc<_open_file> > >,eq_pointer<IReader> >
PUBLIC	??$_unregister_open_file@VIReader@@@@YAXPEAVIReader@@@Z ; _unregister_open_file<IReader>
PUBLIC	?test@?$_flags@I@@QEBAHI@Z			; _flags<unsigned int>::test
PUBLIC	??0?$eq_pointer@VCStreamReader@@@@QEAA@PEAVCStreamReader@@@Z ; eq_pointer<CStreamReader>::eq_pointer<CStreamReader>
PUBLIC	?begin@?$vector@U_open_file@@V?$xalloc@U_open_file@@@@@std@@QEAA?AV?$_Vector_iterator@V?$_Vector_val@U_open_file@@V?$xalloc@U_open_file@@@@@std@@@2@XZ ; std::vector<_open_file,xalloc<_open_file> >::begin
PUBLIC	??0?$_Vector_const_iterator@V?$_Vector_val@U_open_file@@V?$xalloc@U_open_file@@@@@std@@@std@@QEAA@PEAU_open_file@@PEBU_Container_base0@1@@Z ; std::_Vector_const_iterator<std::_Vector_val<_open_file,xalloc<_open_file> > >::_Vector_const_iterator<std::_Vector_val<_open_file,xalloc<_open_file> > >
PUBLIC	??0?$_Vector_iterator@V?$_Vector_val@U_open_file@@V?$xalloc@U_open_file@@@@@std@@@std@@QEAA@PEAU_open_file@@PEBU_Container_base0@1@@Z ; std::_Vector_iterator<std::_Vector_val<_open_file,xalloc<_open_file> > >::_Vector_iterator<std::_Vector_val<_open_file,xalloc<_open_file> > >
PUBLIC	?end@?$vector@U_open_file@@V?$xalloc@U_open_file@@@@@std@@QEAA?AV?$_Vector_iterator@V?$_Vector_val@U_open_file@@V?$xalloc@U_open_file@@@@@std@@@2@XZ ; std::vector<_open_file,xalloc<_open_file> >::end
PUBLIC	??D?$_Vector_const_iterator@V?$_Vector_val@U_open_file@@V?$xalloc@U_open_file@@@@@std@@@std@@QEBAAEBU_open_file@@XZ ; std::_Vector_const_iterator<std::_Vector_val<_open_file,xalloc<_open_file> > >::operator*
PUBLIC	??D?$_Vector_iterator@V?$_Vector_val@U_open_file@@V?$xalloc@U_open_file@@@@@std@@@std@@QEBAAEAU_open_file@@XZ ; std::_Vector_iterator<std::_Vector_val<_open_file,xalloc<_open_file> > >::operator*
PUBLIC	?_Unchecked@?$_Vector_iterator@V?$_Vector_val@U_open_file@@V?$xalloc@U_open_file@@@@@std@@@std@@QEBAPEAU_open_file@@XZ ; std::_Vector_iterator<std::_Vector_val<_open_file,xalloc<_open_file> > >::_Unchecked
PUBLIC	??$_Unchecked@V?$_Vector_val@U_open_file@@V?$xalloc@U_open_file@@@@@std@@@std@@YAPEAU_open_file@@V?$_Vector_iterator@V?$_Vector_val@U_open_file@@V?$xalloc@U_open_file@@@@@std@@@0@@Z ; std::_Unchecked<std::_Vector_val<_open_file,xalloc<_open_file> > >
PUBLIC	?_Rechecked@?$_Vector_iterator@V?$_Vector_val@U_open_file@@V?$xalloc@U_open_file@@@@@std@@@std@@QEAAAEAV12@PEAU_open_file@@@Z ; std::_Vector_iterator<std::_Vector_val<_open_file,xalloc<_open_file> > >::_Rechecked
PUBLIC	??$_Rechecked@V?$_Vector_val@U_open_file@@V?$xalloc@U_open_file@@@@@std@@@std@@YAAEAV?$_Vector_iterator@V?$_Vector_val@U_open_file@@V?$xalloc@U_open_file@@@@@std@@@0@AEAV10@PEAU_open_file@@@Z ; std::_Rechecked<std::_Vector_val<_open_file,xalloc<_open_file> > >
PUBLIC	??R?$eq_pointer@VCStreamReader@@@@QEAA_NAEAU_open_file@@@Z ; eq_pointer<CStreamReader>::operator()
PUBLIC	??$_Find_if@PEAU_open_file@@U?$eq_pointer@VCStreamReader@@@@@std@@YAPEAU_open_file@@PEAU1@0U?$eq_pointer@VCStreamReader@@@@@Z ; std::_Find_if<_open_file * __ptr64,eq_pointer<CStreamReader> >
PUBLIC	??$find_if@V?$_Vector_iterator@V?$_Vector_val@U_open_file@@V?$xalloc@U_open_file@@@@@std@@@std@@U?$eq_pointer@VCStreamReader@@@@@std@@YA?AV?$_Vector_iterator@V?$_Vector_val@U_open_file@@V?$xalloc@U_open_file@@@@@std@@@0@V10@0U?$eq_pointer@VCStreamReader@@@@@Z ; std::find_if<std::_Vector_iterator<std::_Vector_val<_open_file,xalloc<_open_file> > >,eq_pointer<CStreamReader> >
PUBLIC	??$_unregister_open_file@VCStreamReader@@@@YAXPEAVCStreamReader@@@Z ; _unregister_open_file<CStreamReader>
PUBLIC	?w@CFileWriter@@UEAAXPEBXI@Z			; CFileWriter::w
PUBLIC	?seek@CFileWriter@@UEAAXI@Z			; CFileWriter::seek
PUBLIC	?tell@CFileWriter@@UEAAIXZ			; CFileWriter::tell
PUBLIC	?valid@CFileWriter@@UEAA_NXZ			; CFileWriter::valid
PUBLIC	?flush@CFileWriter@@UEAAHXZ			; CFileWriter::flush
PUBLIC	??1CFileWriter@@UEAA@XZ				; CFileWriter::~CFileWriter
PUBLIC	??_GCFileWriter@@UEAAPEAXI@Z			; CFileWriter::`scalar deleting destructor'
PUBLIC	??0CFileWriter@@QEAA@PEBD_N@Z			; CFileWriter::CFileWriter
PUBLIC	??$xr_new@VCFileWriter@@$$BY0CAI@D_N@@YAPEAVCFileWriter@@AEAY0CAI@$$CBDAEB_N@Z ; xr_new<CFileWriter,char [520],bool>
PUBLIC	??$strcpy_s@$0CAI@@@YAHAEAY0CAI@DPEBD@Z		; strcpy_s<520>
PUBLIC	??R?$xr_special_free@$00VIWriter@@@@QEAAXAEAPEAVIWriter@@@Z ; xr_special_free<1,IWriter>::operator()
PUBLIC	??$xr_delete@VIWriter@@@@YAXAEAPEAVIWriter@@@Z	; xr_delete<IWriter>
PUBLIC	?find@?$_Tree@V?$_Tset_traits@Ufile@CLocatorAPI@@Ufile_pred@2@V?$xalloc@Ufile@CLocatorAPI@@@@$0A@@std@@@std@@QEAA?AV?$_Tree_const_iterator@V?$_Tree_val@V?$_Tset_traits@Ufile@CLocatorAPI@@Ufile_pred@2@V?$xalloc@Ufile@CLocatorAPI@@@@$0A@@std@@@std@@@2@AEBUfile@CLocatorAPI@@@Z ; std::_Tree<std::_Tset_traits<CLocatorAPI::file,CLocatorAPI::file_pred,xalloc<CLocatorAPI::file>,0> >::find
PUBLIC	?rbegin@?$_Tree@V?$_Tset_traits@Ufile@CLocatorAPI@@Ufile_pred@2@V?$xalloc@Ufile@CLocatorAPI@@@@$0A@@std@@@std@@QEAA?AV?$reverse_iterator@V?$_Tree_const_iterator@V?$_Tree_val@V?$_Tset_traits@Ufile@CLocatorAPI@@Ufile_pred@2@V?$xalloc@Ufile@CLocatorAPI@@@@$0A@@std@@@std@@@std@@@2@XZ ; std::_Tree<std::_Tset_traits<CLocatorAPI::file,CLocatorAPI::file_pred,xalloc<CLocatorAPI::file>,0> >::rbegin
PUBLIC	??0?$_Revranit@V?$_Tree_const_iterator@V?$_Tree_val@V?$_Tset_traits@Ufile@CLocatorAPI@@Ufile_pred@2@V?$xalloc@Ufile@CLocatorAPI@@@@$0A@@std@@@std@@@std@@U?$iterator@Ubidirectional_iterator_tag@std@@Ufile@CLocatorAPI@@_JPEBU34@AEBU34@@2@@std@@QEAA@V?$_Tree_const_iterator@V?$_Tree_val@V?$_Tset_traits@Ufile@CLocatorAPI@@Ufile_pred@2@V?$xalloc@Ufile@CLocatorAPI@@@@$0A@@std@@@std@@@1@@Z ; std::_Revranit<std::_Tree_const_iterator<std::_Tree_val<std::_Tset_traits<CLocatorAPI::file,CLocatorAPI::file_pred,xalloc<CLocatorAPI::file>,0> > >,std::iterator<std::bidirectional_iterator_tag,CLocatorAPI::file,__int64,CLocatorAPI::file const * __ptr64,CLocatorAPI::file const & __ptr64> >::_Revranit<std::_Tree_const_iterator<std::_Tree_val<std::_Tset_traits<CLocatorAPI::file,CLocatorAPI::file_pred,xalloc<CLocatorAPI::file>,0> > >,std::iterator<std::bidirectional_iterator_tag,CLocatorAPI::file,__int64,CLocatorAPI::file const * __ptr64,CLocatorAPI::file const & __ptr64> >
PUBLIC	??0?$reverse_iterator@V?$_Tree_const_iterator@V?$_Tree_val@V?$_Tset_traits@Ufile@CLocatorAPI@@Ufile_pred@2@V?$xalloc@Ufile@CLocatorAPI@@@@$0A@@std@@@std@@@std@@@std@@QEAA@V?$_Tree_const_iterator@V?$_Tree_val@V?$_Tset_traits@Ufile@CLocatorAPI@@Ufile_pred@2@V?$xalloc@Ufile@CLocatorAPI@@@@$0A@@std@@@std@@@1@@Z ; std::reverse_iterator<std::_Tree_const_iterator<std::_Tree_val<std::_Tset_traits<CLocatorAPI::file,CLocatorAPI::file_pred,xalloc<CLocatorAPI::file>,0> > > >::reverse_iterator<std::_Tree_const_iterator<std::_Tree_val<std::_Tset_traits<CLocatorAPI::file,CLocatorAPI::file_pred,xalloc<CLocatorAPI::file>,0> > > >
PUBLIC	?rend@?$_Tree@V?$_Tset_traits@Ufile@CLocatorAPI@@Ufile_pred@2@V?$xalloc@Ufile@CLocatorAPI@@@@$0A@@std@@@std@@QEAA?AV?$reverse_iterator@V?$_Tree_const_iterator@V?$_Tree_val@V?$_Tset_traits@Ufile@CLocatorAPI@@Ufile_pred@2@V?$xalloc@Ufile@CLocatorAPI@@@@$0A@@std@@@std@@@std@@@2@XZ ; std::_Tree<std::_Tset_traits<CLocatorAPI::file,CLocatorAPI::file_pred,xalloc<CLocatorAPI::file>,0> >::rend
PUBLIC	??$_Cons_val@V?$xalloc@Ufile@CLocatorAPI@@@@Ufile@CLocatorAPI@@AEBU23@@std@@YAXAEAV?$xalloc@Ufile@CLocatorAPI@@@@PEAUfile@CLocatorAPI@@AEBU23@@Z ; std::_Cons_val<xalloc<CLocatorAPI::file>,CLocatorAPI::file,CLocatorAPI::file const & __ptr64>
PUBLIC	?_Buynode@?$_Tree_val@V?$_Tset_traits@Ufile@CLocatorAPI@@Ufile_pred@2@V?$xalloc@Ufile@CLocatorAPI@@@@$0A@@std@@@std@@QEAAPEAU_Node@?$_Tree_nod@V?$_Tset_traits@Ufile@CLocatorAPI@@Ufile_pred@2@V?$xalloc@Ufile@CLocatorAPI@@@@$0A@@std@@@2@AEBUfile@CLocatorAPI@@@Z ; std::_Tree_val<std::_Tset_traits<CLocatorAPI::file,CLocatorAPI::file_pred,xalloc<CLocatorAPI::file>,0> >::_Buynode
PUBLIC	?_Insert@?$_Tree@V?$_Tset_traits@Ufile@CLocatorAPI@@Ufile_pred@2@V?$xalloc@Ufile@CLocatorAPI@@@@$0A@@std@@@std@@IEAA?AV?$_Tree_const_iterator@V?$_Tree_val@V?$_Tset_traits@Ufile@CLocatorAPI@@Ufile_pred@2@V?$xalloc@Ufile@CLocatorAPI@@@@$0A@@std@@@std@@@2@_NPEAU_Node@?$_Tree_nod@V?$_Tset_traits@Ufile@CLocatorAPI@@Ufile_pred@2@V?$xalloc@Ufile@CLocatorAPI@@@@$0A@@std@@@2@AEBUfile@CLocatorAPI@@@Z ; std::_Tree<std::_Tset_traits<CLocatorAPI::file,CLocatorAPI::file_pred,xalloc<CLocatorAPI::file>,0> >::_Insert
PUBLIC	?insert@?$_Tree@V?$_Tset_traits@Ufile@CLocatorAPI@@Ufile_pred@2@V?$xalloc@Ufile@CLocatorAPI@@@@$0A@@std@@@std@@QEAA?AU?$pair@V?$_Tree_const_iterator@V?$_Tree_val@V?$_Tset_traits@Ufile@CLocatorAPI@@Ufile_pred@2@V?$xalloc@Ufile@CLocatorAPI@@@@$0A@@std@@@std@@@std@@_N@2@AEBUfile@CLocatorAPI@@_N@Z ; std::_Tree<std::_Tset_traits<CLocatorAPI::file,CLocatorAPI::file_pred,xalloc<CLocatorAPI::file>,0> >::insert
PUBLIC	?insert@?$_Tree@V?$_Tset_traits@Ufile@CLocatorAPI@@Ufile_pred@2@V?$xalloc@Ufile@CLocatorAPI@@@@$0A@@std@@@std@@QEAA?AU?$pair@V?$_Tree_const_iterator@V?$_Tree_val@V?$_Tset_traits@Ufile@CLocatorAPI@@Ufile_pred@2@V?$xalloc@Ufile@CLocatorAPI@@@@$0A@@std@@@std@@@std@@_N@2@AEBUfile@CLocatorAPI@@@Z ; std::_Tree<std::_Tset_traits<CLocatorAPI::file,CLocatorAPI::file_pred,xalloc<CLocatorAPI::file>,0> >::insert
PUBLIC	??$?0AEAV?$_Tree_const_iterator@V?$_Tree_val@V?$_Tset_traits@Ufile@CLocatorAPI@@Ufile_pred@2@V?$xalloc@Ufile@CLocatorAPI@@@@$0A@@std@@@std@@@std@@AEAV01@@?$_Pair_base@V?$_Tree_const_iterator@V?$_Tree_val@V?$_Tset_traits@Ufile@CLocatorAPI@@Ufile_pred@2@V?$xalloc@Ufile@CLocatorAPI@@@@$0A@@std@@@std@@@std@@V12@@std@@QEAA@AEAV?$_Tree_const_iterator@V?$_Tree_val@V?$_Tset_traits@Ufile@CLocatorAPI@@Ufile_pred@2@V?$xalloc@Ufile@CLocatorAPI@@@@$0A@@std@@@std@@@1@0@Z ; std::_Pair_base<std::_Tree_const_iterator<std::_Tree_val<std::_Tset_traits<CLocatorAPI::file,CLocatorAPI::file_pred,xalloc<CLocatorAPI::file>,0> > >,std::_Tree_const_iterator<std::_Tree_val<std::_Tset_traits<CLocatorAPI::file,CLocatorAPI::file_pred,xalloc<CLocatorAPI::file>,0> > > >::_Pair_base<std::_Tree_const_iterator<std::_Tree_val<std::_Tset_traits<CLocatorAPI::file,CLocatorAPI::file_pred,xalloc<CLocatorAPI::file>,0> > >,std::_Tree_const_iterator<std::_Tree_val<std::_Tset_traits<CLocatorAPI::file,CLocatorAPI::file_pred,xalloc<CLocatorAPI::file>,0> > > ><std::_Tree_const_iterator<std::_Tree_val<std::_Tset_traits<CLocatorAPI::file,CLocatorAPI::file_pred,xalloc<CLocatorAPI::file>,0> > > & __ptr64,std::_Tree_const_iterator<std::_Tree_val<std::_Tset_traits<CLocatorAPI::file,CLocatorAPI::file_pred,xalloc<CLocatorAPI::file>,0> > > & __ptr64>
PUBLIC	??$?0AEAV?$_Tree_const_iterator@V?$_Tree_val@V?$_Tset_traits@Ufile@CLocatorAPI@@Ufile_pred@2@V?$xalloc@Ufile@CLocatorAPI@@@@$0A@@std@@@std@@@std@@AEAV01@@?$pair@V?$_Tree_const_iterator@V?$_Tree_val@V?$_Tset_traits@Ufile@CLocatorAPI@@Ufile_pred@2@V?$xalloc@Ufile@CLocatorAPI@@@@$0A@@std@@@std@@@std@@V12@@std@@QEAA@AEAV?$_Tree_const_iterator@V?$_Tree_val@V?$_Tset_traits@Ufile@CLocatorAPI@@Ufile_pred@2@V?$xalloc@Ufile@CLocatorAPI@@@@$0A@@std@@@std@@@1@0@Z ; std::pair<std::_Tree_const_iterator<std::_Tree_val<std::_Tset_traits<CLocatorAPI::file,CLocatorAPI::file_pred,xalloc<CLocatorAPI::file>,0> > >,std::_Tree_const_iterator<std::_Tree_val<std::_Tset_traits<CLocatorAPI::file,CLocatorAPI::file_pred,xalloc<CLocatorAPI::file>,0> > > >::pair<std::_Tree_const_iterator<std::_Tree_val<std::_Tset_traits<CLocatorAPI::file,CLocatorAPI::file_pred,xalloc<CLocatorAPI::file>,0> > >,std::_Tree_const_iterator<std::_Tree_val<std::_Tset_traits<CLocatorAPI::file,CLocatorAPI::file_pred,xalloc<CLocatorAPI::file>,0> > > ><std::_Tree_const_iterator<std::_Tree_val<std::_Tset_traits<CLocatorAPI::file,CLocatorAPI::file_pred,xalloc<CLocatorAPI::file>,0> > > & __ptr64,std::_Tree_const_iterator<std::_Tree_val<std::_Tset_traits<CLocatorAPI::file,CLocatorAPI::file_pred,xalloc<CLocatorAPI::file>,0> > > & __ptr64>
PUBLIC	?_Eqrange@?$_Tree@V?$_Tset_traits@Ufile@CLocatorAPI@@Ufile_pred@2@V?$xalloc@Ufile@CLocatorAPI@@@@$0A@@std@@@std@@IEAA?AU?$pair@V?$_Tree_const_iterator@V?$_Tree_val@V?$_Tset_traits@Ufile@CLocatorAPI@@Ufile_pred@2@V?$xalloc@Ufile@CLocatorAPI@@@@$0A@@std@@@std@@@std@@V12@@2@AEBUfile@CLocatorAPI@@@Z ; std::_Tree<std::_Tset_traits<CLocatorAPI::file,CLocatorAPI::file_pred,xalloc<CLocatorAPI::file>,0> >::_Eqrange
PUBLIC	?equal_range@?$_Tree@V?$_Tset_traits@Ufile@CLocatorAPI@@Ufile_pred@2@V?$xalloc@Ufile@CLocatorAPI@@@@$0A@@std@@@std@@QEAA?AU?$pair@V?$_Tree_const_iterator@V?$_Tree_val@V?$_Tset_traits@Ufile@CLocatorAPI@@Ufile_pred@2@V?$xalloc@Ufile@CLocatorAPI@@@@$0A@@std@@@std@@@std@@V12@@2@AEBUfile@CLocatorAPI@@@Z ; std::_Tree<std::_Tset_traits<CLocatorAPI::file,CLocatorAPI::file_pred,xalloc<CLocatorAPI::file>,0> >::equal_range
PUBLIC	??$_Iter_cat@V?$_Tree_const_iterator@V?$_Tree_val@V?$_Tset_traits@Ufile@CLocatorAPI@@Ufile_pred@2@V?$xalloc@Ufile@CLocatorAPI@@@@$0A@@std@@@std@@@std@@@std@@YA?AUbidirectional_iterator_tag@0@AEBV?$_Tree_const_iterator@V?$_Tree_val@V?$_Tset_traits@Ufile@CLocatorAPI@@Ufile_pred@2@V?$xalloc@Ufile@CLocatorAPI@@@@$0A@@std@@@std@@@0@@Z ; std::_Iter_cat<std::_Tree_const_iterator<std::_Tree_val<std::_Tset_traits<CLocatorAPI::file,CLocatorAPI::file_pred,xalloc<CLocatorAPI::file>,0> > > >
PUBLIC	??$_Distance2@V?$_Tree_const_iterator@V?$_Tree_val@V?$_Tset_traits@Ufile@CLocatorAPI@@Ufile_pred@2@V?$xalloc@Ufile@CLocatorAPI@@@@$0A@@std@@@std@@@std@@_K@std@@YAXV?$_Tree_const_iterator@V?$_Tree_val@V?$_Tset_traits@Ufile@CLocatorAPI@@Ufile_pred@2@V?$xalloc@Ufile@CLocatorAPI@@@@$0A@@std@@@std@@@0@0AEA_KUbidirectional_iterator_tag@0@@Z ; std::_Distance2<std::_Tree_const_iterator<std::_Tree_val<std::_Tset_traits<CLocatorAPI::file,CLocatorAPI::file_pred,xalloc<CLocatorAPI::file>,0> > >,unsigned __int64>
PUBLIC	??$_Distance@V?$_Tree_const_iterator@V?$_Tree_val@V?$_Tset_traits@Ufile@CLocatorAPI@@Ufile_pred@2@V?$xalloc@Ufile@CLocatorAPI@@@@$0A@@std@@@std@@@std@@_K@std@@YAXV?$_Tree_const_iterator@V?$_Tree_val@V?$_Tset_traits@Ufile@CLocatorAPI@@Ufile_pred@2@V?$xalloc@Ufile@CLocatorAPI@@@@$0A@@std@@@std@@@0@0AEA_K@Z ; std::_Distance<std::_Tree_const_iterator<std::_Tree_val<std::_Tset_traits<CLocatorAPI::file,CLocatorAPI::file_pred,xalloc<CLocatorAPI::file>,0> > >,unsigned __int64>
PUBLIC	?erase@?$_Tree@V?$_Tset_traits@Ufile@CLocatorAPI@@Ufile_pred@2@V?$xalloc@Ufile@CLocatorAPI@@@@$0A@@std@@@std@@QEAA_KAEBUfile@CLocatorAPI@@@Z ; std::_Tree<std::_Tset_traits<CLocatorAPI::file,CLocatorAPI::file_pred,xalloc<CLocatorAPI::file>,0> >::erase
PUBLIC	??0?$xalloc@Ufile@CLocatorAPI@@@@QEAA@XZ	; xalloc<CLocatorAPI::file>::xalloc<CLocatorAPI::file>
PUBLIC	??0?$_Tree@V?$_Tset_traits@Ufile@CLocatorAPI@@Ufile_pred@2@V?$xalloc@Ufile@CLocatorAPI@@@@$0A@@std@@@std@@QEAA@AEBUfile_pred@CLocatorAPI@@AEBV?$xalloc@Ufile@CLocatorAPI@@@@@Z ; std::_Tree<std::_Tset_traits<CLocatorAPI::file,CLocatorAPI::file_pred,xalloc<CLocatorAPI::file>,0> >::_Tree<std::_Tset_traits<CLocatorAPI::file,CLocatorAPI::file_pred,xalloc<CLocatorAPI::file>,0> >
PUBLIC	??0?$set@Ufile@CLocatorAPI@@Ufile_pred@2@V?$xalloc@Ufile@CLocatorAPI@@@@@std@@QEAA@XZ ; std::set<CLocatorAPI::file,CLocatorAPI::file_pred,xalloc<CLocatorAPI::file> >::set<CLocatorAPI::file,CLocatorAPI::file_pred,xalloc<CLocatorAPI::file> >
PUBLIC	??0?$xr_set@Ufile@CLocatorAPI@@Ufile_pred@2@V?$xalloc@Ufile@CLocatorAPI@@@@@@QEAA@XZ ; xr_set<CLocatorAPI::file,CLocatorAPI::file_pred,xalloc<CLocatorAPI::file> >::xr_set<CLocatorAPI::file,CLocatorAPI::file_pred,xalloc<CLocatorAPI::file> >
PUBLIC	??0?$_Tree_unchecked_const_iterator@V?$_Tree_val@V?$_Tset_traits@Ufile@CLocatorAPI@@Ufile_pred@2@V?$xalloc@Ufile@CLocatorAPI@@@@$0A@@std@@@std@@U_Iterator_base0@2@@std@@QEAA@XZ ; std::_Tree_unchecked_const_iterator<std::_Tree_val<std::_Tset_traits<CLocatorAPI::file,CLocatorAPI::file_pred,xalloc<CLocatorAPI::file>,0> >,std::_Iterator_base0>::_Tree_unchecked_const_iterator<std::_Tree_val<std::_Tset_traits<CLocatorAPI::file,CLocatorAPI::file_pred,xalloc<CLocatorAPI::file>,0> >,std::_Iterator_base0>
PUBLIC	??0?$_Tree_const_iterator@V?$_Tree_val@V?$_Tset_traits@Ufile@CLocatorAPI@@Ufile_pred@2@V?$xalloc@Ufile@CLocatorAPI@@@@$0A@@std@@@std@@@std@@QEAA@XZ ; std::_Tree_const_iterator<std::_Tree_val<std::_Tset_traits<CLocatorAPI::file,CLocatorAPI::file_pred,xalloc<CLocatorAPI::file>,0> > >::_Tree_const_iterator<std::_Tree_val<std::_Tset_traits<CLocatorAPI::file,CLocatorAPI::file_pred,xalloc<CLocatorAPI::file>,0> > >
PUBLIC	??D?$_Revranit@V?$_Tree_const_iterator@V?$_Tree_val@V?$_Tset_traits@Ufile@CLocatorAPI@@Ufile_pred@2@V?$xalloc@Ufile@CLocatorAPI@@@@$0A@@std@@@std@@@std@@U?$iterator@Ubidirectional_iterator_tag@std@@Ufile@CLocatorAPI@@_JPEBU34@AEBU34@@2@@std@@QEBAAEBUfile@CLocatorAPI@@XZ ; std::_Revranit<std::_Tree_const_iterator<std::_Tree_val<std::_Tset_traits<CLocatorAPI::file,CLocatorAPI::file_pred,xalloc<CLocatorAPI::file>,0> > >,std::iterator<std::bidirectional_iterator_tag,CLocatorAPI::file,__int64,CLocatorAPI::file const * __ptr64,CLocatorAPI::file const & __ptr64> >::operator*
PUBLIC	??C?$_Revranit@V?$_Tree_const_iterator@V?$_Tree_val@V?$_Tset_traits@Ufile@CLocatorAPI@@Ufile_pred@2@V?$xalloc@Ufile@CLocatorAPI@@@@$0A@@std@@@std@@@std@@U?$iterator@Ubidirectional_iterator_tag@std@@Ufile@CLocatorAPI@@_JPEBU34@AEBU34@@2@@std@@QEBAPEBUfile@CLocatorAPI@@XZ ; std::_Revranit<std::_Tree_const_iterator<std::_Tree_val<std::_Tset_traits<CLocatorAPI::file,CLocatorAPI::file_pred,xalloc<CLocatorAPI::file>,0> > >,std::iterator<std::bidirectional_iterator_tag,CLocatorAPI::file,__int64,CLocatorAPI::file const * __ptr64,CLocatorAPI::file const & __ptr64> >::operator->
PUBLIC	??E?$_Revranit@V?$_Tree_const_iterator@V?$_Tree_val@V?$_Tset_traits@Ufile@CLocatorAPI@@Ufile_pred@2@V?$xalloc@Ufile@CLocatorAPI@@@@$0A@@std@@@std@@@std@@U?$iterator@Ubidirectional_iterator_tag@std@@Ufile@CLocatorAPI@@_JPEBU34@AEBU34@@2@@std@@QEAAAEAV01@XZ ; std::_Revranit<std::_Tree_const_iterator<std::_Tree_val<std::_Tset_traits<CLocatorAPI::file,CLocatorAPI::file_pred,xalloc<CLocatorAPI::file>,0> > >,std::iterator<std::bidirectional_iterator_tag,CLocatorAPI::file,__int64,CLocatorAPI::file const * __ptr64,CLocatorAPI::file const & __ptr64> >::operator++
PUBLIC	??E?$reverse_iterator@V?$_Tree_const_iterator@V?$_Tree_val@V?$_Tset_traits@Ufile@CLocatorAPI@@Ufile_pred@2@V?$xalloc@Ufile@CLocatorAPI@@@@$0A@@std@@@std@@@std@@@std@@QEAAAEAV01@XZ ; std::reverse_iterator<std::_Tree_const_iterator<std::_Tree_val<std::_Tset_traits<CLocatorAPI::file,CLocatorAPI::file_pred,xalloc<CLocatorAPI::file>,0> > > >::operator++
PUBLIC	??E?$reverse_iterator@V?$_Tree_const_iterator@V?$_Tree_val@V?$_Tset_traits@Ufile@CLocatorAPI@@Ufile_pred@2@V?$xalloc@Ufile@CLocatorAPI@@@@$0A@@std@@@std@@@std@@@std@@QEAA?AV01@H@Z ; std::reverse_iterator<std::_Tree_const_iterator<std::_Tree_val<std::_Tset_traits<CLocatorAPI::file,CLocatorAPI::file_pred,xalloc<CLocatorAPI::file>,0> > > >::operator++
PUBLIC	?base@?$_Revranit@V?$_Tree_const_iterator@V?$_Tree_val@V?$_Tset_traits@Ufile@CLocatorAPI@@Ufile_pred@2@V?$xalloc@Ufile@CLocatorAPI@@@@$0A@@std@@@std@@@std@@U?$iterator@Ubidirectional_iterator_tag@std@@Ufile@CLocatorAPI@@_JPEBU34@AEBU34@@2@@std@@QEBA?AV?$_Tree_const_iterator@V?$_Tree_val@V?$_Tset_traits@Ufile@CLocatorAPI@@Ufile_pred@2@V?$xalloc@Ufile@CLocatorAPI@@@@$0A@@std@@@std@@@2@XZ ; std::_Revranit<std::_Tree_const_iterator<std::_Tree_val<std::_Tset_traits<CLocatorAPI::file,CLocatorAPI::file_pred,xalloc<CLocatorAPI::file>,0> > >,std::iterator<std::bidirectional_iterator_tag,CLocatorAPI::file,__int64,CLocatorAPI::file const * __ptr64,CLocatorAPI::file const & __ptr64> >::base
PUBLIC	??$_Equal@V?$_Tree_const_iterator@V?$_Tree_val@V?$_Tset_traits@Ufile@CLocatorAPI@@Ufile_pred@2@V?$xalloc@Ufile@CLocatorAPI@@@@$0A@@std@@@std@@@std@@U?$iterator@Ubidirectional_iterator_tag@std@@Ufile@CLocatorAPI@@_JPEBU34@AEBU34@@2@@?$_Revranit@V?$_Tree_const_iterator@V?$_Tree_val@V?$_Tset_traits@Ufile@CLocatorAPI@@Ufile_pred@2@V?$xalloc@Ufile@CLocatorAPI@@@@$0A@@std@@@std@@@std@@U?$iterator@Ubidirectional_iterator_tag@std@@Ufile@CLocatorAPI@@_JPEBU34@AEBU34@@2@@std@@QEBA_NAEBV01@@Z ; std::_Revranit<std::_Tree_const_iterator<std::_Tree_val<std::_Tset_traits<CLocatorAPI::file,CLocatorAPI::file_pred,xalloc<CLocatorAPI::file>,0> > >,std::iterator<std::bidirectional_iterator_tag,CLocatorAPI::file,__int64,CLocatorAPI::file const * __ptr64,CLocatorAPI::file const & __ptr64> >::_Equal<std::_Tree_const_iterator<std::_Tree_val<std::_Tset_traits<CLocatorAPI::file,CLocatorAPI::file_pred,xalloc<CLocatorAPI::file>,0> > >,std::iterator<std::bidirectional_iterator_tag,CLocatorAPI::file,__int64,CLocatorAPI::file const * __ptr64,CLocatorAPI::file const & __ptr64> >
PUBLIC	??$?8V?$_Tree_const_iterator@V?$_Tree_val@V?$_Tset_traits@Ufile@CLocatorAPI@@Ufile_pred@2@V?$xalloc@Ufile@CLocatorAPI@@@@$0A@@std@@@std@@@std@@V01@@std@@YA_NAEBV?$reverse_iterator@V?$_Tree_const_iterator@V?$_Tree_val@V?$_Tset_traits@Ufile@CLocatorAPI@@Ufile_pred@2@V?$xalloc@Ufile@CLocatorAPI@@@@$0A@@std@@@std@@@std@@@0@0@Z ; std::operator==<std::_Tree_const_iterator<std::_Tree_val<std::_Tset_traits<CLocatorAPI::file,CLocatorAPI::file_pred,xalloc<CLocatorAPI::file>,0> > >,std::_Tree_const_iterator<std::_Tree_val<std::_Tset_traits<CLocatorAPI::file,CLocatorAPI::file_pred,xalloc<CLocatorAPI::file>,0> > > >
PUBLIC	??$?9V?$_Tree_const_iterator@V?$_Tree_val@V?$_Tset_traits@Ufile@CLocatorAPI@@Ufile_pred@2@V?$xalloc@Ufile@CLocatorAPI@@@@$0A@@std@@@std@@@std@@V01@@std@@YA_NAEBV?$reverse_iterator@V?$_Tree_const_iterator@V?$_Tree_val@V?$_Tset_traits@Ufile@CLocatorAPI@@Ufile_pred@2@V?$xalloc@Ufile@CLocatorAPI@@@@$0A@@std@@@std@@@std@@@0@0@Z ; std::operator!=<std::_Tree_const_iterator<std::_Tree_val<std::_Tset_traits<CLocatorAPI::file,CLocatorAPI::file_pred,xalloc<CLocatorAPI::file>,0> > >,std::_Tree_const_iterator<std::_Tree_val<std::_Tset_traits<CLocatorAPI::file,CLocatorAPI::file_pred,xalloc<CLocatorAPI::file>,0> > > >
PUBLIC	?xr_strlwr@@YAPEADPEAD@Z			; xr_strlwr
PUBLIC	?max_size@?$xalloc@Ufile@CLocatorAPI@@@@QEBA_KXZ ; xalloc<CLocatorAPI::file>::max_size
PUBLIC	?max_size@?$_Tree@V?$_Tset_traits@Ufile@CLocatorAPI@@Ufile_pred@2@V?$xalloc@Ufile@CLocatorAPI@@@@$0A@@std@@@std@@QEBA_KXZ ; std::_Tree<std::_Tset_traits<CLocatorAPI::file,CLocatorAPI::file_pred,xalloc<CLocatorAPI::file>,0> >::max_size
PUBLIC	?_Insert@?$_Tree@V?$_Tset_traits@Ufile@CLocatorAPI@@Ufile_pred@2@V?$xalloc@Ufile@CLocatorAPI@@@@$0A@@std@@@std@@IEAA?AV?$_Tree_const_iterator@V?$_Tree_val@V?$_Tset_traits@Ufile@CLocatorAPI@@Ufile_pred@2@V?$xalloc@Ufile@CLocatorAPI@@@@$0A@@std@@@std@@@2@_NPEAU_Node@?$_Tree_nod@V?$_Tset_traits@Ufile@CLocatorAPI@@Ufile_pred@2@V?$xalloc@Ufile@CLocatorAPI@@@@$0A@@std@@@2@1@Z ; std::_Tree<std::_Tset_traits<CLocatorAPI::file,CLocatorAPI::file_pred,xalloc<CLocatorAPI::file>,0> >::_Insert
PUBLIC	??F?$_Tree_unchecked_const_iterator@V?$_Tree_val@V?$_Tset_traits@Ufile@CLocatorAPI@@Ufile_pred@2@V?$xalloc@Ufile@CLocatorAPI@@@@$0A@@std@@@std@@U_Iterator_base0@2@@std@@QEAAAEAV01@XZ ; std::_Tree_unchecked_const_iterator<std::_Tree_val<std::_Tset_traits<CLocatorAPI::file,CLocatorAPI::file_pred,xalloc<CLocatorAPI::file>,0> >,std::_Iterator_base0>::operator--
PUBLIC	??F?$_Tree_const_iterator@V?$_Tree_val@V?$_Tset_traits@Ufile@CLocatorAPI@@Ufile_pred@2@V?$xalloc@Ufile@CLocatorAPI@@@@$0A@@std@@@std@@@std@@QEAAAEAV01@XZ ; std::_Tree_const_iterator<std::_Tree_val<std::_Tset_traits<CLocatorAPI::file,CLocatorAPI::file_pred,xalloc<CLocatorAPI::file>,0> > >::operator--
PUBLIC	??0?$_Pair_base@V?$_Tree_const_iterator@V?$_Tree_val@V?$_Tset_traits@Ufile@CLocatorAPI@@Ufile_pred@2@V?$xalloc@Ufile@CLocatorAPI@@@@$0A@@std@@@std@@@std@@_N@std@@QEAA@$$QEAV?$_Tree_const_iterator@V?$_Tree_val@V?$_Tset_traits@Ufile@CLocatorAPI@@Ufile_pred@2@V?$xalloc@Ufile@CLocatorAPI@@@@$0A@@std@@@std@@@1@$$QEA_N@Z ; std::_Pair_base<std::_Tree_const_iterator<std::_Tree_val<std::_Tset_traits<CLocatorAPI::file,CLocatorAPI::file_pred,xalloc<CLocatorAPI::file>,0> > >,bool>::_Pair_base<std::_Tree_const_iterator<std::_Tree_val<std::_Tset_traits<CLocatorAPI::file,CLocatorAPI::file_pred,xalloc<CLocatorAPI::file>,0> > >,bool>
PUBLIC	??$move@AEAV?$_Tree_const_iterator@V?$_Tree_val@V?$_Tset_traits@Ufile@CLocatorAPI@@Ufile_pred@2@V?$xalloc@Ufile@CLocatorAPI@@@@$0A@@std@@@std@@@std@@@std@@YA$$QEAV?$_Tree_const_iterator@V?$_Tree_val@V?$_Tset_traits@Ufile@CLocatorAPI@@Ufile_pred@2@V?$xalloc@Ufile@CLocatorAPI@@@@$0A@@std@@@std@@@0@AEAV10@@Z ; std::move<std::_Tree_const_iterator<std::_Tree_val<std::_Tset_traits<CLocatorAPI::file,CLocatorAPI::file_pred,xalloc<CLocatorAPI::file>,0> > > & __ptr64>
PUBLIC	??0?$pair@V?$_Tree_const_iterator@V?$_Tree_val@V?$_Tset_traits@Ufile@CLocatorAPI@@Ufile_pred@2@V?$xalloc@Ufile@CLocatorAPI@@@@$0A@@std@@@std@@@std@@_N@std@@QEAA@$$QEAV?$_Tree_const_iterator@V?$_Tree_val@V?$_Tset_traits@Ufile@CLocatorAPI@@Ufile_pred@2@V?$xalloc@Ufile@CLocatorAPI@@@@$0A@@std@@@std@@@1@$$QEA_N@Z ; std::pair<std::_Tree_const_iterator<std::_Tree_val<std::_Tset_traits<CLocatorAPI::file,CLocatorAPI::file_pred,xalloc<CLocatorAPI::file>,0> > >,bool>::pair<std::_Tree_const_iterator<std::_Tree_val<std::_Tset_traits<CLocatorAPI::file,CLocatorAPI::file_pred,xalloc<CLocatorAPI::file>,0> > >,bool>
PUBLIC	??$forward@AEAV?$_Tree_const_iterator@V?$_Tree_val@V?$_Tset_traits@Ufile@CLocatorAPI@@Ufile_pred@2@V?$xalloc@Ufile@CLocatorAPI@@@@$0A@@std@@@std@@@std@@@std@@YAAEAV?$_Tree_const_iterator@V?$_Tree_val@V?$_Tset_traits@Ufile@CLocatorAPI@@Ufile_pred@2@V?$xalloc@Ufile@CLocatorAPI@@@@$0A@@std@@@std@@@0@AEAV10@@Z ; std::forward<std::_Tree_const_iterator<std::_Tree_val<std::_Tset_traits<CLocatorAPI::file,CLocatorAPI::file_pred,xalloc<CLocatorAPI::file>,0> > > & __ptr64>
PUBLIC	??$?0AEAV?$_Tree_const_iterator@V?$_Tree_val@V?$_Tset_traits@Ufile@CLocatorAPI@@Ufile_pred@2@V?$xalloc@Ufile@CLocatorAPI@@@@$0A@@std@@@std@@@std@@_N@?$_Pair_base@V?$_Tree_const_iterator@V?$_Tree_val@V?$_Tset_traits@Ufile@CLocatorAPI@@Ufile_pred@2@V?$xalloc@Ufile@CLocatorAPI@@@@$0A@@std@@@std@@@std@@_N@std@@QEAA@AEAV?$_Tree_const_iterator@V?$_Tree_val@V?$_Tset_traits@Ufile@CLocatorAPI@@Ufile_pred@2@V?$xalloc@Ufile@CLocatorAPI@@@@$0A@@std@@@std@@@1@$$QEA_N@Z ; std::_Pair_base<std::_Tree_const_iterator<std::_Tree_val<std::_Tset_traits<CLocatorAPI::file,CLocatorAPI::file_pred,xalloc<CLocatorAPI::file>,0> > >,bool>::_Pair_base<std::_Tree_const_iterator<std::_Tree_val<std::_Tset_traits<CLocatorAPI::file,CLocatorAPI::file_pred,xalloc<CLocatorAPI::file>,0> > >,bool><std::_Tree_const_iterator<std::_Tree_val<std::_Tset_traits<CLocatorAPI::file,CLocatorAPI::file_pred,xalloc<CLocatorAPI::file>,0> > > & __ptr64,bool>
PUBLIC	??$?0AEAV?$_Tree_const_iterator@V?$_Tree_val@V?$_Tset_traits@Ufile@CLocatorAPI@@Ufile_pred@2@V?$xalloc@Ufile@CLocatorAPI@@@@$0A@@std@@@std@@@std@@_N@?$pair@V?$_Tree_const_iterator@V?$_Tree_val@V?$_Tset_traits@Ufile@CLocatorAPI@@Ufile_pred@2@V?$xalloc@Ufile@CLocatorAPI@@@@$0A@@std@@@std@@@std@@_N@std@@QEAA@AEAV?$_Tree_const_iterator@V?$_Tree_val@V?$_Tset_traits@Ufile@CLocatorAPI@@Ufile_pred@2@V?$xalloc@Ufile@CLocatorAPI@@@@$0A@@std@@@std@@@1@$$QEA_N@Z ; std::pair<std::_Tree_const_iterator<std::_Tree_val<std::_Tset_traits<CLocatorAPI::file,CLocatorAPI::file_pred,xalloc<CLocatorAPI::file>,0> > >,bool>::pair<std::_Tree_const_iterator<std::_Tree_val<std::_Tset_traits<CLocatorAPI::file,CLocatorAPI::file_pred,xalloc<CLocatorAPI::file>,0> > >,bool><std::_Tree_const_iterator<std::_Tree_val<std::_Tset_traits<CLocatorAPI::file,CLocatorAPI::file_pred,xalloc<CLocatorAPI::file>,0> > > & __ptr64,bool>
PUBLIC	?_Linsert@?$_Tree@V?$_Tset_traits@Ufile@CLocatorAPI@@Ufile_pred@2@V?$xalloc@Ufile@CLocatorAPI@@@@$0A@@std@@@std@@QEAA?AU?$pair@V?$_Tree_const_iterator@V?$_Tree_val@V?$_Tset_traits@Ufile@CLocatorAPI@@Ufile_pred@2@V?$xalloc@Ufile@CLocatorAPI@@@@$0A@@std@@@std@@@std@@_N@2@PEAU_Node@?$_Tree_nod@V?$_Tset_traits@Ufile@CLocatorAPI@@Ufile_pred@2@V?$xalloc@Ufile@CLocatorAPI@@@@$0A@@std@@@2@_N@Z ; std::_Tree<std::_Tset_traits<CLocatorAPI::file,CLocatorAPI::file_pred,xalloc<CLocatorAPI::file>,0> >::_Linsert
PUBLIC	??$insert@AEAUfile@CLocatorAPI@@@?$_Tree@V?$_Tset_traits@Ufile@CLocatorAPI@@Ufile_pred@2@V?$xalloc@Ufile@CLocatorAPI@@@@$0A@@std@@@std@@QEAA?AU?$pair@V?$_Tree_const_iterator@V?$_Tree_val@V?$_Tset_traits@Ufile@CLocatorAPI@@Ufile_pred@2@V?$xalloc@Ufile@CLocatorAPI@@@@$0A@@std@@@std@@@std@@_N@1@AEAUfile@CLocatorAPI@@@Z ; std::_Tree<std::_Tset_traits<CLocatorAPI::file,CLocatorAPI::file_pred,xalloc<CLocatorAPI::file>,0> >::insert<CLocatorAPI::file & __ptr64>
PUBLIC	??$forward@AEAPEAVFS_Path@@@std@@YAAEAPEAVFS_Path@@AEAPEAV1@@Z ; std::forward<FS_Path * __ptr64 & __ptr64>
PUBLIC	??$?0AEAPEADAEAPEAVFS_Path@@@?$_Pair_base@PEADPEAVFS_Path@@@std@@QEAA@AEAPEADAEAPEAVFS_Path@@@Z ; std::_Pair_base<char * __ptr64,FS_Path * __ptr64>::_Pair_base<char * __ptr64,FS_Path * __ptr64><char * __ptr64 & __ptr64,FS_Path * __ptr64 & __ptr64>
PUBLIC	??$?0AEAPEADAEAPEAVFS_Path@@@?$pair@PEADPEAVFS_Path@@@std@@QEAA@AEAPEADAEAPEAVFS_Path@@@Z ; std::pair<char * __ptr64,FS_Path * __ptr64>::pair<char * __ptr64,FS_Path * __ptr64><char * __ptr64 & __ptr64,FS_Path * __ptr64 & __ptr64>
PUBLIC	??$mk_pair@PEADPEAVFS_Path@@@@YA?AU?$pair@PEADPEAVFS_Path@@@std@@PEADPEAVFS_Path@@@Z ; mk_pair<char * __ptr64,FS_Path * __ptr64>
PUBLIC	?max_size@?$xalloc@U?$pair@QEBDPEAVFS_Path@@@std@@@@QEBA_KXZ ; xalloc<std::pair<char const * __ptr64 const,FS_Path * __ptr64> >::max_size
PUBLIC	?max_size@?$_Tree@V?$_Tmap_traits@PEBDPEAVFS_Path@@Upred_str@@V?$xalloc@U?$pair@PEBDPEAVFS_Path@@@std@@@@$0A@@std@@@std@@QEBA_KXZ ; std::_Tree<std::_Tmap_traits<char const * __ptr64,FS_Path * __ptr64,pred_str,xalloc<std::pair<char const * __ptr64,FS_Path * __ptr64> >,0> >::max_size
PUBLIC	?_Insert@?$_Tree@V?$_Tmap_traits@PEBDPEAVFS_Path@@Upred_str@@V?$xalloc@U?$pair@PEBDPEAVFS_Path@@@std@@@@$0A@@std@@@std@@IEAA?AV?$_Tree_iterator@V?$_Tree_val@V?$_Tmap_traits@PEBDPEAVFS_Path@@Upred_str@@V?$xalloc@U?$pair@PEBDPEAVFS_Path@@@std@@@@$0A@@std@@@std@@@2@_NPEAU_Node@?$_Tree_nod@V?$_Tmap_traits@PEBDPEAVFS_Path@@Upred_str@@V?$xalloc@U?$pair@PEBDPEAVFS_Path@@@std@@@@$0A@@std@@@2@1@Z ; std::_Tree<std::_Tmap_traits<char const * __ptr64,FS_Path * __ptr64,pred_str,xalloc<std::pair<char const * __ptr64,FS_Path * __ptr64> >,0> >::_Insert
PUBLIC	??F?$_Tree_unchecked_const_iterator@V?$_Tree_val@V?$_Tmap_traits@PEBDPEAVFS_Path@@Upred_str@@V?$xalloc@U?$pair@PEBDPEAVFS_Path@@@std@@@@$0A@@std@@@std@@U_Iterator_base0@2@@std@@QEAAAEAV01@XZ ; std::_Tree_unchecked_const_iterator<std::_Tree_val<std::_Tmap_traits<char const * __ptr64,FS_Path * __ptr64,pred_str,xalloc<std::pair<char const * __ptr64,FS_Path * __ptr64> >,0> >,std::_Iterator_base0>::operator--
PUBLIC	??F?$_Tree_const_iterator@V?$_Tree_val@V?$_Tmap_traits@PEBDPEAVFS_Path@@Upred_str@@V?$xalloc@U?$pair@PEBDPEAVFS_Path@@@std@@@@$0A@@std@@@std@@@std@@QEAAAEAV01@XZ ; std::_Tree_const_iterator<std::_Tree_val<std::_Tmap_traits<char const * __ptr64,FS_Path * __ptr64,pred_str,xalloc<std::pair<char const * __ptr64,FS_Path * __ptr64> >,0> > >::operator--
PUBLIC	??F?$_Tree_iterator@V?$_Tree_val@V?$_Tmap_traits@PEBDPEAVFS_Path@@Upred_str@@V?$xalloc@U?$pair@PEBDPEAVFS_Path@@@std@@@@$0A@@std@@@std@@@std@@QEAAAEAV01@XZ ; std::_Tree_iterator<std::_Tree_val<std::_Tmap_traits<char const * __ptr64,FS_Path * __ptr64,pred_str,xalloc<std::pair<char const * __ptr64,FS_Path * __ptr64> >,0> > >::operator--
PUBLIC	??0?$_Pair_base@V?$_Tree_iterator@V?$_Tree_val@V?$_Tmap_traits@PEBDPEAVFS_Path@@Upred_str@@V?$xalloc@U?$pair@PEBDPEAVFS_Path@@@std@@@@$0A@@std@@@std@@@std@@_N@std@@QEAA@$$QEAV?$_Tree_iterator@V?$_Tree_val@V?$_Tmap_traits@PEBDPEAVFS_Path@@Upred_str@@V?$xalloc@U?$pair@PEBDPEAVFS_Path@@@std@@@@$0A@@std@@@std@@@1@$$QEA_N@Z ; std::_Pair_base<std::_Tree_iterator<std::_Tree_val<std::_Tmap_traits<char const * __ptr64,FS_Path * __ptr64,pred_str,xalloc<std::pair<char const * __ptr64,FS_Path * __ptr64> >,0> > >,bool>::_Pair_base<std::_Tree_iterator<std::_Tree_val<std::_Tmap_traits<char const * __ptr64,FS_Path * __ptr64,pred_str,xalloc<std::pair<char const * __ptr64,FS_Path * __ptr64> >,0> > >,bool>
PUBLIC	??$move@AEAV?$_Tree_iterator@V?$_Tree_val@V?$_Tmap_traits@PEBDPEAVFS_Path@@Upred_str@@V?$xalloc@U?$pair@PEBDPEAVFS_Path@@@std@@@@$0A@@std@@@std@@@std@@@std@@YA$$QEAV?$_Tree_iterator@V?$_Tree_val@V?$_Tmap_traits@PEBDPEAVFS_Path@@Upred_str@@V?$xalloc@U?$pair@PEBDPEAVFS_Path@@@std@@@@$0A@@std@@@std@@@0@AEAV10@@Z ; std::move<std::_Tree_iterator<std::_Tree_val<std::_Tmap_traits<char const * __ptr64,FS_Path * __ptr64,pred_str,xalloc<std::pair<char const * __ptr64,FS_Path * __ptr64> >,0> > > & __ptr64>
PUBLIC	??0?$pair@V?$_Tree_iterator@V?$_Tree_val@V?$_Tmap_traits@PEBDPEAVFS_Path@@Upred_str@@V?$xalloc@U?$pair@PEBDPEAVFS_Path@@@std@@@@$0A@@std@@@std@@@std@@_N@std@@QEAA@$$QEAV?$_Tree_iterator@V?$_Tree_val@V?$_Tmap_traits@PEBDPEAVFS_Path@@Upred_str@@V?$xalloc@U?$pair@PEBDPEAVFS_Path@@@std@@@@$0A@@std@@@std@@@1@$$QEA_N@Z ; std::pair<std::_Tree_iterator<std::_Tree_val<std::_Tmap_traits<char const * __ptr64,FS_Path * __ptr64,pred_str,xalloc<std::pair<char const * __ptr64,FS_Path * __ptr64> >,0> > >,bool>::pair<std::_Tree_iterator<std::_Tree_val<std::_Tmap_traits<char const * __ptr64,FS_Path * __ptr64,pred_str,xalloc<std::pair<char const * __ptr64,FS_Path * __ptr64> >,0> > >,bool>
PUBLIC	??$forward@AEAV?$_Tree_iterator@V?$_Tree_val@V?$_Tmap_traits@PEBDPEAVFS_Path@@Upred_str@@V?$xalloc@U?$pair@PEBDPEAVFS_Path@@@std@@@@$0A@@std@@@std@@@std@@@std@@YAAEAV?$_Tree_iterator@V?$_Tree_val@V?$_Tmap_traits@PEBDPEAVFS_Path@@Upred_str@@V?$xalloc@U?$pair@PEBDPEAVFS_Path@@@std@@@@$0A@@std@@@std@@@0@AEAV10@@Z ; std::forward<std::_Tree_iterator<std::_Tree_val<std::_Tmap_traits<char const * __ptr64,FS_Path * __ptr64,pred_str,xalloc<std::pair<char const * __ptr64,FS_Path * __ptr64> >,0> > > & __ptr64>
PUBLIC	??$?0AEAV?$_Tree_iterator@V?$_Tree_val@V?$_Tmap_traits@PEBDPEAVFS_Path@@Upred_str@@V?$xalloc@U?$pair@PEBDPEAVFS_Path@@@std@@@@$0A@@std@@@std@@@std@@_N@?$_Pair_base@V?$_Tree_iterator@V?$_Tree_val@V?$_Tmap_traits@PEBDPEAVFS_Path@@Upred_str@@V?$xalloc@U?$pair@PEBDPEAVFS_Path@@@std@@@@$0A@@std@@@std@@@std@@_N@std@@QEAA@AEAV?$_Tree_iterator@V?$_Tree_val@V?$_Tmap_traits@PEBDPEAVFS_Path@@Upred_str@@V?$xalloc@U?$pair@PEBDPEAVFS_Path@@@std@@@@$0A@@std@@@std@@@1@$$QEA_N@Z ; std::_Pair_base<std::_Tree_iterator<std::_Tree_val<std::_Tmap_traits<char const * __ptr64,FS_Path * __ptr64,pred_str,xalloc<std::pair<char const * __ptr64,FS_Path * __ptr64> >,0> > >,bool>::_Pair_base<std::_Tree_iterator<std::_Tree_val<std::_Tmap_traits<char const * __ptr64,FS_Path * __ptr64,pred_str,xalloc<std::pair<char const * __ptr64,FS_Path * __ptr64> >,0> > >,bool><std::_Tree_iterator<std::_Tree_val<std::_Tmap_traits<char const * __ptr64,FS_Path * __ptr64,pred_str,xalloc<std::pair<char const * __ptr64,FS_Path * __ptr64> >,0> > > & __ptr64,bool>
PUBLIC	??$?0AEAV?$_Tree_iterator@V?$_Tree_val@V?$_Tmap_traits@PEBDPEAVFS_Path@@Upred_str@@V?$xalloc@U?$pair@PEBDPEAVFS_Path@@@std@@@@$0A@@std@@@std@@@std@@_N@?$pair@V?$_Tree_iterator@V?$_Tree_val@V?$_Tmap_traits@PEBDPEAVFS_Path@@Upred_str@@V?$xalloc@U?$pair@PEBDPEAVFS_Path@@@std@@@@$0A@@std@@@std@@@std@@_N@std@@QEAA@AEAV?$_Tree_iterator@V?$_Tree_val@V?$_Tmap_traits@PEBDPEAVFS_Path@@Upred_str@@V?$xalloc@U?$pair@PEBDPEAVFS_Path@@@std@@@@$0A@@std@@@std@@@1@$$QEA_N@Z ; std::pair<std::_Tree_iterator<std::_Tree_val<std::_Tmap_traits<char const * __ptr64,FS_Path * __ptr64,pred_str,xalloc<std::pair<char const * __ptr64,FS_Path * __ptr64> >,0> > >,bool>::pair<std::_Tree_iterator<std::_Tree_val<std::_Tmap_traits<char const * __ptr64,FS_Path * __ptr64,pred_str,xalloc<std::pair<char const * __ptr64,FS_Path * __ptr64> >,0> > >,bool><std::_Tree_iterator<std::_Tree_val<std::_Tmap_traits<char const * __ptr64,FS_Path * __ptr64,pred_str,xalloc<std::pair<char const * __ptr64,FS_Path * __ptr64> >,0> > > & __ptr64,bool>
PUBLIC	?_Linsert@?$_Tree@V?$_Tmap_traits@PEBDPEAVFS_Path@@Upred_str@@V?$xalloc@U?$pair@PEBDPEAVFS_Path@@@std@@@@$0A@@std@@@std@@QEAA?AU?$pair@V?$_Tree_iterator@V?$_Tree_val@V?$_Tmap_traits@PEBDPEAVFS_Path@@Upred_str@@V?$xalloc@U?$pair@PEBDPEAVFS_Path@@@std@@@@$0A@@std@@@std@@@std@@_N@2@PEAU_Node@?$_Tree_nod@V?$_Tmap_traits@PEBDPEAVFS_Path@@Upred_str@@V?$xalloc@U?$pair@PEBDPEAVFS_Path@@@std@@@@$0A@@std@@@2@_N@Z ; std::_Tree<std::_Tmap_traits<char const * __ptr64,FS_Path * __ptr64,pred_str,xalloc<std::pair<char const * __ptr64,FS_Path * __ptr64> >,0> >::_Linsert
PUBLIC	??$forward@PEAVFS_Path@@@std@@YA$$QEAPEAVFS_Path@@AEAPEAV1@@Z ; std::forward<FS_Path * __ptr64>
PUBLIC	??$?0PEADPEAVFS_Path@@@?$_Pair_base@QEBDPEAVFS_Path@@@std@@QEAA@$$QEAPEAD$$QEAPEAVFS_Path@@@Z ; std::_Pair_base<char const * __ptr64 const,FS_Path * __ptr64>::_Pair_base<char const * __ptr64 const,FS_Path * __ptr64><char * __ptr64,FS_Path * __ptr64>
PUBLIC	??$?0PEADPEAVFS_Path@@@?$pair@QEBDPEAVFS_Path@@@std@@QEAA@$$QEAU?$pair@PEADPEAVFS_Path@@@1@@Z ; std::pair<char const * __ptr64 const,FS_Path * __ptr64>::pair<char const * __ptr64 const,FS_Path * __ptr64><char * __ptr64,FS_Path * __ptr64>
PUBLIC	??$forward@U?$pair@PEADPEAVFS_Path@@@std@@@std@@YA$$QEAU?$pair@PEADPEAVFS_Path@@@0@AEAU10@@Z ; std::forward<std::pair<char * __ptr64,FS_Path * __ptr64> >
PUBLIC	??$_Cons_val@V?$xalloc@U?$pair@QEBDPEAVFS_Path@@@std@@@@U?$pair@QEBDPEAVFS_Path@@@std@@U?$pair@PEADPEAVFS_Path@@@3@@std@@YAXAEAV?$xalloc@U?$pair@QEBDPEAVFS_Path@@@std@@@@PEAU?$pair@QEBDPEAVFS_Path@@@0@$$QEAU?$pair@PEADPEAVFS_Path@@@0@@Z ; std::_Cons_val<xalloc<std::pair<char const * __ptr64 const,FS_Path * __ptr64> >,std::pair<char const * __ptr64 const,FS_Path * __ptr64>,std::pair<char * __ptr64,FS_Path * __ptr64> >
PUBLIC	??$_Buynode@U?$pair@PEADPEAVFS_Path@@@std@@@?$_Tree_val@V?$_Tmap_traits@PEBDPEAVFS_Path@@Upred_str@@V?$xalloc@U?$pair@PEBDPEAVFS_Path@@@std@@@@$0A@@std@@@std@@QEAAPEAU_Node@?$_Tree_nod@V?$_Tmap_traits@PEBDPEAVFS_Path@@Upred_str@@V?$xalloc@U?$pair@PEBDPEAVFS_Path@@@std@@@@$0A@@std@@@1@$$QEAU?$pair@PEADPEAVFS_Path@@@1@@Z ; std::_Tree_val<std::_Tmap_traits<char const * __ptr64,FS_Path * __ptr64,pred_str,xalloc<std::pair<char const * __ptr64,FS_Path * __ptr64> >,0> >::_Buynode<std::pair<char * __ptr64,FS_Path * __ptr64> >
PUBLIC	??$insert@U?$pair@PEADPEAVFS_Path@@@std@@@?$_Tree@V?$_Tmap_traits@PEBDPEAVFS_Path@@Upred_str@@V?$xalloc@U?$pair@PEBDPEAVFS_Path@@@std@@@@$0A@@std@@@std@@QEAA?AU?$pair@V?$_Tree_iterator@V?$_Tree_val@V?$_Tmap_traits@PEBDPEAVFS_Path@@Upred_str@@V?$xalloc@U?$pair@PEBDPEAVFS_Path@@@std@@@@$0A@@std@@@std@@@std@@_N@1@$$QEAU?$pair@PEADPEAVFS_Path@@@1@@Z ; std::_Tree<std::_Tmap_traits<char const * __ptr64,FS_Path * __ptr64,pred_str,xalloc<std::pair<char const * __ptr64,FS_Path * __ptr64> >,0> >::insert<std::pair<char * __ptr64,FS_Path * __ptr64> >
PUBLIC	??$xr_new@VFS_Path@@PEBDPEBDPEBDPEBDH@@YAPEAVFS_Path@@AEBQEBD000AEBH@Z ; xr_new<FS_Path,char const * __ptr64,char const * __ptr64,char const * __ptr64,char const * __ptr64,int>
PUBLIC	??Rpred_str@@QEBA_NPEBD0@Z			; pred_str::operator()
PUBLIC	??$_Kfn@QEBDPEAVFS_Path@@@?$_Tmap_traits@PEBDPEAVFS_Path@@Upred_str@@V?$xalloc@U?$pair@PEBDPEAVFS_Path@@@std@@@@$0A@@std@@SAAEBQEBDAEBU?$pair@QEBDPEAVFS_Path@@@1@@Z ; std::_Tmap_traits<char const * __ptr64,FS_Path * __ptr64,pred_str,xalloc<std::pair<char const * __ptr64,FS_Path * __ptr64> >,0>::_Kfn<char const * __ptr64 const,FS_Path * __ptr64>
PUBLIC	?_Key@?$_Tree_val@V?$_Tmap_traits@PEBDPEAVFS_Path@@Upred_str@@V?$xalloc@U?$pair@PEBDPEAVFS_Path@@@std@@@@$0A@@std@@@std@@SAAEAPEBDPEAU_Node@?$_Tree_nod@V?$_Tmap_traits@PEBDPEAVFS_Path@@Upred_str@@V?$xalloc@U?$pair@PEBDPEAVFS_Path@@@std@@@@$0A@@std@@@2@@Z ; std::_Tree_val<std::_Tmap_traits<char const * __ptr64,FS_Path * __ptr64,pred_str,xalloc<std::pair<char const * __ptr64,FS_Path * __ptr64> >,0> >::_Key
PUBLIC	?_Lbound@?$_Tree@V?$_Tmap_traits@PEBDPEAVFS_Path@@Upred_str@@V?$xalloc@U?$pair@PEBDPEAVFS_Path@@@std@@@@$0A@@std@@@std@@IEAAPEAU_Node@?$_Tree_nod@V?$_Tmap_traits@PEBDPEAVFS_Path@@Upred_str@@V?$xalloc@U?$pair@PEBDPEAVFS_Path@@@std@@@@$0A@@std@@@2@AEBQEBD@Z ; std::_Tree<std::_Tmap_traits<char const * __ptr64,FS_Path * __ptr64,pred_str,xalloc<std::pair<char const * __ptr64,FS_Path * __ptr64> >,0> >::_Lbound
PUBLIC	?lower_bound@?$_Tree@V?$_Tmap_traits@PEBDPEAVFS_Path@@Upred_str@@V?$xalloc@U?$pair@PEBDPEAVFS_Path@@@std@@@@$0A@@std@@@std@@QEAA?AV?$_Tree_iterator@V?$_Tree_val@V?$_Tmap_traits@PEBDPEAVFS_Path@@Upred_str@@V?$xalloc@U?$pair@PEBDPEAVFS_Path@@@std@@@@$0A@@std@@@std@@@2@AEBQEBD@Z ; std::_Tree<std::_Tmap_traits<char const * __ptr64,FS_Path * __ptr64,pred_str,xalloc<std::pair<char const * __ptr64,FS_Path * __ptr64> >,0> >::lower_bound
PUBLIC	?find@?$_Tree@V?$_Tmap_traits@PEBDPEAVFS_Path@@Upred_str@@V?$xalloc@U?$pair@PEBDPEAVFS_Path@@@std@@@@$0A@@std@@@std@@QEAA?AV?$_Tree_iterator@V?$_Tree_val@V?$_Tmap_traits@PEBDPEAVFS_Path@@Upred_str@@V?$xalloc@U?$pair@PEBDPEAVFS_Path@@@std@@@@$0A@@std@@@std@@@2@AEBQEBD@Z ; std::_Tree<std::_Tmap_traits<char const * __ptr64,FS_Path * __ptr64,pred_str,xalloc<std::pair<char const * __ptr64,FS_Path * __ptr64> >,0> >::find
PUBLIC	??Rfile_pred@CLocatorAPI@@QEBA_NAEBUfile@1@0@Z	; CLocatorAPI::file_pred::operator()
PUBLIC	?_Kfn@?$_Tset_traits@Ufile@CLocatorAPI@@Ufile_pred@2@V?$xalloc@Ufile@CLocatorAPI@@@@$0A@@std@@SAAEBUfile@CLocatorAPI@@AEBU34@@Z ; std::_Tset_traits<CLocatorAPI::file,CLocatorAPI::file_pred,xalloc<CLocatorAPI::file>,0>::_Kfn
PUBLIC	?_Key@?$_Tree_val@V?$_Tset_traits@Ufile@CLocatorAPI@@Ufile_pred@2@V?$xalloc@Ufile@CLocatorAPI@@@@$0A@@std@@@std@@SAAEAUfile@CLocatorAPI@@PEAU_Node@?$_Tree_nod@V?$_Tset_traits@Ufile@CLocatorAPI@@Ufile_pred@2@V?$xalloc@Ufile@CLocatorAPI@@@@$0A@@std@@@2@@Z ; std::_Tree_val<std::_Tset_traits<CLocatorAPI::file,CLocatorAPI::file_pred,xalloc<CLocatorAPI::file>,0> >::_Key
PUBLIC	?_Lbound@?$_Tree@V?$_Tset_traits@Ufile@CLocatorAPI@@Ufile_pred@2@V?$xalloc@Ufile@CLocatorAPI@@@@$0A@@std@@@std@@IEAAPEAU_Node@?$_Tree_nod@V?$_Tset_traits@Ufile@CLocatorAPI@@Ufile_pred@2@V?$xalloc@Ufile@CLocatorAPI@@@@$0A@@std@@@2@AEBUfile@CLocatorAPI@@@Z ; std::_Tree<std::_Tset_traits<CLocatorAPI::file,CLocatorAPI::file_pred,xalloc<CLocatorAPI::file>,0> >::_Lbound
PUBLIC	?lower_bound@?$_Tree@V?$_Tset_traits@Ufile@CLocatorAPI@@Ufile_pred@2@V?$xalloc@Ufile@CLocatorAPI@@@@$0A@@std@@@std@@QEAA?AV?$_Tree_const_iterator@V?$_Tree_val@V?$_Tset_traits@Ufile@CLocatorAPI@@Ufile_pred@2@V?$xalloc@Ufile@CLocatorAPI@@@@$0A@@std@@@std@@@2@AEBUfile@CLocatorAPI@@@Z ; std::_Tree<std::_Tset_traits<CLocatorAPI::file,CLocatorAPI::file_pred,xalloc<CLocatorAPI::file>,0> >::lower_bound
PUBLIC	??D?$_Tree_unchecked_const_iterator@V?$_Tree_val@V?$_Tset_traits@Ufile@CLocatorAPI@@Ufile_pred@2@V?$xalloc@Ufile@CLocatorAPI@@@@$0A@@std@@@std@@U_Iterator_base0@2@@std@@QEBAAEBUfile@CLocatorAPI@@XZ ; std::_Tree_unchecked_const_iterator<std::_Tree_val<std::_Tset_traits<CLocatorAPI::file,CLocatorAPI::file_pred,xalloc<CLocatorAPI::file>,0> >,std::_Iterator_base0>::operator*
PUBLIC	??C?$_Tree_unchecked_const_iterator@V?$_Tree_val@V?$_Tset_traits@Ufile@CLocatorAPI@@Ufile_pred@2@V?$xalloc@Ufile@CLocatorAPI@@@@$0A@@std@@@std@@U_Iterator_base0@2@@std@@QEBAPEBUfile@CLocatorAPI@@XZ ; std::_Tree_unchecked_const_iterator<std::_Tree_val<std::_Tset_traits<CLocatorAPI::file,CLocatorAPI::file_pred,xalloc<CLocatorAPI::file>,0> >,std::_Iterator_base0>::operator->
PUBLIC	??D?$_Tree_const_iterator@V?$_Tree_val@V?$_Tset_traits@Ufile@CLocatorAPI@@Ufile_pred@2@V?$xalloc@Ufile@CLocatorAPI@@@@$0A@@std@@@std@@@std@@QEBAAEBUfile@CLocatorAPI@@XZ ; std::_Tree_const_iterator<std::_Tree_val<std::_Tset_traits<CLocatorAPI::file,CLocatorAPI::file_pred,xalloc<CLocatorAPI::file>,0> > >::operator*
PUBLIC	?set@?$_flags@I@@QEAAAEAU1@IH@Z			; _flags<unsigned int>::set
PUBLIC	??D?$_Tree_const_iterator@V?$_Tree_val@V?$_Tmap_traits@PEBDPEAVFS_Path@@Upred_str@@V?$xalloc@U?$pair@PEBDPEAVFS_Path@@@std@@@@$0A@@std@@@std@@@std@@QEBAAEBU?$pair@QEBDPEAVFS_Path@@@1@XZ ; std::_Tree_const_iterator<std::_Tree_val<std::_Tmap_traits<char const * __ptr64,FS_Path * __ptr64,pred_str,xalloc<std::pair<char const * __ptr64,FS_Path * __ptr64> >,0> > >::operator*
PUBLIC	??D?$_Tree_iterator@V?$_Tree_val@V?$_Tmap_traits@PEBDPEAVFS_Path@@Upred_str@@V?$xalloc@U?$pair@PEBDPEAVFS_Path@@@std@@@@$0A@@std@@@std@@@std@@QEBAAEAU?$pair@QEBDPEAVFS_Path@@@1@XZ ; std::_Tree_iterator<std::_Tree_val<std::_Tmap_traits<char const * __ptr64,FS_Path * __ptr64,pred_str,xalloc<std::pair<char const * __ptr64,FS_Path * __ptr64> >,0> > >::operator*
PUBLIC	??C?$_Tree_iterator@V?$_Tree_val@V?$_Tmap_traits@PEBDPEAVFS_Path@@Upred_str@@V?$xalloc@U?$pair@PEBDPEAVFS_Path@@@std@@@@$0A@@std@@@std@@@std@@QEBAPEAU?$pair@QEBDPEAVFS_Path@@@1@XZ ; std::_Tree_iterator<std::_Tree_val<std::_Tmap_traits<char const * __ptr64,FS_Path * __ptr64,pred_str,xalloc<std::pair<char const * __ptr64,FS_Path * __ptr64> >,0> > >::operator->
PUBLIC	??E?$_Tree_iterator@V?$_Tree_val@V?$_Tmap_traits@PEBDPEAVFS_Path@@Upred_str@@V?$xalloc@U?$pair@PEBDPEAVFS_Path@@@std@@@@$0A@@std@@@std@@@std@@QEAAAEAV01@XZ ; std::_Tree_iterator<std::_Tree_val<std::_Tmap_traits<char const * __ptr64,FS_Path * __ptr64,pred_str,xalloc<std::pair<char const * __ptr64,FS_Path * __ptr64> >,0> > >::operator++
PUBLIC	??E?$_Tree_iterator@V?$_Tree_val@V?$_Tmap_traits@PEBDPEAVFS_Path@@Upred_str@@V?$xalloc@U?$pair@PEBDPEAVFS_Path@@@std@@@@$0A@@std@@@std@@@std@@QEAA?AV01@H@Z ; std::_Tree_iterator<std::_Tree_val<std::_Tmap_traits<char const * __ptr64,FS_Path * __ptr64,pred_str,xalloc<std::pair<char const * __ptr64,FS_Path * __ptr64> >,0> > >::operator++
PUBLIC	?is@?$_flags@I@@QEBAHI@Z			; _flags<unsigned int>::is
PUBLIC	??0?$xalloc@UFS_File@@@@QEAA@XZ			; xalloc<FS_File>::xalloc<FS_File>
PUBLIC	??0?$xalloc@UFS_File@@@@QEAA@AEBV0@@Z		; xalloc<FS_File>::xalloc<FS_File>
PUBLIC	??0?$_Tset_traits@UFS_File@@U?$less@UFS_File@@@std@@V?$xalloc@UFS_File@@@@$0A@@std@@QEAA@U?$less@UFS_File@@@1@@Z ; std::_Tset_traits<FS_File,std::less<FS_File>,xalloc<FS_File>,0>::_Tset_traits<FS_File,std::less<FS_File>,xalloc<FS_File>,0>
PUBLIC	??$?0UFS_File@@@?$xalloc@U_Node@?$_Tree_nod@V?$_Tset_traits@UFS_File@@U?$less@UFS_File@@@std@@V?$xalloc@UFS_File@@@@$0A@@std@@@std@@@@QEAA@AEBV?$xalloc@UFS_File@@@@@Z ; xalloc<std::_Tree_nod<std::_Tset_traits<FS_File,std::less<FS_File>,xalloc<FS_File>,0> >::_Node>::xalloc<std::_Tree_nod<std::_Tset_traits<FS_File,std::less<FS_File>,xalloc<FS_File>,0> >::_Node><FS_File>
PUBLIC	??0?$_Tree_nod@V?$_Tset_traits@UFS_File@@U?$less@UFS_File@@@std@@V?$xalloc@UFS_File@@@@$0A@@std@@@std@@QEAA@AEBU?$less@UFS_File@@@1@V?$xalloc@UFS_File@@@@@Z ; std::_Tree_nod<std::_Tset_traits<FS_File,std::less<FS_File>,xalloc<FS_File>,0> >::_Tree_nod<std::_Tset_traits<FS_File,std::less<FS_File>,xalloc<FS_File>,0> >
PUBLIC	??$xr_alloc@U_Node@?$_Tree_nod@V?$_Tset_traits@UFS_File@@U?$less@UFS_File@@@std@@V?$xalloc@UFS_File@@@@$0A@@std@@@std@@@@YAPEAU_Node@?$_Tree_nod@V?$_Tset_traits@UFS_File@@U?$less@UFS_File@@@std@@V?$xalloc@UFS_File@@@@$0A@@std@@@std@@I@Z ; xr_alloc<std::_Tree_nod<std::_Tset_traits<FS_File,std::less<FS_File>,xalloc<FS_File>,0> >::_Node>
PUBLIC	?allocate@?$xalloc@U_Node@?$_Tree_nod@V?$_Tset_traits@UFS_File@@U?$less@UFS_File@@@std@@V?$xalloc@UFS_File@@@@$0A@@std@@@std@@@@QEBAPEAU_Node@?$_Tree_nod@V?$_Tset_traits@UFS_File@@U?$less@UFS_File@@@std@@V?$xalloc@UFS_File@@@@$0A@@std@@@std@@_KPEBX@Z ; xalloc<std::_Tree_nod<std::_Tset_traits<FS_File,std::less<FS_File>,xalloc<FS_File>,0> >::_Node>::allocate
PUBLIC	??0?$_Tree_val@V?$_Tset_traits@UFS_File@@U?$less@UFS_File@@@std@@V?$xalloc@UFS_File@@@@$0A@@std@@@std@@QEAA@AEBU?$less@UFS_File@@@1@V?$xalloc@UFS_File@@@@@Z ; std::_Tree_val<std::_Tset_traits<FS_File,std::less<FS_File>,xalloc<FS_File>,0> >::_Tree_val<std::_Tset_traits<FS_File,std::less<FS_File>,xalloc<FS_File>,0> >
PUBLIC	??0?$_Tree@V?$_Tset_traits@UFS_File@@U?$less@UFS_File@@@std@@V?$xalloc@UFS_File@@@@$0A@@std@@@std@@QEAA@AEBU?$less@UFS_File@@@1@AEBV?$xalloc@UFS_File@@@@@Z ; std::_Tree<std::_Tset_traits<FS_File,std::less<FS_File>,xalloc<FS_File>,0> >::_Tree<std::_Tset_traits<FS_File,std::less<FS_File>,xalloc<FS_File>,0> >
PUBLIC	??0?$set@UFS_File@@U?$less@UFS_File@@@std@@V?$xalloc@UFS_File@@@@@std@@QEAA@XZ ; std::set<FS_File,std::less<FS_File>,xalloc<FS_File> >::set<FS_File,std::less<FS_File>,xalloc<FS_File> >
PUBLIC	??0?$xr_set@UFS_File@@U?$less@UFS_File@@@std@@V?$xalloc@UFS_File@@@@@@QEAA@XZ ; xr_set<FS_File,std::less<FS_File>,xalloc<FS_File> >::xr_set<FS_File,std::less<FS_File>,xalloc<FS_File> >
PUBLIC	??1?$_Tree_val@V?$_Tset_traits@UFS_File@@U?$less@UFS_File@@@std@@V?$xalloc@UFS_File@@@@$0A@@std@@@std@@QEAA@XZ ; std::_Tree_val<std::_Tset_traits<FS_File,std::less<FS_File>,xalloc<FS_File>,0> >::~_Tree_val<std::_Tset_traits<FS_File,std::less<FS_File>,xalloc<FS_File>,0> >
PUBLIC	?begin@?$_Tree@V?$_Tset_traits@UFS_File@@U?$less@UFS_File@@@std@@V?$xalloc@UFS_File@@@@$0A@@std@@@std@@QEAA?AV?$_Tree_const_iterator@V?$_Tree_val@V?$_Tset_traits@UFS_File@@U?$less@UFS_File@@@std@@V?$xalloc@UFS_File@@@@$0A@@std@@@std@@@2@XZ ; std::_Tree<std::_Tset_traits<FS_File,std::less<FS_File>,xalloc<FS_File>,0> >::begin
PUBLIC	?end@?$_Tree@V?$_Tset_traits@UFS_File@@U?$less@UFS_File@@@std@@V?$xalloc@UFS_File@@@@$0A@@std@@@std@@QEAA?AV?$_Tree_const_iterator@V?$_Tree_val@V?$_Tset_traits@UFS_File@@U?$less@UFS_File@@@std@@V?$xalloc@UFS_File@@@@$0A@@std@@@std@@@2@XZ ; std::_Tree<std::_Tset_traits<FS_File,std::less<FS_File>,xalloc<FS_File>,0> >::end
PUBLIC	?_Color@?$_Tree_val@V?$_Tset_traits@UFS_File@@U?$less@UFS_File@@@std@@V?$xalloc@UFS_File@@@@$0A@@std@@@std@@SAAEADPEAU_Node@?$_Tree_nod@V?$_Tset_traits@UFS_File@@U?$less@UFS_File@@@std@@V?$xalloc@UFS_File@@@@$0A@@std@@@2@@Z ; std::_Tree_val<std::_Tset_traits<FS_File,std::less<FS_File>,xalloc<FS_File>,0> >::_Color
PUBLIC	?_Max@?$_Tree_val@V?$_Tset_traits@UFS_File@@U?$less@UFS_File@@@std@@V?$xalloc@UFS_File@@@@$0A@@std@@@std@@SAPEAU_Node@?$_Tree_nod@V?$_Tset_traits@UFS_File@@U?$less@UFS_File@@@std@@V?$xalloc@UFS_File@@@@$0A@@std@@@2@PEAU342@@Z ; std::_Tree_val<std::_Tset_traits<FS_File,std::less<FS_File>,xalloc<FS_File>,0> >::_Max
PUBLIC	?_Lrotate@?$_Tree@V?$_Tset_traits@UFS_File@@U?$less@UFS_File@@@std@@V?$xalloc@UFS_File@@@@$0A@@std@@@std@@IEAAXPEAU_Node@?$_Tree_nod@V?$_Tset_traits@UFS_File@@U?$less@UFS_File@@@std@@V?$xalloc@UFS_File@@@@$0A@@std@@@2@@Z ; std::_Tree<std::_Tset_traits<FS_File,std::less<FS_File>,xalloc<FS_File>,0> >::_Lrotate
PUBLIC	?_Rrotate@?$_Tree@V?$_Tset_traits@UFS_File@@U?$less@UFS_File@@@std@@V?$xalloc@UFS_File@@@@$0A@@std@@@std@@IEAAXPEAU_Node@?$_Tree_nod@V?$_Tset_traits@UFS_File@@U?$less@UFS_File@@@std@@V?$xalloc@UFS_File@@@@$0A@@std@@@2@@Z ; std::_Tree<std::_Tset_traits<FS_File,std::less<FS_File>,xalloc<FS_File>,0> >::_Rrotate
PUBLIC	?_Mynode@?$_Tree_unchecked_const_iterator@V?$_Tree_val@V?$_Tset_traits@UFS_File@@U?$less@UFS_File@@@std@@V?$xalloc@UFS_File@@@@$0A@@std@@@std@@U_Iterator_base0@2@@std@@QEBAPEAU_Node@?$_Tree_nod@V?$_Tset_traits@UFS_File@@U?$less@UFS_File@@@std@@V?$xalloc@UFS_File@@@@$0A@@std@@@2@XZ ; std::_Tree_unchecked_const_iterator<std::_Tree_val<std::_Tset_traits<FS_File,std::less<FS_File>,xalloc<FS_File>,0> >,std::_Iterator_base0>::_Mynode
PUBLIC	?erase@?$_Tree@V?$_Tset_traits@UFS_File@@U?$less@UFS_File@@@std@@V?$xalloc@UFS_File@@@@$0A@@std@@@std@@QEAA?AV?$_Tree_const_iterator@V?$_Tree_val@V?$_Tset_traits@UFS_File@@U?$less@UFS_File@@@std@@V?$xalloc@UFS_File@@@@$0A@@std@@@std@@@2@V32@@Z ; std::_Tree<std::_Tset_traits<FS_File,std::less<FS_File>,xalloc<FS_File>,0> >::erase
PUBLIC	??$xr_free@U_Node@?$_Tree_nod@V?$_Tset_traits@UFS_File@@U?$less@UFS_File@@@std@@V?$xalloc@UFS_File@@@@$0A@@std@@@std@@@@YAXAEAPEAU_Node@?$_Tree_nod@V?$_Tset_traits@UFS_File@@U?$less@UFS_File@@@std@@V?$xalloc@UFS_File@@@@$0A@@std@@@std@@@Z ; xr_free<std::_Tree_nod<std::_Tset_traits<FS_File,std::less<FS_File>,xalloc<FS_File>,0> >::_Node>
PUBLIC	?deallocate@?$xalloc@U_Node@?$_Tree_nod@V?$_Tset_traits@UFS_File@@U?$less@UFS_File@@@std@@V?$xalloc@UFS_File@@@@$0A@@std@@@std@@@@QEBAXPEAU_Node@?$_Tree_nod@V?$_Tset_traits@UFS_File@@U?$less@UFS_File@@@std@@V?$xalloc@UFS_File@@@@$0A@@std@@@std@@_K@Z ; xalloc<std::_Tree_nod<std::_Tset_traits<FS_File,std::less<FS_File>,xalloc<FS_File>,0> >::_Node>::deallocate
PUBLIC	??$addressof@UFS_File@@@std@@YAPEAUFS_File@@AEAU1@@Z ; std::addressof<FS_File>
PUBLIC	??_GFS_File@@QEAAPEAXI@Z			; FS_File::`scalar deleting destructor'
PUBLIC	??$_Destroy@UFS_File@@@std@@YAXPEAUFS_File@@@Z	; std::_Destroy<FS_File>
PUBLIC	?destroy@?$xalloc@UFS_File@@@@QEAAXPEAUFS_File@@@Z ; xalloc<FS_File>::destroy
PUBLIC	??$_Dest_val@V?$xalloc@UFS_File@@@@UFS_File@@@std@@YAXAEAV?$xalloc@UFS_File@@@@PEAUFS_File@@@Z ; std::_Dest_val<xalloc<FS_File>,FS_File>
PUBLIC	?_Erase@?$_Tree@V?$_Tset_traits@UFS_File@@U?$less@UFS_File@@@std@@V?$xalloc@UFS_File@@@@$0A@@std@@@std@@IEAAXPEAU_Node@?$_Tree_nod@V?$_Tset_traits@UFS_File@@U?$less@UFS_File@@@std@@V?$xalloc@UFS_File@@@@$0A@@std@@@2@@Z ; std::_Tree<std::_Tset_traits<FS_File,std::less<FS_File>,xalloc<FS_File>,0> >::_Erase
PUBLIC	?_Lmost@?$_Tree@V?$_Tset_traits@UFS_File@@U?$less@UFS_File@@@std@@V?$xalloc@UFS_File@@@@$0A@@std@@@std@@IEBAAEAPEAU_Node@?$_Tree_nod@V?$_Tset_traits@UFS_File@@U?$less@UFS_File@@@std@@V?$xalloc@UFS_File@@@@$0A@@std@@@2@XZ ; std::_Tree<std::_Tset_traits<FS_File,std::less<FS_File>,xalloc<FS_File>,0> >::_Lmost
PUBLIC	?_Rmost@?$_Tree@V?$_Tset_traits@UFS_File@@U?$less@UFS_File@@@std@@V?$xalloc@UFS_File@@@@$0A@@std@@@std@@IEBAAEAPEAU_Node@?$_Tree_nod@V?$_Tset_traits@UFS_File@@U?$less@UFS_File@@@std@@V?$xalloc@UFS_File@@@@$0A@@std@@@2@XZ ; std::_Tree<std::_Tset_traits<FS_File,std::less<FS_File>,xalloc<FS_File>,0> >::_Rmost
PUBLIC	?_Root@?$_Tree@V?$_Tset_traits@UFS_File@@U?$less@UFS_File@@@std@@V?$xalloc@UFS_File@@@@$0A@@std@@@std@@IEBAAEAPEAU_Node@?$_Tree_nod@V?$_Tset_traits@UFS_File@@U?$less@UFS_File@@@std@@V?$xalloc@UFS_File@@@@$0A@@std@@@2@XZ ; std::_Tree<std::_Tset_traits<FS_File,std::less<FS_File>,xalloc<FS_File>,0> >::_Root
PUBLIC	?clear@?$_Tree@V?$_Tset_traits@UFS_File@@U?$less@UFS_File@@@std@@V?$xalloc@UFS_File@@@@$0A@@std@@@std@@QEAAXXZ ; std::_Tree<std::_Tset_traits<FS_File,std::less<FS_File>,xalloc<FS_File>,0> >::clear
PUBLIC	??0?$_Tree_unchecked_const_iterator@V?$_Tree_val@V?$_Tset_traits@UFS_File@@U?$less@UFS_File@@@std@@V?$xalloc@UFS_File@@@@$0A@@std@@@std@@U_Iterator_base0@2@@std@@QEAA@PEAU_Node@?$_Tree_nod@V?$_Tset_traits@UFS_File@@U?$less@UFS_File@@@std@@V?$xalloc@UFS_File@@@@$0A@@std@@@1@PEBV?$_Tree_val@V?$_Tset_traits@UFS_File@@U?$less@UFS_File@@@std@@V?$xalloc@UFS_File@@@@$0A@@std@@@1@@Z ; std::_Tree_unchecked_const_iterator<std::_Tree_val<std::_Tset_traits<FS_File,std::less<FS_File>,xalloc<FS_File>,0> >,std::_Iterator_base0>::_Tree_unchecked_const_iterator<std::_Tree_val<std::_Tset_traits<FS_File,std::less<FS_File>,xalloc<FS_File>,0> >,std::_Iterator_base0>
PUBLIC	??0?$_Tree_const_iterator@V?$_Tree_val@V?$_Tset_traits@UFS_File@@U?$less@UFS_File@@@std@@V?$xalloc@UFS_File@@@@$0A@@std@@@std@@@std@@QEAA@PEAU_Node@?$_Tree_nod@V?$_Tset_traits@UFS_File@@U?$less@UFS_File@@@std@@V?$xalloc@UFS_File@@@@$0A@@std@@@1@PEBV?$_Tree_val@V?$_Tset_traits@UFS_File@@U?$less@UFS_File@@@std@@V?$xalloc@UFS_File@@@@$0A@@std@@@1@@Z ; std::_Tree_const_iterator<std::_Tree_val<std::_Tset_traits<FS_File,std::less<FS_File>,xalloc<FS_File>,0> > >::_Tree_const_iterator<std::_Tree_val<std::_Tset_traits<FS_File,std::less<FS_File>,xalloc<FS_File>,0> > >
PUBLIC	??E?$_Tree_const_iterator@V?$_Tree_val@V?$_Tset_traits@UFS_File@@U?$less@UFS_File@@@std@@V?$xalloc@UFS_File@@@@$0A@@std@@@std@@@std@@QEAA?AV01@H@Z ; std::_Tree_const_iterator<std::_Tree_val<std::_Tset_traits<FS_File,std::less<FS_File>,xalloc<FS_File>,0> > >::operator++
PUBLIC	?erase@?$_Tree@V?$_Tset_traits@UFS_File@@U?$less@UFS_File@@@std@@V?$xalloc@UFS_File@@@@$0A@@std@@@std@@QEAA?AV?$_Tree_const_iterator@V?$_Tree_val@V?$_Tset_traits@UFS_File@@U?$less@UFS_File@@@std@@V?$xalloc@UFS_File@@@@$0A@@std@@@std@@@2@V32@0@Z ; std::_Tree<std::_Tset_traits<FS_File,std::less<FS_File>,xalloc<FS_File>,0> >::erase
PUBLIC	?_Tidy@?$_Tree@V?$_Tset_traits@UFS_File@@U?$less@UFS_File@@@std@@V?$xalloc@UFS_File@@@@$0A@@std@@@std@@IEAAXXZ ; std::_Tree<std::_Tset_traits<FS_File,std::less<FS_File>,xalloc<FS_File>,0> >::_Tidy
PUBLIC	??1?$_Tree@V?$_Tset_traits@UFS_File@@U?$less@UFS_File@@@std@@V?$xalloc@UFS_File@@@@$0A@@std@@@std@@QEAA@XZ ; std::_Tree<std::_Tset_traits<FS_File,std::less<FS_File>,xalloc<FS_File>,0> >::~_Tree<std::_Tset_traits<FS_File,std::less<FS_File>,xalloc<FS_File>,0> >
PUBLIC	??1?$set@UFS_File@@U?$less@UFS_File@@@std@@V?$xalloc@UFS_File@@@@@std@@QEAA@XZ ; std::set<FS_File,std::less<FS_File>,xalloc<FS_File> >::~set<FS_File,std::less<FS_File>,xalloc<FS_File> >
PUBLIC	??1?$xr_set@UFS_File@@U?$less@UFS_File@@@std@@V?$xalloc@UFS_File@@@@@@QEAA@XZ ; xr_set<FS_File,std::less<FS_File>,xalloc<FS_File> >::~xr_set<FS_File,std::less<FS_File>,xalloc<FS_File> >
PUBLIC	?_Myval@?$_Tree_val@V?$_Tset_traits@UFS_File@@U?$less@UFS_File@@@std@@V?$xalloc@UFS_File@@@@$0A@@std@@@std@@SAAEAUFS_File@@PEAU_Node@?$_Tree_nod@V?$_Tset_traits@UFS_File@@U?$less@UFS_File@@@std@@V?$xalloc@UFS_File@@@@$0A@@std@@@2@@Z ; std::_Tree_val<std::_Tset_traits<FS_File,std::less<FS_File>,xalloc<FS_File>,0> >::_Myval
PUBLIC	??D?$_Tree_const_iterator@V?$_Tree_val@V?$_Tset_traits@UFS_File@@U?$less@UFS_File@@@std@@V?$xalloc@UFS_File@@@@$0A@@std@@@std@@@std@@QEBAAEBUFS_File@@XZ ; std::_Tree_const_iterator<std::_Tree_val<std::_Tset_traits<FS_File,std::less<FS_File>,xalloc<FS_File>,0> > >::operator*
PUBLIC	?_Parent@?$_Tree_val@V?$_Tset_traits@UFS_File@@U?$less@UFS_File@@@std@@V?$xalloc@UFS_File@@@@$0A@@std@@@std@@SAAEAPEAU_Node@?$_Tree_nod@V?$_Tset_traits@UFS_File@@U?$less@UFS_File@@@std@@V?$xalloc@UFS_File@@@@$0A@@std@@@2@PEAU342@@Z ; std::_Tree_val<std::_Tset_traits<FS_File,std::less<FS_File>,xalloc<FS_File>,0> >::_Parent
PUBLIC	?_Right@?$_Tree_val@V?$_Tset_traits@UFS_File@@U?$less@UFS_File@@@std@@V?$xalloc@UFS_File@@@@$0A@@std@@@std@@SAAEAPEAU_Node@?$_Tree_nod@V?$_Tset_traits@UFS_File@@U?$less@UFS_File@@@std@@V?$xalloc@UFS_File@@@@$0A@@std@@@2@PEAU342@@Z ; std::_Tree_val<std::_Tset_traits<FS_File,std::less<FS_File>,xalloc<FS_File>,0> >::_Right
PUBLIC	?_Isnil@?$_Tree_val@V?$_Tset_traits@UFS_File@@U?$less@UFS_File@@@std@@V?$xalloc@UFS_File@@@@$0A@@std@@@std@@SAAEADPEAU_Node@?$_Tree_nod@V?$_Tset_traits@UFS_File@@U?$less@UFS_File@@@std@@V?$xalloc@UFS_File@@@@$0A@@std@@@2@@Z ; std::_Tree_val<std::_Tset_traits<FS_File,std::less<FS_File>,xalloc<FS_File>,0> >::_Isnil
PUBLIC	?_Left@?$_Tree_val@V?$_Tset_traits@UFS_File@@U?$less@UFS_File@@@std@@V?$xalloc@UFS_File@@@@$0A@@std@@@std@@SAAEAPEAU_Node@?$_Tree_nod@V?$_Tset_traits@UFS_File@@U?$less@UFS_File@@@std@@V?$xalloc@UFS_File@@@@$0A@@std@@@2@PEAU342@@Z ; std::_Tree_val<std::_Tset_traits<FS_File,std::less<FS_File>,xalloc<FS_File>,0> >::_Left
PUBLIC	?_Min@?$_Tree_val@V?$_Tset_traits@UFS_File@@U?$less@UFS_File@@@std@@V?$xalloc@UFS_File@@@@$0A@@std@@@std@@SAPEAU_Node@?$_Tree_nod@V?$_Tset_traits@UFS_File@@U?$less@UFS_File@@@std@@V?$xalloc@UFS_File@@@@$0A@@std@@@2@PEAU342@@Z ; std::_Tree_val<std::_Tset_traits<FS_File,std::less<FS_File>,xalloc<FS_File>,0> >::_Min
PUBLIC	??E?$_Tree_unchecked_const_iterator@V?$_Tree_val@V?$_Tset_traits@UFS_File@@U?$less@UFS_File@@@std@@V?$xalloc@UFS_File@@@@$0A@@std@@@std@@U_Iterator_base0@2@@std@@QEAAAEAV01@XZ ; std::_Tree_unchecked_const_iterator<std::_Tree_val<std::_Tset_traits<FS_File,std::less<FS_File>,xalloc<FS_File>,0> >,std::_Iterator_base0>::operator++
PUBLIC	??E?$_Tree_const_iterator@V?$_Tree_val@V?$_Tset_traits@UFS_File@@U?$less@UFS_File@@@std@@V?$xalloc@UFS_File@@@@$0A@@std@@@std@@@std@@QEAAAEAV01@XZ ; std::_Tree_const_iterator<std::_Tree_val<std::_Tset_traits<FS_File,std::less<FS_File>,xalloc<FS_File>,0> > >::operator++
PUBLIC	??8?$_Tree_const_iterator@V?$_Tree_val@V?$_Tset_traits@UFS_File@@U?$less@UFS_File@@@std@@V?$xalloc@UFS_File@@@@$0A@@std@@@std@@@std@@QEBA_NAEBV01@@Z ; std::_Tree_const_iterator<std::_Tree_val<std::_Tset_traits<FS_File,std::less<FS_File>,xalloc<FS_File>,0> > >::operator==
PUBLIC	??9?$_Tree_const_iterator@V?$_Tree_val@V?$_Tset_traits@UFS_File@@U?$less@UFS_File@@@std@@V?$xalloc@UFS_File@@@@$0A@@std@@@std@@@std@@QEBA_NAEBV01@@Z ; std::_Tree_const_iterator<std::_Tree_val<std::_Tset_traits<FS_File,std::less<FS_File>,xalloc<FS_File>,0> > >::operator!=
PUBLIC	??0?$xalloc@U_open_file@@@@QEAA@XZ		; xalloc<_open_file>::xalloc<_open_file>
PUBLIC	??0?$xalloc@U_open_file@@@@QEAA@AEBV0@@Z	; xalloc<_open_file>::xalloc<_open_file>
PUBLIC	??0?$_Vector_val@U_open_file@@V?$xalloc@U_open_file@@@@@std@@QEAA@V?$xalloc@U_open_file@@@@@Z ; std::_Vector_val<_open_file,xalloc<_open_file> >::_Vector_val<_open_file,xalloc<_open_file> >
PUBLIC	??0?$vector@U_open_file@@V?$xalloc@U_open_file@@@@@std@@QEAA@XZ ; std::vector<_open_file,xalloc<_open_file> >::vector<_open_file,xalloc<_open_file> >
PUBLIC	??0?$xr_vector@U_open_file@@V?$xalloc@U_open_file@@@@@@QEAA@XZ ; xr_vector<_open_file,xalloc<_open_file> >::xr_vector<_open_file,xalloc<_open_file> >
PUBLIC	??1?$_Vector_val@U_open_file@@V?$xalloc@U_open_file@@@@@std@@QEAA@XZ ; std::_Vector_val<_open_file,xalloc<_open_file> >::~_Vector_val<_open_file,xalloc<_open_file> >
PUBLIC	??$xr_free@U_open_file@@@@YAXAEAPEAU_open_file@@@Z ; xr_free<_open_file>
PUBLIC	?deallocate@?$xalloc@U_open_file@@@@QEBAXPEAU_open_file@@_K@Z ; xalloc<_open_file>::deallocate
PUBLIC	??$_Ptr_cat@U_open_file@@U1@@std@@YA?AU_Nonscalar_ptr_iterator_tag@0@PEAU_open_file@@0@Z ; std::_Ptr_cat<_open_file,_open_file>
PUBLIC	??1_open_file@@QEAA@XZ				; _open_file::~_open_file
PUBLIC	??_G_open_file@@QEAAPEAXI@Z			; _open_file::`scalar deleting destructor'
PUBLIC	??$_Destroy@U_open_file@@@std@@YAXPEAU_open_file@@@Z ; std::_Destroy<_open_file>
PUBLIC	?destroy@?$xalloc@U_open_file@@@@QEAAXPEAU_open_file@@@Z ; xalloc<_open_file>::destroy
PUBLIC	??$_Dest_val@V?$xalloc@U_open_file@@@@U_open_file@@@std@@YAXAEAV?$xalloc@U_open_file@@@@PEAU_open_file@@@Z ; std::_Dest_val<xalloc<_open_file>,_open_file>
PUBLIC	??$_Destroy_range@V?$xalloc@U_open_file@@@@@std@@YAXPEAU_open_file@@0AEAV?$xalloc@U_open_file@@@@U_Nonscalar_ptr_iterator_tag@0@@Z ; std::_Destroy_range<xalloc<_open_file> >
PUBLIC	??$_Destroy_range@V?$xalloc@U_open_file@@@@@std@@YAXPEAU_open_file@@0AEAV?$xalloc@U_open_file@@@@@Z ; std::_Destroy_range<xalloc<_open_file> >
PUBLIC	?_Destroy@?$vector@U_open_file@@V?$xalloc@U_open_file@@@@@std@@IEAAXPEAU_open_file@@0@Z ; std::vector<_open_file,xalloc<_open_file> >::_Destroy
PUBLIC	?_Tidy@?$vector@U_open_file@@V?$xalloc@U_open_file@@@@@std@@IEAAXXZ ; std::vector<_open_file,xalloc<_open_file> >::_Tidy
PUBLIC	??1?$vector@U_open_file@@V?$xalloc@U_open_file@@@@@std@@QEAA@XZ ; std::vector<_open_file,xalloc<_open_file> >::~vector<_open_file,xalloc<_open_file> >
PUBLIC	??1?$xr_vector@U_open_file@@V?$xalloc@U_open_file@@@@@@QEAA@XZ ; xr_vector<_open_file,xalloc<_open_file> >::~xr_vector<_open_file,xalloc<_open_file> >
PUBLIC	?ignore_always@?3???0CFileWriter@@QEAA@PEBD_N@Z@4_NA ; `CFileWriter::CFileWriter'::`4'::ignore_always
PUBLIC	??_C@_0BJ@LHOADAED@CFileWriter?3?3CFileWriter?$AA@ ; `string'
PUBLIC	??_C@_0EH@KGMJBNNA@c?3?2users?2nummer?2documents?2github@ ; `string'
PUBLIC	??_C@_0BA@FFHJPHKB@name?5?$CG?$CG?5name?$FL0?$FN?$AA@ ; `string'
PUBLIC	??_C@_02GMLFBBN@wb?$AA@				; `string'
PUBLIC	??_C@_0CG@NLEAPLKA@?$CBCan?8t?5write?5file?3?5?8?$CFs?8?4?5Error?3?5@ ; `string'
PUBLIC	?ignore_always@?8??w@CFileWriter@@UEAAXPEBXI@Z@4_NA ; `CFileWriter::w'::`9'::ignore_always
PUBLIC	??_C@_0P@JAENBJCA@CFileWriter?3?3w?$AA@		; `string'
PUBLIC	??_C@_0DA@NHFCHCFA@Can?8t?5write?5mem?5block?5to?5file?4?5D@ ; `string'
PUBLIC	??_C@_04FLEBEKDE@W?$DN?$DN1?$AA@		; `string'
PUBLIC	?ignore_always@?BA@??w@CFileWriter@@UEAAXPEBXI@Z@4_NA ; `CFileWriter::w'::`16'::ignore_always
PUBLIC	?g_temporary_stuff@@3P6AXPEBXAEBIPEAX@ZEA	; g_temporary_stuff
PUBLIC	?xr_FS@@3PEAVCLocatorAPI@@EA			; xr_FS
PUBLIC	??_C@_0BL@GBLFJGAI@file?5opened?5at?5least?5twice?$AA@ ; `string'
PUBLIC	??_C@_0BB@FNAKDLB@?9?9?9?9opened?5files?$AA@	; `string'
PUBLIC	??_C@_0O@LIGGBFJO@?$FL?$CFd?$FN?5fname?3?$CFs?$AA@ ; `string'
PUBLIC	??_C@_0M@FJPLFMD@?9?9?9?9un?9used?$AA@		; `string'
PUBLIC	??_C@_0BB@JJHONFGH@?9?9?9?9total?5count?$DN?$AA@ ; `string'
PUBLIC	??_C@_0BG@JLICPDMD@CLocatorAPI?3?3Register?$AA@	; `string'
PUBLIC	??_C@_0P@PPOLODI@LocatorAPI?4cpp?$AA@		; `string'
PUBLIC	??_C@_09HKEHFMHK@gamedata?2?$AA@		; `string'
PUBLIC	??_C@_04MIEGGADE@bin?2?$AA@			; `string'
PUBLIC	??_C@_0CN@NGDDEKL@CLocatorAPI?3?3ProcessArchive?5igno@ ; `string'
PUBLIC	??_C@_04PBLCHLCN@?4xdb?$AA@			; `string'
PUBLIC	??_C@_0BM@BHDJLKGA@CLocatorAPI?3?3ProcessArchive?$AA@ ; `string'
PUBLIC	??_C@_0CB@PNMNGNKI@A?4hSrcFile?$CB?$DNINVALID_HANDLE_VALUE@ ; `string'
PUBLIC	??_C@_0CA@PFGHMBNJ@A?4hSrcMap?$CB?$DNINVALID_HANDLE_VALUE?$AA@ ; `string'
PUBLIC	??_C@_08IALBBJGD@A?4size?$DO0?$AA@		; `string'
PUBLIC	??_C@_0CI@HEMFFOJF@CLocatorAPI?3?3ProcessArchive?0?5pat@ ; `string'
PUBLIC	??_C@_03HCPOIHIH@hdr?$AA@			; `string'
PUBLIC	??_C@_01LFCBOECM@?4?$AA@			; `string'
PUBLIC	??_C@_02DJGKEECL@?4?4?$AA@			; `string'
PUBLIC	??_C@_03IGEDJCDH@?4db?$AA@			; `string'
PUBLIC	??_C@_03EMIMMIHL@?$CK?4?$CK?$AA@		; `string'
PUBLIC	??_C@_0BM@MNMEOPGN@Initializing?5File?5System?4?4?4?$AA@ ; `string'
PUBLIC	??_C@_0L@IJKLJMDK@$app_root$?$AA@		; `string'
PUBLIC	??_C@_09BOCFEJAJ@$fs_root$?$AA@			; `string'
PUBLIC	??_C@_0L@BMGDDJNL@fsgame?4ltx?$AA@		; `string'
PUBLIC	??_C@_0N@LICIKBGH@using?5fs?9ltx?$AA@		; `string'
PUBLIC	??_C@_0BA@GKILFOIC@$target_folder$?$AA@		; `string'
PUBLIC	??_C@_0DC@IAAFPNKM@Cannot?5open?5file?5?$CC?$CFs?$CC?4?6Check?5you@ ; `string'
PUBLIC	??_C@_0N@IKDMHBKA@$build_copy$?$AA@		; `string'
PUBLIC	??_C@_0BJ@IICBJFBM@CLocatorAPI?3?3_initialize?$AA@ ; `string'
PUBLIC	??_C@_06COENMCLN@cnt?$DO?$DN3?$AA@		; `string'
PUBLIC	??_C@_0HK@KEJFMLNK@The?5file?5?8fsgame?4ltx?8?5is?5corrupt@ ; `string'
PUBLIC	??_C@_0BA@BDJNLMJI@$app_data_root$?$AA@		; `string'
PUBLIC	??_C@_0BO@NBFPPDBD@path_exist?$CI?$CC$app_data_root$?$CC?$CJ?$AA@ ; `string'
PUBLIC	??_C@_0CH@EFGFIDMB@FS?3?5?$CFd?5files?5cached?0?5?$CFdKb?5memory@ ; `string'
PUBLIC	??_C@_0BH@EOPBPCDD@Init?5FileSystem?5?$CFf?5sec?$AA@ ; `string'
PUBLIC	??_C@_0N@KDCPCCHO@?9overlaypath?$AA@		; `string'
PUBLIC	??_C@_0O@CCJKFHLL@?9overlaypath?5?$AA@		; `string'
PUBLIC	??_C@_06DMJLOKKG@$logs$?$AA@			; `string'
PUBLIC	??_C@_06PNKCMPKN@?9nolog?$AA@			; `string'
PUBLIC	??_C@_0BM@BCLCKGPF@CLocatorAPI?3?3file_list_open?$AA@ ; `string'
PUBLIC	??_C@_0BE@HAMBABC@initial?$CG?$CGinitial?$FL0?$FN?$AA@ ; `string'
PUBLIC	??_C@_05DHHBLFPE@_path?$AA@			; `string'
PUBLIC	??_C@_0BH@DPKJMGPO@CLocatorAPI?3?3file_list?$AA@ ; `string'
PUBLIC	??_C@_04LNEJFJGI@path?$AA@			; `string'
PUBLIC	??_C@_0O@KBJLCFDF@$server_root$?$AA@		; `string'
PUBLIC	??_C@_07BODPMKB@$cache$?$AA@			; `string'
PUBLIC	??_C@_0CA@FFGNCPBA@copy?3?5db?$FL?$CFX?$FN?0cache?$FL?$CFX?$FN?5?9?5?8?$CFs?8?0?5?$AA@ ; `string'
PUBLIC	??_C@_05CCMOGDN@?$CFs?3?$CFs?$AA@		; `string'
PUBLIC	??_C@_0BP@IDGLINDD@CLocatorAPI?3?3file_from_archive?$AA@ ; `string'
PUBLIC	??_C@_0FG@DIPPMNGC@cannot?5use?5stream?5reading?5for?5co@ ; `string'
PUBLIC	??_C@_0CH@CDLHGCED@desc?4size_compressed?5?$DN?$DN?5desc?4siz@ ; `string'
PUBLIC	??_C@_0FD@KPOEGFCM@?$CBWARNING?3?5CLocatorAPI?3?3check_for@ ; `string'
PUBLIC	??_C@_0BF@KJEOMGDK@CLocatorAPI?3?3w_close?$AA@	; `string'
PUBLIC	??_C@_0BA@OBKFGFII@S?9?$DOfName?4size?$CI?$CJ?$AA@ ; `string'
PUBLIC	??_C@_0BG@PGJPPKFM@CLocatorAPI?3?3get_path?$AA@	; `string'
PUBLIC	??_C@_0BA@GAAJDLDK@P?$CB?$DNpathes?4end?$CI?$CJ?$AA@ ; `string'
PUBLIC	??_C@_0CH@NLNALLCJ@?$CBCan?8t?5set?5file?5age?3?5?8?$CFs?8?4?5Error@ ; `string'
PUBLIC	??_C@_0BB@BCMNINKJ@$?$CB?$CD?$CFTEMP?$CF?$CD?$CB$?4$$$?$AA@ ; `string'
PUBLIC	??_C@_03HMFOOINA@r?$CLb?$AA@			; `string'
PUBLIC	??_C@_06GNCGDKCJ@?$CK?4xdb?$CK?$AA@		; `string'
PUBLIC	??_C@_09PAAEAGIP@$mod_dir$?$AA@			; `string'
PUBLIC	??_C@_0BJ@JOCMNJMM@?9?9found?5external?5arch?5?$CFs?$AA@ ; `string'
PUBLIC	??_C@_08EPNLMPFE@gamedata?$AA@			; `string'
PUBLIC	?ignore_always@?6??r_chunk_safe@?$IReaderBase@VCStreamReader@@@@QEAAHIPEAXI@Z@4_NA ; `IReaderBase<CStreamReader>::r_chunk_safe'::`7'::ignore_always
PUBLIC	??_C@_0CP@DPCNIGNH@IReaderBase?$DMclass?5CStreamReader?$DO@ ; `string'
PUBLIC	??_7CStreamReader@@6B@				; CStreamReader::`vftable'
PUBLIC	??_7CFileWriter@@6B@				; CFileWriter::`vftable'
PUBLIC	??_7?$IReaderBase@VCStreamReader@@@@6B@		; IReaderBase<CStreamReader>::`vftable'
PUBLIC	??_7CFileStreamReader@@6B@			; CFileStreamReader::`vftable'
PUBLIC	??_R0?AVexception@std@@@8			; std::exception `RTTI Type Descriptor'
PUBLIC	_CT??_R0?AVexception@std@@@8??0exception@std@@QEAA@AEBV01@@Z24
PUBLIC	?npos@?$basic_string@DU?$char_traits@D@std@@V?$allocator@D@2@@std@@2_KB ; std::basic_string<char,std::char_traits<char>,std::allocator<char> >::npos
PUBLIC	??_R0?AVbad_alloc@std@@@8			; std::bad_alloc `RTTI Type Descriptor'
PUBLIC	_CT??_R0?AVbad_alloc@std@@@8??0bad_alloc@std@@QEAA@AEBV01@@Z24
PUBLIC	_CTA2?AVbad_alloc@std@@
PUBLIC	_TI2?AVbad_alloc@std@@
PUBLIC	??_7bad_alloc@std@@6B@				; std::bad_alloc::`vftable'
EXTRN	?what@exception@std@@UEBAPEBDXZ:PROC		; std::exception::what
EXTRN	??0exception@std@@QEAA@AEBV01@@Z:PROC		; std::exception::exception
EXTRN	__imp_GetSystemInfo:PROC
EXTRN	__imp_ReadFile:PROC
EXTRN	__imp_SetFilePointer:PROC
EXTRN	__imp__findclose:PROC
EXTRN	__imp__findfirst64i32:PROC
EXTRN	__imp__findnext64i32:PROC
EXTRN	??_ECFileStreamReader@@UEAAPEAXI@Z:PROC		; CFileStreamReader::`vector deleting destructor'
EXTRN	__imp_??0exception@std@@QEAA@AEBQEBD@Z:PROC
EXTRN	__imp_??0exception@std@@QEAA@AEBV01@@Z:PROC
EXTRN	__imp_?what@exception@std@@UEBAPEBDXZ:PROC
EXTRN	__imp_??1exception@std@@UEAA@XZ:PROC
EXTRN	??_Ebad_alloc@std@@UEAAPEAXI@Z:PROC		; std::bad_alloc::`vector deleting destructor'
EXTRN	__imp__fdopen:PROC
EXTRN	__imp_?_sopen@@YAHPEBDHHH@Z:PROC
EXTRN	__imp_fwrite:PROC
EXTRN	__imp_fseek:PROC
EXTRN	__imp_ftell:PROC
EXTRN	__imp_fflush:PROC
EXTRN	__imp_SetFileAttributesA:PROC
EXTRN	__imp_GetFileAttributesA:PROC
EXTRN	??_ECFileWriter@@UEAAPEAXI@Z:PROC		; CFileWriter::`vector deleting destructor'
EXTRN	__imp__stat64i32:PROC
EXTRN	__imp__rmdir:PROC
EXTRN	__imp_rename:PROC
EXTRN	__imp__errno:PROC
EXTRN	__imp___sys_errlist:PROC
EXTRN	__imp__utime64:PROC
EXTRN	__imp_unlink:PROC
EXTRN	__imp_fclose:PROC
EXTRN	__imp_fopen:PROC
;	COMDAT ?ignore_always@?3???0CFileWriter@@QEAA@PEBD_N@Z@4_NA
_BSS	SEGMENT
?ignore_always@?3???0CFileWriter@@QEAA@PEBD_N@Z@4_NA DB 01H DUP (?) ; `CFileWriter::CFileWriter'::`4'::ignore_always
_BSS	ENDS
;	COMDAT ?ignore_always@?8??w@CFileWriter@@UEAAXPEBXI@Z@4_NA
_BSS	SEGMENT
?ignore_always@?8??w@CFileWriter@@UEAAXPEBXI@Z@4_NA DB 01H DUP (?) ; `CFileWriter::w'::`9'::ignore_always
_BSS	ENDS
;	COMDAT ?ignore_always@?BA@??w@CFileWriter@@UEAAXPEBXI@Z@4_NA
_BSS	SEGMENT
?ignore_always@?BA@??w@CFileWriter@@UEAAXPEBXI@Z@4_NA DB 01H DUP (?) ; `CFileWriter::w'::`16'::ignore_always
?g_temporary_stuff@@3P6AXPEBXAEBIPEAX@ZEA DQ 01H DUP (?) ; g_temporary_stuff
?xr_FS@@3PEAVCLocatorAPI@@EA DQ 01H DUP (?)		; xr_FS
;	COMDAT ?ignore_always@?O@??Register@CLocatorAPI@@AEAAXPEBDIIIIII@Z@4_NA
_BSS	SEGMENT
?ignore_always@?O@??Register@CLocatorAPI@@AEAAXPEBDIIIIII@Z@4_NA DB 01H DUP (?) ; `CLocatorAPI::Register'::`14'::ignore_always
_BSS	ENDS
;	COMDAT ?ignore_always@?N@??ProcessArchive@CLocatorAPI@@AEAAXPEBD0@Z@4_NA
_BSS	SEGMENT
?ignore_always@?N@??ProcessArchive@CLocatorAPI@@AEAAXPEBD0@Z@4_NA DB 01H DUP (?) ; `CLocatorAPI::ProcessArchive'::`13'::ignore_always
_BSS	ENDS
;	COMDAT ?ignore_always@?BB@??ProcessArchive@CLocatorAPI@@AEAAXPEBD0@Z@4_NA
_BSS	SEGMENT
?ignore_always@?BB@??ProcessArchive@CLocatorAPI@@AEAAXPEBD0@Z@4_NA DB 01H DUP (?) ; `CLocatorAPI::ProcessArchive'::`17'::ignore_always
_BSS	ENDS
;	COMDAT ?ignore_always@?BF@??ProcessArchive@CLocatorAPI@@AEAAXPEBD0@Z@4_NA
_BSS	SEGMENT
?ignore_always@?BF@??ProcessArchive@CLocatorAPI@@AEAAXPEBD0@Z@4_NA DB 01H DUP (?) ; `CLocatorAPI::ProcessArchive'::`21'::ignore_always
_BSS	ENDS
;	COMDAT ?ignore_always@?CA@??ProcessArchive@CLocatorAPI@@AEAAXPEBD0@Z@4_NA
_BSS	SEGMENT
?ignore_always@?CA@??ProcessArchive@CLocatorAPI@@AEAAXPEBD0@Z@4_NA DB 01H DUP (?) ; `CLocatorAPI::ProcessArchive'::`32'::ignore_always
_BSS	ENDS
;	COMDAT ?ignore_always@?CI@??_initialize@CLocatorAPI@@QEAAXIPEBD0@Z@4_NA
_BSS	SEGMENT
?ignore_always@?CI@??_initialize@CLocatorAPI@@QEAAXIPEBD0@Z@4_NA DB 01H DUP (?) ; `CLocatorAPI::_initialize'::`40'::ignore_always
_BSS	ENDS
;	COMDAT ?ignore_always@?DE@??_initialize@CLocatorAPI@@QEAAXIPEBD0@Z@4_NA
_BSS	SEGMENT
?ignore_always@?DE@??_initialize@CLocatorAPI@@QEAAXIPEBD0@Z@4_NA DB 01H DUP (?) ; `CLocatorAPI::_initialize'::`52'::ignore_always
_BSS	ENDS
;	COMDAT ?ignore_always@?3??file_list_open@CLocatorAPI@@QEAAPEAV?$xr_vector@PEADV?$xalloc@PEAD@@@@PEBD0I@Z@4_NA
_BSS	SEGMENT
?ignore_always@?3??file_list_open@CLocatorAPI@@QEAAPEAV?$xr_vector@PEADV?$xalloc@PEAD@@@@PEBD0I@Z@4_NA DB 01H DUP (?) ; `CLocatorAPI::file_list_open'::`4'::ignore_always
_BSS	ENDS
;	COMDAT ?ignore_always@?3??file_list_open@CLocatorAPI@@QEAAPEAV?$xr_vector@PEADV?$xalloc@PEAD@@@@PEBDI@Z@4_NA
_BSS	SEGMENT
?ignore_always@?3??file_list_open@CLocatorAPI@@QEAAPEAV?$xr_vector@PEADV?$xalloc@PEAD@@@@PEBDI@Z@4_NA DB 01H DUP (?) ; `CLocatorAPI::file_list_open'::`4'::ignore_always
_BSS	ENDS
;	COMDAT ?ignore_always@?3??file_list@CLocatorAPI@@QEAAHAEAV?$xr_set@UFS_File@@U?$less@UFS_File@@@std@@V?$xalloc@UFS_File@@@@@@PEBDI1@Z@4_NA
_BSS	SEGMENT
?ignore_always@?3??file_list@CLocatorAPI@@QEAAHAEAV?$xr_set@UFS_File@@U?$less@UFS_File@@@std@@V?$xalloc@UFS_File@@@@@@PEBDI1@Z@4_NA DB 01H DUP (?) ; `CLocatorAPI::file_list'::`4'::ignore_always
_BSS	ENDS
;	COMDAT ?ignore_always@?3??file_from_archive@CLocatorAPI@@AEAAXAEAPEAVCStreamReader@@PEBDAEBUfile@2@@Z@4_NA
_BSS	SEGMENT
?ignore_always@?3??file_from_archive@CLocatorAPI@@AEAAXAEAPEAVCStreamReader@@PEBDAEBUfile@2@@Z@4_NA DB 01H DUP (?) ; `CLocatorAPI::file_from_archive'::`4'::ignore_always
_BSS	ENDS
;	COMDAT ?ignore_always@?6??w_close@CLocatorAPI@@QEAAXAEAPEAVIWriter@@@Z@4_NA
_BSS	SEGMENT
?ignore_always@?6??w_close@CLocatorAPI@@QEAAXAEAPEAVIWriter@@@Z@4_NA DB 01H DUP (?) ; `CLocatorAPI::w_close'::`7'::ignore_always
_BSS	ENDS
;	COMDAT ?ignore_always@?3??get_path@CLocatorAPI@@QEAAPEAVFS_Path@@PEBD@Z@4_NA
_BSS	SEGMENT
?ignore_always@?3??get_path@CLocatorAPI@@QEAAPEAVFS_Path@@PEBD@Z@4_NA DB 01H DUP (?) ; `CLocatorAPI::get_path'::`4'::ignore_always
_BSS	ENDS
;	COMDAT ?ignore_always@?6??r_chunk_safe@?$IReaderBase@VCStreamReader@@@@QEAAHIPEAXI@Z@4_NA
_BSS	SEGMENT
?ignore_always@?6??r_chunk_safe@?$IReaderBase@VCStreamReader@@@@QEAAHIPEAXI@Z@4_NA DB 01H DUP (?) ; `IReaderBase<CStreamReader>::r_chunk_safe'::`7'::ignore_always
;	COMDAT ??_7bad_alloc@std@@6B@
CONST	SEGMENT
??_7bad_alloc@std@@6B@ DQ FLAT:??_R4bad_alloc@std@@6B@	; std::bad_alloc::`vftable'
	DQ	FLAT:??_Ebad_alloc@std@@UEAAPEAXI@Z
	DQ	FLAT:?what@exception@std@@UEBAPEBDXZ
CONST	ENDS
;	COMDAT ??_R4bad_alloc@std@@6B@
rdata$r	SEGMENT
??_R4bad_alloc@std@@6B@ DD 01H				; std::bad_alloc::`RTTI Complete Object Locator'
	DD	00H
	DD	00H
	DD	imagerel ??_R0?AVbad_alloc@std@@@8
	DD	imagerel ??_R3bad_alloc@std@@8
	DD	imagerel ??_R4bad_alloc@std@@6B@
rdata$r	ENDS
;	COMDAT ??_R3bad_alloc@std@@8
rdata$r	SEGMENT
??_R3bad_alloc@std@@8 DD 00H				; std::bad_alloc::`RTTI Class Hierarchy Descriptor'
	DD	00H
	DD	02H
	DD	imagerel ??_R2bad_alloc@std@@8
rdata$r	ENDS
;	COMDAT ??_R2bad_alloc@std@@8
rdata$r	SEGMENT
??_R2bad_alloc@std@@8 DD imagerel ??_R1A@?0A@EA@bad_alloc@std@@8 ; std::bad_alloc::`RTTI Base Class Array'
	DD	imagerel ??_R1A@?0A@EA@exception@std@@8
	ORG $+3
rdata$r	ENDS
;	COMDAT ??_R1A@?0A@EA@exception@std@@8
rdata$r	SEGMENT
??_R1A@?0A@EA@exception@std@@8 DD imagerel ??_R0?AVexception@std@@@8 ; std::exception::`RTTI Base Class Descriptor at (0,-1,0,64)'
	DD	00H
	DD	00H
	DD	0ffffffffH
	DD	00H
	DD	040H
	DD	imagerel ??_R3exception@std@@8
rdata$r	ENDS
;	COMDAT ??_R3exception@std@@8
rdata$r	SEGMENT
??_R3exception@std@@8 DD 00H				; std::exception::`RTTI Class Hierarchy Descriptor'
	DD	00H
	DD	01H
	DD	imagerel ??_R2exception@std@@8
rdata$r	ENDS
;	COMDAT ??_R2exception@std@@8
rdata$r	SEGMENT
??_R2exception@std@@8 DD imagerel ??_R1A@?0A@EA@exception@std@@8 ; std::exception::`RTTI Base Class Array'
	ORG $+3
rdata$r	ENDS
;	COMDAT ??_R1A@?0A@EA@bad_alloc@std@@8
rdata$r	SEGMENT
??_R1A@?0A@EA@bad_alloc@std@@8 DD imagerel ??_R0?AVbad_alloc@std@@@8 ; std::bad_alloc::`RTTI Base Class Descriptor at (0,-1,0,64)'
	DD	01H
	DD	00H
	DD	0ffffffffH
	DD	00H
	DD	040H
	DD	imagerel ??_R3bad_alloc@std@@8
rdata$r	ENDS
;	COMDAT _TI2?AVbad_alloc@std@@
xdata$x	SEGMENT
_TI2?AVbad_alloc@std@@ DD 00H
	DD	imagerel ??1bad_alloc@std@@UEAA@XZ
	DD	00H
	DD	imagerel _CTA2?AVbad_alloc@std@@
xdata$x	ENDS
;	COMDAT _CTA2?AVbad_alloc@std@@
xdata$x	SEGMENT
_CTA2?AVbad_alloc@std@@ DD 02H
	DD	imagerel _CT??_R0?AVbad_alloc@std@@@8??0bad_alloc@std@@QEAA@AEBV01@@Z24
	DD	imagerel _CT??_R0?AVexception@std@@@8??0exception@std@@QEAA@AEBV01@@Z24
xdata$x	ENDS
;	COMDAT _CT??_R0?AVbad_alloc@std@@@8??0bad_alloc@std@@QEAA@AEBV01@@Z24
xdata$x	SEGMENT
_CT??_R0?AVbad_alloc@std@@@8??0bad_alloc@std@@QEAA@AEBV01@@Z24 DD 00H
	DD	imagerel ??_R0?AVbad_alloc@std@@@8
	DD	00H
	DD	0ffffffffH
	ORG $+4
	DD	018H
	DD	imagerel ??0bad_alloc@std@@QEAA@AEBV01@@Z
xdata$x	ENDS
;	COMDAT ??_R0?AVbad_alloc@std@@@8
_DATA	SEGMENT
??_R0?AVbad_alloc@std@@@8 DQ FLAT:??_7type_info@@6B@	; std::bad_alloc `RTTI Type Descriptor'
	DQ	0000000000000000H
	DB	'.?AVbad_alloc@std@@', 00H
_DATA	ENDS
;	COMDAT ?npos@?$basic_string@DU?$char_traits@D@std@@V?$allocator@D@2@@std@@2_KB
CONST	SEGMENT
?npos@?$basic_string@DU?$char_traits@D@std@@V?$allocator@D@2@@std@@2_KB DQ ffffffffffffffffH ; std::basic_string<char,std::char_traits<char>,std::allocator<char> >::npos
CONST	ENDS
;	COMDAT _CT??_R0?AVexception@std@@@8??0exception@std@@QEAA@AEBV01@@Z24
xdata$x	SEGMENT
_CT??_R0?AVexception@std@@@8??0exception@std@@QEAA@AEBV01@@Z24 DD 00H
	DD	imagerel ??_R0?AVexception@std@@@8
	DD	00H
	DD	0ffffffffH
	ORG $+4
	DD	018H
	DD	imagerel __imp_??0exception@std@@QEAA@AEBV01@@Z
xdata$x	ENDS
;	COMDAT ??_R0?AVexception@std@@@8
_DATA	SEGMENT
??_R0?AVexception@std@@@8 DQ FLAT:??_7type_info@@6B@	; std::exception `RTTI Type Descriptor'
	DQ	0000000000000000H
	DB	'.?AVexception@std@@', 00H
_DATA	ENDS
;	COMDAT ??_7CFileStreamReader@@6B@
CONST	SEGMENT
??_7CFileStreamReader@@6B@ DQ FLAT:??_R4CFileStreamReader@@6B@ ; CFileStreamReader::`vftable'
	DQ	FLAT:??_ECFileStreamReader@@UEAAPEAXI@Z
	DQ	FLAT:?construct@CStreamReader@@UEAAXAEBQEAXAEBI111@Z
	DQ	FLAT:?destroy@CFileStreamReader@@UEAAXXZ
	DQ	FLAT:?construct@CFileStreamReader@@UEAAXPEBDAEBI@Z
CONST	ENDS
;	COMDAT ??_R4CFileStreamReader@@6B@
rdata$r	SEGMENT
??_R4CFileStreamReader@@6B@ DD 01H			; CFileStreamReader::`RTTI Complete Object Locator'
	DD	00H
	DD	00H
	DD	imagerel ??_R0?AVCFileStreamReader@@@8
	DD	imagerel ??_R3CFileStreamReader@@8
	DD	imagerel ??_R4CFileStreamReader@@6B@
rdata$r	ENDS
;	COMDAT ??_R3CFileStreamReader@@8
rdata$r	SEGMENT
??_R3CFileStreamReader@@8 DD 00H			; CFileStreamReader::`RTTI Class Hierarchy Descriptor'
	DD	00H
	DD	03H
	DD	imagerel ??_R2CFileStreamReader@@8
rdata$r	ENDS
;	COMDAT ??_R2CFileStreamReader@@8
rdata$r	SEGMENT
??_R2CFileStreamReader@@8 DD imagerel ??_R1A@?0A@EA@CFileStreamReader@@8 ; CFileStreamReader::`RTTI Base Class Array'
	DD	imagerel ??_R1A@?0A@EA@CStreamReader@@8
	DD	imagerel ??_R1A@?0A@EA@?$IReaderBase@VCStreamReader@@@@8
	ORG $+3
rdata$r	ENDS
;	COMDAT ??_R1A@?0A@EA@CFileStreamReader@@8
rdata$r	SEGMENT
??_R1A@?0A@EA@CFileStreamReader@@8 DD imagerel ??_R0?AVCFileStreamReader@@@8 ; CFileStreamReader::`RTTI Base Class Descriptor at (0,-1,0,64)'
	DD	02H
	DD	00H
	DD	0ffffffffH
	DD	00H
	DD	040H
	DD	imagerel ??_R3CFileStreamReader@@8
rdata$r	ENDS
;	COMDAT ??_R0?AVCFileStreamReader@@@8
_DATA	SEGMENT
??_R0?AVCFileStreamReader@@@8 DQ FLAT:??_7type_info@@6B@ ; CFileStreamReader `RTTI Type Descriptor'
	DQ	0000000000000000H
	DB	'.?AVCFileStreamReader@@', 00H
_DATA	ENDS
;	COMDAT ??_7?$IReaderBase@VCStreamReader@@@@6B@
CONST	SEGMENT
??_7?$IReaderBase@VCStreamReader@@@@6B@ DQ FLAT:??_R4?$IReaderBase@VCStreamReader@@@@6B@ ; IReaderBase<CStreamReader>::`vftable'
	DQ	FLAT:??_E?$IReaderBase@VCStreamReader@@@@UEAAPEAXI@Z
CONST	ENDS
;	COMDAT ??_R4?$IReaderBase@VCStreamReader@@@@6B@
rdata$r	SEGMENT
??_R4?$IReaderBase@VCStreamReader@@@@6B@ DD 01H		; IReaderBase<CStreamReader>::`RTTI Complete Object Locator'
	DD	00H
	DD	00H
	DD	imagerel ??_R0?AV?$IReaderBase@VCStreamReader@@@@@8
	DD	imagerel ??_R3?$IReaderBase@VCStreamReader@@@@8
	DD	imagerel ??_R4?$IReaderBase@VCStreamReader@@@@6B@
rdata$r	ENDS
;	COMDAT ??_7CFileWriter@@6B@
CONST	SEGMENT
??_7CFileWriter@@6B@ DQ FLAT:??_R4CFileWriter@@6B@	; CFileWriter::`vftable'
	DQ	FLAT:??_ECFileWriter@@UEAAPEAXI@Z
	DQ	FLAT:?seek@CFileWriter@@UEAAXI@Z
	DQ	FLAT:?tell@CFileWriter@@UEAAIXZ
	DQ	FLAT:?w@CFileWriter@@UEAAXPEBXI@Z
	DQ	FLAT:?valid@CFileWriter@@UEAA_NXZ
	DQ	FLAT:?flush@CFileWriter@@UEAAHXZ
CONST	ENDS
;	COMDAT ??_R4CFileWriter@@6B@
rdata$r	SEGMENT
??_R4CFileWriter@@6B@ DD 01H				; CFileWriter::`RTTI Complete Object Locator'
	DD	00H
	DD	00H
	DD	imagerel ??_R0?AVCFileWriter@@@8
	DD	imagerel ??_R3CFileWriter@@8
	DD	imagerel ??_R4CFileWriter@@6B@
rdata$r	ENDS
;	COMDAT ??_R3CFileWriter@@8
rdata$r	SEGMENT
??_R3CFileWriter@@8 DD 00H				; CFileWriter::`RTTI Class Hierarchy Descriptor'
	DD	00H
	DD	02H
	DD	imagerel ??_R2CFileWriter@@8
rdata$r	ENDS
;	COMDAT ??_R2CFileWriter@@8
rdata$r	SEGMENT
??_R2CFileWriter@@8 DD imagerel ??_R1A@?0A@EA@CFileWriter@@8 ; CFileWriter::`RTTI Base Class Array'
	DD	imagerel ??_R1A@?0A@EA@IWriter@@8
	ORG $+3
rdata$r	ENDS
;	COMDAT ??_R1A@?0A@EA@CFileWriter@@8
rdata$r	SEGMENT
??_R1A@?0A@EA@CFileWriter@@8 DD imagerel ??_R0?AVCFileWriter@@@8 ; CFileWriter::`RTTI Base Class Descriptor at (0,-1,0,64)'
	DD	01H
	DD	00H
	DD	0ffffffffH
	DD	00H
	DD	040H
	DD	imagerel ??_R3CFileWriter@@8
rdata$r	ENDS
;	COMDAT ??_R0?AVCFileWriter@@@8
_DATA	SEGMENT
??_R0?AVCFileWriter@@@8 DQ FLAT:??_7type_info@@6B@	; CFileWriter `RTTI Type Descriptor'
	DQ	0000000000000000H
	DB	'.?AVCFileWriter@@', 00H
_DATA	ENDS
;	COMDAT ??_7CStreamReader@@6B@
CONST	SEGMENT
??_7CStreamReader@@6B@ DQ FLAT:??_R4CStreamReader@@6B@	; CStreamReader::`vftable'
	DQ	FLAT:??_ECStreamReader@@UEAAPEAXI@Z
	DQ	FLAT:?construct@CStreamReader@@UEAAXAEBQEAXAEBI111@Z
	DQ	FLAT:?destroy@CStreamReader@@UEAAXXZ
CONST	ENDS
;	COMDAT ??_R4CStreamReader@@6B@
rdata$r	SEGMENT
??_R4CStreamReader@@6B@ DD 01H				; CStreamReader::`RTTI Complete Object Locator'
	DD	00H
	DD	00H
	DD	imagerel ??_R0?AVCStreamReader@@@8
	DD	imagerel ??_R3CStreamReader@@8
	DD	imagerel ??_R4CStreamReader@@6B@
rdata$r	ENDS
;	COMDAT ??_R3CStreamReader@@8
rdata$r	SEGMENT
??_R3CStreamReader@@8 DD 00H				; CStreamReader::`RTTI Class Hierarchy Descriptor'
	DD	00H
	DD	02H
	DD	imagerel ??_R2CStreamReader@@8
rdata$r	ENDS
;	COMDAT ??_R2CStreamReader@@8
rdata$r	SEGMENT
??_R2CStreamReader@@8 DD imagerel ??_R1A@?0A@EA@CStreamReader@@8 ; CStreamReader::`RTTI Base Class Array'
	DD	imagerel ??_R1A@?0A@EA@?$IReaderBase@VCStreamReader@@@@8
	ORG $+3
rdata$r	ENDS
;	COMDAT ??_R1A@?0A@EA@?$IReaderBase@VCStreamReader@@@@8
rdata$r	SEGMENT
??_R1A@?0A@EA@?$IReaderBase@VCStreamReader@@@@8 DD imagerel ??_R0?AV?$IReaderBase@VCStreamReader@@@@@8 ; IReaderBase<CStreamReader>::`RTTI Base Class Descriptor at (0,-1,0,64)'
	DD	00H
	DD	00H
	DD	0ffffffffH
	DD	00H
	DD	040H
	DD	imagerel ??_R3?$IReaderBase@VCStreamReader@@@@8
rdata$r	ENDS
;	COMDAT ??_R3?$IReaderBase@VCStreamReader@@@@8
rdata$r	SEGMENT
??_R3?$IReaderBase@VCStreamReader@@@@8 DD 00H		; IReaderBase<CStreamReader>::`RTTI Class Hierarchy Descriptor'
	DD	00H
	DD	01H
	DD	imagerel ??_R2?$IReaderBase@VCStreamReader@@@@8
rdata$r	ENDS
;	COMDAT ??_R2?$IReaderBase@VCStreamReader@@@@8
rdata$r	SEGMENT
??_R2?$IReaderBase@VCStreamReader@@@@8 DD imagerel ??_R1A@?0A@EA@?$IReaderBase@VCStreamReader@@@@8 ; IReaderBase<CStreamReader>::`RTTI Base Class Array'
	ORG $+3
rdata$r	ENDS
;	COMDAT ??_R0?AV?$IReaderBase@VCStreamReader@@@@@8
_DATA	SEGMENT
??_R0?AV?$IReaderBase@VCStreamReader@@@@@8 DQ FLAT:??_7type_info@@6B@ ; IReaderBase<CStreamReader> `RTTI Type Descriptor'
	DQ	0000000000000000H
	DB	'.?AV?$IReaderBase@VCStreamReader@@@@', 00H
_DATA	ENDS
;	COMDAT ??_R1A@?0A@EA@CStreamReader@@8
rdata$r	SEGMENT
??_R1A@?0A@EA@CStreamReader@@8 DD imagerel ??_R0?AVCStreamReader@@@8 ; CStreamReader::`RTTI Base Class Descriptor at (0,-1,0,64)'
	DD	01H
	DD	00H
	DD	0ffffffffH
	DD	00H
	DD	040H
	DD	imagerel ??_R3CStreamReader@@8
rdata$r	ENDS
;	COMDAT ??_R0?AVCStreamReader@@@8
_DATA	SEGMENT
??_R0?AVCStreamReader@@@8 DQ FLAT:??_7type_info@@6B@	; CStreamReader `RTTI Type Descriptor'
	DQ	0000000000000000H
	DB	'.?AVCStreamReader@@', 00H
_DATA	ENDS
;	COMDAT ??_C@_0CP@DPCNIGNH@IReaderBase?$DMclass?5CStreamReader?$DO@
CONST	SEGMENT
??_C@_0CP@DPCNIGNH@IReaderBase?$DMclass?5CStreamReader?$DO@ DB 'IReaderBa'
	DB	'se<class CStreamReader>::r_chunk_safe', 00H	; `string'
CONST	ENDS
;	COMDAT ??_C@_08EPNLMPFE@gamedata?$AA@
CONST	SEGMENT
??_C@_08EPNLMPFE@gamedata?$AA@ DB 'gamedata', 00H	; `string'
CONST	ENDS
;	COMDAT ??_C@_0BJ@JOCMNJMM@?9?9found?5external?5arch?5?$CFs?$AA@
CONST	SEGMENT
??_C@_0BJ@JOCMNJMM@?9?9found?5external?5arch?5?$CFs?$AA@ DB '--found exte'
	DB	'rnal arch %s', 00H				; `string'
CONST	ENDS
;	COMDAT ??_C@_09PAAEAGIP@$mod_dir$?$AA@
CONST	SEGMENT
??_C@_09PAAEAGIP@$mod_dir$?$AA@ DB '$mod_dir$', 00H	; `string'
CONST	ENDS
;	COMDAT ??_C@_06GNCGDKCJ@?$CK?4xdb?$CK?$AA@
CONST	SEGMENT
??_C@_06GNCGDKCJ@?$CK?4xdb?$CK?$AA@ DB '*.xdb*', 00H	; `string'
CONST	ENDS
;	COMDAT ??_C@_03HMFOOINA@r?$CLb?$AA@
CONST	SEGMENT
??_C@_03HMFOOINA@r?$CLb?$AA@ DB 'r+b', 00H		; `string'
CONST	ENDS
;	COMDAT ??_C@_0BB@BCMNINKJ@$?$CB?$CD?$CFTEMP?$CF?$CD?$CB$?4$$$?$AA@
CONST	SEGMENT
??_C@_0BB@BCMNINKJ@$?$CB?$CD?$CFTEMP?$CF?$CD?$CB$?4$$$?$AA@ DB '$!#%TEMP%'
	DB	'#!$.$$$', 00H				; `string'
CONST	ENDS
;	COMDAT ??_C@_0CH@NLNALLCJ@?$CBCan?8t?5set?5file?5age?3?5?8?$CFs?8?4?5Error@
CONST	SEGMENT
??_C@_0CH@NLNALLCJ@?$CBCan?8t?5set?5file?5age?3?5?8?$CFs?8?4?5Error@ DB '!'
	DB	'Can''t set file age: ''%s''. Error: ''%s''', 00H ; `string'
CONST	ENDS
;	COMDAT ??_C@_0BA@GAAJDLDK@P?$CB?$DNpathes?4end?$CI?$CJ?$AA@
CONST	SEGMENT
??_C@_0BA@GAAJDLDK@P?$CB?$DNpathes?4end?$CI?$CJ?$AA@ DB 'P!=pathes.end()', 00H ; `string'
CONST	ENDS
;	COMDAT ??_C@_0BG@PGJPPKFM@CLocatorAPI?3?3get_path?$AA@
CONST	SEGMENT
??_C@_0BG@PGJPPKFM@CLocatorAPI?3?3get_path?$AA@ DB 'CLocatorAPI::get_path'
	DB	00H						; `string'
CONST	ENDS
;	COMDAT ??_C@_0BA@OBKFGFII@S?9?$DOfName?4size?$CI?$CJ?$AA@
CONST	SEGMENT
??_C@_0BA@OBKFGFII@S?9?$DOfName?4size?$CI?$CJ?$AA@ DB 'S->fName.size()', 00H ; `string'
CONST	ENDS
;	COMDAT ??_C@_0BF@KJEOMGDK@CLocatorAPI?3?3w_close?$AA@
CONST	SEGMENT
??_C@_0BF@KJEOMGDK@CLocatorAPI?3?3w_close?$AA@ DB 'CLocatorAPI::w_close', 00H ; `string'
CONST	ENDS
;	COMDAT ??_C@_0FD@KPOEGFCM@?$CBWARNING?3?5CLocatorAPI?3?3check_for@
CONST	SEGMENT
??_C@_0FD@KPOEGFCM@?$CBWARNING?3?5CLocatorAPI?3?3check_for@ DB '!WARNING:'
	DB	' CLocatorAPI::check_for_file not found file %s in files list '
	DB	'(size = %d) ', 00H				; `string'
CONST	ENDS
;	COMDAT ??_C@_0CH@CDLHGCED@desc?4size_compressed?5?$DN?$DN?5desc?4siz@
CONST	SEGMENT
??_C@_0CH@CDLHGCED@desc?4size_compressed?5?$DN?$DN?5desc?4siz@ DB 'desc.s'
	DB	'ize_compressed == desc.size_real', 00H	; `string'
CONST	ENDS
;	COMDAT ??_C@_0FG@DIPPMNGC@cannot?5use?5stream?5reading?5for?5co@
CONST	SEGMENT
??_C@_0FG@DIPPMNGC@cannot?5use?5stream?5reading?5for?5co@ DB 'cannot use '
	DB	'stream reading for compressed data %s, do not compress data t'
	DB	'o be streamed', 00H				; `string'
CONST	ENDS
;	COMDAT ??_C@_0BP@IDGLINDD@CLocatorAPI?3?3file_from_archive?$AA@
CONST	SEGMENT
??_C@_0BP@IDGLINDD@CLocatorAPI?3?3file_from_archive?$AA@ DB 'CLocatorAPI:'
	DB	':file_from_archive', 00H			; `string'
CONST	ENDS
;	COMDAT ??_C@_05CCMOGDN@?$CFs?3?$CFs?$AA@
CONST	SEGMENT
??_C@_05CCMOGDN@?$CFs?3?$CFs?$AA@ DB '%s:%s', 00H	; `string'
CONST	ENDS
;	COMDAT ??_C@_0CA@FFGNCPBA@copy?3?5db?$FL?$CFX?$FN?0cache?$FL?$CFX?$FN?5?9?5?8?$CFs?8?0?5?$AA@
CONST	SEGMENT
??_C@_0CA@FFGNCPBA@copy?3?5db?$FL?$CFX?$FN?0cache?$FL?$CFX?$FN?5?9?5?8?$CFs?8?0?5?$AA@ DB 'c'
	DB	'opy: db[%X],cache[%X] - ''%s'', ', 00H	; `string'
CONST	ENDS
;	COMDAT ??_C@_07BODPMKB@$cache$?$AA@
CONST	SEGMENT
??_C@_07BODPMKB@$cache$?$AA@ DB '$cache$', 00H		; `string'
CONST	ENDS
;	COMDAT ??_C@_0O@KBJLCFDF@$server_root$?$AA@
CONST	SEGMENT
??_C@_0O@KBJLCFDF@$server_root$?$AA@ DB '$server_root$', 00H ; `string'
CONST	ENDS
;	COMDAT ??_C@_04LNEJFJGI@path?$AA@
CONST	SEGMENT
??_C@_04LNEJFJGI@path?$AA@ DB 'path', 00H		; `string'
CONST	ENDS
;	COMDAT ??_C@_0BH@DPKJMGPO@CLocatorAPI?3?3file_list?$AA@
CONST	SEGMENT
??_C@_0BH@DPKJMGPO@CLocatorAPI?3?3file_list?$AA@ DB 'CLocatorAPI::file_li'
	DB	'st', 00H					; `string'
CONST	ENDS
;	COMDAT ??_C@_05DHHBLFPE@_path?$AA@
CONST	SEGMENT
??_C@_05DHHBLFPE@_path?$AA@ DB '_path', 00H		; `string'
CONST	ENDS
;	COMDAT ??_C@_0BE@HAMBABC@initial?$CG?$CGinitial?$FL0?$FN?$AA@
CONST	SEGMENT
??_C@_0BE@HAMBABC@initial?$CG?$CGinitial?$FL0?$FN?$AA@ DB 'initial&&initi'
	DB	'al[0]', 00H					; `string'
CONST	ENDS
;	COMDAT ??_C@_0BM@BCLCKGPF@CLocatorAPI?3?3file_list_open?$AA@
CONST	SEGMENT
??_C@_0BM@BCLCKGPF@CLocatorAPI?3?3file_list_open?$AA@ DB 'CLocatorAPI::fi'
	DB	'le_list_open', 00H				; `string'
CONST	ENDS
;	COMDAT ??_C@_06PNKCMPKN@?9nolog?$AA@
CONST	SEGMENT
??_C@_06PNKCMPKN@?9nolog?$AA@ DB '-nolog', 00H		; `string'
CONST	ENDS
;	COMDAT ??_C@_06DMJLOKKG@$logs$?$AA@
CONST	SEGMENT
??_C@_06DMJLOKKG@$logs$?$AA@ DB '$logs$', 00H		; `string'
CONST	ENDS
;	COMDAT ??_C@_0O@CCJKFHLL@?9overlaypath?5?$AA@
CONST	SEGMENT
??_C@_0O@CCJKFHLL@?9overlaypath?5?$AA@ DB '-overlaypath ', 00H ; `string'
CONST	ENDS
;	COMDAT ??_C@_0N@KDCPCCHO@?9overlaypath?$AA@
CONST	SEGMENT
??_C@_0N@KDCPCCHO@?9overlaypath?$AA@ DB '-overlaypath', 00H ; `string'
CONST	ENDS
;	COMDAT ??_C@_0BH@EOPBPCDD@Init?5FileSystem?5?$CFf?5sec?$AA@
CONST	SEGMENT
??_C@_0BH@EOPBPCDD@Init?5FileSystem?5?$CFf?5sec?$AA@ DB 'Init FileSystem '
	DB	'%f sec', 00H				; `string'
CONST	ENDS
;	COMDAT ??_C@_0CH@EFGFIDMB@FS?3?5?$CFd?5files?5cached?0?5?$CFdKb?5memory@
CONST	SEGMENT
??_C@_0CH@EFGFIDMB@FS?3?5?$CFd?5files?5cached?0?5?$CFdKb?5memory@ DB 'FS:'
	DB	' %d files cached, %dKb memory used.', 00H	; `string'
CONST	ENDS
;	COMDAT ??_C@_0BO@NBFPPDBD@path_exist?$CI?$CC$app_data_root$?$CC?$CJ?$AA@
CONST	SEGMENT
??_C@_0BO@NBFPPDBD@path_exist?$CI?$CC$app_data_root$?$CC?$CJ?$AA@ DB 'pat'
	DB	'h_exist("$app_data_root$")', 00H		; `string'
CONST	ENDS
;	COMDAT ??_C@_0BA@BDJNLMJI@$app_data_root$?$AA@
CONST	SEGMENT
??_C@_0BA@BDJNLMJI@$app_data_root$?$AA@ DB '$app_data_root$', 00H ; `string'
CONST	ENDS
;	COMDAT ??_C@_0HK@KEJFMLNK@The?5file?5?8fsgame?4ltx?8?5is?5corrupt@
CONST	SEGMENT
??_C@_0HK@KEJFMLNK@The?5file?5?8fsgame?4ltx?8?5is?5corrupt@ DB 'The file '
	DB	'''fsgame.ltx'' is corrupted (it contains duplicated lines).', 0aH
	DB	'Please reinstall the game or fix the problem manually.', 00H ; `string'
CONST	ENDS
;	COMDAT ??_C@_06COENMCLN@cnt?$DO?$DN3?$AA@
CONST	SEGMENT
??_C@_06COENMCLN@cnt?$DO?$DN3?$AA@ DB 'cnt>=3', 00H	; `string'
CONST	ENDS
;	COMDAT ??_C@_0BJ@IICBJFBM@CLocatorAPI?3?3_initialize?$AA@
CONST	SEGMENT
??_C@_0BJ@IICBJFBM@CLocatorAPI?3?3_initialize?$AA@ DB 'CLocatorAPI::_init'
	DB	'ialize', 00H				; `string'
CONST	ENDS
;	COMDAT ??_C@_0N@IKDMHBKA@$build_copy$?$AA@
CONST	SEGMENT
??_C@_0N@IKDMHBKA@$build_copy$?$AA@ DB '$build_copy$', 00H ; `string'
CONST	ENDS
;	COMDAT ??_C@_0DC@IAAFPNKM@Cannot?5open?5file?5?$CC?$CFs?$CC?4?6Check?5you@
CONST	SEGMENT
??_C@_0DC@IAAFPNKM@Cannot?5open?5file?5?$CC?$CFs?$CC?4?6Check?5you@ DB 'C'
	DB	'annot open file "%s".', 0aH, 'Check your working folder.', 00H ; `string'
CONST	ENDS
;	COMDAT ??_C@_0BA@GKILFOIC@$target_folder$?$AA@
CONST	SEGMENT
??_C@_0BA@GKILFOIC@$target_folder$?$AA@ DB '$target_folder$', 00H ; `string'
CONST	ENDS
;	COMDAT ??_C@_0N@LICIKBGH@using?5fs?9ltx?$AA@
CONST	SEGMENT
??_C@_0N@LICIKBGH@using?5fs?9ltx?$AA@ DB 'using fs-ltx', 00H ; `string'
CONST	ENDS
;	COMDAT ??_C@_0L@BMGDDJNL@fsgame?4ltx?$AA@
CONST	SEGMENT
??_C@_0L@BMGDDJNL@fsgame?4ltx?$AA@ DB 'fsgame.ltx', 00H	; `string'
CONST	ENDS
;	COMDAT ??_C@_09BOCFEJAJ@$fs_root$?$AA@
CONST	SEGMENT
??_C@_09BOCFEJAJ@$fs_root$?$AA@ DB '$fs_root$', 00H	; `string'
CONST	ENDS
;	COMDAT ??_C@_0L@IJKLJMDK@$app_root$?$AA@
CONST	SEGMENT
??_C@_0L@IJKLJMDK@$app_root$?$AA@ DB '$app_root$', 00H	; `string'
CONST	ENDS
;	COMDAT ??_C@_0BM@MNMEOPGN@Initializing?5File?5System?4?4?4?$AA@
CONST	SEGMENT
??_C@_0BM@MNMEOPGN@Initializing?5File?5System?4?4?4?$AA@ DB 'Initializing'
	DB	' File System...', 00H			; `string'
CONST	ENDS
;	COMDAT ??_C@_03EMIMMIHL@?$CK?4?$CK?$AA@
CONST	SEGMENT
??_C@_03EMIMMIHL@?$CK?4?$CK?$AA@ DB '*.*', 00H		; `string'
CONST	ENDS
;	COMDAT ??_C@_03IGEDJCDH@?4db?$AA@
CONST	SEGMENT
??_C@_03IGEDJCDH@?4db?$AA@ DB '.db', 00H		; `string'
CONST	ENDS
;	COMDAT ??_C@_02DJGKEECL@?4?4?$AA@
CONST	SEGMENT
??_C@_02DJGKEECL@?4?4?$AA@ DB '..', 00H			; `string'
CONST	ENDS
;	COMDAT ??_C@_01LFCBOECM@?4?$AA@
CONST	SEGMENT
??_C@_01LFCBOECM@?4?$AA@ DB '.', 00H			; `string'
CONST	ENDS
;	COMDAT ??_C@_03HCPOIHIH@hdr?$AA@
CONST	SEGMENT
??_C@_03HCPOIHIH@hdr?$AA@ DB 'hdr', 00H			; `string'
CONST	ENDS
;	COMDAT ??_C@_0CI@HEMFFOJF@CLocatorAPI?3?3ProcessArchive?0?5pat@
CONST	SEGMENT
??_C@_0CI@HEMFFOJF@CLocatorAPI?3?3ProcessArchive?0?5pat@ DB 'CLocatorAPI:'
	DB	':ProcessArchive, path = %s ', 00H		; `string'
CONST	ENDS
;	COMDAT ??_C@_08IALBBJGD@A?4size?$DO0?$AA@
CONST	SEGMENT
??_C@_08IALBBJGD@A?4size?$DO0?$AA@ DB 'A.size>0', 00H	; `string'
CONST	ENDS
;	COMDAT ??_C@_0CA@PFGHMBNJ@A?4hSrcMap?$CB?$DNINVALID_HANDLE_VALUE?$AA@
CONST	SEGMENT
??_C@_0CA@PFGHMBNJ@A?4hSrcMap?$CB?$DNINVALID_HANDLE_VALUE?$AA@ DB 'A.hSrc'
	DB	'Map!=INVALID_HANDLE_VALUE', 00H		; `string'
CONST	ENDS
;	COMDAT ??_C@_0CB@PNMNGNKI@A?4hSrcFile?$CB?$DNINVALID_HANDLE_VALUE@
CONST	SEGMENT
??_C@_0CB@PNMNGNKI@A?4hSrcFile?$CB?$DNINVALID_HANDLE_VALUE@ DB 'A.hSrcFil'
	DB	'e!=INVALID_HANDLE_VALUE', 00H		; `string'
CONST	ENDS
;	COMDAT ??_C@_0BM@BHDJLKGA@CLocatorAPI?3?3ProcessArchive?$AA@
CONST	SEGMENT
??_C@_0BM@BHDJLKGA@CLocatorAPI?3?3ProcessArchive?$AA@ DB 'CLocatorAPI::Pr'
	DB	'ocessArchive', 00H				; `string'
CONST	ENDS
;	COMDAT ??_C@_04PBLCHLCN@?4xdb?$AA@
CONST	SEGMENT
??_C@_04PBLCHLCN@?4xdb?$AA@ DB '.xdb', 00H		; `string'
CONST	ENDS
;	COMDAT ??_C@_0CN@NGDDEKL@CLocatorAPI?3?3ProcessArchive?5igno@
CONST	SEGMENT
??_C@_0CN@NGDDEKL@CLocatorAPI?3?3ProcessArchive?5igno@ DB 'CLocatorAPI::P'
	DB	'rocessArchive ignoring file %s', 00H	; `string'
CONST	ENDS
;	COMDAT ??_C@_04MIEGGADE@bin?2?$AA@
CONST	SEGMENT
??_C@_04MIEGGADE@bin?2?$AA@ DB 'bin\', 00H		; `string'
CONST	ENDS
;	COMDAT ??_C@_09HKEHFMHK@gamedata?2?$AA@
CONST	SEGMENT
??_C@_09HKEHFMHK@gamedata?2?$AA@ DB 'gamedata\', 00H	; `string'
CONST	ENDS
;	COMDAT ??_C@_0P@PPOLODI@LocatorAPI?4cpp?$AA@
CONST	SEGMENT
??_C@_0P@PPOLODI@LocatorAPI?4cpp?$AA@ DB 'LocatorAPI.cpp', 00H ; `string'
CONST	ENDS
;	COMDAT ??_C@_0BG@JLICPDMD@CLocatorAPI?3?3Register?$AA@
CONST	SEGMENT
??_C@_0BG@JLICPDMD@CLocatorAPI?3?3Register?$AA@ DB 'CLocatorAPI::Register'
	DB	00H						; `string'
CONST	ENDS
;	COMDAT ??_C@_0BB@JJHONFGH@?9?9?9?9total?5count?$DN?$AA@
CONST	SEGMENT
??_C@_0BB@JJHONFGH@?9?9?9?9total?5count?$DN?$AA@ DB '----total count=', 00H ; `string'
CONST	ENDS
;	COMDAT ??_C@_0M@FJPLFMD@?9?9?9?9un?9used?$AA@
CONST	SEGMENT
??_C@_0M@FJPLFMD@?9?9?9?9un?9used?$AA@ DB '----un-used', 00H ; `string'
CONST	ENDS
;	COMDAT ??_C@_0O@LIGGBFJO@?$FL?$CFd?$FN?5fname?3?$CFs?$AA@
CONST	SEGMENT
??_C@_0O@LIGGBFJO@?$FL?$CFd?$FN?5fname?3?$CFs?$AA@ DB '[%d] fname:%s', 00H ; `string'
CONST	ENDS
;	COMDAT ??_C@_0BB@FNAKDLB@?9?9?9?9opened?5files?$AA@
CONST	SEGMENT
??_C@_0BB@FNAKDLB@?9?9?9?9opened?5files?$AA@ DB '----opened files', 00H ; `string'
CONST	ENDS
;	COMDAT ??_C@_0BL@GBLFJGAI@file?5opened?5at?5least?5twice?$AA@
CONST	SEGMENT
??_C@_0BL@GBLFJGAI@file?5opened?5at?5least?5twice?$AA@ DB 'file opened at'
	DB	' least twice', 00H				; `string'
CONST	ENDS
;	COMDAT ??_C@_04FLEBEKDE@W?$DN?$DN1?$AA@
CONST	SEGMENT
??_C@_04FLEBEKDE@W?$DN?$DN1?$AA@ DB 'W==1', 00H		; `string'
CONST	ENDS
;	COMDAT ??_C@_0DA@NHFCHCFA@Can?8t?5write?5mem?5block?5to?5file?4?5D@
CONST	SEGMENT
??_C@_0DA@NHFCHCFA@Can?8t?5write?5mem?5block?5to?5file?4?5D@ DB 'Can''t w'
	DB	'rite mem block to file. Disk maybe full.', 00H ; `string'
CONST	ENDS
;	COMDAT ??_C@_0P@JAENBJCA@CFileWriter?3?3w?$AA@
CONST	SEGMENT
??_C@_0P@JAENBJCA@CFileWriter?3?3w?$AA@ DB 'CFileWriter::w', 00H ; `string'
CONST	ENDS
;	COMDAT ??_C@_0CG@NLEAPLKA@?$CBCan?8t?5write?5file?3?5?8?$CFs?8?4?5Error?3?5@
CONST	SEGMENT
??_C@_0CG@NLEAPLKA@?$CBCan?8t?5write?5file?3?5?8?$CFs?8?4?5Error?3?5@ DB '!'
	DB	'Can''t write file: ''%s''. Error: ''%s''.', 00H ; `string'
CONST	ENDS
;	COMDAT ??_C@_02GMLFBBN@wb?$AA@
CONST	SEGMENT
??_C@_02GMLFBBN@wb?$AA@ DB 'wb', 00H			; `string'
CONST	ENDS
;	COMDAT ??_C@_0BA@FFHJPHKB@name?5?$CG?$CG?5name?$FL0?$FN?$AA@
CONST	SEGMENT
??_C@_0BA@FFHJPHKB@name?5?$CG?$CG?5name?$FL0?$FN?$AA@ DB 'name && name[0]'
	DB	00H						; `string'
CONST	ENDS
;	COMDAT ??_C@_0EH@KGMJBNNA@c?3?2users?2nummer?2documents?2github@
CONST	SEGMENT
??_C@_0EH@KGMJBNNA@c?3?2users?2nummer?2documents?2github@ DB 'c:\users\nu'
	DB	'mmer\documents\github\olr-3.0\src\xray\xrcore\FS_internal.h', 00H ; `string'
CONST	ENDS
;	COMDAT ??_C@_0BJ@LHOADAED@CFileWriter?3?3CFileWriter?$AA@
CONST	SEGMENT
??_C@_0BJ@LHOADAED@CFileWriter?3?3CFileWriter?$AA@ DB 'CFileWriter::CFile'
	DB	'Writer', 00H				; `string'
BIG_FILE_READER_WINDOW_SIZE DD 0100000H
PI_MUL_2 DD	040c90fdbr			; 6.28319
; Function compile flags: /Ogtpy
; File c:\users\nummer\documents\github\olr-3.0\src\xray\xrcore\xrstring.h
;	COMDAT ?_get@shared_str@@QEBAPEBUstr_value@@XZ
_TEXT	SEGMENT
this$ = 8
?_get@shared_str@@QEBAPEBUstr_value@@XZ PROC		; shared_str::_get, COMDAT

; 54   : 	const str_value*	_get		()	const						{	return p_;																					}

	mov	rax, QWORD PTR [rcx]
	ret	0
?_get@shared_str@@QEBAPEBUstr_value@@XZ ENDP		; shared_str::_get
; Function compile flags: /Ogtpy
_TEXT	ENDS
;	COMDAT ?c_str@shared_str@@QEBAPEBDXZ
_TEXT	SEGMENT
this$ = 8
?c_str@shared_str@@QEBAPEBDXZ PROC			; shared_str::c_str, COMDAT

; 68   : 	str_c				c_str		() const						{	return p_?p_->value:0;							}

	mov	rax, QWORD PTR [rcx]
	test	rax, rax
	je	SHORT $LN3@c_str
	add	rax, 12
	ret	0
$LN3@c_str:
	fatret	0
?c_str@shared_str@@QEBAPEBDXZ ENDP			; shared_str::c_str
; Function compile flags: /Ogtpy
; File c:\users\nummer\documents\github\olr-3.0\src\xray\xrcore\_std_extensions.h
_TEXT	ENDS
;	COMDAT ?xr_strlwr@@YAPEADPEAD@Z
_TEXT	SEGMENT
S$ = 8
?xr_strlwr@@YAPEADPEAD@Z PROC				; xr_strlwr, COMDAT

; 273  : {	return strlwr(S);				}

	rex_jmp	QWORD PTR __imp_strlwr
?xr_strlwr@@YAPEADPEAD@Z ENDP				; xr_strlwr
; Function compile flags: /Ogtpy
; File c:\program files (x86)\microsoft visual studio 10.0\vc\include\string.h
_TEXT	ENDS
;	COMDAT ?strrchr@@YAPEADPEADH@Z
_TEXT	SEGMENT
_Str$ = 8
?strrchr@@YAPEADPEADH@Z PROC				; strrchr, COMDAT

; 219  : 	{ return (char*)strrchr((const char*)_Str, _Ch); }

	mov	edx, 92					; 0000005cH
	rex_jmp	QWORD PTR __imp_strrchr
?strrchr@@YAPEADPEADH@Z ENDP				; strrchr
; Function compile flags: /Ogtpy
; File c:\program files (x86)\microsoft visual studio 10.0\vc\include\xstring
_TEXT	ENDS
;	COMDAT ?_Myptr@?$basic_string@DU?$char_traits@D@std@@V?$allocator@D@2@@std@@QEAAPEADXZ
_TEXT	SEGMENT
this$ = 8
?_Myptr@?$basic_string@DU?$char_traits@D@std@@V?$allocator@D@2@@std@@QEAAPEADXZ PROC ; std::basic_string<char,std::char_traits<char>,std::allocator<char> >::_Myptr, COMDAT

; 2003 : 		return (this->_BUF_SIZE <= this->_Myres ? this->_Bx._Ptr
; 2004 : 			: this->_Bx._Buf);

	cmp	QWORD PTR [rcx+24], 16
	jb	SHORT $LN3@Myptr
	mov	rax, QWORD PTR [rcx]

; 2005 : 		}

	ret	0
$LN3@Myptr:

; 2003 : 		return (this->_BUF_SIZE <= this->_Myres ? this->_Bx._Ptr
; 2004 : 			: this->_Bx._Buf);

	mov	rax, rcx

; 2005 : 		}

	ret	0
?_Myptr@?$basic_string@DU?$char_traits@D@std@@V?$allocator@D@2@@std@@QEAAPEADXZ ENDP ; std::basic_string<char,std::char_traits<char>,std::allocator<char> >::_Myptr
; Function compile flags: /Ogtpy
_TEXT	ENDS
;	COMDAT ??1?$_String_val@DV?$allocator@D@std@@@std@@QEAA@XZ
_TEXT	SEGMENT
??1?$_String_val@DV?$allocator@D@std@@@std@@QEAA@XZ PROC ; std::_String_val<char,std::allocator<char> >::~_String_val<char,std::allocator<char> >, COMDAT

; 459  : 		}

	ret	0
??1?$_String_val@DV?$allocator@D@std@@@std@@QEAA@XZ ENDP ; std::_String_val<char,std::allocator<char> >::~_String_val<char,std::allocator<char> >
_TEXT	ENDS
;	COMDAT pdata
pdata	SEGMENT
$pdata$??0bad_alloc@std@@QEAA@AEBV01@@Z DD imagerel $LN3
	DD	imagerel $LN3+34
	DD	imagerel $unwind$??0bad_alloc@std@@QEAA@AEBV01@@Z
pdata	ENDS
;	COMDAT xdata
xdata	SEGMENT
$unwind$??0bad_alloc@std@@QEAA@AEBV01@@Z DD 020601H
	DD	030023206H
; Function compile flags: /Ogtpy
xdata	ENDS
;	COMDAT ??0bad_alloc@std@@QEAA@AEBV01@@Z
_TEXT	SEGMENT
this$ = 48
__that$ = 56
??0bad_alloc@std@@QEAA@AEBV01@@Z PROC			; std::bad_alloc::bad_alloc, COMDAT
$LN3:
	push	rbx
	sub	rsp, 32					; 00000020H
	mov	rbx, rcx
	call	QWORD PTR __imp_??0exception@std@@QEAA@AEBV01@@Z
	lea	r11, OFFSET FLAT:??_7bad_alloc@std@@6B@
	mov	QWORD PTR [rbx], r11
	mov	rax, rbx
	add	rsp, 32					; 00000020H
	pop	rbx
	ret	0
??0bad_alloc@std@@QEAA@AEBV01@@Z ENDP			; std::bad_alloc::bad_alloc
; Function compile flags: /Ogtpy
; File c:\program files (x86)\microsoft visual studio 10.0\vc\include\exception
_TEXT	ENDS
;	COMDAT ??1bad_alloc@std@@UEAA@XZ
_TEXT	SEGMENT
this$ = 8
??1bad_alloc@std@@UEAA@XZ PROC				; std::bad_alloc::~bad_alloc, COMDAT

; 354  : 		{	// destroy the object

	lea	rax, OFFSET FLAT:??_7bad_alloc@std@@6B@
	mov	QWORD PTR [rcx], rax

; 355  : 		}

	rex_jmp	QWORD PTR __imp_??1exception@std@@UEAA@XZ
??1bad_alloc@std@@UEAA@XZ ENDP				; std::bad_alloc::~bad_alloc
_TEXT	ENDS
;	COMDAT pdata
pdata	SEGMENT
$pdata$??0bad_alloc@std@@QEAA@PEBD@Z DD imagerel $LN3
	DD	imagerel $LN3+48
	DD	imagerel $unwind$??0bad_alloc@std@@QEAA@PEBD@Z
pdata	ENDS
;	COMDAT xdata
xdata	SEGMENT
$unwind$??0bad_alloc@std@@QEAA@PEBD@Z DD 020601H
	DD	030025206H
; Function compile flags: /Ogtpy
xdata	ENDS
;	COMDAT ??0bad_alloc@std@@QEAA@PEBD@Z
_TEXT	SEGMENT
_Message$ = 32
this$ = 64
??0bad_alloc@std@@QEAA@PEBD@Z PROC			; std::bad_alloc::bad_alloc, COMDAT

; 345  : 		{	// construct from message string

$LN3:
	push	rbx
	sub	rsp, 48					; 00000030H
	lea	rdx, QWORD PTR _Message$[rsp]
	mov	rbx, rcx
	mov	QWORD PTR _Message$[rsp], 0
	call	QWORD PTR __imp_??0exception@std@@QEAA@AEBQEBD@Z
	lea	r11, OFFSET FLAT:??_7bad_alloc@std@@6B@

; 346  : 		}

	mov	rax, rbx
	mov	QWORD PTR [rbx], r11
	add	rsp, 48					; 00000030H
	pop	rbx
	ret	0
??0bad_alloc@std@@QEAA@PEBD@Z ENDP			; std::bad_alloc::bad_alloc
; Function compile flags: /Ogtpy
; File c:\program files (x86)\microsoft visual studio 10.0\vc\include\xmemory
_TEXT	ENDS
;	COMDAT ?max_size@?$allocator@D@std@@QEBA_KXZ
_TEXT	SEGMENT
?max_size@?$allocator@D@std@@QEBA_KXZ PROC		; std::allocator<char>::max_size, COMDAT

; 218  : 		_SIZT _Count = (_SIZT)(-1) / sizeof (_Ty);
; 219  : 		return (0 < _Count ? _Count : 1);

	or	rax, -1

; 220  : 		}

	ret	0
?max_size@?$allocator@D@std@@QEBA_KXZ ENDP		; std::allocator<char>::max_size
_TEXT	ENDS
;	COMDAT pdata
; File c:\program files (x86)\microsoft visual studio 10.0\vc\include\xstring
pdata	SEGMENT
$pdata$?_Xlen@?$basic_string@DU?$char_traits@D@std@@V?$allocator@D@2@@std@@QEBAXXZ DD imagerel $LN4
	DD	imagerel $LN4+18
	DD	imagerel $unwind$?_Xlen@?$basic_string@DU?$char_traits@D@std@@V?$allocator@D@2@@std@@QEBAXXZ
pdata	ENDS
;	COMDAT xdata
xdata	SEGMENT
$unwind$?_Xlen@?$basic_string@DU?$char_traits@D@std@@V?$allocator@D@2@@std@@QEBAXXZ DD 010401H
	DD	04204H
; Function compile flags: /Ogtpy
xdata	ENDS
;	COMDAT ?_Xlen@?$basic_string@DU?$char_traits@D@std@@V?$allocator@D@2@@std@@QEBAXXZ
_TEXT	SEGMENT
?_Xlen@?$basic_string@DU?$char_traits@D@std@@V?$allocator@D@2@@std@@QEBAXXZ PROC ; std::basic_string<char,std::char_traits<char>,std::allocator<char> >::_Xlen, COMDAT

; 2014 : 		{	// report a length_error

$LN4:
	sub	rsp, 40					; 00000028H

; 2015 : 		_Xlength_error("string too long");

	lea	rcx, OFFSET FLAT:??_C@_0BA@JFNIOLAK@string?5too?5long?$AA@
	call	QWORD PTR __imp_?_Xlength_error@std@@YAXPEBD@Z
	int	3
$LN3@Xlen:
?_Xlen@?$basic_string@DU?$char_traits@D@std@@V?$allocator@D@2@@std@@QEBAXXZ ENDP ; std::basic_string<char,std::char_traits<char>,std::allocator<char> >::_Xlen
; Function compile flags: /Ogtpy
_TEXT	ENDS
;	COMDAT ?_Myptr@?$basic_string@DU?$char_traits@D@std@@V?$allocator@D@2@@std@@QEBAPEBDXZ
_TEXT	SEGMENT
this$ = 8
?_Myptr@?$basic_string@DU?$char_traits@D@std@@V?$allocator@D@2@@std@@QEBAPEBDXZ PROC ; std::basic_string<char,std::char_traits<char>,std::allocator<char> >::_Myptr, COMDAT

; 2009 : 		return (this->_BUF_SIZE <= this->_Myres ? this->_Bx._Ptr
; 2010 : 			: this->_Bx._Buf);

	cmp	QWORD PTR [rcx+24], 16
	jb	SHORT $LN3@Myptr@2
	mov	rax, QWORD PTR [rcx]

; 2011 : 		}

	ret	0
$LN3@Myptr@2:

; 2009 : 		return (this->_BUF_SIZE <= this->_Myres ? this->_Bx._Ptr
; 2010 : 			: this->_Bx._Buf);

	mov	rax, rcx

; 2011 : 		}

	ret	0
?_Myptr@?$basic_string@DU?$char_traits@D@std@@V?$allocator@D@2@@std@@QEBAPEBDXZ ENDP ; std::basic_string<char,std::char_traits<char>,std::allocator<char> >::_Myptr
_TEXT	ENDS
;	COMDAT pdata
pdata	SEGMENT
$pdata$?_Xran@?$basic_string@DU?$char_traits@D@std@@V?$allocator@D@2@@std@@QEBAXXZ DD imagerel $LN4
	DD	imagerel $LN4+18
	DD	imagerel $unwind$?_Xran@?$basic_string@DU?$char_traits@D@std@@V?$allocator@D@2@@std@@QEBAXXZ
pdata	ENDS
;	COMDAT xdata
xdata	SEGMENT
$unwind$?_Xran@?$basic_string@DU?$char_traits@D@std@@V?$allocator@D@2@@std@@QEBAXXZ DD 010401H
	DD	04204H
; Function compile flags: /Ogtpy
xdata	ENDS
;	COMDAT ?_Xran@?$basic_string@DU?$char_traits@D@std@@V?$allocator@D@2@@std@@QEBAXXZ
_TEXT	SEGMENT
?_Xran@?$basic_string@DU?$char_traits@D@std@@V?$allocator@D@2@@std@@QEBAXXZ PROC ; std::basic_string<char,std::char_traits<char>,std::allocator<char> >::_Xran, COMDAT

; 2019 : 		{	// report an out_of_range error

$LN4:
	sub	rsp, 40					; 00000028H

; 2020 : 		_Xout_of_range("invalid string position");

	lea	rcx, OFFSET FLAT:??_C@_0BI@CFPLBAOH@invalid?5string?5position?$AA@
	call	QWORD PTR __imp_?_Xout_of_range@std@@YAXPEBD@Z
	int	3
$LN3@Xran:
?_Xran@?$basic_string@DU?$char_traits@D@std@@V?$allocator@D@2@@std@@QEBAXXZ ENDP ; std::basic_string<char,std::char_traits<char>,std::allocator<char> >::_Xran
; Function compile flags: /Ogtpy
_TEXT	ENDS
;	COMDAT ?size@?$basic_string@DU?$char_traits@D@std@@V?$allocator@D@2@@std@@QEBA_KXZ
_TEXT	SEGMENT
this$ = 8
?size@?$basic_string@DU?$char_traits@D@std@@V?$allocator@D@2@@std@@QEBA_KXZ PROC ; std::basic_string<char,std::char_traits<char>,std::allocator<char> >::size, COMDAT

; 1511 : 		return (this->_Mysize);

	mov	rax, QWORD PTR [rcx+16]

; 1512 : 		}

	ret	0
?size@?$basic_string@DU?$char_traits@D@std@@V?$allocator@D@2@@std@@QEBA_KXZ ENDP ; std::basic_string<char,std::char_traits<char>,std::allocator<char> >::size
; Function compile flags: /Ogtpy
_TEXT	ENDS
;	COMDAT ?_Inside@?$basic_string@DU?$char_traits@D@std@@V?$allocator@D@2@@std@@QEAA_NPEBD@Z
_TEXT	SEGMENT
this$ = 8
_Ptr$ = 16
?_Inside@?$basic_string@DU?$char_traits@D@std@@V?$allocator@D@2@@std@@QEAA_NPEBD@Z PROC ; std::basic_string<char,std::char_traits<char>,std::allocator<char> >::_Inside, COMDAT

; 1972 : 		{	// test if _Ptr points inside string

	mov	r9, rdx

; 1973 : 		if (_Ptr == 0 || _Ptr < _Myptr() || _Myptr() + this->_Mysize <= _Ptr)

	test	rdx, rdx
	je	SHORT $LN2@Inside
	mov	rax, QWORD PTR [rcx+24]
	cmp	rax, 16
	jb	SHORT $LN8@Inside
	mov	r8, QWORD PTR [rcx]
	jmp	SHORT $LN9@Inside
$LN8@Inside:
	mov	r8, rcx
$LN9@Inside:
	cmp	rdx, r8
	jb	SHORT $LN2@Inside
	cmp	rax, 16
	jb	SHORT $LN12@Inside
	mov	rdx, QWORD PTR [rcx]
	jmp	SHORT $LN13@Inside
$LN12@Inside:
	mov	rdx, rcx
$LN13@Inside:
	mov	rax, QWORD PTR [rcx+16]
	lea	rcx, QWORD PTR [rdx+rax]
	cmp	rcx, r9
	jbe	SHORT $LN2@Inside

; 1975 : 		else
; 1976 : 			return (true);

	mov	al, 1

; 1977 : 		}

	ret	0
$LN2@Inside:

; 1974 : 			return (false);	// don't ask

	xor	al, al

; 1977 : 		}

	ret	0
?_Inside@?$basic_string@DU?$char_traits@D@std@@V?$allocator@D@2@@std@@QEAA_NPEBD@Z ENDP ; std::basic_string<char,std::char_traits<char>,std::allocator<char> >::_Inside
; Function compile flags: /Ogtpy
; File c:\program files (x86)\microsoft visual studio 10.0\vc\include\xmemory
_TEXT	ENDS
;	COMDAT ??0?$allocator@D@std@@QEAA@XZ
_TEXT	SEGMENT
this$ = 8
??0?$allocator@D@std@@QEAA@XZ PROC			; std::allocator<char>::allocator<char>, COMDAT

; 162  : 		{	// construct default allocator (do nothing)
; 163  : 		}

	mov	rax, rcx
	ret	0
??0?$allocator@D@std@@QEAA@XZ ENDP			; std::allocator<char>::allocator<char>
; Function compile flags: /Ogtpy
_TEXT	ENDS
;	COMDAT ??0?$allocator@D@std@@QEAA@AEBV01@@Z
_TEXT	SEGMENT
this$ = 8
??0?$allocator@D@std@@QEAA@AEBV01@@Z PROC		; std::allocator<char>::allocator<char>, COMDAT

; 166  : 		{	// construct by copying (do nothing)
; 167  : 		}

	mov	rax, rcx
	ret	0
??0?$allocator@D@std@@QEAA@AEBV01@@Z ENDP		; std::allocator<char>::allocator<char>
; Function compile flags: /Ogtpy
; File c:\program files (x86)\microsoft visual studio 10.0\vc\include\sys\utime.inl
_TEXT	ENDS
_TEXT	SEGMENT
_Filename$ = 8
_Utimbuf$ = 16
_utime	PROC

; 53   :     _STATIC_ASSERT( sizeof(struct _utimbuf) == sizeof(struct __utimbuf64) );
; 54   :     return _utime64(_Filename,(struct __utimbuf64 *)_Utimbuf);
; 55   : }

	rex_jmp	QWORD PTR __imp__utime64
_utime	ENDP
; Function compile flags: /Ogtpy
; File c:\program files (x86)\microsoft visual studio 10.0\vc\include\utility
_TEXT	ENDS
;	COMDAT ??$forward@AEBU_open_file@@@std@@YAAEBU_open_file@@AEBU1@@Z
_TEXT	SEGMENT
_Arg$ = 8
??$forward@AEBU_open_file@@@std@@YAAEBU_open_file@@AEBU1@@Z PROC ; std::forward<_open_file const & __ptr64>, COMDAT

; 79   : 	return ((_Ty&&)_Arg);

	mov	rax, rcx

; 80   : 	}

	ret	0
??$forward@AEBU_open_file@@@std@@YAAEBU_open_file@@AEBU1@@Z ENDP ; std::forward<_open_file const & __ptr64>
; Function compile flags: /Ogtpy
_TEXT	ENDS
;	COMDAT ??$forward@AEBUFS_File@@@std@@YAAEBUFS_File@@AEBU1@@Z
_TEXT	SEGMENT
_Arg$ = 8
??$forward@AEBUFS_File@@@std@@YAAEBUFS_File@@AEBU1@@Z PROC ; std::forward<FS_File const & __ptr64>, COMDAT

; 79   : 	return ((_Ty&&)_Arg);

	mov	rax, rcx

; 80   : 	}

	ret	0
??$forward@AEBUFS_File@@@std@@YAAEBUFS_File@@AEBU1@@Z ENDP ; std::forward<FS_File const & __ptr64>
; Function compile flags: /Ogtpy
_TEXT	ENDS
;	COMDAT ??$forward@U_finddata64i32_t@@@std@@YA$$QEAU_finddata64i32_t@@AEAU1@@Z
_TEXT	SEGMENT
_Arg$ = 8
??$forward@U_finddata64i32_t@@@std@@YA$$QEAU_finddata64i32_t@@AEAU1@@Z PROC ; std::forward<_finddata64i32_t>, COMDAT

; 79   : 	return ((_Ty&&)_Arg);

	mov	rax, rcx

; 80   : 	}

	ret	0
??$forward@U_finddata64i32_t@@@std@@YA$$QEAU_finddata64i32_t@@AEAU1@@Z ENDP ; std::forward<_finddata64i32_t>
; Function compile flags: /Ogtpy
_TEXT	ENDS
;	COMDAT ??$forward@PEAVFS_Path@@@std@@YA$$QEAPEAVFS_Path@@AEAPEAV1@@Z
_TEXT	SEGMENT
_Arg$ = 8
??$forward@PEAVFS_Path@@@std@@YA$$QEAPEAVFS_Path@@AEAPEAV1@@Z PROC ; std::forward<FS_Path * __ptr64>, COMDAT

; 79   : 	return ((_Ty&&)_Arg);

	mov	rax, rcx

; 80   : 	}

	ret	0
??$forward@PEAVFS_Path@@@std@@YA$$QEAPEAVFS_Path@@AEAPEAV1@@Z ENDP ; std::forward<FS_Path * __ptr64>
; Function compile flags: /Ogtpy
_TEXT	ENDS
;	COMDAT ??$_Move@AEAU_finddata64i32_t@@@std@@YA$$QEAU_finddata64i32_t@@AEAU1@@Z
_TEXT	SEGMENT
_Arg$ = 8
??$_Move@AEAU_finddata64i32_t@@@std@@YA$$QEAU_finddata64i32_t@@AEAU1@@Z PROC ; std::_Move<_finddata64i32_t & __ptr64>, COMDAT

; 95   : 	return ((typename tr1::_Remove_reference<_Ty>::_Type&&)_Arg);

	mov	rax, rcx

; 96   : 	}

	ret	0
??$_Move@AEAU_finddata64i32_t@@@std@@YA$$QEAU_finddata64i32_t@@AEAU1@@Z ENDP ; std::_Move<_finddata64i32_t & __ptr64>
; Function compile flags: /Ogtpy
_TEXT	ENDS
;	COMDAT ??$forward@AEAPEAU_finddata64i32_t@@@std@@YAAEAPEAU_finddata64i32_t@@AEAPEAU1@@Z
_TEXT	SEGMENT
_Arg$ = 8
??$forward@AEAPEAU_finddata64i32_t@@@std@@YAAEAPEAU_finddata64i32_t@@AEAPEAU1@@Z PROC ; std::forward<_finddata64i32_t * __ptr64 & __ptr64>, COMDAT

; 79   : 	return ((_Ty&&)_Arg);

	mov	rax, rcx

; 80   : 	}

	ret	0
??$forward@AEAPEAU_finddata64i32_t@@@std@@YAAEAPEAU_finddata64i32_t@@AEAPEAU1@@Z ENDP ; std::forward<_finddata64i32_t * __ptr64 & __ptr64>
_TEXT	ENDS
;	COMDAT pdata
pdata	SEGMENT
$pdata$??$swap@U_finddata64i32_t@@@std@@YAXAEAU_finddata64i32_t@@0@Z DD imagerel $LN9
	DD	imagerel $LN9+91
	DD	imagerel $unwind$??$swap@U_finddata64i32_t@@@std@@YAXAEAU_finddata64i32_t@@0@Z
pdata	ENDS
;	COMDAT xdata
xdata	SEGMENT
$unwind$??$swap@U_finddata64i32_t@@@std@@YAXAEAU_finddata64i32_t@@0@Z DD 050d01H
	DD	02c340dH
	DD	02a010dH
	DD	07006H
; Function compile flags: /Ogtpy
xdata	ENDS
;	COMDAT ??$swap@U_finddata64i32_t@@@std@@YAXAEAU_finddata64i32_t@@0@Z
_TEXT	SEGMENT
_Tmp$ = 32
_Left$ = 352
_Right$ = 360
??$swap@U_finddata64i32_t@@@std@@YAXAEAU_finddata64i32_t@@0@Z PROC ; std::swap<_finddata64i32_t>, COMDAT

; 101  : 	{	// exchange values stored at _Left and _Right

$LN9:
	mov	QWORD PTR [rsp+8], rbx
	push	rdi
	sub	rsp, 336				; 00000150H
	mov	rbx, rcx
	mov	rdi, rdx

; 102  : 	_Ty _Tmp = _Move(_Left);

	lea	rcx, QWORD PTR _Tmp$[rsp]
	mov	rdx, rbx
	mov	r8d, 296				; 00000128H
	call	memcpy

; 103  : 	_Left = _Move(_Right);

	mov	rcx, rbx
	mov	rdx, rdi
	mov	r8d, 296				; 00000128H
	call	memcpy

; 104  : 	_Right = _Move(_Tmp);

	lea	rdx, QWORD PTR _Tmp$[rsp]
	mov	rcx, rdi
	mov	r8d, 296				; 00000128H
	call	memcpy

; 105  : 	}

	mov	rbx, QWORD PTR [rsp+352]
	add	rsp, 336				; 00000150H
	pop	rdi
	ret	0
??$swap@U_finddata64i32_t@@@std@@YAXAEAU_finddata64i32_t@@0@Z ENDP ; std::swap<_finddata64i32_t>
; Function compile flags: /Ogtpy
_TEXT	ENDS
;	COMDAT ??$forward@U_open_file@@@std@@YA$$QEAU_open_file@@AEAU1@@Z
_TEXT	SEGMENT
_Arg$ = 8
??$forward@U_open_file@@@std@@YA$$QEAU_open_file@@AEAU1@@Z PROC ; std::forward<_open_file>, COMDAT

; 79   : 	return ((_Ty&&)_Arg);

	mov	rax, rcx

; 80   : 	}

	ret	0
??$forward@U_open_file@@@std@@YA$$QEAU_open_file@@AEAU1@@Z ENDP ; std::forward<_open_file>
; Function compile flags: /Ogtpy
; File c:\program files (x86)\microsoft visual studio 10.0\vc\include\xutility
_TEXT	ENDS
;	COMDAT ??$_Dist_type@PEAU_finddata64i32_t@@@std@@YAPEA_JPEAU_finddata64i32_t@@@Z
_TEXT	SEGMENT
??$_Dist_type@PEAU_finddata64i32_t@@@std@@YAPEA_JPEAU_finddata64i32_t@@@Z PROC ; std::_Dist_type<_finddata64i32_t * __ptr64>, COMDAT

; 850  : 	return (0);

	xor	eax, eax

; 851  : 	}

	ret	0
??$_Dist_type@PEAU_finddata64i32_t@@@std@@YAPEA_JPEAU_finddata64i32_t@@@Z ENDP ; std::_Dist_type<_finddata64i32_t * __ptr64>
_TEXT	ENDS
;	COMDAT pdata
; File c:\program files (x86)\microsoft visual studio 10.0\vc\include\utility
pdata	SEGMENT
$pdata$??$iter_swap@PEAU_finddata64i32_t@@PEAU1@@std@@YAXPEAU_finddata64i32_t@@0@Z DD imagerel $LN11
	DD	imagerel $LN11+91
	DD	imagerel $unwind$??$iter_swap@PEAU_finddata64i32_t@@PEAU1@@std@@YAXPEAU_finddata64i32_t@@0@Z
pdata	ENDS
;	COMDAT xdata
xdata	SEGMENT
$unwind$??$iter_swap@PEAU_finddata64i32_t@@PEAU1@@std@@YAXPEAU_finddata64i32_t@@0@Z DD 050d01H
	DD	02c340dH
	DD	02a010dH
	DD	07006H
; Function compile flags: /Ogtpy
; File c:\program files (x86)\microsoft visual studio 10.0\vc\include\xutility
xdata	ENDS
;	COMDAT ??$iter_swap@PEAU_finddata64i32_t@@PEAU1@@std@@YAXPEAU_finddata64i32_t@@0@Z
_TEXT	SEGMENT
_Tmp$166289 = 32
_Left$ = 352
_Right$ = 360
??$iter_swap@PEAU_finddata64i32_t@@PEAU1@@std@@YAXPEAU_finddata64i32_t@@0@Z PROC ; std::iter_swap<_finddata64i32_t * __ptr64,_finddata64i32_t * __ptr64>, COMDAT

; 2133 : 	{	// swap *_Left and *_Right

$LN11:
	mov	QWORD PTR [rsp+8], rbx
	push	rdi
	sub	rsp, 336				; 00000150H
	mov	rbx, rcx
	mov	rdi, rdx

; 2134 : 	swap(*_Left, *_Right);

	lea	rcx, QWORD PTR _Tmp$166289[rsp]
	mov	rdx, rbx
	mov	r8d, 296				; 00000128H
	call	memcpy
	mov	rcx, rbx
	mov	rdx, rdi
	mov	r8d, 296				; 00000128H
	call	memcpy
	lea	rdx, QWORD PTR _Tmp$166289[rsp]
	mov	rcx, rdi
	mov	r8d, 296				; 00000128H
	call	memcpy

; 2135 : 	}

	mov	rbx, QWORD PTR [rsp+352]
	add	rsp, 336				; 00000150H
	pop	rdi
	ret	0
??$iter_swap@PEAU_finddata64i32_t@@PEAU1@@std@@YAXPEAU_finddata64i32_t@@0@Z ENDP ; std::iter_swap<_finddata64i32_t * __ptr64,_finddata64i32_t * __ptr64>
; Function compile flags: /Ogtpy
_TEXT	ENDS
;	COMDAT ?base@?$_Revranit@V?$_Tree_const_iterator@V?$_Tree_val@V?$_Tset_traits@Ufile@CLocatorAPI@@Ufile_pred@2@V?$xalloc@Ufile@CLocatorAPI@@@@$0A@@std@@@std@@@std@@U?$iterator@Ubidirectional_iterator_tag@std@@Ufile@CLocatorAPI@@_JPEBU34@AEBU34@@2@@std@@QEBA?AV?$_Tree_const_iterator@V?$_Tree_val@V?$_Tset_traits@Ufile@CLocatorAPI@@Ufile_pred@2@V?$xalloc@Ufile@CLocatorAPI@@@@$0A@@std@@@std@@@2@XZ
_TEXT	SEGMENT
this$ = 8
__$ReturnUdt$ = 16
?base@?$_Revranit@V?$_Tree_const_iterator@V?$_Tree_val@V?$_Tset_traits@Ufile@CLocatorAPI@@Ufile_pred@2@V?$xalloc@Ufile@CLocatorAPI@@@@$0A@@std@@@std@@@std@@U?$iterator@Ubidirectional_iterator_tag@std@@Ufile@CLocatorAPI@@_JPEBU34@AEBU34@@2@@std@@QEBA?AV?$_Tree_const_iterator@V?$_Tree_val@V?$_Tset_traits@Ufile@CLocatorAPI@@Ufile_pred@2@V?$xalloc@Ufile@CLocatorAPI@@@@$0A@@std@@@std@@@2@XZ PROC ; std::_Revranit<std::_Tree_const_iterator<std::_Tree_val<std::_Tset_traits<CLocatorAPI::file,CLocatorAPI::file_pred,xalloc<CLocatorAPI::file>,0> > >,std::iterator<std::bidirectional_iterator_tag,CLocatorAPI::file,__int64,CLocatorAPI::file const * __ptr64,CLocatorAPI::file const & __ptr64> >::base, COMDAT

; 1039 : 		return (current);

	mov	rax, QWORD PTR [rcx]
	mov	QWORD PTR [rdx], rax
	mov	rax, rdx

; 1040 : 		}

	ret	0
?base@?$_Revranit@V?$_Tree_const_iterator@V?$_Tree_val@V?$_Tset_traits@Ufile@CLocatorAPI@@Ufile_pred@2@V?$xalloc@Ufile@CLocatorAPI@@@@$0A@@std@@@std@@@std@@U?$iterator@Ubidirectional_iterator_tag@std@@Ufile@CLocatorAPI@@_JPEBU34@AEBU34@@2@@std@@QEBA?AV?$_Tree_const_iterator@V?$_Tree_val@V?$_Tset_traits@Ufile@CLocatorAPI@@Ufile_pred@2@V?$xalloc@Ufile@CLocatorAPI@@@@$0A@@std@@@std@@@2@XZ ENDP ; std::_Revranit<std::_Tree_const_iterator<std::_Tree_val<std::_Tset_traits<CLocatorAPI::file,CLocatorAPI::file_pred,xalloc<CLocatorAPI::file>,0> > >,std::iterator<std::bidirectional_iterator_tag,CLocatorAPI::file,__int64,CLocatorAPI::file const * __ptr64,CLocatorAPI::file const & __ptr64> >::base
; Function compile flags: /Ogtpy
; File c:\program files (x86)\microsoft visual studio 10.0\vc\include\utility
_TEXT	ENDS
;	COMDAT ??$forward@AEAV?$_Tree_iterator@V?$_Tree_val@V?$_Tmap_traits@PEBDPEAVFS_Path@@Upred_str@@V?$xalloc@U?$pair@PEBDPEAVFS_Path@@@std@@@@$0A@@std@@@std@@@std@@@std@@YAAEAV?$_Tree_iterator@V?$_Tree_val@V?$_Tmap_traits@PEBDPEAVFS_Path@@Upred_str@@V?$xalloc@U?$pair@PEBDPEAVFS_Path@@@std@@@@$0A@@std@@@std@@@0@AEAV10@@Z
_TEXT	SEGMENT
_Arg$ = 8
??$forward@AEAV?$_Tree_iterator@V?$_Tree_val@V?$_Tmap_traits@PEBDPEAVFS_Path@@Upred_str@@V?$xalloc@U?$pair@PEBDPEAVFS_Path@@@std@@@@$0A@@std@@@std@@@std@@@std@@YAAEAV?$_Tree_iterator@V?$_Tree_val@V?$_Tmap_traits@PEBDPEAVFS_Path@@Upred_str@@V?$xalloc@U?$pair@PEBDPEAVFS_Path@@@std@@@@$0A@@std@@@std@@@0@AEAV10@@Z PROC ; std::forward<std::_Tree_iterator<std::_Tree_val<std::_Tmap_traits<char const * __ptr64,FS_Path * __ptr64,pred_str,xalloc<std::pair<char const * __ptr64,FS_Path * __ptr64> >,0> > > & __ptr64>, COMDAT

; 79   : 	return ((_Ty&&)_Arg);

	mov	rax, rcx

; 80   : 	}

	ret	0
??$forward@AEAV?$_Tree_iterator@V?$_Tree_val@V?$_Tmap_traits@PEBDPEAVFS_Path@@Upred_str@@V?$xalloc@U?$pair@PEBDPEAVFS_Path@@@std@@@@$0A@@std@@@std@@@std@@@std@@YAAEAV?$_Tree_iterator@V?$_Tree_val@V?$_Tmap_traits@PEBDPEAVFS_Path@@Upred_str@@V?$xalloc@U?$pair@PEBDPEAVFS_Path@@@std@@@@$0A@@std@@@std@@@0@AEAV10@@Z ENDP ; std::forward<std::_Tree_iterator<std::_Tree_val<std::_Tmap_traits<char const * __ptr64,FS_Path * __ptr64,pred_str,xalloc<std::pair<char const * __ptr64,FS_Path * __ptr64> >,0> > > & __ptr64>
; Function compile flags: /Ogtpy
_TEXT	ENDS
;	COMDAT ??$forward@AEAV?$_Tree_const_iterator@V?$_Tree_val@V?$_Tset_traits@UFS_File@@U?$less@UFS_File@@@std@@V?$xalloc@UFS_File@@@@$0A@@std@@@std@@@std@@@std@@YAAEAV?$_Tree_const_iterator@V?$_Tree_val@V?$_Tset_traits@UFS_File@@U?$less@UFS_File@@@std@@V?$xalloc@UFS_File@@@@$0A@@std@@@std@@@0@AEAV10@@Z
_TEXT	SEGMENT
_Arg$ = 8
??$forward@AEAV?$_Tree_const_iterator@V?$_Tree_val@V?$_Tset_traits@UFS_File@@U?$less@UFS_File@@@std@@V?$xalloc@UFS_File@@@@$0A@@std@@@std@@@std@@@std@@YAAEAV?$_Tree_const_iterator@V?$_Tree_val@V?$_Tset_traits@UFS_File@@U?$less@UFS_File@@@std@@V?$xalloc@UFS_File@@@@$0A@@std@@@std@@@0@AEAV10@@Z PROC ; std::forward<std::_Tree_const_iterator<std::_Tree_val<std::_Tset_traits<FS_File,std::less<FS_File>,xalloc<FS_File>,0> > > & __ptr64>, COMDAT

; 79   : 	return ((_Ty&&)_Arg);

	mov	rax, rcx

; 80   : 	}

	ret	0
??$forward@AEAV?$_Tree_const_iterator@V?$_Tree_val@V?$_Tset_traits@UFS_File@@U?$less@UFS_File@@@std@@V?$xalloc@UFS_File@@@@$0A@@std@@@std@@@std@@@std@@YAAEAV?$_Tree_const_iterator@V?$_Tree_val@V?$_Tset_traits@UFS_File@@U?$less@UFS_File@@@std@@V?$xalloc@UFS_File@@@@$0A@@std@@@std@@@0@AEAV10@@Z ENDP ; std::forward<std::_Tree_const_iterator<std::_Tree_val<std::_Tset_traits<FS_File,std::less<FS_File>,xalloc<FS_File>,0> > > & __ptr64>
; Function compile flags: /Ogtpy
; File c:\program files (x86)\microsoft visual studio 10.0\vc\include\xutility
_TEXT	ENDS
;	COMDAT ??$_Val_type@PEAUarchive@CLocatorAPI@@@std@@YAPEAUarchive@CLocatorAPI@@PEAU12@@Z
_TEXT	SEGMENT
??$_Val_type@PEAUarchive@CLocatorAPI@@@std@@YAPEAUarchive@CLocatorAPI@@PEAU12@@Z PROC ; std::_Val_type<CLocatorAPI::archive * __ptr64>, COMDAT

; 790  : 	return (0);

	xor	eax, eax

; 791  : 	}

	ret	0
??$_Val_type@PEAUarchive@CLocatorAPI@@@std@@YAPEAUarchive@CLocatorAPI@@PEAU12@@Z ENDP ; std::_Val_type<CLocatorAPI::archive * __ptr64>
; Function compile flags: /Ogtpy
; File c:\program files (x86)\microsoft visual studio 10.0\vc\include\utility
_TEXT	ENDS
;	COMDAT ??$move@AEAU_open_file@@@std@@YA$$QEAU_open_file@@AEAU1@@Z
_TEXT	SEGMENT
_Arg$ = 8
??$move@AEAU_open_file@@@std@@YA$$QEAU_open_file@@AEAU1@@Z PROC ; std::move<_open_file & __ptr64>, COMDAT

; 87   : 	return ((typename tr1::_Remove_reference<_Ty>::_Type&&)_Arg);

	mov	rax, rcx

; 88   : 	}

	ret	0
??$move@AEAU_open_file@@@std@@YA$$QEAU_open_file@@AEAU1@@Z ENDP ; std::move<_open_file & __ptr64>
; Function compile flags: /Ogtpy
; File c:\program files (x86)\microsoft visual studio 10.0\vc\include\xutility
_TEXT	ENDS
;	COMDAT ??$_Val_type@PEAU_finddata64i32_t@@@std@@YAPEAU_finddata64i32_t@@PEAU1@@Z
_TEXT	SEGMENT
??$_Val_type@PEAU_finddata64i32_t@@@std@@YAPEAU_finddata64i32_t@@PEAU1@@Z PROC ; std::_Val_type<_finddata64i32_t * __ptr64>, COMDAT

; 790  : 	return (0);

	xor	eax, eax

; 791  : 	}

	ret	0
??$_Val_type@PEAU_finddata64i32_t@@@std@@YAPEAU_finddata64i32_t@@PEAU1@@Z ENDP ; std::_Val_type<_finddata64i32_t * __ptr64>
; Function compile flags: /Ogtpy
; File c:\program files (x86)\microsoft visual studio 10.0\vc\include\utility
_TEXT	ENDS
;	COMDAT ??$forward@AEAPEAVFS_Path@@@std@@YAAEAPEAVFS_Path@@AEAPEAV1@@Z
_TEXT	SEGMENT
_Arg$ = 8
??$forward@AEAPEAVFS_Path@@@std@@YAAEAPEAVFS_Path@@AEAPEAV1@@Z PROC ; std::forward<FS_Path * __ptr64 & __ptr64>, COMDAT

; 79   : 	return ((_Ty&&)_Arg);

	mov	rax, rcx

; 80   : 	}

	ret	0
??$forward@AEAPEAVFS_Path@@@std@@YAAEAPEAVFS_Path@@AEAPEAV1@@Z ENDP ; std::forward<FS_Path * __ptr64 & __ptr64>
; Function compile flags: /Ogtpy
; File c:\program files (x86)\microsoft visual studio 10.0\vc\include\vector
_TEXT	ENDS
;	COMDAT ?_Unchecked@?$_Vector_iterator@V?$_Vector_val@U_open_file@@V?$xalloc@U_open_file@@@@@std@@@std@@QEBAPEAU_open_file@@XZ
_TEXT	SEGMENT
this$ = 8
?_Unchecked@?$_Vector_iterator@V?$_Vector_val@U_open_file@@V?$xalloc@U_open_file@@@@@std@@@std@@QEBAPEAU_open_file@@XZ PROC ; std::_Vector_iterator<std::_Vector_val<_open_file,xalloc<_open_file> > >::_Unchecked, COMDAT

; 317  : 		return (_Unchecked_type(this->_Ptr));

	mov	rax, QWORD PTR [rcx]

; 318  : 		}

	ret	0
?_Unchecked@?$_Vector_iterator@V?$_Vector_val@U_open_file@@V?$xalloc@U_open_file@@@@@std@@@std@@QEBAPEAU_open_file@@XZ ENDP ; std::_Vector_iterator<std::_Vector_val<_open_file,xalloc<_open_file> > >::_Unchecked
; Function compile flags: /Ogtpy
_TEXT	ENDS
;	COMDAT ?_Rechecked@?$_Vector_iterator@V?$_Vector_val@U_open_file@@V?$xalloc@U_open_file@@@@@std@@@std@@QEAAAEAV12@PEAU_open_file@@@Z
_TEXT	SEGMENT
this$ = 8
_Right$ = 16
?_Rechecked@?$_Vector_iterator@V?$_Vector_val@U_open_file@@V?$xalloc@U_open_file@@@@@std@@@std@@QEAAAEAV12@PEAU_open_file@@@Z PROC ; std::_Vector_iterator<std::_Vector_val<_open_file,xalloc<_open_file> > >::_Rechecked, COMDAT

; 311  : 		this->_Ptr = _Right;

	mov	QWORD PTR [rcx], rdx

; 312  : 		return (*this);

	mov	rax, rcx

; 313  : 		}

	ret	0
?_Rechecked@?$_Vector_iterator@V?$_Vector_val@U_open_file@@V?$xalloc@U_open_file@@@@@std@@@std@@QEAAAEAV12@PEAU_open_file@@@Z ENDP ; std::_Vector_iterator<std::_Vector_val<_open_file,xalloc<_open_file> > >::_Rechecked
; Function compile flags: /Ogtpy
; File c:\program files (x86)\microsoft visual studio 10.0\vc\include\utility
_TEXT	ENDS
;	COMDAT ??$move@AEAV?$_Tree_const_iterator@V?$_Tree_val@V?$_Tset_traits@UFS_File@@U?$less@UFS_File@@@std@@V?$xalloc@UFS_File@@@@$0A@@std@@@std@@@std@@@std@@YA$$QEAV?$_Tree_const_iterator@V?$_Tree_val@V?$_Tset_traits@UFS_File@@U?$less@UFS_File@@@std@@V?$xalloc@UFS_File@@@@$0A@@std@@@std@@@0@AEAV10@@Z
_TEXT	SEGMENT
_Arg$ = 8
??$move@AEAV?$_Tree_const_iterator@V?$_Tree_val@V?$_Tset_traits@UFS_File@@U?$less@UFS_File@@@std@@V?$xalloc@UFS_File@@@@$0A@@std@@@std@@@std@@@std@@YA$$QEAV?$_Tree_const_iterator@V?$_Tree_val@V?$_Tset_traits@UFS_File@@U?$less@UFS_File@@@std@@V?$xalloc@UFS_File@@@@$0A@@std@@@std@@@0@AEAV10@@Z PROC ; std::move<std::_Tree_const_iterator<std::_Tree_val<std::_Tset_traits<FS_File,std::less<FS_File>,xalloc<FS_File>,0> > > & __ptr64>, COMDAT

; 87   : 	return ((typename tr1::_Remove_reference<_Ty>::_Type&&)_Arg);

	mov	rax, rcx

; 88   : 	}

	ret	0
??$move@AEAV?$_Tree_const_iterator@V?$_Tree_val@V?$_Tset_traits@UFS_File@@U?$less@UFS_File@@@std@@V?$xalloc@UFS_File@@@@$0A@@std@@@std@@@std@@@std@@YA$$QEAV?$_Tree_const_iterator@V?$_Tree_val@V?$_Tset_traits@UFS_File@@U?$less@UFS_File@@@std@@V?$xalloc@UFS_File@@@@$0A@@std@@@std@@@0@AEAV10@@Z ENDP ; std::move<std::_Tree_const_iterator<std::_Tree_val<std::_Tset_traits<FS_File,std::less<FS_File>,xalloc<FS_File>,0> > > & __ptr64>
; Function compile flags: /Ogtpy
_TEXT	ENDS
;	COMDAT ??$forward@AEAV?$_Tree_const_iterator@V?$_Tree_val@V?$_Tset_traits@Ufile@CLocatorAPI@@Ufile_pred@2@V?$xalloc@Ufile@CLocatorAPI@@@@$0A@@std@@@std@@@std@@@std@@YAAEAV?$_Tree_const_iterator@V?$_Tree_val@V?$_Tset_traits@Ufile@CLocatorAPI@@Ufile_pred@2@V?$xalloc@Ufile@CLocatorAPI@@@@$0A@@std@@@std@@@0@AEAV10@@Z
_TEXT	SEGMENT
_Arg$ = 8
??$forward@AEAV?$_Tree_const_iterator@V?$_Tree_val@V?$_Tset_traits@Ufile@CLocatorAPI@@Ufile_pred@2@V?$xalloc@Ufile@CLocatorAPI@@@@$0A@@std@@@std@@@std@@@std@@YAAEAV?$_Tree_const_iterator@V?$_Tree_val@V?$_Tset_traits@Ufile@CLocatorAPI@@Ufile_pred@2@V?$xalloc@Ufile@CLocatorAPI@@@@$0A@@std@@@std@@@0@AEAV10@@Z PROC ; std::forward<std::_Tree_const_iterator<std::_Tree_val<std::_Tset_traits<CLocatorAPI::file,CLocatorAPI::file_pred,xalloc<CLocatorAPI::file>,0> > > & __ptr64>, COMDAT

; 79   : 	return ((_Ty&&)_Arg);

	mov	rax, rcx

; 80   : 	}

	ret	0
??$forward@AEAV?$_Tree_const_iterator@V?$_Tree_val@V?$_Tset_traits@Ufile@CLocatorAPI@@Ufile_pred@2@V?$xalloc@Ufile@CLocatorAPI@@@@$0A@@std@@@std@@@std@@@std@@YAAEAV?$_Tree_const_iterator@V?$_Tree_val@V?$_Tset_traits@Ufile@CLocatorAPI@@Ufile_pred@2@V?$xalloc@Ufile@CLocatorAPI@@@@$0A@@std@@@std@@@0@AEAV10@@Z ENDP ; std::forward<std::_Tree_const_iterator<std::_Tree_val<std::_Tset_traits<CLocatorAPI::file,CLocatorAPI::file_pred,xalloc<CLocatorAPI::file>,0> > > & __ptr64>
; Function compile flags: /Ogtpy
; File c:\program files (x86)\microsoft visual studio 10.0\vc\include\xutility
_TEXT	ENDS
;	COMDAT ??$_Ptr_cat@U_open_file@@U1@@std@@YA?AU_Nonscalar_ptr_iterator_tag@0@PEAU_open_file@@0@Z
_TEXT	SEGMENT
_Cat$ = 8
??$_Ptr_cat@U_open_file@@U1@@std@@YA?AU_Nonscalar_ptr_iterator_tag@0@PEAU_open_file@@0@Z PROC ; std::_Ptr_cat<_open_file,_open_file>, COMDAT

; 517  : 	typename _Ptr_cat_helper<_Elem1, _Elem2>::_Type _Cat;
; 518  : 	return (_Cat);

	movzx	eax, BYTE PTR _Cat$[rsp]

; 519  : 	}

	ret	0
??$_Ptr_cat@U_open_file@@U1@@std@@YA?AU_Nonscalar_ptr_iterator_tag@0@PEAU_open_file@@0@Z ENDP ; std::_Ptr_cat<_open_file,_open_file>
; Function compile flags: /Ogtpy
_TEXT	ENDS
;	COMDAT ??$_Val_type@PEAU_open_file@@@std@@YAPEAU_open_file@@PEAU1@@Z
_TEXT	SEGMENT
??$_Val_type@PEAU_open_file@@@std@@YAPEAU_open_file@@PEAU1@@Z PROC ; std::_Val_type<_open_file * __ptr64>, COMDAT

; 790  : 	return (0);

	xor	eax, eax

; 791  : 	}

	ret	0
??$_Val_type@PEAU_open_file@@@std@@YAPEAU_open_file@@PEAU1@@Z ENDP ; std::_Val_type<_open_file * __ptr64>
; Function compile flags: /Ogtpy
_TEXT	ENDS
;	COMDAT ??$_Iter_cat@V?$_Tree_const_iterator@V?$_Tree_val@V?$_Tset_traits@Ufile@CLocatorAPI@@Ufile_pred@2@V?$xalloc@Ufile@CLocatorAPI@@@@$0A@@std@@@std@@@std@@@std@@YA?AUbidirectional_iterator_tag@0@AEBV?$_Tree_const_iterator@V?$_Tree_val@V?$_Tset_traits@Ufile@CLocatorAPI@@Ufile_pred@2@V?$xalloc@Ufile@CLocatorAPI@@@@$0A@@std@@@std@@@0@@Z
_TEXT	SEGMENT
__$ReturnUdt$ = 8
??$_Iter_cat@V?$_Tree_const_iterator@V?$_Tree_val@V?$_Tset_traits@Ufile@CLocatorAPI@@Ufile_pred@2@V?$xalloc@Ufile@CLocatorAPI@@@@$0A@@std@@@std@@@std@@@std@@YA?AUbidirectional_iterator_tag@0@AEBV?$_Tree_const_iterator@V?$_Tree_val@V?$_Tset_traits@Ufile@CLocatorAPI@@Ufile_pred@2@V?$xalloc@Ufile@CLocatorAPI@@@@$0A@@std@@@std@@@0@@Z PROC ; std::_Iter_cat<std::_Tree_const_iterator<std::_Tree_val<std::_Tset_traits<CLocatorAPI::file,CLocatorAPI::file_pred,xalloc<CLocatorAPI::file>,0> > > >, COMDAT

; 477  : 	typename iterator_traits<_Iter>::iterator_category _Cat;
; 478  : 	return (_Cat);

	mov	rax, rcx

; 479  : 	}

	ret	0
??$_Iter_cat@V?$_Tree_const_iterator@V?$_Tree_val@V?$_Tset_traits@Ufile@CLocatorAPI@@Ufile_pred@2@V?$xalloc@Ufile@CLocatorAPI@@@@$0A@@std@@@std@@@std@@@std@@YA?AUbidirectional_iterator_tag@0@AEBV?$_Tree_const_iterator@V?$_Tree_val@V?$_Tset_traits@Ufile@CLocatorAPI@@Ufile_pred@2@V?$xalloc@Ufile@CLocatorAPI@@@@$0A@@std@@@std@@@0@@Z ENDP ; std::_Iter_cat<std::_Tree_const_iterator<std::_Tree_val<std::_Tset_traits<CLocatorAPI::file,CLocatorAPI::file_pred,xalloc<CLocatorAPI::file>,0> > > >
; Function compile flags: /Ogtpy
; File c:\program files (x86)\microsoft visual studio 10.0\vc\include\utility
_TEXT	ENDS
;	COMDAT ??$forward@UFS_File@@@std@@YA$$QEAUFS_File@@AEAU1@@Z
_TEXT	SEGMENT
_Arg$ = 8
??$forward@UFS_File@@@std@@YA$$QEAUFS_File@@AEAU1@@Z PROC ; std::forward<FS_File>, COMDAT

; 79   : 	return ((_Ty&&)_Arg);

	mov	rax, rcx

; 80   : 	}

	ret	0
??$forward@UFS_File@@@std@@YA$$QEAUFS_File@@AEAU1@@Z ENDP ; std::forward<FS_File>
; Function compile flags: /Ogtpy
_TEXT	ENDS
;	COMDAT ??$forward@U?$pair@PEADPEAVFS_Path@@@std@@@std@@YA$$QEAU?$pair@PEADPEAVFS_Path@@@0@AEAU10@@Z
_TEXT	SEGMENT
_Arg$ = 8
??$forward@U?$pair@PEADPEAVFS_Path@@@std@@@std@@YA$$QEAU?$pair@PEADPEAVFS_Path@@@0@AEAU10@@Z PROC ; std::forward<std::pair<char * __ptr64,FS_Path * __ptr64> >, COMDAT

; 79   : 	return ((_Ty&&)_Arg);

	mov	rax, rcx

; 80   : 	}

	ret	0
??$forward@U?$pair@PEADPEAVFS_Path@@@std@@@std@@YA$$QEAU?$pair@PEADPEAVFS_Path@@@0@AEAU10@@Z ENDP ; std::forward<std::pair<char * __ptr64,FS_Path * __ptr64> >
; Function compile flags: /Ogtpy
; File c:\program files (x86)\microsoft visual studio 10.0\vc\include\xutility
_TEXT	ENDS
;	COMDAT ??$_Rechecked@PEAU_finddata64i32_t@@PEAU1@@std@@YAAEAPEAU_finddata64i32_t@@AEAPEAU1@PEAU1@@Z
_TEXT	SEGMENT
_Dest$ = 8
_Src$ = 16
??$_Rechecked@PEAU_finddata64i32_t@@PEAU1@@std@@YAAEAPEAU_finddata64i32_t@@AEAPEAU1@PEAU1@@Z PROC ; std::_Rechecked<_finddata64i32_t * __ptr64,_finddata64i32_t * __ptr64>, COMDAT

; 275  : 	_Dest = _Src;

	mov	QWORD PTR [rcx], rdx

; 276  : 	return (_Dest);

	mov	rax, rcx

; 277  : 	}

	ret	0
??$_Rechecked@PEAU_finddata64i32_t@@PEAU1@@std@@YAAEAPEAU_finddata64i32_t@@AEAPEAU1@PEAU1@@Z ENDP ; std::_Rechecked<_finddata64i32_t * __ptr64,_finddata64i32_t * __ptr64>
; Function compile flags: /Ogtpy
_TEXT	ENDS
;	COMDAT ??$_Unchecked@PEAU_finddata64i32_t@@@std@@YAPEAU_finddata64i32_t@@PEAU1@@Z
_TEXT	SEGMENT
_Src$ = 8
??$_Unchecked@PEAU_finddata64i32_t@@@std@@YAPEAU_finddata64i32_t@@PEAU1@@Z PROC ; std::_Unchecked<_finddata64i32_t * __ptr64>, COMDAT

; 267  : 	return (_Src);

	mov	rax, rcx

; 268  : 	}

	ret	0
??$_Unchecked@PEAU_finddata64i32_t@@@std@@YAPEAU_finddata64i32_t@@PEAU1@@Z ENDP ; std::_Unchecked<_finddata64i32_t * __ptr64>
; Function compile flags: /Ogtpy
; File c:\program files (x86)\microsoft visual studio 10.0\vc\include\vector
_TEXT	ENDS
;	COMDAT ??$_Rechecked@V?$_Vector_val@U_open_file@@V?$xalloc@U_open_file@@@@@std@@@std@@YAAEAV?$_Vector_iterator@V?$_Vector_val@U_open_file@@V?$xalloc@U_open_file@@@@@std@@@0@AEAV10@PEAU_open_file@@@Z
_TEXT	SEGMENT
_Iter$ = 8
_Right$ = 16
??$_Rechecked@V?$_Vector_val@U_open_file@@V?$xalloc@U_open_file@@@@@std@@@std@@YAAEAV?$_Vector_iterator@V?$_Vector_val@U_open_file@@V?$xalloc@U_open_file@@@@@std@@@0@AEAV10@PEAU_open_file@@@Z PROC ; std::_Rechecked<std::_Vector_val<_open_file,xalloc<_open_file> > >, COMDAT

; 403  : 	return (_Iter._Rechecked(_Right));

	mov	QWORD PTR [rcx], rdx
	mov	rax, rcx

; 404  : 	}

	ret	0
??$_Rechecked@V?$_Vector_val@U_open_file@@V?$xalloc@U_open_file@@@@@std@@@std@@YAAEAV?$_Vector_iterator@V?$_Vector_val@U_open_file@@V?$xalloc@U_open_file@@@@@std@@@0@AEAV10@PEAU_open_file@@@Z ENDP ; std::_Rechecked<std::_Vector_val<_open_file,xalloc<_open_file> > >
; Function compile flags: /Ogtpy
_TEXT	ENDS
;	COMDAT ??$_Unchecked@V?$_Vector_val@U_open_file@@V?$xalloc@U_open_file@@@@@std@@@std@@YAPEAU_open_file@@V?$_Vector_iterator@V?$_Vector_val@U_open_file@@V?$xalloc@U_open_file@@@@@std@@@0@@Z
_TEXT	SEGMENT
_Iter$ = 8
??$_Unchecked@V?$_Vector_val@U_open_file@@V?$xalloc@U_open_file@@@@@std@@@std@@YAPEAU_open_file@@V?$_Vector_iterator@V?$_Vector_val@U_open_file@@V?$xalloc@U_open_file@@@@@std@@@0@@Z PROC ; std::_Unchecked<std::_Vector_val<_open_file,xalloc<_open_file> > >, COMDAT

; 394  : 	return (_Iter._Unchecked());

	mov	rax, rcx

; 395  : 	}

	ret	0
??$_Unchecked@V?$_Vector_val@U_open_file@@V?$xalloc@U_open_file@@@@@std@@@std@@YAPEAU_open_file@@V?$_Vector_iterator@V?$_Vector_val@U_open_file@@V?$xalloc@U_open_file@@@@@std@@@0@@Z ENDP ; std::_Unchecked<std::_Vector_val<_open_file,xalloc<_open_file> > >
; Function compile flags: /Ogtpy
; File c:\users\nummer\documents\github\olr-3.0\src\xray\xrcore\_stl_extensions.h
_TEXT	ENDS
;	COMDAT ?max_size@?$xalloc@U?$pair@QEBDPEAVFS_Path@@@std@@@@QEBA_KXZ
_TEXT	SEGMENT
?max_size@?$xalloc@U?$pair@QEBDPEAVFS_Path@@@std@@@@QEBA_KXZ PROC ; xalloc<std::pair<char const * __ptr64 const,FS_Path * __ptr64> >::max_size, COMDAT

; 86   : 							size_type				max_size		() const								{	size_type _Count = (size_type)(-1) / sizeof (T);	return (0 < _Count ? _Count : 1);	}

	mov	rax, 1152921504606846975		; 0fffffffffffffffH
	ret	0
?max_size@?$xalloc@U?$pair@QEBDPEAVFS_Path@@@std@@@@QEBA_KXZ ENDP ; xalloc<std::pair<char const * __ptr64 const,FS_Path * __ptr64> >::max_size
; Function compile flags: /Ogtpy
_TEXT	ENDS
;	COMDAT ?max_size@?$xalloc@UFS_File@@@@QEBA_KXZ
_TEXT	SEGMENT
?max_size@?$xalloc@UFS_File@@@@QEBA_KXZ PROC		; xalloc<FS_File>::max_size, COMDAT

; 86   : 							size_type				max_size		() const								{	size_type _Count = (size_type)(-1) / sizeof (T);	return (0 < _Count ? _Count : 1);	}

	mov	rax, 288230376151711743			; 03ffffffffffffffH
	ret	0
?max_size@?$xalloc@UFS_File@@@@QEBA_KXZ ENDP		; xalloc<FS_File>::max_size
; Function compile flags: /Ogtpy
_TEXT	ENDS
;	COMDAT ??0?$xalloc@PEAD@@QEAA@AEBV0@@Z
_TEXT	SEGMENT
this$ = 8
??0?$xalloc@PEAD@@QEAA@AEBV0@@Z PROC			; xalloc<char * __ptr64>::xalloc<char * __ptr64>, COMDAT

; 77   : 													xalloc			(const xalloc<T>&)						{	}

	mov	rax, rcx
	ret	0
??0?$xalloc@PEAD@@QEAA@AEBV0@@Z ENDP			; xalloc<char * __ptr64>::xalloc<char * __ptr64>
; Function compile flags: /Ogtpy
; File c:\program files (x86)\microsoft visual studio 10.0\vc\include\xtree
_TEXT	ENDS
;	COMDAT ?max_size@?$_Tree@V?$_Tmap_traits@PEBDPEAVFS_Path@@Upred_str@@V?$xalloc@U?$pair@PEBDPEAVFS_Path@@@std@@@@$0A@@std@@@std@@QEBA_KXZ
_TEXT	SEGMENT
?max_size@?$_Tree@V?$_Tmap_traits@PEBDPEAVFS_Path@@Upred_str@@V?$xalloc@U?$pair@PEBDPEAVFS_Path@@@std@@@@$0A@@std@@@std@@QEBA_KXZ PROC ; std::_Tree<std::_Tmap_traits<char const * __ptr64,FS_Path * __ptr64,pred_str,xalloc<std::pair<char const * __ptr64,FS_Path * __ptr64> >,0> >::max_size, COMDAT

; 874  : 		return (this->_Alval.max_size());

	mov	rax, 1152921504606846975		; 0fffffffffffffffH

; 875  : 		}

	ret	0
?max_size@?$_Tree@V?$_Tmap_traits@PEBDPEAVFS_Path@@Upred_str@@V?$xalloc@U?$pair@PEBDPEAVFS_Path@@@std@@@@$0A@@std@@@std@@QEBA_KXZ ENDP ; std::_Tree<std::_Tmap_traits<char const * __ptr64,FS_Path * __ptr64,pred_str,xalloc<std::pair<char const * __ptr64,FS_Path * __ptr64> >,0> >::max_size
; Function compile flags: /Ogtpy
_TEXT	ENDS
;	COMDAT ?max_size@?$_Tree@V?$_Tset_traits@UFS_File@@U?$less@UFS_File@@@std@@V?$xalloc@UFS_File@@@@$0A@@std@@@std@@QEBA_KXZ
_TEXT	SEGMENT
?max_size@?$_Tree@V?$_Tset_traits@UFS_File@@U?$less@UFS_File@@@std@@V?$xalloc@UFS_File@@@@$0A@@std@@@std@@QEBA_KXZ PROC ; std::_Tree<std::_Tset_traits<FS_File,std::less<FS_File>,xalloc<FS_File>,0> >::max_size, COMDAT

; 874  : 		return (this->_Alval.max_size());

	mov	rax, 288230376151711743			; 03ffffffffffffffH

; 875  : 		}

	ret	0
?max_size@?$_Tree@V?$_Tset_traits@UFS_File@@U?$less@UFS_File@@@std@@V?$xalloc@UFS_File@@@@$0A@@std@@@std@@QEBA_KXZ ENDP ; std::_Tree<std::_Tset_traits<FS_File,std::less<FS_File>,xalloc<FS_File>,0> >::max_size
; Function compile flags: /Ogtpy
; File c:\users\nummer\documents\github\olr-3.0\src\xray\xrcore\_stl_extensions.h
_TEXT	ENDS
;	COMDAT ??0?$xalloc@PEAD@@QEAA@XZ
_TEXT	SEGMENT
this$ = 8
??0?$xalloc@PEAD@@QEAA@XZ PROC				; xalloc<char * __ptr64>::xalloc<char * __ptr64>, COMDAT

; 76   : 													xalloc			()										{	}

	mov	rax, rcx
	ret	0
??0?$xalloc@PEAD@@QEAA@XZ ENDP				; xalloc<char * __ptr64>::xalloc<char * __ptr64>
; Function compile flags: /Ogtpy
; File c:\program files (x86)\microsoft visual studio 10.0\vc\include\vector
_TEXT	ENDS
;	COMDAT ??1?$_Vector_val@PEADV?$xalloc@PEAD@@@std@@QEAA@XZ
_TEXT	SEGMENT
??1?$_Vector_val@PEADV?$xalloc@PEAD@@@std@@QEAA@XZ PROC	; std::_Vector_val<char * __ptr64,xalloc<char * __ptr64> >::~_Vector_val<char * __ptr64,xalloc<char * __ptr64> >, COMDAT

; 434  : 		}

	ret	0
??1?$_Vector_val@PEADV?$xalloc@PEAD@@@std@@QEAA@XZ ENDP	; std::_Vector_val<char * __ptr64,xalloc<char * __ptr64> >::~_Vector_val<char * __ptr64,xalloc<char * __ptr64> >
; Function compile flags: /Ogtpy
_TEXT	ENDS
;	COMDAT ??0?$_Vector_val@PEADV?$xalloc@PEAD@@@std@@QEAA@V?$xalloc@PEAD@@@Z
_TEXT	SEGMENT
this$ = 8
??0?$_Vector_val@PEADV?$xalloc@PEAD@@@std@@QEAA@V?$xalloc@PEAD@@@Z PROC ; std::_Vector_val<char * __ptr64,xalloc<char * __ptr64> >::_Vector_val<char * __ptr64,xalloc<char * __ptr64> >, COMDAT

; 427  : 		_Myfirst = 0;

	xor	eax, eax
	mov	QWORD PTR [rcx], rax

; 428  : 		_Mylast = 0;

	mov	QWORD PTR [rcx+8], rax

; 429  : 		_Myend = 0;

	mov	QWORD PTR [rcx+16], rax

; 430  : 		}

	mov	rax, rcx
	ret	0
??0?$_Vector_val@PEADV?$xalloc@PEAD@@@std@@QEAA@V?$xalloc@PEAD@@@Z ENDP ; std::_Vector_val<char * __ptr64,xalloc<char * __ptr64> >::_Vector_val<char * __ptr64,xalloc<char * __ptr64> >
; Function compile flags: /Ogtpy
; File c:\program files (x86)\microsoft visual studio 10.0\vc\include\set
_TEXT	ENDS
;	COMDAT ?_Kfn@?$_Tset_traits@UFS_File@@U?$less@UFS_File@@@std@@V?$xalloc@UFS_File@@@@$0A@@std@@SAAEBUFS_File@@AEBU3@@Z
_TEXT	SEGMENT
_Val$ = 8
?_Kfn@?$_Tset_traits@UFS_File@@U?$less@UFS_File@@@std@@V?$xalloc@UFS_File@@@@$0A@@std@@SAAEBUFS_File@@AEBU3@@Z PROC ; std::_Tset_traits<FS_File,std::less<FS_File>,xalloc<FS_File>,0>::_Kfn, COMDAT

; 46   : 		return (_Val);

	mov	rax, rcx

; 47   : 		}

	ret	0
?_Kfn@?$_Tset_traits@UFS_File@@U?$less@UFS_File@@@std@@V?$xalloc@UFS_File@@@@$0A@@std@@SAAEBUFS_File@@AEBU3@@Z ENDP ; std::_Tset_traits<FS_File,std::less<FS_File>,xalloc<FS_File>,0>::_Kfn
; Function compile flags: /Ogtpy
; File c:\program files (x86)\microsoft visual studio 10.0\vc\include\vector
_TEXT	ENDS
;	COMDAT ??0?$vector@PEADV?$xalloc@PEAD@@@std@@QEAA@XZ
_TEXT	SEGMENT
this$ = 8
??0?$vector@PEADV?$xalloc@PEAD@@@std@@QEAA@XZ PROC	; std::vector<char * __ptr64,xalloc<char * __ptr64> >::vector<char * __ptr64,xalloc<char * __ptr64> >, COMDAT

; 507  : 		{	// construct empty vector

	xor	eax, eax
	mov	QWORD PTR [rcx], rax
	mov	QWORD PTR [rcx+8], rax
	mov	QWORD PTR [rcx+16], rax

; 508  : 		}

	mov	rax, rcx
	ret	0
??0?$vector@PEADV?$xalloc@PEAD@@@std@@QEAA@XZ ENDP	; std::vector<char * __ptr64,xalloc<char * __ptr64> >::vector<char * __ptr64,xalloc<char * __ptr64> >
; Function compile flags: /Ogtpy
; File c:\users\nummer\documents\github\olr-3.0\src\xray\xrcore\_stl_extensions.h
_TEXT	ENDS
;	COMDAT ??$?0UFS_File@@@?$xalloc@U_Node@?$_Tree_nod@V?$_Tset_traits@UFS_File@@U?$less@UFS_File@@@std@@V?$xalloc@UFS_File@@@@$0A@@std@@@std@@@@QEAA@AEBV?$xalloc@UFS_File@@@@@Z
_TEXT	SEGMENT
this$ = 8
??$?0UFS_File@@@?$xalloc@U_Node@?$_Tree_nod@V?$_Tset_traits@UFS_File@@U?$less@UFS_File@@@std@@V?$xalloc@UFS_File@@@@$0A@@std@@@std@@@@QEAA@AEBV?$xalloc@UFS_File@@@@@Z PROC ; xalloc<std::_Tree_nod<std::_Tset_traits<FS_File,std::less<FS_File>,xalloc<FS_File>,0> >::_Node>::xalloc<std::_Tree_nod<std::_Tset_traits<FS_File,std::less<FS_File>,xalloc<FS_File>,0> >::_Node><FS_File>, COMDAT

; 78   : 	template<class _Other>							xalloc			(const xalloc<_Other>&)					{	}

	mov	rax, rcx
	ret	0
??$?0UFS_File@@@?$xalloc@U_Node@?$_Tree_nod@V?$_Tset_traits@UFS_File@@U?$less@UFS_File@@@std@@V?$xalloc@UFS_File@@@@$0A@@std@@@std@@@@QEAA@AEBV?$xalloc@UFS_File@@@@@Z ENDP ; xalloc<std::_Tree_nod<std::_Tset_traits<FS_File,std::less<FS_File>,xalloc<FS_File>,0> >::_Node>::xalloc<std::_Tree_nod<std::_Tset_traits<FS_File,std::less<FS_File>,xalloc<FS_File>,0> >::_Node><FS_File>
; Function compile flags: /Ogtpy
; File c:\program files (x86)\microsoft visual studio 10.0\vc\include\xmemory
_TEXT	ENDS
;	COMDAT ??$addressof@UFS_File@@@std@@YAPEAUFS_File@@AEAU1@@Z
_TEXT	SEGMENT
_Val$ = 8
??$addressof@UFS_File@@@std@@YAPEAUFS_File@@AEAU1@@Z PROC ; std::addressof<FS_File>, COMDAT

; 111  : 	return ((_Ty *) &(char&)_Val);

	mov	rax, rcx

; 112  : 	}

	ret	0
??$addressof@UFS_File@@@std@@YAPEAUFS_File@@AEAU1@@Z ENDP ; std::addressof<FS_File>
; Function compile flags: /Ogtpy
; File c:\program files (x86)\microsoft visual studio 10.0\vc\include\utility
_TEXT	ENDS
;	COMDAT ??$move@AEAV?$_Tree_const_iterator@V?$_Tree_val@V?$_Tset_traits@Ufile@CLocatorAPI@@Ufile_pred@2@V?$xalloc@Ufile@CLocatorAPI@@@@$0A@@std@@@std@@@std@@@std@@YA$$QEAV?$_Tree_const_iterator@V?$_Tree_val@V?$_Tset_traits@Ufile@CLocatorAPI@@Ufile_pred@2@V?$xalloc@Ufile@CLocatorAPI@@@@$0A@@std@@@std@@@0@AEAV10@@Z
_TEXT	SEGMENT
_Arg$ = 8
??$move@AEAV?$_Tree_const_iterator@V?$_Tree_val@V?$_Tset_traits@Ufile@CLocatorAPI@@Ufile_pred@2@V?$xalloc@Ufile@CLocatorAPI@@@@$0A@@std@@@std@@@std@@@std@@YA$$QEAV?$_Tree_const_iterator@V?$_Tree_val@V?$_Tset_traits@Ufile@CLocatorAPI@@Ufile_pred@2@V?$xalloc@Ufile@CLocatorAPI@@@@$0A@@std@@@std@@@0@AEAV10@@Z PROC ; std::move<std::_Tree_const_iterator<std::_Tree_val<std::_Tset_traits<CLocatorAPI::file,CLocatorAPI::file_pred,xalloc<CLocatorAPI::file>,0> > > & __ptr64>, COMDAT

; 87   : 	return ((typename tr1::_Remove_reference<_Ty>::_Type&&)_Arg);

	mov	rax, rcx

; 88   : 	}

	ret	0
??$move@AEAV?$_Tree_const_iterator@V?$_Tree_val@V?$_Tset_traits@Ufile@CLocatorAPI@@Ufile_pred@2@V?$xalloc@Ufile@CLocatorAPI@@@@$0A@@std@@@std@@@std@@@std@@YA$$QEAV?$_Tree_const_iterator@V?$_Tree_val@V?$_Tset_traits@Ufile@CLocatorAPI@@Ufile_pred@2@V?$xalloc@Ufile@CLocatorAPI@@@@$0A@@std@@@std@@@0@AEAV10@@Z ENDP ; std::move<std::_Tree_const_iterator<std::_Tree_val<std::_Tset_traits<CLocatorAPI::file,CLocatorAPI::file_pred,xalloc<CLocatorAPI::file>,0> > > & __ptr64>
; Function compile flags: /Ogtpy
; File c:\program files (x86)\microsoft visual studio 10.0\vc\include\map
_TEXT	ENDS
;	COMDAT ??$_Kfn@QEBDPEAVFS_Path@@@?$_Tmap_traits@PEBDPEAVFS_Path@@Upred_str@@V?$xalloc@U?$pair@PEBDPEAVFS_Path@@@std@@@@$0A@@std@@SAAEBQEBDAEBU?$pair@QEBDPEAVFS_Path@@@1@@Z
_TEXT	SEGMENT
_Val$ = 8
??$_Kfn@QEBDPEAVFS_Path@@@?$_Tmap_traits@PEBDPEAVFS_Path@@Upred_str@@V?$xalloc@U?$pair@PEBDPEAVFS_Path@@@std@@@@$0A@@std@@SAAEBQEBDAEBU?$pair@QEBDPEAVFS_Path@@@1@@Z PROC ; std::_Tmap_traits<char const * __ptr64,FS_Path * __ptr64,pred_str,xalloc<std::pair<char const * __ptr64,FS_Path * __ptr64> >,0>::_Kfn<char const * __ptr64 const,FS_Path * __ptr64>, COMDAT

; 67   : 		{	// extract key from element value
; 68   : 		return (_Val.first);

	mov	rax, rcx

; 69   : 		}

	ret	0
??$_Kfn@QEBDPEAVFS_Path@@@?$_Tmap_traits@PEBDPEAVFS_Path@@Upred_str@@V?$xalloc@U?$pair@PEBDPEAVFS_Path@@@std@@@@$0A@@std@@SAAEBQEBDAEBU?$pair@QEBDPEAVFS_Path@@@1@@Z ENDP ; std::_Tmap_traits<char const * __ptr64,FS_Path * __ptr64,pred_str,xalloc<std::pair<char const * __ptr64,FS_Path * __ptr64> >,0>::_Kfn<char const * __ptr64 const,FS_Path * __ptr64>
; Function compile flags: /Ogtpy
; File c:\program files (x86)\microsoft visual studio 10.0\vc\include\utility
_TEXT	ENDS
;	COMDAT ??$move@AEAV?$_Tree_iterator@V?$_Tree_val@V?$_Tmap_traits@PEBDPEAVFS_Path@@Upred_str@@V?$xalloc@U?$pair@PEBDPEAVFS_Path@@@std@@@@$0A@@std@@@std@@@std@@@std@@YA$$QEAV?$_Tree_iterator@V?$_Tree_val@V?$_Tmap_traits@PEBDPEAVFS_Path@@Upred_str@@V?$xalloc@U?$pair@PEBDPEAVFS_Path@@@std@@@@$0A@@std@@@std@@@0@AEAV10@@Z
_TEXT	SEGMENT
_Arg$ = 8
??$move@AEAV?$_Tree_iterator@V?$_Tree_val@V?$_Tmap_traits@PEBDPEAVFS_Path@@Upred_str@@V?$xalloc@U?$pair@PEBDPEAVFS_Path@@@std@@@@$0A@@std@@@std@@@std@@@std@@YA$$QEAV?$_Tree_iterator@V?$_Tree_val@V?$_Tmap_traits@PEBDPEAVFS_Path@@Upred_str@@V?$xalloc@U?$pair@PEBDPEAVFS_Path@@@std@@@@$0A@@std@@@std@@@0@AEAV10@@Z PROC ; std::move<std::_Tree_iterator<std::_Tree_val<std::_Tmap_traits<char const * __ptr64,FS_Path * __ptr64,pred_str,xalloc<std::pair<char const * __ptr64,FS_Path * __ptr64> >,0> > > & __ptr64>, COMDAT

; 87   : 	return ((typename tr1::_Remove_reference<_Ty>::_Type&&)_Arg);

	mov	rax, rcx

; 88   : 	}

	ret	0
??$move@AEAV?$_Tree_iterator@V?$_Tree_val@V?$_Tmap_traits@PEBDPEAVFS_Path@@Upred_str@@V?$xalloc@U?$pair@PEBDPEAVFS_Path@@@std@@@@$0A@@std@@@std@@@std@@@std@@YA$$QEAV?$_Tree_iterator@V?$_Tree_val@V?$_Tmap_traits@PEBDPEAVFS_Path@@Upred_str@@V?$xalloc@U?$pair@PEBDPEAVFS_Path@@@std@@@@$0A@@std@@@std@@@0@AEAV10@@Z ENDP ; std::move<std::_Tree_iterator<std::_Tree_val<std::_Tmap_traits<char const * __ptr64,FS_Path * __ptr64,pred_str,xalloc<std::pair<char const * __ptr64,FS_Path * __ptr64> >,0> > > & __ptr64>
; Function compile flags: /Ogtpy
; File c:\program files (x86)\microsoft visual studio 10.0\vc\include\xmemory
_TEXT	ENDS
;	COMDAT ??$addressof@$$CBU_finddata64i32_t@@@std@@YAPEBU_finddata64i32_t@@AEBU1@@Z
_TEXT	SEGMENT
_Val$ = 8
??$addressof@$$CBU_finddata64i32_t@@@std@@YAPEBU_finddata64i32_t@@AEBU1@@Z PROC ; std::addressof<_finddata64i32_t const >, COMDAT

; 111  : 	return ((_Ty *) &(char&)_Val);

	mov	rax, rcx

; 112  : 	}

	ret	0
??$addressof@$$CBU_finddata64i32_t@@@std@@YAPEBU_finddata64i32_t@@AEBU1@@Z ENDP ; std::addressof<_finddata64i32_t const >
; Function compile flags: /Ogtpy
; File c:\program files (x86)\microsoft visual studio 10.0\vc\include\utility
_TEXT	ENDS
;	COMDAT ??$forward@Uarchive@CLocatorAPI@@@std@@YA$$QEAUarchive@CLocatorAPI@@AEAU12@@Z
_TEXT	SEGMENT
_Arg$ = 8
??$forward@Uarchive@CLocatorAPI@@@std@@YA$$QEAUarchive@CLocatorAPI@@AEAU12@@Z PROC ; std::forward<CLocatorAPI::archive>, COMDAT

; 79   : 	return ((_Ty&&)_Arg);

	mov	rax, rcx

; 80   : 	}

	ret	0
??$forward@Uarchive@CLocatorAPI@@@std@@YA$$QEAUarchive@CLocatorAPI@@AEAU12@@Z ENDP ; std::forward<CLocatorAPI::archive>
; Function compile flags: /Ogtpy
; File c:\program files (x86)\microsoft visual studio 10.0\vc\include\xmemory
_TEXT	ENDS
;	COMDAT ??$addressof@Uarchive@CLocatorAPI@@@std@@YAPEAUarchive@CLocatorAPI@@AEAU12@@Z
_TEXT	SEGMENT
_Val$ = 8
??$addressof@Uarchive@CLocatorAPI@@@std@@YAPEAUarchive@CLocatorAPI@@AEAU12@@Z PROC ; std::addressof<CLocatorAPI::archive>, COMDAT

; 111  : 	return ((_Ty *) &(char&)_Val);

	mov	rax, rcx

; 112  : 	}

	ret	0
??$addressof@Uarchive@CLocatorAPI@@@std@@YAPEAUarchive@CLocatorAPI@@AEAU12@@Z ENDP ; std::addressof<CLocatorAPI::archive>
; Function compile flags: /Ogtpy
; File c:\program files (x86)\microsoft visual studio 10.0\vc\include\string.h
_TEXT	ENDS
;	COMDAT ??$strcpy_s@$0CAI@@@YAHAEAY0CAI@DPEBD@Z
_TEXT	SEGMENT
_Dest$ = 8
_Source$ = 16
??$strcpy_s@$0CAI@@@YAHAEAY0CAI@DPEBD@Z PROC		; strcpy_s<520>, COMDAT

; 104  : __DEFINE_CPP_OVERLOAD_SECURE_FUNC_0_1(errno_t, strcpy_s, _Deref_post_z_ char, _Dest, _In_z_ const char *, _Source)

	mov	r8, rdx
	mov	edx, 520				; 00000208H
	rex_jmp	QWORD PTR __imp_strcpy_s
??$strcpy_s@$0CAI@@@YAHAEAY0CAI@DPEBD@Z ENDP		; strcpy_s<520>
; Function compile flags: /Ogtpy
_TEXT	ENDS
;	COMDAT ??$strcat_s@$0CAI@@@YAHAEAY0CAI@DPEBD@Z
_TEXT	SEGMENT
_Dest$ = 8
_Source$ = 16
??$strcat_s@$0CAI@@@YAHAEAY0CAI@DPEBD@Z PROC		; strcat_s<520>, COMDAT

; 109  : __DEFINE_CPP_OVERLOAD_SECURE_FUNC_0_1(errno_t, strcat_s, _Deref_prepost_z_ char, _Dest, _In_z_ const char *, _Source)

	mov	r8, rdx
	mov	edx, 520				; 00000208H
	rex_jmp	QWORD PTR __imp_strcat_s
??$strcat_s@$0CAI@@@YAHAEAY0CAI@DPEBD@Z ENDP		; strcat_s<520>
; Function compile flags: /Ogtpy
; File c:\users\nummer\documents\github\olr-3.0\src\xray\xrcore\_stl_extensions.h
_TEXT	ENDS
;	COMDAT ?max_size@?$xalloc@Ufile@CLocatorAPI@@@@QEBA_KXZ
_TEXT	SEGMENT
?max_size@?$xalloc@Ufile@CLocatorAPI@@@@QEBA_KXZ PROC	; xalloc<CLocatorAPI::file>::max_size, COMDAT

; 86   : 							size_type				max_size		() const								{	size_type _Count = (size_type)(-1) / sizeof (T);	return (0 < _Count ? _Count : 1);	}

	mov	rax, 576460752303423487			; 07ffffffffffffffH
	ret	0
?max_size@?$xalloc@Ufile@CLocatorAPI@@@@QEBA_KXZ ENDP	; xalloc<CLocatorAPI::file>::max_size
; Function compile flags: /Ogtpy
; File c:\program files (x86)\microsoft visual studio 10.0\vc\include\xtree
_TEXT	ENDS
;	COMDAT ?_Mynode@?$_Tree_unchecked_const_iterator@V?$_Tree_val@V?$_Tset_traits@UFS_File@@U?$less@UFS_File@@@std@@V?$xalloc@UFS_File@@@@$0A@@std@@@std@@U_Iterator_base0@2@@std@@QEBAPEAU_Node@?$_Tree_nod@V?$_Tset_traits@UFS_File@@U?$less@UFS_File@@@std@@V?$xalloc@UFS_File@@@@$0A@@std@@@2@XZ
_TEXT	SEGMENT
this$ = 8
?_Mynode@?$_Tree_unchecked_const_iterator@V?$_Tree_val@V?$_Tset_traits@UFS_File@@U?$less@UFS_File@@@std@@V?$xalloc@UFS_File@@@@$0A@@std@@@std@@U_Iterator_base0@2@@std@@QEBAPEAU_Node@?$_Tree_nod@V?$_Tset_traits@UFS_File@@U?$less@UFS_File@@@std@@V?$xalloc@UFS_File@@@@$0A@@std@@@2@XZ PROC ; std::_Tree_unchecked_const_iterator<std::_Tree_val<std::_Tset_traits<FS_File,std::less<FS_File>,xalloc<FS_File>,0> >,std::_Iterator_base0>::_Mynode, COMDAT

; 122  : 		return (_Ptr);

	mov	rax, QWORD PTR [rcx]

; 123  : 		}

	ret	0
?_Mynode@?$_Tree_unchecked_const_iterator@V?$_Tree_val@V?$_Tset_traits@UFS_File@@U?$less@UFS_File@@@std@@V?$xalloc@UFS_File@@@@$0A@@std@@@std@@U_Iterator_base0@2@@std@@QEBAPEAU_Node@?$_Tree_nod@V?$_Tset_traits@UFS_File@@U?$less@UFS_File@@@std@@V?$xalloc@UFS_File@@@@$0A@@std@@@2@XZ ENDP ; std::_Tree_unchecked_const_iterator<std::_Tree_val<std::_Tset_traits<FS_File,std::less<FS_File>,xalloc<FS_File>,0> >,std::_Iterator_base0>::_Mynode
; Function compile flags: /Ogtpy
; File c:\program files (x86)\microsoft visual studio 10.0\vc\include\vector
_TEXT	ENDS
;	COMDAT ??Y?$_Vector_const_iterator@V?$_Vector_val@PEADV?$xalloc@PEAD@@@std@@@std@@QEAAAEAV01@_J@Z
_TEXT	SEGMENT
this$ = 8
??Y?$_Vector_const_iterator@V?$_Vector_val@PEADV?$xalloc@PEAD@@@std@@@std@@QEAAAEAV01@_J@Z PROC ; std::_Vector_const_iterator<std::_Vector_val<char * __ptr64,xalloc<char * __ptr64> > >::operator+=, COMDAT

; 152  :  #if _ITERATOR_DEBUG_LEVEL == 2
; 153  : 		if (this->_Getcont() == 0
; 154  : 			|| this->_Ptr + _Off < ((_Myvec *)this->_Getcont())->_Myfirst
; 155  : 			|| ((_Myvec *)this->_Getcont())->_Mylast < this->_Ptr + _Off)
; 156  : 			{	// report error
; 157  : 			_DEBUG_ERROR("vector iterator + offset out of range");
; 158  : 			_SCL_SECURE_OUT_OF_RANGE;
; 159  : 			}
; 160  : 
; 161  :  #elif _ITERATOR_DEBUG_LEVEL == 1
; 162  : 		_SCL_SECURE_VALIDATE(this->_Getcont() != 0);
; 163  : 		_SCL_SECURE_VALIDATE_RANGE(
; 164  : 			((_Myvec *)this->_Getcont())->_Myfirst <= this->_Ptr + _Off
; 165  : 			&& this->_Ptr + _Off <= ((_Myvec *)this->_Getcont())->_Mylast);
; 166  :  #endif /* _ITERATOR_DEBUG_LEVEL */
; 167  : 
; 168  : 		_Ptr += _Off;

	add	QWORD PTR [rcx], -8

; 169  : 		return (*this);

	mov	rax, rcx

; 170  : 		}

	ret	0
??Y?$_Vector_const_iterator@V?$_Vector_val@PEADV?$xalloc@PEAD@@@std@@@std@@QEAAAEAV01@_J@Z ENDP ; std::_Vector_const_iterator<std::_Vector_val<char * __ptr64,xalloc<char * __ptr64> > >::operator+=
; Function compile flags: /Ogtpy
; File c:\program files (x86)\microsoft visual studio 10.0\vc\include\xtree
_TEXT	ENDS
;	COMDAT ??0?$_Tree_unchecked_const_iterator@V?$_Tree_val@V?$_Tmap_traits@PEBDPEAVFS_Path@@Upred_str@@V?$xalloc@U?$pair@PEBDPEAVFS_Path@@@std@@@@$0A@@std@@@std@@U_Iterator_base0@2@@std@@QEAA@XZ
_TEXT	SEGMENT
this$ = 8
??0?$_Tree_unchecked_const_iterator@V?$_Tree_val@V?$_Tmap_traits@PEBDPEAVFS_Path@@Upred_str@@V?$xalloc@U?$pair@PEBDPEAVFS_Path@@@std@@@@$0A@@std@@@std@@U_Iterator_base0@2@@std@@QEAA@XZ PROC ; std::_Tree_unchecked_const_iterator<std::_Tree_val<std::_Tmap_traits<char const * __ptr64,FS_Path * __ptr64,pred_str,xalloc<std::pair<char const * __ptr64,FS_Path * __ptr64> >,0> >,std::_Iterator_base0>::_Tree_unchecked_const_iterator<std::_Tree_val<std::_Tmap_traits<char const * __ptr64,FS_Path * __ptr64,pred_str,xalloc<std::pair<char const * __ptr64,FS_Path * __ptr64> >,0> >,std::_Iterator_base0>, COMDAT

; 38   : 		{	// construct with null node pointer

	mov	QWORD PTR [rcx], 0

; 39   : 		}

	mov	rax, rcx
	ret	0
??0?$_Tree_unchecked_const_iterator@V?$_Tree_val@V?$_Tmap_traits@PEBDPEAVFS_Path@@Upred_str@@V?$xalloc@U?$pair@PEBDPEAVFS_Path@@@std@@@@$0A@@std@@@std@@U_Iterator_base0@2@@std@@QEAA@XZ ENDP ; std::_Tree_unchecked_const_iterator<std::_Tree_val<std::_Tmap_traits<char const * __ptr64,FS_Path * __ptr64,pred_str,xalloc<std::pair<char const * __ptr64,FS_Path * __ptr64> >,0> >,std::_Iterator_base0>::_Tree_unchecked_const_iterator<std::_Tree_val<std::_Tmap_traits<char const * __ptr64,FS_Path * __ptr64,pred_str,xalloc<std::pair<char const * __ptr64,FS_Path * __ptr64> >,0> >,std::_Iterator_base0>
; Function compile flags: /Ogtpy
_TEXT	ENDS
;	COMDAT ?max_size@?$_Tree@V?$_Tset_traits@Ufile@CLocatorAPI@@Ufile_pred@2@V?$xalloc@Ufile@CLocatorAPI@@@@$0A@@std@@@std@@QEBA_KXZ
_TEXT	SEGMENT
?max_size@?$_Tree@V?$_Tset_traits@Ufile@CLocatorAPI@@Ufile_pred@2@V?$xalloc@Ufile@CLocatorAPI@@@@$0A@@std@@@std@@QEBA_KXZ PROC ; std::_Tree<std::_Tset_traits<CLocatorAPI::file,CLocatorAPI::file_pred,xalloc<CLocatorAPI::file>,0> >::max_size, COMDAT

; 874  : 		return (this->_Alval.max_size());

	mov	rax, 576460752303423487			; 07ffffffffffffffH

; 875  : 		}

	ret	0
?max_size@?$_Tree@V?$_Tset_traits@Ufile@CLocatorAPI@@Ufile_pred@2@V?$xalloc@Ufile@CLocatorAPI@@@@$0A@@std@@@std@@QEBA_KXZ ENDP ; std::_Tree<std::_Tset_traits<CLocatorAPI::file,CLocatorAPI::file_pred,xalloc<CLocatorAPI::file>,0> >::max_size
; Function compile flags: /Ogtpy
; File c:\program files (x86)\microsoft visual studio 10.0\vc\include\set
_TEXT	ENDS
;	COMDAT ??0?$_Tset_traits@UFS_File@@U?$less@UFS_File@@@std@@V?$xalloc@UFS_File@@@@$0A@@std@@QEAA@U?$less@UFS_File@@@1@@Z
_TEXT	SEGMENT
this$ = 8
_Parg$ = 16
??0?$_Tset_traits@UFS_File@@U?$less@UFS_File@@@std@@V?$xalloc@UFS_File@@@@$0A@@std@@QEAA@U?$less@UFS_File@@@1@@Z PROC ; std::_Tset_traits<FS_File,std::less<FS_File>,xalloc<FS_File>,0>::_Tset_traits<FS_File,std::less<FS_File>,xalloc<FS_File>,0>, COMDAT

; 40   : 		}

	mov	rax, rcx
	ret	0
??0?$_Tset_traits@UFS_File@@U?$less@UFS_File@@@std@@V?$xalloc@UFS_File@@@@$0A@@std@@QEAA@U?$less@UFS_File@@@1@@Z ENDP ; std::_Tset_traits<FS_File,std::less<FS_File>,xalloc<FS_File>,0>::_Tset_traits<FS_File,std::less<FS_File>,xalloc<FS_File>,0>
; Function compile flags: /Ogtpy
; File c:\program files (x86)\microsoft visual studio 10.0\vc\include\vector
_TEXT	ENDS
;	COMDAT ??Y?$_Vector_iterator@V?$_Vector_val@PEADV?$xalloc@PEAD@@@std@@@std@@QEAAAEAV01@_J@Z
_TEXT	SEGMENT
this$ = 8
??Y?$_Vector_iterator@V?$_Vector_val@PEADV?$xalloc@PEAD@@@std@@@std@@QEAAAEAV01@_J@Z PROC ; std::_Vector_iterator<std::_Vector_val<char * __ptr64,xalloc<char * __ptr64> > >::operator+=, COMDAT

; 358  : 		*(_Mybase *)this += _Off;

	add	QWORD PTR [rcx], -8

; 359  : 		return (*this);

	mov	rax, rcx

; 360  : 		}

	ret	0
??Y?$_Vector_iterator@V?$_Vector_val@PEADV?$xalloc@PEAD@@@std@@@std@@QEAAAEAV01@_J@Z ENDP ; std::_Vector_iterator<std::_Vector_val<char * __ptr64,xalloc<char * __ptr64> > >::operator+=
; Function compile flags: /Ogtpy
_TEXT	ENDS
;	COMDAT ??Y?$_Vector_const_iterator@V?$_Vector_val@U_open_file@@V?$xalloc@U_open_file@@@@@std@@@std@@QEAAAEAV01@_J@Z
_TEXT	SEGMENT
this$ = 8
_Off$ = 16
??Y?$_Vector_const_iterator@V?$_Vector_val@U_open_file@@V?$xalloc@U_open_file@@@@@std@@@std@@QEAAAEAV01@_J@Z PROC ; std::_Vector_const_iterator<std::_Vector_val<_open_file,xalloc<_open_file> > >::operator+=, COMDAT

; 152  :  #if _ITERATOR_DEBUG_LEVEL == 2
; 153  : 		if (this->_Getcont() == 0
; 154  : 			|| this->_Ptr + _Off < ((_Myvec *)this->_Getcont())->_Myfirst
; 155  : 			|| ((_Myvec *)this->_Getcont())->_Mylast < this->_Ptr + _Off)
; 156  : 			{	// report error
; 157  : 			_DEBUG_ERROR("vector iterator + offset out of range");
; 158  : 			_SCL_SECURE_OUT_OF_RANGE;
; 159  : 			}
; 160  : 
; 161  :  #elif _ITERATOR_DEBUG_LEVEL == 1
; 162  : 		_SCL_SECURE_VALIDATE(this->_Getcont() != 0);
; 163  : 		_SCL_SECURE_VALIDATE_RANGE(
; 164  : 			((_Myvec *)this->_Getcont())->_Myfirst <= this->_Ptr + _Off
; 165  : 			&& this->_Ptr + _Off <= ((_Myvec *)this->_Getcont())->_Mylast);
; 166  :  #endif /* _ITERATOR_DEBUG_LEVEL */
; 167  : 
; 168  : 		_Ptr += _Off;

	lea	rax, QWORD PTR [rdx+rdx*2]
	shl	rax, 3
	add	QWORD PTR [rcx], rax

; 169  : 		return (*this);

	mov	rax, rcx

; 170  : 		}

	ret	0
??Y?$_Vector_const_iterator@V?$_Vector_val@U_open_file@@V?$xalloc@U_open_file@@@@@std@@@std@@QEAAAEAV01@_J@Z ENDP ; std::_Vector_const_iterator<std::_Vector_val<_open_file,xalloc<_open_file> > >::operator+=
; Function compile flags: /Ogtpy
; File c:\users\nummer\documents\github\olr-3.0\src\xray\xrcore\_stl_extensions.h
_TEXT	ENDS
;	COMDAT ?max_size@?$xalloc@U_open_file@@@@QEBA_KXZ
_TEXT	SEGMENT
?max_size@?$xalloc@U_open_file@@@@QEBA_KXZ PROC		; xalloc<_open_file>::max_size, COMDAT

; 86   : 							size_type				max_size		() const								{	size_type _Count = (size_type)(-1) / sizeof (T);	return (0 < _Count ? _Count : 1);	}

	mov	rax, 768614336404564650			; 0aaaaaaaaaaaaaaaH
	ret	0
?max_size@?$xalloc@U_open_file@@@@QEBA_KXZ ENDP		; xalloc<_open_file>::max_size
; Function compile flags: /Ogtpy
_TEXT	ENDS
;	COMDAT ??0?$xalloc@U_open_file@@@@QEAA@AEBV0@@Z
_TEXT	SEGMENT
this$ = 8
??0?$xalloc@U_open_file@@@@QEAA@AEBV0@@Z PROC		; xalloc<_open_file>::xalloc<_open_file>, COMDAT

; 77   : 													xalloc			(const xalloc<T>&)						{	}

	mov	rax, rcx
	ret	0
??0?$xalloc@U_open_file@@@@QEAA@AEBV0@@Z ENDP		; xalloc<_open_file>::xalloc<_open_file>
; Function compile flags: /Ogtpy
; File c:\program files (x86)\microsoft visual studio 10.0\vc\include\xtree
_TEXT	ENDS
;	COMDAT ??0?$_Tree_const_iterator@V?$_Tree_val@V?$_Tmap_traits@PEBDPEAVFS_Path@@Upred_str@@V?$xalloc@U?$pair@PEBDPEAVFS_Path@@@std@@@@$0A@@std@@@std@@@std@@QEAA@XZ
_TEXT	SEGMENT
this$ = 8
??0?$_Tree_const_iterator@V?$_Tree_val@V?$_Tmap_traits@PEBDPEAVFS_Path@@Upred_str@@V?$xalloc@U?$pair@PEBDPEAVFS_Path@@@std@@@@$0A@@std@@@std@@@std@@QEAA@XZ PROC ; std::_Tree_const_iterator<std::_Tree_val<std::_Tmap_traits<char const * __ptr64,FS_Path * __ptr64,pred_str,xalloc<std::pair<char const * __ptr64,FS_Path * __ptr64> >,0> > >::_Tree_const_iterator<std::_Tree_val<std::_Tmap_traits<char const * __ptr64,FS_Path * __ptr64,pred_str,xalloc<std::pair<char const * __ptr64,FS_Path * __ptr64> >,0> > >, COMDAT

; 208  : 		{	// construct with null node pointer

	mov	QWORD PTR [rcx], 0

; 209  : 		}

	mov	rax, rcx
	ret	0
??0?$_Tree_const_iterator@V?$_Tree_val@V?$_Tmap_traits@PEBDPEAVFS_Path@@Upred_str@@V?$xalloc@U?$pair@PEBDPEAVFS_Path@@@std@@@@$0A@@std@@@std@@@std@@QEAA@XZ ENDP ; std::_Tree_const_iterator<std::_Tree_val<std::_Tmap_traits<char const * __ptr64,FS_Path * __ptr64,pred_str,xalloc<std::pair<char const * __ptr64,FS_Path * __ptr64> >,0> > >::_Tree_const_iterator<std::_Tree_val<std::_Tmap_traits<char const * __ptr64,FS_Path * __ptr64,pred_str,xalloc<std::pair<char const * __ptr64,FS_Path * __ptr64> >,0> > >
; Function compile flags: /Ogtpy
; File c:\program files (x86)\microsoft visual studio 10.0\vc\include\vector
_TEXT	ENDS
;	COMDAT ??Y?$_Vector_const_iterator@V?$_Vector_val@Uarchive@CLocatorAPI@@V?$xalloc@Uarchive@CLocatorAPI@@@@@std@@@std@@QEAAAEAV01@_J@Z
_TEXT	SEGMENT
this$ = 8
_Off$ = 16
??Y?$_Vector_const_iterator@V?$_Vector_val@Uarchive@CLocatorAPI@@V?$xalloc@Uarchive@CLocatorAPI@@@@@std@@@std@@QEAAAEAV01@_J@Z PROC ; std::_Vector_const_iterator<std::_Vector_val<CLocatorAPI::archive,xalloc<CLocatorAPI::archive> > >::operator+=, COMDAT

; 152  :  #if _ITERATOR_DEBUG_LEVEL == 2
; 153  : 		if (this->_Getcont() == 0
; 154  : 			|| this->_Ptr + _Off < ((_Myvec *)this->_Getcont())->_Myfirst
; 155  : 			|| ((_Myvec *)this->_Getcont())->_Mylast < this->_Ptr + _Off)
; 156  : 			{	// report error
; 157  : 			_DEBUG_ERROR("vector iterator + offset out of range");
; 158  : 			_SCL_SECURE_OUT_OF_RANGE;
; 159  : 			}
; 160  : 
; 161  :  #elif _ITERATOR_DEBUG_LEVEL == 1
; 162  : 		_SCL_SECURE_VALIDATE(this->_Getcont() != 0);
; 163  : 		_SCL_SECURE_VALIDATE_RANGE(
; 164  : 			((_Myvec *)this->_Getcont())->_Myfirst <= this->_Ptr + _Off
; 165  : 			&& this->_Ptr + _Off <= ((_Myvec *)this->_Getcont())->_Mylast);
; 166  :  #endif /* _ITERATOR_DEBUG_LEVEL */
; 167  : 
; 168  : 		_Ptr += _Off;

	shl	rdx, 5

; 169  : 		return (*this);

	mov	rax, rcx
	add	QWORD PTR [rcx], rdx

; 170  : 		}

	ret	0
??Y?$_Vector_const_iterator@V?$_Vector_val@Uarchive@CLocatorAPI@@V?$xalloc@Uarchive@CLocatorAPI@@@@@std@@@std@@QEAAAEAV01@_J@Z ENDP ; std::_Vector_const_iterator<std::_Vector_val<CLocatorAPI::archive,xalloc<CLocatorAPI::archive> > >::operator+=
; Function compile flags: /Ogtpy
; File c:\program files (x86)\microsoft visual studio 10.0\vc\include\xtree
_TEXT	ENDS
;	COMDAT ?_Color@?$_Tree_val@V?$_Tset_traits@UFS_File@@U?$less@UFS_File@@@std@@V?$xalloc@UFS_File@@@@$0A@@std@@@std@@SAAEADPEAU_Node@?$_Tree_nod@V?$_Tset_traits@UFS_File@@U?$less@UFS_File@@@std@@V?$xalloc@UFS_File@@@@$0A@@std@@@2@@Z
_TEXT	SEGMENT
_Pnode$ = 8
?_Color@?$_Tree_val@V?$_Tset_traits@UFS_File@@U?$less@UFS_File@@@std@@V?$xalloc@UFS_File@@@@$0A@@std@@@std@@SAAEADPEAU_Node@?$_Tree_nod@V?$_Tset_traits@UFS_File@@U?$less@UFS_File@@@std@@V?$xalloc@UFS_File@@@@$0A@@std@@@2@@Z PROC ; std::_Tree_val<std::_Tset_traits<FS_File,std::less<FS_File>,xalloc<FS_File>,0> >::_Color, COMDAT

; 607  : 		return ((char&)(*_Pnode)._Color);

	lea	rax, QWORD PTR [rcx+88]

; 608  : 		}

	ret	0
?_Color@?$_Tree_val@V?$_Tset_traits@UFS_File@@U?$less@UFS_File@@@std@@V?$xalloc@UFS_File@@@@$0A@@std@@@std@@SAAEADPEAU_Node@?$_Tree_nod@V?$_Tset_traits@UFS_File@@U?$less@UFS_File@@@std@@V?$xalloc@UFS_File@@@@$0A@@std@@@2@@Z ENDP ; std::_Tree_val<std::_Tset_traits<FS_File,std::less<FS_File>,xalloc<FS_File>,0> >::_Color
; Function compile flags: /Ogtpy
; File c:\users\nummer\documents\github\olr-3.0\src\xray\xrcore\_stl_extensions.h
_TEXT	ENDS
;	COMDAT ??0?$xalloc@Vshared_str@@@@QEAA@AEBV0@@Z
_TEXT	SEGMENT
this$ = 8
??0?$xalloc@Vshared_str@@@@QEAA@AEBV0@@Z PROC		; xalloc<shared_str>::xalloc<shared_str>, COMDAT

; 77   : 													xalloc			(const xalloc<T>&)						{	}

	mov	rax, rcx
	ret	0
??0?$xalloc@Vshared_str@@@@QEAA@AEBV0@@Z ENDP		; xalloc<shared_str>::xalloc<shared_str>
; Function compile flags: /Ogtpy
_TEXT	ENDS
;	COMDAT ??0?$xalloc@V?$basic_string@DU?$char_traits@D@std@@V?$xalloc@D@@@std@@@@QEAA@AEBV0@@Z
_TEXT	SEGMENT
this$ = 8
??0?$xalloc@V?$basic_string@DU?$char_traits@D@std@@V?$xalloc@D@@@std@@@@QEAA@AEBV0@@Z PROC ; xalloc<std::basic_string<char,std::char_traits<char>,xalloc<char> > >::xalloc<std::basic_string<char,std::char_traits<char>,xalloc<char> > >, COMDAT

; 77   : 													xalloc			(const xalloc<T>&)						{	}

	mov	rax, rcx
	ret	0
??0?$xalloc@V?$basic_string@DU?$char_traits@D@std@@V?$xalloc@D@@@std@@@@QEAA@AEBV0@@Z ENDP ; xalloc<std::basic_string<char,std::char_traits<char>,xalloc<char> > >::xalloc<std::basic_string<char,std::char_traits<char>,xalloc<char> > >
; Function compile flags: /Ogtpy
; File c:\program files (x86)\microsoft visual studio 10.0\vc\include\xutility
_TEXT	ENDS
;	COMDAT ??0?$_Revranit@V?$_Tree_const_iterator@V?$_Tree_val@V?$_Tset_traits@Ufile@CLocatorAPI@@Ufile_pred@2@V?$xalloc@Ufile@CLocatorAPI@@@@$0A@@std@@@std@@@std@@U?$iterator@Ubidirectional_iterator_tag@std@@Ufile@CLocatorAPI@@_JPEBU34@AEBU34@@2@@std@@QEAA@V?$_Tree_const_iterator@V?$_Tree_val@V?$_Tset_traits@Ufile@CLocatorAPI@@Ufile_pred@2@V?$xalloc@Ufile@CLocatorAPI@@@@$0A@@std@@@std@@@1@@Z
_TEXT	SEGMENT
this$ = 8
_Right$ = 16
??0?$_Revranit@V?$_Tree_const_iterator@V?$_Tree_val@V?$_Tset_traits@Ufile@CLocatorAPI@@Ufile_pred@2@V?$xalloc@Ufile@CLocatorAPI@@@@$0A@@std@@@std@@@std@@U?$iterator@Ubidirectional_iterator_tag@std@@Ufile@CLocatorAPI@@_JPEBU34@AEBU34@@2@@std@@QEAA@V?$_Tree_const_iterator@V?$_Tree_val@V?$_Tset_traits@Ufile@CLocatorAPI@@Ufile_pred@2@V?$xalloc@Ufile@CLocatorAPI@@@@$0A@@std@@@std@@@1@@Z PROC ; std::_Revranit<std::_Tree_const_iterator<std::_Tree_val<std::_Tset_traits<CLocatorAPI::file,CLocatorAPI::file_pred,xalloc<CLocatorAPI::file>,0> > >,std::iterator<std::bidirectional_iterator_tag,CLocatorAPI::file,__int64,CLocatorAPI::file const * __ptr64,CLocatorAPI::file const & __ptr64> >::_Revranit<std::_Tree_const_iterator<std::_Tree_val<std::_Tset_traits<CLocatorAPI::file,CLocatorAPI::file_pred,xalloc<CLocatorAPI::file>,0> > >,std::iterator<std::bidirectional_iterator_tag,CLocatorAPI::file,__int64,CLocatorAPI::file const * __ptr64,CLocatorAPI::file const & __ptr64> >, COMDAT

; 1027 : 		{	// construct wrapped iterator from _Right

	mov	QWORD PTR [rcx], rdx

; 1028 : 		}

	mov	rax, rcx
	ret	0
??0?$_Revranit@V?$_Tree_const_iterator@V?$_Tree_val@V?$_Tset_traits@Ufile@CLocatorAPI@@Ufile_pred@2@V?$xalloc@Ufile@CLocatorAPI@@@@$0A@@std@@@std@@@std@@U?$iterator@Ubidirectional_iterator_tag@std@@Ufile@CLocatorAPI@@_JPEBU34@AEBU34@@2@@std@@QEAA@V?$_Tree_const_iterator@V?$_Tree_val@V?$_Tset_traits@Ufile@CLocatorAPI@@Ufile_pred@2@V?$xalloc@Ufile@CLocatorAPI@@@@$0A@@std@@@std@@@1@@Z ENDP ; std::_Revranit<std::_Tree_const_iterator<std::_Tree_val<std::_Tset_traits<CLocatorAPI::file,CLocatorAPI::file_pred,xalloc<CLocatorAPI::file>,0> > >,std::iterator<std::bidirectional_iterator_tag,CLocatorAPI::file,__int64,CLocatorAPI::file const * __ptr64,CLocatorAPI::file const & __ptr64> >::_Revranit<std::_Tree_const_iterator<std::_Tree_val<std::_Tset_traits<CLocatorAPI::file,CLocatorAPI::file_pred,xalloc<CLocatorAPI::file>,0> > >,std::iterator<std::bidirectional_iterator_tag,CLocatorAPI::file,__int64,CLocatorAPI::file const * __ptr64,CLocatorAPI::file const & __ptr64> >
; Function compile flags: /Ogtpy
; File c:\program files (x86)\microsoft visual studio 10.0\vc\include\vector
_TEXT	ENDS
;	COMDAT ?_Compat@?$_Vector_const_iterator@V?$_Vector_val@PEADV?$xalloc@PEAD@@@std@@@std@@QEBAXAEBV12@@Z
_TEXT	SEGMENT
?_Compat@?$_Vector_const_iterator@V?$_Vector_val@PEADV?$xalloc@PEAD@@@std@@@std@@QEBAXAEBV12@@Z PROC ; std::_Vector_const_iterator<std::_Vector_val<char * __ptr64,xalloc<char * __ptr64> > >::_Compat, COMDAT

; 253  : 		}

	ret	0
?_Compat@?$_Vector_const_iterator@V?$_Vector_val@PEADV?$xalloc@PEAD@@@std@@@std@@QEBAXAEBV12@@Z ENDP ; std::_Vector_const_iterator<std::_Vector_val<char * __ptr64,xalloc<char * __ptr64> > >::_Compat
; Function compile flags: /Ogtpy
_TEXT	ENDS
;	COMDAT ??E?$_Vector_const_iterator@V?$_Vector_val@PEADV?$xalloc@PEAD@@@std@@@std@@QEAAAEAV01@XZ
_TEXT	SEGMENT
this$ = 8
??E?$_Vector_const_iterator@V?$_Vector_val@PEADV?$xalloc@PEAD@@@std@@@std@@QEAAAEAV01@XZ PROC ; std::_Vector_const_iterator<std::_Vector_val<char * __ptr64,xalloc<char * __ptr64> > >::operator++, COMDAT

; 94   :  #if _ITERATOR_DEBUG_LEVEL == 2
; 95   : 		if (this->_Getcont() == 0
; 96   : 			|| this->_Ptr == 0
; 97   : 			|| ((_Myvec *)this->_Getcont())->_Mylast <= this->_Ptr)
; 98   : 			{	// report error
; 99   : 			_DEBUG_ERROR("vector iterator not incrementable");
; 100  : 			_SCL_SECURE_OUT_OF_RANGE;
; 101  : 			}
; 102  : 
; 103  :  #elif _ITERATOR_DEBUG_LEVEL == 1
; 104  : 		_SCL_SECURE_VALIDATE(this->_Getcont() != 0);
; 105  : 		_SCL_SECURE_VALIDATE_RANGE(
; 106  : 			this->_Ptr != 0
; 107  : 			&& this->_Ptr < ((_Myvec *)this->_Getcont())->_Mylast);
; 108  :  #endif /* _ITERATOR_DEBUG_LEVEL */
; 109  : 
; 110  : 		++this->_Ptr;

	add	QWORD PTR [rcx], 8

; 111  : 		return (*this);

	mov	rax, rcx

; 112  : 		}

	ret	0
??E?$_Vector_const_iterator@V?$_Vector_val@PEADV?$xalloc@PEAD@@@std@@@std@@QEAAAEAV01@XZ ENDP ; std::_Vector_const_iterator<std::_Vector_val<char * __ptr64,xalloc<char * __ptr64> > >::operator++
; Function compile flags: /Ogtpy
_TEXT	ENDS
;	COMDAT ??Z?$_Vector_iterator@V?$_Vector_val@PEADV?$xalloc@PEAD@@@std@@@std@@QEAAAEAV01@_J@Z
_TEXT	SEGMENT
this$ = 8
??Z?$_Vector_iterator@V?$_Vector_val@PEADV?$xalloc@PEAD@@@std@@@std@@QEAAAEAV01@_J@Z PROC ; std::_Vector_iterator<std::_Vector_val<char * __ptr64,xalloc<char * __ptr64> > >::operator-=, COMDAT

; 370  : 		return (*this += -_Off);

	add	QWORD PTR [rcx], -8
	mov	rax, rcx

; 371  : 		}

	ret	0
??Z?$_Vector_iterator@V?$_Vector_val@PEADV?$xalloc@PEAD@@@std@@@std@@QEAAAEAV01@_J@Z ENDP ; std::_Vector_iterator<std::_Vector_val<char * __ptr64,xalloc<char * __ptr64> > >::operator-=
; Function compile flags: /Ogtpy
_TEXT	ENDS
;	COMDAT ??Y?$_Vector_iterator@V?$_Vector_val@U_open_file@@V?$xalloc@U_open_file@@@@@std@@@std@@QEAAAEAV01@_J@Z
_TEXT	SEGMENT
this$ = 8
_Off$ = 16
??Y?$_Vector_iterator@V?$_Vector_val@U_open_file@@V?$xalloc@U_open_file@@@@@std@@@std@@QEAAAEAV01@_J@Z PROC ; std::_Vector_iterator<std::_Vector_val<_open_file,xalloc<_open_file> > >::operator+=, COMDAT

; 358  : 		*(_Mybase *)this += _Off;

	lea	rax, QWORD PTR [rdx+rdx*2]
	shl	rax, 3
	add	QWORD PTR [rcx], rax

; 359  : 		return (*this);

	mov	rax, rcx

; 360  : 		}

	ret	0
??Y?$_Vector_iterator@V?$_Vector_val@U_open_file@@V?$xalloc@U_open_file@@@@@std@@@std@@QEAAAEAV01@_J@Z ENDP ; std::_Vector_iterator<std::_Vector_val<_open_file,xalloc<_open_file> > >::operator+=
; Function compile flags: /Ogtpy
; File c:\users\nummer\documents\github\olr-3.0\src\xray\xrcore\_stl_extensions.h
_TEXT	ENDS
;	COMDAT ??0?$xalloc@U_open_file@@@@QEAA@XZ
_TEXT	SEGMENT
this$ = 8
??0?$xalloc@U_open_file@@@@QEAA@XZ PROC			; xalloc<_open_file>::xalloc<_open_file>, COMDAT

; 76   : 													xalloc			()										{	}

	mov	rax, rcx
	ret	0
??0?$xalloc@U_open_file@@@@QEAA@XZ ENDP			; xalloc<_open_file>::xalloc<_open_file>
; Function compile flags: /Ogtpy
; File c:\program files (x86)\microsoft visual studio 10.0\vc\include\vector
_TEXT	ENDS
;	COMDAT ??0?$_Vector_val@U_open_file@@V?$xalloc@U_open_file@@@@@std@@QEAA@V?$xalloc@U_open_file@@@@@Z
_TEXT	SEGMENT
??0?$_Vector_val@U_open_file@@V?$xalloc@U_open_file@@@@@std@@QEAA@V?$xalloc@U_open_file@@@@@Z PROC ; std::_Vector_val<_open_file,xalloc<_open_file> >::_Vector_val<_open_file,xalloc<_open_file> >, COMDAT

; 427  : 		_Myfirst = 0;

	xor	eax, eax
	mov	QWORD PTR ?g_open_files@@3V?$xr_vector@U_open_file@@V?$xalloc@U_open_file@@@@@@A, rax

; 428  : 		_Mylast = 0;

	mov	QWORD PTR ?g_open_files@@3V?$xr_vector@U_open_file@@V?$xalloc@U_open_file@@@@@@A+8, rax

; 429  : 		_Myend = 0;

	mov	QWORD PTR ?g_open_files@@3V?$xr_vector@U_open_file@@V?$xalloc@U_open_file@@@@@@A+16, rax

; 430  : 		}

	lea	rax, OFFSET FLAT:?g_open_files@@3V?$xr_vector@U_open_file@@V?$xalloc@U_open_file@@@@@@A ; g_open_files
	ret	0
??0?$_Vector_val@U_open_file@@V?$xalloc@U_open_file@@@@@std@@QEAA@V?$xalloc@U_open_file@@@@@Z ENDP ; std::_Vector_val<_open_file,xalloc<_open_file> >::_Vector_val<_open_file,xalloc<_open_file> >
_TEXT	ENDS
;	COMDAT pdata
pdata	SEGMENT
$pdata$?_Xlen@?$vector@U_open_file@@V?$xalloc@U_open_file@@@@@std@@IEBAXXZ DD imagerel $LN4
	DD	imagerel $LN4+18
	DD	imagerel $unwind$?_Xlen@?$vector@U_open_file@@V?$xalloc@U_open_file@@@@@std@@IEBAXXZ
pdata	ENDS
;	COMDAT xdata
xdata	SEGMENT
$unwind$?_Xlen@?$vector@U_open_file@@V?$xalloc@U_open_file@@@@@std@@IEBAXXZ DD 010401H
	DD	04204H
; Function compile flags: /Ogtpy
xdata	ENDS
;	COMDAT ?_Xlen@?$vector@U_open_file@@V?$xalloc@U_open_file@@@@@std@@IEBAXXZ
_TEXT	SEGMENT
?_Xlen@?$vector@U_open_file@@V?$xalloc@U_open_file@@@@@std@@IEBAXXZ PROC ; std::vector<_open_file,xalloc<_open_file> >::_Xlen, COMDAT

; 1426 : 		{	// report a length_error

$LN4:
	sub	rsp, 40					; 00000028H

; 1427 : 		_Xlength_error("vector<T> too long");

	lea	rcx, OFFSET FLAT:??_C@_0BD@OLBABOEK@vector?$DMT?$DO?5too?5long?$AA@
	call	QWORD PTR __imp_?_Xlength_error@std@@YAXPEBD@Z
	int	3
$LN3@Xlen@2:
?_Xlen@?$vector@U_open_file@@V?$xalloc@U_open_file@@@@@std@@IEBAXXZ ENDP ; std::vector<_open_file,xalloc<_open_file> >::_Xlen
; Function compile flags: /Ogtpy
_TEXT	ENDS
;	COMDAT ?max_size@?$vector@U_open_file@@V?$xalloc@U_open_file@@@@@std@@QEBA_KXZ
_TEXT	SEGMENT
?max_size@?$vector@U_open_file@@V?$xalloc@U_open_file@@@@@std@@QEBA_KXZ PROC ; std::vector<_open_file,xalloc<_open_file> >::max_size, COMDAT

; 884  : 		return (this->_Alval.max_size());

	mov	rax, 768614336404564650			; 0aaaaaaaaaaaaaaaH

; 885  : 		}

	ret	0
?max_size@?$vector@U_open_file@@V?$xalloc@U_open_file@@@@@std@@QEBA_KXZ ENDP ; std::vector<_open_file,xalloc<_open_file> >::max_size
; Function compile flags: /Ogtpy
_TEXT	ENDS
;	COMDAT ?capacity@?$vector@U_open_file@@V?$xalloc@U_open_file@@@@@std@@QEBA_KXZ
_TEXT	SEGMENT
?capacity@?$vector@U_open_file@@V?$xalloc@U_open_file@@@@@std@@QEBA_KXZ PROC ; std::vector<_open_file,xalloc<_open_file> >::capacity, COMDAT

; 777  : 		return (this->_Myend - this->_Myfirst);

	mov	rcx, QWORD PTR ?g_open_files@@3V?$xr_vector@U_open_file@@V?$xalloc@U_open_file@@@@@@A+16
	mov	rax, 3074457345618258603		; 2aaaaaaaaaaaaaabH
	sub	rcx, QWORD PTR ?g_open_files@@3V?$xr_vector@U_open_file@@V?$xalloc@U_open_file@@@@@@A
	imul	rcx
	sar	rdx, 2
	mov	rax, rdx
	shr	rax, 63					; 0000003fH
	add	rax, rdx

; 778  : 		}

	ret	0
?capacity@?$vector@U_open_file@@V?$xalloc@U_open_file@@@@@std@@QEBA_KXZ ENDP ; std::vector<_open_file,xalloc<_open_file> >::capacity
; Function compile flags: /Ogtpy
_TEXT	ENDS
;	COMDAT ??Y?$_Vector_iterator@V?$_Vector_val@Uarchive@CLocatorAPI@@V?$xalloc@Uarchive@CLocatorAPI@@@@@std@@@std@@QEAAAEAV01@_J@Z
_TEXT	SEGMENT
this$ = 8
_Off$ = 16
??Y?$_Vector_iterator@V?$_Vector_val@Uarchive@CLocatorAPI@@V?$xalloc@Uarchive@CLocatorAPI@@@@@std@@@std@@QEAAAEAV01@_J@Z PROC ; std::_Vector_iterator<std::_Vector_val<CLocatorAPI::archive,xalloc<CLocatorAPI::archive> > >::operator+=, COMDAT

; 358  : 		*(_Mybase *)this += _Off;

	shl	rdx, 5

; 359  : 		return (*this);

	mov	rax, rcx
	add	QWORD PTR [rcx], rdx

; 360  : 		}

	ret	0
??Y?$_Vector_iterator@V?$_Vector_val@Uarchive@CLocatorAPI@@V?$xalloc@Uarchive@CLocatorAPI@@@@@std@@@std@@QEAAAEAV01@_J@Z ENDP ; std::_Vector_iterator<std::_Vector_val<CLocatorAPI::archive,xalloc<CLocatorAPI::archive> > >::operator+=
; Function compile flags: /Ogtpy
; File c:\program files (x86)\microsoft visual studio 10.0\vc\include\xtree
_TEXT	ENDS
;	COMDAT ??0?$_Tree_iterator@V?$_Tree_val@V?$_Tmap_traits@PEBDPEAVFS_Path@@Upred_str@@V?$xalloc@U?$pair@PEBDPEAVFS_Path@@@std@@@@$0A@@std@@@std@@@std@@QEAA@XZ
_TEXT	SEGMENT
this$ = 8
??0?$_Tree_iterator@V?$_Tree_val@V?$_Tmap_traits@PEBDPEAVFS_Path@@Upred_str@@V?$xalloc@U?$pair@PEBDPEAVFS_Path@@@std@@@@$0A@@std@@@std@@@std@@QEAA@XZ PROC ; std::_Tree_iterator<std::_Tree_val<std::_Tmap_traits<char const * __ptr64,FS_Path * __ptr64,pred_str,xalloc<std::pair<char const * __ptr64,FS_Path * __ptr64> >,0> > >::_Tree_iterator<std::_Tree_val<std::_Tmap_traits<char const * __ptr64,FS_Path * __ptr64,pred_str,xalloc<std::pair<char const * __ptr64,FS_Path * __ptr64> >,0> > >, COMDAT

; 372  : 	_Tree_iterator()

	mov	QWORD PTR [rcx], 0

; 373  : 		{	// construct with null node
; 374  : 		}

	mov	rax, rcx
	ret	0
??0?$_Tree_iterator@V?$_Tree_val@V?$_Tmap_traits@PEBDPEAVFS_Path@@Upred_str@@V?$xalloc@U?$pair@PEBDPEAVFS_Path@@@std@@@@$0A@@std@@@std@@@std@@QEAA@XZ ENDP ; std::_Tree_iterator<std::_Tree_val<std::_Tmap_traits<char const * __ptr64,FS_Path * __ptr64,pred_str,xalloc<std::pair<char const * __ptr64,FS_Path * __ptr64> >,0> > >::_Tree_iterator<std::_Tree_val<std::_Tmap_traits<char const * __ptr64,FS_Path * __ptr64,pred_str,xalloc<std::pair<char const * __ptr64,FS_Path * __ptr64> >,0> > >
; Function compile flags: /Ogtpy
; File c:\users\nummer\documents\github\olr-3.0\src\xray\xrcore\_stl_extensions.h
_TEXT	ENDS
;	COMDAT ??0?$xalloc@U_finddata64i32_t@@@@QEAA@XZ
_TEXT	SEGMENT
this$ = 8
??0?$xalloc@U_finddata64i32_t@@@@QEAA@XZ PROC		; xalloc<_finddata64i32_t>::xalloc<_finddata64i32_t>, COMDAT

; 76   : 													xalloc			()										{	}

	mov	rax, rcx
	ret	0
??0?$xalloc@U_finddata64i32_t@@@@QEAA@XZ ENDP		; xalloc<_finddata64i32_t>::xalloc<_finddata64i32_t>
; Function compile flags: /Ogtpy
_TEXT	ENDS
;	COMDAT ??0?$xalloc@Uarchive@CLocatorAPI@@@@QEAA@XZ
_TEXT	SEGMENT
this$ = 8
??0?$xalloc@Uarchive@CLocatorAPI@@@@QEAA@XZ PROC	; xalloc<CLocatorAPI::archive>::xalloc<CLocatorAPI::archive>, COMDAT

; 76   : 													xalloc			()										{	}

	mov	rax, rcx
	ret	0
??0?$xalloc@Uarchive@CLocatorAPI@@@@QEAA@XZ ENDP	; xalloc<CLocatorAPI::archive>::xalloc<CLocatorAPI::archive>
; Function compile flags: /Ogtpy
; File c:\program files (x86)\microsoft visual studio 10.0\vc\include\set
_TEXT	ENDS
;	COMDAT ?_Kfn@?$_Tset_traits@Ufile@CLocatorAPI@@Ufile_pred@2@V?$xalloc@Ufile@CLocatorAPI@@@@$0A@@std@@SAAEBUfile@CLocatorAPI@@AEBU34@@Z
_TEXT	SEGMENT
_Val$ = 8
?_Kfn@?$_Tset_traits@Ufile@CLocatorAPI@@Ufile_pred@2@V?$xalloc@Ufile@CLocatorAPI@@@@$0A@@std@@SAAEBUfile@CLocatorAPI@@AEBU34@@Z PROC ; std::_Tset_traits<CLocatorAPI::file,CLocatorAPI::file_pred,xalloc<CLocatorAPI::file>,0>::_Kfn, COMDAT

; 46   : 		return (_Val);

	mov	rax, rcx

; 47   : 		}

	ret	0
?_Kfn@?$_Tset_traits@Ufile@CLocatorAPI@@Ufile_pred@2@V?$xalloc@Ufile@CLocatorAPI@@@@$0A@@std@@SAAEBUfile@CLocatorAPI@@AEBU34@@Z ENDP ; std::_Tset_traits<CLocatorAPI::file,CLocatorAPI::file_pred,xalloc<CLocatorAPI::file>,0>::_Kfn
; Function compile flags: /Ogtpy
; File c:\users\nummer\documents\github\olr-3.0\src\xray\xrcore\_stl_extensions.h
_TEXT	ENDS
;	COMDAT ??0?$xalloc@UFS_File@@@@QEAA@AEBV0@@Z
_TEXT	SEGMENT
this$ = 8
??0?$xalloc@UFS_File@@@@QEAA@AEBV0@@Z PROC		; xalloc<FS_File>::xalloc<FS_File>, COMDAT

; 77   : 													xalloc			(const xalloc<T>&)						{	}

	mov	rax, rcx
	ret	0
??0?$xalloc@UFS_File@@@@QEAA@AEBV0@@Z ENDP		; xalloc<FS_File>::xalloc<FS_File>
; Function compile flags: /Ogtpy
; File c:\program files (x86)\microsoft visual studio 10.0\vc\include\xtree
_TEXT	ENDS
;	COMDAT ?_Right@?$_Tree_val@V?$_Tset_traits@UFS_File@@U?$less@UFS_File@@@std@@V?$xalloc@UFS_File@@@@$0A@@std@@@std@@SAAEAPEAU_Node@?$_Tree_nod@V?$_Tset_traits@UFS_File@@U?$less@UFS_File@@@std@@V?$xalloc@UFS_File@@@@$0A@@std@@@2@PEAU342@@Z
_TEXT	SEGMENT
_Pnode$ = 8
?_Right@?$_Tree_val@V?$_Tset_traits@UFS_File@@U?$less@UFS_File@@@std@@V?$xalloc@UFS_File@@@@$0A@@std@@@std@@SAAEAPEAU_Node@?$_Tree_nod@V?$_Tset_traits@UFS_File@@U?$less@UFS_File@@@std@@V?$xalloc@UFS_File@@@@$0A@@std@@@2@PEAU342@@Z PROC ; std::_Tree_val<std::_Tset_traits<FS_File,std::less<FS_File>,xalloc<FS_File>,0> >::_Right, COMDAT

; 632  : 		return ((_Nodepref)(*_Pnode)._Right);

	lea	rax, QWORD PTR [rcx+16]

; 633  : 		}

	ret	0
?_Right@?$_Tree_val@V?$_Tset_traits@UFS_File@@U?$less@UFS_File@@@std@@V?$xalloc@UFS_File@@@@$0A@@std@@@std@@SAAEAPEAU_Node@?$_Tree_nod@V?$_Tset_traits@UFS_File@@U?$less@UFS_File@@@std@@V?$xalloc@UFS_File@@@@$0A@@std@@@2@PEAU342@@Z ENDP ; std::_Tree_val<std::_Tset_traits<FS_File,std::less<FS_File>,xalloc<FS_File>,0> >::_Right
; Function compile flags: /Ogtpy
_TEXT	ENDS
;	COMDAT ?_Parent@?$_Tree_val@V?$_Tset_traits@UFS_File@@U?$less@UFS_File@@@std@@V?$xalloc@UFS_File@@@@$0A@@std@@@std@@SAAEAPEAU_Node@?$_Tree_nod@V?$_Tset_traits@UFS_File@@U?$less@UFS_File@@@std@@V?$xalloc@UFS_File@@@@$0A@@std@@@2@PEAU342@@Z
_TEXT	SEGMENT
_Pnode$ = 8
?_Parent@?$_Tree_val@V?$_Tset_traits@UFS_File@@U?$less@UFS_File@@@std@@V?$xalloc@UFS_File@@@@$0A@@std@@@std@@SAAEAPEAU_Node@?$_Tree_nod@V?$_Tset_traits@UFS_File@@U?$less@UFS_File@@@std@@V?$xalloc@UFS_File@@@@$0A@@std@@@2@PEAU342@@Z PROC ; std::_Tree_val<std::_Tset_traits<FS_File,std::less<FS_File>,xalloc<FS_File>,0> >::_Parent, COMDAT

; 627  : 		return ((_Nodepref)(*_Pnode)._Parent);

	lea	rax, QWORD PTR [rcx+8]

; 628  : 		}

	ret	0
?_Parent@?$_Tree_val@V?$_Tset_traits@UFS_File@@U?$less@UFS_File@@@std@@V?$xalloc@UFS_File@@@@$0A@@std@@@std@@SAAEAPEAU_Node@?$_Tree_nod@V?$_Tset_traits@UFS_File@@U?$less@UFS_File@@@std@@V?$xalloc@UFS_File@@@@$0A@@std@@@2@PEAU342@@Z ENDP ; std::_Tree_val<std::_Tset_traits<FS_File,std::less<FS_File>,xalloc<FS_File>,0> >::_Parent
; Function compile flags: /Ogtpy
_TEXT	ENDS
;	COMDAT ?_Left@?$_Tree_val@V?$_Tset_traits@UFS_File@@U?$less@UFS_File@@@std@@V?$xalloc@UFS_File@@@@$0A@@std@@@std@@SAAEAPEAU_Node@?$_Tree_nod@V?$_Tset_traits@UFS_File@@U?$less@UFS_File@@@std@@V?$xalloc@UFS_File@@@@$0A@@std@@@2@PEAU342@@Z
_TEXT	SEGMENT
_Pnode$ = 8
?_Left@?$_Tree_val@V?$_Tset_traits@UFS_File@@U?$less@UFS_File@@@std@@V?$xalloc@UFS_File@@@@$0A@@std@@@std@@SAAEAPEAU_Node@?$_Tree_nod@V?$_Tset_traits@UFS_File@@U?$less@UFS_File@@@std@@V?$xalloc@UFS_File@@@@$0A@@std@@@2@PEAU342@@Z PROC ; std::_Tree_val<std::_Tset_traits<FS_File,std::less<FS_File>,xalloc<FS_File>,0> >::_Left, COMDAT

; 622  : 		return ((_Nodepref)(*_Pnode)._Left);

	mov	rax, rcx

; 623  : 		}

	ret	0
?_Left@?$_Tree_val@V?$_Tset_traits@UFS_File@@U?$less@UFS_File@@@std@@V?$xalloc@UFS_File@@@@$0A@@std@@@std@@SAAEAPEAU_Node@?$_Tree_nod@V?$_Tset_traits@UFS_File@@U?$less@UFS_File@@@std@@V?$xalloc@UFS_File@@@@$0A@@std@@@2@PEAU342@@Z ENDP ; std::_Tree_val<std::_Tset_traits<FS_File,std::less<FS_File>,xalloc<FS_File>,0> >::_Left
; Function compile flags: /Ogtpy
_TEXT	ENDS
;	COMDAT ?_Isnil@?$_Tree_val@V?$_Tset_traits@UFS_File@@U?$less@UFS_File@@@std@@V?$xalloc@UFS_File@@@@$0A@@std@@@std@@SAAEADPEAU_Node@?$_Tree_nod@V?$_Tset_traits@UFS_File@@U?$less@UFS_File@@@std@@V?$xalloc@UFS_File@@@@$0A@@std@@@2@@Z
_TEXT	SEGMENT
_Pnode$ = 8
?_Isnil@?$_Tree_val@V?$_Tset_traits@UFS_File@@U?$less@UFS_File@@@std@@V?$xalloc@UFS_File@@@@$0A@@std@@@std@@SAAEADPEAU_Node@?$_Tree_nod@V?$_Tset_traits@UFS_File@@U?$less@UFS_File@@@std@@V?$xalloc@UFS_File@@@@$0A@@std@@@2@@Z PROC ; std::_Tree_val<std::_Tset_traits<FS_File,std::less<FS_File>,xalloc<FS_File>,0> >::_Isnil, COMDAT

; 612  : 		return ((char&)(*_Pnode)._Isnil);

	lea	rax, QWORD PTR [rcx+89]

; 613  : 		}

	ret	0
?_Isnil@?$_Tree_val@V?$_Tset_traits@UFS_File@@U?$less@UFS_File@@@std@@V?$xalloc@UFS_File@@@@$0A@@std@@@std@@SAAEADPEAU_Node@?$_Tree_nod@V?$_Tset_traits@UFS_File@@U?$less@UFS_File@@@std@@V?$xalloc@UFS_File@@@@$0A@@std@@@2@@Z ENDP ; std::_Tree_val<std::_Tset_traits<FS_File,std::less<FS_File>,xalloc<FS_File>,0> >::_Isnil
; Function compile flags: /Ogtpy
; File c:\users\nummer\documents\github\olr-3.0\src\xray\xrcore\_stl_extensions.h
_TEXT	ENDS
;	COMDAT ??0?$xalloc@Vshared_str@@@@QEAA@XZ
_TEXT	SEGMENT
this$ = 8
??0?$xalloc@Vshared_str@@@@QEAA@XZ PROC			; xalloc<shared_str>::xalloc<shared_str>, COMDAT

; 76   : 													xalloc			()										{	}

	mov	rax, rcx
	ret	0
??0?$xalloc@Vshared_str@@@@QEAA@XZ ENDP			; xalloc<shared_str>::xalloc<shared_str>
; Function compile flags: /Ogtpy
; File c:\program files (x86)\microsoft visual studio 10.0\vc\include\vector
_TEXT	ENDS
;	COMDAT ??0?$_Vector_val@Vshared_str@@V?$xalloc@Vshared_str@@@@@std@@QEAA@V?$xalloc@Vshared_str@@@@@Z
_TEXT	SEGMENT
this$ = 8
??0?$_Vector_val@Vshared_str@@V?$xalloc@Vshared_str@@@@@std@@QEAA@V?$xalloc@Vshared_str@@@@@Z PROC ; std::_Vector_val<shared_str,xalloc<shared_str> >::_Vector_val<shared_str,xalloc<shared_str> >, COMDAT

; 427  : 		_Myfirst = 0;

	xor	eax, eax
	mov	QWORD PTR [rcx], rax

; 428  : 		_Mylast = 0;

	mov	QWORD PTR [rcx+8], rax

; 429  : 		_Myend = 0;

	mov	QWORD PTR [rcx+16], rax

; 430  : 		}

	mov	rax, rcx
	ret	0
??0?$_Vector_val@Vshared_str@@V?$xalloc@Vshared_str@@@@@std@@QEAA@V?$xalloc@Vshared_str@@@@@Z ENDP ; std::_Vector_val<shared_str,xalloc<shared_str> >::_Vector_val<shared_str,xalloc<shared_str> >
; Function compile flags: /Ogtpy
; File c:\users\nummer\documents\github\olr-3.0\src\xray\xrcore\_stl_extensions.h
_TEXT	ENDS
;	COMDAT ??0?$xalloc@V?$basic_string@DU?$char_traits@D@std@@V?$xalloc@D@@@std@@@@QEAA@XZ
_TEXT	SEGMENT
this$ = 8
??0?$xalloc@V?$basic_string@DU?$char_traits@D@std@@V?$xalloc@D@@@std@@@@QEAA@XZ PROC ; xalloc<std::basic_string<char,std::char_traits<char>,xalloc<char> > >::xalloc<std::basic_string<char,std::char_traits<char>,xalloc<char> > >, COMDAT

; 76   : 													xalloc			()										{	}

	mov	rax, rcx
	ret	0
??0?$xalloc@V?$basic_string@DU?$char_traits@D@std@@V?$xalloc@D@@@std@@@@QEAA@XZ ENDP ; xalloc<std::basic_string<char,std::char_traits<char>,xalloc<char> > >::xalloc<std::basic_string<char,std::char_traits<char>,xalloc<char> > >
; Function compile flags: /Ogtpy
; File c:\program files (x86)\microsoft visual studio 10.0\vc\include\vector
_TEXT	ENDS
;	COMDAT ??0?$_Vector_val@V?$basic_string@DU?$char_traits@D@std@@V?$xalloc@D@@@std@@V?$xalloc@V?$basic_string@DU?$char_traits@D@std@@V?$xalloc@D@@@std@@@@@std@@QEAA@V?$xalloc@V?$basic_string@DU?$char_traits@D@std@@V?$xalloc@D@@@std@@@@@Z
_TEXT	SEGMENT
this$ = 8
??0?$_Vector_val@V?$basic_string@DU?$char_traits@D@std@@V?$xalloc@D@@@std@@V?$xalloc@V?$basic_string@DU?$char_traits@D@std@@V?$xalloc@D@@@std@@@@@std@@QEAA@V?$xalloc@V?$basic_string@DU?$char_traits@D@std@@V?$xalloc@D@@@std@@@@@Z PROC ; std::_Vector_val<std::basic_string<char,std::char_traits<char>,xalloc<char> >,xalloc<std::basic_string<char,std::char_traits<char>,xalloc<char> > > >::_Vector_val<std::basic_string<char,std::char_traits<char>,xalloc<char> >,xalloc<std::basic_string<char,std::char_traits<char>,xalloc<char> > > >, COMDAT

; 427  : 		_Myfirst = 0;

	xor	eax, eax
	mov	QWORD PTR [rcx], rax

; 428  : 		_Mylast = 0;

	mov	QWORD PTR [rcx+8], rax

; 429  : 		_Myend = 0;

	mov	QWORD PTR [rcx+16], rax

; 430  : 		}

	mov	rax, rcx
	ret	0
??0?$_Vector_val@V?$basic_string@DU?$char_traits@D@std@@V?$xalloc@D@@@std@@V?$xalloc@V?$basic_string@DU?$char_traits@D@std@@V?$xalloc@D@@@std@@@@@std@@QEAA@V?$xalloc@V?$basic_string@DU?$char_traits@D@std@@V?$xalloc@D@@@std@@@@@Z ENDP ; std::_Vector_val<std::basic_string<char,std::char_traits<char>,xalloc<char> >,xalloc<std::basic_string<char,std::char_traits<char>,xalloc<char> > > >::_Vector_val<std::basic_string<char,std::char_traits<char>,xalloc<char> >,xalloc<std::basic_string<char,std::char_traits<char>,xalloc<char> > > >
; Function compile flags: /Ogtpy
; File c:\program files (x86)\microsoft visual studio 10.0\vc\include\xutility
_TEXT	ENDS
;	COMDAT ??0?$reverse_iterator@V?$_Tree_const_iterator@V?$_Tree_val@V?$_Tset_traits@Ufile@CLocatorAPI@@Ufile_pred@2@V?$xalloc@Ufile@CLocatorAPI@@@@$0A@@std@@@std@@@std@@@std@@QEAA@V?$_Tree_const_iterator@V?$_Tree_val@V?$_Tset_traits@Ufile@CLocatorAPI@@Ufile_pred@2@V?$xalloc@Ufile@CLocatorAPI@@@@$0A@@std@@@std@@@1@@Z
_TEXT	SEGMENT
this$ = 8
_Right$ = 16
??0?$reverse_iterator@V?$_Tree_const_iterator@V?$_Tree_val@V?$_Tset_traits@Ufile@CLocatorAPI@@Ufile_pred@2@V?$xalloc@Ufile@CLocatorAPI@@@@$0A@@std@@@std@@@std@@@std@@QEAA@V?$_Tree_const_iterator@V?$_Tree_val@V?$_Tset_traits@Ufile@CLocatorAPI@@Ufile_pred@2@V?$xalloc@Ufile@CLocatorAPI@@@@$0A@@std@@@std@@@1@@Z PROC ; std::reverse_iterator<std::_Tree_const_iterator<std::_Tree_val<std::_Tset_traits<CLocatorAPI::file,CLocatorAPI::file_pred,xalloc<CLocatorAPI::file>,0> > > >::reverse_iterator<std::_Tree_const_iterator<std::_Tree_val<std::_Tset_traits<CLocatorAPI::file,CLocatorAPI::file_pred,xalloc<CLocatorAPI::file>,0> > > >, COMDAT

; 1249 : 		{	// construct wrapped iterator from _Right

	mov	QWORD PTR [rcx], rdx

; 1250 : 		}

	mov	rax, rcx
	ret	0
??0?$reverse_iterator@V?$_Tree_const_iterator@V?$_Tree_val@V?$_Tset_traits@Ufile@CLocatorAPI@@Ufile_pred@2@V?$xalloc@Ufile@CLocatorAPI@@@@$0A@@std@@@std@@@std@@@std@@QEAA@V?$_Tree_const_iterator@V?$_Tree_val@V?$_Tset_traits@Ufile@CLocatorAPI@@Ufile_pred@2@V?$xalloc@Ufile@CLocatorAPI@@@@$0A@@std@@@std@@@1@@Z ENDP ; std::reverse_iterator<std::_Tree_const_iterator<std::_Tree_val<std::_Tset_traits<CLocatorAPI::file,CLocatorAPI::file_pred,xalloc<CLocatorAPI::file>,0> > > >::reverse_iterator<std::_Tree_const_iterator<std::_Tree_val<std::_Tset_traits<CLocatorAPI::file,CLocatorAPI::file_pred,xalloc<CLocatorAPI::file>,0> > > >
; Function compile flags: /Ogtpy
; File c:\program files (x86)\microsoft visual studio 10.0\vc\include\xtree
_TEXT	ENDS
;	COMDAT ??8?$_Tree_const_iterator@V?$_Tree_val@V?$_Tset_traits@UFS_File@@U?$less@UFS_File@@@std@@V?$xalloc@UFS_File@@@@$0A@@std@@@std@@@std@@QEBA_NAEBV01@@Z
_TEXT	SEGMENT
this$ = 8
_Right$ = 16
??8?$_Tree_const_iterator@V?$_Tree_val@V?$_Tset_traits@UFS_File@@U?$less@UFS_File@@@std@@V?$xalloc@UFS_File@@@@$0A@@std@@@std@@@std@@QEBA_NAEBV01@@Z PROC ; std::_Tree_const_iterator<std::_Tree_val<std::_Tset_traits<FS_File,std::less<FS_File>,xalloc<FS_File>,0> > >::operator==, COMDAT

; 317  :  #if _ITERATOR_DEBUG_LEVEL == 2
; 318  : 		if (this->_Getcont() == 0
; 319  : 			|| this->_Getcont() != _Right._Getcont())
; 320  : 			{	// report error
; 321  : 			_DEBUG_ERROR("map/set iterators incompatible");
; 322  : 			_SCL_SECURE_INVALID_ARGUMENT;
; 323  : 			}
; 324  : 
; 325  :  #elif _ITERATOR_DEBUG_LEVEL == 1
; 326  : 		_SCL_SECURE_VALIDATE(this->_Getcont() != 0
; 327  : 			&& this->_Getcont() == _Right._Getcont());
; 328  :  #endif /* _ITERATOR_DEBUG_LEVEL */
; 329  : 
; 330  : 		return (this->_Ptr == _Right._Ptr);

	mov	rdx, QWORD PTR [rdx]
	cmp	QWORD PTR [rcx], rdx
	sete	al

; 331  : 		}

	ret	0
??8?$_Tree_const_iterator@V?$_Tree_val@V?$_Tset_traits@UFS_File@@U?$less@UFS_File@@@std@@V?$xalloc@UFS_File@@@@$0A@@std@@@std@@@std@@QEBA_NAEBV01@@Z ENDP ; std::_Tree_const_iterator<std::_Tree_val<std::_Tset_traits<FS_File,std::less<FS_File>,xalloc<FS_File>,0> > >::operator==
; Function compile flags: /Ogtpy
; File c:\program files (x86)\microsoft visual studio 10.0\vc\include\vector
_TEXT	ENDS
;	COMDAT ??8?$_Vector_const_iterator@V?$_Vector_val@PEADV?$xalloc@PEAD@@@std@@@std@@QEBA_NAEBV01@@Z
_TEXT	SEGMENT
this$ = 8
_Right$ = 16
??8?$_Vector_const_iterator@V?$_Vector_val@PEADV?$xalloc@PEAD@@@std@@@std@@QEBA_NAEBV01@@Z PROC ; std::_Vector_const_iterator<std::_Vector_val<char * __ptr64,xalloc<char * __ptr64> > >::operator==, COMDAT

; 202  : 		_Compat(_Right);
; 203  : 		return (this->_Ptr == _Right._Ptr);

	mov	rdx, QWORD PTR [rdx]
