; Listing generated by Microsoft (R) Optimizing Compiler Version 18.00.40629.0 

include listing.inc

INCLUDELIB OLDNAMES

PUBLIC	??_C@_0BF@HIBEFMCL@?$CBCan?8t?5save?5inifile?3?$AA@ ; `string'
PUBLIC	??_C@_0P@PFFEEJAK@CInifile?3?3Load?$AA@		; `string'
PUBLIC	??_C@_0L@BOCIKDOE@Xr_ini?4cpp?$AA@		; `string'
PUBLIC	??_C@_01BIAFAFID@F?$AA@				; `string'
PUBLIC	??_C@_08GPLAJCBH@?$CDinclude?$AA@		; `string'
PUBLIC	??_C@_0O@OGKPJIFO@path?$CG?$CGpath?$FL0?$FN?$AA@ ; `string'
PUBLIC	??_C@_0BJ@JNOOHJGB@Can?8t?5find?5include?5file?3?$AA@ ; `string'
PUBLIC	??_C@_01JPJNBJEM@I?$AA@				; `string'
PUBLIC	??_C@_0BO@PADAFPII@Duplicate?5section?5?8?$CFs?8?5found?4?$AA@ ; `string'
PUBLIC	??_C@_0BI@IHFKKOHL@Bad?5ini?5section?5found?3?5?$AA@ ; `string'
PUBLIC	??_C@_0BA@NMAHPAMG@strchr?$CIstr?0?8?$FN?8?$CJ?$AA@ ; `string'
PUBLIC	??_C@_02EBHDEFHH@?$FN?3?$AA@			; `string'
PUBLIC	??_C@_0BC@LBCCFBEL@CInifile?3?3save_as?$AA@	; `string'
PUBLIC	??_C@_0BA@HGOPAPJG@fName?$CG?$CGfName?$FL0?$FN?$AA@ ; `string'
PUBLIC	??_C@_04LIFAFMCE@?$FL?$CFs?$FN?$AA@		; `string'
PUBLIC	??_C@_01CLKCMJKC@?5?$AA@			; `string'
PUBLIC	??_C@_0BB@DGLKGBOG@?$CF8s?$CF?932s?5?$DN?5?$CF?932s?$AA@ ; `string'
PUBLIC	??_C@_0M@FGDEMPPI@?$CF8s?$CF?932s?5?$DN?5?$AA@	; `string'
PUBLIC	??_C@_0BI@PGHMEHEA@Can?8t?5open?5section?5?8?$CFs?8?$AA@ ; `string'
PUBLIC	??_C@_0BE@BCNJJKHP@CInifile?3?3r_section?$AA@	; `string'
PUBLIC	??_C@_0CI@BBBLINKF@Can?8t?5find?5variable?5?$CFs?5in?5?$FL?$CFs?$FN?0?5@ ; `string'
PUBLIC	??_C@_0BD@DOJGBPMF@CInifile?3?3r_string?$AA@	; `string'
PUBLIC	??_C@_0M@JJJBFJKB@?$CFf?0?$CFf?0?$CFf?0?$CFf?$AA@ ; `string'
PUBLIC	??_C@_0M@MLCONGPP@?$CFd?0?$CFd?0?$CFd?0?$CFd?$AA@ ; `string'
PUBLIC	??_C@_05KABNCBHK@?$CFd?0?$CFd?$AA@		; `string'
PUBLIC	??_C@_08GDAMKODC@?$CFd?0?$CFd?0?$CFd?$AA@	; `string'
PUBLIC	??_C@_05OIOLBAJI@?$CFf?0?$CFf?$AA@		; `string'
PUBLIC	??_C@_08GJNPJIKN@?$CFf?0?$CFf?0?$CFf?$AA@	; `string'
PUBLIC	??_C@_0BD@HEABFKIK@CInifile?3?3w_string?$AA@	; `string'
PUBLIC	??_C@_0L@MCBJLICI@?$CBbReadOnly?$AA@		; `string'
PUBLIC	??_C@_02NJPGOMH@?$CFf?$AA@			; `string'
PUBLIC	??_C@_03MCADLMAF@off?$AA@			; `string'
PUBLIC	??_C@_0BG@HJJEFCMD@CInifile?3?3remove_line?$AA@	; `string'
PUBLIC	??_C@_0DA@GAFJJPBK@A?$CB?$DNdata?4Data?4end?$CI?$CJ?5?$CG?$CG?5xr_strcmp?$CI@ ; `string'
PUBLIC	??_C@_02DPKJAMEF@?$CFd?$AA@			; `string'
PUBLIC	?pSettings@@3PEAVCInifile@@EA			; pSettings
EXTRN	__imp__strlwr:PROC
EXTRN	__imp_atof:PROC
EXTRN	__imp_atoi:PROC
EXTRN	__imp_isspace:PROC
;	COMDAT ?ignore_always@?L@??remove_line@CInifile@@QEAAXPEBD0@Z@4_NA
_BSS	SEGMENT
?ignore_always@?L@??remove_line@CInifile@@QEAAXPEBD0@Z@4_NA DB 01H DUP (?) ; `CInifile::remove_line'::`11'::ignore_always
_BSS	ENDS
;	COMDAT ?ignore_always@?3??remove_line@CInifile@@QEAAXPEBD0@Z@4_NA
_BSS	SEGMENT
?ignore_always@?3??remove_line@CInifile@@QEAAXPEBD0@Z@4_NA DB 01H DUP (?) ; `CInifile::remove_line'::`4'::ignore_always
_BSS	ENDS
;	COMDAT ?ignore_always@?3??w_string@CInifile@@QEAAXPEBD000@Z@4_NA
_BSS	SEGMENT
?ignore_always@?3??w_string@CInifile@@QEAAXPEBD000@Z@4_NA DB 01H DUP (?) ; `CInifile::w_string'::`4'::ignore_always
_BSS	ENDS
;	COMDAT ?ignore_always@?6??save_as@CInifile@@QEAA_NPEBD@Z@4_NA
_BSS	SEGMENT
?ignore_always@?6??save_as@CInifile@@QEAA_NPEBD@Z@4_NA DB 01H DUP (?) ; `CInifile::save_as'::`7'::ignore_always
_BSS	ENDS
;	COMDAT ?ignore_always@?CH@??Load@CInifile@@AEAAXPEAVIReader@@PEBD@Z@4_NA
_BSS	SEGMENT
?ignore_always@?CH@??Load@CInifile@@AEAAXPEAVIReader@@PEBD@Z@4_NA DB 01H DUP (?) ; `CInifile::Load'::`39'::ignore_always
_BSS	ENDS
;	COMDAT ?ignore_always@?BK@??Load@CInifile@@AEAAXPEAVIReader@@PEBD@Z@4_NA
_BSS	SEGMENT
?ignore_always@?BK@??Load@CInifile@@AEAAXPEAVIReader@@PEBD@Z@4_NA DB 01H DUP (?) ; `CInifile::Load'::`26'::ignore_always
_BSS	ENDS
;	COMDAT ?ignore_always@?BD@??Load@CInifile@@AEAAXPEAVIReader@@PEBD@Z@4_NA
_BSS	SEGMENT
?ignore_always@?BD@??Load@CInifile@@AEAAXPEAVIReader@@PEBD@Z@4_NA DB 01H DUP (?) ; `CInifile::Load'::`19'::ignore_always
_BSS	ENDS
;	COMDAT ?ignore_always@?3??Load@CInifile@@AEAAXPEAVIReader@@PEBD@Z@4_NA
_BSS	SEGMENT
?ignore_always@?3??Load@CInifile@@AEAAXPEAVIReader@@PEBD@Z@4_NA DB 01H DUP (?) ; `CInifile::Load'::`4'::ignore_always
	ALIGN	8

?pSettings@@3PEAVCInifile@@EA DQ 01H DUP (?)		; pSettings
_BSS	ENDS
;	COMDAT ??_C@_02DPKJAMEF@?$CFd?$AA@
CONST	SEGMENT
??_C@_02DPKJAMEF@?$CFd?$AA@ DB '%d', 00H		; `string'
CONST	ENDS
;	COMDAT ??_C@_0DA@GAFJJPBK@A?$CB?$DNdata?4Data?4end?$CI?$CJ?5?$CG?$CG?5xr_strcmp?$CI@
CONST	SEGMENT
??_C@_0DA@GAFJJPBK@A?$CB?$DNdata?4Data?4end?$CI?$CJ?5?$CG?$CG?5xr_strcmp?$CI@ DB 'A'
	DB	'!=data.Data.end() && xr_strcmp(*A->first,L)==0', 00H ; `string'
CONST	ENDS
;	COMDAT ??_C@_0BG@HJJEFCMD@CInifile?3?3remove_line?$AA@
CONST	SEGMENT
??_C@_0BG@HJJEFCMD@CInifile?3?3remove_line?$AA@ DB 'CInifile::remove_line'
	DB	00H						; `string'
CONST	ENDS
;	COMDAT ??_C@_03MCADLMAF@off?$AA@
CONST	SEGMENT
??_C@_03MCADLMAF@off?$AA@ DB 'off', 00H			; `string'
CONST	ENDS
;	COMDAT ??_C@_02NJPGOMH@?$CFf?$AA@
CONST	SEGMENT
??_C@_02NJPGOMH@?$CFf?$AA@ DB '%f', 00H			; `string'
CONST	ENDS
;	COMDAT ??_C@_0L@MCBJLICI@?$CBbReadOnly?$AA@
CONST	SEGMENT
??_C@_0L@MCBJLICI@?$CBbReadOnly?$AA@ DB '!bReadOnly', 00H ; `string'
CONST	ENDS
;	COMDAT ??_C@_0BD@HEABFKIK@CInifile?3?3w_string?$AA@
CONST	SEGMENT
??_C@_0BD@HEABFKIK@CInifile?3?3w_string?$AA@ DB 'CInifile::w_string', 00H ; `string'
CONST	ENDS
;	COMDAT ??_C@_08GJNPJIKN@?$CFf?0?$CFf?0?$CFf?$AA@
CONST	SEGMENT
??_C@_08GJNPJIKN@?$CFf?0?$CFf?0?$CFf?$AA@ DB '%f,%f,%f', 00H ; `string'
CONST	ENDS
;	COMDAT ??_C@_05OIOLBAJI@?$CFf?0?$CFf?$AA@
CONST	SEGMENT
??_C@_05OIOLBAJI@?$CFf?0?$CFf?$AA@ DB '%f,%f', 00H	; `string'
CONST	ENDS
;	COMDAT ??_C@_08GDAMKODC@?$CFd?0?$CFd?0?$CFd?$AA@
CONST	SEGMENT
??_C@_08GDAMKODC@?$CFd?0?$CFd?0?$CFd?$AA@ DB '%d,%d,%d', 00H ; `string'
CONST	ENDS
;	COMDAT ??_C@_05KABNCBHK@?$CFd?0?$CFd?$AA@
CONST	SEGMENT
??_C@_05KABNCBHK@?$CFd?0?$CFd?$AA@ DB '%d,%d', 00H	; `string'
CONST	ENDS
;	COMDAT ??_C@_0M@MLCONGPP@?$CFd?0?$CFd?0?$CFd?0?$CFd?$AA@
CONST	SEGMENT
??_C@_0M@MLCONGPP@?$CFd?0?$CFd?0?$CFd?0?$CFd?$AA@ DB '%d,%d,%d,%d', 00H ; `string'
CONST	ENDS
;	COMDAT ??_C@_0M@JJJBFJKB@?$CFf?0?$CFf?0?$CFf?0?$CFf?$AA@
CONST	SEGMENT
??_C@_0M@JJJBFJKB@?$CFf?0?$CFf?0?$CFf?0?$CFf?$AA@ DB '%f,%f,%f,%f', 00H ; `string'
CONST	ENDS
;	COMDAT ??_C@_0BD@DOJGBPMF@CInifile?3?3r_string?$AA@
CONST	SEGMENT
??_C@_0BD@DOJGBPMF@CInifile?3?3r_string?$AA@ DB 'CInifile::r_string', 00H ; `string'
CONST	ENDS
;	COMDAT ??_C@_0CI@BBBLINKF@Can?8t?5find?5variable?5?$CFs?5in?5?$FL?$CFs?$FN?0?5@
CONST	SEGMENT
??_C@_0CI@BBBLINKF@Can?8t?5find?5variable?5?$CFs?5in?5?$FL?$CFs?$FN?0?5@ DB 'C'
	DB	'an''t find variable %s in [%s], file %s', 00H ; `string'
CONST	ENDS
;	COMDAT ??_C@_0BE@BCNJJKHP@CInifile?3?3r_section?$AA@
CONST	SEGMENT
??_C@_0BE@BCNJJKHP@CInifile?3?3r_section?$AA@ DB 'CInifile::r_section', 00H ; `string'
CONST	ENDS
;	COMDAT ??_C@_0BI@PGHMEHEA@Can?8t?5open?5section?5?8?$CFs?8?$AA@
CONST	SEGMENT
??_C@_0BI@PGHMEHEA@Can?8t?5open?5section?5?8?$CFs?8?$AA@ DB 'Can''t open '
	DB	'section ''%s''', 00H			; `string'
CONST	ENDS
;	COMDAT ??_C@_0M@FGDEMPPI@?$CF8s?$CF?932s?5?$DN?5?$AA@
CONST	SEGMENT
??_C@_0M@FGDEMPPI@?$CF8s?$CF?932s?5?$DN?5?$AA@ DB '%8s%-32s = ', 00H ; `string'
CONST	ENDS
;	COMDAT ??_C@_0BB@DGLKGBOG@?$CF8s?$CF?932s?5?$DN?5?$CF?932s?$AA@
CONST	SEGMENT
??_C@_0BB@DGLKGBOG@?$CF8s?$CF?932s?5?$DN?5?$CF?932s?$AA@ DB '%8s%-32s = %'
	DB	'-32s', 00H					; `string'
CONST	ENDS
;	COMDAT ??_C@_01CLKCMJKC@?5?$AA@
CONST	SEGMENT
??_C@_01CLKCMJKC@?5?$AA@ DB ' ', 00H			; `string'
CONST	ENDS
;	COMDAT ??_C@_04LIFAFMCE@?$FL?$CFs?$FN?$AA@
CONST	SEGMENT
??_C@_04LIFAFMCE@?$FL?$CFs?$FN?$AA@ DB '[%s]', 00H	; `string'
CONST	ENDS
;	COMDAT ??_C@_0BA@HGOPAPJG@fName?$CG?$CGfName?$FL0?$FN?$AA@
CONST	SEGMENT
??_C@_0BA@HGOPAPJG@fName?$CG?$CGfName?$FL0?$FN?$AA@ DB 'fName&&fName[0]', 00H ; `string'
CONST	ENDS
;	COMDAT ??_C@_0BC@LBCCFBEL@CInifile?3?3save_as?$AA@
CONST	SEGMENT
??_C@_0BC@LBCCFBEL@CInifile?3?3save_as?$AA@ DB 'CInifile::save_as', 00H ; `string'
CONST	ENDS
;	COMDAT ??_C@_02EBHDEFHH@?$FN?3?$AA@
CONST	SEGMENT
??_C@_02EBHDEFHH@?$FN?3?$AA@ DB ']:', 00H		; `string'
CONST	ENDS
;	COMDAT ??_C@_0BA@NMAHPAMG@strchr?$CIstr?0?8?$FN?8?$CJ?$AA@
CONST	SEGMENT
??_C@_0BA@NMAHPAMG@strchr?$CIstr?0?8?$FN?8?$CJ?$AA@ DB 'strchr(str,'']'')'
	DB	00H						; `string'
CONST	ENDS
;	COMDAT ??_C@_0BI@IHFKKOHL@Bad?5ini?5section?5found?3?5?$AA@
CONST	SEGMENT
??_C@_0BI@IHFKKOHL@Bad?5ini?5section?5found?3?5?$AA@ DB 'Bad ini section '
	DB	'found: ', 00H				; `string'
CONST	ENDS
;	COMDAT ??_C@_0BO@PADAFPII@Duplicate?5section?5?8?$CFs?8?5found?4?$AA@
CONST	SEGMENT
??_C@_0BO@PADAFPII@Duplicate?5section?5?8?$CFs?8?5found?4?$AA@ DB 'Duplic'
	DB	'ate section ''%s'' found.', 00H		; `string'
CONST	ENDS
;	COMDAT ??_C@_01JPJNBJEM@I?$AA@
CONST	SEGMENT
??_C@_01JPJNBJEM@I?$AA@ DB 'I', 00H			; `string'
CONST	ENDS
;	COMDAT ??_C@_0BJ@JNOOHJGB@Can?8t?5find?5include?5file?3?$AA@
CONST	SEGMENT
??_C@_0BJ@JNOOHJGB@Can?8t?5find?5include?5file?3?$AA@ DB 'Can''t find inc'
	DB	'lude file:', 00H				; `string'
CONST	ENDS
;	COMDAT ??_C@_0O@OGKPJIFO@path?$CG?$CGpath?$FL0?$FN?$AA@
CONST	SEGMENT
??_C@_0O@OGKPJIFO@path?$CG?$CGpath?$FL0?$FN?$AA@ DB 'path&&path[0]', 00H ; `string'
CONST	ENDS
;	COMDAT ??_C@_08GPLAJCBH@?$CDinclude?$AA@
CONST	SEGMENT
??_C@_08GPLAJCBH@?$CDinclude?$AA@ DB '#include', 00H	; `string'
CONST	ENDS
;	COMDAT ??_C@_01BIAFAFID@F?$AA@
CONST	SEGMENT
??_C@_01BIAFAFID@F?$AA@ DB 'F', 00H			; `string'
CONST	ENDS
;	COMDAT ??_C@_0L@BOCIKDOE@Xr_ini?4cpp?$AA@
CONST	SEGMENT
??_C@_0L@BOCIKDOE@Xr_ini?4cpp?$AA@ DB 'Xr_ini.cpp', 00H	; `string'
CONST	ENDS
;	COMDAT ??_C@_0P@PFFEEJAK@CInifile?3?3Load?$AA@
CONST	SEGMENT
??_C@_0P@PFFEEJAK@CInifile?3?3Load?$AA@ DB 'CInifile::Load', 00H ; `string'
CONST	ENDS
;	COMDAT ??_C@_0BF@HIBEFMCL@?$CBCan?8t?5save?5inifile?3?$AA@
CONST	SEGMENT
??_C@_0BF@HIBEFMCL@?$CBCan?8t?5save?5inifile?3?$AA@ DB '!Can''t save inif'
	DB	'ile:', 00H					; `string'
PUBLIC	??7shared_str@@QEBA_NXZ				; shared_str::operator!
PUBLIC	??M@YA_NAEBVshared_str@@0@Z			; operator<
PUBLIC	?equal@shared_str@@QEBA_NAEBV1@@Z		; shared_str::equal
PUBLIC	?strchr@@YAPEADPEADH@Z				; strchr
PUBLIC	?color_rgba@@YAIIIII@Z				; color_rgba
PUBLIC	?color_argb@@YAIIIII@Z				; color_argb
PUBLIC	?color_get_A@@YAII@Z				; color_get_A
PUBLIC	?color_get_B@@YAII@Z				; color_get_B
PUBLIC	?color_get_G@@YAII@Z				; color_get_G
PUBLIC	?color_get_R@@YAII@Z				; color_get_R
PUBLIC	??$_Fn@V?$xalloc@PEAUSect@CInifile@@@@PEAUSect@CInifile@@PEAU23@@_Alloc_construct@std@@SAXHAEAV?$xalloc@PEAUSect@CInifile@@@@PEAPEAUSect@CInifile@@$$QEAPEAU34@@Z ; std::_Alloc_construct::_Fn<xalloc<CInifile::Sect * __ptr64>,CInifile::Sect * __ptr64,CInifile::Sect * __ptr64>
PUBLIC	??$construct@PEAUSect@CInifile@@PEAU12@@?$allocator_traits@V?$xalloc@PEAUSect@CInifile@@@@@std@@SAXAEAV?$xalloc@PEAUSect@CInifile@@@@PEAPEAUSect@CInifile@@$$QEAPEAU34@@Z ; std::allocator_traits<xalloc<CInifile::Sect * __ptr64> >::construct<CInifile::Sect * __ptr64,CInifile::Sect * __ptr64>
PUBLIC	??$forward@PEAUSect@CInifile@@@std@@YA$$QEAPEAUSect@CInifile@@AEAPEAU12@@Z ; std::forward<CInifile::Sect * __ptr64>
PUBLIC	??$_Fn@V?$xalloc@UItem@CInifile@@@@UItem@CInifile@@U23@@_Alloc_construct@std@@SAXHAEAV?$xalloc@UItem@CInifile@@@@PEAUItem@CInifile@@$$QEAU34@@Z ; std::_Alloc_construct::_Fn<xalloc<CInifile::Item>,CInifile::Item,CInifile::Item>
PUBLIC	??$construct@PEAUSect@CInifile@@PEAU12@@?$_Wrap_alloc@V?$xalloc@PEAUSect@CInifile@@@@@std@@QEAAXPEAPEAUSect@CInifile@@$$QEAPEAU23@@Z ; std::_Wrap_alloc<xalloc<CInifile::Sect * __ptr64> >::construct<CInifile::Sect * __ptr64,CInifile::Sect * __ptr64>
PUBLIC	??$construct@UItem@CInifile@@U12@@?$allocator_traits@V?$xalloc@UItem@CInifile@@@@@std@@SAXAEAV?$xalloc@UItem@CInifile@@@@PEAUItem@CInifile@@$$QEAU34@@Z ; std::allocator_traits<xalloc<CInifile::Item> >::construct<CInifile::Item,CInifile::Item>
PUBLIC	??$forward@UItem@CInifile@@@std@@YA$$QEAUItem@CInifile@@AEAU12@@Z ; std::forward<CInifile::Item>
PUBLIC	??$_Uninit_move@PEAPEAUSect@CInifile@@PEAPEAU12@V?$xalloc@PEAUSect@CInifile@@@@PEAU12@@std@@YAPEAPEAUSect@CInifile@@PEAPEAU12@00AEAU?$_Wrap_alloc@V?$xalloc@PEAUSect@CInifile@@@@@0@0U_Nonscalar_ptr_iterator_tag@0@@Z ; std::_Uninit_move<CInifile::Sect * __ptr64 * __ptr64,CInifile::Sect * __ptr64 * __ptr64,xalloc<CInifile::Sect * __ptr64>,CInifile::Sect * __ptr64>
PUBLIC	??$construct@UItem@CInifile@@U12@@?$_Wrap_alloc@V?$xalloc@UItem@CInifile@@@@@std@@QEAAXPEAUItem@CInifile@@$$QEAU23@@Z ; std::_Wrap_alloc<xalloc<CInifile::Item> >::construct<CInifile::Item,CInifile::Item>
PUBLIC	??$_Uninit_move@PEAPEAUSect@CInifile@@PEAPEAU12@V?$xalloc@PEAUSect@CInifile@@@@PEAU12@@std@@YAPEAPEAUSect@CInifile@@PEAPEAU12@00AEAU?$_Wrap_alloc@V?$xalloc@PEAUSect@CInifile@@@@@0@0U_Scalar_ptr_iterator_tag@0@@Z ; std::_Uninit_move<CInifile::Sect * __ptr64 * __ptr64,CInifile::Sect * __ptr64 * __ptr64,xalloc<CInifile::Sect * __ptr64>,CInifile::Sect * __ptr64>
PUBLIC	??$_Uninit_move@PEAUItem@CInifile@@PEAU12@V?$xalloc@UItem@CInifile@@@@U12@@std@@YAPEAUItem@CInifile@@PEAU12@00AEAU?$_Wrap_alloc@V?$xalloc@UItem@CInifile@@@@@0@0U_Nonscalar_ptr_iterator_tag@0@@Z ; std::_Uninit_move<CInifile::Item * __ptr64,CInifile::Item * __ptr64,xalloc<CInifile::Item>,CInifile::Item>
PUBLIC	??$_Advance@PEAPEAUSect@CInifile@@_J@std@@YAXAEAPEAPEAUSect@CInifile@@_JUrandom_access_iterator_tag@0@@Z ; std::_Advance<CInifile::Sect * __ptr64 * __ptr64,__int64>
PUBLIC	??$_Distance2@PEAPEAUSect@CInifile@@_J@std@@YAXPEAPEAUSect@CInifile@@0AEA_JUrandom_access_iterator_tag@0@@Z ; std::_Distance2<CInifile::Sect * __ptr64 * __ptr64,__int64>
PUBLIC	??$_Iter_cat@PEAPEAUSect@CInifile@@@std@@YA?AUrandom_access_iterator_tag@0@AEBQEAPEAUSect@CInifile@@@Z ; std::_Iter_cat<CInifile::Sect * __ptr64 * __ptr64>
PUBLIC	??$_Advance@PEAUItem@CInifile@@_J@std@@YAXAEAPEAUItem@CInifile@@_JUrandom_access_iterator_tag@0@@Z ; std::_Advance<CInifile::Item * __ptr64,__int64>
PUBLIC	??$_Distance2@PEAUItem@CInifile@@_J@std@@YAXPEAUItem@CInifile@@0AEA_JUrandom_access_iterator_tag@0@@Z ; std::_Distance2<CInifile::Item * __ptr64,__int64>
PUBLIC	??$_Iter_cat@PEAUItem@CInifile@@@std@@YA?AUrandom_access_iterator_tag@0@AEBQEAUItem@CInifile@@@Z ; std::_Iter_cat<CInifile::Item * __ptr64>
PUBLIC	??$_Uninit_fill_n@PEAPEAUSect@CInifile@@_KPEAU12@V?$xalloc@PEAUSect@CInifile@@@@PEAU12@@std@@YAXPEAPEAUSect@CInifile@@_KPEBQEAU12@AEAU?$_Wrap_alloc@V?$xalloc@PEAUSect@CInifile@@@@@0@0U_Nonscalar_ptr_iterator_tag@0@@Z ; std::_Uninit_fill_n<CInifile::Sect * __ptr64 * __ptr64,unsigned __int64,CInifile::Sect * __ptr64,xalloc<CInifile::Sect * __ptr64>,CInifile::Sect * __ptr64>
PUBLIC	??$_Uninit_move@PEAPEAUSect@CInifile@@PEAPEAU12@U?$_Wrap_alloc@V?$xalloc@PEAUSect@CInifile@@@@@std@@@std@@YAPEAPEAUSect@CInifile@@PEAPEAU12@00AEAU?$_Wrap_alloc@V?$xalloc@PEAUSect@CInifile@@@@@0@@Z ; std::_Uninit_move<CInifile::Sect * __ptr64 * __ptr64,CInifile::Sect * __ptr64 * __ptr64,std::_Wrap_alloc<xalloc<CInifile::Sect * __ptr64> > >
PUBLIC	??$_Uninit_move@PEAUItem@CInifile@@PEAU12@U?$_Wrap_alloc@V?$xalloc@UItem@CInifile@@@@@std@@@std@@YAPEAUItem@CInifile@@PEAU12@00AEAU?$_Wrap_alloc@V?$xalloc@UItem@CInifile@@@@@0@@Z ; std::_Uninit_move<CInifile::Item * __ptr64,CInifile::Item * __ptr64,std::_Wrap_alloc<xalloc<CInifile::Item> > >
PUBLIC	??$move@AEAUItem@CInifile@@@std@@YA$$QEAUItem@CInifile@@AEAU12@@Z ; std::move<CInifile::Item & __ptr64>
PUBLIC	??$advance@PEAPEAUSect@CInifile@@_J@std@@YAXAEAPEAPEAUSect@CInifile@@_J@Z ; std::advance<CInifile::Sect * __ptr64 * __ptr64,__int64>
PUBLIC	??$_Distance@PEAPEAUSect@CInifile@@_J@std@@YAXPEAPEAUSect@CInifile@@0AEA_J@Z ; std::_Distance<CInifile::Sect * __ptr64 * __ptr64,__int64>
PUBLIC	??$advance@PEAUItem@CInifile@@_J@std@@YAXAEAPEAUItem@CInifile@@_J@Z ; std::advance<CInifile::Item * __ptr64,__int64>
PUBLIC	??$_Distance@PEAUItem@CInifile@@_J@std@@YAXPEAUItem@CInifile@@0AEA_J@Z ; std::_Distance<CInifile::Item * __ptr64,__int64>
PUBLIC	?_Unchecked@?$_Vector_iterator@V?$_Vector_val@U?$_Simple_types@PEAUSect@CInifile@@@std@@@std@@@std@@QEBAPEAPEAUSect@CInifile@@XZ ; std::_Vector_iterator<std::_Vector_val<std::_Simple_types<CInifile::Sect * __ptr64> > >::_Unchecked
PUBLIC	?_Rechecked@?$_Vector_iterator@V?$_Vector_val@U?$_Simple_types@PEAUSect@CInifile@@@std@@@std@@@std@@QEAAAEAV12@PEAPEAUSect@CInifile@@@Z ; std::_Vector_iterator<std::_Vector_val<std::_Simple_types<CInifile::Sect * __ptr64> > >::_Rechecked
PUBLIC	?_Unchecked@?$_Vector_iterator@V?$_Vector_val@U?$_Simple_types@UItem@CInifile@@@std@@@std@@@std@@QEBAPEAUItem@CInifile@@XZ ; std::_Vector_iterator<std::_Vector_val<std::_Simple_types<CInifile::Item> > >::_Unchecked
PUBLIC	?_Rechecked@?$_Vector_iterator@V?$_Vector_val@U?$_Simple_types@UItem@CInifile@@@std@@@std@@@std@@QEAAAEAV12@PEAUItem@CInifile@@@Z ; std::_Vector_iterator<std::_Vector_val<std::_Simple_types<CInifile::Item> > >::_Rechecked
PUBLIC	??$_Uninit_fill_n@PEAPEAUSect@CInifile@@_KPEAU12@V?$xalloc@PEAUSect@CInifile@@@@PEAU12@@std@@YAXPEAPEAUSect@CInifile@@_KPEBQEAU12@AEAU?$_Wrap_alloc@V?$xalloc@PEAUSect@CInifile@@@@@0@0U_Scalar_ptr_iterator_tag@0@@Z ; std::_Uninit_fill_n<CInifile::Sect * __ptr64 * __ptr64,unsigned __int64,CInifile::Sect * __ptr64,xalloc<CInifile::Sect * __ptr64>,CInifile::Sect * __ptr64>
PUBLIC	??$_Val_type@PEAPEAUSect@CInifile@@@std@@YAPEAPEAUSect@CInifile@@PEAPEAU12@@Z ; std::_Val_type<CInifile::Sect * __ptr64 * __ptr64>
PUBLIC	??$_Uninit_fill_n@PEAUItem@CInifile@@_KU12@V?$xalloc@UItem@CInifile@@@@U12@@std@@YAXPEAUItem@CInifile@@_KPEBU12@AEAU?$_Wrap_alloc@V?$xalloc@UItem@CInifile@@@@@0@0U_Nonscalar_ptr_iterator_tag@0@@Z ; std::_Uninit_fill_n<CInifile::Item * __ptr64,unsigned __int64,CInifile::Item,xalloc<CInifile::Item>,CInifile::Item>
PUBLIC	??$_Val_type@PEAUItem@CInifile@@@std@@YAPEAUItem@CInifile@@PEAU12@@Z ; std::_Val_type<CInifile::Item * __ptr64>
PUBLIC	??$_Copy_backward@PEAPEAUSect@CInifile@@PEAPEAU12@@std@@YAPEAPEAUSect@CInifile@@PEAPEAU12@00U_Scalar_ptr_iterator_tag@0@@Z ; std::_Copy_backward<CInifile::Sect * __ptr64 * __ptr64,CInifile::Sect * __ptr64 * __ptr64>
PUBLIC	??$_Fill@PEAPEAUSect@CInifile@@PEAU12@@std@@YAXPEAPEAUSect@CInifile@@0AEBQEAU12@@Z ; std::_Fill<CInifile::Sect * __ptr64 * __ptr64,CInifile::Sect * __ptr64>
PUBLIC	??$_Uninitialized_move@PEAPEAUSect@CInifile@@PEAPEAU12@U?$_Wrap_alloc@V?$xalloc@PEAUSect@CInifile@@@@@std@@@std@@YAPEAPEAUSect@CInifile@@PEAPEAU12@00AEAU?$_Wrap_alloc@V?$xalloc@PEAUSect@CInifile@@@@@0@@Z ; std::_Uninitialized_move<CInifile::Sect * __ptr64 * __ptr64,CInifile::Sect * __ptr64 * __ptr64,std::_Wrap_alloc<xalloc<CInifile::Sect * __ptr64> > >
PUBLIC	??$_Copy_backward@PEAUItem@CInifile@@PEAU12@@std@@YAPEAUItem@CInifile@@PEAU12@00U_Nonscalar_ptr_iterator_tag@0@@Z ; std::_Copy_backward<CInifile::Item * __ptr64,CInifile::Item * __ptr64>
PUBLIC	??$_Fill@PEAUItem@CInifile@@U12@@std@@YAXPEAUItem@CInifile@@0AEBU12@@Z ; std::_Fill<CInifile::Item * __ptr64,CInifile::Item>
PUBLIC	??$_Uninitialized_move@PEAUItem@CInifile@@PEAU12@U?$_Wrap_alloc@V?$xalloc@UItem@CInifile@@@@@std@@@std@@YAPEAUItem@CInifile@@PEAU12@00AEAU?$_Wrap_alloc@V?$xalloc@UItem@CInifile@@@@@0@@Z ; std::_Uninitialized_move<CInifile::Item * __ptr64,CInifile::Item * __ptr64,std::_Wrap_alloc<xalloc<CInifile::Item> > >
PUBLIC	??$_Move@PEAUItem@CInifile@@PEAU12@@std@@YAPEAUItem@CInifile@@PEAU12@00U_Nonscalar_ptr_iterator_tag@0@@Z ; std::_Move<CInifile::Item * __ptr64,CInifile::Item * __ptr64>
PUBLIC	??$_Lower_bound@PEAPEAUSect@CInifile@@$$BY0BAA@$$CBD_JP6A_NPEBU12@PEBD@Z@std@@YAPEAPEAUSect@CInifile@@PEAPEAU12@0AEAY0BAA@$$CBDP6A_NPEBU12@PEBD@ZPEA_J@Z ; std::_Lower_bound<CInifile::Sect * __ptr64 * __ptr64,char const [256],__int64,bool (__cdecl*)(CInifile::Sect const * __ptr64,char const * __ptr64)>
PUBLIC	??$_Rechecked@V?$_Vector_val@U?$_Simple_types@PEAUSect@CInifile@@@std@@@std@@@std@@YAAEAV?$_Vector_iterator@V?$_Vector_val@U?$_Simple_types@PEAUSect@CInifile@@@std@@@std@@@0@AEAV10@PEAPEAUSect@CInifile@@@Z ; std::_Rechecked<std::_Vector_val<std::_Simple_types<CInifile::Sect * __ptr64> > >
PUBLIC	??$_Lower_bound@PEAPEAUSect@CInifile@@PEBD_JP6A_NPEBU12@PEBD@Z@std@@YAPEAPEAUSect@CInifile@@PEAPEAU12@0AEBQEBDP6A_NPEBU12@PEBD@ZPEA_J@Z ; std::_Lower_bound<CInifile::Sect * __ptr64 * __ptr64,char const * __ptr64,__int64,bool (__cdecl*)(CInifile::Sect const * __ptr64,char const * __ptr64)>
PUBLIC	??$_Dist_type@V?$_Vector_iterator@V?$_Vector_val@U?$_Simple_types@PEAUSect@CInifile@@@std@@@std@@@std@@@std@@YAPEA_JV?$_Vector_iterator@V?$_Vector_val@U?$_Simple_types@PEAUSect@CInifile@@@std@@@std@@@0@@Z ; std::_Dist_type<std::_Vector_iterator<std::_Vector_val<std::_Simple_types<CInifile::Sect * __ptr64> > > >
PUBLIC	??$_Unchecked@V?$_Vector_val@U?$_Simple_types@PEAUSect@CInifile@@@std@@@std@@@std@@YAPEAPEAUSect@CInifile@@V?$_Vector_iterator@V?$_Vector_val@U?$_Simple_types@PEAUSect@CInifile@@@std@@@std@@@0@@Z ; std::_Unchecked<std::_Vector_val<std::_Simple_types<CInifile::Sect * __ptr64> > >
PUBLIC	??$_Rechecked@V?$_Vector_val@U?$_Simple_types@UItem@CInifile@@@std@@@std@@@std@@YAAEAV?$_Vector_iterator@V?$_Vector_val@U?$_Simple_types@UItem@CInifile@@@std@@@std@@@0@AEAV10@PEAUItem@CInifile@@@Z ; std::_Rechecked<std::_Vector_val<std::_Simple_types<CInifile::Item> > >
PUBLIC	??$_Lower_bound@PEAUItem@CInifile@@PEBD_JP6A_NAEBU12@PEBD@Z@std@@YAPEAUItem@CInifile@@PEAU12@0AEBQEBDP6A_NAEBU12@PEBD@ZPEA_J@Z ; std::_Lower_bound<CInifile::Item * __ptr64,char const * __ptr64,__int64,bool (__cdecl*)(CInifile::Item const & __ptr64,char const * __ptr64)>
PUBLIC	??$_Dist_type@V?$_Vector_iterator@V?$_Vector_val@U?$_Simple_types@UItem@CInifile@@@std@@@std@@@std@@@std@@YAPEA_JV?$_Vector_iterator@V?$_Vector_val@U?$_Simple_types@UItem@CInifile@@@std@@@std@@@0@@Z ; std::_Dist_type<std::_Vector_iterator<std::_Vector_val<std::_Simple_types<CInifile::Item> > > >
PUBLIC	??$_Unchecked@V?$_Vector_val@U?$_Simple_types@UItem@CInifile@@@std@@@std@@@std@@YAPEAUItem@CInifile@@V?$_Vector_iterator@V?$_Vector_val@U?$_Simple_types@UItem@CInifile@@@std@@@std@@@0@@Z ; std::_Unchecked<std::_Vector_val<std::_Simple_types<CInifile::Item> > >
PUBLIC	??_GSect@CInifile@@QEAAPEAXI@Z			; CInifile::Sect::`scalar deleting destructor'
PUBLIC	??R?$xr_special_free@$0A@USect@CInifile@@@@QEAAXAEAPEAUSect@CInifile@@@Z ; xr_special_free<0,CInifile::Sect>::operator()
PUBLIC	??R?$xr_special_free@$00VCInifile@@@@QEAAXAEAPEAVCInifile@@@Z ; xr_special_free<1,CInifile>::operator()
PUBLIC	??$_Uninitialized_fill_n@PEAPEAUSect@CInifile@@_KPEAU12@U?$_Wrap_alloc@V?$xalloc@PEAUSect@CInifile@@@@@std@@@std@@YAXPEAPEAUSect@CInifile@@_KPEBQEAU12@AEAU?$_Wrap_alloc@V?$xalloc@PEAUSect@CInifile@@@@@0@@Z ; std::_Uninitialized_fill_n<CInifile::Sect * __ptr64 * __ptr64,unsigned __int64,CInifile::Sect * __ptr64,std::_Wrap_alloc<xalloc<CInifile::Sect * __ptr64> > >
PUBLIC	??$_Uninitialized_fill_n@PEAUItem@CInifile@@_KU12@U?$_Wrap_alloc@V?$xalloc@UItem@CInifile@@@@@std@@@std@@YAXPEAUItem@CInifile@@_KPEBU12@AEAU?$_Wrap_alloc@V?$xalloc@UItem@CInifile@@@@@0@@Z ; std::_Uninitialized_fill_n<CInifile::Item * __ptr64,unsigned __int64,CInifile::Item,std::_Wrap_alloc<xalloc<CInifile::Item> > >
PUBLIC	??$_Copy_backward@PEAPEAUSect@CInifile@@PEAPEAU12@@std@@YAPEAPEAUSect@CInifile@@PEAPEAU12@00@Z ; std::_Copy_backward<CInifile::Sect * __ptr64 * __ptr64,CInifile::Sect * __ptr64 * __ptr64>
PUBLIC	??$fill@PEAPEAUSect@CInifile@@PEAU12@@std@@YAXPEAPEAUSect@CInifile@@0AEBQEAU12@@Z ; std::fill<CInifile::Sect * __ptr64 * __ptr64,CInifile::Sect * __ptr64>
PUBLIC	??$addressof@PEAUSect@CInifile@@@std@@YAPEAPEAUSect@CInifile@@AEAPEAU12@@Z ; std::addressof<CInifile::Sect * __ptr64>
PUBLIC	??$_Umove@PEAPEAUSect@CInifile@@@?$vector@PEAUSect@CInifile@@V?$xalloc@PEAUSect@CInifile@@@@@std@@IEAAPEAPEAUSect@CInifile@@PEAPEAU23@00@Z ; std::vector<CInifile::Sect * __ptr64,xalloc<CInifile::Sect * __ptr64> >::_Umove<CInifile::Sect * __ptr64 * __ptr64>
PUBLIC	??$addressof@QEAUSect@CInifile@@@std@@YAPEBQEAUSect@CInifile@@AEBQEAU12@@Z ; std::addressof<CInifile::Sect * __ptr64 const>
PUBLIC	??$_Copy_backward@PEAUItem@CInifile@@PEAU12@@std@@YAPEAUItem@CInifile@@PEAU12@00@Z ; std::_Copy_backward<CInifile::Item * __ptr64,CInifile::Item * __ptr64>
PUBLIC	??$fill@PEAUItem@CInifile@@U12@@std@@YAXPEAUItem@CInifile@@0AEBU12@@Z ; std::fill<CInifile::Item * __ptr64,CInifile::Item>
PUBLIC	??$addressof@UItem@CInifile@@@std@@YAPEAUItem@CInifile@@AEAU12@@Z ; std::addressof<CInifile::Item>
PUBLIC	??$_Umove@PEAUItem@CInifile@@@?$vector@UItem@CInifile@@V?$xalloc@UItem@CInifile@@@@@std@@IEAAPEAUItem@CInifile@@PEAU23@00@Z ; std::vector<CInifile::Item,xalloc<CInifile::Item> >::_Umove<CInifile::Item * __ptr64>
PUBLIC	??$addressof@$$CBUItem@CInifile@@@std@@YAPEBUItem@CInifile@@AEBU12@@Z ; std::addressof<CInifile::Item const >
PUBLIC	??$_Move@PEAUItem@CInifile@@PEAU12@@std@@YAPEAUItem@CInifile@@PEAU12@00@Z ; std::_Move<CInifile::Item * __ptr64,CInifile::Item * __ptr64>
PUBLIC	??$strcpy_s@$0CAA@@@YAHAEAY0CAA@DPEBD@Z		; strcpy_s<512>
PUBLIC	??$lower_bound@V?$_Vector_iterator@V?$_Vector_val@U?$_Simple_types@PEAUSect@CInifile@@@std@@@std@@@std@@$$BY0BAA@DP6A_NPEBUSect@CInifile@@PEBD@Z@std@@YA?AV?$_Vector_iterator@V?$_Vector_val@U?$_Simple_types@PEAUSect@CInifile@@@std@@@std@@@0@V10@0AEAY0BAA@$$CBDP6A_NPEBUSect@CInifile@@PEBD@Z@Z ; std::lower_bound<std::_Vector_iterator<std::_Vector_val<std::_Simple_types<CInifile::Sect * __ptr64> > >,char [256],bool (__cdecl*)(CInifile::Sect const * __ptr64,char const * __ptr64)>
PUBLIC	??$xr_new@USect@CInifile@@@@YAPEAUSect@CInifile@@XZ ; xr_new<CInifile::Sect>
PUBLIC	??$lower_bound@V?$_Vector_iterator@V?$_Vector_val@U?$_Simple_types@PEAUSect@CInifile@@@std@@@std@@@std@@PEBDP6A_NPEBUSect@CInifile@@PEBD@Z@std@@YA?AV?$_Vector_iterator@V?$_Vector_val@U?$_Simple_types@PEAUSect@CInifile@@@std@@@std@@@0@V10@0AEBQEBDP6A_NPEBUSect@CInifile@@PEBD@Z@Z ; std::lower_bound<std::_Vector_iterator<std::_Vector_val<std::_Simple_types<CInifile::Sect * __ptr64> > >,char const * __ptr64,bool (__cdecl*)(CInifile::Sect const * __ptr64,char const * __ptr64)>
PUBLIC	??$xr_delete@USect@CInifile@@@@YAXAEAPEAUSect@CInifile@@@Z ; xr_delete<CInifile::Sect>
PUBLIC	??$lower_bound@V?$_Vector_iterator@V?$_Vector_val@U?$_Simple_types@UItem@CInifile@@@std@@@std@@@std@@PEBDP6A_NAEBUItem@CInifile@@PEBD@Z@std@@YA?AV?$_Vector_iterator@V?$_Vector_val@U?$_Simple_types@UItem@CInifile@@@std@@@std@@@0@V10@0AEBQEBDP6A_NAEBUItem@CInifile@@PEBD@Z@Z ; std::lower_bound<std::_Vector_iterator<std::_Vector_val<std::_Simple_types<CInifile::Item> > >,char const * __ptr64,bool (__cdecl*)(CInifile::Item const & __ptr64,char const * __ptr64)>
PUBLIC	??$xr_delete@VCInifile@@@@YAXAEAPEAVCInifile@@@Z ; xr_delete<CInifile>
PUBLIC	??$xr_new@VCInifile@@PEBDH@@YAPEAVCInifile@@AEBQEBDAEBH@Z ; xr_new<CInifile,char const * __ptr64,int>
PUBLIC	??Y?$_Vector_const_iterator@V?$_Vector_val@U?$_Simple_types@PEAUSect@CInifile@@@std@@@std@@@std@@QEAAAEAV01@_J@Z ; std::_Vector_const_iterator<std::_Vector_val<std::_Simple_types<CInifile::Sect * __ptr64> > >::operator+=
PUBLIC	??Y?$_Vector_const_iterator@V?$_Vector_val@U?$_Simple_types@UItem@CInifile@@@std@@@std@@@std@@QEAAAEAV01@_J@Z ; std::_Vector_const_iterator<std::_Vector_val<std::_Simple_types<CInifile::Item> > >::operator+=
PUBLIC	??Y?$_Vector_iterator@V?$_Vector_val@U?$_Simple_types@PEAUSect@CInifile@@@std@@@std@@@std@@QEAAAEAV01@_J@Z ; std::_Vector_iterator<std::_Vector_val<std::_Simple_types<CInifile::Sect * __ptr64> > >::operator+=
PUBLIC	??Y?$_Vector_iterator@V?$_Vector_val@U?$_Simple_types@UItem@CInifile@@@std@@@std@@@std@@QEAAAEAV01@_J@Z ; std::_Vector_iterator<std::_Vector_val<std::_Simple_types<CInifile::Item> > >::operator+=
PUBLIC	??H?$_Vector_iterator@V?$_Vector_val@U?$_Simple_types@PEAUSect@CInifile@@@std@@@std@@@std@@QEBA?AV01@_J@Z ; std::_Vector_iterator<std::_Vector_val<std::_Simple_types<CInifile::Sect * __ptr64> > >::operator+
PUBLIC	??H?$_Vector_iterator@V?$_Vector_val@U?$_Simple_types@UItem@CInifile@@@std@@@std@@@std@@QEBA?AV01@_J@Z ; std::_Vector_iterator<std::_Vector_val<std::_Simple_types<CInifile::Item> > >::operator+
PUBLIC	?_Compat@?$_Vector_const_iterator@V?$_Vector_val@U?$_Simple_types@PEAUSect@CInifile@@@std@@@std@@@std@@QEBAXAEBV12@@Z ; std::_Vector_const_iterator<std::_Vector_val<std::_Simple_types<CInifile::Sect * __ptr64> > >::_Compat
PUBLIC	?_Compat@?$_Vector_const_iterator@V?$_Vector_val@U?$_Simple_types@UItem@CInifile@@@std@@@std@@@std@@QEBAXAEBV12@@Z ; std::_Vector_const_iterator<std::_Vector_val<std::_Simple_types<CInifile::Item> > >::_Compat
PUBLIC	?_Orphan_range@?$vector@PEAUSect@CInifile@@V?$xalloc@PEAUSect@CInifile@@@@@std@@IEBAXPEAPEAUSect@CInifile@@0@Z ; std::vector<CInifile::Sect * __ptr64,xalloc<CInifile::Sect * __ptr64> >::_Orphan_range
PUBLIC	?_Ufill@?$vector@PEAUSect@CInifile@@V?$xalloc@PEAUSect@CInifile@@@@@std@@IEAAPEAPEAUSect@CInifile@@PEAPEAU34@_KPEBQEAU34@@Z ; std::vector<CInifile::Sect * __ptr64,xalloc<CInifile::Sect * __ptr64> >::_Ufill
PUBLIC	?_Grow_to@?$vector@PEAUSect@CInifile@@V?$xalloc@PEAUSect@CInifile@@@@@std@@IEBA_K_K@Z ; std::vector<CInifile::Sect * __ptr64,xalloc<CInifile::Sect * __ptr64> >::_Grow_to
PUBLIC	?_Unused_capacity@?$vector@PEAUSect@CInifile@@V?$xalloc@PEAUSect@CInifile@@@@@std@@QEBA_KXZ ; std::vector<CInifile::Sect * __ptr64,xalloc<CInifile::Sect * __ptr64> >::_Unused_capacity
PUBLIC	?_Orphan_range@?$vector@UItem@CInifile@@V?$xalloc@UItem@CInifile@@@@@std@@IEBAXPEAUItem@CInifile@@0@Z ; std::vector<CInifile::Item,xalloc<CInifile::Item> >::_Orphan_range
PUBLIC	?_Ufill@?$vector@UItem@CInifile@@V?$xalloc@UItem@CInifile@@@@@std@@IEAAPEAUItem@CInifile@@PEAU34@_KPEBU34@@Z ; std::vector<CInifile::Item,xalloc<CInifile::Item> >::_Ufill
PUBLIC	?_Grow_to@?$vector@UItem@CInifile@@V?$xalloc@UItem@CInifile@@@@@std@@IEBA_K_K@Z ; std::vector<CInifile::Item,xalloc<CInifile::Item> >::_Grow_to
PUBLIC	?_Unused_capacity@?$vector@UItem@CInifile@@V?$xalloc@UItem@CInifile@@@@@std@@QEBA_KXZ ; std::vector<CInifile::Item,xalloc<CInifile::Item> >::_Unused_capacity
PUBLIC	?pointer_to@?$pointer_traits@PEBUItem@CInifile@@@std@@SAPEBUItem@CInifile@@AEBU34@@Z ; std::pointer_traits<CInifile::Item const * __ptr64>::pointer_to
PUBLIC	??0?$_Vector_iterator@V?$_Vector_val@U?$_Simple_types@PEAUSect@CInifile@@@std@@@std@@@std@@QEAA@PEAPEAUSect@CInifile@@PEBU_Container_base0@1@@Z ; std::_Vector_iterator<std::_Vector_val<std::_Simple_types<CInifile::Sect * __ptr64> > >::_Vector_iterator<std::_Vector_val<std::_Simple_types<CInifile::Sect * __ptr64> > >
PUBLIC	??E?$_Vector_iterator@V?$_Vector_val@U?$_Simple_types@UItem@CInifile@@@std@@@std@@@std@@QEAAAEAV01@XZ ; std::_Vector_iterator<std::_Vector_val<std::_Simple_types<CInifile::Item> > >::operator++
PUBLIC	??0?$_Vector_iterator@V?$_Vector_val@U?$_Simple_types@UItem@CInifile@@@std@@@std@@@std@@QEAA@PEAUItem@CInifile@@PEBU_Container_base0@1@@Z ; std::_Vector_iterator<std::_Vector_val<std::_Simple_types<CInifile::Item> > >::_Vector_iterator<std::_Vector_val<std::_Simple_types<CInifile::Item> > >
PUBLIC	??8?$_Vector_const_iterator@V?$_Vector_val@U?$_Simple_types@PEAUSect@CInifile@@@std@@@std@@@std@@QEBA_NAEBV01@@Z ; std::_Vector_const_iterator<std::_Vector_val<std::_Simple_types<CInifile::Sect * __ptr64> > >::operator==
PUBLIC	??E?$_Vector_const_iterator@V?$_Vector_val@U?$_Simple_types@PEAUSect@CInifile@@@std@@@std@@@std@@QEAAAEAV01@XZ ; std::_Vector_const_iterator<std::_Vector_val<std::_Simple_types<CInifile::Sect * __ptr64> > >::operator++
PUBLIC	??D?$_Vector_const_iterator@V?$_Vector_val@U?$_Simple_types@PEAUSect@CInifile@@@std@@@std@@@std@@QEBAAEBQEAUSect@CInifile@@XZ ; std::_Vector_const_iterator<std::_Vector_val<std::_Simple_types<CInifile::Sect * __ptr64> > >::operator*
PUBLIC	??8?$_Vector_const_iterator@V?$_Vector_val@U?$_Simple_types@UItem@CInifile@@@std@@@std@@@std@@QEBA_NAEBV01@@Z ; std::_Vector_const_iterator<std::_Vector_val<std::_Simple_types<CInifile::Item> > >::operator==
PUBLIC	?_Insert_n@?$vector@PEAUSect@CInifile@@V?$xalloc@PEAUSect@CInifile@@@@@std@@IEAA?AV?$_Vector_iterator@V?$_Vector_val@U?$_Simple_types@PEAUSect@CInifile@@@std@@@std@@@2@V?$_Vector_const_iterator@V?$_Vector_val@U?$_Simple_types@PEAUSect@CInifile@@@std@@@std@@@2@_KAEBQEAUSect@CInifile@@@Z ; std::vector<CInifile::Sect * __ptr64,xalloc<CInifile::Sect * __ptr64> >::_Insert_n
PUBLIC	??0?$vector@PEAUSect@CInifile@@V?$xalloc@PEAUSect@CInifile@@@@@std@@QEAA@XZ ; std::vector<CInifile::Sect * __ptr64,xalloc<CInifile::Sect * __ptr64> >::vector<CInifile::Sect * __ptr64,xalloc<CInifile::Sect * __ptr64> >
PUBLIC	?pointer_to@?$pointer_traits@PEAUItem@CInifile@@@std@@SAPEAUItem@CInifile@@AEAU34@@Z ; std::pointer_traits<CInifile::Item * __ptr64>::pointer_to
PUBLIC	?_Insert_n@?$vector@UItem@CInifile@@V?$xalloc@UItem@CInifile@@@@@std@@IEAA?AV?$_Vector_iterator@V?$_Vector_val@U?$_Simple_types@UItem@CInifile@@@std@@@std@@@2@V?$_Vector_const_iterator@V?$_Vector_val@U?$_Simple_types@UItem@CInifile@@@std@@@std@@@2@_KAEBUItem@CInifile@@@Z ; std::vector<CInifile::Item,xalloc<CInifile::Item> >::_Insert_n
PUBLIC	?_Make_iter@?$vector@UItem@CInifile@@V?$xalloc@UItem@CInifile@@@@@std@@QEBA?AV?$_Vector_iterator@V?$_Vector_val@U?$_Simple_types@UItem@CInifile@@@std@@@std@@@2@V?$_Vector_const_iterator@V?$_Vector_val@U?$_Simple_types@UItem@CInifile@@@std@@@std@@@2@@Z ; std::vector<CInifile::Item,xalloc<CInifile::Item> >::_Make_iter
PUBLIC	??E?$_Vector_iterator@V?$_Vector_val@U?$_Simple_types@PEAUSect@CInifile@@@std@@@std@@@std@@QEAAAEAV01@XZ ; std::_Vector_iterator<std::_Vector_val<std::_Simple_types<CInifile::Sect * __ptr64> > >::operator++
PUBLIC	??D?$_Vector_iterator@V?$_Vector_val@U?$_Simple_types@PEAUSect@CInifile@@@std@@@std@@@std@@QEBAAEAPEAUSect@CInifile@@XZ ; std::_Vector_iterator<std::_Vector_val<std::_Simple_types<CInifile::Sect * __ptr64> > >::operator*
PUBLIC	??E?$_Vector_iterator@V?$_Vector_val@U?$_Simple_types@UItem@CInifile@@@std@@@std@@@std@@QEAA?AV01@H@Z ; std::_Vector_iterator<std::_Vector_val<std::_Simple_types<CInifile::Item> > >::operator++
PUBLIC	??C?$_Vector_iterator@V?$_Vector_val@U?$_Simple_types@UItem@CInifile@@@std@@@std@@@std@@QEBAPEAUItem@CInifile@@XZ ; std::_Vector_iterator<std::_Vector_val<std::_Simple_types<CInifile::Item> > >::operator->
PUBLIC	??D?$_Vector_iterator@V?$_Vector_val@U?$_Simple_types@UItem@CInifile@@@std@@@std@@@std@@QEBAAEAUItem@CInifile@@XZ ; std::_Vector_iterator<std::_Vector_val<std::_Simple_types<CInifile::Item> > >::operator*
PUBLIC	??9?$_Vector_const_iterator@V?$_Vector_val@U?$_Simple_types@PEAUSect@CInifile@@@std@@@std@@@std@@QEBA_NAEBV01@@Z ; std::_Vector_const_iterator<std::_Vector_val<std::_Simple_types<CInifile::Sect * __ptr64> > >::operator!=
PUBLIC	??9?$_Vector_const_iterator@V?$_Vector_val@U?$_Simple_types@UItem@CInifile@@@std@@@std@@@std@@QEBA_NAEBV01@@Z ; std::_Vector_const_iterator<std::_Vector_val<std::_Simple_types<CInifile::Item> > >::operator!=
PUBLIC	??E?$_Vector_const_iterator@V?$_Vector_val@U?$_Simple_types@UItem@CInifile@@@std@@@std@@@std@@QEAA?AV01@H@Z ; std::_Vector_const_iterator<std::_Vector_val<std::_Simple_types<CInifile::Item> > >::operator++
PUBLIC	??E?$_Vector_const_iterator@V?$_Vector_val@U?$_Simple_types@UItem@CInifile@@@std@@@std@@@std@@QEAAAEAV01@XZ ; std::_Vector_const_iterator<std::_Vector_val<std::_Simple_types<CInifile::Item> > >::operator++
PUBLIC	??C?$_Vector_const_iterator@V?$_Vector_val@U?$_Simple_types@UItem@CInifile@@@std@@@std@@@std@@QEBAPEBUItem@CInifile@@XZ ; std::_Vector_const_iterator<std::_Vector_val<std::_Simple_types<CInifile::Item> > >::operator->
PUBLIC	??D?$_Vector_const_iterator@V?$_Vector_val@U?$_Simple_types@UItem@CInifile@@@std@@@std@@@std@@QEBAAEBUItem@CInifile@@XZ ; std::_Vector_const_iterator<std::_Vector_val<std::_Simple_types<CInifile::Item> > >::operator*
PUBLIC	?insert@?$vector@PEAUSect@CInifile@@V?$xalloc@PEAUSect@CInifile@@@@@std@@QEAA?AV?$_Vector_iterator@V?$_Vector_val@U?$_Simple_types@PEAUSect@CInifile@@@std@@@std@@@2@V?$_Vector_const_iterator@V?$_Vector_val@U?$_Simple_types@PEAUSect@CInifile@@@std@@@std@@@2@AEBQEAUSect@CInifile@@@Z ; std::vector<CInifile::Sect * __ptr64,xalloc<CInifile::Sect * __ptr64> >::insert
PUBLIC	?end@?$vector@PEAUSect@CInifile@@V?$xalloc@PEAUSect@CInifile@@@@@std@@QEAA?AV?$_Vector_iterator@V?$_Vector_val@U?$_Simple_types@PEAUSect@CInifile@@@std@@@std@@@2@XZ ; std::vector<CInifile::Sect * __ptr64,xalloc<CInifile::Sect * __ptr64> >::end
PUBLIC	?begin@?$vector@PEAUSect@CInifile@@V?$xalloc@PEAUSect@CInifile@@@@@std@@QEAA?AV?$_Vector_iterator@V?$_Vector_val@U?$_Simple_types@PEAUSect@CInifile@@@std@@@std@@@2@XZ ; std::vector<CInifile::Sect * __ptr64,xalloc<CInifile::Sect * __ptr64> >::begin
PUBLIC	??0?$xr_vector@PEAUSect@CInifile@@V?$xalloc@PEAUSect@CInifile@@@@@@QEAA@XZ ; xr_vector<CInifile::Sect * __ptr64,xalloc<CInifile::Sect * __ptr64> >::xr_vector<CInifile::Sect * __ptr64,xalloc<CInifile::Sect * __ptr64> >
PUBLIC	?erase@?$vector@UItem@CInifile@@V?$xalloc@UItem@CInifile@@@@@std@@QEAA?AV?$_Vector_iterator@V?$_Vector_val@U?$_Simple_types@UItem@CInifile@@@std@@@std@@@2@V?$_Vector_const_iterator@V?$_Vector_val@U?$_Simple_types@UItem@CInifile@@@std@@@std@@@2@@Z ; std::vector<CInifile::Item,xalloc<CInifile::Item> >::erase
PUBLIC	?insert@?$vector@UItem@CInifile@@V?$xalloc@UItem@CInifile@@@@@std@@QEAA?AV?$_Vector_iterator@V?$_Vector_val@U?$_Simple_types@UItem@CInifile@@@std@@@std@@@2@V?$_Vector_const_iterator@V?$_Vector_val@U?$_Simple_types@UItem@CInifile@@@std@@@std@@@2@AEBUItem@CInifile@@@Z ; std::vector<CInifile::Item,xalloc<CInifile::Item> >::insert
PUBLIC	?end@?$vector@UItem@CInifile@@V?$xalloc@UItem@CInifile@@@@@std@@QEAA?AV?$_Vector_iterator@V?$_Vector_val@U?$_Simple_types@UItem@CInifile@@@std@@@std@@@2@XZ ; std::vector<CInifile::Item,xalloc<CInifile::Item> >::end
PUBLIC	?begin@?$vector@UItem@CInifile@@V?$xalloc@UItem@CInifile@@@@@std@@QEAA?AV?$_Vector_iterator@V?$_Vector_val@U?$_Simple_types@UItem@CInifile@@@std@@@std@@@2@XZ ; std::vector<CInifile::Item,xalloc<CInifile::Item> >::begin
PUBLIC	?size@?$xr_vector@UItem@CInifile@@V?$xalloc@UItem@CInifile@@@@@@QEBAIXZ ; xr_vector<CInifile::Item,xalloc<CInifile::Item> >::size
PUBLIC	?remove_line@CInifile@@QEAAXPEBD0@Z		; CInifile::remove_line
PUBLIC	?w_bool@CInifile@@QEAAXPEBD0H0@Z		; CInifile::w_bool
PUBLIC	?w_fvector4@CInifile@@QEAAXPEBD0AEBU?$_vector4@M@@0@Z ; CInifile::w_fvector4
PUBLIC	?w_fvector3@CInifile@@QEAAXPEBD0AEBU?$_vector3@M@@0@Z ; CInifile::w_fvector3
PUBLIC	?w_fvector2@CInifile@@QEAAXPEBD0AEBU?$_vector2@M@@0@Z ; CInifile::w_fvector2
PUBLIC	?w_ivector4@CInifile@@QEAAXPEBD0AEBU?$_vector4@H@@0@Z ; CInifile::w_ivector4
PUBLIC	?w_ivector3@CInifile@@QEAAXPEBD0AEBU?$_vector3@H@@0@Z ; CInifile::w_ivector3
PUBLIC	?w_ivector2@CInifile@@QEAAXPEBD0AEBU?$_vector2@H@@0@Z ; CInifile::w_ivector2
PUBLIC	?w_color@CInifile@@QEAAXPEBD0I0@Z		; CInifile::w_color
PUBLIC	?w_fcolor@CInifile@@QEAAXPEBD0AEBU?$_color@M@@0@Z ; CInifile::w_fcolor
PUBLIC	?w_float@CInifile@@QEAAXPEBD0M0@Z		; CInifile::w_float
PUBLIC	?w_s32@CInifile@@QEAAXPEBD0H0@Z			; CInifile::w_s32
PUBLIC	?w_s16@CInifile@@QEAAXPEBD0F0@Z			; CInifile::w_s16
PUBLIC	?w_s8@CInifile@@QEAAXPEBD0C0@Z			; CInifile::w_s8
PUBLIC	?w_u32@CInifile@@QEAAXPEBD0I0@Z			; CInifile::w_u32
PUBLIC	?w_u16@CInifile@@QEAAXPEBD0G0@Z			; CInifile::w_u16
PUBLIC	?w_u8@CInifile@@QEAAXPEBD0E0@Z			; CInifile::w_u8
PUBLIC	?w_string@CInifile@@QEAAXPEBD000@Z		; CInifile::w_string
PUBLIC	?r_line@CInifile@@QEAAHAEBVshared_str@@HPEAPEBD1@Z ; CInifile::r_line
PUBLIC	?r_line@CInifile@@QEAAHPEBDHPEAPEBD1@Z		; CInifile::r_line
PUBLIC	?r_token@CInifile@@QEAAHPEBD0PEBUxr_token@@@Z	; CInifile::r_token
PUBLIC	?r_section@CInifile@@QEAAAEAUSect@1@PEBD@Z	; CInifile::r_section
PUBLIC	?section_exist@CInifile@@QEAAHAEBVshared_str@@@Z ; CInifile::section_exist
PUBLIC	?line_count@CInifile@@QEAAIAEBVshared_str@@@Z	; CInifile::line_count
PUBLIC	?line_exist@CInifile@@QEAAHAEBVshared_str@@0@Z	; CInifile::line_exist
PUBLIC	?r_section@CInifile@@QEAAAEAUSect@1@AEBVshared_str@@@Z ; CInifile::r_section
PUBLIC	?line_count@CInifile@@QEAAIPEBD@Z		; CInifile::line_count
PUBLIC	?line_exist@CInifile@@QEAAHPEBD0@Z		; CInifile::line_exist
PUBLIC	?section_exist@CInifile@@QEAAHPEBD@Z		; CInifile::section_exist
PUBLIC	?save_as@CInifile@@QEAA_NPEBD@Z			; CInifile::save_as
PUBLIC	?Load@CInifile@@AEAAXPEAVIReader@@PEBD@Z	; CInifile::Load
PUBLIC	??0CInifile@@QEAA@PEBDHHH@Z			; CInifile::CInifile
PUBLIC	??0CInifile@@QEAA@PEAVIReader@@PEBD@Z		; CInifile::CInifile
PUBLIC	?line_exist@Sect@CInifile@@QEAAHPEBDPEAPEBD@Z	; CInifile::Sect::line_exist
PUBLIC	?_decorate@@YAXPEADPEBD@Z			; _decorate
PUBLIC	?_parse@@YAXPEADPEBD@Z				; _parse
PUBLIC	?item_pred@@YA_NAEBUItem@CInifile@@PEBD@Z	; item_pred
PUBLIC	?sect_pred@@YA_NPEBUSect@CInifile@@PEBD@Z	; sect_pred
PUBLIC	?Destroy@CInifile@@SAXPEAV1@@Z			; CInifile::Destroy
PUBLIC	?Create@CInifile@@SAPEAV1@PEBDH@Z		; CInifile::Create
PUBLIC	?r_bool@CInifile@@QEAAHPEBD0@Z			; CInifile::r_bool
PUBLIC	?r_fvector4@CInifile@@QEAA?AU?$_vector4@M@@PEBD0@Z ; CInifile::r_fvector4
PUBLIC	?r_fvector3@CInifile@@QEAA?AU?$_vector3@M@@PEBD0@Z ; CInifile::r_fvector3
PUBLIC	?r_fvector2@CInifile@@QEAA?AU?$_vector2@M@@PEBD0@Z ; CInifile::r_fvector2
PUBLIC	?r_ivector4@CInifile@@QEAA?AU?$_vector4@H@@PEBD0@Z ; CInifile::r_ivector4
PUBLIC	?r_ivector3@CInifile@@QEAA?AU?$_vector3@H@@PEBD0@Z ; CInifile::r_ivector3
PUBLIC	?r_ivector2@CInifile@@QEAA?AU?$_vector2@H@@PEBD0@Z ; CInifile::r_ivector2
PUBLIC	?r_color@CInifile@@QEAAIPEBD0@Z			; CInifile::r_color
PUBLIC	?r_fcolor@CInifile@@QEAA?AU?$_color@M@@PEBD0@Z	; CInifile::r_fcolor
PUBLIC	?r_float@CInifile@@QEAAMPEBD0@Z			; CInifile::r_float
PUBLIC	?r_s32@CInifile@@QEAAHPEBD0@Z			; CInifile::r_s32
PUBLIC	?r_s16@CInifile@@QEAAFPEBD0@Z			; CInifile::r_s16
PUBLIC	?r_s8@CInifile@@QEAACPEBD0@Z			; CInifile::r_s8
PUBLIC	?r_u32@CInifile@@QEAAIPEBD0@Z			; CInifile::r_u32
PUBLIC	?r_u16@CInifile@@QEAAGPEBD0@Z			; CInifile::r_u16
PUBLIC	?r_u8@CInifile@@QEAAEPEBD0@Z			; CInifile::r_u8
PUBLIC	?r_string_wb@CInifile@@QEAA?AVshared_str@@PEBD0@Z ; CInifile::r_string_wb
PUBLIC	?r_string@CInifile@@QEAAPEBDPEBD0@Z		; CInifile::r_string
PUBLIC	?r_clsid@CInifile@@QEAA_KPEBD0@Z		; CInifile::r_clsid
PUBLIC	??1CInifile@@UEAA@XZ				; CInifile::~CInifile
;	COMDAT pdata
pdata	SEGMENT
$pdata$??$_Uninit_move@PEAPEAUSect@CInifile@@PEAPEAU12@V?$xalloc@PEAUSect@CInifile@@@@PEAU12@@std@@YAPEAPEAUSect@CInifile@@PEAPEAU12@00AEAU?$_Wrap_alloc@V?$xalloc@PEAUSect@CInifile@@@@@0@0U_Nonscalar_ptr_iterator_tag@0@@Z DD imagerel $LN44
	DD	imagerel $LN44+60
	DD	imagerel $unwind$??$_Uninit_move@PEAPEAUSect@CInifile@@PEAPEAU12@V?$xalloc@PEAUSect@CInifile@@@@PEAU12@@std@@YAPEAPEAUSect@CInifile@@PEAPEAU12@00AEAU?$_Wrap_alloc@V?$xalloc@PEAUSect@CInifile@@@@@0@0U_Nonscalar_ptr_iterator_tag@0@@Z
pdata	ENDS
;	COMDAT pdata
pdata	SEGMENT
$pdata$?catch$0@?0???$_Uninit_move@PEAPEAUSect@CInifile@@PEAPEAU12@V?$xalloc@PEAUSect@CInifile@@@@PEAU12@@std@@YAPEAPEAUSect@CInifile@@PEAPEAU12@00AEAU?$_Wrap_alloc@V?$xalloc@PEAUSect@CInifile@@@@@0@0U_Nonscalar_ptr_iterator_tag@0@@Z@4HA DD imagerel ?catch$0@?0???$_Uninit_move@PEAPEAUSect@CInifile@@PEAPEAU12@V?$xalloc@PEAUSect@CInifile@@@@PEAU12@@std@@YAPEAPEAUSect@CInifile@@PEAPEAU12@00AEAU?$_Wrap_alloc@V?$xalloc@PEAUSect@CInifile@@@@@0@0U_Nonscalar_ptr_iterator_tag@0@@Z@4HA
	DD	imagerel ?catch$0@?0???$_Uninit_move@PEAPEAUSect@CInifile@@PEAPEAU12@V?$xalloc@PEAUSect@CInifile@@@@PEAU12@@std@@YAPEAPEAUSect@CInifile@@PEAPEAU12@00AEAU?$_Wrap_alloc@V?$xalloc@PEAUSect@CInifile@@@@@0@0U_Nonscalar_ptr_iterator_tag@0@@Z@4HA+23
	DD	imagerel $unwind$?catch$0@?0???$_Uninit_move@PEAPEAUSect@CInifile@@PEAPEAU12@V?$xalloc@PEAUSect@CInifile@@@@PEAU12@@std@@YAPEAPEAUSect@CInifile@@PEAPEAU12@00AEAU?$_Wrap_alloc@V?$xalloc@PEAUSect@CInifile@@@@@0@0U_Nonscalar_ptr_iterator_tag@0@@Z@4HA
pdata	ENDS
;	COMDAT pdata
pdata	SEGMENT
$pdata$??$_Uninit_move@PEAPEAUSect@CInifile@@PEAPEAU12@V?$xalloc@PEAUSect@CInifile@@@@PEAU12@@std@@YAPEAPEAUSect@CInifile@@PEAPEAU12@00AEAU?$_Wrap_alloc@V?$xalloc@PEAUSect@CInifile@@@@@0@0U_Scalar_ptr_iterator_tag@0@@Z DD imagerel $LN4
	DD	imagerel $LN4+14
	DD	imagerel $unwind$??$_Uninit_move@PEAPEAUSect@CInifile@@PEAPEAU12@V?$xalloc@PEAUSect@CInifile@@@@PEAU12@@std@@YAPEAPEAUSect@CInifile@@PEAPEAU12@00AEAU?$_Wrap_alloc@V?$xalloc@PEAUSect@CInifile@@@@@0@0U_Scalar_ptr_iterator_tag@0@@Z
pdata	ENDS
;	COMDAT pdata
pdata	SEGMENT
$pdata$??$_Uninit_move@PEAUItem@CInifile@@PEAU12@V?$xalloc@UItem@CInifile@@@@U12@@std@@YAPEAUItem@CInifile@@PEAU12@00AEAU?$_Wrap_alloc@V?$xalloc@UItem@CInifile@@@@@0@0U_Nonscalar_ptr_iterator_tag@0@@Z DD imagerel $LN93
	DD	imagerel $LN93+152
	DD	imagerel $unwind$??$_Uninit_move@PEAUItem@CInifile@@PEAU12@V?$xalloc@UItem@CInifile@@@@U12@@std@@YAPEAUItem@CInifile@@PEAU12@00AEAU?$_Wrap_alloc@V?$xalloc@UItem@CInifile@@@@@0@0U_Nonscalar_ptr_iterator_tag@0@@Z
pdata	ENDS
;	COMDAT pdata
pdata	SEGMENT
$pdata$?catch$0@?0???$_Uninit_move@PEAUItem@CInifile@@PEAU12@V?$xalloc@UItem@CInifile@@@@U12@@std@@YAPEAUItem@CInifile@@PEAU12@00AEAU?$_Wrap_alloc@V?$xalloc@UItem@CInifile@@@@@0@0U_Nonscalar_ptr_iterator_tag@0@@Z@4HA DD imagerel ?catch$0@?0???$_Uninit_move@PEAUItem@CInifile@@PEAU12@V?$xalloc@UItem@CInifile@@@@U12@@std@@YAPEAUItem@CInifile@@PEAU12@00AEAU?$_Wrap_alloc@V?$xalloc@UItem@CInifile@@@@@0@0U_Nonscalar_ptr_iterator_tag@0@@Z@4HA
	DD	imagerel ?catch$0@?0???$_Uninit_move@PEAUItem@CInifile@@PEAU12@V?$xalloc@UItem@CInifile@@@@U12@@std@@YAPEAUItem@CInifile@@PEAU12@00AEAU?$_Wrap_alloc@V?$xalloc@UItem@CInifile@@@@@0@0U_Nonscalar_ptr_iterator_tag@0@@Z@4HA+104
	DD	imagerel $unwind$?catch$0@?0???$_Uninit_move@PEAUItem@CInifile@@PEAU12@V?$xalloc@UItem@CInifile@@@@U12@@std@@YAPEAUItem@CInifile@@PEAU12@00AEAU?$_Wrap_alloc@V?$xalloc@UItem@CInifile@@@@@0@0U_Nonscalar_ptr_iterator_tag@0@@Z@4HA
pdata	ENDS
;	COMDAT pdata
pdata	SEGMENT
$pdata$??$_Uninit_fill_n@PEAPEAUSect@CInifile@@_KPEAU12@V?$xalloc@PEAUSect@CInifile@@@@PEAU12@@std@@YAXPEAPEAUSect@CInifile@@_KPEBQEAU12@AEAU?$_Wrap_alloc@V?$xalloc@PEAUSect@CInifile@@@@@0@0U_Nonscalar_ptr_iterator_tag@0@@Z DD imagerel $LN44
	DD	imagerel $LN44+56
	DD	imagerel $unwind$??$_Uninit_fill_n@PEAPEAUSect@CInifile@@_KPEAU12@V?$xalloc@PEAUSect@CInifile@@@@PEAU12@@std@@YAXPEAPEAUSect@CInifile@@_KPEBQEAU12@AEAU?$_Wrap_alloc@V?$xalloc@PEAUSect@CInifile@@@@@0@0U_Nonscalar_ptr_iterator_tag@0@@Z
pdata	ENDS
;	COMDAT pdata
pdata	SEGMENT
$pdata$?catch$0@?0???$_Uninit_fill_n@PEAPEAUSect@CInifile@@_KPEAU12@V?$xalloc@PEAUSect@CInifile@@@@PEAU12@@std@@YAXPEAPEAUSect@CInifile@@_KPEBQEAU12@AEAU?$_Wrap_alloc@V?$xalloc@PEAUSect@CInifile@@@@@0@0U_Nonscalar_ptr_iterator_tag@0@@Z@4HA DD imagerel ?catch$0@?0???$_Uninit_fill_n@PEAPEAUSect@CInifile@@_KPEAU12@V?$xalloc@PEAUSect@CInifile@@@@PEAU12@@std@@YAXPEAPEAUSect@CInifile@@_KPEBQEAU12@AEAU?$_Wrap_alloc@V?$xalloc@PEAUSect@CInifile@@@@@0@0U_Nonscalar_ptr_iterator_tag@0@@Z@4HA
	DD	imagerel ?catch$0@?0???$_Uninit_fill_n@PEAPEAUSect@CInifile@@_KPEAU12@V?$xalloc@PEAUSect@CInifile@@@@PEAU12@@std@@YAXPEAPEAUSect@CInifile@@_KPEBQEAU12@AEAU?$_Wrap_alloc@V?$xalloc@PEAUSect@CInifile@@@@@0@0U_Nonscalar_ptr_iterator_tag@0@@Z@4HA+23
	DD	imagerel $unwind$?catch$0@?0???$_Uninit_fill_n@PEAPEAUSect@CInifile@@_KPEAU12@V?$xalloc@PEAUSect@CInifile@@@@PEAU12@@std@@YAXPEAPEAUSect@CInifile@@_KPEBQEAU12@AEAU?$_Wrap_alloc@V?$xalloc@PEAUSect@CInifile@@@@@0@0U_Nonscalar_ptr_iterator_tag@0@@Z@4HA
pdata	ENDS
;	COMDAT pdata
pdata	SEGMENT
$pdata$??$_Uninit_move@PEAPEAUSect@CInifile@@PEAPEAU12@U?$_Wrap_alloc@V?$xalloc@PEAUSect@CInifile@@@@@std@@@std@@YAPEAPEAUSect@CInifile@@PEAPEAU12@00AEAU?$_Wrap_alloc@V?$xalloc@PEAUSect@CInifile@@@@@0@@Z DD imagerel $LN10
	DD	imagerel $LN10+14
	DD	imagerel $unwind$??$_Uninit_move@PEAPEAUSect@CInifile@@PEAPEAU12@U?$_Wrap_alloc@V?$xalloc@PEAUSect@CInifile@@@@@std@@@std@@YAPEAPEAUSect@CInifile@@PEAPEAU12@00AEAU?$_Wrap_alloc@V?$xalloc@PEAUSect@CInifile@@@@@0@@Z
pdata	ENDS
;	COMDAT pdata
pdata	SEGMENT
$pdata$??$_Uninit_move@PEAUItem@CInifile@@PEAU12@U?$_Wrap_alloc@V?$xalloc@UItem@CInifile@@@@@std@@@std@@YAPEAUItem@CInifile@@PEAU12@00AEAU?$_Wrap_alloc@V?$xalloc@UItem@CInifile@@@@@0@@Z DD imagerel $LN8
	DD	imagerel $LN8+14
	DD	imagerel $unwind$??$_Uninit_move@PEAUItem@CInifile@@PEAU12@U?$_Wrap_alloc@V?$xalloc@UItem@CInifile@@@@@std@@@std@@YAPEAUItem@CInifile@@PEAU12@00AEAU?$_Wrap_alloc@V?$xalloc@UItem@CInifile@@@@@0@@Z
pdata	ENDS
;	COMDAT pdata
pdata	SEGMENT
$pdata$??$_Uninit_fill_n@PEAPEAUSect@CInifile@@_KPEAU12@V?$xalloc@PEAUSect@CInifile@@@@PEAU12@@std@@YAXPEAPEAUSect@CInifile@@_KPEBQEAU12@AEAU?$_Wrap_alloc@V?$xalloc@PEAUSect@CInifile@@@@@0@0U_Scalar_ptr_iterator_tag@0@@Z DD imagerel $LN4
	DD	imagerel $LN4+14
	DD	imagerel $unwind$??$_Uninit_fill_n@PEAPEAUSect@CInifile@@_KPEAU12@V?$xalloc@PEAUSect@CInifile@@@@PEAU12@@std@@YAXPEAPEAUSect@CInifile@@_KPEBQEAU12@AEAU?$_Wrap_alloc@V?$xalloc@PEAUSect@CInifile@@@@@0@0U_Scalar_ptr_iterator_tag@0@@Z
pdata	ENDS
;	COMDAT pdata
pdata	SEGMENT
$pdata$??$_Uninit_fill_n@PEAUItem@CInifile@@_KU12@V?$xalloc@UItem@CInifile@@@@U12@@std@@YAXPEAUItem@CInifile@@_KPEBU12@AEAU?$_Wrap_alloc@V?$xalloc@UItem@CInifile@@@@@0@0U_Nonscalar_ptr_iterator_tag@0@@Z DD imagerel $LN93
	DD	imagerel $LN93+148
	DD	imagerel $unwind$??$_Uninit_fill_n@PEAUItem@CInifile@@_KU12@V?$xalloc@UItem@CInifile@@@@U12@@std@@YAXPEAUItem@CInifile@@_KPEBU12@AEAU?$_Wrap_alloc@V?$xalloc@UItem@CInifile@@@@@0@0U_Nonscalar_ptr_iterator_tag@0@@Z
pdata	ENDS
;	COMDAT pdata
pdata	SEGMENT
$pdata$?catch$0@?0???$_Uninit_fill_n@PEAUItem@CInifile@@_KU12@V?$xalloc@UItem@CInifile@@@@U12@@std@@YAXPEAUItem@CInifile@@_KPEBU12@AEAU?$_Wrap_alloc@V?$xalloc@UItem@CInifile@@@@@0@0U_Nonscalar_ptr_iterator_tag@0@@Z@4HA DD imagerel ?catch$0@?0???$_Uninit_fill_n@PEAUItem@CInifile@@_KU12@V?$xalloc@UItem@CInifile@@@@U12@@std@@YAXPEAUItem@CInifile@@_KPEBU12@AEAU?$_Wrap_alloc@V?$xalloc@UItem@CInifile@@@@@0@0U_Nonscalar_ptr_iterator_tag@0@@Z@4HA
	DD	imagerel ?catch$0@?0???$_Uninit_fill_n@PEAUItem@CInifile@@_KU12@V?$xalloc@UItem@CInifile@@@@U12@@std@@YAXPEAUItem@CInifile@@_KPEBU12@AEAU?$_Wrap_alloc@V?$xalloc@UItem@CInifile@@@@@0@0U_Nonscalar_ptr_iterator_tag@0@@Z@4HA+104
	DD	imagerel $unwind$?catch$0@?0???$_Uninit_fill_n@PEAUItem@CInifile@@_KU12@V?$xalloc@UItem@CInifile@@@@U12@@std@@YAXPEAUItem@CInifile@@_KPEBU12@AEAU?$_Wrap_alloc@V?$xalloc@UItem@CInifile@@@@@0@0U_Nonscalar_ptr_iterator_tag@0@@Z@4HA
pdata	ENDS
;	COMDAT pdata
pdata	SEGMENT
$pdata$??$_Copy_backward@PEAPEAUSect@CInifile@@PEAPEAU12@@std@@YAPEAPEAUSect@CInifile@@PEAPEAU12@00U_Scalar_ptr_iterator_tag@0@@Z DD imagerel $LN4
	DD	imagerel $LN4+48
	DD	imagerel $unwind$??$_Copy_backward@PEAPEAUSect@CInifile@@PEAPEAU12@@std@@YAPEAPEAUSect@CInifile@@PEAPEAU12@00U_Scalar_ptr_iterator_tag@0@@Z
pdata	ENDS
;	COMDAT pdata
pdata	SEGMENT
$pdata$??$_Uninitialized_move@PEAPEAUSect@CInifile@@PEAPEAU12@U?$_Wrap_alloc@V?$xalloc@PEAUSect@CInifile@@@@@std@@@std@@YAPEAPEAUSect@CInifile@@PEAPEAU12@00AEAU?$_Wrap_alloc@V?$xalloc@PEAUSect@CInifile@@@@@0@@Z DD imagerel $LN20
	DD	imagerel $LN20+14
	DD	imagerel $unwind$??$_Uninitialized_move@PEAPEAUSect@CInifile@@PEAPEAU12@U?$_Wrap_alloc@V?$xalloc@PEAUSect@CInifile@@@@@std@@@std@@YAPEAPEAUSect@CInifile@@PEAPEAU12@00AEAU?$_Wrap_alloc@V?$xalloc@PEAUSect@CInifile@@@@@0@@Z
pdata	ENDS
;	COMDAT pdata
pdata	SEGMENT
$pdata$??$_Uninitialized_move@PEAUItem@CInifile@@PEAU12@U?$_Wrap_alloc@V?$xalloc@UItem@CInifile@@@@@std@@@std@@YAPEAUItem@CInifile@@PEAU12@00AEAU?$_Wrap_alloc@V?$xalloc@UItem@CInifile@@@@@0@@Z DD imagerel $LN18
	DD	imagerel $LN18+14
	DD	imagerel $unwind$??$_Uninitialized_move@PEAUItem@CInifile@@PEAU12@U?$_Wrap_alloc@V?$xalloc@UItem@CInifile@@@@@std@@@std@@YAPEAUItem@CInifile@@PEAU12@00AEAU?$_Wrap_alloc@V?$xalloc@UItem@CInifile@@@@@0@@Z
pdata	ENDS
;	COMDAT pdata
pdata	SEGMENT
$pdata$??$_Lower_bound@PEAPEAUSect@CInifile@@$$BY0BAA@$$CBD_JP6A_NPEBU12@PEBD@Z@std@@YAPEAPEAUSect@CInifile@@PEAPEAU12@0AEAY0BAA@$$CBDP6A_NPEBU12@PEBD@ZPEA_J@Z DD imagerel $LN34
	DD	imagerel $LN34+23
	DD	imagerel $unwind$??$_Lower_bound@PEAPEAUSect@CInifile@@$$BY0BAA@$$CBD_JP6A_NPEBU12@PEBD@Z@std@@YAPEAPEAUSect@CInifile@@PEAPEAU12@0AEAY0BAA@$$CBDP6A_NPEBU12@PEBD@ZPEA_J@Z
pdata	ENDS
;	COMDAT pdata
pdata	SEGMENT
$pdata$0$??$_Lower_bound@PEAPEAUSect@CInifile@@$$BY0BAA@$$CBD_JP6A_NPEBU12@PEBD@Z@std@@YAPEAPEAUSect@CInifile@@PEAPEAU12@0AEAY0BAA@$$CBDP6A_NPEBU12@PEBD@ZPEA_J@Z DD imagerel $LN34+23
	DD	imagerel $LN34+132
	DD	imagerel $chain$0$??$_Lower_bound@PEAPEAUSect@CInifile@@$$BY0BAA@$$CBD_JP6A_NPEBU12@PEBD@Z@std@@YAPEAPEAUSect@CInifile@@PEAPEAU12@0AEAY0BAA@$$CBDP6A_NPEBU12@PEBD@ZPEA_J@Z
pdata	ENDS
;	COMDAT pdata
pdata	SEGMENT
$pdata$1$??$_Lower_bound@PEAPEAUSect@CInifile@@$$BY0BAA@$$CBD_JP6A_NPEBU12@PEBD@Z@std@@YAPEAPEAUSect@CInifile@@PEAPEAU12@0AEAY0BAA@$$CBDP6A_NPEBU12@PEBD@ZPEA_J@Z DD imagerel $LN34+132
	DD	imagerel $LN34+137
	DD	imagerel $chain$1$??$_Lower_bound@PEAPEAUSect@CInifile@@$$BY0BAA@$$CBD_JP6A_NPEBU12@PEBD@Z@std@@YAPEAPEAUSect@CInifile@@PEAPEAU12@0AEAY0BAA@$$CBDP6A_NPEBU12@PEBD@ZPEA_J@Z
pdata	ENDS
;	COMDAT pdata
pdata	SEGMENT
$pdata$??$_Lower_bound@PEAPEAUSect@CInifile@@PEBD_JP6A_NPEBU12@PEBD@Z@std@@YAPEAPEAUSect@CInifile@@PEAPEAU12@0AEBQEBDP6A_NPEBU12@PEBD@ZPEA_J@Z DD imagerel $LN34
	DD	imagerel $LN34+22
	DD	imagerel $unwind$??$_Lower_bound@PEAPEAUSect@CInifile@@PEBD_JP6A_NPEBU12@PEBD@Z@std@@YAPEAPEAUSect@CInifile@@PEAPEAU12@0AEBQEBDP6A_NPEBU12@PEBD@ZPEA_J@Z
pdata	ENDS
;	COMDAT pdata
pdata	SEGMENT
$pdata$1$??$_Lower_bound@PEAPEAUSect@CInifile@@PEBD_JP6A_NPEBU12@PEBD@Z@std@@YAPEAPEAUSect@CInifile@@PEAPEAU12@0AEBQEBDP6A_NPEBU12@PEBD@ZPEA_J@Z DD imagerel $LN34+22
	DD	imagerel $LN34+136
	DD	imagerel $chain$1$??$_Lower_bound@PEAPEAUSect@CInifile@@PEBD_JP6A_NPEBU12@PEBD@Z@std@@YAPEAPEAUSect@CInifile@@PEAPEAU12@0AEBQEBDP6A_NPEBU12@PEBD@ZPEA_J@Z
pdata	ENDS
;	COMDAT pdata
pdata	SEGMENT
$pdata$2$??$_Lower_bound@PEAPEAUSect@CInifile@@PEBD_JP6A_NPEBU12@PEBD@Z@std@@YAPEAPEAUSect@CInifile@@PEAPEAU12@0AEBQEBDP6A_NPEBU12@PEBD@ZPEA_J@Z DD imagerel $LN34+136
	DD	imagerel $LN34+144
	DD	imagerel $chain$2$??$_Lower_bound@PEAPEAUSect@CInifile@@PEBD_JP6A_NPEBU12@PEBD@Z@std@@YAPEAPEAUSect@CInifile@@PEAPEAU12@0AEBQEBDP6A_NPEBU12@PEBD@ZPEA_J@Z
pdata	ENDS
;	COMDAT pdata
pdata	SEGMENT
$pdata$??$_Lower_bound@PEAUItem@CInifile@@PEBD_JP6A_NAEBU12@PEBD@Z@std@@YAPEAUItem@CInifile@@PEAU12@0AEBQEBDP6A_NAEBU12@PEBD@ZPEA_J@Z DD imagerel $LN58
	DD	imagerel $LN58+37
	DD	imagerel $unwind$??$_Lower_bound@PEAUItem@CInifile@@PEBD_JP6A_NAEBU12@PEBD@Z@std@@YAPEAUItem@CInifile@@PEAU12@0AEBQEBDP6A_NAEBU12@PEBD@ZPEA_J@Z
pdata	ENDS
;	COMDAT pdata
pdata	SEGMENT
$pdata$1$??$_Lower_bound@PEAUItem@CInifile@@PEBD_JP6A_NAEBU12@PEBD@Z@std@@YAPEAUItem@CInifile@@PEAU12@0AEBQEBDP6A_NAEBU12@PEBD@ZPEA_J@Z DD imagerel $LN58+37
	DD	imagerel $LN58+121
	DD	imagerel $chain$1$??$_Lower_bound@PEAUItem@CInifile@@PEBD_JP6A_NAEBU12@PEBD@Z@std@@YAPEAUItem@CInifile@@PEAU12@0AEBQEBDP6A_NAEBU12@PEBD@ZPEA_J@Z
pdata	ENDS
;	COMDAT pdata
pdata	SEGMENT
$pdata$2$??$_Lower_bound@PEAUItem@CInifile@@PEBD_JP6A_NAEBU12@PEBD@Z@std@@YAPEAUItem@CInifile@@PEAU12@0AEBQEBDP6A_NAEBU12@PEBD@ZPEA_J@Z DD imagerel $LN58+121
	DD	imagerel $LN58+141
	DD	imagerel $chain$2$??$_Lower_bound@PEAUItem@CInifile@@PEBD_JP6A_NAEBU12@PEBD@Z@std@@YAPEAUItem@CInifile@@PEAU12@0AEBQEBDP6A_NAEBU12@PEBD@ZPEA_J@Z
pdata	ENDS
;	COMDAT pdata
pdata	SEGMENT
$pdata$??_GSect@CInifile@@QEAAPEAXI@Z DD imagerel $LN21
	DD	imagerel $LN21+61
	DD	imagerel $unwind$??_GSect@CInifile@@QEAAPEAXI@Z
pdata	ENDS
;	COMDAT pdata
pdata	SEGMENT
$pdata$??R?$xr_special_free@$0A@USect@CInifile@@@@QEAAXAEAPEAUSect@CInifile@@@Z DD imagerel $LN46
	DD	imagerel $LN46+157
	DD	imagerel $unwind$??R?$xr_special_free@$0A@USect@CInifile@@@@QEAAXAEAPEAUSect@CInifile@@@Z
pdata	ENDS
;	COMDAT pdata
pdata	SEGMENT
$pdata$??R?$xr_special_free@$00VCInifile@@@@QEAAXAEAPEAVCInifile@@@Z DD imagerel $LN29
	DD	imagerel $LN29+136
	DD	imagerel $unwind$??R?$xr_special_free@$00VCInifile@@@@QEAAXAEAPEAVCInifile@@@Z
pdata	ENDS
;	COMDAT pdata
pdata	SEGMENT
$pdata$??$_Uninitialized_fill_n@PEAPEAUSect@CInifile@@_KPEAU12@U?$_Wrap_alloc@V?$xalloc@PEAUSect@CInifile@@@@@std@@@std@@YAXPEAPEAUSect@CInifile@@_KPEBQEAU12@AEAU?$_Wrap_alloc@V?$xalloc@PEAUSect@CInifile@@@@@0@@Z DD imagerel $LN10
	DD	imagerel $LN10+14
	DD	imagerel $unwind$??$_Uninitialized_fill_n@PEAPEAUSect@CInifile@@_KPEAU12@U?$_Wrap_alloc@V?$xalloc@PEAUSect@CInifile@@@@@std@@@std@@YAXPEAPEAUSect@CInifile@@_KPEBQEAU12@AEAU?$_Wrap_alloc@V?$xalloc@PEAUSect@CInifile@@@@@0@@Z
pdata	ENDS
;	COMDAT pdata
pdata	SEGMENT
$pdata$??$_Uninitialized_fill_n@PEAUItem@CInifile@@_KU12@U?$_Wrap_alloc@V?$xalloc@UItem@CInifile@@@@@std@@@std@@YAXPEAUItem@CInifile@@_KPEBU12@AEAU?$_Wrap_alloc@V?$xalloc@UItem@CInifile@@@@@0@@Z DD imagerel $LN8
	DD	imagerel $LN8+14
	DD	imagerel $unwind$??$_Uninitialized_fill_n@PEAUItem@CInifile@@_KU12@U?$_Wrap_alloc@V?$xalloc@UItem@CInifile@@@@@std@@@std@@YAXPEAUItem@CInifile@@_KPEBU12@AEAU?$_Wrap_alloc@V?$xalloc@UItem@CInifile@@@@@0@@Z
pdata	ENDS
;	COMDAT pdata
pdata	SEGMENT
$pdata$??$_Copy_backward@PEAPEAUSect@CInifile@@PEAPEAU12@@std@@YAPEAPEAUSect@CInifile@@PEAPEAU12@00@Z DD imagerel $LN8
	DD	imagerel $LN8+48
	DD	imagerel $unwind$??$_Copy_backward@PEAPEAUSect@CInifile@@PEAPEAU12@@std@@YAPEAPEAUSect@CInifile@@PEAPEAU12@00@Z
pdata	ENDS
;	COMDAT pdata
pdata	SEGMENT
$pdata$??$_Umove@PEAPEAUSect@CInifile@@@?$vector@PEAUSect@CInifile@@V?$xalloc@PEAUSect@CInifile@@@@@std@@IEAAPEAPEAUSect@CInifile@@PEAPEAU23@00@Z DD imagerel $LN22
	DD	imagerel $LN22+26
	DD	imagerel $unwind$??$_Umove@PEAPEAUSect@CInifile@@@?$vector@PEAUSect@CInifile@@V?$xalloc@PEAUSect@CInifile@@@@@std@@IEAAPEAPEAUSect@CInifile@@PEAPEAU23@00@Z
pdata	ENDS
;	COMDAT pdata
pdata	SEGMENT
$pdata$??$_Umove@PEAUItem@CInifile@@@?$vector@UItem@CInifile@@V?$xalloc@UItem@CInifile@@@@@std@@IEAAPEAUItem@CInifile@@PEAU23@00@Z DD imagerel $LN20
	DD	imagerel $LN20+26
	DD	imagerel $unwind$??$_Umove@PEAUItem@CInifile@@@?$vector@UItem@CInifile@@V?$xalloc@UItem@CInifile@@@@@std@@IEAAPEAUItem@CInifile@@PEAU23@00@Z
pdata	ENDS
;	COMDAT pdata
pdata	SEGMENT
$pdata$??$lower_bound@V?$_Vector_iterator@V?$_Vector_val@U?$_Simple_types@PEAUSect@CInifile@@@std@@@std@@@std@@$$BY0BAA@DP6A_NPEBUSect@CInifile@@PEBD@Z@std@@YA?AV?$_Vector_iterator@V?$_Vector_val@U?$_Simple_types@PEAUSect@CInifile@@@std@@@std@@@0@V10@0AEAY0BAA@$$CBDP6A_NPEBUSect@CInifile@@PEBD@Z@Z DD imagerel $LN18
	DD	imagerel $LN18+41
	DD	imagerel $unwind$??$lower_bound@V?$_Vector_iterator@V?$_Vector_val@U?$_Simple_types@PEAUSect@CInifile@@@std@@@std@@@std@@$$BY0BAA@DP6A_NPEBUSect@CInifile@@PEBD@Z@std@@YA?AV?$_Vector_iterator@V?$_Vector_val@U?$_Simple_types@PEAUSect@CInifile@@@std@@@std@@@0@V10@0AEAY0BAA@$$CBDP6A_NPEBUSect@CInifile@@PEBD@Z@Z
pdata	ENDS
;	COMDAT pdata
pdata	SEGMENT
$pdata$??$xr_new@USect@CInifile@@@@YAPEAUSect@CInifile@@XZ DD imagerel $LN22
	DD	imagerel $LN22+59
	DD	imagerel $unwind$??$xr_new@USect@CInifile@@@@YAPEAUSect@CInifile@@XZ
pdata	ENDS
;	COMDAT pdata
pdata	SEGMENT
$pdata$??$lower_bound@V?$_Vector_iterator@V?$_Vector_val@U?$_Simple_types@PEAUSect@CInifile@@@std@@@std@@@std@@PEBDP6A_NPEBUSect@CInifile@@PEBD@Z@std@@YA?AV?$_Vector_iterator@V?$_Vector_val@U?$_Simple_types@PEAUSect@CInifile@@@std@@@std@@@0@V10@0AEBQEBDP6A_NPEBUSect@CInifile@@PEBD@Z@Z DD imagerel $LN18
	DD	imagerel $LN18+41
	DD	imagerel $unwind$??$lower_bound@V?$_Vector_iterator@V?$_Vector_val@U?$_Simple_types@PEAUSect@CInifile@@@std@@@std@@@std@@PEBDP6A_NPEBUSect@CInifile@@PEBD@Z@std@@YA?AV?$_Vector_iterator@V?$_Vector_val@U?$_Simple_types@PEAUSect@CInifile@@@std@@@std@@@0@V10@0AEBQEBDP6A_NPEBUSect@CInifile@@PEBD@Z@Z
pdata	ENDS
;	COMDAT pdata
pdata	SEGMENT
$pdata$??$xr_delete@USect@CInifile@@@@YAXAEAPEAUSect@CInifile@@@Z DD imagerel $LN49
	DD	imagerel $LN49+29
	DD	imagerel $unwind$??$xr_delete@USect@CInifile@@@@YAXAEAPEAUSect@CInifile@@@Z
pdata	ENDS
;	COMDAT pdata
pdata	SEGMENT
$pdata$0$??$xr_delete@USect@CInifile@@@@YAXAEAPEAUSect@CInifile@@@Z DD imagerel $LN49+29
	DD	imagerel $LN49+163
	DD	imagerel $chain$0$??$xr_delete@USect@CInifile@@@@YAXAEAPEAUSect@CInifile@@@Z
pdata	ENDS
;	COMDAT pdata
pdata	SEGMENT
$pdata$1$??$xr_delete@USect@CInifile@@@@YAXAEAPEAUSect@CInifile@@@Z DD imagerel $LN49+163
	DD	imagerel $LN49+174
	DD	imagerel $chain$1$??$xr_delete@USect@CInifile@@@@YAXAEAPEAUSect@CInifile@@@Z
pdata	ENDS
;	COMDAT pdata
pdata	SEGMENT
$pdata$??$lower_bound@V?$_Vector_iterator@V?$_Vector_val@U?$_Simple_types@UItem@CInifile@@@std@@@std@@@std@@PEBDP6A_NAEBUItem@CInifile@@PEBD@Z@std@@YA?AV?$_Vector_iterator@V?$_Vector_val@U?$_Simple_types@UItem@CInifile@@@std@@@std@@@0@V10@0AEBQEBDP6A_NAEBUItem@CInifile@@PEBD@Z@Z DD imagerel $LN18
	DD	imagerel $LN18+41
	DD	imagerel $unwind$??$lower_bound@V?$_Vector_iterator@V?$_Vector_val@U?$_Simple_types@UItem@CInifile@@@std@@@std@@@std@@PEBDP6A_NAEBUItem@CInifile@@PEBD@Z@std@@YA?AV?$_Vector_iterator@V?$_Vector_val@U?$_Simple_types@UItem@CInifile@@@std@@@std@@@0@V10@0AEBQEBDP6A_NAEBUItem@CInifile@@PEBD@Z@Z
pdata	ENDS
;	COMDAT pdata
pdata	SEGMENT
$pdata$??$xr_delete@VCInifile@@@@YAXAEAPEAVCInifile@@@Z DD imagerel $LN32
	DD	imagerel $LN32+17
	DD	imagerel $unwind$??$xr_delete@VCInifile@@@@YAXAEAPEAVCInifile@@@Z
pdata	ENDS
;	COMDAT pdata
pdata	SEGMENT
$pdata$1$??$xr_delete@VCInifile@@@@YAXAEAPEAVCInifile@@@Z DD imagerel $LN32+17
	DD	imagerel $LN32+144
	DD	imagerel $chain$1$??$xr_delete@VCInifile@@@@YAXAEAPEAVCInifile@@@Z
pdata	ENDS
;	COMDAT pdata
pdata	SEGMENT
$pdata$2$??$xr_delete@VCInifile@@@@YAXAEAPEAVCInifile@@@Z DD imagerel $LN32+144
	DD	imagerel $LN32+150
	DD	imagerel $chain$2$??$xr_delete@VCInifile@@@@YAXAEAPEAVCInifile@@@Z
pdata	ENDS
;	COMDAT pdata
pdata	SEGMENT
$pdata$??$xr_new@VCInifile@@PEBDH@@YAPEAVCInifile@@AEBQEBDAEBH@Z DD imagerel $LN8
	DD	imagerel $LN8+88
	DD	imagerel $unwind$??$xr_new@VCInifile@@PEBDH@@YAPEAVCInifile@@AEBQEBDAEBH@Z
pdata	ENDS
;	COMDAT pdata
pdata	SEGMENT
$pdata$?_Ufill@?$vector@PEAUSect@CInifile@@V?$xalloc@PEAUSect@CInifile@@@@@std@@IEAAPEAPEAUSect@CInifile@@PEAPEAU34@_KPEBQEAU34@@Z DD imagerel $LN12
	DD	imagerel $LN12+45
	DD	imagerel $unwind$?_Ufill@?$vector@PEAUSect@CInifile@@V?$xalloc@PEAUSect@CInifile@@@@@std@@IEAAPEAPEAUSect@CInifile@@PEAPEAU34@_KPEBQEAU34@@Z
pdata	ENDS
;	COMDAT pdata
pdata	SEGMENT
$pdata$?_Ufill@?$vector@UItem@CInifile@@V?$xalloc@UItem@CInifile@@@@@std@@IEAAPEAUItem@CInifile@@PEAU34@_KPEBU34@@Z DD imagerel $LN10
	DD	imagerel $LN10+48
	DD	imagerel $unwind$?_Ufill@?$vector@UItem@CInifile@@V?$xalloc@UItem@CInifile@@@@@std@@IEAAPEAUItem@CInifile@@PEAU34@_KPEBU34@@Z
pdata	ENDS
;	COMDAT pdata
pdata	SEGMENT
$pdata$?_Insert_n@?$vector@PEAUSect@CInifile@@V?$xalloc@PEAUSect@CInifile@@@@@std@@IEAA?AV?$_Vector_iterator@V?$_Vector_val@U?$_Simple_types@PEAUSect@CInifile@@@std@@@std@@@2@V?$_Vector_const_iterator@V?$_Vector_val@U?$_Simple_types@PEAUSect@CInifile@@@std@@@std@@@2@_KAEBQEAUSect@CInifile@@@Z DD imagerel $LN248
	DD	imagerel $LN248+702
	DD	imagerel $unwind$?_Insert_n@?$vector@PEAUSect@CInifile@@V?$xalloc@PEAUSect@CInifile@@@@@std@@IEAA?AV?$_Vector_iterator@V?$_Vector_val@U?$_Simple_types@PEAUSect@CInifile@@@std@@@std@@@2@V?$_Vector_const_iterator@V?$_Vector_val@U?$_Simple_types@PEAUSect@CInifile@@@std@@@std@@@2@_KAEBQEAUSect@CInifile@@@Z
pdata	ENDS
;	COMDAT pdata
pdata	SEGMENT
$pdata$?catch$0@?0??_Insert_n@?$vector@PEAUSect@CInifile@@V?$xalloc@PEAUSect@CInifile@@@@@std@@IEAA?AV?$_Vector_iterator@V?$_Vector_val@U?$_Simple_types@PEAUSect@CInifile@@@std@@@std@@@2@V?$_Vector_const_iterator@V?$_Vector_val@U?$_Simple_types@PEAUSect@CInifile@@@std@@@std@@@2@_KAEBQEAUSect@CInifile@@@Z@4HA DD imagerel ?catch$0@?0??_Insert_n@?$vector@PEAUSect@CInifile@@V?$xalloc@PEAUSect@CInifile@@@@@std@@IEAA?AV?$_Vector_iterator@V?$_Vector_val@U?$_Simple_types@PEAUSect@CInifile@@@std@@@std@@@2@V?$_Vector_const_iterator@V?$_Vector_val@U?$_Simple_types@PEAUSect@CInifile@@@std@@@std@@@2@_KAEBQEAUSect@CInifile@@@Z@4HA
	DD	imagerel ?catch$0@?0??_Insert_n@?$vector@PEAUSect@CInifile@@V?$xalloc@PEAUSect@CInifile@@@@@std@@IEAA?AV?$_Vector_iterator@V?$_Vector_val@U?$_Simple_types@PEAUSect@CInifile@@@std@@@std@@@2@V?$_Vector_const_iterator@V?$_Vector_val@U?$_Simple_types@PEAUSect@CInifile@@@std@@@std@@@2@_KAEBQEAUSect@CInifile@@@Z@4HA+49
	DD	imagerel $unwind$?catch$0@?0??_Insert_n@?$vector@PEAUSect@CInifile@@V?$xalloc@PEAUSect@CInifile@@@@@std@@IEAA?AV?$_Vector_iterator@V?$_Vector_val@U?$_Simple_types@PEAUSect@CInifile@@@std@@@std@@@2@V?$_Vector_const_iterator@V?$_Vector_val@U?$_Simple_types@PEAUSect@CInifile@@@std@@@std@@@2@_KAEBQEAUSect@CInifile@@@Z@4HA
pdata	ENDS
;	COMDAT pdata
pdata	SEGMENT
$pdata$?catch$1@?0??_Insert_n@?$vector@PEAUSect@CInifile@@V?$xalloc@PEAUSect@CInifile@@@@@std@@IEAA?AV?$_Vector_iterator@V?$_Vector_val@U?$_Simple_types@PEAUSect@CInifile@@@std@@@std@@@2@V?$_Vector_const_iterator@V?$_Vector_val@U?$_Simple_types@PEAUSect@CInifile@@@std@@@std@@@2@_KAEBQEAUSect@CInifile@@@Z@4HA DD imagerel ?catch$1@?0??_Insert_n@?$vector@PEAUSect@CInifile@@V?$xalloc@PEAUSect@CInifile@@@@@std@@IEAA?AV?$_Vector_iterator@V?$_Vector_val@U?$_Simple_types@PEAUSect@CInifile@@@std@@@std@@@2@V?$_Vector_const_iterator@V?$_Vector_val@U?$_Simple_types@PEAUSect@CInifile@@@std@@@std@@@2@_KAEBQEAUSect@CInifile@@@Z@4HA
	DD	imagerel ?catch$1@?0??_Insert_n@?$vector@PEAUSect@CInifile@@V?$xalloc@PEAUSect@CInifile@@@@@std@@IEAA?AV?$_Vector_iterator@V?$_Vector_val@U?$_Simple_types@PEAUSect@CInifile@@@std@@@std@@@2@V?$_Vector_const_iterator@V?$_Vector_val@U?$_Simple_types@PEAUSect@CInifile@@@std@@@std@@@2@_KAEBQEAUSect@CInifile@@@Z@4HA+23
	DD	imagerel $unwind$?catch$1@?0??_Insert_n@?$vector@PEAUSect@CInifile@@V?$xalloc@PEAUSect@CInifile@@@@@std@@IEAA?AV?$_Vector_iterator@V?$_Vector_val@U?$_Simple_types@PEAUSect@CInifile@@@std@@@std@@@2@V?$_Vector_const_iterator@V?$_Vector_val@U?$_Simple_types@PEAUSect@CInifile@@@std@@@std@@@2@_KAEBQEAUSect@CInifile@@@Z@4HA
pdata	ENDS
;	COMDAT pdata
pdata	SEGMENT
$pdata$?_Insert_n@?$vector@UItem@CInifile@@V?$xalloc@UItem@CInifile@@@@@std@@IEAA?AV?$_Vector_iterator@V?$_Vector_val@U?$_Simple_types@UItem@CInifile@@@std@@@std@@@2@V?$_Vector_const_iterator@V?$_Vector_val@U?$_Simple_types@UItem@CInifile@@@std@@@std@@@2@_KAEBUItem@CInifile@@@Z DD imagerel $LN339
	DD	imagerel $LN339+907
	DD	imagerel $unwind$?_Insert_n@?$vector@UItem@CInifile@@V?$xalloc@UItem@CInifile@@@@@std@@IEAA?AV?$_Vector_iterator@V?$_Vector_val@U?$_Simple_types@UItem@CInifile@@@std@@@std@@@2@V?$_Vector_const_iterator@V?$_Vector_val@U?$_Simple_types@UItem@CInifile@@@std@@@std@@@2@_KAEBUItem@CInifile@@@Z
pdata	ENDS
;	COMDAT pdata
pdata	SEGMENT
$pdata$?catch$0@?0??_Insert_n@?$vector@UItem@CInifile@@V?$xalloc@UItem@CInifile@@@@@std@@IEAA?AV?$_Vector_iterator@V?$_Vector_val@U?$_Simple_types@UItem@CInifile@@@std@@@std@@@2@V?$_Vector_const_iterator@V?$_Vector_val@U?$_Simple_types@UItem@CInifile@@@std@@@std@@@2@_KAEBUItem@CInifile@@@Z@4HA DD imagerel ?catch$0@?0??_Insert_n@?$vector@UItem@CInifile@@V?$xalloc@UItem@CInifile@@@@@std@@IEAA?AV?$_Vector_iterator@V?$_Vector_val@U?$_Simple_types@UItem@CInifile@@@std@@@std@@@2@V?$_Vector_const_iterator@V?$_Vector_val@U?$_Simple_types@UItem@CInifile@@@std@@@std@@@2@_KAEBUItem@CInifile@@@Z@4HA
	DD	imagerel ?catch$0@?0??_Insert_n@?$vector@UItem@CInifile@@V?$xalloc@UItem@CInifile@@@@@std@@IEAA?AV?$_Vector_iterator@V?$_Vector_val@U?$_Simple_types@UItem@CInifile@@@std@@@std@@@2@V?$_Vector_const_iterator@V?$_Vector_val@U?$_Simple_types@UItem@CInifile@@@std@@@std@@@2@_KAEBUItem@CInifile@@@Z@4HA+112
	DD	imagerel $unwind$?catch$0@?0??_Insert_n@?$vector@UItem@CInifile@@V?$xalloc@UItem@CInifile@@@@@std@@IEAA?AV?$_Vector_iterator@V?$_Vector_val@U?$_Simple_types@UItem@CInifile@@@std@@@std@@@2@V?$_Vector_const_iterator@V?$_Vector_val@U?$_Simple_types@UItem@CInifile@@@std@@@std@@@2@_KAEBUItem@CInifile@@@Z@4HA
pdata	ENDS
;	COMDAT pdata
pdata	SEGMENT
$pdata$?catch$1@?0??_Insert_n@?$vector@UItem@CInifile@@V?$xalloc@UItem@CInifile@@@@@std@@IEAA?AV?$_Vector_iterator@V?$_Vector_val@U?$_Simple_types@UItem@CInifile@@@std@@@std@@@2@V?$_Vector_const_iterator@V?$_Vector_val@U?$_Simple_types@UItem@CInifile@@@std@@@std@@@2@_KAEBUItem@CInifile@@@Z@4HA DD imagerel ?catch$1@?0??_Insert_n@?$vector@UItem@CInifile@@V?$xalloc@UItem@CInifile@@@@@std@@IEAA?AV?$_Vector_iterator@V?$_Vector_val@U?$_Simple_types@UItem@CInifile@@@std@@@std@@@2@V?$_Vector_const_iterator@V?$_Vector_val@U?$_Simple_types@UItem@CInifile@@@std@@@std@@@2@_KAEBUItem@CInifile@@@Z@4HA
	DD	imagerel ?catch$1@?0??_Insert_n@?$vector@UItem@CInifile@@V?$xalloc@UItem@CInifile@@@@@std@@IEAA?AV?$_Vector_iterator@V?$_Vector_val@U?$_Simple_types@UItem@CInifile@@@std@@@std@@@2@V?$_Vector_const_iterator@V?$_Vector_val@U?$_Simple_types@UItem@CInifile@@@std@@@std@@@2@_KAEBUItem@CInifile@@@Z@4HA+54
	DD	imagerel $unwind$?catch$1@?0??_Insert_n@?$vector@UItem@CInifile@@V?$xalloc@UItem@CInifile@@@@@std@@IEAA?AV?$_Vector_iterator@V?$_Vector_val@U?$_Simple_types@UItem@CInifile@@@std@@@std@@@2@V?$_Vector_const_iterator@V?$_Vector_val@U?$_Simple_types@UItem@CInifile@@@std@@@std@@@2@_KAEBUItem@CInifile@@@Z@4HA
pdata	ENDS
;	COMDAT pdata
pdata	SEGMENT
$pdata$?insert@?$vector@PEAUSect@CInifile@@V?$xalloc@PEAUSect@CInifile@@@@@std@@QEAA?AV?$_Vector_iterator@V?$_Vector_val@U?$_Simple_types@PEAUSect@CInifile@@@std@@@std@@@2@V?$_Vector_const_iterator@V?$_Vector_val@U?$_Simple_types@PEAUSect@CInifile@@@std@@@std@@@2@AEBQEAUSect@CInifile@@@Z DD imagerel $LN4
	DD	imagerel $LN4+28
	DD	imagerel $unwind$?insert@?$vector@PEAUSect@CInifile@@V?$xalloc@PEAUSect@CInifile@@@@@std@@QEAA?AV?$_Vector_iterator@V?$_Vector_val@U?$_Simple_types@PEAUSect@CInifile@@@std@@@std@@@2@V?$_Vector_const_iterator@V?$_Vector_val@U?$_Simple_types@PEAUSect@CInifile@@@std@@@std@@@2@AEBQEAUSect@CInifile@@@Z
pdata	ENDS
;	COMDAT pdata
pdata	SEGMENT
$pdata$?erase@?$vector@UItem@CInifile@@V?$xalloc@UItem@CInifile@@@@@std@@QEAA?AV?$_Vector_iterator@V?$_Vector_val@U?$_Simple_types@UItem@CInifile@@@std@@@std@@@2@V?$_Vector_const_iterator@V?$_Vector_val@U?$_Simple_types@UItem@CInifile@@@std@@@std@@@2@@Z DD imagerel $LN119
	DD	imagerel $LN119+235
	DD	imagerel $unwind$?erase@?$vector@UItem@CInifile@@V?$xalloc@UItem@CInifile@@@@@std@@QEAA?AV?$_Vector_iterator@V?$_Vector_val@U?$_Simple_types@UItem@CInifile@@@std@@@std@@@2@V?$_Vector_const_iterator@V?$_Vector_val@U?$_Simple_types@UItem@CInifile@@@std@@@std@@@2@@Z
pdata	ENDS
;	COMDAT pdata
pdata	SEGMENT
$pdata$?insert@?$vector@UItem@CInifile@@V?$xalloc@UItem@CInifile@@@@@std@@QEAA?AV?$_Vector_iterator@V?$_Vector_val@U?$_Simple_types@UItem@CInifile@@@std@@@std@@@2@V?$_Vector_const_iterator@V?$_Vector_val@U?$_Simple_types@UItem@CInifile@@@std@@@std@@@2@AEBUItem@CInifile@@@Z DD imagerel $LN4
	DD	imagerel $LN4+28
	DD	imagerel $unwind$?insert@?$vector@UItem@CInifile@@V?$xalloc@UItem@CInifile@@@@@std@@QEAA?AV?$_Vector_iterator@V?$_Vector_val@U?$_Simple_types@UItem@CInifile@@@std@@@std@@@2@V?$_Vector_const_iterator@V?$_Vector_val@U?$_Simple_types@UItem@CInifile@@@std@@@std@@@2@AEBUItem@CInifile@@@Z
pdata	ENDS
pdata	SEGMENT
$pdata$?remove_line@CInifile@@QEAAXPEBD0@Z DD imagerel $LN139
	DD	imagerel $LN139+137
	DD	imagerel $unwind$?remove_line@CInifile@@QEAAXPEBD0@Z
$pdata$2$?remove_line@CInifile@@QEAAXPEBD0@Z DD imagerel $LN139+137
	DD	imagerel $LN139+541
	DD	imagerel $chain$2$?remove_line@CInifile@@QEAAXPEBD0@Z
$pdata$3$?remove_line@CInifile@@QEAAXPEBD0@Z DD imagerel $LN139+541
	DD	imagerel $LN139+550
	DD	imagerel $chain$3$?remove_line@CInifile@@QEAAXPEBD0@Z
$pdata$?w_fvector4@CInifile@@QEAAXPEBD0AEBU?$_vector4@M@@0@Z DD imagerel $LN4
	DD	imagerel $LN4+161
	DD	imagerel $unwind$?w_fvector4@CInifile@@QEAAXPEBD0AEBU?$_vector4@M@@0@Z
$pdata$?w_fvector3@CInifile@@QEAAXPEBD0AEBU?$_vector3@M@@0@Z DD imagerel $LN4
	DD	imagerel $LN4+146
	DD	imagerel $unwind$?w_fvector3@CInifile@@QEAAXPEBD0AEBU?$_vector3@M@@0@Z
$pdata$?w_fvector2@CInifile@@QEAAXPEBD0AEBU?$_vector2@M@@0@Z DD imagerel $LN4
	DD	imagerel $LN4+131
	DD	imagerel $unwind$?w_fvector2@CInifile@@QEAAXPEBD0AEBU?$_vector2@M@@0@Z
$pdata$?w_ivector4@CInifile@@QEAAXPEBD0AEBU?$_vector4@H@@0@Z DD imagerel $LN4
	DD	imagerel $LN4+130
	DD	imagerel $unwind$?w_ivector4@CInifile@@QEAAXPEBD0AEBU?$_vector4@H@@0@Z
$pdata$?w_ivector3@CInifile@@QEAAXPEBD0AEBU?$_vector3@H@@0@Z DD imagerel $LN4
	DD	imagerel $LN4+122
	DD	imagerel $unwind$?w_ivector3@CInifile@@QEAAXPEBD0AEBU?$_vector3@H@@0@Z
$pdata$?w_ivector2@CInifile@@QEAAXPEBD0AEBU?$_vector2@H@@0@Z DD imagerel $LN4
	DD	imagerel $LN4+114
	DD	imagerel $unwind$?w_ivector2@CInifile@@QEAAXPEBD0AEBU?$_vector2@H@@0@Z
$pdata$?w_color@CInifile@@QEAAXPEBD0I0@Z DD imagerel $LN12
	DD	imagerel $LN12+154
	DD	imagerel $unwind$?w_color@CInifile@@QEAAXPEBD0I0@Z
$pdata$?w_fcolor@CInifile@@QEAAXPEBD0AEBU?$_color@M@@0@Z DD imagerel $LN4
	DD	imagerel $LN4+161
	DD	imagerel $unwind$?w_fcolor@CInifile@@QEAAXPEBD0AEBU?$_color@M@@0@Z
$pdata$?w_float@CInifile@@QEAAXPEBD0M0@Z DD imagerel $LN4
	DD	imagerel $LN4+112
	DD	imagerel $unwind$?w_float@CInifile@@QEAAXPEBD0M0@Z
$pdata$?w_s32@CInifile@@QEAAXPEBD0H0@Z DD imagerel $LN4
	DD	imagerel $LN4+103
	DD	imagerel $unwind$?w_s32@CInifile@@QEAAXPEBD0H0@Z
$pdata$?w_s16@CInifile@@QEAAXPEBD0F0@Z DD imagerel $LN4
	DD	imagerel $LN4+107
	DD	imagerel $unwind$?w_s16@CInifile@@QEAAXPEBD0F0@Z
$pdata$?w_s8@CInifile@@QEAAXPEBD0C0@Z DD imagerel $LN4
	DD	imagerel $LN4+107
	DD	imagerel $unwind$?w_s8@CInifile@@QEAAXPEBD0C0@Z
$pdata$?w_u32@CInifile@@QEAAXPEBD0I0@Z DD imagerel $LN4
	DD	imagerel $LN4+103
	DD	imagerel $unwind$?w_u32@CInifile@@QEAAXPEBD0I0@Z
$pdata$?w_u16@CInifile@@QEAAXPEBD0G0@Z DD imagerel $LN4
	DD	imagerel $LN4+107
	DD	imagerel $unwind$?w_u16@CInifile@@QEAAXPEBD0G0@Z
$pdata$?w_u8@CInifile@@QEAAXPEBD0E0@Z DD imagerel $LN4
	DD	imagerel $LN4+107
	DD	imagerel $unwind$?w_u8@CInifile@@QEAAXPEBD0E0@Z
$pdata$?w_string@CInifile@@QEAAXPEBD000@Z DD imagerel $LN318
	DD	imagerel $LN318+11
	DD	imagerel $unwind$?w_string@CInifile@@QEAAXPEBD000@Z
$pdata$5$?w_string@CInifile@@QEAAXPEBD000@Z DD imagerel $LN318+11
	DD	imagerel $LN318+641
	DD	imagerel $chain$5$?w_string@CInifile@@QEAAXPEBD000@Z
$pdata$6$?w_string@CInifile@@QEAAXPEBD000@Z DD imagerel $LN318+641
	DD	imagerel $LN318+895
	DD	imagerel $chain$6$?w_string@CInifile@@QEAAXPEBD000@Z
$pdata$7$?w_string@CInifile@@QEAAXPEBD000@Z DD imagerel $LN318+895
	DD	imagerel $LN318+1067
	DD	imagerel $chain$7$?w_string@CInifile@@QEAAXPEBD000@Z
$pdata$8$?w_string@CInifile@@QEAAXPEBD000@Z DD imagerel $LN318+1067
	DD	imagerel $LN318+1083
	DD	imagerel $chain$8$?w_string@CInifile@@QEAAXPEBD000@Z
$pdata$9$?w_string@CInifile@@QEAAXPEBD000@Z DD imagerel $LN318+1083
	DD	imagerel $LN318+1094
	DD	imagerel $chain$9$?w_string@CInifile@@QEAAXPEBD000@Z
$pdata$?r_line@CInifile@@QEAAHAEBVshared_str@@HPEAPEBD1@Z DD imagerel $LN75
	DD	imagerel $LN75+177
	DD	imagerel $unwind$?r_line@CInifile@@QEAAHAEBVshared_str@@HPEAPEBD1@Z
$pdata$?r_line@CInifile@@QEAAHPEBDHPEAPEBD1@Z DD imagerel $LN69
	DD	imagerel $LN69+143
	DD	imagerel $unwind$?r_line@CInifile@@QEAAHPEBDHPEAPEBD1@Z
$pdata$?r_token@CInifile@@QEAAHPEBD0PEBUxr_token@@@Z DD imagerel $LN13
	DD	imagerel $LN13+120
	DD	imagerel $unwind$?r_token@CInifile@@QEAAHPEBD0PEBUxr_token@@@Z
$pdata$?r_section@CInifile@@QEAAAEAUSect@1@PEBD@Z DD imagerel $LN100
	DD	imagerel $LN100+325
	DD	imagerel $unwind$?r_section@CInifile@@QEAAAEAUSect@1@PEBD@Z
$pdata$?line_count@CInifile@@QEAAIAEBVshared_str@@@Z DD imagerel $LN57
	DD	imagerel $LN57+73
	DD	imagerel $unwind$?line_count@CInifile@@QEAAIAEBVshared_str@@@Z
$pdata$?line_count@CInifile@@QEAAIPEBD@Z DD imagerel $LN51
	DD	imagerel $LN51+66
	DD	imagerel $unwind$?line_count@CInifile@@QEAAIPEBD@Z
$pdata$?line_exist@CInifile@@QEAAHPEBD0@Z DD imagerel $LN126
	DD	imagerel $LN126+45
	DD	imagerel $unwind$?line_exist@CInifile@@QEAAHPEBD0@Z
$pdata$1$?line_exist@CInifile@@QEAAHPEBD0@Z DD imagerel $LN126+45
	DD	imagerel $LN126+82
	DD	imagerel $chain$1$?line_exist@CInifile@@QEAAHPEBD0@Z
$pdata$2$?line_exist@CInifile@@QEAAHPEBD0@Z DD imagerel $LN126+82
	DD	imagerel $LN126+247
	DD	imagerel $chain$2$?line_exist@CInifile@@QEAAHPEBD0@Z
$pdata$3$?line_exist@CInifile@@QEAAHPEBD0@Z DD imagerel $LN126+247
	DD	imagerel $LN126+261
	DD	imagerel $chain$3$?line_exist@CInifile@@QEAAHPEBD0@Z
$pdata$4$?line_exist@CInifile@@QEAAHPEBD0@Z DD imagerel $LN126+261
	DD	imagerel $LN126+332
	DD	imagerel $chain$4$?line_exist@CInifile@@QEAAHPEBD0@Z
$pdata$?section_exist@CInifile@@QEAAHPEBD@Z DD imagerel $LN95
	DD	imagerel $LN95+6
	DD	imagerel $unwind$?section_exist@CInifile@@QEAAHPEBD@Z
$pdata$0$?section_exist@CInifile@@QEAAHPEBD@Z DD imagerel $LN95+6
	DD	imagerel $LN95+33
	DD	imagerel $chain$0$?section_exist@CInifile@@QEAAHPEBD@Z
$pdata$1$?section_exist@CInifile@@QEAAHPEBD@Z DD imagerel $LN95+33
	DD	imagerel $LN95+148
	DD	imagerel $chain$1$?section_exist@CInifile@@QEAAHPEBD@Z
$pdata$2$?section_exist@CInifile@@QEAAHPEBD@Z DD imagerel $LN95+148
	DD	imagerel $LN95+158
	DD	imagerel $chain$2$?section_exist@CInifile@@QEAAHPEBD@Z
$pdata$3$?section_exist@CInifile@@QEAAHPEBD@Z DD imagerel $LN95+158
	DD	imagerel $LN95+210
	DD	imagerel $chain$3$?section_exist@CInifile@@QEAAHPEBD@Z
$pdata$?save_as@CInifile@@QEAA_NPEBD@Z DD imagerel $LN196
	DD	imagerel $LN196+1007
	DD	imagerel $unwind$?save_as@CInifile@@QEAA_NPEBD@Z
$pdata$?Load@CInifile@@AEAAXPEAVIReader@@PEBD@Z DD imagerel $LN871
	DD	imagerel $LN871+166
	DD	imagerel $unwind$?Load@CInifile@@AEAAXPEAVIReader@@PEBD@Z
$pdata$0$?Load@CInifile@@AEAAXPEAVIReader@@PEBD@Z DD imagerel $LN871+166
	DD	imagerel $LN871+3508
	DD	imagerel $chain$0$?Load@CInifile@@AEAAXPEAVIReader@@PEBD@Z
$pdata$1$?Load@CInifile@@AEAAXPEAVIReader@@PEBD@Z DD imagerel $LN871+3508
	DD	imagerel $LN871+3519
	DD	imagerel $chain$1$?Load@CInifile@@AEAAXPEAVIReader@@PEBD@Z
$pdata$?insert_item@@YAXPEAUSect@CInifile@@AEBUItem@2@@Z DD imagerel ?insert_item@@YAXPEAUSect@CInifile@@AEBUItem@2@@Z
	DD	imagerel ?insert_item@@YAXPEAUSect@CInifile@@AEBUItem@2@@Z+13
	DD	imagerel $unwind$?insert_item@@YAXPEAUSect@CInifile@@AEBUItem@2@@Z
$pdata$2$?insert_item@@YAXPEAUSect@CInifile@@AEBUItem@2@@Z DD imagerel ?insert_item@@YAXPEAUSect@CInifile@@AEBUItem@2@@Z+13
	DD	imagerel ?insert_item@@YAXPEAUSect@CInifile@@AEBUItem@2@@Z+76
	DD	imagerel $chain$2$?insert_item@@YAXPEAUSect@CInifile@@AEBUItem@2@@Z
$pdata$4$?insert_item@@YAXPEAUSect@CInifile@@AEBUItem@2@@Z DD imagerel ?insert_item@@YAXPEAUSect@CInifile@@AEBUItem@2@@Z+76
	DD	imagerel ?insert_item@@YAXPEAUSect@CInifile@@AEBUItem@2@@Z+252
	DD	imagerel $chain$4$?insert_item@@YAXPEAUSect@CInifile@@AEBUItem@2@@Z
$pdata$5$?insert_item@@YAXPEAUSect@CInifile@@AEBUItem@2@@Z DD imagerel ?insert_item@@YAXPEAUSect@CInifile@@AEBUItem@2@@Z+252
	DD	imagerel ?insert_item@@YAXPEAUSect@CInifile@@AEBUItem@2@@Z+273
	DD	imagerel $chain$5$?insert_item@@YAXPEAUSect@CInifile@@AEBUItem@2@@Z
$pdata$6$?insert_item@@YAXPEAUSect@CInifile@@AEBUItem@2@@Z DD imagerel ?insert_item@@YAXPEAUSect@CInifile@@AEBUItem@2@@Z+273
	DD	imagerel ?insert_item@@YAXPEAUSect@CInifile@@AEBUItem@2@@Z+365
	DD	imagerel $chain$6$?insert_item@@YAXPEAUSect@CInifile@@AEBUItem@2@@Z
$pdata$??0CInifile@@QEAA@PEBDHHH@Z DD imagerel $LN70
	DD	imagerel $LN70+25
	DD	imagerel $unwind$??0CInifile@@QEAA@PEBDHHH@Z
$pdata$1$??0CInifile@@QEAA@PEBDHHH@Z DD imagerel $LN70+25
	DD	imagerel $LN70+172
	DD	imagerel $chain$1$??0CInifile@@QEAA@PEBDHHH@Z
$pdata$2$??0CInifile@@QEAA@PEBDHHH@Z DD imagerel $LN70+172
	DD	imagerel $LN70+460
	DD	imagerel $chain$2$??0CInifile@@QEAA@PEBDHHH@Z
$pdata$??0CInifile@@QEAA@PEAVIReader@@PEBD@Z DD imagerel $LN14
	DD	imagerel $LN14+59
	DD	imagerel $unwind$??0CInifile@@QEAA@PEAVIReader@@PEBD@Z
$pdata$?line_exist@Sect@CInifile@@QEAAHPEBDPEAPEBD@Z DD imagerel $LN137
	DD	imagerel $LN137+14
	DD	imagerel $unwind$?line_exist@Sect@CInifile@@QEAAHPEBDPEAPEBD@Z
$pdata$1$?line_exist@Sect@CInifile@@QEAAHPEBDPEAPEBD@Z DD imagerel $LN137+14
	DD	imagerel $LN137+53
	DD	imagerel $chain$1$?line_exist@Sect@CInifile@@QEAAHPEBDPEAPEBD@Z
$pdata$3$?line_exist@Sect@CInifile@@QEAAHPEBDPEAPEBD@Z DD imagerel $LN137+53
	DD	imagerel $LN137+220
	DD	imagerel $chain$3$?line_exist@Sect@CInifile@@QEAAHPEBDPEAPEBD@Z
$pdata$4$?line_exist@Sect@CInifile@@QEAAHPEBDPEAPEBD@Z DD imagerel $LN137+220
	DD	imagerel $LN137+236
	DD	imagerel $chain$4$?line_exist@Sect@CInifile@@QEAAHPEBDPEAPEBD@Z
$pdata$5$?line_exist@Sect@CInifile@@QEAAHPEBDPEAPEBD@Z DD imagerel $LN137+236
	DD	imagerel $LN137+330
	DD	imagerel $chain$5$?line_exist@Sect@CInifile@@QEAAHPEBDPEAPEBD@Z
$pdata$?_parse@@YAXPEADPEBD@Z DD imagerel $LN32
	DD	imagerel $LN32+28
	DD	imagerel $unwind$?_parse@@YAXPEADPEBD@Z
$pdata$0$?_parse@@YAXPEADPEBD@Z DD imagerel $LN32+28
	DD	imagerel $LN32+109
	DD	imagerel $chain$0$?_parse@@YAXPEADPEBD@Z
$pdata$2$?_parse@@YAXPEADPEBD@Z DD imagerel $LN32+109
	DD	imagerel $LN32+160
	DD	imagerel $chain$2$?_parse@@YAXPEADPEBD@Z
$pdata$4$?_parse@@YAXPEADPEBD@Z DD imagerel $LN32+160
	DD	imagerel $LN32+179
	DD	imagerel $chain$4$?_parse@@YAXPEADPEBD@Z
$pdata$5$?_parse@@YAXPEADPEBD@Z DD imagerel $LN32+179
	DD	imagerel $LN32+193
	DD	imagerel $chain$5$?_parse@@YAXPEADPEBD@Z
$pdata$?item_pred@@YA_NAEBUItem@CInifile@@PEBD@Z DD imagerel $LN38
	DD	imagerel $LN38+105
	DD	imagerel $unwind$?item_pred@@YA_NAEBUItem@CInifile@@PEBD@Z
$pdata$?Destroy@CInifile@@SAXPEAV1@@Z DD imagerel $LN4
	DD	imagerel $LN4+24
	DD	imagerel $unwind$?Destroy@CInifile@@SAXPEAV1@@Z
$pdata$?Create@CInifile@@SAPEAV1@PEBDH@Z DD imagerel $LN10
	DD	imagerel $LN10+87
	DD	imagerel $unwind$?Create@CInifile@@SAPEAV1@PEBDH@Z
$pdata$?r_bool@CInifile@@QEAAHPEBD0@Z DD imagerel $LN24
	DD	imagerel $LN24+213
	DD	imagerel $unwind$?r_bool@CInifile@@QEAAHPEBD0@Z
$pdata$?r_fvector4@CInifile@@QEAA?AU?$_vector4@M@@PEBD0@Z DD imagerel $LN4
	DD	imagerel $LN4+85
	DD	imagerel $unwind$?r_fvector4@CInifile@@QEAA?AU?$_vector4@M@@PEBD0@Z
$pdata$?r_fvector3@CInifile@@QEAA?AU?$_vector3@M@@PEBD0@Z DD imagerel $LN4
	DD	imagerel $LN4+73
	DD	imagerel $unwind$?r_fvector3@CInifile@@QEAA?AU?$_vector3@M@@PEBD0@Z
$pdata$?r_fvector2@CInifile@@QEAA?AU?$_vector2@M@@PEBD0@Z DD imagerel $LN4
	DD	imagerel $LN4+62
	DD	imagerel $unwind$?r_fvector2@CInifile@@QEAA?AU?$_vector2@M@@PEBD0@Z
$pdata$?r_ivector4@CInifile@@QEAA?AU?$_vector4@H@@PEBD0@Z DD imagerel $LN4
	DD	imagerel $LN4+85
	DD	imagerel $unwind$?r_ivector4@CInifile@@QEAA?AU?$_vector4@H@@PEBD0@Z
$pdata$?r_ivector3@CInifile@@QEAA?AU?$_vector3@H@@PEBD0@Z DD imagerel $LN4
	DD	imagerel $LN4+73
	DD	imagerel $unwind$?r_ivector3@CInifile@@QEAA?AU?$_vector3@H@@PEBD0@Z
$pdata$?r_ivector2@CInifile@@QEAA?AU?$_vector2@H@@PEBD0@Z DD imagerel $LN4
	DD	imagerel $LN4+62
	DD	imagerel $unwind$?r_ivector2@CInifile@@QEAA?AU?$_vector2@H@@PEBD0@Z
$pdata$?r_color@CInifile@@QEAAIPEBD0@Z DD imagerel $LN8
	DD	imagerel $LN8+116
	DD	imagerel $unwind$?r_color@CInifile@@QEAAIPEBD0@Z
$pdata$?r_fcolor@CInifile@@QEAA?AU?$_color@M@@PEBD0@Z DD imagerel $LN4
	DD	imagerel $LN4+85
	DD	imagerel $unwind$?r_fcolor@CInifile@@QEAA?AU?$_color@M@@PEBD0@Z
$pdata$?r_float@CInifile@@QEAAMPEBD0@Z DD imagerel $LN4
	DD	imagerel $LN4+27
	DD	imagerel $unwind$?r_float@CInifile@@QEAAMPEBD0@Z
$pdata$?r_s32@CInifile@@QEAAHPEBD0@Z DD imagerel $LN4
	DD	imagerel $LN4+23
	DD	imagerel $unwind$?r_s32@CInifile@@QEAAHPEBD0@Z
$pdata$?r_s16@CInifile@@QEAAFPEBD0@Z DD imagerel $LN4
	DD	imagerel $LN4+23
	DD	imagerel $unwind$?r_s16@CInifile@@QEAAFPEBD0@Z
$pdata$?r_s8@CInifile@@QEAACPEBD0@Z DD imagerel $LN4
	DD	imagerel $LN4+23
	DD	imagerel $unwind$?r_s8@CInifile@@QEAACPEBD0@Z
$pdata$?r_u32@CInifile@@QEAAIPEBD0@Z DD imagerel $LN4
	DD	imagerel $LN4+23
	DD	imagerel $unwind$?r_u32@CInifile@@QEAAIPEBD0@Z
$pdata$?r_u16@CInifile@@QEAAGPEBD0@Z DD imagerel $LN4
	DD	imagerel $LN4+23
	DD	imagerel $unwind$?r_u16@CInifile@@QEAAGPEBD0@Z
$pdata$?r_u8@CInifile@@QEAAEPEBD0@Z DD imagerel $LN4
	DD	imagerel $LN4+23
	DD	imagerel $unwind$?r_u8@CInifile@@QEAAEPEBD0@Z
$pdata$?r_string_wb@CInifile@@QEAA?AVshared_str@@PEBD0@Z DD imagerel $LN47
	DD	imagerel $LN47+197
	DD	imagerel $unwind$?r_string_wb@CInifile@@QEAA?AVshared_str@@PEBD0@Z
$pdata$?r_string@CInifile@@QEAAPEBDPEBD0@Z DD imagerel $LN137
	DD	imagerel $LN137+12
	DD	imagerel $unwind$?r_string@CInifile@@QEAAPEBDPEBD0@Z
$pdata$1$?r_string@CInifile@@QEAAPEBDPEBD0@Z DD imagerel $LN137+12
	DD	imagerel $LN137+63
	DD	imagerel $chain$1$?r_string@CInifile@@QEAAPEBDPEBD0@Z
$pdata$3$?r_string@CInifile@@QEAAPEBDPEBD0@Z DD imagerel $LN137+63
	DD	imagerel $LN137+239
	DD	imagerel $chain$3$?r_string@CInifile@@QEAAPEBDPEBD0@Z
$pdata$4$?r_string@CInifile@@QEAAPEBDPEBD0@Z DD imagerel $LN137+239
	DD	imagerel $LN137+255
	DD	imagerel $chain$4$?r_string@CInifile@@QEAAPEBDPEBD0@Z
$pdata$5$?r_string@CInifile@@QEAAPEBDPEBD0@Z DD imagerel $LN137+255
	DD	imagerel $LN137+416
	DD	imagerel $chain$5$?r_string@CInifile@@QEAAPEBDPEBD0@Z
$pdata$?r_clsid@CInifile@@QEAA_KPEBD0@Z DD imagerel $LN4
	DD	imagerel $LN4+21
	DD	imagerel $unwind$?r_clsid@CInifile@@QEAA_KPEBD0@Z
$pdata$??1CInifile@@UEAA@XZ DD imagerel $LN349
	DD	imagerel $LN349+236
	DD	imagerel $unwind$??1CInifile@@UEAA@XZ
xdata	SEGMENT
$unwind$?remove_line@CInifile@@QEAAXPEBD0@Z DD 050901H
	DD	07005a209H
	DD	050036004H
	DD	03002H
$chain$2$?remove_line@CInifile@@QEAAXPEBD0@Z DD 061b21H
	DD	0af41bH
	DD	011e416H
	DD	010c408H
	DD	imagerel $LN139
	DD	imagerel $LN139+137
	DD	imagerel $unwind$?remove_line@CInifile@@QEAAXPEBD0@Z
$chain$3$?remove_line@CInifile@@QEAAXPEBD0@Z DD 021H
	DD	imagerel $LN139
	DD	imagerel $LN139+137
	DD	imagerel $unwind$?remove_line@CInifile@@QEAAXPEBD0@Z
$unwind$?w_fvector4@CInifile@@QEAAXPEBD0AEBU?$_vector4@M@@0@Z DD 071201H
	DD	01b6412H
	DD	01a3412H
	DD	0180112H
	DD	0700bH
$unwind$?w_fvector3@CInifile@@QEAAXPEBD0AEBU?$_vector3@M@@0@Z DD 071201H
	DD	0196412H
	DD	0183412H
	DD	0160112H
	DD	0700bH
$unwind$?w_fvector2@CInifile@@QEAAXPEBD0AEBU?$_vector2@M@@0@Z DD 071201H
	DD	0196412H
	DD	0183412H
	DD	0160112H
	DD	0700bH
$unwind$?w_ivector4@CInifile@@QEAAXPEBD0AEBU?$_vector4@H@@0@Z DD 071201H
	DD	01b6412H
	DD	01a3412H
	DD	0180112H
	DD	0700bH
$unwind$?w_ivector3@CInifile@@QEAAXPEBD0AEBU?$_vector3@H@@0@Z DD 071201H
	DD	0196412H
	DD	0183412H
	DD	0160112H
	DD	0700bH
$unwind$?w_ivector2@CInifile@@QEAAXPEBD0AEBU?$_vector2@H@@0@Z DD 071201H
	DD	0196412H
	DD	0183412H
	DD	0160112H
	DD	0700bH
$unwind$?w_color@CInifile@@QEAAXPEBD0I0@Z DD 091701H
	DD	01c6417H
	DD	01b5417H
	DD	01a3417H
	DD	0180117H
	DD	07010H
$unwind$?w_fcolor@CInifile@@QEAAXPEBD0AEBU?$_color@M@@0@Z DD 071201H
	DD	01b6412H
	DD	01a3412H
	DD	0180112H
	DD	0700bH
$unwind$?w_float@CInifile@@QEAAXPEBD0M0@Z DD 071201H
	DD	0196412H
	DD	0183412H
	DD	0160112H
	DD	0700bH
$unwind$?w_s32@CInifile@@QEAAXPEBD0H0@Z DD 071201H
	DD	0196412H
	DD	0183412H
	DD	0160112H
	DD	0700bH
$unwind$?w_s16@CInifile@@QEAAXPEBD0F0@Z DD 071201H
	DD	0196412H
	DD	0183412H
	DD	0160112H
	DD	0700bH
$unwind$?w_s8@CInifile@@QEAAXPEBD0C0@Z DD 071201H
	DD	0196412H
	DD	0183412H
	DD	0160112H
	DD	0700bH
$unwind$?w_u32@CInifile@@QEAAXPEBD0I0@Z DD 071201H
	DD	0196412H
	DD	0183412H
	DD	0160112H
	DD	0700bH
$unwind$?w_u16@CInifile@@QEAAXPEBD0G0@Z DD 071201H
	DD	0196412H
	DD	0183412H
	DD	0160112H
	DD	0700bH
$unwind$?w_u8@CInifile@@QEAAXPEBD0E0@Z DD 071201H
	DD	0196412H
	DD	0183412H
	DD	0160112H
	DD	0700bH
$unwind$?w_string@CInifile@@QEAAXPEBD000@Z DD 030b01H
	DD	072010bH
	DD	06004H
$chain$5$?w_string@CInifile@@QEAAXPEBD000@Z DD 0c1821H
	DD	06ef418H
	DD	06fe414H
	DD	070d410H
	DD	076740cH
	DD	0755408H
	DD	0743404H
	DD	imagerel $LN318
	DD	imagerel $LN318+11
	DD	imagerel $unwind$?w_string@CInifile@@QEAAXPEBD000@Z
$chain$6$?w_string@CInifile@@QEAAXPEBD000@Z DD 020821H
	DD	071c408H
	DD	imagerel $LN318+11
	DD	imagerel $LN318+641
	DD	imagerel $chain$5$?w_string@CInifile@@QEAAXPEBD000@Z
$chain$7$?w_string@CInifile@@QEAAXPEBD000@Z DD 060021H
	DD	06ef400H
	DD	0767400H
	DD	0755400H
	DD	imagerel $LN318
	DD	imagerel $LN318+11
	DD	imagerel $unwind$?w_string@CInifile@@QEAAXPEBD000@Z
$chain$8$?w_string@CInifile@@QEAAXPEBD000@Z DD 020021H
	DD	0755400H
	DD	imagerel $LN318
	DD	imagerel $LN318+11
	DD	imagerel $unwind$?w_string@CInifile@@QEAAXPEBD000@Z
$chain$9$?w_string@CInifile@@QEAAXPEBD000@Z DD 021H
	DD	imagerel $LN318
	DD	imagerel $LN318+11
	DD	imagerel $unwind$?w_string@CInifile@@QEAAXPEBD000@Z
$unwind$?r_line@CInifile@@QEAAHAEBVshared_str@@HPEAPEBD1@Z DD 060f01H
	DD	07640fH
	DD	06340fH
	DD	0700b320fH
$unwind$?r_line@CInifile@@QEAAHPEBDHPEAPEBD1@Z DD 040a01H
	DD	06340aH
	DD	07006320aH
$unwind$?r_token@CInifile@@QEAAHPEBD0PEBUxr_token@@@Z DD 081401H
	DD	086414H
	DD	075414H
	DD	063414H
	DD	070103214H
$unwind$?r_section@CInifile@@QEAAAEAUSect@1@PEBD@Z DD 091701H
	DD	02a6417H
	DD	0295417H
	DD	0283417H
	DD	0260117H
	DD	07010H
$unwind$?line_count@CInifile@@QEAAIAEBVshared_str@@@Z DD 020601H
	DD	030023206H
$unwind$?line_count@CInifile@@QEAAIPEBD@Z DD 010401H
	DD	04204H
$unwind$?line_exist@CInifile@@QEAAHPEBD0@Z DD 062d01H
	DD	09e42dH
	DD	070043208H
	DD	030026003H
$chain$1$?line_exist@CInifile@@QEAAHPEBD0@Z DD 020521H
	DD	0af405H
	DD	imagerel $LN126
	DD	imagerel $LN126+45
	DD	imagerel $unwind$?line_exist@CInifile@@QEAAHPEBD0@Z
$chain$2$?line_exist@CInifile@@QEAAHPEBD0@Z DD 020521H
	DD	085405H
	DD	imagerel $LN126+45
	DD	imagerel $LN126+82
	DD	imagerel $chain$1$?line_exist@CInifile@@QEAAHPEBD0@Z
$chain$3$?line_exist@CInifile@@QEAAHPEBD0@Z DD 021H
	DD	imagerel $LN126+45
	DD	imagerel $LN126+82
	DD	imagerel $chain$1$?line_exist@CInifile@@QEAAHPEBD0@Z
$chain$4$?line_exist@CInifile@@QEAAHPEBD0@Z DD 021H
	DD	imagerel $LN126
	DD	imagerel $LN126+45
	DD	imagerel $unwind$?line_exist@CInifile@@QEAAHPEBD0@Z
$unwind$?section_exist@CInifile@@QEAAHPEBD@Z DD 010201H
	DD	03002H
$chain$0$?section_exist@CInifile@@QEAAHPEBD@Z DD 020521H
	DD	026405H
	DD	imagerel $LN95
	DD	imagerel $LN95+6
	DD	imagerel $unwind$?section_exist@CInifile@@QEAAHPEBD@Z
$chain$1$?section_exist@CInifile@@QEAAHPEBD@Z DD 020521H
	DD	037405H
	DD	imagerel $LN95+6
	DD	imagerel $LN95+33
	DD	imagerel $chain$0$?section_exist@CInifile@@QEAAHPEBD@Z
$chain$2$?section_exist@CInifile@@QEAAHPEBD@Z DD 021H
	DD	imagerel $LN95+6
	DD	imagerel $LN95+33
	DD	imagerel $chain$0$?section_exist@CInifile@@QEAAHPEBD@Z
$chain$3$?section_exist@CInifile@@QEAAHPEBD@Z DD 021H
	DD	imagerel $LN95
	DD	imagerel $LN95+6
	DD	imagerel $unwind$?section_exist@CInifile@@QEAAHPEBD@Z
$unwind$?save_as@CInifile@@QEAA_NPEBD@Z DD 091d01H
	DD	093641dH
	DD	092341dH
	DD	08c011dH
	DD	0700ce00eH
	DD	0500bH
$unwind$?Load@CInifile@@AEAAXPEAVIReader@@PEBD@Z DD 052701H
	DD	04e60127H
	DD	030116012H
	DD	05010H
$chain$0$?Load@CInifile@@AEAAXPEAVIReader@@PEBD@Z DD 020821H
	DD	04e57408H
	DD	imagerel $LN871
	DD	imagerel $LN871+166
	DD	imagerel $unwind$?Load@CInifile@@AEAAXPEAVIReader@@PEBD@Z
$chain$1$?Load@CInifile@@AEAAXPEAVIReader@@PEBD@Z DD 021H
	DD	imagerel $LN871
	DD	imagerel $LN871+166
	DD	imagerel $unwind$?Load@CInifile@@AEAAXPEAVIReader@@PEBD@Z
$unwind$?insert_item@@YAXPEAUSect@CInifile@@AEBUItem@2@@Z DD 040a01H
	DD	0f006720aH
	DD	07002c004H
$chain$2$?insert_item@@YAXPEAUSect@CInifile@@AEBUItem@2@@Z DD 060f21H
	DD	06e40fH
	DD	07d40aH
	DD	0d3405H
	DD	imagerel ?insert_item@@YAXPEAUSect@CInifile@@AEBUItem@2@@Z
	DD	imagerel ?insert_item@@YAXPEAUSect@CInifile@@AEBUItem@2@@Z+13
	DD	imagerel $unwind$?insert_item@@YAXPEAUSect@CInifile@@AEBUItem@2@@Z
$chain$4$?insert_item@@YAXPEAUSect@CInifile@@AEBUItem@2@@Z DD 040a21H
	DD	0f640aH
	DD	0e5405H
	DD	imagerel ?insert_item@@YAXPEAUSect@CInifile@@AEBUItem@2@@Z+13
	DD	imagerel ?insert_item@@YAXPEAUSect@CInifile@@AEBUItem@2@@Z+76
	DD	imagerel $chain$2$?insert_item@@YAXPEAUSect@CInifile@@AEBUItem@2@@Z
$chain$5$?insert_item@@YAXPEAUSect@CInifile@@AEBUItem@2@@Z DD 021H
	DD	imagerel ?insert_item@@YAXPEAUSect@CInifile@@AEBUItem@2@@Z+13
	DD	imagerel ?insert_item@@YAXPEAUSect@CInifile@@AEBUItem@2@@Z+76
	DD	imagerel $chain$2$?insert_item@@YAXPEAUSect@CInifile@@AEBUItem@2@@Z
$chain$6$?insert_item@@YAXPEAUSect@CInifile@@AEBUItem@2@@Z DD 021H
	DD	imagerel ?insert_item@@YAXPEAUSect@CInifile@@AEBUItem@2@@Z
	DD	imagerel ?insert_item@@YAXPEAUSect@CInifile@@AEBUItem@2@@Z+13
	DD	imagerel $unwind$?insert_item@@YAXPEAUSect@CInifile@@AEBUItem@2@@Z
$unwind$??0CInifile@@QEAA@PEBDHHH@Z DD 091601H
	DD	0915416H
	DD	0903416H
	DD	08a0116H
	DD	0700dc00fH
	DD	0600cH
$chain$1$??0CInifile@@QEAA@PEBDHHH@Z DD 040821H
	DD	08ff408H
	DD	08ee404H
	DD	imagerel $LN70
	DD	imagerel $LN70+25
	DD	imagerel $unwind$??0CInifile@@QEAA@PEBDHHH@Z
$chain$2$??0CInifile@@QEAA@PEBDHHH@Z DD 021H
	DD	imagerel $LN70
	DD	imagerel $LN70+25
	DD	imagerel $unwind$??0CInifile@@QEAA@PEBDHHH@Z
$unwind$??0CInifile@@QEAA@PEAVIReader@@PEBD@Z DD 020601H
	DD	030023206H
$unwind$?line_exist@Sect@CInifile@@QEAAHPEBDPEAPEBD@Z DD 040a01H
	DD	0e006320aH
	DD	06002c004H
$chain$1$?line_exist@Sect@CInifile@@QEAAHPEBDPEAPEBD@Z DD 041121H
	DD	0bf411H
	DD	083405H
	DD	imagerel $LN137
	DD	imagerel $LN137+14
	DD	imagerel $unwind$?line_exist@Sect@CInifile@@QEAAHPEBDPEAPEBD@Z
$chain$3$?line_exist@Sect@CInifile@@QEAAHPEBDPEAPEBD@Z DD 040a21H
	DD	0a740aH
	DD	095405H
	DD	imagerel $LN137+14
	DD	imagerel $LN137+53
	DD	imagerel $chain$1$?line_exist@Sect@CInifile@@QEAAHPEBDPEAPEBD@Z
$chain$4$?line_exist@Sect@CInifile@@QEAAHPEBDPEAPEBD@Z DD 021H
	DD	imagerel $LN137+14
	DD	imagerel $LN137+53
	DD	imagerel $chain$1$?line_exist@Sect@CInifile@@QEAAHPEBDPEAPEBD@Z
$chain$5$?line_exist@Sect@CInifile@@QEAAHPEBDPEAPEBD@Z DD 021H
	DD	imagerel $LN137
	DD	imagerel $LN137+14
	DD	imagerel $unwind$?line_exist@Sect@CInifile@@QEAAHPEBDPEAPEBD@Z
$unwind$?_parse@@YAXPEADPEBD@Z DD 040a01H
	DD	07340aH
	DD	07006320aH
$chain$0$?_parse@@YAXPEADPEBD@Z DD 020521H
	DD	066405H
	DD	imagerel $LN32
	DD	imagerel $LN32+28
	DD	imagerel $unwind$?_parse@@YAXPEADPEBD@Z
$chain$2$?_parse@@YAXPEADPEBD@Z DD 020021H
	DD	066400H
	DD	imagerel $LN32
	DD	imagerel $LN32+28
	DD	imagerel $unwind$?_parse@@YAXPEADPEBD@Z
$chain$4$?_parse@@YAXPEADPEBD@Z DD 020021H
	DD	066400H
	DD	imagerel $LN32
	DD	imagerel $LN32+28
	DD	imagerel $unwind$?_parse@@YAXPEADPEBD@Z
$chain$5$?_parse@@YAXPEADPEBD@Z DD 021H
	DD	imagerel $LN32
	DD	imagerel $LN32+28
	DD	imagerel $unwind$?_parse@@YAXPEADPEBD@Z
$unwind$?item_pred@@YA_NAEBUItem@CInifile@@PEBD@Z DD 020601H
	DD	030023206H
$unwind$?Destroy@CInifile@@SAXPEAV1@@Z DD 010901H
	DD	04209H
$unwind$?Create@CInifile@@SAPEAV1@PEBDH@Z DD 040a01H
	DD	08340aH
	DD	07006520aH
$unwind$?r_bool@CInifile@@QEAAHPEBD0@Z DD 010401H
	DD	04204H
$unwind$?r_fvector4@CInifile@@QEAA?AU?$_vector4@M@@PEBD0@Z DD 020601H
	DD	030025206H
$unwind$?r_fvector3@CInifile@@QEAA?AU?$_vector3@M@@PEBD0@Z DD 020601H
	DD	030025206H
$unwind$?r_fvector2@CInifile@@QEAA?AU?$_vector2@M@@PEBD0@Z DD 020601H
	DD	030023206H
$unwind$?r_ivector4@CInifile@@QEAA?AU?$_vector4@H@@PEBD0@Z DD 020601H
	DD	030025206H
$unwind$?r_ivector3@CInifile@@QEAA?AU?$_vector3@H@@PEBD0@Z DD 020601H
	DD	030025206H
$unwind$?r_ivector2@CInifile@@QEAA?AU?$_vector2@H@@PEBD0@Z DD 020601H
	DD	030023206H
$unwind$?r_color@CInifile@@QEAAIPEBD0@Z DD 010401H
	DD	08204H
$unwind$?r_fcolor@CInifile@@QEAA?AU?$_color@M@@PEBD0@Z DD 020601H
	DD	030025206H
$unwind$?r_float@CInifile@@QEAAMPEBD0@Z DD 010401H
	DD	04204H
$unwind$?r_s32@CInifile@@QEAAHPEBD0@Z DD 010401H
	DD	04204H
$unwind$?r_s16@CInifile@@QEAAFPEBD0@Z DD 010401H
	DD	04204H
$unwind$?r_s8@CInifile@@QEAACPEBD0@Z DD 010401H
	DD	04204H
$unwind$?r_u32@CInifile@@QEAAIPEBD0@Z DD 010401H
	DD	04204H
$unwind$?r_u16@CInifile@@QEAAGPEBD0@Z DD 010401H
	DD	04204H
$unwind$?r_u8@CInifile@@QEAAEPEBD0@Z DD 010401H
	DD	04204H
$unwind$?r_string_wb@CInifile@@QEAA?AVshared_str@@PEBD0@Z DD 050d01H
	DD	046340dH
	DD	044010dH
	DD	07006H
$unwind$?r_string@CInifile@@QEAAPEBDPEBD0@Z DD 050c01H
	DD	0e008820cH
	DD	0c004d006H
	DD	05002H
$chain$1$?r_string@CInifile@@QEAAPEBDPEBD0@Z DD 041021H
	DD	08f410H
	DD	0e3405H
	DD	imagerel $LN137
	DD	imagerel $LN137+12
	DD	imagerel $unwind$?r_string@CInifile@@QEAAPEBDPEBD0@Z
$chain$3$?r_string@CInifile@@QEAAPEBDPEBD0@Z DD 040d21H
	DD	010740dH
	DD	0f6405H
	DD	imagerel $LN137+12
	DD	imagerel $LN137+63
	DD	imagerel $chain$1$?r_string@CInifile@@QEAAPEBDPEBD0@Z
$chain$4$?r_string@CInifile@@QEAAPEBDPEBD0@Z DD 021H
	DD	imagerel $LN137+12
	DD	imagerel $LN137+63
	DD	imagerel $chain$1$?r_string@CInifile@@QEAAPEBDPEBD0@Z
$chain$5$?r_string@CInifile@@QEAAPEBDPEBD0@Z DD 021H
	DD	imagerel $LN137
	DD	imagerel $LN137+12
	DD	imagerel $unwind$?r_string@CInifile@@QEAAPEBDPEBD0@Z
$unwind$?r_clsid@CInifile@@QEAA_KPEBD0@Z DD 010401H
	DD	04204H
$unwind$??1CInifile@@UEAA@XZ DD 060f01H
	DD	07640fH
	DD	06340fH
	DD	0700b320fH
xdata	ENDS
;	COMDAT xdata
xdata	SEGMENT
$unwind$?insert@?$vector@UItem@CInifile@@V?$xalloc@UItem@CInifile@@@@@std@@QEAA?AV?$_Vector_iterator@V?$_Vector_val@U?$_Simple_types@UItem@CInifile@@@std@@@std@@@2@V?$_Vector_const_iterator@V?$_Vector_val@U?$_Simple_types@UItem@CInifile@@@std@@@std@@@2@AEBUItem@CInifile@@@Z DD 020601H
	DD	030025206H
xdata	ENDS
;	COMDAT xdata
xdata	SEGMENT
$unwind$?erase@?$vector@UItem@CInifile@@V?$xalloc@UItem@CInifile@@@@@std@@QEAA?AV?$_Vector_iterator@V?$_Vector_val@U?$_Simple_types@UItem@CInifile@@@std@@@std@@@2@V?$_Vector_const_iterator@V?$_Vector_val@U?$_Simple_types@UItem@CInifile@@@std@@@std@@@2@@Z DD 061e01H
	DD	04740fH
	DD	02640aH
	DD	013405H
xdata	ENDS
;	COMDAT xdata
xdata	SEGMENT
$unwind$?insert@?$vector@PEAUSect@CInifile@@V?$xalloc@PEAUSect@CInifile@@@@@std@@QEAA?AV?$_Vector_iterator@V?$_Vector_val@U?$_Simple_types@PEAUSect@CInifile@@@std@@@std@@@2@V?$_Vector_const_iterator@V?$_Vector_val@U?$_Simple_types@PEAUSect@CInifile@@@std@@@std@@@2@AEBQEAUSect@CInifile@@@Z DD 020601H
	DD	030025206H
xdata	ENDS
;	COMDAT xdata
xdata	SEGMENT
$unwind$?catch$1@?0??_Insert_n@?$vector@UItem@CInifile@@V?$xalloc@UItem@CInifile@@@@@std@@IEAA?AV?$_Vector_iterator@V?$_Vector_val@U?$_Simple_types@UItem@CInifile@@@std@@@std@@@2@V?$_Vector_const_iterator@V?$_Vector_val@U?$_Simple_types@UItem@CInifile@@@std@@@std@@@2@_KAEBUItem@CInifile@@@Z@4HA DD 020a19H
	DD	05006520aH
	DD	imagerel __CxxFrameHandler3
	DD	imagerel $cppxdata$?_Insert_n@?$vector@UItem@CInifile@@V?$xalloc@UItem@CInifile@@@@@std@@IEAA?AV?$_Vector_iterator@V?$_Vector_val@U?$_Simple_types@UItem@CInifile@@@std@@@std@@@2@V?$_Vector_const_iterator@V?$_Vector_val@U?$_Simple_types@UItem@CInifile@@@std@@@std@@@2@_KAEBUItem@CInifile@@@Z
xdata	ENDS
;	COMDAT xdata
xdata	SEGMENT
$unwind$?catch$0@?0??_Insert_n@?$vector@UItem@CInifile@@V?$xalloc@UItem@CInifile@@@@@std@@IEAA?AV?$_Vector_iterator@V?$_Vector_val@U?$_Simple_types@UItem@CInifile@@@std@@@std@@@2@V?$_Vector_const_iterator@V?$_Vector_val@U?$_Simple_types@UItem@CInifile@@@std@@@std@@@2@_KAEBUItem@CInifile@@@Z@4HA DD 050d19H
	DD	07009620dH
	DD	050076008H
	DD	03006H
	DD	imagerel __CxxFrameHandler3
	DD	imagerel $cppxdata$?_Insert_n@?$vector@UItem@CInifile@@V?$xalloc@UItem@CInifile@@@@@std@@IEAA?AV?$_Vector_iterator@V?$_Vector_val@U?$_Simple_types@UItem@CInifile@@@std@@@std@@@2@V?$_Vector_const_iterator@V?$_Vector_val@U?$_Simple_types@UItem@CInifile@@@std@@@std@@@2@_KAEBUItem@CInifile@@@Z
xdata	ENDS
;	COMDAT xdata
xdata	SEGMENT
$ip2state$?_Insert_n@?$vector@UItem@CInifile@@V?$xalloc@UItem@CInifile@@@@@std@@IEAA?AV?$_Vector_iterator@V?$_Vector_val@U?$_Simple_types@UItem@CInifile@@@std@@@std@@@2@V?$_Vector_const_iterator@V?$_Vector_val@U?$_Simple_types@UItem@CInifile@@@std@@@std@@@2@_KAEBUItem@CInifile@@@Z DD imagerel ?_Insert_n@?$vector@UItem@CInifile@@V?$xalloc@UItem@CInifile@@@@@std@@IEAA?AV?$_Vector_iterator@V?$_Vector_val@U?$_Simple_types@UItem@CInifile@@@std@@@std@@@2@V?$_Vector_const_iterator@V?$_Vector_val@U?$_Simple_types@UItem@CInifile@@@std@@@std@@@2@_KAEBUItem@CInifile@@@Z
	DD	0ffffffffH
	DD	imagerel ?_Insert_n@?$vector@UItem@CInifile@@V?$xalloc@UItem@CInifile@@@@@std@@IEAA?AV?$_Vector_iterator@V?$_Vector_val@U?$_Simple_types@UItem@CInifile@@@std@@@std@@@2@V?$_Vector_const_iterator@V?$_Vector_val@U?$_Simple_types@UItem@CInifile@@@std@@@std@@@2@_KAEBUItem@CInifile@@@Z+233
	DD	00H
	DD	imagerel ?_Insert_n@?$vector@UItem@CInifile@@V?$xalloc@UItem@CInifile@@@@@std@@IEAA?AV?$_Vector_iterator@V?$_Vector_val@U?$_Simple_types@UItem@CInifile@@@std@@@std@@@2@V?$_Vector_const_iterator@V?$_Vector_val@U?$_Simple_types@UItem@CInifile@@@std@@@std@@@2@_KAEBUItem@CInifile@@@Z+325
	DD	0ffffffffH
	DD	imagerel ?_Insert_n@?$vector@UItem@CInifile@@V?$xalloc@UItem@CInifile@@@@@std@@IEAA?AV?$_Vector_iterator@V?$_Vector_val@U?$_Simple_types@UItem@CInifile@@@std@@@std@@@2@V?$_Vector_const_iterator@V?$_Vector_val@U?$_Simple_types@UItem@CInifile@@@std@@@std@@@2@_KAEBUItem@CInifile@@@Z+504
	DD	02H
	DD	imagerel ?_Insert_n@?$vector@UItem@CInifile@@V?$xalloc@UItem@CInifile@@@@@std@@IEAA?AV?$_Vector_iterator@V?$_Vector_val@U?$_Simple_types@UItem@CInifile@@@std@@@std@@@2@V?$_Vector_const_iterator@V?$_Vector_val@U?$_Simple_types@UItem@CInifile@@@std@@@std@@@2@_KAEBUItem@CInifile@@@Z+546
	DD	0ffffffffH
	DD	imagerel ?catch$0@?0??_Insert_n@?$vector@UItem@CInifile@@V?$xalloc@UItem@CInifile@@@@@std@@IEAA?AV?$_Vector_iterator@V?$_Vector_val@U?$_Simple_types@UItem@CInifile@@@std@@@std@@@2@V?$_Vector_const_iterator@V?$_Vector_val@U?$_Simple_types@UItem@CInifile@@@std@@@std@@@2@_KAEBUItem@CInifile@@@Z@4HA
	DD	00H
	DD	imagerel ?catch$0@?0??_Insert_n@?$vector@UItem@CInifile@@V?$xalloc@UItem@CInifile@@@@@std@@IEAA?AV?$_Vector_iterator@V?$_Vector_val@U?$_Simple_types@UItem@CInifile@@@std@@@std@@@2@V?$_Vector_const_iterator@V?$_Vector_val@U?$_Simple_types@UItem@CInifile@@@std@@@std@@@2@_KAEBUItem@CInifile@@@Z@4HA+16
	DD	01H
	DD	imagerel ?catch$1@?0??_Insert_n@?$vector@UItem@CInifile@@V?$xalloc@UItem@CInifile@@@@@std@@IEAA?AV?$_Vector_iterator@V?$_Vector_val@U?$_Simple_types@UItem@CInifile@@@std@@@std@@@2@V?$_Vector_const_iterator@V?$_Vector_val@U?$_Simple_types@UItem@CInifile@@@std@@@std@@@2@_KAEBUItem@CInifile@@@Z@4HA
	DD	00H
	DD	imagerel ?catch$1@?0??_Insert_n@?$vector@UItem@CInifile@@V?$xalloc@UItem@CInifile@@@@@std@@IEAA?AV?$_Vector_iterator@V?$_Vector_val@U?$_Simple_types@UItem@CInifile@@@std@@@std@@@2@V?$_Vector_const_iterator@V?$_Vector_val@U?$_Simple_types@UItem@CInifile@@@std@@@std@@@2@_KAEBUItem@CInifile@@@Z@4HA+13
	DD	03H
xdata	ENDS
;	COMDAT xdata
xdata	SEGMENT
$handlerMap$1$?_Insert_n@?$vector@UItem@CInifile@@V?$xalloc@UItem@CInifile@@@@@std@@IEAA?AV?$_Vector_iterator@V?$_Vector_val@U?$_Simple_types@UItem@CInifile@@@std@@@std@@@2@V?$_Vector_const_iterator@V?$_Vector_val@U?$_Simple_types@UItem@CInifile@@@std@@@std@@@2@_KAEBUItem@CInifile@@@Z DD 00H
	DD	00H
	DD	00H
	DD	imagerel ?catch$1@?0??_Insert_n@?$vector@UItem@CInifile@@V?$xalloc@UItem@CInifile@@@@@std@@IEAA?AV?$_Vector_iterator@V?$_Vector_val@U?$_Simple_types@UItem@CInifile@@@std@@@std@@@2@V?$_Vector_const_iterator@V?$_Vector_val@U?$_Simple_types@UItem@CInifile@@@std@@@std@@@2@_KAEBUItem@CInifile@@@Z@4HA
	DD	048H
xdata	ENDS
;	COMDAT xdata
xdata	SEGMENT
$handlerMap$0$?_Insert_n@?$vector@UItem@CInifile@@V?$xalloc@UItem@CInifile@@@@@std@@IEAA?AV?$_Vector_iterator@V?$_Vector_val@U?$_Simple_types@UItem@CInifile@@@std@@@std@@@2@V?$_Vector_const_iterator@V?$_Vector_val@U?$_Simple_types@UItem@CInifile@@@std@@@std@@@2@_KAEBUItem@CInifile@@@Z DD 00H
	DD	00H
	DD	00H
	DD	imagerel ?catch$0@?0??_Insert_n@?$vector@UItem@CInifile@@V?$xalloc@UItem@CInifile@@@@@std@@IEAA?AV?$_Vector_iterator@V?$_Vector_val@U?$_Simple_types@UItem@CInifile@@@std@@@std@@@2@V?$_Vector_const_iterator@V?$_Vector_val@U?$_Simple_types@UItem@CInifile@@@std@@@std@@@2@_KAEBUItem@CInifile@@@Z@4HA
	DD	068H
xdata	ENDS
;	COMDAT xdata
xdata	SEGMENT
$tryMap$?_Insert_n@?$vector@UItem@CInifile@@V?$xalloc@UItem@CInifile@@@@@std@@IEAA?AV?$_Vector_iterator@V?$_Vector_val@U?$_Simple_types@UItem@CInifile@@@std@@@std@@@2@V?$_Vector_const_iterator@V?$_Vector_val@U?$_Simple_types@UItem@CInifile@@@std@@@std@@@2@_KAEBUItem@CInifile@@@Z DD 00H
	DD	00H
	DD	01H
	DD	01H
	DD	imagerel $handlerMap$0$?_Insert_n@?$vector@UItem@CInifile@@V?$xalloc@UItem@CInifile@@@@@std@@IEAA?AV?$_Vector_iterator@V?$_Vector_val@U?$_Simple_types@UItem@CInifile@@@std@@@std@@@2@V?$_Vector_const_iterator@V?$_Vector_val@U?$_Simple_types@UItem@CInifile@@@std@@@std@@@2@_KAEBUItem@CInifile@@@Z
	DD	02H
	DD	02H
	DD	03H
	DD	01H
	DD	imagerel $handlerMap$1$?_Insert_n@?$vector@UItem@CInifile@@V?$xalloc@UItem@CInifile@@@@@std@@IEAA?AV?$_Vector_iterator@V?$_Vector_val@U?$_Simple_types@UItem@CInifile@@@std@@@std@@@2@V?$_Vector_const_iterator@V?$_Vector_val@U?$_Simple_types@UItem@CInifile@@@std@@@std@@@2@_KAEBUItem@CInifile@@@Z
xdata	ENDS
;	COMDAT xdata
xdata	SEGMENT
$stateUnwindMap$?_Insert_n@?$vector@UItem@CInifile@@V?$xalloc@UItem@CInifile@@@@@std@@IEAA?AV?$_Vector_iterator@V?$_Vector_val@U?$_Simple_types@UItem@CInifile@@@std@@@std@@@2@V?$_Vector_const_iterator@V?$_Vector_val@U?$_Simple_types@UItem@CInifile@@@std@@@std@@@2@_KAEBUItem@CInifile@@@Z DD 0ffffffffH
	DD	00H
	DD	0ffffffffH
	DD	00H
	DD	0ffffffffH
	DD	00H
	DD	0ffffffffH
	DD	00H
xdata	ENDS
;	COMDAT CONST
CONST	SEGMENT
$cppxdata$?_Insert_n@?$vector@UItem@CInifile@@V?$xalloc@UItem@CInifile@@@@@std@@IEAA?AV?$_Vector_iterator@V?$_Vector_val@U?$_Simple_types@UItem@CInifile@@@std@@@std@@@2@V?$_Vector_const_iterator@V?$_Vector_val@U?$_Simple_types@UItem@CInifile@@@std@@@std@@@2@_KAEBUItem@CInifile@@@Z DD 019930522H
	DD	04H
	DD	imagerel $stateUnwindMap$?_Insert_n@?$vector@UItem@CInifile@@V?$xalloc@UItem@CInifile@@@@@std@@IEAA?AV?$_Vector_iterator@V?$_Vector_val@U?$_Simple_types@UItem@CInifile@@@std@@@std@@@2@V?$_Vector_const_iterator@V?$_Vector_val@U?$_Simple_types@UItem@CInifile@@@std@@@std@@@2@_KAEBUItem@CInifile@@@Z
	DD	02H
	DD	imagerel $tryMap$?_Insert_n@?$vector@UItem@CInifile@@V?$xalloc@UItem@CInifile@@@@@std@@IEAA?AV?$_Vector_iterator@V?$_Vector_val@U?$_Simple_types@UItem@CInifile@@@std@@@std@@@2@V?$_Vector_const_iterator@V?$_Vector_val@U?$_Simple_types@UItem@CInifile@@@std@@@std@@@2@_KAEBUItem@CInifile@@@Z
	DD	09H
	DD	imagerel $ip2state$?_Insert_n@?$vector@UItem@CInifile@@V?$xalloc@UItem@CInifile@@@@@std@@IEAA?AV?$_Vector_iterator@V?$_Vector_val@U?$_Simple_types@UItem@CInifile@@@std@@@std@@@2@V?$_Vector_const_iterator@V?$_Vector_val@U?$_Simple_types@UItem@CInifile@@@std@@@std@@@2@_KAEBUItem@CInifile@@@Z
	DD	038H
	DD	00H
	DD	00H
CONST	ENDS
;	COMDAT xdata
xdata	SEGMENT
$unwind$?_Insert_n@?$vector@UItem@CInifile@@V?$xalloc@UItem@CInifile@@@@@std@@IEAA?AV?$_Vector_iterator@V?$_Vector_val@U?$_Simple_types@UItem@CInifile@@@std@@@std@@@2@V?$_Vector_const_iterator@V?$_Vector_val@U?$_Simple_types@UItem@CInifile@@@std@@@std@@@2@_KAEBUItem@CInifile@@@Z DD 082c19H
	DD	0f01f9223H
	DD	0d01be01dH
	DD	07017c019H
	DD	030156016H
	DD	imagerel __CxxFrameHandler3
	DD	imagerel $cppxdata$?_Insert_n@?$vector@UItem@CInifile@@V?$xalloc@UItem@CInifile@@@@@std@@IEAA?AV?$_Vector_iterator@V?$_Vector_val@U?$_Simple_types@UItem@CInifile@@@std@@@std@@@2@V?$_Vector_const_iterator@V?$_Vector_val@U?$_Simple_types@UItem@CInifile@@@std@@@std@@@2@_KAEBUItem@CInifile@@@Z
xdata	ENDS
;	COMDAT xdata
xdata	SEGMENT
$unwind$?catch$1@?0??_Insert_n@?$vector@PEAUSect@CInifile@@V?$xalloc@PEAUSect@CInifile@@@@@std@@IEAA?AV?$_Vector_iterator@V?$_Vector_val@U?$_Simple_types@PEAUSect@CInifile@@@std@@@std@@@2@V?$_Vector_const_iterator@V?$_Vector_val@U?$_Simple_types@PEAUSect@CInifile@@@std@@@std@@@2@_KAEBQEAUSect@CInifile@@@Z@4HA DD 020a19H
	DD	05006520aH
	DD	imagerel __CxxFrameHandler3
	DD	imagerel $cppxdata$?_Insert_n@?$vector@PEAUSect@CInifile@@V?$xalloc@PEAUSect@CInifile@@@@@std@@IEAA?AV?$_Vector_iterator@V?$_Vector_val@U?$_Simple_types@PEAUSect@CInifile@@@std@@@std@@@2@V?$_Vector_const_iterator@V?$_Vector_val@U?$_Simple_types@PEAUSect@CInifile@@@std@@@std@@@2@_KAEBQEAUSect@CInifile@@@Z
xdata	ENDS
;	COMDAT xdata
xdata	SEGMENT
$unwind$?catch$0@?0??_Insert_n@?$vector@PEAUSect@CInifile@@V?$xalloc@PEAUSect@CInifile@@@@@std@@IEAA?AV?$_Vector_iterator@V?$_Vector_val@U?$_Simple_types@PEAUSect@CInifile@@@std@@@std@@@2@V?$_Vector_const_iterator@V?$_Vector_val@U?$_Simple_types@PEAUSect@CInifile@@@std@@@std@@@2@_KAEBQEAUSect@CInifile@@@Z@4HA DD 020a19H
	DD	05006520aH
	DD	imagerel __CxxFrameHandler3
	DD	imagerel $cppxdata$?_Insert_n@?$vector@PEAUSect@CInifile@@V?$xalloc@PEAUSect@CInifile@@@@@std@@IEAA?AV?$_Vector_iterator@V?$_Vector_val@U?$_Simple_types@PEAUSect@CInifile@@@std@@@std@@@2@V?$_Vector_const_iterator@V?$_Vector_val@U?$_Simple_types@PEAUSect@CInifile@@@std@@@std@@@2@_KAEBQEAUSect@CInifile@@@Z
xdata	ENDS
;	COMDAT xdata
xdata	SEGMENT
$ip2state$?_Insert_n@?$vector@PEAUSect@CInifile@@V?$xalloc@PEAUSect@CInifile@@@@@std@@IEAA?AV?$_Vector_iterator@V?$_Vector_val@U?$_Simple_types@PEAUSect@CInifile@@@std@@@std@@@2@V?$_Vector_const_iterator@V?$_Vector_val@U?$_Simple_types@PEAUSect@CInifile@@@std@@@std@@@2@_KAEBQEAUSect@CInifile@@@Z DD imagerel ?_Insert_n@?$vector@PEAUSect@CInifile@@V?$xalloc@PEAUSect@CInifile@@@@@std@@IEAA?AV?$_Vector_iterator@V?$_Vector_val@U?$_Simple_types@PEAUSect@CInifile@@@std@@@std@@@2@V?$_Vector_const_iterator@V?$_Vector_val@U?$_Simple_types@PEAUSect@CInifile@@@std@@@std@@@2@_KAEBQEAUSect@CInifile@@@Z
	DD	0ffffffffH
	DD	imagerel ?_Insert_n@?$vector@PEAUSect@CInifile@@V?$xalloc@PEAUSect@CInifile@@@@@std@@IEAA?AV?$_Vector_iterator@V?$_Vector_val@U?$_Simple_types@PEAUSect@CInifile@@@std@@@std@@@2@V?$_Vector_const_iterator@V?$_Vector_val@U?$_Simple_types@PEAUSect@CInifile@@@std@@@std@@@2@_KAEBQEAUSect@CInifile@@@Z+217
	DD	00H
	DD	imagerel ?_Insert_n@?$vector@PEAUSect@CInifile@@V?$xalloc@PEAUSect@CInifile@@@@@std@@IEAA?AV?$_Vector_iterator@V?$_Vector_val@U?$_Simple_types@PEAUSect@CInifile@@@std@@@std@@@2@V?$_Vector_const_iterator@V?$_Vector_val@U?$_Simple_types@PEAUSect@CInifile@@@std@@@std@@@2@_KAEBQEAUSect@CInifile@@@Z+298
	DD	0ffffffffH
	DD	imagerel ?_Insert_n@?$vector@PEAUSect@CInifile@@V?$xalloc@PEAUSect@CInifile@@@@@std@@IEAA?AV?$_Vector_iterator@V?$_Vector_val@U?$_Simple_types@PEAUSect@CInifile@@@std@@@std@@@2@V?$_Vector_const_iterator@V?$_Vector_val@U?$_Simple_types@PEAUSect@CInifile@@@std@@@std@@@2@_KAEBQEAUSect@CInifile@@@Z+420
	DD	02H
	DD	imagerel ?_Insert_n@?$vector@PEAUSect@CInifile@@V?$xalloc@PEAUSect@CInifile@@@@@std@@IEAA?AV?$_Vector_iterator@V?$_Vector_val@U?$_Simple_types@PEAUSect@CInifile@@@std@@@std@@@2@V?$_Vector_const_iterator@V?$_Vector_val@U?$_Simple_types@PEAUSect@CInifile@@@std@@@std@@@2@_KAEBQEAUSect@CInifile@@@Z+464
	DD	0ffffffffH
	DD	imagerel ?catch$0@?0??_Insert_n@?$vector@PEAUSect@CInifile@@V?$xalloc@PEAUSect@CInifile@@@@@std@@IEAA?AV?$_Vector_iterator@V?$_Vector_val@U?$_Simple_types@PEAUSect@CInifile@@@std@@@std@@@2@V?$_Vector_const_iterator@V?$_Vector_val@U?$_Simple_types@PEAUSect@CInifile@@@std@@@std@@@2@_KAEBQEAUSect@CInifile@@@Z@4HA
	DD	00H
	DD	imagerel ?catch$0@?0??_Insert_n@?$vector@PEAUSect@CInifile@@V?$xalloc@PEAUSect@CInifile@@@@@std@@IEAA?AV?$_Vector_iterator@V?$_Vector_val@U?$_Simple_types@PEAUSect@CInifile@@@std@@@std@@@2@V?$_Vector_const_iterator@V?$_Vector_val@U?$_Simple_types@PEAUSect@CInifile@@@std@@@std@@@2@_KAEBQEAUSect@CInifile@@@Z@4HA+13
	DD	01H
	DD	imagerel ?catch$1@?0??_Insert_n@?$vector@PEAUSect@CInifile@@V?$xalloc@PEAUSect@CInifile@@@@@std@@IEAA?AV?$_Vector_iterator@V?$_Vector_val@U?$_Simple_types@PEAUSect@CInifile@@@std@@@std@@@2@V?$_Vector_const_iterator@V?$_Vector_val@U?$_Simple_types@PEAUSect@CInifile@@@std@@@std@@@2@_KAEBQEAUSect@CInifile@@@Z@4HA
	DD	00H
	DD	imagerel ?catch$1@?0??_Insert_n@?$vector@PEAUSect@CInifile@@V?$xalloc@PEAUSect@CInifile@@@@@std@@IEAA?AV?$_Vector_iterator@V?$_Vector_val@U?$_Simple_types@PEAUSect@CInifile@@@std@@@std@@@2@V?$_Vector_const_iterator@V?$_Vector_val@U?$_Simple_types@PEAUSect@CInifile@@@std@@@std@@@2@_KAEBQEAUSect@CInifile@@@Z@4HA+13
	DD	03H
xdata	ENDS
;	COMDAT xdata
xdata	SEGMENT
$handlerMap$1$?_Insert_n@?$vector@PEAUSect@CInifile@@V?$xalloc@PEAUSect@CInifile@@@@@std@@IEAA?AV?$_Vector_iterator@V?$_Vector_val@U?$_Simple_types@PEAUSect@CInifile@@@std@@@std@@@2@V?$_Vector_const_iterator@V?$_Vector_val@U?$_Simple_types@PEAUSect@CInifile@@@std@@@std@@@2@_KAEBQEAUSect@CInifile@@@Z DD 00H
	DD	00H
	DD	00H
	DD	imagerel ?catch$1@?0??_Insert_n@?$vector@PEAUSect@CInifile@@V?$xalloc@PEAUSect@CInifile@@@@@std@@IEAA?AV?$_Vector_iterator@V?$_Vector_val@U?$_Simple_types@PEAUSect@CInifile@@@std@@@std@@@2@V?$_Vector_const_iterator@V?$_Vector_val@U?$_Simple_types@PEAUSect@CInifile@@@std@@@std@@@2@_KAEBQEAUSect@CInifile@@@Z@4HA
	DD	048H
xdata	ENDS
;	COMDAT xdata
xdata	SEGMENT
$handlerMap$0$?_Insert_n@?$vector@PEAUSect@CInifile@@V?$xalloc@PEAUSect@CInifile@@@@@std@@IEAA?AV?$_Vector_iterator@V?$_Vector_val@U?$_Simple_types@PEAUSect@CInifile@@@std@@@std@@@2@V?$_Vector_const_iterator@V?$_Vector_val@U?$_Simple_types@PEAUSect@CInifile@@@std@@@std@@@2@_KAEBQEAUSect@CInifile@@@Z DD 00H
	DD	00H
	DD	00H
	DD	imagerel ?catch$0@?0??_Insert_n@?$vector@PEAUSect@CInifile@@V?$xalloc@PEAUSect@CInifile@@@@@std@@IEAA?AV?$_Vector_iterator@V?$_Vector_val@U?$_Simple_types@PEAUSect@CInifile@@@std@@@std@@@2@V?$_Vector_const_iterator@V?$_Vector_val@U?$_Simple_types@PEAUSect@CInifile@@@std@@@std@@@2@_KAEBQEAUSect@CInifile@@@Z@4HA
	DD	048H
xdata	ENDS
;	COMDAT xdata
xdata	SEGMENT
$tryMap$?_Insert_n@?$vector@PEAUSect@CInifile@@V?$xalloc@PEAUSect@CInifile@@@@@std@@IEAA?AV?$_Vector_iterator@V?$_Vector_val@U?$_Simple_types@PEAUSect@CInifile@@@std@@@std@@@2@V?$_Vector_const_iterator@V?$_Vector_val@U?$_Simple_types@PEAUSect@CInifile@@@std@@@std@@@2@_KAEBQEAUSect@CInifile@@@Z DD 00H
	DD	00H
	DD	01H
	DD	01H
	DD	imagerel $handlerMap$0$?_Insert_n@?$vector@PEAUSect@CInifile@@V?$xalloc@PEAUSect@CInifile@@@@@std@@IEAA?AV?$_Vector_iterator@V?$_Vector_val@U?$_Simple_types@PEAUSect@CInifile@@@std@@@std@@@2@V?$_Vector_const_iterator@V?$_Vector_val@U?$_Simple_types@PEAUSect@CInifile@@@std@@@std@@@2@_KAEBQEAUSect@CInifile@@@Z
	DD	02H
	DD	02H
	DD	03H
	DD	01H
	DD	imagerel $handlerMap$1$?_Insert_n@?$vector@PEAUSect@CInifile@@V?$xalloc@PEAUSect@CInifile@@@@@std@@IEAA?AV?$_Vector_iterator@V?$_Vector_val@U?$_Simple_types@PEAUSect@CInifile@@@std@@@std@@@2@V?$_Vector_const_iterator@V?$_Vector_val@U?$_Simple_types@PEAUSect@CInifile@@@std@@@std@@@2@_KAEBQEAUSect@CInifile@@@Z
xdata	ENDS
;	COMDAT xdata
xdata	SEGMENT
$stateUnwindMap$?_Insert_n@?$vector@PEAUSect@CInifile@@V?$xalloc@PEAUSect@CInifile@@@@@std@@IEAA?AV?$_Vector_iterator@V?$_Vector_val@U?$_Simple_types@PEAUSect@CInifile@@@std@@@std@@@2@V?$_Vector_const_iterator@V?$_Vector_val@U?$_Simple_types@PEAUSect@CInifile@@@std@@@std@@@2@_KAEBQEAUSect@CInifile@@@Z DD 0ffffffffH
	DD	00H
	DD	0ffffffffH
	DD	00H
	DD	0ffffffffH
	DD	00H
	DD	0ffffffffH
	DD	00H
xdata	ENDS
;	COMDAT CONST
CONST	SEGMENT
$cppxdata$?_Insert_n@?$vector@PEAUSect@CInifile@@V?$xalloc@PEAUSect@CInifile@@@@@std@@IEAA?AV?$_Vector_iterator@V?$_Vector_val@U?$_Simple_types@PEAUSect@CInifile@@@std@@@std@@@2@V?$_Vector_const_iterator@V?$_Vector_val@U?$_Simple_types@PEAUSect@CInifile@@@std@@@std@@@2@_KAEBQEAUSect@CInifile@@@Z DD 019930522H
	DD	04H
	DD	imagerel $stateUnwindMap$?_Insert_n@?$vector@PEAUSect@CInifile@@V?$xalloc@PEAUSect@CInifile@@@@@std@@IEAA?AV?$_Vector_iterator@V?$_Vector_val@U?$_Simple_types@PEAUSect@CInifile@@@std@@@std@@@2@V?$_Vector_const_iterator@V?$_Vector_val@U?$_Simple_types@PEAUSect@CInifile@@@std@@@std@@@2@_KAEBQEAUSect@CInifile@@@Z
	DD	02H
	DD	imagerel $tryMap$?_Insert_n@?$vector@PEAUSect@CInifile@@V?$xalloc@PEAUSect@CInifile@@@@@std@@IEAA?AV?$_Vector_iterator@V?$_Vector_val@U?$_Simple_types@PEAUSect@CInifile@@@std@@@std@@@2@V?$_Vector_const_iterator@V?$_Vector_val@U?$_Simple_types@PEAUSect@CInifile@@@std@@@std@@@2@_KAEBQEAUSect@CInifile@@@Z
	DD	09H
	DD	imagerel $ip2state$?_Insert_n@?$vector@PEAUSect@CInifile@@V?$xalloc@PEAUSect@CInifile@@@@@std@@IEAA?AV?$_Vector_iterator@V?$_Vector_val@U?$_Simple_types@PEAUSect@CInifile@@@std@@@std@@@2@V?$_Vector_const_iterator@V?$_Vector_val@U?$_Simple_types@PEAUSect@CInifile@@@std@@@std@@@2@_KAEBQEAUSect@CInifile@@@Z
	DD	038H
	DD	00H
	DD	00H
CONST	ENDS
;	COMDAT xdata
xdata	SEGMENT
$unwind$?_Insert_n@?$vector@PEAUSect@CInifile@@V?$xalloc@PEAUSect@CInifile@@@@@std@@IEAA?AV?$_Vector_iterator@V?$_Vector_val@U?$_Simple_types@PEAUSect@CInifile@@@std@@@std@@@2@V?$_Vector_const_iterator@V?$_Vector_val@U?$_Simple_types@PEAUSect@CInifile@@@std@@@std@@@2@_KAEBQEAUSect@CInifile@@@Z DD 0a2a19H
	DD	0f642aH
	DD	0e3425H
	DD	0f0137217H
	DD	0d00fe011H
	DD	0700bc00dH
	DD	imagerel __CxxFrameHandler3
	DD	imagerel $cppxdata$?_Insert_n@?$vector@PEAUSect@CInifile@@V?$xalloc@PEAUSect@CInifile@@@@@std@@IEAA?AV?$_Vector_iterator@V?$_Vector_val@U?$_Simple_types@PEAUSect@CInifile@@@std@@@std@@@2@V?$_Vector_const_iterator@V?$_Vector_val@U?$_Simple_types@PEAUSect@CInifile@@@std@@@std@@@2@_KAEBQEAUSect@CInifile@@@Z
xdata	ENDS
;	COMDAT xdata
xdata	SEGMENT
$unwind$?_Ufill@?$vector@UItem@CInifile@@V?$xalloc@UItem@CInifile@@@@@std@@IEAAPEAUItem@CInifile@@PEAU34@_KPEBU34@@Z DD 040a01H
	DD	08340aH
	DD	07006520aH
xdata	ENDS
;	COMDAT xdata
xdata	SEGMENT
$unwind$?_Ufill@?$vector@PEAUSect@CInifile@@V?$xalloc@PEAUSect@CInifile@@@@@std@@IEAAPEAPEAUSect@CInifile@@PEAPEAU34@_KPEBQEAU34@@Z DD 040a01H
	DD	08340aH
	DD	07006520aH
xdata	ENDS
;	COMDAT xdata
xdata	SEGMENT
$unwind$??$xr_new@VCInifile@@PEBDH@@YAPEAVCInifile@@AEBQEBDAEBH@Z DD 040a01H
	DD	08340aH
	DD	07006520aH
xdata	ENDS
;	COMDAT xdata
xdata	SEGMENT
$chain$2$??$xr_delete@VCInifile@@@@YAXAEAPEAVCInifile@@@Z DD 021H
	DD	imagerel $LN32
	DD	imagerel $LN32+17
	DD	imagerel $unwind$??$xr_delete@VCInifile@@@@YAXAEAPEAVCInifile@@@Z
xdata	ENDS
;	COMDAT xdata
xdata	SEGMENT
$chain$1$??$xr_delete@VCInifile@@@@YAXAEAPEAVCInifile@@@Z DD 040a21H
	DD	07740aH
	DD	063405H
	DD	imagerel $LN32
	DD	imagerel $LN32+17
	DD	imagerel $unwind$??$xr_delete@VCInifile@@@@YAXAEAPEAVCInifile@@@Z
xdata	ENDS
;	COMDAT xdata
xdata	SEGMENT
$unwind$??$xr_delete@VCInifile@@@@YAXAEAPEAVCInifile@@@Z DD 020601H
	DD	060023206H
xdata	ENDS
;	COMDAT xdata
xdata	SEGMENT
$unwind$??$lower_bound@V?$_Vector_iterator@V?$_Vector_val@U?$_Simple_types@UItem@CInifile@@@std@@@std@@@std@@PEBDP6A_NAEBUItem@CInifile@@PEBD@Z@std@@YA?AV?$_Vector_iterator@V?$_Vector_val@U?$_Simple_types@UItem@CInifile@@@std@@@std@@@0@V10@0AEBQEBDP6A_NAEBUItem@CInifile@@PEBD@Z@Z DD 020601H
	DD	030025206H
xdata	ENDS
;	COMDAT xdata
xdata	SEGMENT
$chain$1$??$xr_delete@USect@CInifile@@@@YAXAEAPEAUSect@CInifile@@@Z DD 021H
	DD	imagerel $LN49
	DD	imagerel $LN49+29
	DD	imagerel $unwind$??$xr_delete@USect@CInifile@@@@YAXAEAPEAUSect@CInifile@@@Z
xdata	ENDS
;	COMDAT xdata
xdata	SEGMENT
$chain$0$??$xr_delete@USect@CInifile@@@@YAXAEAPEAUSect@CInifile@@@Z DD 020521H
	DD	067405H
	DD	imagerel $LN49
	DD	imagerel $LN49+29
	DD	imagerel $unwind$??$xr_delete@USect@CInifile@@@@YAXAEAPEAUSect@CInifile@@@Z
xdata	ENDS
;	COMDAT xdata
xdata	SEGMENT
$unwind$??$xr_delete@USect@CInifile@@@@YAXAEAPEAUSect@CInifile@@@Z DD 040a01H
	DD	07340aH
	DD	06006320aH
xdata	ENDS
;	COMDAT xdata
xdata	SEGMENT
$unwind$??$lower_bound@V?$_Vector_iterator@V?$_Vector_val@U?$_Simple_types@PEAUSect@CInifile@@@std@@@std@@@std@@PEBDP6A_NPEBUSect@CInifile@@PEBD@Z@std@@YA?AV?$_Vector_iterator@V?$_Vector_val@U?$_Simple_types@PEAUSect@CInifile@@@std@@@std@@@0@V10@0AEBQEBDP6A_NPEBUSect@CInifile@@PEBD@Z@Z DD 020601H
	DD	030025206H
xdata	ENDS
;	COMDAT xdata
xdata	SEGMENT
$unwind$??$xr_new@USect@CInifile@@@@YAPEAUSect@CInifile@@XZ DD 010401H
	DD	04204H
xdata	ENDS
;	COMDAT xdata
xdata	SEGMENT
$unwind$??$lower_bound@V?$_Vector_iterator@V?$_Vector_val@U?$_Simple_types@PEAUSect@CInifile@@@std@@@std@@@std@@$$BY0BAA@DP6A_NPEBUSect@CInifile@@PEBD@Z@std@@YA?AV?$_Vector_iterator@V?$_Vector_val@U?$_Simple_types@PEAUSect@CInifile@@@std@@@std@@@0@V10@0AEAY0BAA@$$CBDP6A_NPEBUSect@CInifile@@PEBD@Z@Z DD 020601H
	DD	030025206H
xdata	ENDS
;	COMDAT xdata
xdata	SEGMENT
$unwind$??$_Umove@PEAUItem@CInifile@@@?$vector@UItem@CInifile@@V?$xalloc@UItem@CInifile@@@@@std@@IEAAPEAUItem@CInifile@@PEAU23@00@Z DD 010401H
	DD	06204H
xdata	ENDS
;	COMDAT xdata
xdata	SEGMENT
$unwind$??$_Umove@PEAPEAUSect@CInifile@@@?$vector@PEAUSect@CInifile@@V?$xalloc@PEAUSect@CInifile@@@@@std@@IEAAPEAPEAUSect@CInifile@@PEAPEAU23@00@Z DD 010401H
	DD	06204H
xdata	ENDS
;	COMDAT xdata
xdata	SEGMENT
$unwind$??$_Copy_backward@PEAPEAUSect@CInifile@@PEAPEAU12@@std@@YAPEAPEAUSect@CInifile@@PEAPEAU12@00@Z DD 020601H
	DD	030023206H
xdata	ENDS
;	COMDAT xdata
xdata	SEGMENT
$unwind$??$_Uninitialized_fill_n@PEAUItem@CInifile@@_KU12@U?$_Wrap_alloc@V?$xalloc@UItem@CInifile@@@@@std@@@std@@YAXPEAUItem@CInifile@@_KPEBU12@AEAU?$_Wrap_alloc@V?$xalloc@UItem@CInifile@@@@@0@@Z DD 010401H
	DD	06204H
xdata	ENDS
;	COMDAT xdata
xdata	SEGMENT
$unwind$??$_Uninitialized_fill_n@PEAPEAUSect@CInifile@@_KPEAU12@U?$_Wrap_alloc@V?$xalloc@PEAUSect@CInifile@@@@@std@@@std@@YAXPEAPEAUSect@CInifile@@_KPEBQEAU12@AEAU?$_Wrap_alloc@V?$xalloc@PEAUSect@CInifile@@@@@0@@Z DD 010401H
	DD	06204H
xdata	ENDS
;	COMDAT xdata
xdata	SEGMENT
$unwind$??R?$xr_special_free@$00VCInifile@@@@QEAAXAEAPEAVCInifile@@@Z DD 040a01H
	DD	06340aH
	DD	07006320aH
xdata	ENDS
;	COMDAT xdata
xdata	SEGMENT
$unwind$??R?$xr_special_free@$0A@USect@CInifile@@@@QEAAXAEAPEAUSect@CInifile@@@Z DD 040a01H
	DD	06340aH
	DD	07006320aH
xdata	ENDS
;	COMDAT xdata
xdata	SEGMENT
$unwind$??_GSect@CInifile@@QEAAPEAXI@Z DD 020601H
	DD	030023206H
xdata	ENDS
;	COMDAT xdata
xdata	SEGMENT
$chain$2$??$_Lower_bound@PEAUItem@CInifile@@PEBD_JP6A_NAEBU12@PEBD@Z@std@@YAPEAUItem@CInifile@@PEAU12@0AEBQEBDP6A_NAEBU12@PEBD@ZPEA_J@Z DD 021H
	DD	imagerel $LN58
	DD	imagerel $LN58+37
	DD	imagerel $unwind$??$_Lower_bound@PEAUItem@CInifile@@PEBD_JP6A_NAEBU12@PEBD@Z@std@@YAPEAUItem@CInifile@@PEAU12@0AEBQEBDP6A_NAEBU12@PEBD@ZPEA_J@Z
xdata	ENDS
;	COMDAT xdata
xdata	SEGMENT
$chain$1$??$_Lower_bound@PEAUItem@CInifile@@PEBD_JP6A_NAEBU12@PEBD@Z@std@@YAPEAUItem@CInifile@@PEAU12@0AEBQEBDP6A_NAEBU12@PEBD@ZPEA_J@Z DD 040a21H
	DD	07740aH
	DD	066405H
	DD	imagerel $LN58
	DD	imagerel $LN58+37
	DD	imagerel $unwind$??$_Lower_bound@PEAUItem@CInifile@@PEBD_JP6A_NAEBU12@PEBD@Z@std@@YAPEAUItem@CInifile@@PEAU12@0AEBQEBDP6A_NAEBU12@PEBD@ZPEA_J@Z
xdata	ENDS
;	COMDAT xdata
xdata	SEGMENT
$unwind$??$_Lower_bound@PEAUItem@CInifile@@PEBD_JP6A_NAEBU12@PEBD@Z@std@@YAPEAUItem@CInifile@@PEAU12@0AEBQEBDP6A_NAEBU12@PEBD@ZPEA_J@Z DD 061001H
	DD	095410H
	DD	083410H
	DD	0e00c3210H
xdata	ENDS
;	COMDAT xdata
xdata	SEGMENT
$chain$2$??$_Lower_bound@PEAPEAUSect@CInifile@@PEBD_JP6A_NPEBU12@PEBD@Z@std@@YAPEAPEAUSect@CInifile@@PEAPEAU12@0AEBQEBDP6A_NPEBU12@PEBD@ZPEA_J@Z DD 021H
	DD	imagerel $LN34
	DD	imagerel $LN34+22
	DD	imagerel $unwind$??$_Lower_bound@PEAPEAUSect@CInifile@@PEBD_JP6A_NPEBU12@PEBD@Z@std@@YAPEAPEAUSect@CInifile@@PEAPEAU12@0AEBQEBDP6A_NPEBU12@PEBD@ZPEA_J@Z
xdata	ENDS
;	COMDAT xdata
xdata	SEGMENT
$chain$1$??$_Lower_bound@PEAPEAUSect@CInifile@@PEBD_JP6A_NPEBU12@PEBD@Z@std@@YAPEAPEAUSect@CInifile@@PEAPEAU12@0AEBQEBDP6A_NPEBU12@PEBD@ZPEA_J@Z DD 040921H
	DD	07409H
	DD	023405H
	DD	imagerel $LN34
	DD	imagerel $LN34+22
	DD	imagerel $unwind$??$_Lower_bound@PEAPEAUSect@CInifile@@PEBD_JP6A_NPEBU12@PEBD@Z@std@@YAPEAPEAUSect@CInifile@@PEAPEAU12@0AEBQEBDP6A_NPEBU12@PEBD@ZPEA_J@Z
xdata	ENDS
;	COMDAT xdata
xdata	SEGMENT
$unwind$??$_Lower_bound@PEAPEAUSect@CInifile@@PEBD_JP6A_NPEBU12@PEBD@Z@std@@YAPEAPEAUSect@CInifile@@PEAPEAU12@0AEBQEBDP6A_NPEBU12@PEBD@ZPEA_J@Z DD 010401H
	DD	0204H
xdata	ENDS
;	COMDAT xdata
xdata	SEGMENT
$chain$1$??$_Lower_bound@PEAPEAUSect@CInifile@@$$BY0BAA@$$CBD_JP6A_NPEBU12@PEBD@Z@std@@YAPEAPEAUSect@CInifile@@PEAPEAU12@0AEAY0BAA@$$CBDP6A_NPEBU12@PEBD@ZPEA_J@Z DD 021H
	DD	imagerel $LN34
	DD	imagerel $LN34+23
	DD	imagerel $unwind$??$_Lower_bound@PEAPEAUSect@CInifile@@$$BY0BAA@$$CBD_JP6A_NPEBU12@PEBD@Z@std@@YAPEAPEAUSect@CInifile@@PEAPEAU12@0AEAY0BAA@$$CBDP6A_NPEBU12@PEBD@ZPEA_J@Z
xdata	ENDS
;	COMDAT xdata
xdata	SEGMENT
$chain$0$??$_Lower_bound@PEAPEAUSect@CInifile@@$$BY0BAA@$$CBD_JP6A_NPEBU12@PEBD@Z@std@@YAPEAPEAUSect@CInifile@@PEAPEAU12@0AEAY0BAA@$$CBDP6A_NPEBU12@PEBD@ZPEA_J@Z DD 020521H
	DD	023405H
	DD	imagerel $LN34
	DD	imagerel $LN34+23
	DD	imagerel $unwind$??$_Lower_bound@PEAPEAUSect@CInifile@@$$BY0BAA@$$CBD_JP6A_NPEBU12@PEBD@Z@std@@YAPEAPEAUSect@CInifile@@PEAPEAU12@0AEAY0BAA@$$CBDP6A_NPEBU12@PEBD@ZPEA_J@Z
xdata	ENDS
;	COMDAT xdata
xdata	SEGMENT
$unwind$??$_Lower_bound@PEAPEAUSect@CInifile@@$$BY0BAA@$$CBD_JP6A_NPEBU12@PEBD@Z@std@@YAPEAPEAUSect@CInifile@@PEAPEAU12@0AEAY0BAA@$$CBDP6A_NPEBU12@PEBD@ZPEA_J@Z DD 010201H
	DD	07002H
xdata	ENDS
;	COMDAT xdata
xdata	SEGMENT
$unwind$??$_Uninitialized_move@PEAUItem@CInifile@@PEAU12@U?$_Wrap_alloc@V?$xalloc@UItem@CInifile@@@@@std@@@std@@YAPEAUItem@CInifile@@PEAU12@00AEAU?$_Wrap_alloc@V?$xalloc@UItem@CInifile@@@@@0@@Z DD 010401H
	DD	06204H
xdata	ENDS
;	COMDAT xdata
xdata	SEGMENT
$unwind$??$_Uninitialized_move@PEAPEAUSect@CInifile@@PEAPEAU12@U?$_Wrap_alloc@V?$xalloc@PEAUSect@CInifile@@@@@std@@@std@@YAPEAPEAUSect@CInifile@@PEAPEAU12@00AEAU?$_Wrap_alloc@V?$xalloc@PEAUSect@CInifile@@@@@0@@Z DD 010401H
	DD	06204H
xdata	ENDS
;	COMDAT xdata
xdata	SEGMENT
$unwind$??$_Copy_backward@PEAPEAUSect@CInifile@@PEAPEAU12@@std@@YAPEAPEAUSect@CInifile@@PEAPEAU12@00U_Scalar_ptr_iterator_tag@0@@Z DD 020601H
	DD	030023206H
xdata	ENDS
;	COMDAT xdata
xdata	SEGMENT
$unwind$?catch$0@?0???$_Uninit_fill_n@PEAUItem@CInifile@@_KU12@V?$xalloc@UItem@CInifile@@@@U12@@std@@YAXPEAUItem@CInifile@@_KPEBU12@AEAU?$_Wrap_alloc@V?$xalloc@UItem@CInifile@@@@@0@0U_Nonscalar_ptr_iterator_tag@0@@Z@4HA DD 020a19H
	DD	05006320aH
	DD	imagerel __CxxFrameHandler3
	DD	imagerel $cppxdata$??$_Uninit_fill_n@PEAUItem@CInifile@@_KU12@V?$xalloc@UItem@CInifile@@@@U12@@std@@YAXPEAUItem@CInifile@@_KPEBU12@AEAU?$_Wrap_alloc@V?$xalloc@UItem@CInifile@@@@@0@0U_Nonscalar_ptr_iterator_tag@0@@Z
xdata	ENDS
;	COMDAT xdata
xdata	SEGMENT
$ip2state$??$_Uninit_fill_n@PEAUItem@CInifile@@_KU12@V?$xalloc@UItem@CInifile@@@@U12@@std@@YAXPEAUItem@CInifile@@_KPEBU12@AEAU?$_Wrap_alloc@V?$xalloc@UItem@CInifile@@@@@0@0U_Nonscalar_ptr_iterator_tag@0@@Z DD imagerel ??$_Uninit_fill_n@PEAUItem@CInifile@@_KU12@V?$xalloc@UItem@CInifile@@@@U12@@std@@YAXPEAUItem@CInifile@@_KPEBU12@AEAU?$_Wrap_alloc@V?$xalloc@UItem@CInifile@@@@@0@0U_Nonscalar_ptr_iterator_tag@0@@Z
	DD	0ffffffffH
	DD	imagerel ??$_Uninit_fill_n@PEAUItem@CInifile@@_KU12@V?$xalloc@UItem@CInifile@@@@U12@@std@@YAXPEAUItem@CInifile@@_KPEBU12@AEAU?$_Wrap_alloc@V?$xalloc@UItem@CInifile@@@@@0@0U_Nonscalar_ptr_iterator_tag@0@@Z+31
	DD	00H
	DD	imagerel ??$_Uninit_fill_n@PEAUItem@CInifile@@_KU12@V?$xalloc@UItem@CInifile@@@@U12@@std@@YAXPEAUItem@CInifile@@_KPEBU12@AEAU?$_Wrap_alloc@V?$xalloc@UItem@CInifile@@@@@0@0U_Nonscalar_ptr_iterator_tag@0@@Z+143
	DD	0ffffffffH
	DD	imagerel ?catch$0@?0???$_Uninit_fill_n@PEAUItem@CInifile@@_KU12@V?$xalloc@UItem@CInifile@@@@U12@@std@@YAXPEAUItem@CInifile@@_KPEBU12@AEAU?$_Wrap_alloc@V?$xalloc@UItem@CInifile@@@@@0@0U_Nonscalar_ptr_iterator_tag@0@@Z@4HA
	DD	00H
	DD	imagerel ?catch$0@?0???$_Uninit_fill_n@PEAUItem@CInifile@@_KU12@V?$xalloc@UItem@CInifile@@@@U12@@std@@YAXPEAUItem@CInifile@@_KPEBU12@AEAU?$_Wrap_alloc@V?$xalloc@UItem@CInifile@@@@@0@0U_Nonscalar_ptr_iterator_tag@0@@Z@4HA+13
	DD	01H
xdata	ENDS
;	COMDAT xdata
xdata	SEGMENT
$handlerMap$0$??$_Uninit_fill_n@PEAUItem@CInifile@@_KU12@V?$xalloc@UItem@CInifile@@@@U12@@std@@YAXPEAUItem@CInifile@@_KPEBU12@AEAU?$_Wrap_alloc@V?$xalloc@UItem@CInifile@@@@@0@0U_Nonscalar_ptr_iterator_tag@0@@Z DD 00H
	DD	00H
	DD	00H
	DD	imagerel ?catch$0@?0???$_Uninit_fill_n@PEAUItem@CInifile@@_KU12@V?$xalloc@UItem@CInifile@@@@U12@@std@@YAXPEAUItem@CInifile@@_KPEBU12@AEAU?$_Wrap_alloc@V?$xalloc@UItem@CInifile@@@@@0@0U_Nonscalar_ptr_iterator_tag@0@@Z@4HA
	DD	038H
xdata	ENDS
;	COMDAT xdata
xdata	SEGMENT
$tryMap$??$_Uninit_fill_n@PEAUItem@CInifile@@_KU12@V?$xalloc@UItem@CInifile@@@@U12@@std@@YAXPEAUItem@CInifile@@_KPEBU12@AEAU?$_Wrap_alloc@V?$xalloc@UItem@CInifile@@@@@0@0U_Nonscalar_ptr_iterator_tag@0@@Z DD 00H
	DD	00H
	DD	01H
	DD	01H
	DD	imagerel $handlerMap$0$??$_Uninit_fill_n@PEAUItem@CInifile@@_KU12@V?$xalloc@UItem@CInifile@@@@U12@@std@@YAXPEAUItem@CInifile@@_KPEBU12@AEAU?$_Wrap_alloc@V?$xalloc@UItem@CInifile@@@@@0@0U_Nonscalar_ptr_iterator_tag@0@@Z
xdata	ENDS
;	COMDAT xdata
xdata	SEGMENT
$stateUnwindMap$??$_Uninit_fill_n@PEAUItem@CInifile@@_KU12@V?$xalloc@UItem@CInifile@@@@U12@@std@@YAXPEAUItem@CInifile@@_KPEBU12@AEAU?$_Wrap_alloc@V?$xalloc@UItem@CInifile@@@@@0@0U_Nonscalar_ptr_iterator_tag@0@@Z DD 0ffffffffH
	DD	00H
	DD	0ffffffffH
	DD	00H
xdata	ENDS
;	COMDAT CONST
CONST	SEGMENT
$cppxdata$??$_Uninit_fill_n@PEAUItem@CInifile@@_KU12@V?$xalloc@UItem@CInifile@@@@U12@@std@@YAXPEAUItem@CInifile@@_KPEBU12@AEAU?$_Wrap_alloc@V?$xalloc@UItem@CInifile@@@@@0@0U_Nonscalar_ptr_iterator_tag@0@@Z DD 019930522H
	DD	02H
	DD	imagerel $stateUnwindMap$??$_Uninit_fill_n@PEAUItem@CInifile@@_KU12@V?$xalloc@UItem@CInifile@@@@U12@@std@@YAXPEAUItem@CInifile@@_KPEBU12@AEAU?$_Wrap_alloc@V?$xalloc@UItem@CInifile@@@@@0@0U_Nonscalar_ptr_iterator_tag@0@@Z
	DD	01H
	DD	imagerel $tryMap$??$_Uninit_fill_n@PEAUItem@CInifile@@_KU12@V?$xalloc@UItem@CInifile@@@@U12@@std@@YAXPEAUItem@CInifile@@_KPEBU12@AEAU?$_Wrap_alloc@V?$xalloc@UItem@CInifile@@@@@0@0U_Nonscalar_ptr_iterator_tag@0@@Z
	DD	05H
	DD	imagerel $ip2state$??$_Uninit_fill_n@PEAUItem@CInifile@@_KU12@V?$xalloc@UItem@CInifile@@@@U12@@std@@YAXPEAUItem@CInifile@@_KPEBU12@AEAU?$_Wrap_alloc@V?$xalloc@UItem@CInifile@@@@@0@0U_Nonscalar_ptr_iterator_tag@0@@Z
	DD	020H
	DD	00H
	DD	00H
CONST	ENDS
;	COMDAT xdata
xdata	SEGMENT
$unwind$??$_Uninit_fill_n@PEAUItem@CInifile@@_KU12@V?$xalloc@UItem@CInifile@@@@U12@@std@@YAXPEAUItem@CInifile@@_KPEBU12@AEAU?$_Wrap_alloc@V?$xalloc@UItem@CInifile@@@@@0@0U_Nonscalar_ptr_iterator_tag@0@@Z DD 011719H
	DD	0620eH
	DD	imagerel __CxxFrameHandler3
	DD	imagerel $cppxdata$??$_Uninit_fill_n@PEAUItem@CInifile@@_KU12@V?$xalloc@UItem@CInifile@@@@U12@@std@@YAXPEAUItem@CInifile@@_KPEBU12@AEAU?$_Wrap_alloc@V?$xalloc@UItem@CInifile@@@@@0@0U_Nonscalar_ptr_iterator_tag@0@@Z
xdata	ENDS
;	COMDAT xdata
xdata	SEGMENT
$unwind$??$_Uninit_fill_n@PEAPEAUSect@CInifile@@_KPEAU12@V?$xalloc@PEAUSect@CInifile@@@@PEAU12@@std@@YAXPEAPEAUSect@CInifile@@_KPEBQEAU12@AEAU?$_Wrap_alloc@V?$xalloc@PEAUSect@CInifile@@@@@0@0U_Scalar_ptr_iterator_tag@0@@Z DD 010401H
	DD	06204H
xdata	ENDS
;	COMDAT xdata
xdata	SEGMENT
$unwind$??$_Uninit_move@PEAUItem@CInifile@@PEAU12@U?$_Wrap_alloc@V?$xalloc@UItem@CInifile@@@@@std@@@std@@YAPEAUItem@CInifile@@PEAU12@00AEAU?$_Wrap_alloc@V?$xalloc@UItem@CInifile@@@@@0@@Z DD 010401H
	DD	06204H
xdata	ENDS
;	COMDAT xdata
xdata	SEGMENT
$unwind$??$_Uninit_move@PEAPEAUSect@CInifile@@PEAPEAU12@U?$_Wrap_alloc@V?$xalloc@PEAUSect@CInifile@@@@@std@@@std@@YAPEAPEAUSect@CInifile@@PEAPEAU12@00AEAU?$_Wrap_alloc@V?$xalloc@PEAUSect@CInifile@@@@@0@@Z DD 010401H
	DD	06204H
xdata	ENDS
;	COMDAT xdata
xdata	SEGMENT
$unwind$?catch$0@?0???$_Uninit_fill_n@PEAPEAUSect@CInifile@@_KPEAU12@V?$xalloc@PEAUSect@CInifile@@@@PEAU12@@std@@YAXPEAPEAUSect@CInifile@@_KPEBQEAU12@AEAU?$_Wrap_alloc@V?$xalloc@PEAUSect@CInifile@@@@@0@0U_Nonscalar_ptr_iterator_tag@0@@Z@4HA DD 020a19H
	DD	05006320aH
	DD	imagerel __CxxFrameHandler3
	DD	imagerel $cppxdata$??$_Uninit_fill_n@PEAPEAUSect@CInifile@@_KPEAU12@V?$xalloc@PEAUSect@CInifile@@@@PEAU12@@std@@YAXPEAPEAUSect@CInifile@@_KPEBQEAU12@AEAU?$_Wrap_alloc@V?$xalloc@PEAUSect@CInifile@@@@@0@0U_Nonscalar_ptr_iterator_tag@0@@Z
xdata	ENDS
;	COMDAT xdata
xdata	SEGMENT
$ip2state$??$_Uninit_fill_n@PEAPEAUSect@CInifile@@_KPEAU12@V?$xalloc@PEAUSect@CInifile@@@@PEAU12@@std@@YAXPEAPEAUSect@CInifile@@_KPEBQEAU12@AEAU?$_Wrap_alloc@V?$xalloc@PEAUSect@CInifile@@@@@0@0U_Nonscalar_ptr_iterator_tag@0@@Z DD imagerel ??$_Uninit_fill_n@PEAPEAUSect@CInifile@@_KPEAU12@V?$xalloc@PEAUSect@CInifile@@@@PEAU12@@std@@YAXPEAPEAUSect@CInifile@@_KPEBQEAU12@AEAU?$_Wrap_alloc@V?$xalloc@PEAUSect@CInifile@@@@@0@0U_Nonscalar_ptr_iterator_tag@0@@Z
	DD	0ffffffffH
	DD	imagerel ??$_Uninit_fill_n@PEAPEAUSect@CInifile@@_KPEAU12@V?$xalloc@PEAUSect@CInifile@@@@PEAU12@@std@@YAXPEAPEAUSect@CInifile@@_KPEBQEAU12@AEAU?$_Wrap_alloc@V?$xalloc@PEAUSect@CInifile@@@@@0@0U_Nonscalar_ptr_iterator_tag@0@@Z+16
	DD	00H
	DD	imagerel ??$_Uninit_fill_n@PEAPEAUSect@CInifile@@_KPEAU12@V?$xalloc@PEAUSect@CInifile@@@@PEAU12@@std@@YAXPEAPEAUSect@CInifile@@_KPEBQEAU12@AEAU?$_Wrap_alloc@V?$xalloc@PEAUSect@CInifile@@@@@0@0U_Nonscalar_ptr_iterator_tag@0@@Z+51
	DD	0ffffffffH
	DD	imagerel ?catch$0@?0???$_Uninit_fill_n@PEAPEAUSect@CInifile@@_KPEAU12@V?$xalloc@PEAUSect@CInifile@@@@PEAU12@@std@@YAXPEAPEAUSect@CInifile@@_KPEBQEAU12@AEAU?$_Wrap_alloc@V?$xalloc@PEAUSect@CInifile@@@@@0@0U_Nonscalar_ptr_iterator_tag@0@@Z@4HA
	DD	00H
	DD	imagerel ?catch$0@?0???$_Uninit_fill_n@PEAPEAUSect@CInifile@@_KPEAU12@V?$xalloc@PEAUSect@CInifile@@@@PEAU12@@std@@YAXPEAPEAUSect@CInifile@@_KPEBQEAU12@AEAU?$_Wrap_alloc@V?$xalloc@PEAUSect@CInifile@@@@@0@0U_Nonscalar_ptr_iterator_tag@0@@Z@4HA+13
	DD	01H
xdata	ENDS
;	COMDAT xdata
xdata	SEGMENT
$handlerMap$0$??$_Uninit_fill_n@PEAPEAUSect@CInifile@@_KPEAU12@V?$xalloc@PEAUSect@CInifile@@@@PEAU12@@std@@YAXPEAPEAUSect@CInifile@@_KPEBQEAU12@AEAU?$_Wrap_alloc@V?$xalloc@PEAUSect@CInifile@@@@@0@0U_Nonscalar_ptr_iterator_tag@0@@Z DD 00H
	DD	00H
	DD	00H
	DD	imagerel ?catch$0@?0???$_Uninit_fill_n@PEAPEAUSect@CInifile@@_KPEAU12@V?$xalloc@PEAUSect@CInifile@@@@PEAU12@@std@@YAXPEAPEAUSect@CInifile@@_KPEBQEAU12@AEAU?$_Wrap_alloc@V?$xalloc@PEAUSect@CInifile@@@@@0@0U_Nonscalar_ptr_iterator_tag@0@@Z@4HA
	DD	038H
xdata	ENDS
;	COMDAT xdata
xdata	SEGMENT
$tryMap$??$_Uninit_fill_n@PEAPEAUSect@CInifile@@_KPEAU12@V?$xalloc@PEAUSect@CInifile@@@@PEAU12@@std@@YAXPEAPEAUSect@CInifile@@_KPEBQEAU12@AEAU?$_Wrap_alloc@V?$xalloc@PEAUSect@CInifile@@@@@0@0U_Nonscalar_ptr_iterator_tag@0@@Z DD 00H
	DD	00H
	DD	01H
	DD	01H
	DD	imagerel $handlerMap$0$??$_Uninit_fill_n@PEAPEAUSect@CInifile@@_KPEAU12@V?$xalloc@PEAUSect@CInifile@@@@PEAU12@@std@@YAXPEAPEAUSect@CInifile@@_KPEBQEAU12@AEAU?$_Wrap_alloc@V?$xalloc@PEAUSect@CInifile@@@@@0@0U_Nonscalar_ptr_iterator_tag@0@@Z
xdata	ENDS
;	COMDAT xdata
xdata	SEGMENT
$stateUnwindMap$??$_Uninit_fill_n@PEAPEAUSect@CInifile@@_KPEAU12@V?$xalloc@PEAUSect@CInifile@@@@PEAU12@@std@@YAXPEAPEAUSect@CInifile@@_KPEBQEAU12@AEAU?$_Wrap_alloc@V?$xalloc@PEAUSect@CInifile@@@@@0@0U_Nonscalar_ptr_iterator_tag@0@@Z DD 0ffffffffH
	DD	00H
	DD	0ffffffffH
	DD	00H
xdata	ENDS
;	COMDAT CONST
CONST	SEGMENT
$cppxdata$??$_Uninit_fill_n@PEAPEAUSect@CInifile@@_KPEAU12@V?$xalloc@PEAUSect@CInifile@@@@PEAU12@@std@@YAXPEAPEAUSect@CInifile@@_KPEBQEAU12@AEAU?$_Wrap_alloc@V?$xalloc@PEAUSect@CInifile@@@@@0@0U_Nonscalar_ptr_iterator_tag@0@@Z DD 019930522H
	DD	02H
	DD	imagerel $stateUnwindMap$??$_Uninit_fill_n@PEAPEAUSect@CInifile@@_KPEAU12@V?$xalloc@PEAUSect@CInifile@@@@PEAU12@@std@@YAXPEAPEAUSect@CInifile@@_KPEBQEAU12@AEAU?$_Wrap_alloc@V?$xalloc@PEAUSect@CInifile@@@@@0@0U_Nonscalar_ptr_iterator_tag@0@@Z
	DD	01H
	DD	imagerel $tryMap$??$_Uninit_fill_n@PEAPEAUSect@CInifile@@_KPEAU12@V?$xalloc@PEAUSect@CInifile@@@@PEAU12@@std@@YAXPEAPEAUSect@CInifile@@_KPEBQEAU12@AEAU?$_Wrap_alloc@V?$xalloc@PEAUSect@CInifile@@@@@0@0U_Nonscalar_ptr_iterator_tag@0@@Z
	DD	05H
	DD	imagerel $ip2state$??$_Uninit_fill_n@PEAPEAUSect@CInifile@@_KPEAU12@V?$xalloc@PEAUSect@CInifile@@@@PEAU12@@std@@YAXPEAPEAUSect@CInifile@@_KPEBQEAU12@AEAU?$_Wrap_alloc@V?$xalloc@PEAUSect@CInifile@@@@@0@0U_Nonscalar_ptr_iterator_tag@0@@Z
	DD	020H
	DD	00H
	DD	00H
CONST	ENDS
;	COMDAT xdata
xdata	SEGMENT
$unwind$??$_Uninit_fill_n@PEAPEAUSect@CInifile@@_KPEAU12@V?$xalloc@PEAUSect@CInifile@@@@PEAU12@@std@@YAXPEAPEAUSect@CInifile@@_KPEBQEAU12@AEAU?$_Wrap_alloc@V?$xalloc@PEAUSect@CInifile@@@@@0@0U_Nonscalar_ptr_iterator_tag@0@@Z DD 010d19H
	DD	06204H
	DD	imagerel __CxxFrameHandler3
	DD	imagerel $cppxdata$??$_Uninit_fill_n@PEAPEAUSect@CInifile@@_KPEAU12@V?$xalloc@PEAUSect@CInifile@@@@PEAU12@@std@@YAXPEAPEAUSect@CInifile@@_KPEBQEAU12@AEAU?$_Wrap_alloc@V?$xalloc@PEAUSect@CInifile@@@@@0@0U_Nonscalar_ptr_iterator_tag@0@@Z
xdata	ENDS
;	COMDAT xdata
xdata	SEGMENT
$unwind$?catch$0@?0???$_Uninit_move@PEAUItem@CInifile@@PEAU12@V?$xalloc@UItem@CInifile@@@@U12@@std@@YAPEAUItem@CInifile@@PEAU12@00AEAU?$_Wrap_alloc@V?$xalloc@UItem@CInifile@@@@@0@0U_Nonscalar_ptr_iterator_tag@0@@Z@4HA DD 020a19H
	DD	05006320aH
	DD	imagerel __CxxFrameHandler3
	DD	imagerel $cppxdata$??$_Uninit_move@PEAUItem@CInifile@@PEAU12@V?$xalloc@UItem@CInifile@@@@U12@@std@@YAPEAUItem@CInifile@@PEAU12@00AEAU?$_Wrap_alloc@V?$xalloc@UItem@CInifile@@@@@0@0U_Nonscalar_ptr_iterator_tag@0@@Z
xdata	ENDS
;	COMDAT xdata
xdata	SEGMENT
$ip2state$??$_Uninit_move@PEAUItem@CInifile@@PEAU12@V?$xalloc@UItem@CInifile@@@@U12@@std@@YAPEAUItem@CInifile@@PEAU12@00AEAU?$_Wrap_alloc@V?$xalloc@UItem@CInifile@@@@@0@0U_Nonscalar_ptr_iterator_tag@0@@Z DD imagerel ??$_Uninit_move@PEAUItem@CInifile@@PEAU12@V?$xalloc@UItem@CInifile@@@@U12@@std@@YAPEAUItem@CInifile@@PEAU12@00AEAU?$_Wrap_alloc@V?$xalloc@UItem@CInifile@@@@@0@0U_Nonscalar_ptr_iterator_tag@0@@Z
	DD	0ffffffffH
	DD	imagerel ??$_Uninit_move@PEAUItem@CInifile@@PEAU12@V?$xalloc@UItem@CInifile@@@@U12@@std@@YAPEAUItem@CInifile@@PEAU12@00AEAU?$_Wrap_alloc@V?$xalloc@UItem@CInifile@@@@@0@0U_Nonscalar_ptr_iterator_tag@0@@Z+31
	DD	00H
	DD	imagerel ??$_Uninit_move@PEAUItem@CInifile@@PEAU12@V?$xalloc@UItem@CInifile@@@@U12@@std@@YAPEAUItem@CInifile@@PEAU12@00AEAU?$_Wrap_alloc@V?$xalloc@UItem@CInifile@@@@@0@0U_Nonscalar_ptr_iterator_tag@0@@Z+144
	DD	0ffffffffH
	DD	imagerel ?catch$0@?0???$_Uninit_move@PEAUItem@CInifile@@PEAU12@V?$xalloc@UItem@CInifile@@@@U12@@std@@YAPEAUItem@CInifile@@PEAU12@00AEAU?$_Wrap_alloc@V?$xalloc@UItem@CInifile@@@@@0@0U_Nonscalar_ptr_iterator_tag@0@@Z@4HA
	DD	00H
	DD	imagerel ?catch$0@?0???$_Uninit_move@PEAUItem@CInifile@@PEAU12@V?$xalloc@UItem@CInifile@@@@U12@@std@@YAPEAUItem@CInifile@@PEAU12@00AEAU?$_Wrap_alloc@V?$xalloc@UItem@CInifile@@@@@0@0U_Nonscalar_ptr_iterator_tag@0@@Z@4HA+13
	DD	01H
xdata	ENDS
;	COMDAT xdata
xdata	SEGMENT
$handlerMap$0$??$_Uninit_move@PEAUItem@CInifile@@PEAU12@V?$xalloc@UItem@CInifile@@@@U12@@std@@YAPEAUItem@CInifile@@PEAU12@00AEAU?$_Wrap_alloc@V?$xalloc@UItem@CInifile@@@@@0@0U_Nonscalar_ptr_iterator_tag@0@@Z DD 00H
	DD	00H
	DD	00H
	DD	imagerel ?catch$0@?0???$_Uninit_move@PEAUItem@CInifile@@PEAU12@V?$xalloc@UItem@CInifile@@@@U12@@std@@YAPEAUItem@CInifile@@PEAU12@00AEAU?$_Wrap_alloc@V?$xalloc@UItem@CInifile@@@@@0@0U_Nonscalar_ptr_iterator_tag@0@@Z@4HA
	DD	038H
xdata	ENDS
;	COMDAT xdata
xdata	SEGMENT
$tryMap$??$_Uninit_move@PEAUItem@CInifile@@PEAU12@V?$xalloc@UItem@CInifile@@@@U12@@std@@YAPEAUItem@CInifile@@PEAU12@00AEAU?$_Wrap_alloc@V?$xalloc@UItem@CInifile@@@@@0@0U_Nonscalar_ptr_iterator_tag@0@@Z DD 00H
	DD	00H
	DD	01H
	DD	01H
	DD	imagerel $handlerMap$0$??$_Uninit_move@PEAUItem@CInifile@@PEAU12@V?$xalloc@UItem@CInifile@@@@U12@@std@@YAPEAUItem@CInifile@@PEAU12@00AEAU?$_Wrap_alloc@V?$xalloc@UItem@CInifile@@@@@0@0U_Nonscalar_ptr_iterator_tag@0@@Z
xdata	ENDS
;	COMDAT xdata
xdata	SEGMENT
$stateUnwindMap$??$_Uninit_move@PEAUItem@CInifile@@PEAU12@V?$xalloc@UItem@CInifile@@@@U12@@std@@YAPEAUItem@CInifile@@PEAU12@00AEAU?$_Wrap_alloc@V?$xalloc@UItem@CInifile@@@@@0@0U_Nonscalar_ptr_iterator_tag@0@@Z DD 0ffffffffH
	DD	00H
	DD	0ffffffffH
	DD	00H
xdata	ENDS
;	COMDAT CONST
CONST	SEGMENT
$cppxdata$??$_Uninit_move@PEAUItem@CInifile@@PEAU12@V?$xalloc@UItem@CInifile@@@@U12@@std@@YAPEAUItem@CInifile@@PEAU12@00AEAU?$_Wrap_alloc@V?$xalloc@UItem@CInifile@@@@@0@0U_Nonscalar_ptr_iterator_tag@0@@Z DD 019930522H
	DD	02H
	DD	imagerel $stateUnwindMap$??$_Uninit_move@PEAUItem@CInifile@@PEAU12@V?$xalloc@UItem@CInifile@@@@U12@@std@@YAPEAUItem@CInifile@@PEAU12@00AEAU?$_Wrap_alloc@V?$xalloc@UItem@CInifile@@@@@0@0U_Nonscalar_ptr_iterator_tag@0@@Z
	DD	01H
	DD	imagerel $tryMap$??$_Uninit_move@PEAUItem@CInifile@@PEAU12@V?$xalloc@UItem@CInifile@@@@U12@@std@@YAPEAUItem@CInifile@@PEAU12@00AEAU?$_Wrap_alloc@V?$xalloc@UItem@CInifile@@@@@0@0U_Nonscalar_ptr_iterator_tag@0@@Z
	DD	05H
	DD	imagerel $ip2state$??$_Uninit_move@PEAUItem@CInifile@@PEAU12@V?$xalloc@UItem@CInifile@@@@U12@@std@@YAPEAUItem@CInifile@@PEAU12@00AEAU?$_Wrap_alloc@V?$xalloc@UItem@CInifile@@@@@0@0U_Nonscalar_ptr_iterator_tag@0@@Z
	DD	020H
	DD	00H
	DD	00H
CONST	ENDS
;	COMDAT xdata
xdata	SEGMENT
$unwind$??$_Uninit_move@PEAUItem@CInifile@@PEAU12@V?$xalloc@UItem@CInifile@@@@U12@@std@@YAPEAUItem@CInifile@@PEAU12@00AEAU?$_Wrap_alloc@V?$xalloc@UItem@CInifile@@@@@0@0U_Nonscalar_ptr_iterator_tag@0@@Z DD 011719H
	DD	0620eH
	DD	imagerel __CxxFrameHandler3
	DD	imagerel $cppxdata$??$_Uninit_move@PEAUItem@CInifile@@PEAU12@V?$xalloc@UItem@CInifile@@@@U12@@std@@YAPEAUItem@CInifile@@PEAU12@00AEAU?$_Wrap_alloc@V?$xalloc@UItem@CInifile@@@@@0@0U_Nonscalar_ptr_iterator_tag@0@@Z
xdata	ENDS
;	COMDAT xdata
xdata	SEGMENT
$unwind$??$_Uninit_move@PEAPEAUSect@CInifile@@PEAPEAU12@V?$xalloc@PEAUSect@CInifile@@@@PEAU12@@std@@YAPEAPEAUSect@CInifile@@PEAPEAU12@00AEAU?$_Wrap_alloc@V?$xalloc@PEAUSect@CInifile@@@@@0@0U_Scalar_ptr_iterator_tag@0@@Z DD 010401H
	DD	06204H
xdata	ENDS
;	COMDAT xdata
xdata	SEGMENT
$unwind$?catch$0@?0???$_Uninit_move@PEAPEAUSect@CInifile@@PEAPEAU12@V?$xalloc@PEAUSect@CInifile@@@@PEAU12@@std@@YAPEAPEAUSect@CInifile@@PEAPEAU12@00AEAU?$_Wrap_alloc@V?$xalloc@PEAUSect@CInifile@@@@@0@0U_Nonscalar_ptr_iterator_tag@0@@Z@4HA DD 020a19H
	DD	05006320aH
	DD	imagerel __CxxFrameHandler3
	DD	imagerel $cppxdata$??$_Uninit_move@PEAPEAUSect@CInifile@@PEAPEAU12@V?$xalloc@PEAUSect@CInifile@@@@PEAU12@@std@@YAPEAPEAUSect@CInifile@@PEAPEAU12@00AEAU?$_Wrap_alloc@V?$xalloc@PEAUSect@CInifile@@@@@0@0U_Nonscalar_ptr_iterator_tag@0@@Z
xdata	ENDS
;	COMDAT xdata
xdata	SEGMENT
$ip2state$??$_Uninit_move@PEAPEAUSect@CInifile@@PEAPEAU12@V?$xalloc@PEAUSect@CInifile@@@@PEAU12@@std@@YAPEAPEAUSect@CInifile@@PEAPEAU12@00AEAU?$_Wrap_alloc@V?$xalloc@PEAUSect@CInifile@@@@@0@0U_Nonscalar_ptr_iterator_tag@0@@Z DD imagerel ??$_Uninit_move@PEAPEAUSect@CInifile@@PEAPEAU12@V?$xalloc@PEAUSect@CInifile@@@@PEAU12@@std@@YAPEAPEAUSect@CInifile@@PEAPEAU12@00AEAU?$_Wrap_alloc@V?$xalloc@PEAUSect@CInifile@@@@@0@0U_Nonscalar_ptr_iterator_tag@0@@Z
	DD	0ffffffffH
	DD	imagerel ??$_Uninit_move@PEAPEAUSect@CInifile@@PEAPEAU12@V?$xalloc@PEAUSect@CInifile@@@@PEAU12@@std@@YAPEAPEAUSect@CInifile@@PEAPEAU12@00AEAU?$_Wrap_alloc@V?$xalloc@PEAUSect@CInifile@@@@@0@0U_Nonscalar_ptr_iterator_tag@0@@Z+16
	DD	00H
	DD	imagerel ??$_Uninit_move@PEAPEAUSect@CInifile@@PEAPEAU12@V?$xalloc@PEAUSect@CInifile@@@@PEAU12@@std@@YAPEAPEAUSect@CInifile@@PEAPEAU12@00AEAU?$_Wrap_alloc@V?$xalloc@PEAUSect@CInifile@@@@@0@0U_Nonscalar_ptr_iterator_tag@0@@Z+52
	DD	0ffffffffH
	DD	imagerel ?catch$0@?0???$_Uninit_move@PEAPEAUSect@CInifile@@PEAPEAU12@V?$xalloc@PEAUSect@CInifile@@@@PEAU12@@std@@YAPEAPEAUSect@CInifile@@PEAPEAU12@00AEAU?$_Wrap_alloc@V?$xalloc@PEAUSect@CInifile@@@@@0@0U_Nonscalar_ptr_iterator_tag@0@@Z@4HA
	DD	00H
	DD	imagerel ?catch$0@?0???$_Uninit_move@PEAPEAUSect@CInifile@@PEAPEAU12@V?$xalloc@PEAUSect@CInifile@@@@PEAU12@@std@@YAPEAPEAUSect@CInifile@@PEAPEAU12@00AEAU?$_Wrap_alloc@V?$xalloc@PEAUSect@CInifile@@@@@0@0U_Nonscalar_ptr_iterator_tag@0@@Z@4HA+13
	DD	01H
xdata	ENDS
;	COMDAT xdata
xdata	SEGMENT
$handlerMap$0$??$_Uninit_move@PEAPEAUSect@CInifile@@PEAPEAU12@V?$xalloc@PEAUSect@CInifile@@@@PEAU12@@std@@YAPEAPEAUSect@CInifile@@PEAPEAU12@00AEAU?$_Wrap_alloc@V?$xalloc@PEAUSect@CInifile@@@@@0@0U_Nonscalar_ptr_iterator_tag@0@@Z DD 00H
	DD	00H
	DD	00H
	DD	imagerel ?catch$0@?0???$_Uninit_move@PEAPEAUSect@CInifile@@PEAPEAU12@V?$xalloc@PEAUSect@CInifile@@@@PEAU12@@std@@YAPEAPEAUSect@CInifile@@PEAPEAU12@00AEAU?$_Wrap_alloc@V?$xalloc@PEAUSect@CInifile@@@@@0@0U_Nonscalar_ptr_iterator_tag@0@@Z@4HA
	DD	038H
xdata	ENDS
;	COMDAT xdata
xdata	SEGMENT
$tryMap$??$_Uninit_move@PEAPEAUSect@CInifile@@PEAPEAU12@V?$xalloc@PEAUSect@CInifile@@@@PEAU12@@std@@YAPEAPEAUSect@CInifile@@PEAPEAU12@00AEAU?$_Wrap_alloc@V?$xalloc@PEAUSect@CInifile@@@@@0@0U_Nonscalar_ptr_iterator_tag@0@@Z DD 00H
	DD	00H
	DD	01H
	DD	01H
	DD	imagerel $handlerMap$0$??$_Uninit_move@PEAPEAUSect@CInifile@@PEAPEAU12@V?$xalloc@PEAUSect@CInifile@@@@PEAU12@@std@@YAPEAPEAUSect@CInifile@@PEAPEAU12@00AEAU?$_Wrap_alloc@V?$xalloc@PEAUSect@CInifile@@@@@0@0U_Nonscalar_ptr_iterator_tag@0@@Z
xdata	ENDS
;	COMDAT xdata
xdata	SEGMENT
$stateUnwindMap$??$_Uninit_move@PEAPEAUSect@CInifile@@PEAPEAU12@V?$xalloc@PEAUSect@CInifile@@@@PEAU12@@std@@YAPEAPEAUSect@CInifile@@PEAPEAU12@00AEAU?$_Wrap_alloc@V?$xalloc@PEAUSect@CInifile@@@@@0@0U_Nonscalar_ptr_iterator_tag@0@@Z DD 0ffffffffH
	DD	00H
	DD	0ffffffffH
	DD	00H
xdata	ENDS
;	COMDAT CONST
CONST	SEGMENT
$cppxdata$??$_Uninit_move@PEAPEAUSect@CInifile@@PEAPEAU12@V?$xalloc@PEAUSect@CInifile@@@@PEAU12@@std@@YAPEAPEAUSect@CInifile@@PEAPEAU12@00AEAU?$_Wrap_alloc@V?$xalloc@PEAUSect@CInifile@@@@@0@0U_Nonscalar_ptr_iterator_tag@0@@Z DD 019930522H
	DD	02H
	DD	imagerel $stateUnwindMap$??$_Uninit_move@PEAPEAUSect@CInifile@@PEAPEAU12@V?$xalloc@PEAUSect@CInifile@@@@PEAU12@@std@@YAPEAPEAUSect@CInifile@@PEAPEAU12@00AEAU?$_Wrap_alloc@V?$xalloc@PEAUSect@CInifile@@@@@0@0U_Nonscalar_ptr_iterator_tag@0@@Z
	DD	01H
	DD	imagerel $tryMap$??$_Uninit_move@PEAPEAUSect@CInifile@@PEAPEAU12@V?$xalloc@PEAUSect@CInifile@@@@PEAU12@@std@@YAPEAPEAUSect@CInifile@@PEAPEAU12@00AEAU?$_Wrap_alloc@V?$xalloc@PEAUSect@CInifile@@@@@0@0U_Nonscalar_ptr_iterator_tag@0@@Z
	DD	05H
	DD	imagerel $ip2state$??$_Uninit_move@PEAPEAUSect@CInifile@@PEAPEAU12@V?$xalloc@PEAUSect@CInifile@@@@PEAU12@@std@@YAPEAPEAUSect@CInifile@@PEAPEAU12@00AEAU?$_Wrap_alloc@V?$xalloc@PEAUSect@CInifile@@@@@0@0U_Nonscalar_ptr_iterator_tag@0@@Z
	DD	020H
	DD	00H
	DD	00H
CONST	ENDS
;	COMDAT xdata
xdata	SEGMENT
$unwind$??$_Uninit_move@PEAPEAUSect@CInifile@@PEAPEAU12@V?$xalloc@PEAUSect@CInifile@@@@PEAU12@@std@@YAPEAPEAUSect@CInifile@@PEAPEAU12@00AEAU?$_Wrap_alloc@V?$xalloc@PEAUSect@CInifile@@@@@0@0U_Nonscalar_ptr_iterator_tag@0@@Z DD 010d19H
	DD	06204H
	DD	imagerel __CxxFrameHandler3
	DD	imagerel $cppxdata$??$_Uninit_move@PEAPEAUSect@CInifile@@PEAPEAU12@V?$xalloc@PEAUSect@CInifile@@@@PEAU12@@std@@YAPEAPEAUSect@CInifile@@PEAPEAU12@00AEAU?$_Wrap_alloc@V?$xalloc@PEAUSect@CInifile@@@@@0@0U_Nonscalar_ptr_iterator_tag@0@@Z
; Function compile flags: /Ogtpy
; File c:\users\nummer\documents\github\olr-3.0\src\xray\xrcore\xr_ini.cpp
; File c:\users\nummer\documents\github\olr-3.0\src\xray\xrcore\xrmemory.h
; File c:\users\nummer\documents\github\olr-3.0\src\xray\xrcore\xr_ini.cpp
; File c:\users\nummer\documents\github\olr-3.0\src\xray\xrcore\xrmemory.h
; File c:\program files (x86)\microsoft visual studio 12.0\vc\include\vector
; File c:\users\nummer\documents\github\olr-3.0\src\xray\xrcore\xr_ini.cpp
; File c:\program files (x86)\microsoft visual studio 12.0\vc\include\vector
; File c:\users\nummer\documents\github\olr-3.0\src\xray\xrcore\xr_ini.cpp
; File c:\program files (x86)\microsoft visual studio 12.0\vc\include\vector
; File c:\users\nummer\documents\github\olr-3.0\src\xray\xrcore\xrmemory_subst_msvc.cpp
; File c:\users\nummer\documents\github\olr-3.0\src\xray\xrcore\xrmemory_align.cpp
; File c:\users\nummer\documents\github\olr-3.0\src\xray\xrcore\xrmemory_subst_msvc.cpp
; File c:\users\nummer\documents\github\olr-3.0\src\xray\xrcore\xrsyncronize.cpp
; File c:\users\nummer\documents\github\olr-3.0\src\xray\xrcore\xrmemory_pool.h
; File c:\users\nummer\documents\github\olr-3.0\src\xray\xrcore\xrsyncronize.cpp
; File c:\users\nummer\documents\github\olr-3.0\src\xray\xrcore\xrmemory_pool.h
; File c:\users\nummer\documents\github\olr-3.0\src\xray\xrcore\xrsyncronize.cpp
; File c:\program files (x86)\microsoft visual studio 12.0\vc\include\vector
; File c:\users\nummer\documents\github\olr-3.0\src\xray\xrcore\xr_ini.cpp
_TEXT	SEGMENT
this$ = 48
??1CInifile@@UEAA@XZ PROC				; CInifile::~CInifile

; 103  : {

$LN349:
	mov	QWORD PTR [rsp+8], rbx
	mov	QWORD PTR [rsp+16], rsi
	push	rdi
	sub	rsp, 32					; 00000020H

; 104  : 	if (!bReadOnly&&bSaveAtEnd) {

	cmp	DWORD PTR [rcx+40], 0
	lea	rax, OFFSET FLAT:??_7CInifile@@6B@
	mov	rsi, rcx
	mov	QWORD PTR [rcx], rax
	jne	SHORT $LN4@CInifile
	cmp	DWORD PTR [rcx+44], 0
	je	SHORT $LN4@CInifile

; 105  : 		if (!save_as())

	xor	edx, edx
	call	?save_as@CInifile@@QEAA_NPEBD@Z		; CInifile::save_as
	test	al, al
	jne	SHORT $LN4@CInifile

; 106  : 			Log		("!Can't save inifile:",fName);

	mov	rdx, QWORD PTR [rsi+8]
	lea	rcx, OFFSET FLAT:??_C@_0BF@HIBEFMCL@?$CBCan?8t?5save?5inifile?3?$AA@
	call	?Log@@YAXPEBD0@Z			; Log
$LN4@CInifile:
; File c:\users\nummer\documents\github\olr-3.0\src\xray\xrcore\xrmemory.h

; 109  : 	IC void		xr_free		(T* &P)					{	if (P) { Memory.mem_free((void*)P); P=NULL;	};	}

	cmp	QWORD PTR [rsi+8], 0
; File c:\users\nummer\documents\github\olr-3.0\src\xray\xrcore\xr_ini.cpp

; 109  : 	xr_free			(fName);

	lea	rcx, QWORD PTR [rsi+8]
; File c:\users\nummer\documents\github\olr-3.0\src\xray\xrcore\xrmemory.h

; 109  : 	IC void		xr_free		(T* &P)					{	if (P) { Memory.mem_free((void*)P); P=NULL;	};	}

	je	SHORT $LN266@CInifile
	call	??$xr_free@D@@YAXAEAPEAD@Z		; xr_free<char>
$LN266@CInifile:
; File c:\program files (x86)\microsoft visual studio 12.0\vc\include\vector

; 47   : 		{	// construct with pointer _Parg

	mov	rdi, QWORD PTR [rsi+24]
; File c:\users\nummer\documents\github\olr-3.0\src\xray\xrcore\xr_ini.cpp

; 113  : 	for ( ; I != E; ++I)

	mov	rbx, QWORD PTR [rsi+16]
	cmp	rbx, rdi
	je	SHORT $LN1@CInifile
$LL289@CInifile:

; 114  : 		xr_delete	(*I);

	mov	rcx, rbx
	call	??$xr_delete@USect@CInifile@@@@YAXAEAPEAUSect@CInifile@@@Z ; xr_delete<CInifile::Sect>
; File c:\program files (x86)\microsoft visual studio 12.0\vc\include\vector

; 112  : 		++this->_Ptr;

	add	rbx, 8
; File c:\users\nummer\documents\github\olr-3.0\src\xray\xrcore\xr_ini.cpp

; 113  : 	for ( ; I != E; ++I)

	cmp	rbx, rdi
	jne	SHORT $LL289@CInifile
$LN1@CInifile:
; File c:\program files (x86)\microsoft visual studio 12.0\vc\include\vector

; 1623 : 		if (this->_Myfirst != pointer())

	mov	rdi, QWORD PTR [rsi+16]
	test	rdi, rdi
	je	SHORT $LN305@CInifile
; File c:\users\nummer\documents\github\olr-3.0\src\xray\xrcore\xrmemory_subst_msvc.cpp

; 130  : 	stat_calls++;

	inc	DWORD PTR ?Memory@@3VxrMemory@@A

; 25   : ICF	u32		get_header			(void* P)	{	return	(u32)*acc_header(P);				}

	movzx	eax, BYTE PTR [rdi-1]

; 24   : ICF	u8*		acc_header			(void* P)	{	u8*		_P		= (u8*)P;	return	_P-1;	}

	dec	rdi

; 131  : #ifdef USE_MEMORY_MONITOR
; 132  : 	memory_monitor::monitor_free(P);
; 133  : #endif // USE_MEMORY_MONITOR
; 134  : 
; 135  : #ifdef PURE_ALLOC
; 136  : 	if (g_use_pure_alloc) {
; 137  : 		free					(P);
; 138  : 		return;
; 139  : 	}
; 140  : #endif // PURE_ALLOC
; 141  : 
; 142  : #ifdef DEBUG_MEMORY_MANAGER
; 143  : 	if(g_globalCheckAddr==P)
; 144  : 		__asm int 3;
; 145  : #endif // DEBUG_MEMORY_MANAGER
; 146  : 
; 147  : #ifdef DEBUG_MEMORY_MANAGER
; 148  : 	if (mem_initialized)		debug_cs.Enter		();
; 149  : #endif // DEBUG_MEMORY_MANAGER
; 150  : 	if		(debug_mode)		dbg_unregister	(P);
; 151  : 	u32	pool					= get_header	(P);
; 152  : 	void* _real					= (void*)(((u8*)P)-1);
; 153  : 	if (mem_generic==pool)		

	cmp	eax, 55					; 00000037H
	jne	SHORT $LN321@CInifile
; File c:\users\nummer\documents\github\olr-3.0\src\xray\xrcore\xrmemory_align.cpp

; 293  : 	if (memblock == NULL)

	test	rdi, rdi
	je	SHORT $LN342@CInifile

; 294  : 		return;
; 295  : 
; 296  : 	ptr = (uintptr_t)memblock;
; 297  : 
; 298  : 	/* ptr points to the pointer to starting of the memory block */
; 299  : 	ptr = (ptr & ~(PTR_SZ -1)) - PTR_SZ;

	and	rdi, -8

; 300  : 
; 301  : 	/* ptr is the pointer to the start of memory block*/
; 302  : 	ptr = *((uintptr_t *)ptr);
; 303  : 	free((void *)ptr);

	mov	rcx, QWORD PTR [rdi-8]
	call	QWORD PTR __imp_free
; File c:\users\nummer\documents\github\olr-3.0\src\xray\xrcore\xrmemory_subst_msvc.cpp

; 157  : 	} else {

	jmp	SHORT $LN342@CInifile
$LN321@CInifile:

; 158  : 		// pooled
; 159  : 		VERIFY2					(pool<mem_pools_count,"Memory corruption");
; 160  : 		mem_pools[pool].destroy	(_real);

	lea	rcx, QWORD PTR [rax+rax*4]
	lea	rax, OFFSET FLAT:?mem_pools@@3PAVMEMPOOL@@A ; mem_pools
	lea	rbx, QWORD PTR [rax+rcx*8]
; File c:\users\nummer\documents\github\olr-3.0\src\xray\xrcore\xrsyncronize.cpp

; 64   : 	EnterCriticalSection			( (CRITICAL_SECTION*)pmutex );

	mov	rcx, QWORD PTR [rax+rcx*8]
	call	QWORD PTR __imp_EnterCriticalSection
; File c:\users\nummer\documents\github\olr-3.0\src\xray\xrcore\xrmemory_pool.h

; 46   : 		*access(P)		= list;

	mov	rax, QWORD PTR [rbx+32]
	mov	QWORD PTR [rdi], rax
; File c:\users\nummer\documents\github\olr-3.0\src\xray\xrcore\xrsyncronize.cpp

; 69   : 	LeaveCriticalSection			( (CRITICAL_SECTION*)pmutex );

	mov	rcx, QWORD PTR [rbx]
; File c:\users\nummer\documents\github\olr-3.0\src\xray\xrcore\xrmemory_pool.h

; 47   : 		list			= (u8*)P;

	mov	QWORD PTR [rbx+32], rdi
; File c:\users\nummer\documents\github\olr-3.0\src\xray\xrcore\xrsyncronize.cpp

; 69   : 	LeaveCriticalSection			( (CRITICAL_SECTION*)pmutex );

	call	QWORD PTR __imp_LeaveCriticalSection
$LN342@CInifile:
; File c:\program files (x86)\microsoft visual studio 12.0\vc\include\vector

; 1629 : 			this->_Myfirst = pointer();

	xor	eax, eax
	mov	QWORD PTR [rsi+16], rax

; 1630 : 			this->_Mylast = pointer();

	mov	QWORD PTR [rsi+24], rax

; 1631 : 			this->_Myend = pointer();

	mov	QWORD PTR [rsi+32], rax
$LN305@CInifile:
; File c:\users\nummer\documents\github\olr-3.0\src\xray\xrcore\xr_ini.cpp

; 115  : }

	mov	rbx, QWORD PTR [rsp+48]
	mov	rsi, QWORD PTR [rsp+56]
	add	rsp, 32					; 00000020H
	pop	rdi
	ret	0
??1CInifile@@UEAA@XZ ENDP				; CInifile::~CInifile
_TEXT	ENDS
; Function compile flags: /Ogtpy
; File c:\users\nummer\documents\github\olr-3.0\src\xray\xrcore\xr_ini.cpp
_TEXT	SEGMENT
this$ = 48
S$ = 56
L$ = 64
?r_clsid@CInifile@@QEAA_KPEBD0@Z PROC			; CInifile::r_clsid

; 471  : {

$LN4:
	sub	rsp, 40					; 00000028H

; 472  : 	LPCSTR		C = r_string(S,L);

	call	?r_string@CInifile@@QEAAPEBDPEBD0@Z	; CInifile::r_string

; 473  : 	return		TEXT2CLSID(C);

	mov	rcx, rax

; 474  : }

	add	rsp, 40					; 00000028H

; 473  : 	return		TEXT2CLSID(C);

	jmp	?TEXT2CLSID@@YA_KPEBD@Z			; TEXT2CLSID
?r_clsid@CInifile@@QEAA_KPEBD0@Z ENDP			; CInifile::r_clsid
_TEXT	ENDS
; Function compile flags: /Ogtpy
; File c:\users\nummer\documents\github\olr-3.0\src\xray\xrcore\xr_ini.cpp
; File c:\program files (x86)\microsoft visual studio 12.0\vc\include\algorithm
; File c:\program files (x86)\microsoft visual studio 12.0\vc\include\xutility
; File c:\users\nummer\documents\github\olr-3.0\src\xray\xrcore\xr_ini.cpp
; File c:\program files (x86)\microsoft visual studio 12.0\vc\include\xutility
; File c:\program files (x86)\microsoft visual studio 12.0\vc\include\algorithm
; File c:\program files (x86)\microsoft visual studio 12.0\vc\include\xutility
; File c:\program files (x86)\microsoft visual studio 12.0\vc\include\algorithm
; File c:\program files (x86)\microsoft visual studio 12.0\vc\include\xutility
; File c:\users\nummer\documents\github\olr-3.0\src\xray\xrcore\xrstring.h
; File c:\users\nummer\documents\github\olr-3.0\src\xray\xrcore\xr_ini.cpp
; File c:\users\nummer\documents\github\olr-3.0\src\xray\xrcore\xrstring.h
; File c:\users\nummer\documents\github\olr-3.0\src\xray\xrcore\_std_extensions.h
; File c:\users\nummer\documents\github\olr-3.0\src\xray\xrcore\xr_ini.cpp
; File c:\users\nummer\documents\github\olr-3.0\src\xray\xrcore\xrstring.h
; File c:\program files (x86)\microsoft visual studio 12.0\vc\include\algorithm
; File c:\program files (x86)\microsoft visual studio 12.0\vc\include\vector
; File c:\users\nummer\documents\github\olr-3.0\src\xray\xrcore\xr_ini.cpp
; File c:\users\nummer\documents\github\olr-3.0\src\xray\xrcore\xrstring.h
; File c:\users\nummer\documents\github\olr-3.0\src\xray\xrcore\_std_extensions.h
; File c:\users\nummer\documents\github\olr-3.0\src\xray\xrcore\xr_ini.cpp
; File c:\users\nummer\documents\github\olr-3.0\src\xray\xrcore\xrstring.h
; File c:\users\nummer\documents\github\olr-3.0\src\xray\xrcore\xr_ini.cpp
_TEXT	SEGMENT
this$ = 112
S$ = 120
L$ = 128
?r_string@CInifile@@QEAAPEBDPEBD0@Z PROC		; CInifile::r_string

; 347  : {

$LN137:
	push	rbp
	push	r12
	push	r13
	push	r14
	sub	rsp, 72					; 00000048H
	mov	QWORD PTR [rsp+112], rbx
	mov	rbp, r8
	mov	r12, rdx
	mov	QWORD PTR [rsp+64], r15
	mov	r13, rcx

; 348  : 	Sect&	I = r_section(S);

	call	?r_section@CInifile@@QEAAAEAUSect@1@PEBD@Z ; CInifile::r_section
; File c:\program files (x86)\microsoft visual studio 12.0\vc\include\algorithm

; 2535 : 			_Dist_type(_First))));

	mov	r14, QWORD PTR [rax+8]
; File c:\program files (x86)\microsoft visual studio 12.0\vc\include\xutility

; 750  : 	_Off += _Last - _First;

	mov	rbx, QWORD PTR [rax+16]
; File c:\users\nummer\documents\github\olr-3.0\src\xray\xrcore\xr_ini.cpp

; 348  : 	Sect&	I = r_section(S);

	mov	r15, rax
; File c:\program files (x86)\microsoft visual studio 12.0\vc\include\xutility

; 750  : 	_Off += _Last - _First;

	sub	rbx, r14
	sar	rbx, 4
; File c:\program files (x86)\microsoft visual studio 12.0\vc\include\algorithm

; 2508 : 	while (0 < _Count)

	test	rbx, rbx
	jle	$LN35@r_string
	mov	QWORD PTR [rsp+120], rsi
	mov	QWORD PTR [rsp+128], rdi
	npad	4
$LL36@r_string:

; 2510 : 		_Diff _Count2 = _Count / 2;

	mov	rax, rbx
	cdq
	sub	rax, rdx
	sar	rax, 1
; File c:\program files (x86)\microsoft visual studio 12.0\vc\include\xutility

; 690  : 	_Where += _Off;

	mov	rdi, rax
; File c:\program files (x86)\microsoft visual studio 12.0\vc\include\algorithm

; 2510 : 		_Diff _Count2 = _Count / 2;

	mov	rsi, rax
; File c:\program files (x86)\microsoft visual studio 12.0\vc\include\xutility

; 690  : 	_Where += _Off;

	add	rdi, rdi
; File c:\users\nummer\documents\github\olr-3.0\src\xray\xrcore\xrstring.h

; 66   : 	bool				operator!	() const						{	return p_ == 0;									}

	mov	rcx, QWORD PTR [r14+rdi*8]
	test	rcx, rcx
; File c:\users\nummer\documents\github\olr-3.0\src\xray\xrcore\xr_ini.cpp

; 21   :     if ((!x.first) || (!val))	return x.first<val;

	je	SHORT $LN52@r_string
	test	rbp, rbp
	je	SHORT $LN52@r_string
; File c:\users\nummer\documents\github\olr-3.0\src\xray\xrcore\xrstring.h

; 65   : 	str_c				operator*	() const						{	return p_?p_->value:0;							}

	add	rcx, 12
; File c:\users\nummer\documents\github\olr-3.0\src\xray\xrcore\_std_extensions.h

; 279  : {	return (int)strcmp(S1,S2);  }

	mov	r8, rbp
	sub	r8, rcx
	npad	4
$LL134@r_string:
	movzx	edx, BYTE PTR [rcx]
	movzx	eax, BYTE PTR [rcx+r8]
	sub	edx, eax
	jne	SHORT $LN135@r_string
	inc	rcx
	test	eax, eax
	jne	SHORT $LL134@r_string
$LN135@r_string:
; File c:\users\nummer\documents\github\olr-3.0\src\xray\xrcore\xr_ini.cpp

; 22   :     else				   		return xr_strcmp(*x.first,val)<0;

	test	edx, edx
	sets	cl
	jmp	SHORT $LN75@r_string
$LN52@r_string:
; File c:\users\nummer\documents\github\olr-3.0\src\xray\xrcore\xrstring.h

; 52   : 	void				_set		(str_c rhs) 					{	str_value* v = g_pStringContainer->dock(rhs); if (0!=v) v->dwReference++; _dec(); p_ = v;	}

	mov	rcx, QWORD PTR ?g_pStringContainer@@3PEAVstr_container@@EA ; g_pStringContainer
	mov	rdx, rbp
	call	?dock@str_container@@QEAAPEAUstr_value@@PEBD@Z ; str_container::dock
	test	rax, rax
	je	SHORT $LN63@r_string
	inc	DWORD PTR [rax]
$LN63@r_string:

; 67   : 	char				operator[]	(size_t id)						{	return p_->value[id];							}
; 68   : 	str_c				c_str		() const						{	return p_?p_->value:0;							}
; 69   : 
; 70   : 	// misc func
; 71   : 	u32					size		()						const	{	if (0==p_) return 0; else return p_->dwLength;	}
; 72   : 	void				swap		(shared_str & rhs)				{	str_value* tmp = p_; p_ = rhs.p_; rhs.p_ = tmp;	}
; 73   : 	bool				equal		(const shared_str & rhs) const	{	return (p_ == rhs.p_);							}
; 74   :     shared_str& __cdecl	sprintf		(const char* format, ...)		{
; 75   : 		string4096 	buf;
; 76   : 		va_list		p;
; 77   : 		va_start	(p,format);
; 78   : 		int vs_sz	= _vsnprintf(buf,sizeof(buf)-1,format,p); buf[sizeof(buf)-1]=0;
; 79   : 		va_end		(p);
; 80   : 		if (vs_sz)	_set(buf);	
; 81   : 		return 		(shared_str&)*this;
; 82   : 	}
; 83   : };
; 84   : 
; 85   : // res_ptr == res_ptr
; 86   : // res_ptr != res_ptr
; 87   : // const res_ptr == ptr
; 88   : // const res_ptr != ptr
; 89   : // ptr == const res_ptr
; 90   : // ptr != const res_ptr
; 91   : // res_ptr < res_ptr
; 92   : // res_ptr > res_ptr
; 93   : IC bool operator	==	(shared_str const & a, shared_str const & b)		{ return a._get() == b._get();					}
; 94   : IC bool operator	!=	(shared_str const & a, shared_str const & b)		{ return a._get() != b._get();					}
; 95   : IC bool operator	<	(shared_str const & a, shared_str const & b)		{ return a._get() <  b._get();					}

	cmp	QWORD PTR [r14+rdi*8], rax
	setb	cl

; 50   : 	void				_dec		()								{	if (0==p_) return;	p_->dwReference--; 	if (0==p_->dwReference)	p_=0;						}

	test	rax, rax
	je	SHORT $LN75@r_string
	dec	DWORD PTR [rax]
$LN75@r_string:
; File c:\program files (x86)\microsoft visual studio 12.0\vc\include\algorithm

; 2514 : 		if (_Pred(*_Mid, _Val))

	test	cl, cl
	je	SHORT $LN34@r_string

; 2515 : //		if (_DEBUG_LT_PRED(_Pred, *_Mid, _Val))
; 2516 : 			{	// try top half
; 2517 : 			_First = ++_Mid;
; 2518 : 			_Count -= _Count2 + 1;

	or	rax, -1
	lea	r14, QWORD PTR [r14+rdi*8]
	sub	rax, rsi
	add	r14, 16
	add	rbx, rax

; 2519 : 			}
; 2520 : 		else

	jmp	SHORT $LN33@r_string
$LN34@r_string:

; 2521 : 			_Count = _Count2;

	mov	rbx, rsi
$LN33@r_string:

; 2508 : 	while (0 < _Count)

	test	rbx, rbx
	jg	$LL36@r_string
	mov	rdi, QWORD PTR [rsp+128]
	mov	rsi, QWORD PTR [rsp+120]
$LN35@r_string:
; File c:\program files (x86)\microsoft visual studio 12.0\vc\include\vector

; 205  : 		return (this->_Ptr == _Right._Ptr);

	cmp	r14, QWORD PTR [r15+16]
	mov	rbx, QWORD PTR [rsp+112]
	mov	r15, QWORD PTR [rsp+64]
; File c:\users\nummer\documents\github\olr-3.0\src\xray\xrcore\xr_ini.cpp

; 350  : 	if (A!=I.Data.end() && xr_strcmp(*A->first,L)==0)	return *A->second;

	je	SHORT $LN2@r_string
; File c:\users\nummer\documents\github\olr-3.0\src\xray\xrcore\xrstring.h

; 65   : 	str_c				operator*	() const						{	return p_?p_->value:0;							}

	mov	rax, QWORD PTR [r14]
	xor	r9d, r9d
	test	rax, rax
	je	SHORT $LN113@r_string
	add	rax, 12
	jmp	SHORT $LN114@r_string
$LN113@r_string:
	mov	rax, r9
$LN114@r_string:
; File c:\users\nummer\documents\github\olr-3.0\src\xray\xrcore\_std_extensions.h

; 279  : {	return (int)strcmp(S1,S2);  }

	mov	r8, rbp
	sub	r8, rax
	npad	7
$LL132@r_string:
	movzx	edx, BYTE PTR [rax]
	movzx	ecx, BYTE PTR [rax+r8]
	sub	edx, ecx
	jne	SHORT $LN133@r_string
	inc	rax
	test	ecx, ecx
	jne	SHORT $LL132@r_string
$LN133@r_string:
; File c:\users\nummer\documents\github\olr-3.0\src\xray\xrcore\xr_ini.cpp

; 350  : 	if (A!=I.Data.end() && xr_strcmp(*A->first,L)==0)	return *A->second;

	test	edx, edx
	jne	SHORT $LN2@r_string
; File c:\users\nummer\documents\github\olr-3.0\src\xray\xrcore\xrstring.h

; 65   : 	str_c				operator*	() const						{	return p_?p_->value:0;							}

	mov	rax, QWORD PTR [r14+8]
	test	rax, rax
	je	SHORT $LN127@r_string
	lea	r9, QWORD PTR [rax+12]
$LN127@r_string:
; File c:\users\nummer\documents\github\olr-3.0\src\xray\xrcore\xr_ini.cpp

; 350  : 	if (A!=I.Data.end() && xr_strcmp(*A->first,L)==0)	return *A->second;

	mov	rax, r9

; 354  : }

	add	rsp, 72					; 00000048H
	pop	r14
	pop	r13
	pop	r12
	pop	rbp
	ret	0
$LN2@r_string:

; 351  : 	else
; 352  : 		Debug.fatal(DEBUG_INFO,"Can't find variable %s in [%s], file %s",L,S, this->fName);

	mov	rax, QWORD PTR [r13+8]
	lea	r9, OFFSET FLAT:??_C@_0BD@DOJGBPMF@CInifile?3?3r_string?$AA@
	lea	rdx, OFFSET FLAT:??_C@_0L@BOCIKDOE@Xr_ini?4cpp?$AA@
	mov	QWORD PTR [rsp+56], rax
	lea	rax, OFFSET FLAT:??_C@_0CI@BBBLINKF@Can?8t?5find?5variable?5?$CFs?5in?5?$FL?$CFs?$FN?0?5@
	mov	QWORD PTR [rsp+48], r12
	lea	rcx, OFFSET FLAT:?Debug@@3VxrDebug@@A	; Debug
	mov	r8d, 352				; 00000160H
	mov	QWORD PTR [rsp+40], rbp
	mov	QWORD PTR [rsp+32], rax
	call	?fatal@xrDebug@@QEAAXPEBDH00ZZ		; xrDebug::fatal

; 353  : 	return 0;

	xor	eax, eax

; 354  : }

	add	rsp, 72					; 00000048H
	pop	r14
	pop	r13
	pop	r12
	pop	rbp
	ret	0
?r_string@CInifile@@QEAAPEBDPEBD0@Z ENDP		; CInifile::r_string
_TEXT	ENDS
; Function compile flags: /Ogtpy
; File c:\users\nummer\documents\github\olr-3.0\src\xray\xrcore\xr_ini.cpp
; File c:\users\nummer\documents\github\olr-3.0\src\xray\xrcore\xrstring.h
; File c:\users\nummer\documents\github\olr-3.0\src\xray\xrcore\xr_ini.cpp
; File c:\program files (x86)\microsoft visual studio 12.0\vc\include\string.h
; File c:\users\nummer\documents\github\olr-3.0\src\xray\xrcore\_std_extensions.h
; File c:\users\nummer\documents\github\olr-3.0\src\xray\xrcore\xr_ini.cpp
; File c:\users\nummer\documents\github\olr-3.0\src\xray\xrcore\xrstring.h
; File c:\users\nummer\documents\github\olr-3.0\src\xray\xrcore\xr_ini.cpp
; File c:\users\nummer\documents\github\olr-3.0\src\xray\xrcore\xrstring.h
; File c:\users\nummer\documents\github\olr-3.0\src\xray\xrcore\xr_ini.cpp
_TEXT	SEGMENT
_original$ = 32
this$ = 560
__$ReturnUdt$ = 568
S$ = 576
L$ = 584
?r_string_wb@CInifile@@QEAA?AVshared_str@@PEBD0@Z PROC	; CInifile::r_string_wb

; 356  : shared_str		CInifile::r_string_wb(LPCSTR S, LPCSTR L)	{

$LN47:
	mov	QWORD PTR [rsp+8], rbx
	push	rdi
	sub	rsp, 544				; 00000220H
	mov	rax, r8
	mov	rbx, rdx

; 357  : 	LPCSTR		_base		= r_string(S,L);

	mov	r8, r9
	mov	rdx, rax
	call	?r_string@CInifile@@QEAAPEBDPEBD0@Z	; CInifile::r_string

; 359  : 	if	(0==_base)					return	shared_str(0);

	test	rax, rax
	jne	SHORT $LN4@r_string_w
; File c:\users\nummer\documents\github\olr-3.0\src\xray\xrcore\xrstring.h

; 52   : 	void				_set		(str_c rhs) 					{	str_value* v = g_pStringContainer->dock(rhs); if (0!=v) v->dwReference++; _dec(); p_ = v;	}

	xor	edx, edx
; File c:\users\nummer\documents\github\olr-3.0\src\xray\xrcore\xr_ini.cpp

; 359  : 	if	(0==_base)					return	shared_str(0);

	jmp	SHORT $LN44@r_string_w
$LN4@r_string_w:
; File c:\program files (x86)\microsoft visual studio 12.0\vc\include\string.h

; 111  : __DEFINE_CPP_OVERLOAD_SECURE_FUNC_0_1(errno_t, strcpy_s, _Post_z_ char, _Dest, _In_z_ const char *, _Source)

	lea	rcx, QWORD PTR _original$[rsp]
	mov	r8, rax
	mov	edx, 512				; 00000200H
	call	QWORD PTR __imp_strcpy_s
; File c:\users\nummer\documents\github\olr-3.0\src\xray\xrcore\_std_extensions.h

; 270  : {	return (u32)strlen(S);			}

	lea	rcx, QWORD PTR _original$[rsp]
	or	rax, -1
$LL38@r_string_w:
	inc	rax
	cmp	BYTE PTR [rcx+rax], 0
	jne	SHORT $LL38@r_string_w
; File c:\users\nummer\documents\github\olr-3.0\src\xray\xrcore\xr_ini.cpp

; 364  : 	if	(0==_len)					return	shared_str("");

	test	eax, eax
	jne	SHORT $LN3@r_string_w
; File c:\users\nummer\documents\github\olr-3.0\src\xray\xrcore\xrstring.h

; 52   : 	void				_set		(str_c rhs) 					{	str_value* v = g_pStringContainer->dock(rhs); if (0!=v) v->dwReference++; _dec(); p_ = v;	}

	lea	rdx, OFFSET FLAT:??_C@_00CNPNBAHC@?$AA@
; File c:\users\nummer\documents\github\olr-3.0\src\xray\xrcore\xr_ini.cpp

; 364  : 	if	(0==_len)					return	shared_str("");

	jmp	SHORT $LN44@r_string_w
$LN3@r_string_w:

; 365  : 	if	('"'==_original[_len-1])	_original[_len-1]=0;				// skip end

	dec	eax
	cmp	BYTE PTR _original$[rsp+rax], 34	; 00000022H
	jne	SHORT $LN2@r_string_w
	mov	BYTE PTR _original$[rsp+rax], 0
$LN2@r_string_w:

; 366  : 	if	('"'==_original[0])			return	shared_str(&_original[0] + 1);	// skip begin

	cmp	BYTE PTR _original$[rsp], 34		; 00000022H
	jne	SHORT $LN1@r_string_w
	lea	rdx, QWORD PTR _original$[rsp+1]
	mov	rcx, rbx
	call	??0shared_str@@QEAA@PEBD@Z		; shared_str::shared_str
	jmp	SHORT $LN45@r_string_w
$LN1@r_string_w:
; File c:\users\nummer\documents\github\olr-3.0\src\xray\xrcore\xrstring.h

; 52   : 	void				_set		(str_c rhs) 					{	str_value* v = g_pStringContainer->dock(rhs); if (0!=v) v->dwReference++; _dec(); p_ = v;	}

	lea	rdx, QWORD PTR _original$[rsp]
$LN44@r_string_w:

; 53   : 	void				_set		(shared_str const &rhs)			{	str_value* v = rhs.p_; if (0!=v) v->dwReference++; _dec(); p_ = v;							}
; 54   : 	const str_value*	_get		()	const						{	return p_;																					}
; 55   : public:
; 56   : 	// construction
; 57   : 						shared_str	()								{	p_ = 0;											}
; 58   : 						shared_str	(str_c rhs) 					{	p_ = 0;	_set(rhs);								}

	xor	edi, edi
	mov	QWORD PTR [rbx], rdi

; 52   : 	void				_set		(str_c rhs) 					{	str_value* v = g_pStringContainer->dock(rhs); if (0!=v) v->dwReference++; _dec(); p_ = v;	}

	mov	rcx, QWORD PTR ?g_pStringContainer@@3PEAVstr_container@@EA ; g_pStringContainer
	call	?dock@str_container@@QEAAPEAUstr_value@@PEBD@Z ; str_container::dock
	test	rax, rax
	je	SHORT $LN31@r_string_w
	inc	DWORD PTR [rax]
$LN31@r_string_w:

; 50   : 	void				_dec		()								{	if (0==p_) return;	p_->dwReference--; 	if (0==p_->dwReference)	p_=0;						}

	mov	rcx, QWORD PTR [rbx]
	test	rcx, rcx
	je	SHORT $LN34@r_string_w
	dec	DWORD PTR [rcx]
	mov	rcx, QWORD PTR [rbx]
	cmp	DWORD PTR [rcx], edi
	jne	SHORT $LN34@r_string_w
	mov	QWORD PTR [rbx], rdi
$LN34@r_string_w:

; 52   : 	void				_set		(str_c rhs) 					{	str_value* v = g_pStringContainer->dock(rhs); if (0!=v) v->dwReference++; _dec(); p_ = v;	}

	mov	QWORD PTR [rbx], rax
$LN45@r_string_w:
; File c:\users\nummer\documents\github\olr-3.0\src\xray\xrcore\xr_ini.cpp

; 367  : 	return									shared_str(_original);

	mov	rax, rbx

; 368  : }

	mov	rbx, QWORD PTR [rsp+560]
	add	rsp, 544				; 00000220H
	pop	rdi
	ret	0
?r_string_wb@CInifile@@QEAA?AVshared_str@@PEBD0@Z ENDP	; CInifile::r_string_wb
_TEXT	ENDS
; Function compile flags: /Ogtpy
; File c:\users\nummer\documents\github\olr-3.0\src\xray\xrcore\xr_ini.cpp
_TEXT	SEGMENT
this$ = 48
S$ = 56
L$ = 64
?r_u8@CInifile@@QEAAEPEBD0@Z PROC			; CInifile::r_u8

; 371  : {

$LN4:
	sub	rsp, 40					; 00000028H

; 372  : 	LPCSTR		C = r_string(S,L);

	call	?r_string@CInifile@@QEAAPEBDPEBD0@Z	; CInifile::r_string

; 373  : 	return		u8(atoi(C));

	mov	rcx, rax

; 374  : }

	add	rsp, 40					; 00000028H

; 373  : 	return		u8(atoi(C));

	rex_jmp	QWORD PTR __imp_atoi
?r_u8@CInifile@@QEAAEPEBD0@Z ENDP			; CInifile::r_u8
_TEXT	ENDS
; Function compile flags: /Ogtpy
; File c:\users\nummer\documents\github\olr-3.0\src\xray\xrcore\xr_ini.cpp
_TEXT	SEGMENT
this$ = 48
S$ = 56
L$ = 64
?r_u16@CInifile@@QEAAGPEBD0@Z PROC			; CInifile::r_u16

; 376  : {

$LN4:
	sub	rsp, 40					; 00000028H

; 377  : 	LPCSTR		C = r_string(S,L);

	call	?r_string@CInifile@@QEAAPEBDPEBD0@Z	; CInifile::r_string

; 378  : 	return		u16(atoi(C));

	mov	rcx, rax

; 379  : }

	add	rsp, 40					; 00000028H

; 378  : 	return		u16(atoi(C));

	rex_jmp	QWORD PTR __imp_atoi
?r_u16@CInifile@@QEAAGPEBD0@Z ENDP			; CInifile::r_u16
_TEXT	ENDS
; Function compile flags: /Ogtpy
; File c:\users\nummer\documents\github\olr-3.0\src\xray\xrcore\xr_ini.cpp
_TEXT	SEGMENT
this$ = 48
S$ = 56
L$ = 64
?r_u32@CInifile@@QEAAIPEBD0@Z PROC			; CInifile::r_u32

; 381  : {

$LN4:
	sub	rsp, 40					; 00000028H

; 382  : 	LPCSTR		C = r_string(S,L);

	call	?r_string@CInifile@@QEAAPEBDPEBD0@Z	; CInifile::r_string

; 383  : 	return		u32(atoi(C));

	mov	rcx, rax

; 384  : }

	add	rsp, 40					; 00000028H

; 383  : 	return		u32(atoi(C));

	rex_jmp	QWORD PTR __imp_atoi
?r_u32@CInifile@@QEAAIPEBD0@Z ENDP			; CInifile::r_u32
_TEXT	ENDS
; Function compile flags: /Ogtpy
; File c:\users\nummer\documents\github\olr-3.0\src\xray\xrcore\xr_ini.cpp
_TEXT	SEGMENT
this$ = 48
S$ = 56
L$ = 64
?r_s8@CInifile@@QEAACPEBD0@Z PROC			; CInifile::r_s8

; 386  : {

$LN4:
	sub	rsp, 40					; 00000028H

; 387  : 	LPCSTR		C = r_string(S,L);

	call	?r_string@CInifile@@QEAAPEBDPEBD0@Z	; CInifile::r_string

; 388  : 	return		s8(atoi(C));

	mov	rcx, rax

; 389  : }

	add	rsp, 40					; 00000028H

; 388  : 	return		s8(atoi(C));

	rex_jmp	QWORD PTR __imp_atoi
?r_s8@CInifile@@QEAACPEBD0@Z ENDP			; CInifile::r_s8
_TEXT	ENDS
; Function compile flags: /Ogtpy
; File c:\users\nummer\documents\github\olr-3.0\src\xray\xrcore\xr_ini.cpp
_TEXT	SEGMENT
this$ = 48
S$ = 56
L$ = 64
?r_s16@CInifile@@QEAAFPEBD0@Z PROC			; CInifile::r_s16

; 391  : {

$LN4:
	sub	rsp, 40					; 00000028H

; 392  : 	LPCSTR		C = r_string(S,L);

	call	?r_string@CInifile@@QEAAPEBDPEBD0@Z	; CInifile::r_string

; 393  : 	return		s16(atoi(C));

	mov	rcx, rax

; 394  : }

	add	rsp, 40					; 00000028H

; 393  : 	return		s16(atoi(C));

	rex_jmp	QWORD PTR __imp_atoi
?r_s16@CInifile@@QEAAFPEBD0@Z ENDP			; CInifile::r_s16
_TEXT	ENDS
; Function compile flags: /Ogtpy
; File c:\users\nummer\documents\github\olr-3.0\src\xray\xrcore\xr_ini.cpp
_TEXT	SEGMENT
this$ = 48
S$ = 56
L$ = 64
?r_s32@CInifile@@QEAAHPEBD0@Z PROC			; CInifile::r_s32

; 396  : {

$LN4:
	sub	rsp, 40					; 00000028H

; 397  : 	LPCSTR		C = r_string(S,L);

	call	?r_string@CInifile@@QEAAPEBDPEBD0@Z	; CInifile::r_string

; 398  : 	return		s32(atoi(C));

	mov	rcx, rax

; 399  : }

	add	rsp, 40					; 00000028H

; 398  : 	return		s32(atoi(C));

	rex_jmp	QWORD PTR __imp_atoi
?r_s32@CInifile@@QEAAHPEBD0@Z ENDP			; CInifile::r_s32
_TEXT	ENDS
; Function compile flags: /Ogtpy
; File c:\users\nummer\documents\github\olr-3.0\src\xray\xrcore\xr_ini.cpp
_TEXT	SEGMENT
this$ = 48
S$ = 56
L$ = 64
?r_float@CInifile@@QEAAMPEBD0@Z PROC			; CInifile::r_float

; 401  : {

$LN4:
	sub	rsp, 40					; 00000028H

; 402  : 	LPCSTR		C = r_string(S,L);

	call	?r_string@CInifile@@QEAAPEBDPEBD0@Z	; CInifile::r_string

; 403  : 	return		float(atof( C ));

	mov	rcx, rax
	call	QWORD PTR __imp_atof
	cvtsd2ss xmm0, xmm0

; 404  : }

	add	rsp, 40					; 00000028H
	ret	0
?r_float@CInifile@@QEAAMPEBD0@Z ENDP			; CInifile::r_float
_TEXT	ENDS
; Function compile flags: /Ogtpy
; File c:\users\nummer\documents\github\olr-3.0\src\xray\xrcore\xr_ini.cpp
_TEXT	SEGMENT
this$ = 64
__$ReturnUdt$ = 72
S$ = 80
L$ = 88
?r_fcolor@CInifile@@QEAA?AU?$_color@M@@PEBD0@Z PROC	; CInifile::r_fcolor

; 406  : {

$LN4:
	push	rbx
	sub	rsp, 48					; 00000030H
	mov	rax, r8
	mov	rbx, rdx

; 407  : 	LPCSTR		C = r_string(S,L);

	mov	r8, r9
	mov	rdx, rax
	call	?r_string@CInifile@@QEAAPEBDPEBD0@Z	; CInifile::r_string

; 408  : 	Fcolor		V={0,0,0,0};

	xor	edx, edx
	lea	r8, QWORD PTR [rbx+8]
	lea	rcx, QWORD PTR [rbx+12]
	mov	DWORD PTR [r8], edx
	lea	r9, QWORD PTR [rbx+4]
	mov	DWORD PTR [rcx], edx

; 409  : 	sscanf		(C,"%f,%f,%f,%f",&V.r,&V.g,&V.b,&V.a);

	mov	QWORD PTR [rsp+40], rcx
	mov	DWORD PTR [r9], edx
	mov	DWORD PTR [rbx], edx
	mov	QWORD PTR [rsp+32], r8
	lea	rdx, OFFSET FLAT:??_C@_0M@JJJBFJKB@?$CFf?0?$CFf?0?$CFf?0?$CFf?$AA@
	mov	r8, rbx
	mov	rcx, rax
	call	QWORD PTR __imp_sscanf

; 410  : 	return V;

	mov	rax, rbx

; 411  : }

	add	rsp, 48					; 00000030H
	pop	rbx
	ret	0
?r_fcolor@CInifile@@QEAA?AU?$_color@M@@PEBD0@Z ENDP	; CInifile::r_fcolor
_TEXT	ENDS
; Function compile flags: /Ogtpy
; File c:\users\nummer\documents\github\olr-3.0\src\xray\xrcore\xr_ini.cpp
; File c:\users\nummer\documents\github\olr-3.0\src\xray\xrcore\_color.h
; File c:\users\nummer\documents\github\olr-3.0\src\xray\xrcore\xr_ini.cpp
; File c:\users\nummer\documents\github\olr-3.0\src\xray\xrcore\_color.h
; File c:\users\nummer\documents\github\olr-3.0\src\xray\xrcore\xr_ini.cpp
_TEXT	SEGMENT
a$ = 48
g$ = 52
b$ = 56
this$ = 80
S$ = 88
L$ = 96
r$ = 104
?r_color@CInifile@@QEAAIPEBD0@Z PROC			; CInifile::r_color

; 413  : {

$LN8:
	sub	rsp, 72					; 00000048H

; 414  : 	LPCSTR		C = r_string(S,L);

	call	?r_string@CInifile@@QEAAPEBDPEBD0@Z	; CInifile::r_string

; 415  : 	u32			r=0,g=0,b=0,a=255;

	xor	ecx, ecx

; 416  : 	sscanf		(C,"%d,%d,%d,%d",&r,&g,&b,&a);

	lea	r9, QWORD PTR g$[rsp]
	mov	DWORD PTR r$[rsp], ecx
	mov	DWORD PTR g$[rsp], ecx
	mov	DWORD PTR b$[rsp], ecx
	lea	rcx, QWORD PTR a$[rsp]
	lea	r8, QWORD PTR r$[rsp]
	lea	rdx, OFFSET FLAT:??_C@_0M@MLCONGPP@?$CFd?0?$CFd?0?$CFd?0?$CFd?$AA@
	mov	QWORD PTR [rsp+40], rcx
	lea	rcx, QWORD PTR b$[rsp]
	mov	DWORD PTR a$[rsp], 255			; 000000ffH
	mov	QWORD PTR [rsp+32], rcx
	mov	rcx, rax
	call	QWORD PTR __imp_sscanf

; 417  : 	return color_rgba(r,g,b,a);

	mov	ecx, DWORD PTR a$[rsp]
	movzx	eax, BYTE PTR r$[rsp]
	shl	ecx, 8
	or	eax, ecx
	movzx	ecx, BYTE PTR g$[rsp]
; File c:\users\nummer\documents\github\olr-3.0\src\xray\xrcore\_color.h

; 5    : ICF u32	color_argb	(u32 a, u32 r, u32 g, u32 b)	{	return ((a&0xff)<<24)|((r&0xff)<<16)|((g&0xff)<<8)|(b&0xff);	}

	shl	eax, 8
; File c:\users\nummer\documents\github\olr-3.0\src\xray\xrcore\xr_ini.cpp

; 417  : 	return color_rgba(r,g,b,a);

	or	eax, ecx
; File c:\users\nummer\documents\github\olr-3.0\src\xray\xrcore\_color.h

; 5    : ICF u32	color_argb	(u32 a, u32 r, u32 g, u32 b)	{	return ((a&0xff)<<24)|((r&0xff)<<16)|((g&0xff)<<8)|(b&0xff);	}

	movzx	ecx, BYTE PTR b$[rsp]
	shl	eax, 8
	or	eax, ecx
; File c:\users\nummer\documents\github\olr-3.0\src\xray\xrcore\xr_ini.cpp

; 418  : }

	add	rsp, 72					; 00000048H
	ret	0
?r_color@CInifile@@QEAAIPEBD0@Z ENDP			; CInifile::r_color
_TEXT	ENDS
; Function compile flags: /Ogtpy
; File c:\users\nummer\documents\github\olr-3.0\src\xray\xrcore\xr_ini.cpp
_TEXT	SEGMENT
this$ = 48
__$ReturnUdt$ = 56
S$ = 64
L$ = 72
?r_ivector2@CInifile@@QEAA?AU?$_vector2@H@@PEBD0@Z PROC	; CInifile::r_ivector2

; 421  : {

$LN4:
	push	rbx
	sub	rsp, 32					; 00000020H
	mov	rax, r8
	mov	rbx, rdx

; 422  : 	LPCSTR		C = r_string(S,L);

	mov	r8, r9
	mov	rdx, rax
	call	?r_string@CInifile@@QEAAPEBDPEBD0@Z	; CInifile::r_string

; 423  : 	Ivector2	V={0,0};

	xor	ecx, ecx
	lea	r9, QWORD PTR [rbx+4]
	mov	DWORD PTR [rbx], ecx
	mov	DWORD PTR [r9], ecx

; 424  : 	sscanf		(C,"%d,%d",&V.x,&V.y);

	lea	rdx, OFFSET FLAT:??_C@_05KABNCBHK@?$CFd?0?$CFd?$AA@
	mov	rcx, rax
	mov	r8, rbx
	call	QWORD PTR __imp_sscanf

; 425  : 	return V;

	mov	rax, rbx

; 426  : }

	add	rsp, 32					; 00000020H
	pop	rbx
	ret	0
?r_ivector2@CInifile@@QEAA?AU?$_vector2@H@@PEBD0@Z ENDP	; CInifile::r_ivector2
_TEXT	ENDS
; Function compile flags: /Ogtpy
; File c:\users\nummer\documents\github\olr-3.0\src\xray\xrcore\xr_ini.cpp
_TEXT	SEGMENT
this$ = 64
__$ReturnUdt$ = 72
S$ = 80
L$ = 88
?r_ivector3@CInifile@@QEAA?AU?$_vector3@H@@PEBD0@Z PROC	; CInifile::r_ivector3

; 428  : {

$LN4:
	push	rbx
	sub	rsp, 48					; 00000030H
	mov	rax, r8
	mov	rbx, rdx

; 429  : 	LPCSTR		C = r_string(S,L);

	mov	r8, r9
	mov	rdx, rax
	call	?r_string@CInifile@@QEAAPEBDPEBD0@Z	; CInifile::r_string

; 430  : 	Ivector		V={0,0,0};

	xor	edx, edx
	lea	rcx, QWORD PTR [rbx+8]
	mov	DWORD PTR [rcx], edx
	lea	r9, QWORD PTR [rbx+4]
	mov	DWORD PTR [rbx], edx
	mov	DWORD PTR [r9], edx

; 431  : 	sscanf		(C,"%d,%d,%d",&V.x,&V.y,&V.z);

	mov	QWORD PTR [rsp+32], rcx
	lea	rdx, OFFSET FLAT:??_C@_08GDAMKODC@?$CFd?0?$CFd?0?$CFd?$AA@
	mov	r8, rbx
	mov	rcx, rax
	call	QWORD PTR __imp_sscanf

; 432  : 	return V;

	mov	rax, rbx

; 433  : }

	add	rsp, 48					; 00000030H
	pop	rbx
	ret	0
?r_ivector3@CInifile@@QEAA?AU?$_vector3@H@@PEBD0@Z ENDP	; CInifile::r_ivector3
_TEXT	ENDS
; Function compile flags: /Ogtpy
; File c:\users\nummer\documents\github\olr-3.0\src\xray\xrcore\xr_ini.cpp
_TEXT	SEGMENT
this$ = 64
__$ReturnUdt$ = 72
S$ = 80
L$ = 88
?r_ivector4@CInifile@@QEAA?AU?$_vector4@H@@PEBD0@Z PROC	; CInifile::r_ivector4

; 435  : {

$LN4:
	push	rbx
	sub	rsp, 48					; 00000030H
	mov	rax, r8
	mov	rbx, rdx

; 436  : 	LPCSTR		C = r_string(S,L);

	mov	r8, r9
	mov	rdx, rax
	call	?r_string@CInifile@@QEAAPEBDPEBD0@Z	; CInifile::r_string

; 437  : 	Ivector4	V={0,0,0,0};

	xor	edx, edx
	lea	r8, QWORD PTR [rbx+8]
	lea	rcx, QWORD PTR [rbx+12]
	mov	DWORD PTR [r8], edx
	lea	r9, QWORD PTR [rbx+4]
	mov	DWORD PTR [rcx], edx

; 438  : 	sscanf		(C,"%d,%d,%d,%d",&V.x,&V.y,&V.z,&V.w);

	mov	QWORD PTR [rsp+40], rcx
	mov	DWORD PTR [r9], edx
	mov	DWORD PTR [rbx], edx
	mov	QWORD PTR [rsp+32], r8
	lea	rdx, OFFSET FLAT:??_C@_0M@MLCONGPP@?$CFd?0?$CFd?0?$CFd?0?$CFd?$AA@
	mov	r8, rbx
	mov	rcx, rax
	call	QWORD PTR __imp_sscanf

; 439  : 	return V;

	mov	rax, rbx

; 440  : }

	add	rsp, 48					; 00000030H
	pop	rbx
	ret	0
?r_ivector4@CInifile@@QEAA?AU?$_vector4@H@@PEBD0@Z ENDP	; CInifile::r_ivector4
_TEXT	ENDS
; Function compile flags: /Ogtpy
; File c:\users\nummer\documents\github\olr-3.0\src\xray\xrcore\xr_ini.cpp
_TEXT	SEGMENT
this$ = 48
__$ReturnUdt$ = 56
S$ = 64
L$ = 72
?r_fvector2@CInifile@@QEAA?AU?$_vector2@M@@PEBD0@Z PROC	; CInifile::r_fvector2

; 442  : {

$LN4:
	push	rbx
	sub	rsp, 32					; 00000020H
	mov	rax, r8
	mov	rbx, rdx

; 443  : 	LPCSTR		C = r_string(S,L);

	mov	r8, r9
	mov	rdx, rax
	call	?r_string@CInifile@@QEAAPEBDPEBD0@Z	; CInifile::r_string

; 444  : 	Fvector2	V={0.f,0.f};

	xor	ecx, ecx
	lea	r9, QWORD PTR [rbx+4]
	mov	DWORD PTR [rbx], ecx
	mov	DWORD PTR [r9], ecx

; 445  : 	sscanf		(C,"%f,%f",&V.x,&V.y);

	lea	rdx, OFFSET FLAT:??_C@_05OIOLBAJI@?$CFf?0?$CFf?$AA@
	mov	rcx, rax
	mov	r8, rbx
	call	QWORD PTR __imp_sscanf

; 446  : 	return V;

	mov	rax, rbx

; 447  : }

	add	rsp, 32					; 00000020H
	pop	rbx
	ret	0
?r_fvector2@CInifile@@QEAA?AU?$_vector2@M@@PEBD0@Z ENDP	; CInifile::r_fvector2
_TEXT	ENDS
; Function compile flags: /Ogtpy
; File c:\users\nummer\documents\github\olr-3.0\src\xray\xrcore\xr_ini.cpp
_TEXT	SEGMENT
this$ = 64
__$ReturnUdt$ = 72
S$ = 80
L$ = 88
?r_fvector3@CInifile@@QEAA?AU?$_vector3@M@@PEBD0@Z PROC	; CInifile::r_fvector3

; 449  : {

$LN4:
	push	rbx
	sub	rsp, 48					; 00000030H
	mov	rax, r8
	mov	rbx, rdx

; 450  : 	LPCSTR		C = r_string(S,L);

	mov	r8, r9
	mov	rdx, rax
	call	?r_string@CInifile@@QEAAPEBDPEBD0@Z	; CInifile::r_string

; 451  : 	Fvector3	V={0.f,0.f,0.f};

	xor	edx, edx
	lea	rcx, QWORD PTR [rbx+8]
	mov	DWORD PTR [rcx], edx
	lea	r9, QWORD PTR [rbx+4]
	mov	DWORD PTR [rbx], edx
	mov	DWORD PTR [r9], edx

; 452  : 	sscanf		(C,"%f,%f,%f",&V.x,&V.y,&V.z);

	mov	QWORD PTR [rsp+32], rcx
	lea	rdx, OFFSET FLAT:??_C@_08GJNPJIKN@?$CFf?0?$CFf?0?$CFf?$AA@
	mov	r8, rbx
	mov	rcx, rax
	call	QWORD PTR __imp_sscanf

; 453  : 	return V;

	mov	rax, rbx

; 454  : }

	add	rsp, 48					; 00000030H
	pop	rbx
	ret	0
?r_fvector3@CInifile@@QEAA?AU?$_vector3@M@@PEBD0@Z ENDP	; CInifile::r_fvector3
_TEXT	ENDS
; Function compile flags: /Ogtpy
; File c:\users\nummer\documents\github\olr-3.0\src\xray\xrcore\xr_ini.cpp
_TEXT	SEGMENT
this$ = 64
__$ReturnUdt$ = 72
S$ = 80
L$ = 88
?r_fvector4@CInifile@@QEAA?AU?$_vector4@M@@PEBD0@Z PROC	; CInifile::r_fvector4

; 456  : {

$LN4:
	push	rbx
	sub	rsp, 48					; 00000030H
	mov	rax, r8
	mov	rbx, rdx

; 457  : 	LPCSTR		C = r_string(S,L);

	mov	r8, r9
	mov	rdx, rax
	call	?r_string@CInifile@@QEAAPEBDPEBD0@Z	; CInifile::r_string

; 458  : 	Fvector4	V={0.f,0.f,0.f,0.f};

	xor	edx, edx
	lea	r8, QWORD PTR [rbx+8]
	lea	rcx, QWORD PTR [rbx+12]
	mov	DWORD PTR [r8], edx
	lea	r9, QWORD PTR [rbx+4]
	mov	DWORD PTR [rcx], edx

; 459  : 	sscanf		(C,"%f,%f,%f,%f",&V.x,&V.y,&V.z,&V.w);

	mov	QWORD PTR [rsp+40], rcx
	mov	DWORD PTR [r9], edx
	mov	DWORD PTR [rbx], edx
	mov	QWORD PTR [rsp+32], r8
	lea	rdx, OFFSET FLAT:??_C@_0M@JJJBFJKB@?$CFf?0?$CFf?0?$CFf?0?$CFf?$AA@
	mov	r8, rbx
	mov	rcx, rax
	call	QWORD PTR __imp_sscanf

; 460  : 	return V;

	mov	rax, rbx

; 461  : }

	add	rsp, 48					; 00000030H
	pop	rbx
	ret	0
?r_fvector4@CInifile@@QEAA?AU?$_vector4@M@@PEBD0@Z ENDP	; CInifile::r_fvector4
_TEXT	ENDS
; Function compile flags: /Ogtpy
; File c:\users\nummer\documents\github\olr-3.0\src\xray\xrcore\xr_ini.cpp
; File c:\users\nummer\documents\github\olr-3.0\src\xray\xrcore\_std_extensions.h
; File c:\users\nummer\documents\github\olr-3.0\src\xray\xrcore\xr_ini.cpp
; File c:\users\nummer\documents\github\olr-3.0\src\xray\xrcore\_std_extensions.h
; File c:\users\nummer\documents\github\olr-3.0\src\xray\xrcore\xr_ini.cpp
; File c:\users\nummer\documents\github\olr-3.0\src\xray\xrcore\_std_extensions.h
; File c:\users\nummer\documents\github\olr-3.0\src\xray\xrcore\xr_ini.cpp
_TEXT	SEGMENT
this$ = 48
S$ = 56
L$ = 64
B$ = 72
?r_bool@CInifile@@QEAAHPEBD0@Z PROC			; CInifile::r_bool

; 463  : {

$LN24:
	sub	rsp, 40					; 00000028H

; 464  : 	LPCSTR		C = r_string(S,L);

	call	?r_string@CInifile@@QEAAPEBDPEBD0@Z	; CInifile::r_string

; 465  : 	char		B[8];
; 466  : 	strncpy		(B,C,7);

	lea	rcx, QWORD PTR B$[rsp]
	mov	r8d, 7
	mov	rdx, rax
	call	QWORD PTR __imp_strncpy

; 467  : 	strlwr		(B);

	lea	rcx, QWORD PTR B$[rsp]
	call	QWORD PTR __imp_strlwr
; File c:\users\nummer\documents\github\olr-3.0\src\xray\xrcore\_std_extensions.h

; 279  : {	return (int)strcmp(S1,S2);  }

	movzx	eax, BYTE PTR B$[rsp]
	movzx	edx, BYTE PTR B$[rsp+1]
	cmp	al, BYTE PTR ??_C@_02LIELOMNJ@on?$AA@
	jne	SHORT $LN22@r_bool
	cmp	dl, BYTE PTR ??_C@_02LIELOMNJ@on?$AA@+1
	jne	SHORT $LN22@r_bool
	movzx	eax, BYTE PTR B$[rsp+2]
	cmp	al, BYTE PTR ??_C@_02LIELOMNJ@on?$AA@+2
	je	SHORT $LN5@r_bool
$LN22@r_bool:
	xor	ecx, ecx
	lea	r8, QWORD PTR B$[rsp]
	lea	r9, OFFSET FLAT:??_C@_03ICICOMAL@yes?$AA@
	npad	3
$LL20@r_bool:
	movzx	eax, BYTE PTR [r8+rcx]
	inc	rcx
	cmp	al, BYTE PTR [r9+rcx-1]
	jne	SHORT $LN21@r_bool
	cmp	rcx, 4
	jne	SHORT $LL20@r_bool
; File c:\users\nummer\documents\github\olr-3.0\src\xray\xrcore\xr_ini.cpp

; 468  :     return 		IsBOOL(B);

	mov	eax, 1

; 469  : }

	add	rsp, 40					; 00000028H
	ret	0
$LN21@r_bool:
; File c:\users\nummer\documents\github\olr-3.0\src\xray\xrcore\_std_extensions.h

; 279  : {	return (int)strcmp(S1,S2);  }

	xor	eax, eax
	lea	r8, QWORD PTR B$[rsp]
	lea	r9, OFFSET FLAT:??_C@_04LOAJBDKD@true?$AA@
	npad	3
$LL17@r_bool:
	movzx	ecx, BYTE PTR [r8+rax]
	inc	rax
	cmp	cl, BYTE PTR [r9+rax-1]
	jne	SHORT $LN18@r_bool
	cmp	rax, 5
	jne	SHORT $LL17@r_bool
; File c:\users\nummer\documents\github\olr-3.0\src\xray\xrcore\xr_ini.cpp

; 468  :     return 		IsBOOL(B);

	mov	eax, 1

; 469  : }

	add	rsp, 40					; 00000028H
	ret	0
$LN18@r_bool:
; File c:\users\nummer\documents\github\olr-3.0\src\xray\xrcore\_std_extensions.h

; 279  : {	return (int)strcmp(S1,S2);  }

	movzx	eax, BYTE PTR B$[rsp]
	cmp	al, BYTE PTR ??_C@_01HIHLOKLC@1?$AA@
	jne	SHORT $LN15@r_bool
	cmp	dl, BYTE PTR ??_C@_01HIHLOKLC@1?$AA@+1
	jne	SHORT $LN15@r_bool
$LN5@r_bool:
; File c:\users\nummer\documents\github\olr-3.0\src\xray\xrcore\xr_ini.cpp

; 468  :     return 		IsBOOL(B);

	mov	eax, 1

; 469  : }

	add	rsp, 40					; 00000028H
	ret	0
$LN15@r_bool:

; 468  :     return 		IsBOOL(B);

	xor	eax, eax

; 469  : }

	add	rsp, 40					; 00000028H
	ret	0
?r_bool@CInifile@@QEAAHPEBD0@Z ENDP			; CInifile::r_bool
_TEXT	ENDS
; Function compile flags: /Ogtpy
; File c:\users\nummer\documents\github\olr-3.0\src\xray\xrcore\xr_ini.cpp
; File c:\users\nummer\documents\github\olr-3.0\src\xray\xrcore\xrmemory_subst_msvc.h
; File c:\users\nummer\documents\github\olr-3.0\src\xray\xrcore\xr_ini.cpp
_TEXT	SEGMENT
szFileName$ = 64
ReadOnly$ = 72
?Create@CInifile@@SAPEAV1@PEBDH@Z PROC			; CInifile::Create

; 9    : {	return xr_new<CInifile>(szFileName,ReadOnly); }

$LN10:
	mov	QWORD PTR [rsp+8], rbx
	push	rdi
	sub	rsp, 48					; 00000030H
	mov	rdi, rcx
	mov	ebx, edx
; File c:\users\nummer\documents\github\olr-3.0\src\xray\xrcore\xrmemory_subst_msvc.h

; 80   : 	T* ptr	= (T*)Memory.mem_alloc(sizeof(T));

	lea	rcx, OFFSET FLAT:?Memory@@3VxrMemory@@A	; Memory
	mov	edx, 48					; 00000030H
	call	?mem_alloc@xrMemory@@QEAAPEAX_K@Z	; xrMemory::mem_alloc

; 81   : 	return new (ptr) T(p1,p2);

	test	rax, rax
	je	SHORT $LN5@Create
	mov	r9d, 1
	mov	r8d, ebx
	mov	rdx, rdi
	mov	rcx, rax
	mov	DWORD PTR [rsp+32], 1
	call	??0CInifile@@QEAA@PEBDHHH@Z		; CInifile::CInifile
; File c:\users\nummer\documents\github\olr-3.0\src\xray\xrcore\xr_ini.cpp

; 9    : {	return xr_new<CInifile>(szFileName,ReadOnly); }

	mov	rbx, QWORD PTR [rsp+64]
	add	rsp, 48					; 00000030H
	pop	rdi
	ret	0
$LN5@Create:
	mov	rbx, QWORD PTR [rsp+64]
	add	rsp, 48					; 00000030H
	pop	rdi
	ret	0
?Create@CInifile@@SAPEAV1@PEBDH@Z ENDP			; CInifile::Create
_TEXT	ENDS
; Function compile flags: /Ogtpy
; File c:\users\nummer\documents\github\olr-3.0\src\xray\xrcore\xr_ini.cpp
_TEXT	SEGMENT
ini$ = 48
?Destroy@CInifile@@SAXPEAV1@@Z PROC			; CInifile::Destroy

; 12   : {	xr_delete(ini); }

$LN4:
	mov	QWORD PTR [rsp+8], rcx
	sub	rsp, 40					; 00000028H
	lea	rcx, QWORD PTR ini$[rsp]
	call	??$xr_delete@VCInifile@@@@YAXAEAPEAVCInifile@@@Z ; xr_delete<CInifile>
	add	rsp, 40					; 00000028H
	ret	0
?Destroy@CInifile@@SAXPEAV1@@Z ENDP			; CInifile::Destroy
_TEXT	ENDS
; Function compile flags: /Ogtpy
; File c:\users\nummer\documents\github\olr-3.0\src\xray\xrcore\xr_ini.cpp
; File c:\users\nummer\documents\github\olr-3.0\src\xray\xrcore\xrstring.h
; File c:\users\nummer\documents\github\olr-3.0\src\xray\xrcore\xr_ini.cpp
; File c:\users\nummer\documents\github\olr-3.0\src\xray\xrcore\xrstring.h
; File c:\users\nummer\documents\github\olr-3.0\src\xray\xrcore\_std_extensions.h
; File c:\users\nummer\documents\github\olr-3.0\src\xray\xrcore\xr_ini.cpp
_TEXT	SEGMENT
x$ = 8
val$ = 16
?sect_pred@@YA_NPEBUSect@CInifile@@PEBD@Z PROC		; sect_pred
; File c:\users\nummer\documents\github\olr-3.0\src\xray\xrcore\xrstring.h

; 65   : 	str_c				operator*	() const						{	return p_?p_->value:0;							}

	mov	rax, QWORD PTR [rcx]
	xor	r9d, r9d
; File c:\users\nummer\documents\github\olr-3.0\src\xray\xrcore\xr_ini.cpp

; 15   : {

	mov	r8, rdx
; File c:\users\nummer\documents\github\olr-3.0\src\xray\xrcore\xrstring.h

; 65   : 	str_c				operator*	() const						{	return p_?p_->value:0;							}

	test	rax, rax
	je	SHORT $LN5@sect_pred
	add	rax, 12
	jmp	SHORT $LN6@sect_pred
$LN5@sect_pred:
	mov	rax, r9
$LN6@sect_pred:
; File c:\users\nummer\documents\github\olr-3.0\src\xray\xrcore\_std_extensions.h

; 279  : {	return (int)strcmp(S1,S2);  }

	sub	r8, rax
	npad	6
$LL9@sect_pred:
	movzx	edx, BYTE PTR [rax]
	movzx	ecx, BYTE PTR [rax+r8]
	sub	edx, ecx
	jne	SHORT $LN10@sect_pred
	inc	rax
	test	ecx, ecx
	jne	SHORT $LL9@sect_pred
$LN10@sect_pred:
; File c:\users\nummer\documents\github\olr-3.0\src\xray\xrcore\xr_ini.cpp

; 16   : 	return xr_strcmp(*x->Name,val)<0;

	test	edx, edx
	sets	al

; 17   : };

	ret	0
?sect_pred@@YA_NPEBUSect@CInifile@@PEBD@Z ENDP		; sect_pred
_TEXT	ENDS
; Function compile flags: /Ogtpy
; File c:\users\nummer\documents\github\olr-3.0\src\xray\xrcore\xr_ini.cpp
; File c:\users\nummer\documents\github\olr-3.0\src\xray\xrcore\xrstring.h
; File c:\users\nummer\documents\github\olr-3.0\src\xray\xrcore\xr_ini.cpp
; File c:\users\nummer\documents\github\olr-3.0\src\xray\xrcore\xrstring.h
; File c:\users\nummer\documents\github\olr-3.0\src\xray\xrcore\xr_ini.cpp
; File c:\users\nummer\documents\github\olr-3.0\src\xray\xrcore\xrstring.h
; File c:\users\nummer\documents\github\olr-3.0\src\xray\xrcore\_std_extensions.h
; File c:\users\nummer\documents\github\olr-3.0\src\xray\xrcore\xr_ini.cpp
; File c:\users\nummer\documents\github\olr-3.0\src\xray\xrcore\xrstring.h
; File c:\users\nummer\documents\github\olr-3.0\src\xray\xrcore\xr_ini.cpp
_TEXT	SEGMENT
x$ = 48
val$ = 56
?item_pred@@YA_NAEBUItem@CInifile@@PEBD@Z PROC		; item_pred

; 20   : {

$LN38:
	push	rbx
	sub	rsp, 32					; 00000020H
; File c:\users\nummer\documents\github\olr-3.0\src\xray\xrcore\xrstring.h

; 66   : 	bool				operator!	() const						{	return p_ == 0;									}

	mov	rax, QWORD PTR [rcx]
; File c:\users\nummer\documents\github\olr-3.0\src\xray\xrcore\xr_ini.cpp

; 20   : {

	mov	r8, rdx
	mov	rbx, rcx
; File c:\users\nummer\documents\github\olr-3.0\src\xray\xrcore\xrstring.h

; 66   : 	bool				operator!	() const						{	return p_ == 0;									}

	test	rax, rax
; File c:\users\nummer\documents\github\olr-3.0\src\xray\xrcore\xr_ini.cpp

; 21   :     if ((!x.first) || (!val))	return x.first<val;

	je	SHORT $LN2@item_pred
	test	rdx, rdx
	je	SHORT $LN2@item_pred
; File c:\users\nummer\documents\github\olr-3.0\src\xray\xrcore\xrstring.h

; 65   : 	str_c				operator*	() const						{	return p_?p_->value:0;							}

	add	rax, 12
; File c:\users\nummer\documents\github\olr-3.0\src\xray\xrcore\_std_extensions.h

; 279  : {	return (int)strcmp(S1,S2);  }

	sub	r8, rax
$LL35@item_pred:
	movzx	edx, BYTE PTR [rax]
	movzx	ecx, BYTE PTR [rax+r8]
	sub	edx, ecx
	jne	SHORT $LN36@item_pred
	inc	rax
	test	ecx, ecx
	jne	SHORT $LL35@item_pred
$LN36@item_pred:
; File c:\users\nummer\documents\github\olr-3.0\src\xray\xrcore\xr_ini.cpp

; 22   :     else				   		return xr_strcmp(*x.first,val)<0;

	xor	eax, eax
	test	edx, edx
	sets	al

; 23   : }

	add	rsp, 32					; 00000020H
	pop	rbx
	ret	0
$LN2@item_pred:
; File c:\users\nummer\documents\github\olr-3.0\src\xray\xrcore\xrstring.h

; 52   : 	void				_set		(str_c rhs) 					{	str_value* v = g_pStringContainer->dock(rhs); if (0!=v) v->dwReference++; _dec(); p_ = v;	}

	mov	rcx, QWORD PTR ?g_pStringContainer@@3PEAVstr_container@@EA ; g_pStringContainer
	call	?dock@str_container@@QEAAPEAUstr_value@@PEBD@Z ; str_container::dock
	test	rax, rax
	je	SHORT $LN13@item_pred
	inc	DWORD PTR [rax]
$LN13@item_pred:

; 67   : 	char				operator[]	(size_t id)						{	return p_->value[id];							}
; 68   : 	str_c				c_str		() const						{	return p_?p_->value:0;							}
; 69   : 
; 70   : 	// misc func
; 71   : 	u32					size		()						const	{	if (0==p_) return 0; else return p_->dwLength;	}
; 72   : 	void				swap		(shared_str & rhs)				{	str_value* tmp = p_; p_ = rhs.p_; rhs.p_ = tmp;	}
; 73   : 	bool				equal		(const shared_str & rhs) const	{	return (p_ == rhs.p_);							}
; 74   :     shared_str& __cdecl	sprintf		(const char* format, ...)		{
; 75   : 		string4096 	buf;
; 76   : 		va_list		p;
; 77   : 		va_start	(p,format);
; 78   : 		int vs_sz	= _vsnprintf(buf,sizeof(buf)-1,format,p); buf[sizeof(buf)-1]=0;
; 79   : 		va_end		(p);
; 80   : 		if (vs_sz)	_set(buf);	
; 81   : 		return 		(shared_str&)*this;
; 82   : 	}
; 83   : };
; 84   : 
; 85   : // res_ptr == res_ptr
; 86   : // res_ptr != res_ptr
; 87   : // const res_ptr == ptr
; 88   : // const res_ptr != ptr
; 89   : // ptr == const res_ptr
; 90   : // ptr != const res_ptr
; 91   : // res_ptr < res_ptr
; 92   : // res_ptr > res_ptr
; 93   : IC bool operator	==	(shared_str const & a, shared_str const & b)		{ return a._get() == b._get();					}
; 94   : IC bool operator	!=	(shared_str const & a, shared_str const & b)		{ return a._get() != b._get();					}
; 95   : IC bool operator	<	(shared_str const & a, shared_str const & b)		{ return a._get() <  b._get();					}

	cmp	QWORD PTR [rbx], rax
	setb	cl

; 50   : 	void				_dec		()								{	if (0==p_) return;	p_->dwReference--; 	if (0==p_->dwReference)	p_=0;						}

	test	rax, rax
	je	SHORT $LN25@item_pred
	dec	DWORD PTR [rax]
$LN25@item_pred:
; File c:\users\nummer\documents\github\olr-3.0\src\xray\xrcore\xr_ini.cpp

; 21   :     if ((!x.first) || (!val))	return x.first<val;

	movzx	eax, cl

; 23   : }

	add	rsp, 32					; 00000020H
	pop	rbx
	ret	0
?item_pred@@YA_NAEBUItem@CInifile@@PEBD@Z ENDP		; item_pred
_TEXT	ENDS
; Function compile flags: /Ogtpy
; File c:\users\nummer\documents\github\olr-3.0\src\xray\xrcore\xr_ini.cpp
_TEXT	SEGMENT
dest$ = 48
src$ = 56
?_parse@@YAXPEADPEBD@Z PROC				; _parse

; 29   : {

$LN32:
	mov	QWORD PTR [rsp+16], rbx
	push	rdi
	sub	rsp, 32					; 00000020H
	mov	rbx, rdx
	mov	rdi, rcx

; 30   : 	if (src) {

	test	rdx, rdx
	je	$LN27@parse

; 31   : 		BOOL bInsideSTR = false;
; 32   : 		while (*src) {

	movzx	eax, BYTE PTR [rdx]
	mov	QWORD PTR [rsp+48], rsi
	xor	esi, esi
	test	al, al
	je	SHORT $LN26@parse
$LL8@parse:

; 33   : 			if (isspace((u8)*src)) {

	movzx	ecx, al
	call	QWORD PTR __imp_isspace
	test	eax, eax
	je	SHORT $LN6@parse

; 34   : 				if (bInsideSTR) { *dest++ = *src++; continue; }

	movzx	eax, BYTE PTR [rbx]
	test	esi, esi
	je	SHORT $LN15@parse
	mov	BYTE PTR [rdi], al
	jmp	SHORT $LN30@parse
$LN15@parse:

; 35   : 				while (*src && isspace(*src)) src++;

	test	al, al
	je	SHORT $LN28@parse
$LL4@parse:
	movsx	ecx, al
	call	QWORD PTR __imp_isspace
	test	eax, eax
	je	SHORT $LN17@parse
	movzx	eax, BYTE PTR [rbx+1]
	inc	rbx
	test	al, al
	jne	SHORT $LL4@parse

; 41   : 		}
; 42   : 	}
; 43   : 	*dest = 0;

	mov	BYTE PTR [rdi], al
	mov	rsi, QWORD PTR [rsp+48]

; 44   : }

	mov	rbx, QWORD PTR [rsp+56]
	add	rsp, 32					; 00000020H
	pop	rdi
	ret	0
$LN6@parse:

; 36   : 				continue;
; 37   : 			} else if (*src=='"') {

	movzx	ecx, BYTE PTR [rbx]
	cmp	cl, 34					; 00000022H
	jne	SHORT $LN1@parse

; 38   : 				bInsideSTR = !bInsideSTR;

	xor	eax, eax
	test	esi, esi
	sete	al
	mov	esi, eax
$LN1@parse:

; 39   : 			}
; 40   : 			*dest++ = *src++;

	mov	BYTE PTR [rdi], cl
$LN30@parse:
	inc	rdi
	inc	rbx
$LN17@parse:

; 31   : 		BOOL bInsideSTR = false;
; 32   : 		while (*src) {

	movzx	eax, BYTE PTR [rbx]
	test	al, al
	jne	SHORT $LL8@parse
$LN28@parse:

; 41   : 		}
; 42   : 	}
; 43   : 	*dest = 0;

	mov	BYTE PTR [rdi], 0
	mov	rsi, QWORD PTR [rsp+48]

; 44   : }

	mov	rbx, QWORD PTR [rsp+56]
	add	rsp, 32					; 00000020H
	pop	rdi
	ret	0
$LN26@parse:

; 41   : 		}
; 42   : 	}
; 43   : 	*dest = 0;

	mov	BYTE PTR [rcx], sil
	mov	rsi, QWORD PTR [rsp+48]

; 44   : }

	mov	rbx, QWORD PTR [rsp+56]
	add	rsp, 32					; 00000020H
	pop	rdi
	ret	0
$LN27@parse:

; 41   : 		}
; 42   : 	}
; 43   : 	*dest = 0;

	mov	BYTE PTR [rcx], 0

; 44   : }

	mov	rbx, QWORD PTR [rsp+56]
	add	rsp, 32					; 00000020H
	pop	rdi
	ret	0
?_parse@@YAXPEADPEBD@Z ENDP				; _parse
_TEXT	ENDS
; Function compile flags: /Ogtpy
; File c:\users\nummer\documents\github\olr-3.0\src\xray\xrcore\xr_ini.cpp
_TEXT	SEGMENT
dest$ = 8
src$ = 16
?_decorate@@YAXPEADPEBD@Z PROC				; _decorate

; 48   : 	if (src) {

	test	rdx, rdx
	je	SHORT $LN17@decorate

; 49   : 		BOOL bInsideSTR = false;
; 50   : 		while (*src) {

	movzx	r8d, BYTE PTR [rdx]
	xor	r9d, r9d
	test	r8b, r8b
	je	SHORT $LN16@decorate
$LL7@decorate:

; 51   : 			if (*src == ',') {

	cmp	r8b, 44					; 0000002cH
	jne	SHORT $LN5@decorate

; 52   : 				if (bInsideSTR) { *dest++ = *src++; }

	test	r9d, r9d
	je	SHORT $LN4@decorate
	mov	BYTE PTR [rcx], r8b
	jmp	SHORT $LN18@decorate
$LN4@decorate:

; 53   : 				else			{ *dest++ = *src++; *dest++ = ' '; }

	mov	WORD PTR [rcx], 8236			; 0000202cH
	inc	rdx
	add	rcx, 2

; 54   : 				continue;

	jmp	SHORT $LN13@decorate
$LN5@decorate:

; 55   : 			} else if (*src=='"') {

	cmp	r8b, 34					; 00000022H
	jne	SHORT $LN1@decorate

; 56   : 				bInsideSTR = !bInsideSTR;

	xor	eax, eax
	test	r9d, r9d
	sete	al
	mov	r9d, eax
$LN1@decorate:

; 57   : 			}
; 58   : 			*dest++ = *src++;

	mov	BYTE PTR [rcx], r8b
$LN18@decorate:
	inc	rcx
	inc	rdx
$LN13@decorate:

; 49   : 		BOOL bInsideSTR = false;
; 50   : 		while (*src) {

	movzx	r8d, BYTE PTR [rdx]
	test	r8b, r8b
	jne	SHORT $LL7@decorate
$LN17@decorate:

; 59   : 		}
; 60   : 	}
; 61   : 	*dest = 0;

	mov	BYTE PTR [rcx], 0

; 62   : }

	ret	0
$LN16@decorate:

; 59   : 		}
; 60   : 	}
; 61   : 	*dest = 0;

	mov	BYTE PTR [rcx], r9b

; 62   : }

	ret	0
?_decorate@@YAXPEADPEBD@Z ENDP				; _decorate
_TEXT	ENDS
; Function compile flags: /Ogtpy
; File c:\users\nummer\documents\github\olr-3.0\src\xray\xrcore\xr_ini.cpp
; File c:\program files (x86)\microsoft visual studio 12.0\vc\include\algorithm
; File c:\program files (x86)\microsoft visual studio 12.0\vc\include\xutility
; File c:\users\nummer\documents\github\olr-3.0\src\xray\xrcore\xr_ini.cpp
; File c:\program files (x86)\microsoft visual studio 12.0\vc\include\xutility
; File c:\users\nummer\documents\github\olr-3.0\src\xray\xrcore\xr_ini.cpp
; File c:\program files (x86)\microsoft visual studio 12.0\vc\include\algorithm
; File c:\program files (x86)\microsoft visual studio 12.0\vc\include\xutility
; File c:\program files (x86)\microsoft visual studio 12.0\vc\include\algorithm
; File c:\program files (x86)\microsoft visual studio 12.0\vc\include\xutility
; File c:\users\nummer\documents\github\olr-3.0\src\xray\xrcore\xrstring.h
; File c:\users\nummer\documents\github\olr-3.0\src\xray\xrcore\xr_ini.cpp
; File c:\users\nummer\documents\github\olr-3.0\src\xray\xrcore\xrstring.h
; File c:\users\nummer\documents\github\olr-3.0\src\xray\xrcore\_std_extensions.h
; File c:\users\nummer\documents\github\olr-3.0\src\xray\xrcore\xr_ini.cpp
; File c:\users\nummer\documents\github\olr-3.0\src\xray\xrcore\xrstring.h
; File c:\program files (x86)\microsoft visual studio 12.0\vc\include\algorithm
; File c:\program files (x86)\microsoft visual studio 12.0\vc\include\vector
; File c:\users\nummer\documents\github\olr-3.0\src\xray\xrcore\xr_ini.cpp
; File c:\users\nummer\documents\github\olr-3.0\src\xray\xrcore\xrstring.h
; File c:\users\nummer\documents\github\olr-3.0\src\xray\xrcore\_std_extensions.h
; File c:\users\nummer\documents\github\olr-3.0\src\xray\xrcore\xr_ini.cpp
; File c:\users\nummer\documents\github\olr-3.0\src\xray\xrcore\xrstring.h
; File c:\users\nummer\documents\github\olr-3.0\src\xray\xrcore\xr_ini.cpp
_TEXT	SEGMENT
this$ = 64
L$ = 72
val$ = 80
?line_exist@Sect@CInifile@@QEAAHPEBDPEAPEBD@Z PROC	; CInifile::Sect::line_exist

; 66   : {

$LN137:
	push	rsi
	push	r12
	push	r14
	sub	rsp, 32					; 00000020H
; File c:\program files (x86)\microsoft visual studio 12.0\vc\include\algorithm

; 2535 : 			_Dist_type(_First))));

	mov	r14, QWORD PTR [rcx+8]
	mov	QWORD PTR [rsp+64], rbx
; File c:\program files (x86)\microsoft visual studio 12.0\vc\include\xutility

; 750  : 	_Off += _Last - _First;

	mov	rbx, QWORD PTR [rcx+16]
	sub	rbx, r14
	mov	QWORD PTR [rsp+88], r15
; File c:\users\nummer\documents\github\olr-3.0\src\xray\xrcore\xr_ini.cpp

; 66   : {

	mov	r12, r8
; File c:\program files (x86)\microsoft visual studio 12.0\vc\include\xutility

; 750  : 	_Off += _Last - _First;

	sar	rbx, 4
; File c:\users\nummer\documents\github\olr-3.0\src\xray\xrcore\xr_ini.cpp

; 66   : {

	mov	rsi, rdx
	mov	r15, rcx
; File c:\program files (x86)\microsoft visual studio 12.0\vc\include\algorithm

; 2508 : 	while (0 < _Count)

	test	rbx, rbx
	jle	$LN35@line_exist
	mov	QWORD PTR [rsp+72], rbp
	mov	QWORD PTR [rsp+80], rdi
	npad	1
$LL36@line_exist:

; 2510 : 		_Diff _Count2 = _Count / 2;

	mov	rax, rbx
	cdq
	sub	rax, rdx
	sar	rax, 1
; File c:\program files (x86)\microsoft visual studio 12.0\vc\include\xutility

; 690  : 	_Where += _Off;

	mov	rdi, rax
; File c:\program files (x86)\microsoft visual studio 12.0\vc\include\algorithm

; 2510 : 		_Diff _Count2 = _Count / 2;

	mov	rbp, rax
; File c:\program files (x86)\microsoft visual studio 12.0\vc\include\xutility

; 690  : 	_Where += _Off;

	add	rdi, rdi
; File c:\users\nummer\documents\github\olr-3.0\src\xray\xrcore\xrstring.h

; 66   : 	bool				operator!	() const						{	return p_ == 0;									}

	mov	rcx, QWORD PTR [r14+rdi*8]
	test	rcx, rcx
; File c:\users\nummer\documents\github\olr-3.0\src\xray\xrcore\xr_ini.cpp

; 21   :     if ((!x.first) || (!val))	return x.first<val;

	je	SHORT $LN52@line_exist
	test	rsi, rsi
	je	SHORT $LN52@line_exist
; File c:\users\nummer\documents\github\olr-3.0\src\xray\xrcore\xrstring.h

; 65   : 	str_c				operator*	() const						{	return p_?p_->value:0;							}

	add	rcx, 12
; File c:\users\nummer\documents\github\olr-3.0\src\xray\xrcore\_std_extensions.h

; 279  : {	return (int)strcmp(S1,S2);  }

	mov	r8, rsi
	sub	r8, rcx
	npad	4
$LL134@line_exist:
	movzx	edx, BYTE PTR [rcx]
	movzx	eax, BYTE PTR [rcx+r8]
	sub	edx, eax
	jne	SHORT $LN135@line_exist
	inc	rcx
	test	eax, eax
	jne	SHORT $LL134@line_exist
$LN135@line_exist:
; File c:\users\nummer\documents\github\olr-3.0\src\xray\xrcore\xr_ini.cpp

; 22   :     else				   		return xr_strcmp(*x.first,val)<0;

	test	edx, edx
	sets	cl
	jmp	SHORT $LN75@line_exist
$LN52@line_exist:
; File c:\users\nummer\documents\github\olr-3.0\src\xray\xrcore\xrstring.h

; 52   : 	void				_set		(str_c rhs) 					{	str_value* v = g_pStringContainer->dock(rhs); if (0!=v) v->dwReference++; _dec(); p_ = v;	}

	mov	rcx, QWORD PTR ?g_pStringContainer@@3PEAVstr_container@@EA ; g_pStringContainer
	mov	rdx, rsi
	call	?dock@str_container@@QEAAPEAUstr_value@@PEBD@Z ; str_container::dock
	test	rax, rax
	je	SHORT $LN63@line_exist
	inc	DWORD PTR [rax]
$LN63@line_exist:

; 67   : 	char				operator[]	(size_t id)						{	return p_->value[id];							}
; 68   : 	str_c				c_str		() const						{	return p_?p_->value:0;							}
; 69   : 
; 70   : 	// misc func
; 71   : 	u32					size		()						const	{	if (0==p_) return 0; else return p_->dwLength;	}
; 72   : 	void				swap		(shared_str & rhs)				{	str_value* tmp = p_; p_ = rhs.p_; rhs.p_ = tmp;	}
; 73   : 	bool				equal		(const shared_str & rhs) const	{	return (p_ == rhs.p_);							}
; 74   :     shared_str& __cdecl	sprintf		(const char* format, ...)		{
; 75   : 		string4096 	buf;
; 76   : 		va_list		p;
; 77   : 		va_start	(p,format);
; 78   : 		int vs_sz	= _vsnprintf(buf,sizeof(buf)-1,format,p); buf[sizeof(buf)-1]=0;
; 79   : 		va_end		(p);
; 80   : 		if (vs_sz)	_set(buf);	
; 81   : 		return 		(shared_str&)*this;
; 82   : 	}
; 83   : };
; 84   : 
; 85   : // res_ptr == res_ptr
; 86   : // res_ptr != res_ptr
; 87   : // const res_ptr == ptr
; 88   : // const res_ptr != ptr
; 89   : // ptr == const res_ptr
; 90   : // ptr != const res_ptr
; 91   : // res_ptr < res_ptr
; 92   : // res_ptr > res_ptr
; 93   : IC bool operator	==	(shared_str const & a, shared_str const & b)		{ return a._get() == b._get();					}
; 94   : IC bool operator	!=	(shared_str const & a, shared_str const & b)		{ return a._get() != b._get();					}
; 95   : IC bool operator	<	(shared_str const & a, shared_str const & b)		{ return a._get() <  b._get();					}

	cmp	QWORD PTR [r14+rdi*8], rax
	setb	cl

; 50   : 	void				_dec		()								{	if (0==p_) return;	p_->dwReference--; 	if (0==p_->dwReference)	p_=0;						}

	test	rax, rax
	je	SHORT $LN75@line_exist
	dec	DWORD PTR [rax]
$LN75@line_exist:
; File c:\program files (x86)\microsoft visual studio 12.0\vc\include\algorithm

; 2514 : 		if (_Pred(*_Mid, _Val))

	test	cl, cl
	je	SHORT $LN34@line_exist

; 2515 : //		if (_DEBUG_LT_PRED(_Pred, *_Mid, _Val))
; 2516 : 			{	// try top half
; 2517 : 			_First = ++_Mid;
; 2518 : 			_Count -= _Count2 + 1;

	or	rax, -1
	lea	r14, QWORD PTR [r14+rdi*8]
	sub	rax, rbp
	add	r14, 16
	add	rbx, rax

; 2519 : 			}
; 2520 : 		else

	jmp	SHORT $LN33@line_exist
$LN34@line_exist:

; 2521 : 			_Count = _Count2;

	mov	rbx, rbp
$LN33@line_exist:

; 2508 : 	while (0 < _Count)

	test	rbx, rbx
	jg	$LL36@line_exist
	mov	rdi, QWORD PTR [rsp+80]
	mov	rbp, QWORD PTR [rsp+72]
$LN35@line_exist:
; File c:\program files (x86)\microsoft visual studio 12.0\vc\include\vector

; 205  : 		return (this->_Ptr == _Right._Ptr);

	cmp	r14, QWORD PTR [r15+16]
	mov	rbx, QWORD PTR [rsp+64]
	mov	r15, QWORD PTR [rsp+88]
; File c:\users\nummer\documents\github\olr-3.0\src\xray\xrcore\xr_ini.cpp

; 68   :     if (A!=Data.end() && xr_strcmp(*A->first,L)==0){

	je	SHORT $LN2@line_exist
; File c:\users\nummer\documents\github\olr-3.0\src\xray\xrcore\xrstring.h

; 65   : 	str_c				operator*	() const						{	return p_?p_->value:0;							}

	mov	rax, QWORD PTR [r14]
	xor	r8d, r8d
	test	rax, rax
	je	SHORT $LN113@line_exist
	add	rax, 12
	jmp	SHORT $LN114@line_exist
$LN113@line_exist:
	mov	rax, r8
$LN114@line_exist:
; File c:\users\nummer\documents\github\olr-3.0\src\xray\xrcore\_std_extensions.h

; 279  : {	return (int)strcmp(S1,S2);  }

	sub	rsi, rax
$LL132@line_exist:
	movzx	edx, BYTE PTR [rax]
	movzx	ecx, BYTE PTR [rax+rsi]
	sub	edx, ecx
	jne	SHORT $LN133@line_exist
	inc	rax
	test	ecx, ecx
	jne	SHORT $LL132@line_exist
$LN133@line_exist:
; File c:\users\nummer\documents\github\olr-3.0\src\xray\xrcore\xr_ini.cpp

; 68   :     if (A!=Data.end() && xr_strcmp(*A->first,L)==0){

	test	edx, edx
	jne	SHORT $LN2@line_exist

; 69   :     	if (val) *val = *A->second;

	test	r12, r12
	je	SHORT $LN1@line_exist
; File c:\users\nummer\documents\github\olr-3.0\src\xray\xrcore\xrstring.h

; 65   : 	str_c				operator*	() const						{	return p_?p_->value:0;							}

	mov	rax, QWORD PTR [r14+8]
	test	rax, rax
	je	SHORT $LN127@line_exist
	lea	r8, QWORD PTR [rax+12]
$LN127@line_exist:
; File c:\users\nummer\documents\github\olr-3.0\src\xray\xrcore\xr_ini.cpp

; 69   :     	if (val) *val = *A->second;

	mov	QWORD PTR [r12], r8
$LN1@line_exist:

; 70   :     	return TRUE;

	mov	eax, 1

; 73   : }

	add	rsp, 32					; 00000020H
	pop	r14
	pop	r12
	pop	rsi
	ret	0
$LN2@line_exist:

; 71   :     }
; 72   : 	return FALSE;

	xor	eax, eax

; 73   : }

	add	rsp, 32					; 00000020H
	pop	r14
	pop	r12
	pop	rsi
	ret	0
?line_exist@Sect@CInifile@@QEAAHPEBDPEAPEBD@Z ENDP	; CInifile::Sect::line_exist
_TEXT	ENDS
; Function compile flags: /Ogtpy
; File c:\users\nummer\documents\github\olr-3.0\src\xray\xrcore\xr_ini.cpp
; File c:\program files (x86)\microsoft visual studio 12.0\vc\include\vector
; File c:\users\nummer\documents\github\olr-3.0\src\xray\xrcore\xr_ini.cpp
_TEXT	SEGMENT
this$ = 48
F$ = 56
path$ = 64
??0CInifile@@QEAA@PEAVIReader@@PEBD@Z PROC		; CInifile::CInifile

; 77   : {

$LN14:
	push	rbx
	sub	rsp, 32					; 00000020H
	lea	rax, OFFSET FLAT:??_7CInifile@@6B@
	mov	rbx, rcx
	mov	QWORD PTR [rcx], rax
; File c:\program files (x86)\microsoft visual studio 12.0\vc\include\vector

; 482  : 		_Myfirst = pointer();

	xor	eax, eax
	mov	QWORD PTR [rcx+16], rax

; 483  : 		_Mylast = pointer();

	mov	QWORD PTR [rcx+24], rax

; 484  : 		_Myend = pointer();

	mov	QWORD PTR [rcx+32], rax
; File c:\users\nummer\documents\github\olr-3.0\src\xray\xrcore\xr_ini.cpp

; 78   : 	fName		= 0;

	mov	QWORD PTR [rcx+8], rax

; 79   : 	bReadOnly	= TRUE;

	mov	QWORD PTR [rcx+40], 1

; 80   : 	bSaveAtEnd	= FALSE;
; 81   : 	Load		(F,path);

	call	?Load@CInifile@@AEAAXPEAVIReader@@PEBD@Z ; CInifile::Load

; 82   : }

	mov	rax, rbx
	add	rsp, 32					; 00000020H
	pop	rbx
	ret	0
??0CInifile@@QEAA@PEAVIReader@@PEBD@Z ENDP		; CInifile::CInifile
_TEXT	ENDS
; Function compile flags: /Ogtpy
; File c:\users\nummer\documents\github\olr-3.0\src\xray\xrcore\xr_ini.cpp
; File c:\program files (x86)\microsoft visual studio 12.0\vc\include\vector
; File c:\users\nummer\documents\github\olr-3.0\src\xray\xrcore\xr_ini.cpp
; File c:\program files (x86)\microsoft visual studio 12.0\vc\include\vector
; File c:\users\nummer\documents\github\olr-3.0\src\xray\xrcore\xr_ini.cpp
; File c:\users\nummer\documents\github\olr-3.0\src\xray\xrcore\_std_extensions.h
; File c:\users\nummer\documents\github\olr-3.0\src\xray\xrcore\xrmemory.cpp
; File c:\users\nummer\documents\github\olr-3.0\src\xray\xrcore\xr_ini.cpp
; File c:\users\nummer\documents\github\olr-3.0\src\xray\xrcore\locatorapi.cpp
; File c:\users\nummer\documents\github\olr-3.0\src\xray\xrcore\xr_ini.cpp
; File c:\users\nummer\documents\github\olr-3.0\src\xray\xrcore\_flags.h
; File c:\users\nummer\documents\github\olr-3.0\src\xray\xrcore\locatorapi.cpp
; File c:\users\nummer\documents\github\olr-3.0\src\xray\xrcore\xrmemory_subst_msvc.h
; File c:\users\nummer\documents\github\olr-3.0\src\xray\xrcore\xrmemory_subst_msvc.cpp
; File c:\users\nummer\documents\github\olr-3.0\src\xray\xrcore\xrmemory_align.cpp
; File c:\users\nummer\documents\github\olr-3.0\src\xray\xrcore\xrmemory_subst_msvc.cpp
; File c:\users\nummer\documents\github\olr-3.0\src\xray\xrcore\xrsyncronize.cpp
; File c:\users\nummer\documents\github\olr-3.0\src\xray\xrcore\xrmemory_pool.h
; File c:\users\nummer\documents\github\olr-3.0\src\xray\xrcore\xrsyncronize.cpp
; File c:\users\nummer\documents\github\olr-3.0\src\xray\xrcore\xrmemory_pool.h
; File c:\users\nummer\documents\github\olr-3.0\src\xray\xrcore\xrsyncronize.cpp
; File c:\users\nummer\documents\github\olr-3.0\src\xray\xrcore\xr_ini.cpp
_TEXT	SEGMENT
path$1 = 48
folder$2 = 576
this$ = 1136
szFileName$ = 1144
ReadOnly$ = 1152
bLoad$ = 1160
SaveAtEnd$ = 1168
??0CInifile@@QEAA@PEBDHHH@Z PROC			; CInifile::CInifile

; 85   : {

$LN70:
	mov	rax, rsp
	mov	QWORD PTR [rax+24], rbx
	mov	QWORD PTR [rax+32], rbp
	push	rsi
	push	rdi
	push	r12
	sub	rsp, 1104				; 00000450H
; File c:\program files (x86)\microsoft visual studio 12.0\vc\include\vector

; 482  : 		_Myfirst = pointer();

	xor	r12d, r12d
	mov	QWORD PTR [rax+8], r14
	mov	QWORD PTR [rax+16], r15
; File c:\users\nummer\documents\github\olr-3.0\src\xray\xrcore\xr_ini.cpp

; 85   : {

	lea	rax, OFFSET FLAT:??_7CInifile@@6B@
	mov	r14d, r9d
	mov	r15d, r8d
	mov	QWORD PTR [rcx], rax
	mov	rsi, rdx
	mov	rdi, rcx
; File c:\program files (x86)\microsoft visual studio 12.0\vc\include\vector

; 482  : 		_Myfirst = pointer();

	mov	QWORD PTR [rcx+16], r12

; 483  : 		_Mylast = pointer();

	mov	QWORD PTR [rcx+24], r12

; 484  : 		_Myend = pointer();

	mov	QWORD PTR [rcx+32], r12
; File c:\users\nummer\documents\github\olr-3.0\src\xray\xrcore\xr_ini.cpp

; 86   : 	fName		= szFileName?xr_strdup(szFileName):0;

	test	rdx, rdx
	je	SHORT $LN5@CInifile
; File c:\users\nummer\documents\github\olr-3.0\src\xray\xrcore\_std_extensions.h

; 270  : {	return (u32)strlen(S);			}

	or	rax, -1
	npad	4
$LL65@CInifile:
	inc	rax
	cmp	BYTE PTR [rdx+rax], r12b
	jne	SHORT $LL65@CInifile
; File c:\users\nummer\documents\github\olr-3.0\src\xray\xrcore\xrmemory.cpp

; 271  : 	);

	inc	eax
	lea	rcx, OFFSET FLAT:?Memory@@3VxrMemory@@A	; Memory
	mov	edx, eax
	mov	ebx, eax
	call	?mem_alloc@xrMemory@@QEAAPEAX_K@Z	; xrMemory::mem_alloc

; 272  : 	CopyMemory		(memory,string,len);

	mov	r8d, ebx
	mov	rdx, rsi
	mov	rcx, rax
	mov	rbp, rax
	call	memcpy
; File c:\users\nummer\documents\github\olr-3.0\src\xray\xrcore\xr_ini.cpp

; 86   : 	fName		= szFileName?xr_strdup(szFileName):0;

	jmp	SHORT $LN6@CInifile
$LN5@CInifile:
	mov	rbp, r12
$LN6@CInifile:

; 87   :     bReadOnly	= ReadOnly;
; 88   :     bSaveAtEnd	= SaveAtEnd;

	mov	eax, DWORD PTR SaveAtEnd$[rsp]
	mov	DWORD PTR [rdi+40], r15d
	mov	r15, QWORD PTR [rsp+1144]

; 89   : 	if (bLoad)

	test	r14d, r14d
	mov	r14, QWORD PTR [rsp+1136]
	mov	DWORD PTR [rdi+44], eax
	mov	QWORD PTR [rdi+8], rbp
	je	$LN67@CInifile

; 90   : 	{	
; 91   :     	string_path	path,folder; 
; 92   : 		_splitpath	(fName, path, folder, 0, 0 );

	lea	r8, QWORD PTR folder$2[rsp]
	lea	rdx, QWORD PTR path$1[rsp]
	xor	r9d, r9d
	mov	rcx, rbp
	mov	QWORD PTR [rsp+32], r12
	call	QWORD PTR __imp__splitpath

; 93   :         strcat		(path,folder);

	lea	rcx, QWORD PTR path$1[rsp]
	dec	rcx
$LL63@CInifile:
	cmp	BYTE PTR [rcx+1], r12b
	lea	rcx, QWORD PTR [rcx+1]
	jne	SHORT $LL63@CInifile
	lea	r8, QWORD PTR folder$2[rsp]
	xor	edx, edx
	npad	10
$LL64@CInifile:
	movzx	eax, BYTE PTR [r8+rdx]
	lea	rdx, QWORD PTR [rdx+1]
	mov	BYTE PTR [rcx+rdx-1], al
	test	al, al
	jne	SHORT $LL64@CInifile
; File c:\users\nummer\documents\github\olr-3.0\src\xray\xrcore\locatorapi.cpp

; 1181 : 	return					(r_open_impl<IReader>(path,_fname));

	mov	rcx, QWORD PTR ?xr_FS@@3PEAVCLocatorAPI@@EA ; xr_FS
	mov	r8, rsi
	xor	edx, edx
	call	??$r_open_impl@VIReader@@@CLocatorAPI@@AEAAPEAVIReader@@PEBD0@Z ; CLocatorAPI::r_open_impl<IReader>
	mov	rsi, rax
; File c:\users\nummer\documents\github\olr-3.0\src\xray\xrcore\xr_ini.cpp

; 95   :         if (R){

	test	rax, rax
	je	$LN67@CInifile

; 96   : 			Load		(R,path);

	lea	r8, QWORD PTR path$1[rsp]
	mov	rdx, rax
	mov	rcx, rdi
	call	?Load@CInifile@@AEAAXPEAVIReader@@PEBD@Z ; CInifile::Load
; File c:\users\nummer\documents\github\olr-3.0\src\xray\xrcore\_flags.h

; 25   : 	IC 	BOOL	test	(const T mask)						const	{ return BOOL(flags&mask);				}

	mov	rcx, QWORD PTR ?xr_FS@@3PEAVCLocatorAPI@@EA ; xr_FS
	test	DWORD PTR [rcx+112], 512		; 00000200H
; File c:\users\nummer\documents\github\olr-3.0\src\xray\xrcore\locatorapi.cpp

; 1186 : 	if( m_Flags.test(flDumpFileActivity) )

	je	SHORT $LN28@CInifile

; 1187 : 		_unregister_open_file	(fs);

	mov	rcx, rsi
	call	??$_unregister_open_file@VIReader@@@@YAXPEAVIReader@@@Z ; _unregister_open_file<IReader>
$LN28@CInifile:
; File c:\users\nummer\documents\github\olr-3.0\src\xray\xrcore\xrmemory_subst_msvc.h

; 132  : 		void*	_real_ptr	= dynamic_cast<void*>(ptr);

	mov	rcx, rsi
	call	__RTCastToVoid

; 133  : 		ptr->~T			();

	mov	r8, QWORD PTR [rsi]
	xor	edx, edx
	mov	rcx, rsi
	mov	rbx, rax
	call	QWORD PTR [r8]
; File c:\users\nummer\documents\github\olr-3.0\src\xray\xrcore\xrmemory_subst_msvc.cpp

; 130  : 	stat_calls++;

	inc	DWORD PTR ?Memory@@3VxrMemory@@A

; 25   : ICF	u32		get_header			(void* P)	{	return	(u32)*acc_header(P);				}

	movzx	eax, BYTE PTR [rbx-1]

; 24   : ICF	u8*		acc_header			(void* P)	{	u8*		_P		= (u8*)P;	return	_P-1;	}

	lea	rsi, QWORD PTR [rbx-1]

; 131  : #ifdef USE_MEMORY_MONITOR
; 132  : 	memory_monitor::monitor_free(P);
; 133  : #endif // USE_MEMORY_MONITOR
; 134  : 
; 135  : #ifdef PURE_ALLOC
; 136  : 	if (g_use_pure_alloc) {
; 137  : 		free					(P);
; 138  : 		return;
; 139  : 	}
; 140  : #endif // PURE_ALLOC
; 141  : 
; 142  : #ifdef DEBUG_MEMORY_MANAGER
; 143  : 	if(g_globalCheckAddr==P)
; 144  : 		__asm int 3;
; 145  : #endif // DEBUG_MEMORY_MANAGER
; 146  : 
; 147  : #ifdef DEBUG_MEMORY_MANAGER
; 148  : 	if (mem_initialized)		debug_cs.Enter		();
; 149  : #endif // DEBUG_MEMORY_MANAGER
; 150  : 	if		(debug_mode)		dbg_unregister	(P);
; 151  : 	u32	pool					= get_header	(P);
; 152  : 	void* _real					= (void*)(((u8*)P)-1);
; 153  : 	if (mem_generic==pool)		

	cmp	eax, 55					; 00000037H
	jne	SHORT $LN40@CInifile
; File c:\users\nummer\documents\github\olr-3.0\src\xray\xrcore\xrmemory_align.cpp

; 293  : 	if (memblock == NULL)

	test	rsi, rsi
	je	SHORT $LN67@CInifile

; 294  : 		return;
; 295  : 
; 296  : 	ptr = (uintptr_t)memblock;
; 297  : 
; 298  : 	/* ptr points to the pointer to starting of the memory block */
; 299  : 	ptr = (ptr & ~(PTR_SZ -1)) - PTR_SZ;

	and	rsi, -8

; 300  : 
; 301  : 	/* ptr is the pointer to the start of memory block*/
; 302  : 	ptr = *((uintptr_t *)ptr);
; 303  : 	free((void *)ptr);

	mov	rcx, QWORD PTR [rsi-8]
	call	QWORD PTR __imp_free
; File c:\users\nummer\documents\github\olr-3.0\src\xray\xrcore\xrmemory_subst_msvc.cpp

; 157  : 	} else {

	jmp	SHORT $LN67@CInifile
$LN40@CInifile:

; 158  : 		// pooled
; 159  : 		VERIFY2					(pool<mem_pools_count,"Memory corruption");
; 160  : 		mem_pools[pool].destroy	(_real);

	lea	rcx, QWORD PTR [rax+rax*4]
	lea	rax, OFFSET FLAT:?mem_pools@@3PAVMEMPOOL@@A ; mem_pools
	lea	rbx, QWORD PTR [rax+rcx*8]
; File c:\users\nummer\documents\github\olr-3.0\src\xray\xrcore\xrsyncronize.cpp

; 64   : 	EnterCriticalSection			( (CRITICAL_SECTION*)pmutex );

	mov	rcx, QWORD PTR [rax+rcx*8]
	call	QWORD PTR __imp_EnterCriticalSection
; File c:\users\nummer\documents\github\olr-3.0\src\xray\xrcore\xrmemory_pool.h

; 46   : 		*access(P)		= list;

	mov	rax, QWORD PTR [rbx+32]
	mov	QWORD PTR [rsi], rax
; File c:\users\nummer\documents\github\olr-3.0\src\xray\xrcore\xrsyncronize.cpp

; 69   : 	LeaveCriticalSection			( (CRITICAL_SECTION*)pmutex );

	mov	rcx, QWORD PTR [rbx]
; File c:\users\nummer\documents\github\olr-3.0\src\xray\xrcore\xrmemory_pool.h

; 47   : 		list			= (u8*)P;

	mov	QWORD PTR [rbx+32], rsi
; File c:\users\nummer\documents\github\olr-3.0\src\xray\xrcore\xrsyncronize.cpp

; 69   : 	LeaveCriticalSection			( (CRITICAL_SECTION*)pmutex );

	call	QWORD PTR __imp_LeaveCriticalSection
$LN67@CInifile:
; File c:\users\nummer\documents\github\olr-3.0\src\xray\xrcore\xr_ini.cpp

; 100  : }

	lea	r11, QWORD PTR [rsp+1104]
	mov	rax, rdi
	mov	rbx, QWORD PTR [r11+48]
	mov	rbp, QWORD PTR [r11+56]
	mov	rsp, r11
	pop	r12
	pop	rdi
	pop	rsi
	ret	0
??0CInifile@@QEAA@PEBDHHH@Z ENDP			; CInifile::CInifile
_TEXT	ENDS
; Function compile flags: /Ogtpy
; File c:\users\nummer\documents\github\olr-3.0\src\xray\xrcore\xr_ini.cpp
; File c:\users\nummer\documents\github\olr-3.0\src\xray\xrcore\xrstring.h
; File c:\users\nummer\documents\github\olr-3.0\src\xray\xrcore\xr_ini.cpp
; File c:\users\nummer\documents\github\olr-3.0\src\xray\xrcore\xrstring.h
; File c:\program files (x86)\microsoft visual studio 12.0\vc\include\algorithm
; File c:\program files (x86)\microsoft visual studio 12.0\vc\include\xutility
; File c:\users\nummer\documents\github\olr-3.0\src\xray\xrcore\xr_ini.cpp
; File c:\program files (x86)\microsoft visual studio 12.0\vc\include\xutility
; File c:\program files (x86)\microsoft visual studio 12.0\vc\include\algorithm
; File c:\program files (x86)\microsoft visual studio 12.0\vc\include\xutility
; File c:\program files (x86)\microsoft visual studio 12.0\vc\include\algorithm
; File c:\program files (x86)\microsoft visual studio 12.0\vc\include\xutility
; File c:\users\nummer\documents\github\olr-3.0\src\xray\xrcore\xrstring.h
; File c:\users\nummer\documents\github\olr-3.0\src\xray\xrcore\xr_ini.cpp
; File c:\users\nummer\documents\github\olr-3.0\src\xray\xrcore\xrstring.h
; File c:\users\nummer\documents\github\olr-3.0\src\xray\xrcore\_std_extensions.h
; File c:\users\nummer\documents\github\olr-3.0\src\xray\xrcore\xr_ini.cpp
; File c:\users\nummer\documents\github\olr-3.0\src\xray\xrcore\xrstring.h
; File c:\program files (x86)\microsoft visual studio 12.0\vc\include\algorithm
; File c:\program files (x86)\microsoft visual studio 12.0\vc\include\vector
; File c:\users\nummer\documents\github\olr-3.0\src\xray\xrcore\xr_ini.cpp
; File c:\users\nummer\documents\github\olr-3.0\src\xray\xrcore\xrstring.h
; File c:\users\nummer\documents\github\olr-3.0\src\xray\xrcore\xr_ini.cpp
; File c:\users\nummer\documents\github\olr-3.0\src\xray\xrcore\xrstring.h
; File c:\users\nummer\documents\github\olr-3.0\src\xray\xrcore\xr_ini.cpp
; File c:\program files (x86)\microsoft visual studio 12.0\vc\include\vector
; File c:\users\nummer\documents\github\olr-3.0\src\xray\xrcore\xr_ini.cpp
_TEXT	SEGMENT
$T1 = 96
tgt$ = 96
I$ = 104
?insert_item@@YAXPEAUSect@CInifile@@AEBUItem@2@@Z PROC	; insert_item

; 118  : {

	push	rdi
	push	r12
	push	r15
	sub	rsp, 64					; 00000040H
; File c:\users\nummer\documents\github\olr-3.0\src\xray\xrcore\xrstring.h

; 65   : 	str_c				operator*	() const						{	return p_?p_->value:0;							}

	mov	rax, QWORD PTR [rdx]
	mov	QWORD PTR [rsp+104], rbx
	mov	QWORD PTR [rsp+56], r13
	mov	QWORD PTR [rsp+48], r14
; File c:\users\nummer\documents\github\olr-3.0\src\xray\xrcore\xr_ini.cpp

; 118  : {

	mov	r15, rdx
	mov	r13, rcx
; File c:\users\nummer\documents\github\olr-3.0\src\xray\xrcore\xrstring.h

; 65   : 	str_c				operator*	() const						{	return p_?p_->value:0;							}

	test	rax, rax
	je	SHORT $LN7@insert_ite
	lea	r14, QWORD PTR [rax+12]
	jmp	SHORT $LN8@insert_ite
$LN7@insert_ite:
	xor	r14d, r14d
$LN8@insert_ite:
; File c:\program files (x86)\microsoft visual studio 12.0\vc\include\algorithm

; 2535 : 			_Dist_type(_First))));

	mov	rdi, QWORD PTR [rcx+8]
; File c:\program files (x86)\microsoft visual studio 12.0\vc\include\xutility

; 750  : 	_Off += _Last - _First;

	mov	rbx, QWORD PTR [rcx+16]
; File c:\users\nummer\documents\github\olr-3.0\src\xray\xrcore\xr_ini.cpp

; 119  : 	CInifile::SectIt_	sect_it		= std::lower_bound(tgt->Data.begin(),tgt->Data.end(),*I.first,item_pred);

	lea	r12, QWORD PTR [rcx+8]
; File c:\program files (x86)\microsoft visual studio 12.0\vc\include\xutility

; 750  : 	_Off += _Last - _First;

	sub	rbx, rdi
	sar	rbx, 4
; File c:\program files (x86)\microsoft visual studio 12.0\vc\include\algorithm

; 2508 : 	while (0 < _Count)

	test	rbx, rbx
	jle	$LN39@insert_ite
	mov	QWORD PTR [rsp+112], rbp
	mov	QWORD PTR [rsp+120], rsi
	npad	10
$LL40@insert_ite:

; 2510 : 		_Diff _Count2 = _Count / 2;

	mov	rax, rbx
	cdq
	sub	rax, rdx
	sar	rax, 1
; File c:\program files (x86)\microsoft visual studio 12.0\vc\include\xutility

; 690  : 	_Where += _Off;

	mov	rsi, rax
; File c:\program files (x86)\microsoft visual studio 12.0\vc\include\algorithm

; 2510 : 		_Diff _Count2 = _Count / 2;

	mov	rbp, rax
; File c:\program files (x86)\microsoft visual studio 12.0\vc\include\xutility

; 690  : 	_Where += _Off;

	add	rsi, rsi
; File c:\users\nummer\documents\github\olr-3.0\src\xray\xrcore\xrstring.h

; 66   : 	bool				operator!	() const						{	return p_ == 0;									}

	mov	rcx, QWORD PTR [rdi+rsi*8]
	test	rcx, rcx
; File c:\users\nummer\documents\github\olr-3.0\src\xray\xrcore\xr_ini.cpp

; 21   :     if ((!x.first) || (!val))	return x.first<val;

	je	SHORT $LN56@insert_ite
	test	r14, r14
	je	SHORT $LN56@insert_ite
; File c:\users\nummer\documents\github\olr-3.0\src\xray\xrcore\xrstring.h

; 65   : 	str_c				operator*	() const						{	return p_?p_->value:0;							}

	add	rcx, 12
; File c:\users\nummer\documents\github\olr-3.0\src\xray\xrcore\_std_extensions.h

; 279  : {	return (int)strcmp(S1,S2);  }

	mov	r8, r14
	sub	r8, rcx
	npad	4
$LL143@insert_ite:
	movzx	edx, BYTE PTR [rcx]
	movzx	eax, BYTE PTR [rcx+r8]
	sub	edx, eax
	jne	SHORT $LN144@insert_ite
	inc	rcx
	test	eax, eax
	jne	SHORT $LL143@insert_ite
$LN144@insert_ite:
; File c:\users\nummer\documents\github\olr-3.0\src\xray\xrcore\xr_ini.cpp

; 22   :     else				   		return xr_strcmp(*x.first,val)<0;

	test	edx, edx
	sets	cl
	jmp	SHORT $LN79@insert_ite
$LN56@insert_ite:
; File c:\users\nummer\documents\github\olr-3.0\src\xray\xrcore\xrstring.h

; 52   : 	void				_set		(str_c rhs) 					{	str_value* v = g_pStringContainer->dock(rhs); if (0!=v) v->dwReference++; _dec(); p_ = v;	}

	mov	rcx, QWORD PTR ?g_pStringContainer@@3PEAVstr_container@@EA ; g_pStringContainer
	mov	rdx, r14
	call	?dock@str_container@@QEAAPEAUstr_value@@PEBD@Z ; str_container::dock
	test	rax, rax
	je	SHORT $LN67@insert_ite
	inc	DWORD PTR [rax]
$LN67@insert_ite:

; 74   :     shared_str& __cdecl	sprintf		(const char* format, ...)		{
; 75   : 		string4096 	buf;
; 76   : 		va_list		p;
; 77   : 		va_start	(p,format);
; 78   : 		int vs_sz	= _vsnprintf(buf,sizeof(buf)-1,format,p); buf[sizeof(buf)-1]=0;
; 79   : 		va_end		(p);
; 80   : 		if (vs_sz)	_set(buf);	
; 81   : 		return 		(shared_str&)*this;
; 82   : 	}
; 83   : };
; 84   : 
; 85   : // res_ptr == res_ptr
; 86   : // res_ptr != res_ptr
; 87   : // const res_ptr == ptr
; 88   : // const res_ptr != ptr
; 89   : // ptr == const res_ptr
; 90   : // ptr != const res_ptr
; 91   : // res_ptr < res_ptr
; 92   : // res_ptr > res_ptr
; 93   : IC bool operator	==	(shared_str const & a, shared_str const & b)		{ return a._get() == b._get();					}
; 94   : IC bool operator	!=	(shared_str const & a, shared_str const & b)		{ return a._get() != b._get();					}
; 95   : IC bool operator	<	(shared_str const & a, shared_str const & b)		{ return a._get() <  b._get();					}

	cmp	QWORD PTR [rdi+rsi*8], rax
	setb	cl

; 50   : 	void				_dec		()								{	if (0==p_) return;	p_->dwReference--; 	if (0==p_->dwReference)	p_=0;						}

	test	rax, rax
	je	SHORT $LN79@insert_ite
	dec	DWORD PTR [rax]
$LN79@insert_ite:
; File c:\program files (x86)\microsoft visual studio 12.0\vc\include\algorithm

; 2514 : 		if (_Pred(*_Mid, _Val))

	test	cl, cl
	je	SHORT $LN38@insert_ite

; 2515 : //		if (_DEBUG_LT_PRED(_Pred, *_Mid, _Val))
; 2516 : 			{	// try top half
; 2517 : 			_First = ++_Mid;
; 2518 : 			_Count -= _Count2 + 1;

	or	rax, -1
	lea	rdi, QWORD PTR [rdi+rsi*8]
	sub	rax, rbp
	add	rdi, 16
	add	rbx, rax

; 2519 : 			}
; 2520 : 		else

	jmp	SHORT $LN37@insert_ite
$LN38@insert_ite:

; 2521 : 			_Count = _Count2;

	mov	rbx, rbp
$LN37@insert_ite:

; 2508 : 	while (0 < _Count)

	test	rbx, rbx
	jg	$LL40@insert_ite
	mov	rsi, QWORD PTR [rsp+120]
	mov	rbp, QWORD PTR [rsp+112]
$LN39@insert_ite:
; File c:\program files (x86)\microsoft visual studio 12.0\vc\include\vector

; 205  : 		return (this->_Ptr == _Right._Ptr);

	cmp	rdi, QWORD PTR [r13+16]
	mov	r14, QWORD PTR [rsp+48]
	mov	rbx, QWORD PTR [rsp+104]
	mov	r13, QWORD PTR [rsp+56]
; File c:\users\nummer\documents\github\olr-3.0\src\xray\xrcore\xr_ini.cpp

; 120  : 	if (sect_it!=tgt->Data.end() && sect_it->first.equal(I.first)){ 

	je	SHORT $LN2@insert_ite
; File c:\users\nummer\documents\github\olr-3.0\src\xray\xrcore\xrstring.h

; 73   : 	bool				equal		(const shared_str & rhs) const	{	return (p_ == rhs.p_);							}

	mov	rax, QWORD PTR [r15]
	cmp	QWORD PTR [rdi], rax
; File c:\users\nummer\documents\github\olr-3.0\src\xray\xrcore\xr_ini.cpp

; 120  : 	if (sect_it!=tgt->Data.end() && sect_it->first.equal(I.first)){ 

	jne	SHORT $LN2@insert_ite
; File c:\users\nummer\documents\github\olr-3.0\src\xray\xrcore\xrstring.h

; 53   : 	void				_set		(shared_str const &rhs)			{	str_value* v = rhs.p_; if (0!=v) v->dwReference++; _dec(); p_ = v;							}

	mov	rcx, QWORD PTR [r15+8]
	test	rcx, rcx
	je	SHORT $LN131@insert_ite
	inc	DWORD PTR [rcx]
$LN131@insert_ite:

; 50   : 	void				_dec		()								{	if (0==p_) return;	p_->dwReference--; 	if (0==p_->dwReference)	p_=0;						}

	mov	rax, QWORD PTR [rdi+8]
	test	rax, rax
	je	SHORT $LN134@insert_ite
	dec	DWORD PTR [rax]
	mov	rax, QWORD PTR [rdi+8]
	cmp	DWORD PTR [rax], 0
	jne	SHORT $LN134@insert_ite
	mov	QWORD PTR [rdi+8], 0
$LN134@insert_ite:

; 53   : 	void				_set		(shared_str const &rhs)			{	str_value* v = rhs.p_; if (0!=v) v->dwReference++; _dec(); p_ = v;							}

	mov	QWORD PTR [rdi+8], rcx
; File c:\users\nummer\documents\github\olr-3.0\src\xray\xrcore\xr_ini.cpp

; 128  : }

	add	rsp, 64					; 00000040H
	pop	r15
	pop	r12
	pop	rdi
	ret	0
$LN2@insert_ite:
; File c:\program files (x86)\microsoft visual studio 12.0\vc\include\vector

; 1328 : 		return (_Insert_n(_Where, (size_type)1, _Val));

	lea	rdx, QWORD PTR $T1[rsp]
	mov	r8, rdi
	mov	rcx, r12
	mov	QWORD PTR [rsp+32], r15
	call	?_Insert_n@?$vector@UItem@CInifile@@V?$xalloc@UItem@CInifile@@@@@std@@IEAA?AV?$_Vector_iterator@V?$_Vector_val@U?$_Simple_types@UItem@CInifile@@@std@@@std@@@2@V?$_Vector_const_iterator@V?$_Vector_val@U?$_Simple_types@UItem@CInifile@@@std@@@std@@@2@_KAEBUItem@CInifile@@@Z ; std::vector<CInifile::Item,xalloc<CInifile::Item> >::_Insert_n
; File c:\users\nummer\documents\github\olr-3.0\src\xray\xrcore\xr_ini.cpp

; 128  : }

	add	rsp, 64					; 00000040H
	pop	r15
	pop	r12
	pop	rdi
	ret	0
?insert_item@@YAXPEAUSect@CInifile@@AEBUItem@2@@Z ENDP	; insert_item
_TEXT	ENDS
; Function compile flags: /Ogtpy
; File c:\users\nummer\documents\github\olr-3.0\src\xray\xrcore\xr_ini.cpp
; File c:\users\nummer\documents\github\olr-3.0\src\xray\xrcore\xrdebugnew.cpp
; File c:\users\nummer\documents\github\olr-3.0\src\xray\xrcore\fs.h
; File c:\users\nummer\documents\github\olr-3.0\src\xray\xrcore\xr_ini.cpp
; File c:\users\nummer\documents\github\olr-3.0\src\xray\xrcore\fs.h
; File c:\users\nummer\documents\github\olr-3.0\src\xray\xrcore\xr_ini.cpp
; File c:\users\nummer\documents\github\olr-3.0\src\xray\xrcore\fs.h
; File c:\users\nummer\documents\github\olr-3.0\src\xray\xrcore\xr_ini.cpp
; File c:\users\nummer\documents\github\olr-3.0\src\xray\xrcore\fs.h
; File c:\users\nummer\documents\github\olr-3.0\src\xray\xrcore\fs.cpp
; File c:\users\nummer\documents\github\olr-3.0\src\xray\xrcore\fs.h
; File c:\users\nummer\documents\github\olr-3.0\src\xray\xrcore\fs.cpp
; File c:\users\nummer\documents\github\olr-3.0\src\xray\xrcore\fs.h
; File c:\users\nummer\documents\github\olr-3.0\src\xray\xrcore\fs.cpp
; File c:\users\nummer\documents\github\olr-3.0\src\xray\xrcore\fs.h
; File c:\users\nummer\documents\github\olr-3.0\src\xray\xrcore\fs.cpp
; File c:\users\nummer\documents\github\olr-3.0\src\xray\xrcore\fs.h
; File c:\users\nummer\documents\github\olr-3.0\src\xray\xrcore\fs.cpp
; File c:\users\nummer\documents\github\olr-3.0\src\xray\xrcore\fs.h
; File c:\users\nummer\documents\github\olr-3.0\src\xray\xrcore\fs.cpp
; File c:\users\nummer\documents\github\olr-3.0\src\xray\xrcore\fs.h
; File c:\users\nummer\documents\github\olr-3.0\src\xray\xrcore\fs.cpp
; File c:\users\nummer\documents\github\olr-3.0\src\xray\xrcore\fs.h
; File c:\users\nummer\documents\github\olr-3.0\src\xray\xrcore\fs.cpp
; File c:\users\nummer\documents\github\olr-3.0\src\xray\xrcore\fs.h
; File c:\users\nummer\documents\github\olr-3.0\src\xray\xrcore\fs.cpp
; File c:\users\nummer\documents\github\olr-3.0\src\xray\xrcore\xrdebugnew.cpp
; File c:\users\nummer\documents\github\olr-3.0\src\xray\xrcore\fs.cpp
; File c:\users\nummer\documents\github\olr-3.0\src\xray\xrcore\xr_trims.cpp
; File c:\users\nummer\documents\github\olr-3.0\src\xray\xrcore\_std_extensions.h
; File c:\users\nummer\documents\github\olr-3.0\src\xray\xrcore\xr_trims.cpp
; File c:\program files (x86)\microsoft visual studio 12.0\vc\include\string.h
; File c:\users\nummer\documents\github\olr-3.0\src\xray\xrcore\xr_ini.cpp
; File c:\program files (x86)\microsoft visual studio 12.0\vc\include\string.h
; File c:\users\nummer\documents\github\olr-3.0\src\xray\xrcore\xr_ini.cpp
; File c:\users\nummer\documents\github\olr-3.0\src\xray\xrcore\xrdebugnew.cpp
; File c:\users\nummer\documents\github\olr-3.0\src\xray\xrcore\xr_trims.cpp
; File c:\users\nummer\documents\github\olr-3.0\src\xray\xrcore\_std_extensions.h
; File c:\users\nummer\documents\github\olr-3.0\src\xray\xrcore\xr_trims.cpp
; File c:\users\nummer\documents\github\olr-3.0\src\xray\xrcore\_std_extensions.h
; File c:\users\nummer\documents\github\olr-3.0\src\xray\xrcore\xr_trims.cpp
; File c:\users\nummer\documents\github\olr-3.0\src\xray\xrcore\_std_extensions.h
; File c:\users\nummer\documents\github\olr-3.0\src\xray\xrcore\xr_ini.cpp
; File c:\users\nummer\documents\github\olr-3.0\src\xray\xrcore\locatorapi.cpp
; File c:\users\nummer\documents\github\olr-3.0\src\xray\xrcore\xr_ini.cpp
; File c:\users\nummer\documents\github\olr-3.0\src\xray\xrcore\locatorapi.cpp
; File c:\users\nummer\documents\github\olr-3.0\src\xray\xrcore\xr_ini.cpp
; File c:\users\nummer\documents\github\olr-3.0\src\xray\xrcore\xrdebugnew.cpp
; File c:\users\nummer\documents\github\olr-3.0\src\xray\xrcore\xr_ini.cpp
; File c:\users\nummer\documents\github\olr-3.0\src\xray\xrcore\_flags.h
; File c:\users\nummer\documents\github\olr-3.0\src\xray\xrcore\locatorapi.cpp
; File c:\users\nummer\documents\github\olr-3.0\src\xray\xrcore\xrmemory_subst_msvc.h
; File c:\users\nummer\documents\github\olr-3.0\src\xray\xrcore\xrmemory_subst_msvc.cpp
; File c:\users\nummer\documents\github\olr-3.0\src\xray\xrcore\xrmemory_align.cpp
; File c:\users\nummer\documents\github\olr-3.0\src\xray\xrcore\xrmemory_subst_msvc.cpp
; File c:\users\nummer\documents\github\olr-3.0\src\xray\xrcore\xrsyncronize.cpp
; File c:\users\nummer\documents\github\olr-3.0\src\xray\xrcore\xrmemory_pool.h
; File c:\users\nummer\documents\github\olr-3.0\src\xray\xrcore\xrsyncronize.cpp
; File c:\users\nummer\documents\github\olr-3.0\src\xray\xrcore\xrmemory_pool.h
; File c:\users\nummer\documents\github\olr-3.0\src\xray\xrcore\xrsyncronize.cpp
; File c:\users\nummer\documents\github\olr-3.0\src\xray\xrcore\xr_ini.cpp
; File c:\users\nummer\documents\github\olr-3.0\src\xray\xrcore\xrstring.h
; File c:\users\nummer\documents\github\olr-3.0\src\xray\xrcore\xr_ini.cpp
; File c:\program files (x86)\microsoft visual studio 12.0\vc\include\xutility
; File c:\program files (x86)\microsoft visual studio 12.0\vc\include\algorithm
; File c:\program files (x86)\microsoft visual studio 12.0\vc\include\xutility
; File c:\program files (x86)\microsoft visual studio 12.0\vc\include\algorithm
; File c:\program files (x86)\microsoft visual studio 12.0\vc\include\xutility
; File c:\users\nummer\documents\github\olr-3.0\src\xray\xrcore\xr_ini.cpp
; File c:\users\nummer\documents\github\olr-3.0\src\xray\xrcore\xrstring.h
; File c:\users\nummer\documents\github\olr-3.0\src\xray\xrcore\_std_extensions.h
; File c:\users\nummer\documents\github\olr-3.0\src\xray\xrcore\xr_ini.cpp
; File c:\program files (x86)\microsoft visual studio 12.0\vc\include\algorithm
; File c:\program files (x86)\microsoft visual studio 12.0\vc\include\vector
; File c:\users\nummer\documents\github\olr-3.0\src\xray\xrcore\xr_ini.cpp
; File c:\users\nummer\documents\github\olr-3.0\src\xray\xrcore\xrstring.h
; File c:\users\nummer\documents\github\olr-3.0\src\xray\xrcore\xr_ini.cpp
; File c:\users\nummer\documents\github\olr-3.0\src\xray\xrcore\xrstring.h
; File c:\users\nummer\documents\github\olr-3.0\src\xray\xrcore\xr_ini.cpp
; File c:\program files (x86)\microsoft visual studio 12.0\vc\include\vector
; File c:\users\nummer\documents\github\olr-3.0\src\xray\xrcore\xrmemory_subst_msvc.h
; File c:\users\nummer\documents\github\olr-3.0\src\xray\xrcore\xrstring.h
; File c:\users\nummer\documents\github\olr-3.0\src\xray\xrcore\xrmemory_subst_msvc.h
; File c:\users\nummer\documents\github\olr-3.0\src\xray\xrcore\xrstring.h
; File c:\users\nummer\documents\github\olr-3.0\src\xray\xrcore\xrmemory_subst_msvc.h
; File c:\program files (x86)\microsoft visual studio 12.0\vc\include\vector
; File c:\users\nummer\documents\github\olr-3.0\src\xray\xrcore\xrmemory_subst_msvc.h
; File c:\users\nummer\documents\github\olr-3.0\src\xray\xrcore\xrstring.h
; File c:\users\nummer\documents\github\olr-3.0\src\xray\xrcore\xr_ini.cpp
; File c:\program files (x86)\microsoft visual studio 12.0\vc\include\string.h
; File c:\users\nummer\documents\github\olr-3.0\src\xray\xrcore\xr_ini.cpp
; File c:\users\nummer\documents\github\olr-3.0\src\xray\xrcore\xrdebugnew.cpp
; File c:\program files (x86)\microsoft visual studio 12.0\vc\include\string.h
; File c:\users\nummer\documents\github\olr-3.0\src\xray\xrcore\xr_ini.cpp
; File c:\program files (x86)\microsoft visual studio 12.0\vc\include\xstring
; File c:\program files (x86)\microsoft visual studio 12.0\vc\include\iosfwd
; File c:\users\nummer\documents\github\olr-3.0\src\xray\xrcore\xr_trims.cpp
; File c:\users\nummer\documents\github\olr-3.0\src\xray\xrcore\_std_extensions.h
; File c:\users\nummer\documents\github\olr-3.0\src\xray\xrcore\xr_trims.cpp
; File c:\program files (x86)\microsoft visual studio 12.0\vc\include\iosfwd
; File c:\program files (x86)\microsoft visual studio 12.0\vc\include\xstring
; File c:\users\nummer\documents\github\olr-3.0\src\xray\xrcore\xr_trims.cpp
; File c:\program files (x86)\microsoft visual studio 12.0\vc\include\xstring
; File c:\users\nummer\documents\github\olr-3.0\src\xray\xrcore\xr_trims.cpp
; File c:\program files (x86)\microsoft visual studio 12.0\vc\include\xstring
; File c:\users\nummer\documents\github\olr-3.0\src\xray\xrcore\xr_trims.cpp
; File c:\program files (x86)\microsoft visual studio 12.0\vc\include\xstring
; File c:\users\nummer\documents\github\olr-3.0\src\xray\xrcore\xr_ini.cpp
; File c:\program files (x86)\microsoft visual studio 12.0\vc\include\xstring
; File c:\users\nummer\documents\github\olr-3.0\src\xray\xrcore\xr_ini.cpp
; File c:\program files (x86)\microsoft visual studio 12.0\vc\include\vector
; File c:\users\nummer\documents\github\olr-3.0\src\xray\xrcore\xr_ini.cpp
; File c:\program files (x86)\microsoft visual studio 12.0\vc\include\vector
; File c:\users\nummer\documents\github\olr-3.0\src\xray\xrcore\xr_ini.cpp
; File c:\program files (x86)\microsoft visual studio 12.0\vc\include\xstring
; File c:\users\nummer\documents\github\olr-3.0\src\xray\xrcore\xrmemory.h
; File c:\users\nummer\documents\github\olr-3.0\src\xray\xrcore\xrmemory_subst_msvc.cpp
; File c:\users\nummer\documents\github\olr-3.0\src\xray\xrcore\xrmemory_align.cpp
; File c:\users\nummer\documents\github\olr-3.0\src\xray\xrcore\xrmemory_subst_msvc.cpp
; File c:\users\nummer\documents\github\olr-3.0\src\xray\xrcore\xrsyncronize.cpp
; File c:\users\nummer\documents\github\olr-3.0\src\xray\xrcore\xrmemory_pool.h
; File c:\users\nummer\documents\github\olr-3.0\src\xray\xrcore\xrsyncronize.cpp
; File c:\users\nummer\documents\github\olr-3.0\src\xray\xrcore\xrmemory_pool.h
; File c:\users\nummer\documents\github\olr-3.0\src\xray\xrcore\xrsyncronize.cpp
; File c:\users\nummer\documents\github\olr-3.0\src\xray\xrcore\xr_ini.cpp
; File c:\program files (x86)\microsoft visual studio 12.0\vc\include\string.h
; File c:\users\nummer\documents\github\olr-3.0\src\xray\xrcore\xr_ini.cpp
; File c:\users\nummer\documents\github\olr-3.0\src\xray\xrcore\xrstring.h
; File c:\users\nummer\documents\github\olr-3.0\src\xray\xrcore\xr_ini.cpp
; File c:\program files (x86)\microsoft visual studio 12.0\vc\include\string.h
; File c:\users\nummer\documents\github\olr-3.0\src\xray\xrcore\xr_ini.cpp
; File c:\program files (x86)\microsoft visual studio 12.0\vc\include\string.h
; File c:\users\nummer\documents\github\olr-3.0\src\xray\xrcore\xr_ini.cpp
; File c:\users\nummer\documents\github\olr-3.0\src\xray\xrcore\xrstring.h
; File c:\users\nummer\documents\github\olr-3.0\src\xray\xrcore\xr_ini.cpp
; File c:\users\nummer\documents\github\olr-3.0\src\xray\xrcore\xrstring.h
; File c:\users\nummer\documents\github\olr-3.0\src\xray\xrcore\xr_ini.cpp
; File c:\users\nummer\documents\github\olr-3.0\src\xray\xrcore\xrstring.h
; File c:\users\nummer\documents\github\olr-3.0\src\xray\xrcore\xr_ini.cpp
; File c:\users\nummer\documents\github\olr-3.0\src\xray\xrcore\xrstring.h
; File c:\users\nummer\documents\github\olr-3.0\src\xray\xrcore\xr_ini.cpp
; File c:\users\nummer\documents\github\olr-3.0\src\xray\xrcore\xrstring.h
; File c:\users\nummer\documents\github\olr-3.0\src\xray\xrcore\xr_ini.cpp
; File c:\users\nummer\documents\github\olr-3.0\src\xray\xrcore\xrstring.h
; File c:\users\nummer\documents\github\olr-3.0\src\xray\xrcore\xr_ini.cpp
; File c:\users\nummer\documents\github\olr-3.0\src\xray\xrcore\xrstring.h
; File c:\users\nummer\documents\github\olr-3.0\src\xray\xrcore\xr_ini.cpp
; File c:\users\nummer\documents\github\olr-3.0\src\xray\xrcore\xrstring.h
; File c:\users\nummer\documents\github\olr-3.0\src\xray\xrcore\xr_ini.cpp
; File c:\users\nummer\documents\github\olr-3.0\src\xray\xrcore\xrstring.h
; File c:\users\nummer\documents\github\olr-3.0\src\xray\xrcore\xr_ini.cpp
; File c:\users\nummer\documents\github\olr-3.0\src\xray\xrcore\xrstring.h
; File c:\users\nummer\documents\github\olr-3.0\src\xray\xrcore\fs.h
; File c:\users\nummer\documents\github\olr-3.0\src\xray\xrcore\xr_ini.cpp
; File c:\users\nummer\documents\github\olr-3.0\src\xray\xrcore\fs.h
; File c:\users\nummer\documents\github\olr-3.0\src\xray\xrcore\xr_ini.cpp
; File c:\users\nummer\documents\github\olr-3.0\src\xray\xrcore\xrstring.h
; File c:\users\nummer\documents\github\olr-3.0\src\xray\xrcore\xr_ini.cpp
; File c:\program files (x86)\microsoft visual studio 12.0\vc\include\xutility
; File c:\program files (x86)\microsoft visual studio 12.0\vc\include\algorithm
; File c:\program files (x86)\microsoft visual studio 12.0\vc\include\xutility
; File c:\program files (x86)\microsoft visual studio 12.0\vc\include\algorithm
; File c:\program files (x86)\microsoft visual studio 12.0\vc\include\xutility
; File c:\users\nummer\documents\github\olr-3.0\src\xray\xrcore\xr_ini.cpp
; File c:\users\nummer\documents\github\olr-3.0\src\xray\xrcore\xrstring.h
; File c:\users\nummer\documents\github\olr-3.0\src\xray\xrcore\_std_extensions.h
; File c:\users\nummer\documents\github\olr-3.0\src\xray\xrcore\xr_ini.cpp
; File c:\program files (x86)\microsoft visual studio 12.0\vc\include\algorithm
; File c:\program files (x86)\microsoft visual studio 12.0\vc\include\vector
; File c:\users\nummer\documents\github\olr-3.0\src\xray\xrcore\xr_ini.cpp
; File c:\users\nummer\documents\github\olr-3.0\src\xray\xrcore\xrstring.h
; File c:\users\nummer\documents\github\olr-3.0\src\xray\xrcore\xr_ini.cpp
; File c:\users\nummer\documents\github\olr-3.0\src\xray\xrcore\xrstring.h
; File c:\users\nummer\documents\github\olr-3.0\src\xray\xrcore\xr_ini.cpp
; File c:\program files (x86)\microsoft visual studio 12.0\vc\include\vector
; File c:\users\nummer\documents\github\olr-3.0\src\xray\xrcore\xr_ini.cpp
_TEXT	SEGMENT
tv2881 = 80
Current$1$ = 80
tmp$1 = 88
Current$ = 120
I$2 = 128
cnt$1$ = 144
inherited_names$1$ = 152
inc_name$3 = 160
$T4 = 224
fn$5 = 240
str$ = 768
inc_path$6 = 4864
folder$7 = 5392
str2$ = 5920
this$ = 10064
tv2871 = 10072
$T8 = 10072
F$ = 10072
path$ = 10080
tv2880 = 10088
tv2872 = 10088
k$1$ = 10088
?Load@CInifile@@AEAAXPEAVIReader@@PEBD@Z PROC		; CInifile::Load

; 131  : {

$LN871:
	mov	QWORD PTR [rsp+24], r8
	mov	QWORD PTR [rsp+16], rdx
	mov	QWORD PTR [rsp+8], rcx
	push	rbp
	push	rbx
	push	rsi
	lea	rbp, QWORD PTR [rsp-9776]
	mov	eax, 10032				; 00002730H
	call	__chkstk
	sub	rsp, rax

; 132  : 	R_ASSERT(F);

	xor	ebx, ebx
	lea	rcx, OFFSET FLAT:??_C@_0P@PFFEEJAK@CInifile?3?3Load?$AA@
	lea	r8, OFFSET FLAT:??_C@_0L@BOCIKDOE@Xr_ini?4cpp?$AA@
	cmp	BYTE PTR ?ignore_always@?3??Load@CInifile@@AEAAXPEAVIReader@@PEBD@Z@4_NA, bl
	jne	SHORT $LN48@Load
	test	rdx, rdx
	jne	SHORT $LN48@Load
; File c:\users\nummer\documents\github\olr-3.0\src\xray\xrcore\xrdebugnew.cpp

; 452  : 	backend		("assertion failed",e1,0,0,file,line,function,ignore_always);

	lea	rax, OFFSET FLAT:?ignore_always@?3??Load@CInifile@@AEAAXPEAVIReader@@PEBD@Z@4_NA
	lea	rdx, OFFSET FLAT:??_C@_0BB@DBHFCHNO@assertion?5failed?$AA@
	xor	r9d, r9d
	mov	QWORD PTR [rsp+64], rax
	mov	QWORD PTR [rsp+56], rcx
	mov	DWORD PTR [rsp+48], 132			; 00000084H
	mov	QWORD PTR [rsp+40], r8
	lea	rcx, OFFSET FLAT:?Debug@@3VxrDebug@@A	; Debug
	lea	r8, OFFSET FLAT:??_C@_01BIAFAFID@F?$AA@
	mov	QWORD PTR [rsp+32], rbx
	call	?backend@xrDebug@@QEAAXPEBD0000H0AEA_N@Z ; xrDebug::backend
	mov	rdx, QWORD PTR F$[rbp-256]
$LN48@Load:
; File c:\users\nummer\documents\github\olr-3.0\src\xray\xrcore\fs.h

; 261  : 	IC int			elapsed		()	const		{	return Size-Pos;		};

	mov	eax, DWORD PTR [rdx+20]
; File c:\users\nummer\documents\github\olr-3.0\src\xray\xrcore\xr_ini.cpp

; 133  : 	Sect		*Current = 0;

	mov	rsi, rbx
	mov	QWORD PTR Current$1$[rsp], rbx
; File c:\users\nummer\documents\github\olr-3.0\src\xray\xrcore\fs.h

; 261  : 	IC int			elapsed		()	const		{	return Size-Pos;		};

	sub	eax, DWORD PTR [rdx+16]
; File c:\users\nummer\documents\github\olr-3.0\src\xray\xrcore\xr_ini.cpp

; 133  : 	Sect		*Current = 0;

	mov	QWORD PTR Current$[rsp], rbx
; File c:\users\nummer\documents\github\olr-3.0\src\xray\xrcore\fs.h

; 140  : 	IC BOOL			eof			()	const		{return impl().elapsed()<=0;	};

	test	eax, eax
; File c:\users\nummer\documents\github\olr-3.0\src\xray\xrcore\xr_ini.cpp

; 137  : 	while (!F->eof())

	jle	$LN770@Load
	mov	QWORD PTR [rsp+10024], rdi
; File c:\users\nummer\documents\github\olr-3.0\src\xray\xrcore\fs.h

; 261  : 	IC int			elapsed		()	const		{	return Size-Pos;		};

	lea	r8, OFFSET FLAT:?ignore_always@?3??r_string@IReader@@QEAAXPEADI@Z@4_NA
	lea	r10, OFFSET FLAT:??_C@_0BC@LFPNBCKC@IReader?3?3r_string?$AA@
	npad	4
$LL45@Load:
; File c:\users\nummer\documents\github\olr-3.0\src\xray\xrcore\fs.cpp

; 347  : 	char *src 	= (char *) data+Pos;

	movsxd	rcx, DWORD PTR [rdx+16]
; File c:\users\nummer\documents\github\olr-3.0\src\xray\xrcore\fs.h

; 261  : 	IC int			elapsed		()	const		{	return Size-Pos;		};

	mov	r9d, DWORD PTR [rdx+20]
; File c:\users\nummer\documents\github\olr-3.0\src\xray\xrcore\fs.cpp

; 347  : 	char *src 	= (char *) data+Pos;

	mov	r11, QWORD PTR [rdx+8]
; File c:\users\nummer\documents\github\olr-3.0\src\xray\xrcore\fs.h

; 261  : 	IC int			elapsed		()	const		{	return Size-Pos;		};

	mov	eax, r9d
; File c:\users\nummer\documents\github\olr-3.0\src\xray\xrcore\fs.cpp

; 347  : 	char *src 	= (char *) data+Pos;

	lea	rdi, QWORD PTR [r11+rcx]
; File c:\users\nummer\documents\github\olr-3.0\src\xray\xrcore\fs.h

; 261  : 	IC int			elapsed		()	const		{	return Size-Pos;		};

	sub	eax, ecx

; 140  : 	IC BOOL			eof			()	const		{return impl().elapsed()<=0;	};

	test	eax, eax
; File c:\users\nummer\documents\github\olr-3.0\src\xray\xrcore\fs.cpp

; 335  : 	while (!eof()) {

	jle	$LN839@Load
	npad	3
$LL70@Load:

; 336  :         Pos++;

	inc	DWORD PTR [rdx+16]
	movsxd	rcx, DWORD PTR [rdx+16]

; 337  :         sz++;

	inc	ebx
; File c:\users\nummer\documents\github\olr-3.0\src\xray\xrcore\fs.h

; 261  : 	IC int			elapsed		()	const		{	return Size-Pos;		};

	mov	edx, ecx
	neg	edx
	lea	eax, DWORD PTR [rdx+r9]

; 140  : 	IC BOOL			eof			()	const		{return impl().elapsed()<=0;	};

	test	eax, eax
; File c:\users\nummer\documents\github\olr-3.0\src\xray\xrcore\fs.cpp

; 338  : 		if (!eof()&&is_term(src[Pos])) {

	jle	SHORT $LN68@Load
	movzx	r8d, BYTE PTR [rcx+r11]

; 330  : IC BOOL			is_term		(char a) { return (a==13)||(a==10); };

	cmp	r8b, 13
	je	SHORT $LN774@Load
	cmp	r8b, 10
	je	SHORT $LN774@Load
$LN68@Load:
; File c:\users\nummer\documents\github\olr-3.0\src\xray\xrcore\fs.h

; 261  : 	IC int			elapsed		()	const		{	return Size-Pos;		};

	lea	eax, DWORD PTR [rdx+r9]

; 140  : 	IC BOOL			eof			()	const		{return impl().elapsed()<=0;	};

	test	eax, eax
; File c:\users\nummer\documents\github\olr-3.0\src\xray\xrcore\fs.cpp

; 335  : 	while (!eof()) {

	jle	SHORT $LN866@Load
	mov	rdx, QWORD PTR F$[rbp-256]
	jmp	SHORT $LL70@Load
$LN774@Load:
; File c:\users\nummer\documents\github\olr-3.0\src\xray\xrcore\fs.h

; 261  : 	IC int			elapsed		()	const		{	return Size-Pos;		};

	mov	eax, r9d
	sub	eax, ecx

; 140  : 	IC BOOL			eof			()	const		{return impl().elapsed()<=0;	};

	test	eax, eax
; File c:\users\nummer\documents\github\olr-3.0\src\xray\xrcore\fs.cpp

; 339  :         	while(!eof()&&is_term(src[Pos])) Pos++;

	jle	SHORT $LN866@Load
	mov	r8, QWORD PTR F$[rbp-256]
	npad	9
$LL67@Load:
	movsxd	rax, ecx
	movzx	edx, BYTE PTR [rax+r11]

; 330  : IC BOOL			is_term		(char a) { return (a==13)||(a==10); };

	cmp	dl, 13
	je	SHORT $LN97@Load
	cmp	dl, 10
	jne	SHORT $LN866@Load
$LN97@Load:

; 339  :         	while(!eof()&&is_term(src[Pos])) Pos++;

	inc	ecx
; File c:\users\nummer\documents\github\olr-3.0\src\xray\xrcore\fs.h

; 261  : 	IC int			elapsed		()	const		{	return Size-Pos;		};

	mov	eax, r9d
	sub	eax, ecx
; File c:\users\nummer\documents\github\olr-3.0\src\xray\xrcore\fs.cpp

; 339  :         	while(!eof()&&is_term(src[Pos])) Pos++;

	mov	DWORD PTR [r8+16], ecx
; File c:\users\nummer\documents\github\olr-3.0\src\xray\xrcore\fs.h

; 140  : 	IC BOOL			eof			()	const		{return impl().elapsed()<=0;	};

	test	eax, eax
; File c:\users\nummer\documents\github\olr-3.0\src\xray\xrcore\fs.cpp

; 339  :         	while(!eof()&&is_term(src[Pos])) Pos++;

	jg	SHORT $LL67@Load
$LN866@Load:
	lea	r8, OFFSET FLAT:?ignore_always@?3??r_string@IReader@@QEAAXPEADI@Z@4_NA
	lea	r10, OFFSET FLAT:??_C@_0BC@LFPNBCKC@IReader?3?3r_string?$AA@
$LN839@Load:

; 348  : 	u32 sz 		= advance_term_string();
; 349  :     R_ASSERT2(sz<(tgt_sz-1),"Dest string less than needed.");

	cmp	BYTE PTR ?ignore_always@?3??r_string@IReader@@QEAAXPEADI@Z@4_NA, 0
	jne	SHORT $LN62@Load
	cmp	ebx, 4095				; 00000fffH
	jb	SHORT $LN62@Load
; File c:\users\nummer\documents\github\olr-3.0\src\xray\xrcore\xrdebugnew.cpp

; 462  : 	backend		(e1,e2,0,0,file,line,function,ignore_always);

	mov	QWORD PTR [rsp+64], r8
	mov	QWORD PTR [rsp+56], r10
	lea	rax, OFFSET FLAT:??_C@_06ODPOMCLF@FS?4cpp?$AA@
	mov	DWORD PTR [rsp+48], 349			; 0000015dH
	mov	QWORD PTR [rsp+40], rax
	lea	r8, OFFSET FLAT:??_C@_0BO@CBOGAODA@Dest?5string?5less?5than?5needed?4?$AA@
	lea	rdx, OFFSET FLAT:??_C@_0O@CCNJDAAG@sz?$DM?$CItgt_sz?91?$CJ?$AA@
	lea	rcx, OFFSET FLAT:?Debug@@3VxrDebug@@A	; Debug
	xor	r9d, r9d
	mov	QWORD PTR [rsp+32], 0
	call	?backend@xrDebug@@QEAAXPEBD0000H0AEA_N@Z ; xrDebug::backend
$LN62@Load:
; File c:\users\nummer\documents\github\olr-3.0\src\xray\xrcore\fs.cpp

; 350  :     strncpy		(dest,src,sz);

	mov	ebx, ebx
	lea	rcx, QWORD PTR str$[rbp-256]
	mov	rdx, rdi
	mov	r8d, ebx
	call	QWORD PTR __imp_strncpy

; 351  :     dest[sz]	= 0;

	mov	BYTE PTR str$[rbp+rbx-256], 0
; File c:\users\nummer\documents\github\olr-3.0\src\xray\xrcore\xr_trims.cpp

; 7    : 	while( *p && (u8(*p)<=u8(' ')) ) p++;

	movzx	ecx, BYTE PTR str$[rbp-256]
	lea	rax, QWORD PTR str$[rbp-256]
	test	cl, cl
	je	SHORT $LN106@Load
$LL108@Load:
	cmp	cl, 32					; 00000020H
	ja	SHORT $LN107@Load
	movzx	ecx, BYTE PTR [rax+1]
	inc	rax
	test	cl, cl
	jne	SHORT $LL108@Load
$LN107@Load:

; 8    :     if (p!=str){

	lea	rcx, QWORD PTR str$[rbp-256]
	cmp	rax, rcx
	je	SHORT $LN106@Load

; 9    :         for (LPSTR t=str; *p; t++,p++) *t=*p;

	movzx	edx, BYTE PTR [rax]
	lea	rcx, QWORD PTR str$[rbp-256]
	test	dl, dl
	je	SHORT $LN103@Load
	lea	r8, QWORD PTR str$[rbp-256]
	sub	rax, r8
	npad	9
$LL105@Load:
	mov	BYTE PTR [rcx], dl
	movzx	edx, BYTE PTR [rcx+rax+1]
	inc	rcx
	test	dl, dl
	jne	SHORT $LL105@Load
$LN103@Load:

; 10   :         *t = 0;

	mov	BYTE PTR [rcx], 0
$LN106@Load:
; File c:\users\nummer\documents\github\olr-3.0\src\xray\xrcore\_std_extensions.h

; 270  : {	return (u32)strlen(S);			}

	lea	rcx, QWORD PTR str$[rbp-256]
	or	rax, -1
	npad	4
$LL852@Load:
	inc	rax
	cmp	BYTE PTR [rcx+rax], 0
	jne	SHORT $LL852@Load
; File c:\users\nummer\documents\github\olr-3.0\src\xray\xrcore\xr_trims.cpp

; 17   : 	LPSTR p 	= str+xr_strlen(str);

	mov	eax, eax
	lea	rcx, QWORD PTR str$[rbp-256]
	add	rcx, rax

; 18   : 	while( (p!=str) && (u8(*p)<=u8(' ')) ) p--;

	lea	rax, QWORD PTR str$[rbp-256]
	cmp	rcx, rax
	je	SHORT $LN855@Load
$LL112@Load:
	cmp	BYTE PTR [rcx], 32			; 00000020H
	ja	SHORT $LN855@Load
	lea	rax, QWORD PTR str$[rbp-256]
	dec	rcx
	cmp	rcx, rax
	jne	SHORT $LL112@Load
$LN855@Load:

; 19   :     *(++p) 		= 0;

	mov	BYTE PTR [rcx+1], 0
; File c:\program files (x86)\microsoft visual studio 12.0\vc\include\string.h

; 222  :         { return (char*)strchr((const char*)_Str, _Ch); }

	lea	rcx, QWORD PTR str$[rbp-256]
	mov	edx, 59					; 0000003bH
	call	QWORD PTR __imp_strchr
	lea	rcx, QWORD PTR str$[rbp-256]
