; Listing generated by Microsoft (R) Optimizing Compiler Version 16.00.40219.01 

include listing.inc

INCLUDELIB OLDNAMES

PUBLIC	??$xr_new@VCInifile@@PEBDH@@YAPEAVCInifile@@AEBQEBDAEBH@Z ; xr_new<CInifile,char const * __ptr64,int>
PUBLIC	??R?$xr_special_free@$00VCInifile@@@@QEAAXAEAPEAVCInifile@@@Z ; xr_special_free<1,CInifile>::operator()
PUBLIC	??$xr_delete@VCInifile@@@@YAXAEAPEAVCInifile@@@Z ; xr_delete<CInifile>
PUBLIC	??7shared_str@@QEBA_NXZ				; shared_str::operator!
PUBLIC	??M@YA_NAEBVshared_str@@0@Z			; operator<
PUBLIC	??0?$xalloc@PEAUSect@CInifile@@@@QEAA@XZ	; xalloc<CInifile::Sect * __ptr64>::xalloc<CInifile::Sect * __ptr64>
PUBLIC	??0?$vector@PEAUSect@CInifile@@V?$xalloc@PEAUSect@CInifile@@@@@std@@QEAA@XZ ; std::vector<CInifile::Sect * __ptr64,xalloc<CInifile::Sect * __ptr64> >::vector<CInifile::Sect * __ptr64,xalloc<CInifile::Sect * __ptr64> >
PUBLIC	??0?$xr_vector@PEAUSect@CInifile@@V?$xalloc@PEAUSect@CInifile@@@@@@QEAA@XZ ; xr_vector<CInifile::Sect * __ptr64,xalloc<CInifile::Sect * __ptr64> >::xr_vector<CInifile::Sect * __ptr64,xalloc<CInifile::Sect * __ptr64> >
PUBLIC	??_GSect@CInifile@@QEAAPEAXI@Z			; CInifile::Sect::`scalar deleting destructor'
PUBLIC	??R?$xr_special_free@$0A@USect@CInifile@@@@QEAAXAEAPEAUSect@CInifile@@@Z ; xr_special_free<0,CInifile::Sect>::operator()
PUBLIC	??$xr_delete@USect@CInifile@@@@YAXAEAPEAUSect@CInifile@@@Z ; xr_delete<CInifile::Sect>
PUBLIC	?strchr@@YAPEADPEADH@Z				; strchr
PUBLIC	??E?$_Vector_iterator@V?$_Vector_val@UItem@CInifile@@V?$xalloc@UItem@CInifile@@@@@std@@@std@@QEAAAEAV01@XZ ; std::_Vector_iterator<std::_Vector_val<CInifile::Item,xalloc<CInifile::Item> > >::operator++
PUBLIC	??E?$_Vector_iterator@V?$_Vector_val@UItem@CInifile@@V?$xalloc@UItem@CInifile@@@@@std@@@std@@QEAA?AV01@H@Z ; std::_Vector_iterator<std::_Vector_val<CInifile::Item,xalloc<CInifile::Item> > >::operator++
PUBLIC	?equal@shared_str@@QEBA_NAEBV1@@Z		; shared_str::equal
PUBLIC	??$_Uninit_fill_n@PEAUItem@CInifile@@_KU12@V?$xalloc@UItem@CInifile@@@@U12@@std@@YAXPEAUItem@CInifile@@_KPEBU12@AEAV?$xalloc@UItem@CInifile@@@@0U_Nonscalar_ptr_iterator_tag@0@@Z ; std::_Uninit_fill_n<CInifile::Item * __ptr64,unsigned __int64,CInifile::Item,xalloc<CInifile::Item>,CInifile::Item>
PUBLIC	??$_Uninitialized_fill_n@PEAUItem@CInifile@@_KU12@V?$xalloc@UItem@CInifile@@@@@std@@YAXPEAUItem@CInifile@@_KPEBU12@AEAV?$xalloc@UItem@CInifile@@@@@Z ; std::_Uninitialized_fill_n<CInifile::Item * __ptr64,unsigned __int64,CInifile::Item,xalloc<CInifile::Item> >
PUBLIC	?_Ufill@?$vector@UItem@CInifile@@V?$xalloc@UItem@CInifile@@@@@std@@IEAAPEAUItem@CInifile@@PEAU34@_KPEBU34@@Z ; std::vector<CInifile::Item,xalloc<CInifile::Item> >::_Ufill
PUBLIC	??$addressof@$$CBUItem@CInifile@@@std@@YAPEBUItem@CInifile@@AEBU12@@Z ; std::addressof<CInifile::Item const >
PUBLIC	??$addressof@UItem@CInifile@@@std@@YAPEAUItem@CInifile@@AEAU12@@Z ; std::addressof<CInifile::Item>
PUBLIC	??$_Unchecked@PEAUItem@CInifile@@@std@@YAPEAUItem@CInifile@@PEAU12@@Z ; std::_Unchecked<CInifile::Item * __ptr64>
PUBLIC	??$_Fill@PEAUItem@CInifile@@U12@@std@@YAXPEAUItem@CInifile@@0AEBU12@@Z ; std::_Fill<CInifile::Item * __ptr64,CInifile::Item>
PUBLIC	??$fill@PEAUItem@CInifile@@U12@@std@@YAXPEAUItem@CInifile@@0AEBU12@@Z ; std::fill<CInifile::Item * __ptr64,CInifile::Item>
PUBLIC	??$_Copy_backward@PEAUItem@CInifile@@PEAU12@@std@@YAPEAUItem@CInifile@@PEAU12@00U_Nonscalar_ptr_iterator_tag@0@@Z ; std::_Copy_backward<CInifile::Item * __ptr64,CInifile::Item * __ptr64>
PUBLIC	??$_Copy_backward@PEAUItem@CInifile@@PEAU12@@std@@YAPEAUItem@CInifile@@PEAU12@00@Z ; std::_Copy_backward<CInifile::Item * __ptr64,CInifile::Item * __ptr64>
PUBLIC	?_Insert_n@?$vector@UItem@CInifile@@V?$xalloc@UItem@CInifile@@@@@std@@IEAAXV?$_Vector_const_iterator@V?$_Vector_val@UItem@CInifile@@V?$xalloc@UItem@CInifile@@@@@std@@@2@_KAEBUItem@CInifile@@@Z ; std::vector<CInifile::Item,xalloc<CInifile::Item> >::_Insert_n
PUBLIC	?insert@?$vector@UItem@CInifile@@V?$xalloc@UItem@CInifile@@@@@std@@QEAA?AV?$_Vector_iterator@V?$_Vector_val@UItem@CInifile@@V?$xalloc@UItem@CInifile@@@@@std@@@2@V?$_Vector_const_iterator@V?$_Vector_val@UItem@CInifile@@V?$xalloc@UItem@CInifile@@@@@std@@@2@AEBUItem@CInifile@@@Z ; std::vector<CInifile::Item,xalloc<CInifile::Item> >::insert
PUBLIC	??E?$_Vector_iterator@V?$_Vector_val@PEAUSect@CInifile@@V?$xalloc@PEAUSect@CInifile@@@@@std@@@std@@QEAAAEAV01@XZ ; std::_Vector_iterator<std::_Vector_val<CInifile::Sect * __ptr64,xalloc<CInifile::Sect * __ptr64> > >::operator++
PUBLIC	??$_Lower_bound@PEAPEAUSect@CInifile@@PEBD_JP6A_NPEBU12@PEBD@Z@std@@YAPEAPEAUSect@CInifile@@PEAPEAU12@0AEBQEBDP6A_NPEBU12@PEBD@ZPEA_J@Z ; std::_Lower_bound<CInifile::Sect * __ptr64 * __ptr64,char const * __ptr64,__int64,bool (__cdecl*)(CInifile::Sect const * __ptr64,char const * __ptr64)>
PUBLIC	??$lower_bound@V?$_Vector_iterator@V?$_Vector_val@PEAUSect@CInifile@@V?$xalloc@PEAUSect@CInifile@@@@@std@@@std@@PEBDP6A_NPEBUSect@CInifile@@PEBD@Z@std@@YA?AV?$_Vector_iterator@V?$_Vector_val@PEAUSect@CInifile@@V?$xalloc@PEAUSect@CInifile@@@@@std@@@0@V10@0AEBQEBDP6A_NPEBUSect@CInifile@@PEBD@Z@Z ; std::lower_bound<std::_Vector_iterator<std::_Vector_val<CInifile::Sect * __ptr64,xalloc<CInifile::Sect * __ptr64> > >,char const * __ptr64,bool (__cdecl*)(CInifile::Sect const * __ptr64,char const * __ptr64)>
PUBLIC	??D?$_Vector_iterator@V?$_Vector_val@PEAUSect@CInifile@@V?$xalloc@PEAUSect@CInifile@@@@@std@@@std@@QEBAAEAPEAUSect@CInifile@@XZ ; std::_Vector_iterator<std::_Vector_val<CInifile::Sect * __ptr64,xalloc<CInifile::Sect * __ptr64> > >::operator*
PUBLIC	??$strcpy_s@$0CAA@@@YAHAEAY0CAA@DPEBD@Z		; strcpy_s<512>
PUBLIC	?color_argb@@YAIIIII@Z				; color_argb
PUBLIC	?color_rgba@@YAIIIII@Z				; color_rgba
PUBLIC	?size@?$xr_vector@UItem@CInifile@@V?$xalloc@UItem@CInifile@@@@@@QEBAIXZ ; xr_vector<CInifile::Item,xalloc<CInifile::Item> >::size
PUBLIC	??C?$_Vector_const_iterator@V?$_Vector_val@UItem@CInifile@@V?$xalloc@UItem@CInifile@@@@@std@@@std@@QEBAPEBUItem@CInifile@@XZ ; std::_Vector_const_iterator<std::_Vector_val<CInifile::Item,xalloc<CInifile::Item> > >::operator->
PUBLIC	??E?$_Vector_const_iterator@V?$_Vector_val@UItem@CInifile@@V?$xalloc@UItem@CInifile@@@@@std@@@std@@QEAA?AV01@H@Z ; std::_Vector_const_iterator<std::_Vector_val<CInifile::Item,xalloc<CInifile::Item> > >::operator++
PUBLIC	??H?$_Vector_iterator@V?$_Vector_val@PEAUSect@CInifile@@V?$xalloc@PEAUSect@CInifile@@@@@std@@@std@@QEBA?AV01@_J@Z ; std::_Vector_iterator<std::_Vector_val<CInifile::Sect * __ptr64,xalloc<CInifile::Sect * __ptr64> > >::operator+
PUBLIC	??Z?$_Vector_iterator@V?$_Vector_val@PEAUSect@CInifile@@V?$xalloc@PEAUSect@CInifile@@@@@std@@@std@@QEAAAEAV01@_J@Z ; std::_Vector_iterator<std::_Vector_val<CInifile::Sect * __ptr64,xalloc<CInifile::Sect * __ptr64> > >::operator-=
PUBLIC	??G?$_Vector_iterator@V?$_Vector_val@PEAUSect@CInifile@@V?$xalloc@PEAUSect@CInifile@@@@@std@@@std@@QEBA?AV01@_J@Z ; std::_Vector_iterator<std::_Vector_val<CInifile::Sect * __ptr64,xalloc<CInifile::Sect * __ptr64> > >::operator-
PUBLIC	??$forward@PEAUSect@CInifile@@@std@@YA$$QEAPEAUSect@CInifile@@AEAPEAU12@@Z ; std::forward<CInifile::Sect * __ptr64>
PUBLIC	??$_Cons_val@V?$xalloc@PEAUSect@CInifile@@@@PEAUSect@CInifile@@PEAU23@@std@@YAXAEAV?$xalloc@PEAUSect@CInifile@@@@PEAPEAUSect@CInifile@@$$QEAPEAU23@@Z ; std::_Cons_val<xalloc<CInifile::Sect * __ptr64>,CInifile::Sect * __ptr64,CInifile::Sect * __ptr64>
PUBLIC	??$_Uninit_move@PEAPEAUSect@CInifile@@PEAPEAU12@V?$xalloc@PEAUSect@CInifile@@@@PEAU12@@std@@YAPEAPEAUSect@CInifile@@PEAPEAU12@00AEAV?$xalloc@PEAUSect@CInifile@@@@0U_Nonscalar_ptr_iterator_tag@0@@Z ; std::_Uninit_move<CInifile::Sect * __ptr64 * __ptr64,CInifile::Sect * __ptr64 * __ptr64,xalloc<CInifile::Sect * __ptr64>,CInifile::Sect * __ptr64>
PUBLIC	??$_Uninit_move@PEAPEAUSect@CInifile@@PEAPEAU12@V?$xalloc@PEAUSect@CInifile@@@@PEAU12@@std@@YAPEAPEAUSect@CInifile@@PEAPEAU12@00AEAV?$xalloc@PEAUSect@CInifile@@@@0U_Scalar_ptr_iterator_tag@0@@Z ; std::_Uninit_move<CInifile::Sect * __ptr64 * __ptr64,CInifile::Sect * __ptr64 * __ptr64,xalloc<CInifile::Sect * __ptr64>,CInifile::Sect * __ptr64>
PUBLIC	??$_Uninitialized_move@PEAPEAUSect@CInifile@@PEAPEAU12@V?$xalloc@PEAUSect@CInifile@@@@@std@@YAPEAPEAUSect@CInifile@@PEAPEAU12@00AEAV?$xalloc@PEAUSect@CInifile@@@@@Z ; std::_Uninitialized_move<CInifile::Sect * __ptr64 * __ptr64,CInifile::Sect * __ptr64 * __ptr64,xalloc<CInifile::Sect * __ptr64> >
PUBLIC	??$_Umove@PEAPEAUSect@CInifile@@@?$vector@PEAUSect@CInifile@@V?$xalloc@PEAUSect@CInifile@@@@@std@@IEAAPEAPEAUSect@CInifile@@PEAPEAU23@00@Z ; std::vector<CInifile::Sect * __ptr64,xalloc<CInifile::Sect * __ptr64> >::_Umove<CInifile::Sect * __ptr64 * __ptr64>
PUBLIC	?reserve@?$vector@PEAUSect@CInifile@@V?$xalloc@PEAUSect@CInifile@@@@@std@@QEAAX_K@Z ; std::vector<CInifile::Sect * __ptr64,xalloc<CInifile::Sect * __ptr64> >::reserve
PUBLIC	?_Grow_to@?$vector@PEAUSect@CInifile@@V?$xalloc@PEAUSect@CInifile@@@@@std@@IEBA_K_K@Z ; std::vector<CInifile::Sect * __ptr64,xalloc<CInifile::Sect * __ptr64> >::_Grow_to
PUBLIC	?_Reserve@?$vector@PEAUSect@CInifile@@V?$xalloc@PEAUSect@CInifile@@@@@std@@IEAAX_K@Z ; std::vector<CInifile::Sect * __ptr64,xalloc<CInifile::Sect * __ptr64> >::_Reserve
PUBLIC	?_Orphan_range@?$vector@PEAUSect@CInifile@@V?$xalloc@PEAUSect@CInifile@@@@@std@@IEBAXPEAPEAUSect@CInifile@@0@Z ; std::vector<CInifile::Sect * __ptr64,xalloc<CInifile::Sect * __ptr64> >::_Orphan_range
PUBLIC	??$emplace_back@AEAPEAUSect@CInifile@@@?$vector@PEAUSect@CInifile@@V?$xalloc@PEAUSect@CInifile@@@@@std@@QEAAXAEAPEAUSect@CInifile@@@Z ; std::vector<CInifile::Sect * __ptr64,xalloc<CInifile::Sect * __ptr64> >::emplace_back<CInifile::Sect * __ptr64 & __ptr64>
PUBLIC	??$_Dist_type@PEAPEAUSect@CInifile@@@std@@YAPEA_JPEAPEAUSect@CInifile@@@Z ; std::_Dist_type<CInifile::Sect * __ptr64 * __ptr64>
PUBLIC	??$_Val_type@PEAPEAUSect@CInifile@@@std@@YAPEAPEAUSect@CInifile@@PEAPEAU12@@Z ; std::_Val_type<CInifile::Sect * __ptr64 * __ptr64>
PUBLIC	??$_Move@AEAPEAUSect@CInifile@@@std@@YA$$QEAPEAUSect@CInifile@@AEAPEAU12@@Z ; std::_Move<CInifile::Sect * __ptr64 & __ptr64>
PUBLIC	??$swap@PEAUSect@CInifile@@@std@@YAXAEAPEAUSect@CInifile@@0@Z ; std::swap<CInifile::Sect * __ptr64>
PUBLIC	??$iter_swap@PEAPEAUSect@CInifile@@PEAPEAU12@@std@@YAXPEAPEAUSect@CInifile@@0@Z ; std::iter_swap<CInifile::Sect * __ptr64 * __ptr64,CInifile::Sect * __ptr64 * __ptr64>
PUBLIC	??$_Rotate@PEAPEAUSect@CInifile@@_JPEAU12@@std@@YAXPEAPEAUSect@CInifile@@00PEA_J0@Z ; std::_Rotate<CInifile::Sect * __ptr64 * __ptr64,__int64,CInifile::Sect * __ptr64>
PUBLIC	??$_Rotate@PEAPEAUSect@CInifile@@@std@@YAXPEAPEAUSect@CInifile@@00Urandom_access_iterator_tag@0@@Z ; std::_Rotate<CInifile::Sect * __ptr64 * __ptr64>
PUBLIC	??G?$_Vector_const_iterator@V?$_Vector_val@PEAUSect@CInifile@@V?$xalloc@PEAUSect@CInifile@@@@@std@@@std@@QEBA_JAEBV01@@Z ; std::_Vector_const_iterator<std::_Vector_val<CInifile::Sect * __ptr64,xalloc<CInifile::Sect * __ptr64> > >::operator-
PUBLIC	??G?$_Vector_iterator@V?$_Vector_val@PEAUSect@CInifile@@V?$xalloc@PEAUSect@CInifile@@@@@std@@@std@@QEBA_JAEBV?$_Vector_const_iterator@V?$_Vector_val@PEAUSect@CInifile@@V?$xalloc@PEAUSect@CInifile@@@@@std@@@1@@Z ; std::_Vector_iterator<std::_Vector_val<CInifile::Sect * __ptr64,xalloc<CInifile::Sect * __ptr64> > >::operator-
PUBLIC	??$_Distance2@V?$_Vector_iterator@V?$_Vector_val@PEAUSect@CInifile@@V?$xalloc@PEAUSect@CInifile@@@@@std@@@std@@_J@std@@YAXV?$_Vector_iterator@V?$_Vector_val@PEAUSect@CInifile@@V?$xalloc@PEAUSect@CInifile@@@@@std@@@0@0AEA_JUrandom_access_iterator_tag@0@@Z ; std::_Distance2<std::_Vector_iterator<std::_Vector_val<CInifile::Sect * __ptr64,xalloc<CInifile::Sect * __ptr64> > >,__int64>
PUBLIC	??$distance@V?$_Vector_iterator@V?$_Vector_val@PEAUSect@CInifile@@V?$xalloc@PEAUSect@CInifile@@@@@std@@@std@@@std@@YA_JV?$_Vector_iterator@V?$_Vector_val@PEAUSect@CInifile@@V?$xalloc@PEAUSect@CInifile@@@@@std@@@0@0@Z ; std::distance<std::_Vector_iterator<std::_Vector_val<CInifile::Sect * __ptr64,xalloc<CInifile::Sect * __ptr64> > > >
PUBLIC	??$_Iter_cat@V?$_Vector_iterator@V?$_Vector_val@PEAUSect@CInifile@@V?$xalloc@PEAUSect@CInifile@@@@@std@@@std@@@std@@YA?AUrandom_access_iterator_tag@0@AEBV?$_Vector_iterator@V?$_Vector_val@PEAUSect@CInifile@@V?$xalloc@PEAUSect@CInifile@@@@@std@@@0@@Z ; std::_Iter_cat<std::_Vector_iterator<std::_Vector_val<CInifile::Sect * __ptr64,xalloc<CInifile::Sect * __ptr64> > > >
PUBLIC	??Y?$_Vector_const_iterator@V?$_Vector_val@PEAUSect@CInifile@@V?$xalloc@PEAUSect@CInifile@@@@@std@@@std@@QEAAAEAV01@_J@Z ; std::_Vector_const_iterator<std::_Vector_val<CInifile::Sect * __ptr64,xalloc<CInifile::Sect * __ptr64> > >::operator+=
PUBLIC	??Y?$_Vector_iterator@V?$_Vector_val@PEAUSect@CInifile@@V?$xalloc@PEAUSect@CInifile@@@@@std@@@std@@QEAAAEAV01@_J@Z ; std::_Vector_iterator<std::_Vector_val<CInifile::Sect * __ptr64,xalloc<CInifile::Sect * __ptr64> > >::operator+=
PUBLIC	??$_Advance@V?$_Vector_iterator@V?$_Vector_val@PEAUSect@CInifile@@V?$xalloc@PEAUSect@CInifile@@@@@std@@@std@@_J@std@@YAXAEAV?$_Vector_iterator@V?$_Vector_val@PEAUSect@CInifile@@V?$xalloc@PEAUSect@CInifile@@@@@std@@@0@_JUrandom_access_iterator_tag@0@@Z ; std::_Advance<std::_Vector_iterator<std::_Vector_val<CInifile::Sect * __ptr64,xalloc<CInifile::Sect * __ptr64> > >,__int64>
PUBLIC	??$advance@V?$_Vector_iterator@V?$_Vector_val@PEAUSect@CInifile@@V?$xalloc@PEAUSect@CInifile@@@@@std@@@std@@_J@std@@YAXAEAV?$_Vector_iterator@V?$_Vector_val@PEAUSect@CInifile@@V?$xalloc@PEAUSect@CInifile@@@@@std@@@0@_J@Z ; std::advance<std::_Vector_iterator<std::_Vector_val<CInifile::Sect * __ptr64,xalloc<CInifile::Sect * __ptr64> > >,__int64>
PUBLIC	??$rotate@V?$_Vector_iterator@V?$_Vector_val@PEAUSect@CInifile@@V?$xalloc@PEAUSect@CInifile@@@@@std@@@std@@@std@@YA?AV?$_Vector_iterator@V?$_Vector_val@PEAUSect@CInifile@@V?$xalloc@PEAUSect@CInifile@@@@@std@@@0@V10@00@Z ; std::rotate<std::_Vector_iterator<std::_Vector_val<CInifile::Sect * __ptr64,xalloc<CInifile::Sect * __ptr64> > > >
PUBLIC	??$emplace@AEAPEAUSect@CInifile@@@?$vector@PEAUSect@CInifile@@V?$xalloc@PEAUSect@CInifile@@@@@std@@QEAA?AV?$_Vector_iterator@V?$_Vector_val@PEAUSect@CInifile@@V?$xalloc@PEAUSect@CInifile@@@@@std@@@1@V?$_Vector_const_iterator@V?$_Vector_val@PEAUSect@CInifile@@V?$xalloc@PEAUSect@CInifile@@@@@std@@@1@AEAPEAUSect@CInifile@@@Z ; std::vector<CInifile::Sect * __ptr64,xalloc<CInifile::Sect * __ptr64> >::emplace<CInifile::Sect * __ptr64 & __ptr64>
PUBLIC	??$insert@AEAPEAUSect@CInifile@@@?$vector@PEAUSect@CInifile@@V?$xalloc@PEAUSect@CInifile@@@@@std@@QEAA?AV?$_Vector_iterator@V?$_Vector_val@PEAUSect@CInifile@@V?$xalloc@PEAUSect@CInifile@@@@@std@@@1@V?$_Vector_const_iterator@V?$_Vector_val@PEAUSect@CInifile@@V?$xalloc@PEAUSect@CInifile@@@@@std@@@1@AEAPEAUSect@CInifile@@@Z ; std::vector<CInifile::Sect * __ptr64,xalloc<CInifile::Sect * __ptr64> >::insert<CInifile::Sect * __ptr64 & __ptr64>
PUBLIC	??$xr_new@USect@CInifile@@@@YAPEAUSect@CInifile@@XZ ; xr_new<CInifile::Sect>
PUBLIC	?_Unchecked@?$_Vector_iterator@V?$_Vector_val@PEAUSect@CInifile@@V?$xalloc@PEAUSect@CInifile@@@@@std@@@std@@QEBAPEAPEAUSect@CInifile@@XZ ; std::_Vector_iterator<std::_Vector_val<CInifile::Sect * __ptr64,xalloc<CInifile::Sect * __ptr64> > >::_Unchecked
PUBLIC	??$_Unchecked@V?$_Vector_val@PEAUSect@CInifile@@V?$xalloc@PEAUSect@CInifile@@@@@std@@@std@@YAPEAPEAUSect@CInifile@@V?$_Vector_iterator@V?$_Vector_val@PEAUSect@CInifile@@V?$xalloc@PEAUSect@CInifile@@@@@std@@@0@@Z ; std::_Unchecked<std::_Vector_val<CInifile::Sect * __ptr64,xalloc<CInifile::Sect * __ptr64> > >
PUBLIC	??$_Dist_type@V?$_Vector_iterator@V?$_Vector_val@PEAUSect@CInifile@@V?$xalloc@PEAUSect@CInifile@@@@@std@@@std@@@std@@YAPEA_JV?$_Vector_iterator@V?$_Vector_val@PEAUSect@CInifile@@V?$xalloc@PEAUSect@CInifile@@@@@std@@@0@@Z ; std::_Dist_type<std::_Vector_iterator<std::_Vector_val<CInifile::Sect * __ptr64,xalloc<CInifile::Sect * __ptr64> > > >
PUBLIC	?_Rechecked@?$_Vector_iterator@V?$_Vector_val@PEAUSect@CInifile@@V?$xalloc@PEAUSect@CInifile@@@@@std@@@std@@QEAAAEAV12@PEAPEAUSect@CInifile@@@Z ; std::_Vector_iterator<std::_Vector_val<CInifile::Sect * __ptr64,xalloc<CInifile::Sect * __ptr64> > >::_Rechecked
PUBLIC	??$_Rechecked@V?$_Vector_val@PEAUSect@CInifile@@V?$xalloc@PEAUSect@CInifile@@@@@std@@@std@@YAAEAV?$_Vector_iterator@V?$_Vector_val@PEAUSect@CInifile@@V?$xalloc@PEAUSect@CInifile@@@@@std@@@0@AEAV10@PEAPEAUSect@CInifile@@@Z ; std::_Rechecked<std::_Vector_val<CInifile::Sect * __ptr64,xalloc<CInifile::Sect * __ptr64> > >
PUBLIC	??$_Distance2@PEAPEAUSect@CInifile@@_J@std@@YAXPEAPEAUSect@CInifile@@0AEA_JUrandom_access_iterator_tag@0@@Z ; std::_Distance2<CInifile::Sect * __ptr64 * __ptr64,__int64>
PUBLIC	??$_Distance@PEAPEAUSect@CInifile@@_J@std@@YAXPEAPEAUSect@CInifile@@0AEA_J@Z ; std::_Distance<CInifile::Sect * __ptr64 * __ptr64,__int64>
PUBLIC	??$_Iter_cat@PEAPEAUSect@CInifile@@@std@@YA?AUrandom_access_iterator_tag@0@AEBQEAPEAUSect@CInifile@@@Z ; std::_Iter_cat<CInifile::Sect * __ptr64 * __ptr64>
PUBLIC	??$_Advance@PEAPEAUSect@CInifile@@_J@std@@YAXAEAPEAPEAUSect@CInifile@@_JUrandom_access_iterator_tag@0@@Z ; std::_Advance<CInifile::Sect * __ptr64 * __ptr64,__int64>
PUBLIC	??$advance@PEAPEAUSect@CInifile@@_J@std@@YAXAEAPEAPEAUSect@CInifile@@_J@Z ; std::advance<CInifile::Sect * __ptr64 * __ptr64,__int64>
PUBLIC	??$_Lower_bound@PEAPEAUSect@CInifile@@$$BY0BAA@$$CBD_JP6A_NPEBU12@PEBD@Z@std@@YAPEAPEAUSect@CInifile@@PEAPEAU12@0AEAY0BAA@$$CBDP6A_NPEBU12@PEBD@ZPEA_J@Z ; std::_Lower_bound<CInifile::Sect * __ptr64 * __ptr64,char const [256],__int64,bool (__cdecl*)(CInifile::Sect const * __ptr64,char const * __ptr64)>
PUBLIC	??$lower_bound@V?$_Vector_iterator@V?$_Vector_val@PEAUSect@CInifile@@V?$xalloc@PEAUSect@CInifile@@@@@std@@@std@@$$BY0BAA@DP6A_NPEBUSect@CInifile@@PEBD@Z@std@@YA?AV?$_Vector_iterator@V?$_Vector_val@PEAUSect@CInifile@@V?$xalloc@PEAUSect@CInifile@@@@@std@@@0@V10@0AEAY0BAA@$$CBDP6A_NPEBUSect@CInifile@@PEBD@Z@Z ; std::lower_bound<std::_Vector_iterator<std::_Vector_val<CInifile::Sect * __ptr64,xalloc<CInifile::Sect * __ptr64> > >,char [256],bool (__cdecl*)(CInifile::Sect const * __ptr64,char const * __ptr64)>
PUBLIC	??H?$_Vector_iterator@V?$_Vector_val@UItem@CInifile@@V?$xalloc@UItem@CInifile@@@@@std@@@std@@QEBA?AV01@_J@Z ; std::_Vector_iterator<std::_Vector_val<CInifile::Item,xalloc<CInifile::Item> > >::operator+
PUBLIC	??Z?$_Vector_iterator@V?$_Vector_val@UItem@CInifile@@V?$xalloc@UItem@CInifile@@@@@std@@@std@@QEAAAEAV01@_J@Z ; std::_Vector_iterator<std::_Vector_val<CInifile::Item,xalloc<CInifile::Item> > >::operator-=
PUBLIC	??G?$_Vector_iterator@V?$_Vector_val@UItem@CInifile@@V?$xalloc@UItem@CInifile@@@@@std@@@std@@QEBA?AV01@_J@Z ; std::_Vector_iterator<std::_Vector_val<CInifile::Item,xalloc<CInifile::Item> > >::operator-
PUBLIC	??$forward@UItem@CInifile@@@std@@YA$$QEAUItem@CInifile@@AEAU12@@Z ; std::forward<CInifile::Item>
PUBLIC	??$_Cons_val@V?$xalloc@UItem@CInifile@@@@UItem@CInifile@@U23@@std@@YAXAEAV?$xalloc@UItem@CInifile@@@@PEAUItem@CInifile@@$$QEAU23@@Z ; std::_Cons_val<xalloc<CInifile::Item>,CInifile::Item,CInifile::Item>
PUBLIC	??$_Uninit_move@PEAUItem@CInifile@@PEAU12@V?$xalloc@UItem@CInifile@@@@U12@@std@@YAPEAUItem@CInifile@@PEAU12@00AEAV?$xalloc@UItem@CInifile@@@@0U_Nonscalar_ptr_iterator_tag@0@@Z ; std::_Uninit_move<CInifile::Item * __ptr64,CInifile::Item * __ptr64,xalloc<CInifile::Item>,CInifile::Item>
PUBLIC	??$_Uninitialized_move@PEAUItem@CInifile@@PEAU12@V?$xalloc@UItem@CInifile@@@@@std@@YAPEAUItem@CInifile@@PEAU12@00AEAV?$xalloc@UItem@CInifile@@@@@Z ; std::_Uninitialized_move<CInifile::Item * __ptr64,CInifile::Item * __ptr64,xalloc<CInifile::Item> >
PUBLIC	??$_Umove@PEAUItem@CInifile@@@?$vector@UItem@CInifile@@V?$xalloc@UItem@CInifile@@@@@std@@IEAAPEAUItem@CInifile@@PEAU23@00@Z ; std::vector<CInifile::Item,xalloc<CInifile::Item> >::_Umove<CInifile::Item * __ptr64>
PUBLIC	?reserve@?$vector@UItem@CInifile@@V?$xalloc@UItem@CInifile@@@@@std@@QEAAX_K@Z ; std::vector<CInifile::Item,xalloc<CInifile::Item> >::reserve
PUBLIC	?_Grow_to@?$vector@UItem@CInifile@@V?$xalloc@UItem@CInifile@@@@@std@@IEBA_K_K@Z ; std::vector<CInifile::Item,xalloc<CInifile::Item> >::_Grow_to
PUBLIC	?_Reserve@?$vector@UItem@CInifile@@V?$xalloc@UItem@CInifile@@@@@std@@IEAAX_K@Z ; std::vector<CInifile::Item,xalloc<CInifile::Item> >::_Reserve
PUBLIC	?_Orphan_range@?$vector@UItem@CInifile@@V?$xalloc@UItem@CInifile@@@@@std@@IEBAXPEAUItem@CInifile@@0@Z ; std::vector<CInifile::Item,xalloc<CInifile::Item> >::_Orphan_range
PUBLIC	??$emplace_back@AEAUItem@CInifile@@@?$vector@UItem@CInifile@@V?$xalloc@UItem@CInifile@@@@@std@@QEAAXAEAUItem@CInifile@@@Z ; std::vector<CInifile::Item,xalloc<CInifile::Item> >::emplace_back<CInifile::Item & __ptr64>
PUBLIC	??$_Val_type@PEAUItem@CInifile@@@std@@YAPEAUItem@CInifile@@PEAU12@@Z ; std::_Val_type<CInifile::Item * __ptr64>
PUBLIC	??$_Dist_type@PEAUItem@CInifile@@@std@@YAPEA_JPEAUItem@CInifile@@@Z ; std::_Dist_type<CInifile::Item * __ptr64>
PUBLIC	??$_Move@AEAUItem@CInifile@@@std@@YA$$QEAUItem@CInifile@@AEAU12@@Z ; std::_Move<CInifile::Item & __ptr64>
PUBLIC	??$swap@UItem@CInifile@@@std@@YAXAEAUItem@CInifile@@0@Z ; std::swap<CInifile::Item>
PUBLIC	??$iter_swap@PEAUItem@CInifile@@PEAU12@@std@@YAXPEAUItem@CInifile@@0@Z ; std::iter_swap<CInifile::Item * __ptr64,CInifile::Item * __ptr64>
PUBLIC	??$_Rotate@PEAUItem@CInifile@@_JU12@@std@@YAXPEAUItem@CInifile@@00PEA_J0@Z ; std::_Rotate<CInifile::Item * __ptr64,__int64,CInifile::Item>
PUBLIC	??$_Rotate@PEAUItem@CInifile@@@std@@YAXPEAUItem@CInifile@@00Urandom_access_iterator_tag@0@@Z ; std::_Rotate<CInifile::Item * __ptr64>
PUBLIC	??G?$_Vector_const_iterator@V?$_Vector_val@UItem@CInifile@@V?$xalloc@UItem@CInifile@@@@@std@@@std@@QEBA_JAEBV01@@Z ; std::_Vector_const_iterator<std::_Vector_val<CInifile::Item,xalloc<CInifile::Item> > >::operator-
PUBLIC	??G?$_Vector_iterator@V?$_Vector_val@UItem@CInifile@@V?$xalloc@UItem@CInifile@@@@@std@@@std@@QEBA_JAEBV?$_Vector_const_iterator@V?$_Vector_val@UItem@CInifile@@V?$xalloc@UItem@CInifile@@@@@std@@@1@@Z ; std::_Vector_iterator<std::_Vector_val<CInifile::Item,xalloc<CInifile::Item> > >::operator-
PUBLIC	??$_Distance2@V?$_Vector_iterator@V?$_Vector_val@UItem@CInifile@@V?$xalloc@UItem@CInifile@@@@@std@@@std@@_J@std@@YAXV?$_Vector_iterator@V?$_Vector_val@UItem@CInifile@@V?$xalloc@UItem@CInifile@@@@@std@@@0@0AEA_JUrandom_access_iterator_tag@0@@Z ; std::_Distance2<std::_Vector_iterator<std::_Vector_val<CInifile::Item,xalloc<CInifile::Item> > >,__int64>
PUBLIC	??$distance@V?$_Vector_iterator@V?$_Vector_val@UItem@CInifile@@V?$xalloc@UItem@CInifile@@@@@std@@@std@@@std@@YA_JV?$_Vector_iterator@V?$_Vector_val@UItem@CInifile@@V?$xalloc@UItem@CInifile@@@@@std@@@0@0@Z ; std::distance<std::_Vector_iterator<std::_Vector_val<CInifile::Item,xalloc<CInifile::Item> > > >
PUBLIC	??$_Iter_cat@V?$_Vector_iterator@V?$_Vector_val@UItem@CInifile@@V?$xalloc@UItem@CInifile@@@@@std@@@std@@@std@@YA?AUrandom_access_iterator_tag@0@AEBV?$_Vector_iterator@V?$_Vector_val@UItem@CInifile@@V?$xalloc@UItem@CInifile@@@@@std@@@0@@Z ; std::_Iter_cat<std::_Vector_iterator<std::_Vector_val<CInifile::Item,xalloc<CInifile::Item> > > >
PUBLIC	??Y?$_Vector_const_iterator@V?$_Vector_val@UItem@CInifile@@V?$xalloc@UItem@CInifile@@@@@std@@@std@@QEAAAEAV01@_J@Z ; std::_Vector_const_iterator<std::_Vector_val<CInifile::Item,xalloc<CInifile::Item> > >::operator+=
PUBLIC	??Y?$_Vector_iterator@V?$_Vector_val@UItem@CInifile@@V?$xalloc@UItem@CInifile@@@@@std@@@std@@QEAAAEAV01@_J@Z ; std::_Vector_iterator<std::_Vector_val<CInifile::Item,xalloc<CInifile::Item> > >::operator+=
PUBLIC	??$_Advance@V?$_Vector_iterator@V?$_Vector_val@UItem@CInifile@@V?$xalloc@UItem@CInifile@@@@@std@@@std@@_J@std@@YAXAEAV?$_Vector_iterator@V?$_Vector_val@UItem@CInifile@@V?$xalloc@UItem@CInifile@@@@@std@@@0@_JUrandom_access_iterator_tag@0@@Z ; std::_Advance<std::_Vector_iterator<std::_Vector_val<CInifile::Item,xalloc<CInifile::Item> > >,__int64>
PUBLIC	??$advance@V?$_Vector_iterator@V?$_Vector_val@UItem@CInifile@@V?$xalloc@UItem@CInifile@@@@@std@@@std@@_J@std@@YAXAEAV?$_Vector_iterator@V?$_Vector_val@UItem@CInifile@@V?$xalloc@UItem@CInifile@@@@@std@@@0@_J@Z ; std::advance<std::_Vector_iterator<std::_Vector_val<CInifile::Item,xalloc<CInifile::Item> > >,__int64>
PUBLIC	??$rotate@V?$_Vector_iterator@V?$_Vector_val@UItem@CInifile@@V?$xalloc@UItem@CInifile@@@@@std@@@std@@@std@@YA?AV?$_Vector_iterator@V?$_Vector_val@UItem@CInifile@@V?$xalloc@UItem@CInifile@@@@@std@@@0@V10@00@Z ; std::rotate<std::_Vector_iterator<std::_Vector_val<CInifile::Item,xalloc<CInifile::Item> > > >
PUBLIC	??$emplace@AEAUItem@CInifile@@@?$vector@UItem@CInifile@@V?$xalloc@UItem@CInifile@@@@@std@@QEAA?AV?$_Vector_iterator@V?$_Vector_val@UItem@CInifile@@V?$xalloc@UItem@CInifile@@@@@std@@@1@V?$_Vector_const_iterator@V?$_Vector_val@UItem@CInifile@@V?$xalloc@UItem@CInifile@@@@@std@@@1@AEAUItem@CInifile@@@Z ; std::vector<CInifile::Item,xalloc<CInifile::Item> >::emplace<CInifile::Item & __ptr64>
PUBLIC	??$insert@AEAUItem@CInifile@@@?$vector@UItem@CInifile@@V?$xalloc@UItem@CInifile@@@@@std@@QEAA?AV?$_Vector_iterator@V?$_Vector_val@UItem@CInifile@@V?$xalloc@UItem@CInifile@@@@@std@@@1@V?$_Vector_const_iterator@V?$_Vector_val@UItem@CInifile@@V?$xalloc@UItem@CInifile@@@@@std@@@1@AEAUItem@CInifile@@@Z ; std::vector<CInifile::Item,xalloc<CInifile::Item> >::insert<CInifile::Item & __ptr64>
PUBLIC	?color_get_R@@YAII@Z				; color_get_R
PUBLIC	?color_get_G@@YAII@Z				; color_get_G
PUBLIC	?color_get_B@@YAII@Z				; color_get_B
PUBLIC	?color_get_A@@YAII@Z				; color_get_A
PUBLIC	?erase@?$vector@UItem@CInifile@@V?$xalloc@UItem@CInifile@@@@@std@@QEAA?AV?$_Vector_iterator@V?$_Vector_val@UItem@CInifile@@V?$xalloc@UItem@CInifile@@@@@std@@@2@V?$_Vector_const_iterator@V?$_Vector_val@UItem@CInifile@@V?$xalloc@UItem@CInifile@@@@@std@@@2@@Z ; std::vector<CInifile::Item,xalloc<CInifile::Item> >::erase
PUBLIC	??D?$_Vector_iterator@V?$_Vector_val@UItem@CInifile@@V?$xalloc@UItem@CInifile@@@@@std@@@std@@QEBAAEAUItem@CInifile@@XZ ; std::_Vector_iterator<std::_Vector_val<CInifile::Item,xalloc<CInifile::Item> > >::operator*
PUBLIC	??C?$_Vector_iterator@V?$_Vector_val@UItem@CInifile@@V?$xalloc@UItem@CInifile@@@@@std@@@std@@QEBAPEAUItem@CInifile@@XZ ; std::_Vector_iterator<std::_Vector_val<CInifile::Item,xalloc<CInifile::Item> > >::operator->
PUBLIC	?_Unchecked@?$_Vector_iterator@V?$_Vector_val@UItem@CInifile@@V?$xalloc@UItem@CInifile@@@@@std@@@std@@QEBAPEAUItem@CInifile@@XZ ; std::_Vector_iterator<std::_Vector_val<CInifile::Item,xalloc<CInifile::Item> > >::_Unchecked
PUBLIC	??$_Unchecked@V?$_Vector_val@UItem@CInifile@@V?$xalloc@UItem@CInifile@@@@@std@@@std@@YAPEAUItem@CInifile@@V?$_Vector_iterator@V?$_Vector_val@UItem@CInifile@@V?$xalloc@UItem@CInifile@@@@@std@@@0@@Z ; std::_Unchecked<std::_Vector_val<CInifile::Item,xalloc<CInifile::Item> > >
PUBLIC	??$_Dist_type@V?$_Vector_iterator@V?$_Vector_val@UItem@CInifile@@V?$xalloc@UItem@CInifile@@@@@std@@@std@@@std@@YAPEA_JV?$_Vector_iterator@V?$_Vector_val@UItem@CInifile@@V?$xalloc@UItem@CInifile@@@@@std@@@0@@Z ; std::_Dist_type<std::_Vector_iterator<std::_Vector_val<CInifile::Item,xalloc<CInifile::Item> > > >
PUBLIC	??$_Distance2@PEAUItem@CInifile@@_J@std@@YAXPEAUItem@CInifile@@0AEA_JUrandom_access_iterator_tag@0@@Z ; std::_Distance2<CInifile::Item * __ptr64,__int64>
PUBLIC	??$_Distance@PEAUItem@CInifile@@_J@std@@YAXPEAUItem@CInifile@@0AEA_J@Z ; std::_Distance<CInifile::Item * __ptr64,__int64>
PUBLIC	??$_Iter_cat@PEAUItem@CInifile@@@std@@YA?AUrandom_access_iterator_tag@0@AEBQEAUItem@CInifile@@@Z ; std::_Iter_cat<CInifile::Item * __ptr64>
PUBLIC	??$_Advance@PEAUItem@CInifile@@_J@std@@YAXAEAPEAUItem@CInifile@@_JUrandom_access_iterator_tag@0@@Z ; std::_Advance<CInifile::Item * __ptr64,__int64>
PUBLIC	??$advance@PEAUItem@CInifile@@_J@std@@YAXAEAPEAUItem@CInifile@@_J@Z ; std::advance<CInifile::Item * __ptr64,__int64>
PUBLIC	??$_Lower_bound@PEAUItem@CInifile@@PEBD_JP6A_NAEBU12@PEBD@Z@std@@YAPEAUItem@CInifile@@PEAU12@0AEBQEBDP6A_NAEBU12@PEBD@ZPEA_J@Z ; std::_Lower_bound<CInifile::Item * __ptr64,char const * __ptr64,__int64,bool (__cdecl*)(CInifile::Item const & __ptr64,char const * __ptr64)>
PUBLIC	?_Rechecked@?$_Vector_iterator@V?$_Vector_val@UItem@CInifile@@V?$xalloc@UItem@CInifile@@@@@std@@@std@@QEAAAEAV12@PEAUItem@CInifile@@@Z ; std::_Vector_iterator<std::_Vector_val<CInifile::Item,xalloc<CInifile::Item> > >::_Rechecked
PUBLIC	??$_Rechecked@V?$_Vector_val@UItem@CInifile@@V?$xalloc@UItem@CInifile@@@@@std@@@std@@YAAEAV?$_Vector_iterator@V?$_Vector_val@UItem@CInifile@@V?$xalloc@UItem@CInifile@@@@@std@@@0@AEAV10@PEAUItem@CInifile@@@Z ; std::_Rechecked<std::_Vector_val<CInifile::Item,xalloc<CInifile::Item> > >
PUBLIC	??$lower_bound@V?$_Vector_iterator@V?$_Vector_val@UItem@CInifile@@V?$xalloc@UItem@CInifile@@@@@std@@@std@@PEBDP6A_NAEBUItem@CInifile@@PEBD@Z@std@@YA?AV?$_Vector_iterator@V?$_Vector_val@UItem@CInifile@@V?$xalloc@UItem@CInifile@@@@@std@@@0@V10@0AEBQEBDP6A_NAEBUItem@CInifile@@PEBD@Z@Z ; std::lower_bound<std::_Vector_iterator<std::_Vector_val<CInifile::Item,xalloc<CInifile::Item> > >,char const * __ptr64,bool (__cdecl*)(CInifile::Item const & __ptr64,char const * __ptr64)>
PUBLIC	?pSettings@@3PEAVCInifile@@EA			; pSettings
PUBLIC	??_C@_0BF@HIBEFMCL@?$CBCan?8t?5save?5inifile?3?$AA@ ; `string'
PUBLIC	??_C@_0P@PFFEEJAK@CInifile?3?3Load?$AA@		; `string'
PUBLIC	??_C@_0L@BOCIKDOE@Xr_ini?4cpp?$AA@		; `string'
PUBLIC	??_C@_01BIAFAFID@F?$AA@				; `string'
PUBLIC	??_C@_08GPLAJCBH@?$CDinclude?$AA@		; `string'
PUBLIC	??_C@_0O@OGKPJIFO@path?$CG?$CGpath?$FL0?$FN?$AA@ ; `string'
PUBLIC	??_C@_0BJ@JNOOHJGB@Can?8t?5find?5include?5file?3?$AA@ ; `string'
PUBLIC	??_C@_01JPJNBJEM@I?$AA@				; `string'
PUBLIC	??_C@_0BO@PADAFPII@Duplicate?5section?5?8?$CFs?8?5found?4?$AA@ ; `string'
PUBLIC	??_C@_0BI@IHFKKOHL@Bad?5ini?5section?5found?3?5?$AA@ ; `string'
PUBLIC	??_C@_0BA@NMAHPAMG@strchr?$CIstr?0?8?$FN?8?$CJ?$AA@ ; `string'
PUBLIC	??_C@_02EBHDEFHH@?$FN?3?$AA@			; `string'
PUBLIC	??_C@_0BC@LBCCFBEL@CInifile?3?3save_as?$AA@	; `string'
PUBLIC	??_C@_0BA@HGOPAPJG@fName?$CG?$CGfName?$FL0?$FN?$AA@ ; `string'
PUBLIC	??_C@_04LIFAFMCE@?$FL?$CFs?$FN?$AA@		; `string'
PUBLIC	??_C@_01CLKCMJKC@?5?$AA@			; `string'
PUBLIC	??_C@_0BB@DGLKGBOG@?$CF8s?$CF?932s?5?$DN?5?$CF?932s?$AA@ ; `string'
PUBLIC	??_C@_0M@FGDEMPPI@?$CF8s?$CF?932s?5?$DN?5?$AA@	; `string'
PUBLIC	??_C@_0BI@PGHMEHEA@Can?8t?5open?5section?5?8?$CFs?8?$AA@ ; `string'
PUBLIC	??_C@_0BE@BCNJJKHP@CInifile?3?3r_section?$AA@	; `string'
PUBLIC	??_C@_0CI@BBBLINKF@Can?8t?5find?5variable?5?$CFs?5in?5?$FL?$CFs?$FN?0?5@ ; `string'
PUBLIC	??_C@_0BD@DOJGBPMF@CInifile?3?3r_string?$AA@	; `string'
PUBLIC	??_C@_0M@JJJBFJKB@?$CFf?0?$CFf?0?$CFf?0?$CFf?$AA@ ; `string'
PUBLIC	??_C@_0M@MLCONGPP@?$CFd?0?$CFd?0?$CFd?0?$CFd?$AA@ ; `string'
PUBLIC	??_C@_05KABNCBHK@?$CFd?0?$CFd?$AA@		; `string'
PUBLIC	??_C@_08GDAMKODC@?$CFd?0?$CFd?0?$CFd?$AA@	; `string'
PUBLIC	??_C@_05OIOLBAJI@?$CFf?0?$CFf?$AA@		; `string'
PUBLIC	??_C@_08GJNPJIKN@?$CFf?0?$CFf?0?$CFf?$AA@	; `string'
PUBLIC	??_C@_0BD@HEABFKIK@CInifile?3?3w_string?$AA@	; `string'
PUBLIC	??_C@_0L@MCBJLICI@?$CBbReadOnly?$AA@		; `string'
PUBLIC	??_C@_02DPKJAMEF@?$CFd?$AA@			; `string'
PUBLIC	??_C@_02NJPGOMH@?$CFf?$AA@			; `string'
PUBLIC	??_C@_03MCADLMAF@off?$AA@			; `string'
PUBLIC	??_C@_0BG@HJJEFCMD@CInifile?3?3remove_line?$AA@	; `string'
PUBLIC	??_C@_0DA@GAFJJPBK@A?$CB?$DNdata?4Data?4end?$CI?$CJ?5?$CG?$CG?5xr_strcmp?$CI@ ; `string'
EXTRN	__imp_isspace:PROC
EXTRN	__imp_atoi:PROC
EXTRN	__imp_atof:PROC
EXTRN	__imp__strlwr:PROC
?pSettings@@3PEAVCInifile@@EA DQ 01H DUP (?)		; pSettings
;	COMDAT ?ignore_always@?3??Load@CInifile@@AEAAXPEAVIReader@@PEBD@Z@4_NA
_BSS	SEGMENT
?ignore_always@?3??Load@CInifile@@AEAAXPEAVIReader@@PEBD@Z@4_NA DB 01H DUP (?) ; `CInifile::Load'::`4'::ignore_always
_BSS	ENDS
;	COMDAT ?ignore_always@?BD@??Load@CInifile@@AEAAXPEAVIReader@@PEBD@Z@4_NA
_BSS	SEGMENT
?ignore_always@?BD@??Load@CInifile@@AEAAXPEAVIReader@@PEBD@Z@4_NA DB 01H DUP (?) ; `CInifile::Load'::`19'::ignore_always
_BSS	ENDS
;	COMDAT ?ignore_always@?BK@??Load@CInifile@@AEAAXPEAVIReader@@PEBD@Z@4_NA
_BSS	SEGMENT
?ignore_always@?BK@??Load@CInifile@@AEAAXPEAVIReader@@PEBD@Z@4_NA DB 01H DUP (?) ; `CInifile::Load'::`26'::ignore_always
_BSS	ENDS
;	COMDAT ?ignore_always@?CH@??Load@CInifile@@AEAAXPEAVIReader@@PEBD@Z@4_NA
_BSS	SEGMENT
?ignore_always@?CH@??Load@CInifile@@AEAAXPEAVIReader@@PEBD@Z@4_NA DB 01H DUP (?) ; `CInifile::Load'::`39'::ignore_always
_BSS	ENDS
;	COMDAT ?ignore_always@?6??save_as@CInifile@@QEAA_NPEBD@Z@4_NA
_BSS	SEGMENT
?ignore_always@?6??save_as@CInifile@@QEAA_NPEBD@Z@4_NA DB 01H DUP (?) ; `CInifile::save_as'::`7'::ignore_always
_BSS	ENDS
;	COMDAT ?ignore_always@?3??w_string@CInifile@@QEAAXPEBD000@Z@4_NA
_BSS	SEGMENT
?ignore_always@?3??w_string@CInifile@@QEAAXPEBD000@Z@4_NA DB 01H DUP (?) ; `CInifile::w_string'::`4'::ignore_always
_BSS	ENDS
;	COMDAT ?ignore_always@?3??remove_line@CInifile@@QEAAXPEBD0@Z@4_NA
_BSS	SEGMENT
?ignore_always@?3??remove_line@CInifile@@QEAAXPEBD0@Z@4_NA DB 01H DUP (?) ; `CInifile::remove_line'::`4'::ignore_always
_BSS	ENDS
;	COMDAT ?ignore_always@?L@??remove_line@CInifile@@QEAAXPEBD0@Z@4_NA
_BSS	SEGMENT
?ignore_always@?L@??remove_line@CInifile@@QEAAXPEBD0@Z@4_NA DB 01H DUP (?) ; `CInifile::remove_line'::`11'::ignore_always
;	COMDAT ??_C@_0DA@GAFJJPBK@A?$CB?$DNdata?4Data?4end?$CI?$CJ?5?$CG?$CG?5xr_strcmp?$CI@
CONST	SEGMENT
??_C@_0DA@GAFJJPBK@A?$CB?$DNdata?4Data?4end?$CI?$CJ?5?$CG?$CG?5xr_strcmp?$CI@ DB 'A'
	DB	'!=data.Data.end() && xr_strcmp(*A->first,L)==0', 00H ; `string'
CONST	ENDS
;	COMDAT ??_C@_0BG@HJJEFCMD@CInifile?3?3remove_line?$AA@
CONST	SEGMENT
??_C@_0BG@HJJEFCMD@CInifile?3?3remove_line?$AA@ DB 'CInifile::remove_line'
	DB	00H						; `string'
CONST	ENDS
;	COMDAT ??_C@_03MCADLMAF@off?$AA@
CONST	SEGMENT
??_C@_03MCADLMAF@off?$AA@ DB 'off', 00H			; `string'
CONST	ENDS
;	COMDAT ??_C@_02NJPGOMH@?$CFf?$AA@
CONST	SEGMENT
??_C@_02NJPGOMH@?$CFf?$AA@ DB '%f', 00H			; `string'
CONST	ENDS
;	COMDAT ??_C@_02DPKJAMEF@?$CFd?$AA@
CONST	SEGMENT
??_C@_02DPKJAMEF@?$CFd?$AA@ DB '%d', 00H		; `string'
CONST	ENDS
;	COMDAT ??_C@_0L@MCBJLICI@?$CBbReadOnly?$AA@
CONST	SEGMENT
??_C@_0L@MCBJLICI@?$CBbReadOnly?$AA@ DB '!bReadOnly', 00H ; `string'
CONST	ENDS
;	COMDAT ??_C@_0BD@HEABFKIK@CInifile?3?3w_string?$AA@
CONST	SEGMENT
??_C@_0BD@HEABFKIK@CInifile?3?3w_string?$AA@ DB 'CInifile::w_string', 00H ; `string'
CONST	ENDS
;	COMDAT ??_C@_08GJNPJIKN@?$CFf?0?$CFf?0?$CFf?$AA@
CONST	SEGMENT
??_C@_08GJNPJIKN@?$CFf?0?$CFf?0?$CFf?$AA@ DB '%f,%f,%f', 00H ; `string'
CONST	ENDS
;	COMDAT ??_C@_05OIOLBAJI@?$CFf?0?$CFf?$AA@
CONST	SEGMENT
??_C@_05OIOLBAJI@?$CFf?0?$CFf?$AA@ DB '%f,%f', 00H	; `string'
CONST	ENDS
;	COMDAT ??_C@_08GDAMKODC@?$CFd?0?$CFd?0?$CFd?$AA@
CONST	SEGMENT
??_C@_08GDAMKODC@?$CFd?0?$CFd?0?$CFd?$AA@ DB '%d,%d,%d', 00H ; `string'
CONST	ENDS
;	COMDAT ??_C@_05KABNCBHK@?$CFd?0?$CFd?$AA@
CONST	SEGMENT
??_C@_05KABNCBHK@?$CFd?0?$CFd?$AA@ DB '%d,%d', 00H	; `string'
CONST	ENDS
;	COMDAT ??_C@_0M@MLCONGPP@?$CFd?0?$CFd?0?$CFd?0?$CFd?$AA@
CONST	SEGMENT
??_C@_0M@MLCONGPP@?$CFd?0?$CFd?0?$CFd?0?$CFd?$AA@ DB '%d,%d,%d,%d', 00H ; `string'
CONST	ENDS
;	COMDAT ??_C@_0M@JJJBFJKB@?$CFf?0?$CFf?0?$CFf?0?$CFf?$AA@
CONST	SEGMENT
??_C@_0M@JJJBFJKB@?$CFf?0?$CFf?0?$CFf?0?$CFf?$AA@ DB '%f,%f,%f,%f', 00H ; `string'
CONST	ENDS
;	COMDAT ??_C@_0BD@DOJGBPMF@CInifile?3?3r_string?$AA@
CONST	SEGMENT
??_C@_0BD@DOJGBPMF@CInifile?3?3r_string?$AA@ DB 'CInifile::r_string', 00H ; `string'
CONST	ENDS
;	COMDAT ??_C@_0CI@BBBLINKF@Can?8t?5find?5variable?5?$CFs?5in?5?$FL?$CFs?$FN?0?5@
CONST	SEGMENT
??_C@_0CI@BBBLINKF@Can?8t?5find?5variable?5?$CFs?5in?5?$FL?$CFs?$FN?0?5@ DB 'C'
	DB	'an''t find variable %s in [%s], file %s', 00H ; `string'
CONST	ENDS
;	COMDAT ??_C@_0BE@BCNJJKHP@CInifile?3?3r_section?$AA@
CONST	SEGMENT
??_C@_0BE@BCNJJKHP@CInifile?3?3r_section?$AA@ DB 'CInifile::r_section', 00H ; `string'
CONST	ENDS
;	COMDAT ??_C@_0BI@PGHMEHEA@Can?8t?5open?5section?5?8?$CFs?8?$AA@
CONST	SEGMENT
??_C@_0BI@PGHMEHEA@Can?8t?5open?5section?5?8?$CFs?8?$AA@ DB 'Can''t open '
	DB	'section ''%s''', 00H			; `string'
CONST	ENDS
;	COMDAT ??_C@_0M@FGDEMPPI@?$CF8s?$CF?932s?5?$DN?5?$AA@
CONST	SEGMENT
??_C@_0M@FGDEMPPI@?$CF8s?$CF?932s?5?$DN?5?$AA@ DB '%8s%-32s = ', 00H ; `string'
CONST	ENDS
;	COMDAT ??_C@_0BB@DGLKGBOG@?$CF8s?$CF?932s?5?$DN?5?$CF?932s?$AA@
CONST	SEGMENT
??_C@_0BB@DGLKGBOG@?$CF8s?$CF?932s?5?$DN?5?$CF?932s?$AA@ DB '%8s%-32s = %'
	DB	'-32s', 00H					; `string'
CONST	ENDS
;	COMDAT ??_C@_01CLKCMJKC@?5?$AA@
CONST	SEGMENT
??_C@_01CLKCMJKC@?5?$AA@ DB ' ', 00H			; `string'
CONST	ENDS
;	COMDAT ??_C@_04LIFAFMCE@?$FL?$CFs?$FN?$AA@
CONST	SEGMENT
??_C@_04LIFAFMCE@?$FL?$CFs?$FN?$AA@ DB '[%s]', 00H	; `string'
CONST	ENDS
;	COMDAT ??_C@_0BA@HGOPAPJG@fName?$CG?$CGfName?$FL0?$FN?$AA@
CONST	SEGMENT
??_C@_0BA@HGOPAPJG@fName?$CG?$CGfName?$FL0?$FN?$AA@ DB 'fName&&fName[0]', 00H ; `string'
CONST	ENDS
;	COMDAT ??_C@_0BC@LBCCFBEL@CInifile?3?3save_as?$AA@
CONST	SEGMENT
??_C@_0BC@LBCCFBEL@CInifile?3?3save_as?$AA@ DB 'CInifile::save_as', 00H ; `string'
CONST	ENDS
;	COMDAT ??_C@_02EBHDEFHH@?$FN?3?$AA@
CONST	SEGMENT
??_C@_02EBHDEFHH@?$FN?3?$AA@ DB ']:', 00H		; `string'
CONST	ENDS
;	COMDAT ??_C@_0BA@NMAHPAMG@strchr?$CIstr?0?8?$FN?8?$CJ?$AA@
CONST	SEGMENT
??_C@_0BA@NMAHPAMG@strchr?$CIstr?0?8?$FN?8?$CJ?$AA@ DB 'strchr(str,'']'')'
	DB	00H						; `string'
CONST	ENDS
;	COMDAT ??_C@_0BI@IHFKKOHL@Bad?5ini?5section?5found?3?5?$AA@
CONST	SEGMENT
??_C@_0BI@IHFKKOHL@Bad?5ini?5section?5found?3?5?$AA@ DB 'Bad ini section '
	DB	'found: ', 00H				; `string'
CONST	ENDS
;	COMDAT ??_C@_0BO@PADAFPII@Duplicate?5section?5?8?$CFs?8?5found?4?$AA@
CONST	SEGMENT
??_C@_0BO@PADAFPII@Duplicate?5section?5?8?$CFs?8?5found?4?$AA@ DB 'Duplic'
	DB	'ate section ''%s'' found.', 00H		; `string'
CONST	ENDS
;	COMDAT ??_C@_01JPJNBJEM@I?$AA@
CONST	SEGMENT
??_C@_01JPJNBJEM@I?$AA@ DB 'I', 00H			; `string'
CONST	ENDS
;	COMDAT ??_C@_0BJ@JNOOHJGB@Can?8t?5find?5include?5file?3?$AA@
CONST	SEGMENT
??_C@_0BJ@JNOOHJGB@Can?8t?5find?5include?5file?3?$AA@ DB 'Can''t find inc'
	DB	'lude file:', 00H				; `string'
CONST	ENDS
;	COMDAT ??_C@_0O@OGKPJIFO@path?$CG?$CGpath?$FL0?$FN?$AA@
CONST	SEGMENT
??_C@_0O@OGKPJIFO@path?$CG?$CGpath?$FL0?$FN?$AA@ DB 'path&&path[0]', 00H ; `string'
CONST	ENDS
;	COMDAT ??_C@_08GPLAJCBH@?$CDinclude?$AA@
CONST	SEGMENT
??_C@_08GPLAJCBH@?$CDinclude?$AA@ DB '#include', 00H	; `string'
CONST	ENDS
;	COMDAT ??_C@_01BIAFAFID@F?$AA@
CONST	SEGMENT
??_C@_01BIAFAFID@F?$AA@ DB 'F', 00H			; `string'
CONST	ENDS
;	COMDAT ??_C@_0L@BOCIKDOE@Xr_ini?4cpp?$AA@
CONST	SEGMENT
??_C@_0L@BOCIKDOE@Xr_ini?4cpp?$AA@ DB 'Xr_ini.cpp', 00H	; `string'
CONST	ENDS
;	COMDAT ??_C@_0P@PFFEEJAK@CInifile?3?3Load?$AA@
CONST	SEGMENT
??_C@_0P@PFFEEJAK@CInifile?3?3Load?$AA@ DB 'CInifile::Load', 00H ; `string'
CONST	ENDS
;	COMDAT ??_C@_0BF@HIBEFMCL@?$CBCan?8t?5save?5inifile?3?$AA@
CONST	SEGMENT
??_C@_0BF@HIBEFMCL@?$CBCan?8t?5save?5inifile?3?$AA@ DB '!Can''t save inif'
	DB	'ile:', 00H					; `string'
; Function compile flags: /Ogtpy
; File c:\users\nummer\documents\github\olr-3.0\src\xray\xrcore\xrstring.h
;	COMDAT ??7shared_str@@QEBA_NXZ
_TEXT	SEGMENT
this$ = 8
??7shared_str@@QEBA_NXZ PROC				; shared_str::operator!, COMDAT

; 66   : 	bool				operator!	() const						{	return p_ == 0;									}

	xor	eax, eax
	cmp	QWORD PTR [rcx], rax
	sete	al
	ret	0
??7shared_str@@QEBA_NXZ ENDP				; shared_str::operator!
; Function compile flags: /Ogtpy
_TEXT	ENDS
;	COMDAT ?equal@shared_str@@QEBA_NAEBV1@@Z
_TEXT	SEGMENT
this$ = 8
rhs$ = 16
?equal@shared_str@@QEBA_NAEBV1@@Z PROC			; shared_str::equal, COMDAT

; 73   : 	bool				equal		(const shared_str & rhs) const	{	return (p_ == rhs.p_);							}

	mov	rdx, QWORD PTR [rdx]
	cmp	QWORD PTR [rcx], rdx
	sete	al
	ret	0
?equal@shared_str@@QEBA_NAEBV1@@Z ENDP			; shared_str::equal
; Function compile flags: /Ogtpy
; File c:\program files (x86)\microsoft visual studio 10.0\vc\include\string.h
_TEXT	ENDS
;	COMDAT ?strchr@@YAPEADPEADH@Z
_TEXT	SEGMENT
_Str$ = 8
_Ch$ = 16
?strchr@@YAPEADPEADH@Z PROC				; strchr, COMDAT

; 215  : 	{ return (char*)strchr((const char*)_Str, _Ch); }

	rex_jmp	QWORD PTR __imp_strchr
?strchr@@YAPEADPEADH@Z ENDP				; strchr
; Function compile flags: /Ogtpy
; File c:\users\nummer\documents\github\olr-3.0\src\xray\xrcore\_color.h
_TEXT	ENDS
;	COMDAT ?color_argb@@YAIIIII@Z
_TEXT	SEGMENT
a$ = 8
r$ = 16
g$ = 24
b$ = 32
?color_argb@@YAIIIII@Z PROC				; color_argb, COMDAT

; 5    : ICF u32	color_argb	(u32 a, u32 r, u32 g, u32 b)	{	return ((a&0xff)<<24)|((r&0xff)<<16)|((g&0xff)<<8)|(b&0xff);	}

	shl	ecx, 8
	movzx	eax, dl
	or	eax, ecx
	movzx	ecx, r8b
	shl	eax, 8
	or	eax, ecx
	movzx	ecx, r9b
	shl	eax, 8
	or	eax, ecx
	ret	0
?color_argb@@YAIIIII@Z ENDP				; color_argb
; Function compile flags: /Ogtpy
_TEXT	ENDS
;	COMDAT ?color_get_A@@YAII@Z
_TEXT	SEGMENT
rgba$ = 8
?color_get_A@@YAII@Z PROC				; color_get_A, COMDAT

; 20   : ICF	u32 color_get_A (u32 rgba)						{	return ((rgba) >> 24);			}

	shr	ecx, 24
	mov	eax, ecx
	ret	0
?color_get_A@@YAII@Z ENDP				; color_get_A
; Function compile flags: /Ogtpy
_TEXT	ENDS
;	COMDAT ?color_get_B@@YAII@Z
_TEXT	SEGMENT
rgba$ = 8
?color_get_B@@YAII@Z PROC				; color_get_B, COMDAT

; 19   : ICF	u32	color_get_B	(u32 rgba)						{	return ((rgba) & 0xff);			}

	movzx	eax, cl
	ret	0
?color_get_B@@YAII@Z ENDP				; color_get_B
; Function compile flags: /Ogtpy
_TEXT	ENDS
;	COMDAT ?color_get_G@@YAII@Z
_TEXT	SEGMENT
rgba$ = 8
?color_get_G@@YAII@Z PROC				; color_get_G, COMDAT

; 18   : ICF	u32	color_get_G	(u32 rgba)						{	return (((rgba) >> 8) & 0xff);	}

	shr	ecx, 8
	movzx	eax, cl
	ret	0
?color_get_G@@YAII@Z ENDP				; color_get_G
; Function compile flags: /Ogtpy
_TEXT	ENDS
;	COMDAT ?color_get_R@@YAII@Z
_TEXT	SEGMENT
rgba$ = 8
?color_get_R@@YAII@Z PROC				; color_get_R, COMDAT

; 17   : ICF	u32	color_get_R	(u32 rgba)						{	return (((rgba) >> 16) & 0xff);	}

	shr	ecx, 16
	movzx	eax, cl
	ret	0
?color_get_R@@YAII@Z ENDP				; color_get_R
; Function compile flags: /Ogtpy
; File c:\program files (x86)\microsoft visual studio 10.0\vc\include\utility
_TEXT	ENDS
;	COMDAT ??$forward@PEAUSect@CInifile@@@std@@YA$$QEAPEAUSect@CInifile@@AEAPEAU12@@Z
_TEXT	SEGMENT
_Arg$ = 8
??$forward@PEAUSect@CInifile@@@std@@YA$$QEAPEAUSect@CInifile@@AEAPEAU12@@Z PROC ; std::forward<CInifile::Sect * __ptr64>, COMDAT

; 79   : 	return ((_Ty&&)_Arg);

	mov	rax, rcx

; 80   : 	}

	ret	0
??$forward@PEAUSect@CInifile@@@std@@YA$$QEAPEAUSect@CInifile@@AEAPEAU12@@Z ENDP ; std::forward<CInifile::Sect * __ptr64>
; Function compile flags: /Ogtpy
_TEXT	ENDS
;	COMDAT ??$_Move@AEAUItem@CInifile@@@std@@YA$$QEAUItem@CInifile@@AEAU12@@Z
_TEXT	SEGMENT
_Arg$ = 8
??$_Move@AEAUItem@CInifile@@@std@@YA$$QEAUItem@CInifile@@AEAU12@@Z PROC ; std::_Move<CInifile::Item & __ptr64>, COMDAT

; 95   : 	return ((typename tr1::_Remove_reference<_Ty>::_Type&&)_Arg);

	mov	rax, rcx

; 96   : 	}

	ret	0
??$_Move@AEAUItem@CInifile@@@std@@YA$$QEAUItem@CInifile@@AEAU12@@Z ENDP ; std::_Move<CInifile::Item & __ptr64>
; Function compile flags: /Ogtpy
_TEXT	ENDS
;	COMDAT ??$_Move@AEAPEAUSect@CInifile@@@std@@YA$$QEAPEAUSect@CInifile@@AEAPEAU12@@Z
_TEXT	SEGMENT
_Arg$ = 8
??$_Move@AEAPEAUSect@CInifile@@@std@@YA$$QEAPEAUSect@CInifile@@AEAPEAU12@@Z PROC ; std::_Move<CInifile::Sect * __ptr64 & __ptr64>, COMDAT

; 95   : 	return ((typename tr1::_Remove_reference<_Ty>::_Type&&)_Arg);

	mov	rax, rcx

; 96   : 	}

	ret	0
??$_Move@AEAPEAUSect@CInifile@@@std@@YA$$QEAPEAUSect@CInifile@@AEAPEAU12@@Z ENDP ; std::_Move<CInifile::Sect * __ptr64 & __ptr64>
; Function compile flags: /Ogtpy
_TEXT	ENDS
;	COMDAT ??$swap@PEAUSect@CInifile@@@std@@YAXAEAPEAUSect@CInifile@@0@Z
_TEXT	SEGMENT
_Left$ = 8
_Right$ = 16
??$swap@PEAUSect@CInifile@@@std@@YAXAEAPEAUSect@CInifile@@0@Z PROC ; std::swap<CInifile::Sect * __ptr64>, COMDAT

; 102  : 	_Ty _Tmp = _Move(_Left);
; 103  : 	_Left = _Move(_Right);

	mov	rax, QWORD PTR [rdx]
	mov	r8, QWORD PTR [rcx]
	mov	QWORD PTR [rcx], rax

; 104  : 	_Right = _Move(_Tmp);

	mov	QWORD PTR [rdx], r8

; 105  : 	}

	ret	0
??$swap@PEAUSect@CInifile@@@std@@YAXAEAPEAUSect@CInifile@@0@Z ENDP ; std::swap<CInifile::Sect * __ptr64>
; Function compile flags: /Ogtpy
; File c:\program files (x86)\microsoft visual studio 10.0\vc\include\xutility
_TEXT	ENDS
;	COMDAT ??$iter_swap@PEAPEAUSect@CInifile@@PEAPEAU12@@std@@YAXPEAPEAUSect@CInifile@@0@Z
_TEXT	SEGMENT
_Left$ = 8
_Right$ = 16
??$iter_swap@PEAPEAUSect@CInifile@@PEAPEAU12@@std@@YAXPEAPEAUSect@CInifile@@0@Z PROC ; std::iter_swap<CInifile::Sect * __ptr64 * __ptr64,CInifile::Sect * __ptr64 * __ptr64>, COMDAT

; 2134 : 	swap(*_Left, *_Right);

	mov	rax, QWORD PTR [rdx]
	mov	r8, QWORD PTR [rcx]
	mov	QWORD PTR [rcx], rax
	mov	QWORD PTR [rdx], r8

; 2135 : 	}

	ret	0
??$iter_swap@PEAPEAUSect@CInifile@@PEAPEAU12@@std@@YAXPEAPEAUSect@CInifile@@0@Z ENDP ; std::iter_swap<CInifile::Sect * __ptr64 * __ptr64,CInifile::Sect * __ptr64 * __ptr64>
; Function compile flags: /Ogtpy
; File c:\program files (x86)\microsoft visual studio 10.0\vc\include\utility
_TEXT	ENDS
;	COMDAT ??$forward@UItem@CInifile@@@std@@YA$$QEAUItem@CInifile@@AEAU12@@Z
_TEXT	SEGMENT
_Arg$ = 8
??$forward@UItem@CInifile@@@std@@YA$$QEAUItem@CInifile@@AEAU12@@Z PROC ; std::forward<CInifile::Item>, COMDAT

; 79   : 	return ((_Ty&&)_Arg);

	mov	rax, rcx

; 80   : 	}

	ret	0
??$forward@UItem@CInifile@@@std@@YA$$QEAUItem@CInifile@@AEAU12@@Z ENDP ; std::forward<CInifile::Item>
; Function compile flags: /Ogtpy
; File c:\program files (x86)\microsoft visual studio 10.0\vc\include\xutility
_TEXT	ENDS
;	COMDAT ??$_Dist_type@PEAUItem@CInifile@@@std@@YAPEA_JPEAUItem@CInifile@@@Z
_TEXT	SEGMENT
??$_Dist_type@PEAUItem@CInifile@@@std@@YAPEA_JPEAUItem@CInifile@@@Z PROC ; std::_Dist_type<CInifile::Item * __ptr64>, COMDAT

; 850  : 	return (0);

	xor	eax, eax

; 851  : 	}

	ret	0
??$_Dist_type@PEAUItem@CInifile@@@std@@YAPEA_JPEAUItem@CInifile@@@Z ENDP ; std::_Dist_type<CInifile::Item * __ptr64>
_TEXT	ENDS
;	COMDAT pdata
; File c:\program files (x86)\microsoft visual studio 10.0\vc\include\utility
pdata	SEGMENT
$pdata$??$_Rotate@PEAPEAUSect@CInifile@@_JPEAU12@@std@@YAXPEAPEAUSect@CInifile@@00PEA_J0@Z DD imagerel $LN33
	DD	imagerel $LN33+77
	DD	imagerel $unwind$??$_Rotate@PEAPEAUSect@CInifile@@_JPEAU12@@std@@YAXPEAPEAUSect@CInifile@@00PEA_J0@Z
pdata	ENDS
;	COMDAT pdata
pdata	SEGMENT
$pdata$0$??$_Rotate@PEAPEAUSect@CInifile@@_JPEAU12@@std@@YAXPEAPEAUSect@CInifile@@00PEA_J0@Z DD imagerel $LN33+77
	DD	imagerel $LN33+179
	DD	imagerel $chain$0$??$_Rotate@PEAPEAUSect@CInifile@@_JPEAU12@@std@@YAXPEAPEAUSect@CInifile@@00PEA_J0@Z
pdata	ENDS
;	COMDAT pdata
pdata	SEGMENT
$pdata$1$??$_Rotate@PEAPEAUSect@CInifile@@_JPEAU12@@std@@YAXPEAPEAUSect@CInifile@@00PEA_J0@Z DD imagerel $LN33+179
	DD	imagerel $LN33+186
	DD	imagerel $chain$1$??$_Rotate@PEAPEAUSect@CInifile@@_JPEAU12@@std@@YAXPEAPEAUSect@CInifile@@00PEA_J0@Z
pdata	ENDS
;	COMDAT xdata
xdata	SEGMENT
$chain$1$??$_Rotate@PEAPEAUSect@CInifile@@_JPEAU12@@std@@YAXPEAPEAUSect@CInifile@@00PEA_J0@Z DD 021H
	DD	imagerel $LN33
	DD	imagerel $LN33+77
	DD	imagerel $unwind$??$_Rotate@PEAPEAUSect@CInifile@@_JPEAU12@@std@@YAXPEAPEAUSect@CInifile@@00PEA_J0@Z
xdata	ENDS
;	COMDAT xdata
xdata	SEGMENT
$chain$0$??$_Rotate@PEAPEAUSect@CInifile@@_JPEAU12@@std@@YAXPEAPEAUSect@CInifile@@00PEA_J0@Z DD 020521H
	DD	027405H
	DD	imagerel $LN33
	DD	imagerel $LN33+77
	DD	imagerel $unwind$??$_Rotate@PEAPEAUSect@CInifile@@_JPEAU12@@std@@YAXPEAPEAUSect@CInifile@@00PEA_J0@Z
xdata	ENDS
;	COMDAT xdata
xdata	SEGMENT
$unwind$??$_Rotate@PEAPEAUSect@CInifile@@_JPEAU12@@std@@YAXPEAPEAUSect@CInifile@@00PEA_J0@Z DD 030601H
	DD	033406H
	DD	06006H
; Function compile flags: /Ogtpy
; File c:\program files (x86)\microsoft visual studio 10.0\vc\include\xutility
xdata	ENDS
;	COMDAT ??$_Rotate@PEAPEAUSect@CInifile@@_JPEAU12@@std@@YAXPEAPEAUSect@CInifile@@00PEA_J0@Z
_TEXT	SEGMENT
_First$ = 16
_Mid$ = 24
_Last$ = 32
??$_Rotate@PEAPEAUSect@CInifile@@_JPEAU12@@std@@YAXPEAPEAUSect@CInifile@@00PEA_J0@Z PROC ; std::_Rotate<CInifile::Sect * __ptr64 * __ptr64,__int64,CInifile::Sect * __ptr64>, COMDAT

; 3256 : 	{	// rotate [_First, _Last), random-access iterators

$LN33:
	mov	QWORD PTR [rsp+16], rbx
	push	rsi
	mov	r10, rdx

; 3257 : 	_Diff _Shift = _Mid - _First;
; 3258 : 	_Diff _Count = _Last - _First;

	mov	r9, r8
	mov	rbx, rcx
	sub	r10, rcx
	sub	r9, rcx
	mov	rsi, r8
	sar	r10, 3
	sar	r9, 3
	mov	r11, r9

; 3259 : 
; 3260 : 	for (_Diff _Factor = _Shift; _Factor != 0; )

	mov	rcx, r10
	test	r10, r10
	je	SHORT $LN8@Rotate
	npad	5
$LL9@Rotate:

; 3261 : 		{	// find subcycle count as GCD of shift count and length
; 3262 : 		_Diff _Tmp = _Count % _Factor;

	mov	rax, r11

; 3263 : 		_Count = _Factor;

	mov	r11, rcx
	cdq
	idiv	rcx

; 3264 : 		_Factor = _Tmp;

	mov	rcx, rdx
	test	rdx, rdx
	jne	SHORT $LL9@Rotate
$LN8@Rotate:

; 3265 : 		}
; 3266 : 
; 3267 : 	if (_Count < _Last - _First)

	cmp	r11, r9
	jge	SHORT $LN4@Rotate

; 3268 : 		for (; 0 < _Count; --_Count)

	test	r11, r11
	jle	SHORT $LN4@Rotate
	mov	QWORD PTR [rsp+16], rdi
	lea	r9, QWORD PTR [r10*8]
	lea	r8, QWORD PTR [rbx+r11*8]
	npad	2
$LL6@Rotate:

; 3269 : 			{	// rotate each subcycle
; 3270 : 			_RanIt _Hole = _First + _Count;
; 3271 : 			_RanIt _Next = _Hole;
; 3272 : 			_RanIt _Next1 = _Next + _Shift == _Last ? _First : _Next + _Shift;

	lea	rdx, QWORD PTR [r8+r9]
	mov	rdi, r8
	cmp	rdx, rsi
	cmove	rdx, rbx
	npad	2
$LL3@Rotate:

; 3273 : 			for (; ; )
; 3274 : 				{	// percolate elements back around subcycle
; 3275 : 				iter_swap(_Next, _Next1);

	mov	rcx, QWORD PTR [rdi]
	mov	rax, QWORD PTR [rdx]
	mov	QWORD PTR [rdi], rax
	mov	QWORD PTR [rdx], rcx

; 3276 : 				_Next = _Next1;
; 3277 : 				_Next1 = _Shift < _Last - _Next1 ? _Next1 + _Shift
; 3278 : 					: _First + (_Shift - (_Last - _Next1));

	mov	rcx, rsi
	sub	rcx, rdx
	mov	rdi, rdx
	sar	rcx, 3
	cmp	r10, rcx
	jge	SHORT $LN14@Rotate
	add	rdx, r9
	jmp	SHORT $LN15@Rotate
$LN14@Rotate:
	mov	rax, r10
	sub	rax, rcx
	lea	rdx, QWORD PTR [rbx+rax*8]
$LN15@Rotate:

; 3279 : 				if (_Next1 == _Hole)

	cmp	rdx, r8
	jne	SHORT $LL3@Rotate

; 3268 : 		for (; 0 < _Count; --_Count)

	dec	r11
	sub	r8, 8
	test	r11, r11
	jg	SHORT $LL6@Rotate
	mov	rdi, QWORD PTR [rsp+16]
$LN4@Rotate:

; 3280 : 					break;
; 3281 : 				}
; 3282 : 			}
; 3283 : 	}

	mov	rbx, QWORD PTR [rsp+24]
	pop	rsi
	ret	0
??$_Rotate@PEAPEAUSect@CInifile@@_JPEAU12@@std@@YAXPEAPEAUSect@CInifile@@00PEA_J0@Z ENDP ; std::_Rotate<CInifile::Sect * __ptr64 * __ptr64,__int64,CInifile::Sect * __ptr64>
; Function compile flags: /Ogtpy
_TEXT	ENDS
;	COMDAT ??$_Val_type@PEAPEAUSect@CInifile@@@std@@YAPEAPEAUSect@CInifile@@PEAPEAU12@@Z
_TEXT	SEGMENT
??$_Val_type@PEAPEAUSect@CInifile@@@std@@YAPEAPEAUSect@CInifile@@PEAPEAU12@@Z PROC ; std::_Val_type<CInifile::Sect * __ptr64 * __ptr64>, COMDAT

; 790  : 	return (0);

	xor	eax, eax

; 791  : 	}

	ret	0
??$_Val_type@PEAPEAUSect@CInifile@@@std@@YAPEAPEAUSect@CInifile@@PEAPEAU12@@Z ENDP ; std::_Val_type<CInifile::Sect * __ptr64 * __ptr64>
; Function compile flags: /Ogtpy
_TEXT	ENDS
;	COMDAT ??$_Dist_type@PEAPEAUSect@CInifile@@@std@@YAPEA_JPEAPEAUSect@CInifile@@@Z
_TEXT	SEGMENT
??$_Dist_type@PEAPEAUSect@CInifile@@@std@@YAPEA_JPEAPEAUSect@CInifile@@@Z PROC ; std::_Dist_type<CInifile::Sect * __ptr64 * __ptr64>, COMDAT

; 850  : 	return (0);

	xor	eax, eax

; 851  : 	}

	ret	0
??$_Dist_type@PEAPEAUSect@CInifile@@@std@@YAPEA_JPEAPEAUSect@CInifile@@@Z ENDP ; std::_Dist_type<CInifile::Sect * __ptr64 * __ptr64>
; Function compile flags: /Ogtpy
_TEXT	ENDS
;	COMDAT ??$_Iter_cat@V?$_Vector_iterator@V?$_Vector_val@UItem@CInifile@@V?$xalloc@UItem@CInifile@@@@@std@@@std@@@std@@YA?AUrandom_access_iterator_tag@0@AEBV?$_Vector_iterator@V?$_Vector_val@UItem@CInifile@@V?$xalloc@UItem@CInifile@@@@@std@@@0@@Z
_TEXT	SEGMENT
__$ReturnUdt$ = 8
??$_Iter_cat@V?$_Vector_iterator@V?$_Vector_val@UItem@CInifile@@V?$xalloc@UItem@CInifile@@@@@std@@@std@@@std@@YA?AUrandom_access_iterator_tag@0@AEBV?$_Vector_iterator@V?$_Vector_val@UItem@CInifile@@V?$xalloc@UItem@CInifile@@@@@std@@@0@@Z PROC ; std::_Iter_cat<std::_Vector_iterator<std::_Vector_val<CInifile::Item,xalloc<CInifile::Item> > > >, COMDAT

; 477  : 	typename iterator_traits<_Iter>::iterator_category _Cat;
; 478  : 	return (_Cat);

	mov	rax, rcx

; 479  : 	}

	ret	0
??$_Iter_cat@V?$_Vector_iterator@V?$_Vector_val@UItem@CInifile@@V?$xalloc@UItem@CInifile@@@@@std@@@std@@@std@@YA?AUrandom_access_iterator_tag@0@AEBV?$_Vector_iterator@V?$_Vector_val@UItem@CInifile@@V?$xalloc@UItem@CInifile@@@@@std@@@0@@Z ENDP ; std::_Iter_cat<std::_Vector_iterator<std::_Vector_val<CInifile::Item,xalloc<CInifile::Item> > > >
_TEXT	ENDS
;	COMDAT pdata
pdata	SEGMENT
$pdata$??$_Rotate@PEAPEAUSect@CInifile@@@std@@YAXPEAPEAUSect@CInifile@@00Urandom_access_iterator_tag@0@@Z DD imagerel $LN7
	DD	imagerel $LN7+14
	DD	imagerel $unwind$??$_Rotate@PEAPEAUSect@CInifile@@@std@@YAXPEAPEAUSect@CInifile@@00Urandom_access_iterator_tag@0@@Z
pdata	ENDS
;	COMDAT xdata
xdata	SEGMENT
$unwind$??$_Rotate@PEAPEAUSect@CInifile@@@std@@YAXPEAPEAUSect@CInifile@@00Urandom_access_iterator_tag@0@@Z DD 010401H
	DD	04204H
; Function compile flags: /Ogtpy
xdata	ENDS
;	COMDAT ??$_Rotate@PEAPEAUSect@CInifile@@@std@@YAXPEAPEAUSect@CInifile@@00Urandom_access_iterator_tag@0@@Z
_TEXT	SEGMENT
_First$ = 48
_Mid$ = 56
_Last$ = 64
??$_Rotate@PEAPEAUSect@CInifile@@@std@@YAXPEAPEAUSect@CInifile@@00Urandom_access_iterator_tag@0@@Z PROC ; std::_Rotate<CInifile::Sect * __ptr64 * __ptr64>, COMDAT

; 3288 : 	{	// rotate [_First, _Last), random-access iterators

$LN7:
	sub	rsp, 40					; 00000028H

; 3289 : 	_Rotate(_First, _Mid, _Last, _Dist_type(_First), _Val_type(_First));

	call	??$_Rotate@PEAPEAUSect@CInifile@@_JPEAU12@@std@@YAXPEAPEAUSect@CInifile@@00PEA_J0@Z ; std::_Rotate<CInifile::Sect * __ptr64 * __ptr64,__int64,CInifile::Sect * __ptr64>

; 3290 : 	}

	add	rsp, 40					; 00000028H
	ret	0
??$_Rotate@PEAPEAUSect@CInifile@@@std@@YAXPEAPEAUSect@CInifile@@00Urandom_access_iterator_tag@0@@Z ENDP ; std::_Rotate<CInifile::Sect * __ptr64 * __ptr64>
; Function compile flags: /Ogtpy
_TEXT	ENDS
;	COMDAT ??$_Iter_cat@V?$_Vector_iterator@V?$_Vector_val@PEAUSect@CInifile@@V?$xalloc@PEAUSect@CInifile@@@@@std@@@std@@@std@@YA?AUrandom_access_iterator_tag@0@AEBV?$_Vector_iterator@V?$_Vector_val@PEAUSect@CInifile@@V?$xalloc@PEAUSect@CInifile@@@@@std@@@0@@Z
_TEXT	SEGMENT
__$ReturnUdt$ = 8
??$_Iter_cat@V?$_Vector_iterator@V?$_Vector_val@PEAUSect@CInifile@@V?$xalloc@PEAUSect@CInifile@@@@@std@@@std@@@std@@YA?AUrandom_access_iterator_tag@0@AEBV?$_Vector_iterator@V?$_Vector_val@PEAUSect@CInifile@@V?$xalloc@PEAUSect@CInifile@@@@@std@@@0@@Z PROC ; std::_Iter_cat<std::_Vector_iterator<std::_Vector_val<CInifile::Sect * __ptr64,xalloc<CInifile::Sect * __ptr64> > > >, COMDAT

; 477  : 	typename iterator_traits<_Iter>::iterator_category _Cat;
; 478  : 	return (_Cat);

	mov	rax, rcx

; 479  : 	}

	ret	0
??$_Iter_cat@V?$_Vector_iterator@V?$_Vector_val@PEAUSect@CInifile@@V?$xalloc@PEAUSect@CInifile@@@@@std@@@std@@@std@@YA?AUrandom_access_iterator_tag@0@AEBV?$_Vector_iterator@V?$_Vector_val@PEAUSect@CInifile@@V?$xalloc@PEAUSect@CInifile@@@@@std@@@0@@Z ENDP ; std::_Iter_cat<std::_Vector_iterator<std::_Vector_val<CInifile::Sect * __ptr64,xalloc<CInifile::Sect * __ptr64> > > >
; Function compile flags: /Ogtpy
_TEXT	ENDS
;	COMDAT ??$_Advance@PEAPEAUSect@CInifile@@_J@std@@YAXAEAPEAPEAUSect@CInifile@@_JUrandom_access_iterator_tag@0@@Z
_TEXT	SEGMENT
_Where$ = 8
_Off$ = 16
??$_Advance@PEAPEAUSect@CInifile@@_J@std@@YAXAEAPEAPEAUSect@CInifile@@_JUrandom_access_iterator_tag@0@@Z PROC ; std::_Advance<CInifile::Sect * __ptr64 * __ptr64,__int64>, COMDAT

; 841  : 	_Where += _Off;

	lea	rax, QWORD PTR [rdx*8]
	add	QWORD PTR [rcx], rax

; 842  : 	}

	ret	0
??$_Advance@PEAPEAUSect@CInifile@@_J@std@@YAXAEAPEAPEAUSect@CInifile@@_JUrandom_access_iterator_tag@0@@Z ENDP ; std::_Advance<CInifile::Sect * __ptr64 * __ptr64,__int64>
; Function compile flags: /Ogtpy
_TEXT	ENDS
;	COMDAT ??$_Distance2@PEAPEAUSect@CInifile@@_J@std@@YAXPEAPEAUSect@CInifile@@0AEA_JUrandom_access_iterator_tag@0@@Z
_TEXT	SEGMENT
_First$ = 8
_Last$ = 16
_Off$ = 24
??$_Distance2@PEAPEAUSect@CInifile@@_J@std@@YAXPEAPEAUSect@CInifile@@0AEA_JUrandom_access_iterator_tag@0@@Z PROC ; std::_Distance2<CInifile::Sect * __ptr64 * __ptr64,__int64>, COMDAT

; 886  :  #if _ITERATOR_DEBUG_LEVEL == 2
; 887  : 	if (_First != _Last)
; 888  : 		{	// check for null pointers
; 889  : 		_DEBUG_POINTER(_First);
; 890  : 		_DEBUG_POINTER(_Last);
; 891  : 		}
; 892  :  #endif /* _ITERATOR_DEBUG_LEVEL == 2 */
; 893  : 
; 894  : 	_Off += _Last - _First;

	sub	rdx, rcx
	sar	rdx, 3
	add	QWORD PTR [r8], rdx

; 895  : 	}

	ret	0
??$_Distance2@PEAPEAUSect@CInifile@@_J@std@@YAXPEAPEAUSect@CInifile@@0AEA_JUrandom_access_iterator_tag@0@@Z ENDP ; std::_Distance2<CInifile::Sect * __ptr64 * __ptr64,__int64>
; Function compile flags: /Ogtpy
_TEXT	ENDS
;	COMDAT ??$_Iter_cat@PEAPEAUSect@CInifile@@@std@@YA?AUrandom_access_iterator_tag@0@AEBQEAPEAUSect@CInifile@@@Z
_TEXT	SEGMENT
__$ReturnUdt$ = 8
??$_Iter_cat@PEAPEAUSect@CInifile@@@std@@YA?AUrandom_access_iterator_tag@0@AEBQEAPEAUSect@CInifile@@@Z PROC ; std::_Iter_cat<CInifile::Sect * __ptr64 * __ptr64>, COMDAT

; 477  : 	typename iterator_traits<_Iter>::iterator_category _Cat;
; 478  : 	return (_Cat);

	mov	rax, rcx

; 479  : 	}

	ret	0
??$_Iter_cat@PEAPEAUSect@CInifile@@@std@@YA?AUrandom_access_iterator_tag@0@AEBQEAPEAUSect@CInifile@@@Z ENDP ; std::_Iter_cat<CInifile::Sect * __ptr64 * __ptr64>
; Function compile flags: /Ogtpy
_TEXT	ENDS
;	COMDAT ??$_Advance@PEAUItem@CInifile@@_J@std@@YAXAEAPEAUItem@CInifile@@_JUrandom_access_iterator_tag@0@@Z
_TEXT	SEGMENT
_Where$ = 8
_Off$ = 16
??$_Advance@PEAUItem@CInifile@@_J@std@@YAXAEAPEAUItem@CInifile@@_JUrandom_access_iterator_tag@0@@Z PROC ; std::_Advance<CInifile::Item * __ptr64,__int64>, COMDAT

; 841  : 	_Where += _Off;

	shl	rdx, 4
	add	QWORD PTR [rcx], rdx

; 842  : 	}

	ret	0
??$_Advance@PEAUItem@CInifile@@_J@std@@YAXAEAPEAUItem@CInifile@@_JUrandom_access_iterator_tag@0@@Z ENDP ; std::_Advance<CInifile::Item * __ptr64,__int64>
; Function compile flags: /Ogtpy
_TEXT	ENDS
;	COMDAT ??$_Distance2@PEAUItem@CInifile@@_J@std@@YAXPEAUItem@CInifile@@0AEA_JUrandom_access_iterator_tag@0@@Z
_TEXT	SEGMENT
_First$ = 8
_Last$ = 16
_Off$ = 24
??$_Distance2@PEAUItem@CInifile@@_J@std@@YAXPEAUItem@CInifile@@0AEA_JUrandom_access_iterator_tag@0@@Z PROC ; std::_Distance2<CInifile::Item * __ptr64,__int64>, COMDAT

; 886  :  #if _ITERATOR_DEBUG_LEVEL == 2
; 887  : 	if (_First != _Last)
; 888  : 		{	// check for null pointers
; 889  : 		_DEBUG_POINTER(_First);
; 890  : 		_DEBUG_POINTER(_Last);
; 891  : 		}
; 892  :  #endif /* _ITERATOR_DEBUG_LEVEL == 2 */
; 893  : 
; 894  : 	_Off += _Last - _First;

	sub	rdx, rcx
	sar	rdx, 4
	add	QWORD PTR [r8], rdx

; 895  : 	}

	ret	0
??$_Distance2@PEAUItem@CInifile@@_J@std@@YAXPEAUItem@CInifile@@0AEA_JUrandom_access_iterator_tag@0@@Z ENDP ; std::_Distance2<CInifile::Item * __ptr64,__int64>
; Function compile flags: /Ogtpy
_TEXT	ENDS
;	COMDAT ??$_Iter_cat@PEAUItem@CInifile@@@std@@YA?AUrandom_access_iterator_tag@0@AEBQEAUItem@CInifile@@@Z
_TEXT	SEGMENT
__$ReturnUdt$ = 8
??$_Iter_cat@PEAUItem@CInifile@@@std@@YA?AUrandom_access_iterator_tag@0@AEBQEAUItem@CInifile@@@Z PROC ; std::_Iter_cat<CInifile::Item * __ptr64>, COMDAT

; 477  : 	typename iterator_traits<_Iter>::iterator_category _Cat;
; 478  : 	return (_Cat);

	mov	rax, rcx

; 479  : 	}

	ret	0
??$_Iter_cat@PEAUItem@CInifile@@@std@@YA?AUrandom_access_iterator_tag@0@AEBQEAUItem@CInifile@@@Z ENDP ; std::_Iter_cat<CInifile::Item * __ptr64>
; Function compile flags: /Ogtpy
; File c:\program files (x86)\microsoft visual studio 10.0\vc\include\vector
_TEXT	ENDS
;	COMDAT ?_Orphan_range@?$vector@PEAUSect@CInifile@@V?$xalloc@PEAUSect@CInifile@@@@@std@@IEBAXPEAPEAUSect@CInifile@@0@Z
_TEXT	SEGMENT
?_Orphan_range@?$vector@PEAUSect@CInifile@@V?$xalloc@PEAUSect@CInifile@@@@@std@@IEBAXPEAPEAUSect@CInifile@@0@Z PROC ; std::vector<CInifile::Sect * __ptr64,xalloc<CInifile::Sect * __ptr64> >::_Orphan_range, COMDAT

; 1454 : 		}

	ret	0
?_Orphan_range@?$vector@PEAUSect@CInifile@@V?$xalloc@PEAUSect@CInifile@@@@@std@@IEBAXPEAPEAUSect@CInifile@@0@Z ENDP ; std::vector<CInifile::Sect * __ptr64,xalloc<CInifile::Sect * __ptr64> >::_Orphan_range
; Function compile flags: /Ogtpy
; File c:\program files (x86)\microsoft visual studio 10.0\vc\include\xutility
_TEXT	ENDS
;	COMDAT ??$advance@PEAPEAUSect@CInifile@@_J@std@@YAXAEAPEAPEAUSect@CInifile@@_J@Z
_TEXT	SEGMENT
_Where$ = 8
_Off$ = 16
??$advance@PEAPEAUSect@CInifile@@_J@std@@YAXAEAPEAPEAUSect@CInifile@@_J@Z PROC ; std::advance<CInifile::Sect * __ptr64 * __ptr64,__int64>, COMDAT

; 798  : 	_Advance(_Where, _Off, _Iter_cat(_Where));

	lea	rax, QWORD PTR [rdx*8]
	add	QWORD PTR [rcx], rax

; 799  : 	}

	ret	0
??$advance@PEAPEAUSect@CInifile@@_J@std@@YAXAEAPEAPEAUSect@CInifile@@_J@Z ENDP ; std::advance<CInifile::Sect * __ptr64 * __ptr64,__int64>
; Function compile flags: /Ogtpy
_TEXT	ENDS
;	COMDAT ??$_Distance@PEAPEAUSect@CInifile@@_J@std@@YAXPEAPEAUSect@CInifile@@0AEA_J@Z
_TEXT	SEGMENT
_First$ = 8
_Last$ = 16
_Off$ = 24
??$_Distance@PEAPEAUSect@CInifile@@_J@std@@YAXPEAPEAUSect@CInifile@@0AEA_J@Z PROC ; std::_Distance<CInifile::Sect * __ptr64 * __ptr64,__int64>, COMDAT

; 910  : 	_Distance2(_First, _Last, _Off, _Iter_cat(_First));

	sub	rdx, rcx
	sar	rdx, 3
	add	QWORD PTR [r8], rdx

; 911  : 	}

	ret	0
??$_Distance@PEAPEAUSect@CInifile@@_J@std@@YAXPEAPEAUSect@CInifile@@0AEA_J@Z ENDP ; std::_Distance<CInifile::Sect * __ptr64 * __ptr64,__int64>
; Function compile flags: /Ogtpy
_TEXT	ENDS
;	COMDAT ??$advance@PEAUItem@CInifile@@_J@std@@YAXAEAPEAUItem@CInifile@@_J@Z
_TEXT	SEGMENT
_Where$ = 8
_Off$ = 16
??$advance@PEAUItem@CInifile@@_J@std@@YAXAEAPEAUItem@CInifile@@_J@Z PROC ; std::advance<CInifile::Item * __ptr64,__int64>, COMDAT

; 798  : 	_Advance(_Where, _Off, _Iter_cat(_Where));

	shl	rdx, 4
	add	QWORD PTR [rcx], rdx

; 799  : 	}

	ret	0
??$advance@PEAUItem@CInifile@@_J@std@@YAXAEAPEAUItem@CInifile@@_J@Z ENDP ; std::advance<CInifile::Item * __ptr64,__int64>
; Function compile flags: /Ogtpy
_TEXT	ENDS
;	COMDAT ??$_Distance@PEAUItem@CInifile@@_J@std@@YAXPEAUItem@CInifile@@0AEA_J@Z
_TEXT	SEGMENT
_First$ = 8
_Last$ = 16
_Off$ = 24
??$_Distance@PEAUItem@CInifile@@_J@std@@YAXPEAUItem@CInifile@@0AEA_J@Z PROC ; std::_Distance<CInifile::Item * __ptr64,__int64>, COMDAT

; 910  : 	_Distance2(_First, _Last, _Off, _Iter_cat(_First));

	sub	rdx, rcx
	sar	rdx, 4
	add	QWORD PTR [r8], rdx

; 911  : 	}

	ret	0
??$_Distance@PEAUItem@CInifile@@_J@std@@YAXPEAUItem@CInifile@@0AEA_J@Z ENDP ; std::_Distance<CInifile::Item * __ptr64,__int64>
; Function compile flags: /Ogtpy
; File c:\program files (x86)\microsoft visual studio 10.0\vc\include\vector
_TEXT	ENDS
;	COMDAT ??Y?$_Vector_const_iterator@V?$_Vector_val@PEAUSect@CInifile@@V?$xalloc@PEAUSect@CInifile@@@@@std@@@std@@QEAAAEAV01@_J@Z
_TEXT	SEGMENT
this$ = 8
_Off$ = 16
??Y?$_Vector_const_iterator@V?$_Vector_val@PEAUSect@CInifile@@V?$xalloc@PEAUSect@CInifile@@@@@std@@@std@@QEAAAEAV01@_J@Z PROC ; std::_Vector_const_iterator<std::_Vector_val<CInifile::Sect * __ptr64,xalloc<CInifile::Sect * __ptr64> > >::operator+=, COMDAT

; 152  :  #if _ITERATOR_DEBUG_LEVEL == 2
; 153  : 		if (this->_Getcont() == 0
; 154  : 			|| this->_Ptr + _Off < ((_Myvec *)this->_Getcont())->_Myfirst
; 155  : 			|| ((_Myvec *)this->_Getcont())->_Mylast < this->_Ptr + _Off)
; 156  : 			{	// report error
; 157  : 			_DEBUG_ERROR("vector iterator + offset out of range");
; 158  : 			_SCL_SECURE_OUT_OF_RANGE;
; 159  : 			}
; 160  : 
; 161  :  #elif _ITERATOR_DEBUG_LEVEL == 1
; 162  : 		_SCL_SECURE_VALIDATE(this->_Getcont() != 0);
; 163  : 		_SCL_SECURE_VALIDATE_RANGE(
; 164  : 			((_Myvec *)this->_Getcont())->_Myfirst <= this->_Ptr + _Off
; 165  : 			&& this->_Ptr + _Off <= ((_Myvec *)this->_Getcont())->_Mylast);
; 166  :  #endif /* _ITERATOR_DEBUG_LEVEL */
; 167  : 
; 168  : 		_Ptr += _Off;

	lea	rax, QWORD PTR [rdx*8]
	add	QWORD PTR [rcx], rax

; 169  : 		return (*this);

	mov	rax, rcx

; 170  : 		}

	ret	0
??Y?$_Vector_const_iterator@V?$_Vector_val@PEAUSect@CInifile@@V?$xalloc@PEAUSect@CInifile@@@@@std@@@std@@QEAAAEAV01@_J@Z ENDP ; std::_Vector_const_iterator<std::_Vector_val<CInifile::Sect * __ptr64,xalloc<CInifile::Sect * __ptr64> > >::operator+=
; Function compile flags: /Ogtpy
_TEXT	ENDS
;	COMDAT ??Y?$_Vector_iterator@V?$_Vector_val@PEAUSect@CInifile@@V?$xalloc@PEAUSect@CInifile@@@@@std@@@std@@QEAAAEAV01@_J@Z
_TEXT	SEGMENT
this$ = 8
_Off$ = 16
??Y?$_Vector_iterator@V?$_Vector_val@PEAUSect@CInifile@@V?$xalloc@PEAUSect@CInifile@@@@@std@@@std@@QEAAAEAV01@_J@Z PROC ; std::_Vector_iterator<std::_Vector_val<CInifile::Sect * __ptr64,xalloc<CInifile::Sect * __ptr64> > >::operator+=, COMDAT

; 358  : 		*(_Mybase *)this += _Off;

	lea	rax, QWORD PTR [rdx*8]
	add	QWORD PTR [rcx], rax

; 359  : 		return (*this);

	mov	rax, rcx

; 360  : 		}

	ret	0
??Y?$_Vector_iterator@V?$_Vector_val@PEAUSect@CInifile@@V?$xalloc@PEAUSect@CInifile@@@@@std@@@std@@QEAAAEAV01@_J@Z ENDP ; std::_Vector_iterator<std::_Vector_val<CInifile::Sect * __ptr64,xalloc<CInifile::Sect * __ptr64> > >::operator+=
; Function compile flags: /Ogtpy
_TEXT	ENDS
;	COMDAT ??H?$_Vector_iterator@V?$_Vector_val@PEAUSect@CInifile@@V?$xalloc@PEAUSect@CInifile@@@@@std@@@std@@QEBA?AV01@_J@Z
_TEXT	SEGMENT
this$ = 8
__$ReturnUdt$ = 16
_Off$ = 24
??H?$_Vector_iterator@V?$_Vector_val@PEAUSect@CInifile@@V?$xalloc@PEAUSect@CInifile@@@@@std@@@std@@QEBA?AV01@_J@Z PROC ; std::_Vector_iterator<std::_Vector_val<CInifile::Sect * __ptr64,xalloc<CInifile::Sect * __ptr64> > >::operator+, COMDAT

; 364  : 		_Myiter _Tmp = *this;
; 365  : 		return (_Tmp += _Off);

	mov	rax, QWORD PTR [rcx]
	lea	rcx, QWORD PTR [rax+r8*8]
	mov	rax, rdx
	mov	QWORD PTR [rdx], rcx

; 366  : 		}

	ret	0
??H?$_Vector_iterator@V?$_Vector_val@PEAUSect@CInifile@@V?$xalloc@PEAUSect@CInifile@@@@@std@@@std@@QEBA?AV01@_J@Z ENDP ; std::_Vector_iterator<std::_Vector_val<CInifile::Sect * __ptr64,xalloc<CInifile::Sect * __ptr64> > >::operator+
; Function compile flags: /Ogtpy
_TEXT	ENDS
;	COMDAT ?_Unchecked@?$_Vector_iterator@V?$_Vector_val@PEAUSect@CInifile@@V?$xalloc@PEAUSect@CInifile@@@@@std@@@std@@QEBAPEAPEAUSect@CInifile@@XZ
_TEXT	SEGMENT
this$ = 8
?_Unchecked@?$_Vector_iterator@V?$_Vector_val@PEAUSect@CInifile@@V?$xalloc@PEAUSect@CInifile@@@@@std@@@std@@QEBAPEAPEAUSect@CInifile@@XZ PROC ; std::_Vector_iterator<std::_Vector_val<CInifile::Sect * __ptr64,xalloc<CInifile::Sect * __ptr64> > >::_Unchecked, COMDAT

; 317  : 		return (_Unchecked_type(this->_Ptr));

	mov	rax, QWORD PTR [rcx]

; 318  : 		}

	ret	0
?_Unchecked@?$_Vector_iterator@V?$_Vector_val@PEAUSect@CInifile@@V?$xalloc@PEAUSect@CInifile@@@@@std@@@std@@QEBAPEAPEAUSect@CInifile@@XZ ENDP ; std::_Vector_iterator<std::_Vector_val<CInifile::Sect * __ptr64,xalloc<CInifile::Sect * __ptr64> > >::_Unchecked
; Function compile flags: /Ogtpy
_TEXT	ENDS
;	COMDAT ?_Rechecked@?$_Vector_iterator@V?$_Vector_val@PEAUSect@CInifile@@V?$xalloc@PEAUSect@CInifile@@@@@std@@@std@@QEAAAEAV12@PEAPEAUSect@CInifile@@@Z
_TEXT	SEGMENT
this$ = 8
_Right$ = 16
?_Rechecked@?$_Vector_iterator@V?$_Vector_val@PEAUSect@CInifile@@V?$xalloc@PEAUSect@CInifile@@@@@std@@@std@@QEAAAEAV12@PEAPEAUSect@CInifile@@@Z PROC ; std::_Vector_iterator<std::_Vector_val<CInifile::Sect * __ptr64,xalloc<CInifile::Sect * __ptr64> > >::_Rechecked, COMDAT

; 311  : 		this->_Ptr = _Right;

	mov	QWORD PTR [rcx], rdx

; 312  : 		return (*this);

	mov	rax, rcx

; 313  : 		}

	ret	0
?_Rechecked@?$_Vector_iterator@V?$_Vector_val@PEAUSect@CInifile@@V?$xalloc@PEAUSect@CInifile@@@@@std@@@std@@QEAAAEAV12@PEAPEAUSect@CInifile@@@Z ENDP ; std::_Vector_iterator<std::_Vector_val<CInifile::Sect * __ptr64,xalloc<CInifile::Sect * __ptr64> > >::_Rechecked
; Function compile flags: /Ogtpy
_TEXT	ENDS
;	COMDAT ?_Unchecked@?$_Vector_iterator@V?$_Vector_val@UItem@CInifile@@V?$xalloc@UItem@CInifile@@@@@std@@@std@@QEBAPEAUItem@CInifile@@XZ
_TEXT	SEGMENT
this$ = 8
?_Unchecked@?$_Vector_iterator@V?$_Vector_val@UItem@CInifile@@V?$xalloc@UItem@CInifile@@@@@std@@@std@@QEBAPEAUItem@CInifile@@XZ PROC ; std::_Vector_iterator<std::_Vector_val<CInifile::Item,xalloc<CInifile::Item> > >::_Unchecked, COMDAT

; 317  : 		return (_Unchecked_type(this->_Ptr));

	mov	rax, QWORD PTR [rcx]

; 318  : 		}

	ret	0
?_Unchecked@?$_Vector_iterator@V?$_Vector_val@UItem@CInifile@@V?$xalloc@UItem@CInifile@@@@@std@@@std@@QEBAPEAUItem@CInifile@@XZ ENDP ; std::_Vector_iterator<std::_Vector_val<CInifile::Item,xalloc<CInifile::Item> > >::_Unchecked
; Function compile flags: /Ogtpy
_TEXT	ENDS
;	COMDAT ?_Rechecked@?$_Vector_iterator@V?$_Vector_val@UItem@CInifile@@V?$xalloc@UItem@CInifile@@@@@std@@@std@@QEAAAEAV12@PEAUItem@CInifile@@@Z
_TEXT	SEGMENT
this$ = 8
_Right$ = 16
?_Rechecked@?$_Vector_iterator@V?$_Vector_val@UItem@CInifile@@V?$xalloc@UItem@CInifile@@@@@std@@@std@@QEAAAEAV12@PEAUItem@CInifile@@@Z PROC ; std::_Vector_iterator<std::_Vector_val<CInifile::Item,xalloc<CInifile::Item> > >::_Rechecked, COMDAT

; 311  : 		this->_Ptr = _Right;

	mov	QWORD PTR [rcx], rdx

; 312  : 		return (*this);

	mov	rax, rcx

; 313  : 		}

	ret	0
?_Rechecked@?$_Vector_iterator@V?$_Vector_val@UItem@CInifile@@V?$xalloc@UItem@CInifile@@@@@std@@@std@@QEAAAEAV12@PEAUItem@CInifile@@@Z ENDP ; std::_Vector_iterator<std::_Vector_val<CInifile::Item,xalloc<CInifile::Item> > >::_Rechecked
; Function compile flags: /Ogtpy
; File c:\program files (x86)\microsoft visual studio 10.0\vc\include\xutility
_TEXT	ENDS
;	COMDAT ??$_Val_type@PEAUItem@CInifile@@@std@@YAPEAUItem@CInifile@@PEAU12@@Z
_TEXT	SEGMENT
??$_Val_type@PEAUItem@CInifile@@@std@@YAPEAUItem@CInifile@@PEAU12@@Z PROC ; std::_Val_type<CInifile::Item * __ptr64>, COMDAT

; 790  : 	return (0);

	xor	eax, eax

; 791  : 	}

	ret	0
??$_Val_type@PEAUItem@CInifile@@@std@@YAPEAUItem@CInifile@@PEAU12@@Z ENDP ; std::_Val_type<CInifile::Item * __ptr64>
; Function compile flags: /Ogtpy
_TEXT	ENDS
;	COMDAT ??$_Unchecked@PEAUItem@CInifile@@@std@@YAPEAUItem@CInifile@@PEAU12@@Z
_TEXT	SEGMENT
_Src$ = 8
??$_Unchecked@PEAUItem@CInifile@@@std@@YAPEAUItem@CInifile@@PEAU12@@Z PROC ; std::_Unchecked<CInifile::Item * __ptr64>, COMDAT

; 267  : 	return (_Src);

	mov	rax, rcx

; 268  : 	}

	ret	0
??$_Unchecked@PEAUItem@CInifile@@@std@@YAPEAUItem@CInifile@@PEAU12@@Z ENDP ; std::_Unchecked<CInifile::Item * __ptr64>
_TEXT	ENDS
;	COMDAT pdata
; File c:\users\nummer\documents\github\olr-3.0\src\xray\xrcore\_std_extensions.h
pdata	SEGMENT
$pdata$??$_Lower_bound@PEAPEAUSect@CInifile@@$$BY0BAA@$$CBD_JP6A_NPEBU12@PEBD@Z@std@@YAPEAPEAUSect@CInifile@@PEAPEAU12@0AEAY0BAA@$$CBDP6A_NPEBU12@PEBD@ZPEA_J@Z DD imagerel $LN31
	DD	imagerel $LN31+23
	DD	imagerel $unwind$??$_Lower_bound@PEAPEAUSect@CInifile@@$$BY0BAA@$$CBD_JP6A_NPEBU12@PEBD@Z@std@@YAPEAPEAUSect@CInifile@@PEAPEAU12@0AEAY0BAA@$$CBDP6A_NPEBU12@PEBD@ZPEA_J@Z
pdata	ENDS
;	COMDAT pdata
pdata	SEGMENT
$pdata$0$??$_Lower_bound@PEAPEAUSect@CInifile@@$$BY0BAA@$$CBD_JP6A_NPEBU12@PEBD@Z@std@@YAPEAPEAUSect@CInifile@@PEAPEAU12@0AEAY0BAA@$$CBDP6A_NPEBU12@PEBD@ZPEA_J@Z DD imagerel $LN31+23
	DD	imagerel $LN31+132
	DD	imagerel $chain$0$??$_Lower_bound@PEAPEAUSect@CInifile@@$$BY0BAA@$$CBD_JP6A_NPEBU12@PEBD@Z@std@@YAPEAPEAUSect@CInifile@@PEAPEAU12@0AEAY0BAA@$$CBDP6A_NPEBU12@PEBD@ZPEA_J@Z
pdata	ENDS
;	COMDAT pdata
pdata	SEGMENT
$pdata$1$??$_Lower_bound@PEAPEAUSect@CInifile@@$$BY0BAA@$$CBD_JP6A_NPEBU12@PEBD@Z@std@@YAPEAPEAUSect@CInifile@@PEAPEAU12@0AEAY0BAA@$$CBDP6A_NPEBU12@PEBD@ZPEA_J@Z DD imagerel $LN31+132
	DD	imagerel $LN31+137
	DD	imagerel $chain$1$??$_Lower_bound@PEAPEAUSect@CInifile@@$$BY0BAA@$$CBD_JP6A_NPEBU12@PEBD@Z@std@@YAPEAPEAUSect@CInifile@@PEAPEAU12@0AEAY0BAA@$$CBDP6A_NPEBU12@PEBD@ZPEA_J@Z
pdata	ENDS
;	COMDAT xdata
xdata	SEGMENT
$chain$1$??$_Lower_bound@PEAPEAUSect@CInifile@@$$BY0BAA@$$CBD_JP6A_NPEBU12@PEBD@Z@std@@YAPEAPEAUSect@CInifile@@PEAPEAU12@0AEAY0BAA@$$CBDP6A_NPEBU12@PEBD@ZPEA_J@Z DD 021H
	DD	imagerel $LN31
	DD	imagerel $LN31+23
	DD	imagerel $unwind$??$_Lower_bound@PEAPEAUSect@CInifile@@$$BY0BAA@$$CBD_JP6A_NPEBU12@PEBD@Z@std@@YAPEAPEAUSect@CInifile@@PEAPEAU12@0AEAY0BAA@$$CBDP6A_NPEBU12@PEBD@ZPEA_J@Z
xdata	ENDS
;	COMDAT xdata
xdata	SEGMENT
$chain$0$??$_Lower_bound@PEAPEAUSect@CInifile@@$$BY0BAA@$$CBD_JP6A_NPEBU12@PEBD@Z@std@@YAPEAPEAUSect@CInifile@@PEAPEAU12@0AEAY0BAA@$$CBDP6A_NPEBU12@PEBD@ZPEA_J@Z DD 020521H
	DD	023405H
	DD	imagerel $LN31
	DD	imagerel $LN31+23
	DD	imagerel $unwind$??$_Lower_bound@PEAPEAUSect@CInifile@@$$BY0BAA@$$CBD_JP6A_NPEBU12@PEBD@Z@std@@YAPEAPEAUSect@CInifile@@PEAPEAU12@0AEAY0BAA@$$CBDP6A_NPEBU12@PEBD@ZPEA_J@Z
xdata	ENDS
;	COMDAT xdata
xdata	SEGMENT
$unwind$??$_Lower_bound@PEAPEAUSect@CInifile@@$$BY0BAA@$$CBD_JP6A_NPEBU12@PEBD@Z@std@@YAPEAPEAUSect@CInifile@@PEAPEAU12@0AEAY0BAA@$$CBDP6A_NPEBU12@PEBD@ZPEA_J@Z DD 010201H
	DD	07002H
; Function compile flags: /Ogtpy
; File c:\program files (x86)\microsoft visual studio 10.0\vc\include\algorithm
xdata	ENDS
;	COMDAT ??$_Lower_bound@PEAPEAUSect@CInifile@@$$BY0BAA@$$CBD_JP6A_NPEBU12@PEBD@Z@std@@YAPEAPEAUSect@CInifile@@PEAPEAU12@0AEAY0BAA@$$CBDP6A_NPEBU12@PEBD@ZPEA_J@Z
_TEXT	SEGMENT
_First$ = 16
_Last$ = 24
_Val$ = 32
??$_Lower_bound@PEAPEAUSect@CInifile@@$$BY0BAA@$$CBD_JP6A_NPEBU12@PEBD@Z@std@@YAPEAPEAUSect@CInifile@@PEAPEAU12@0AEAY0BAA@$$CBDP6A_NPEBU12@PEBD@ZPEA_J@Z PROC ; std::_Lower_bound<CInifile::Sect * __ptr64 * __ptr64,char const [256],__int64,bool (__cdecl*)(CInifile::Sect const * __ptr64,char const * __ptr64)>, COMDAT

; 2759 : 	{	// find first element not before _Val, using _Pred

$LN31:
	push	rdi
	mov	r9, rdx
	mov	rdi, r8
	mov	r11, rcx

; 2760 : 	_Diff _Count = 0;
; 2761 : 	_Distance(_First, _Last, _Count);

	sub	r9, rcx
	sar	r9, 3

; 2762 : 	for (; 0 < _Count; )

	test	r9, r9
	jle	SHORT $LN30@Lower_boun@2
	mov	QWORD PTR [rsp+16], rbx
	npad	4
$LL4@Lower_boun@2:

; 2763 : 		{	// divide and conquer, find half that contains answer
; 2764 : 		_Diff _Count2 = _Count / 2;

	mov	rax, r9
	cdq
	sub	rax, rdx
	sar	rax, 1
	mov	r10, rax

; 2765 : 		_FwdIt _Mid = _First;
; 2766 : 		_STD advance(_Mid, _Count2);

	lea	rbx, QWORD PTR [r11+rax*8]

; 2767 : 
; 2768 : 		if (_Pred(*_Mid, _Val))

	mov	rcx, QWORD PTR [rbx]
	mov	rcx, QWORD PTR [rcx]
	test	rcx, rcx
	je	SHORT $LN24@Lower_boun@2
	add	rcx, 12
$LN24@Lower_boun@2:
	mov	r8, rdi
	sub	r8, rcx
	npad	9
$LL28@Lower_boun@2:
	movzx	edx, BYTE PTR [rcx]
	movzx	eax, BYTE PTR [rcx+r8]
	sub	edx, eax
	jne	SHORT $LN29@Lower_boun@2
	inc	rcx
	test	eax, eax
	jne	SHORT $LL28@Lower_boun@2
$LN29@Lower_boun@2:
	test	edx, edx
	jns	SHORT $LN2@Lower_boun@2

; 2769 : //		if (_DEBUG_LT_PRED(_Pred, *_Mid, _Val))
; 2770 : 			{	// try top half
; 2771 : 			_First = ++_Mid;
; 2772 : 			_Count -= _Count2 + 1;

	or	rax, -1
	lea	r11, QWORD PTR [rbx+8]
	sub	rax, r10
	add	r9, rax

; 2773 : 			}
; 2774 : 		else

	jmp	SHORT $LN1@Lower_boun@2
$LN2@Lower_boun@2:

; 2775 : 			_Count = _Count2;

	mov	r9, r10
$LN1@Lower_boun@2:

; 2762 : 	for (; 0 < _Count; )

	test	r9, r9
	jg	SHORT $LL4@Lower_boun@2
	mov	rbx, QWORD PTR [rsp+16]
$LN30@Lower_boun@2:

; 2776 : 		}
; 2777 : 	return (_First);

	mov	rax, r11

; 2778 : 	}

	pop	rdi
	ret	0
??$_Lower_bound@PEAPEAUSect@CInifile@@$$BY0BAA@$$CBD_JP6A_NPEBU12@PEBD@Z@std@@YAPEAPEAUSect@CInifile@@PEAPEAU12@0AEAY0BAA@$$CBDP6A_NPEBU12@PEBD@ZPEA_J@Z ENDP ; std::_Lower_bound<CInifile::Sect * __ptr64 * __ptr64,char const [256],__int64,bool (__cdecl*)(CInifile::Sect const * __ptr64,char const * __ptr64)>
; Function compile flags: /Ogtpy
; File c:\program files (x86)\microsoft visual studio 10.0\vc\include\vector
_TEXT	ENDS
;	COMDAT ??$_Rechecked@V?$_Vector_val@PEAUSect@CInifile@@V?$xalloc@PEAUSect@CInifile@@@@@std@@@std@@YAAEAV?$_Vector_iterator@V?$_Vector_val@PEAUSect@CInifile@@V?$xalloc@PEAUSect@CInifile@@@@@std@@@0@AEAV10@PEAPEAUSect@CInifile@@@Z
_TEXT	SEGMENT
_Iter$ = 8
_Right$ = 16
??$_Rechecked@V?$_Vector_val@PEAUSect@CInifile@@V?$xalloc@PEAUSect@CInifile@@@@@std@@@std@@YAAEAV?$_Vector_iterator@V?$_Vector_val@PEAUSect@CInifile@@V?$xalloc@PEAUSect@CInifile@@@@@std@@@0@AEAV10@PEAPEAUSect@CInifile@@@Z PROC ; std::_Rechecked<std::_Vector_val<CInifile::Sect * __ptr64,xalloc<CInifile::Sect * __ptr64> > >, COMDAT

; 403  : 	return (_Iter._Rechecked(_Right));

	mov	QWORD PTR [rcx], rdx
	mov	rax, rcx

; 404  : 	}

	ret	0
??$_Rechecked@V?$_Vector_val@PEAUSect@CInifile@@V?$xalloc@PEAUSect@CInifile@@@@@std@@@std@@YAAEAV?$_Vector_iterator@V?$_Vector_val@PEAUSect@CInifile@@V?$xalloc@PEAUSect@CInifile@@@@@std@@@0@AEAV10@PEAPEAUSect@CInifile@@@Z ENDP ; std::_Rechecked<std::_Vector_val<CInifile::Sect * __ptr64,xalloc<CInifile::Sect * __ptr64> > >
_TEXT	ENDS
;	COMDAT pdata
; File c:\users\nummer\documents\github\olr-3.0\src\xray\xrcore\_std_extensions.h
pdata	SEGMENT
$pdata$??$_Lower_bound@PEAPEAUSect@CInifile@@PEBD_JP6A_NPEBU12@PEBD@Z@std@@YAPEAPEAUSect@CInifile@@PEAPEAU12@0AEBQEBDP6A_NPEBU12@PEBD@ZPEA_J@Z DD imagerel $LN31
	DD	imagerel $LN31+22
	DD	imagerel $unwind$??$_Lower_bound@PEAPEAUSect@CInifile@@PEBD_JP6A_NPEBU12@PEBD@Z@std@@YAPEAPEAUSect@CInifile@@PEAPEAU12@0AEBQEBDP6A_NPEBU12@PEBD@ZPEA_J@Z
pdata	ENDS
;	COMDAT pdata
pdata	SEGMENT
$pdata$1$??$_Lower_bound@PEAPEAUSect@CInifile@@PEBD_JP6A_NPEBU12@PEBD@Z@std@@YAPEAPEAUSect@CInifile@@PEAPEAU12@0AEBQEBDP6A_NPEBU12@PEBD@ZPEA_J@Z DD imagerel $LN31+22
	DD	imagerel $LN31+136
	DD	imagerel $chain$1$??$_Lower_bound@PEAPEAUSect@CInifile@@PEBD_JP6A_NPEBU12@PEBD@Z@std@@YAPEAPEAUSect@CInifile@@PEAPEAU12@0AEBQEBDP6A_NPEBU12@PEBD@ZPEA_J@Z
pdata	ENDS
;	COMDAT pdata
pdata	SEGMENT
$pdata$2$??$_Lower_bound@PEAPEAUSect@CInifile@@PEBD_JP6A_NPEBU12@PEBD@Z@std@@YAPEAPEAUSect@CInifile@@PEAPEAU12@0AEBQEBDP6A_NPEBU12@PEBD@ZPEA_J@Z DD imagerel $LN31+136
	DD	imagerel $LN31+144
	DD	imagerel $chain$2$??$_Lower_bound@PEAPEAUSect@CInifile@@PEBD_JP6A_NPEBU12@PEBD@Z@std@@YAPEAPEAUSect@CInifile@@PEAPEAU12@0AEBQEBDP6A_NPEBU12@PEBD@ZPEA_J@Z
pdata	ENDS
;	COMDAT xdata
xdata	SEGMENT
$chain$2$??$_Lower_bound@PEAPEAUSect@CInifile@@PEBD_JP6A_NPEBU12@PEBD@Z@std@@YAPEAPEAUSect@CInifile@@PEAPEAU12@0AEBQEBDP6A_NPEBU12@PEBD@ZPEA_J@Z DD 021H
	DD	imagerel $LN31
	DD	imagerel $LN31+22
	DD	imagerel $unwind$??$_Lower_bound@PEAPEAUSect@CInifile@@PEBD_JP6A_NPEBU12@PEBD@Z@std@@YAPEAPEAUSect@CInifile@@PEAPEAU12@0AEBQEBDP6A_NPEBU12@PEBD@ZPEA_J@Z
xdata	ENDS
;	COMDAT xdata
xdata	SEGMENT
$chain$1$??$_Lower_bound@PEAPEAUSect@CInifile@@PEBD_JP6A_NPEBU12@PEBD@Z@std@@YAPEAPEAUSect@CInifile@@PEAPEAU12@0AEBQEBDP6A_NPEBU12@PEBD@ZPEA_J@Z DD 040921H
	DD	07409H
	DD	023405H
	DD	imagerel $LN31
	DD	imagerel $LN31+22
	DD	imagerel $unwind$??$_Lower_bound@PEAPEAUSect@CInifile@@PEBD_JP6A_NPEBU12@PEBD@Z@std@@YAPEAPEAUSect@CInifile@@PEAPEAU12@0AEBQEBDP6A_NPEBU12@PEBD@ZPEA_J@Z
xdata	ENDS
;	COMDAT xdata
xdata	SEGMENT
$unwind$??$_Lower_bound@PEAPEAUSect@CInifile@@PEBD_JP6A_NPEBU12@PEBD@Z@std@@YAPEAPEAUSect@CInifile@@PEAPEAU12@0AEBQEBDP6A_NPEBU12@PEBD@ZPEA_J@Z DD 010401H
	DD	0204H
; Function compile flags: /Ogtpy
; File c:\program files (x86)\microsoft visual studio 10.0\vc\include\algorithm
xdata	ENDS
;	COMDAT ??$_Lower_bound@PEAPEAUSect@CInifile@@PEBD_JP6A_NPEBU12@PEBD@Z@std@@YAPEAPEAUSect@CInifile@@PEAPEAU12@0AEBQEBDP6A_NPEBU12@PEBD@ZPEA_J@Z
_TEXT	SEGMENT
_First$ = 16
_Last$ = 24
_Val$ = 32
??$_Lower_bound@PEAPEAUSect@CInifile@@PEBD_JP6A_NPEBU12@PEBD@Z@std@@YAPEAPEAUSect@CInifile@@PEAPEAU12@0AEBQEBDP6A_NPEBU12@PEBD@ZPEA_J@Z PROC ; std::_Lower_bound<CInifile::Sect * __ptr64 * __ptr64,char const * __ptr64,__int64,bool (__cdecl*)(CInifile::Sect const * __ptr64,char const * __ptr64)>, COMDAT

; 2759 : 	{	// find first element not before _Val, using _Pred

$LN31:
	sub	rsp, 8
	mov	r9, rdx
	mov	r11, rcx

; 2760 : 	_Diff _Count = 0;
; 2761 : 	_Distance(_First, _Last, _Count);

	sub	r9, rcx
	sar	r9, 3

; 2762 : 	for (; 0 < _Count; )

	test	r9, r9
	jle	SHORT $LN30@Lower_boun@3

; 2767 : 
; 2768 : 		if (_Pred(*_Mid, _Val))

	mov	QWORD PTR [rsp+16], rbx
	mov	QWORD PTR [rsp], rdi
	mov	rdi, QWORD PTR [r8]
$LL4@Lower_boun@3:

; 2763 : 		{	// divide and conquer, find half that contains answer
; 2764 : 		_Diff _Count2 = _Count / 2;

	mov	rax, r9
	cdq
	sub	rax, rdx
	sar	rax, 1
	mov	r10, rax

; 2765 : 		_FwdIt _Mid = _First;
; 2766 : 		_STD advance(_Mid, _Count2);

	lea	rbx, QWORD PTR [r11+rax*8]

; 2767 : 
; 2768 : 		if (_Pred(*_Mid, _Val))

	mov	rcx, QWORD PTR [rbx]
	mov	rcx, QWORD PTR [rcx]
	test	rcx, rcx
	je	SHORT $LN24@Lower_boun@3
	add	rcx, 12
$LN24@Lower_boun@3:
	mov	r8, rdi
	sub	r8, rcx
	npad	7
$LL28@Lower_boun@3:
	movzx	edx, BYTE PTR [rcx]
	movzx	eax, BYTE PTR [rcx+r8]
	sub	edx, eax
	jne	SHORT $LN29@Lower_boun@3
	inc	rcx
	test	eax, eax
	jne	SHORT $LL28@Lower_boun@3
$LN29@Lower_boun@3:
	test	edx, edx
	jns	SHORT $LN2@Lower_boun@3

; 2769 : //		if (_DEBUG_LT_PRED(_Pred, *_Mid, _Val))
; 2770 : 			{	// try top half
; 2771 : 			_First = ++_Mid;
; 2772 : 			_Count -= _Count2 + 1;

	or	rax, -1
	lea	r11, QWORD PTR [rbx+8]
	sub	rax, r10
	add	r9, rax

; 2773 : 			}
; 2774 : 		else

	jmp	SHORT $LN1@Lower_boun@3
$LN2@Lower_boun@3:

; 2775 : 			_Count = _Count2;

	mov	r9, r10
$LN1@Lower_boun@3:

; 2762 : 	for (; 0 < _Count; )

	test	r9, r9
	jg	SHORT $LL4@Lower_boun@3
	mov	rdi, QWORD PTR [rsp]
	mov	rbx, QWORD PTR [rsp+16]
$LN30@Lower_boun@3:

; 2776 : 		}
; 2777 : 	return (_First);

	mov	rax, r11

; 2778 : 	}

	add	rsp, 8
	ret	0
??$_Lower_bound@PEAPEAUSect@CInifile@@PEBD_JP6A_NPEBU12@PEBD@Z@std@@YAPEAPEAUSect@CInifile@@PEAPEAU12@0AEBQEBDP6A_NPEBU12@PEBD@ZPEA_J@Z ENDP ; std::_Lower_bound<CInifile::Sect * __ptr64 * __ptr64,char const * __ptr64,__int64,bool (__cdecl*)(CInifile::Sect const * __ptr64,char const * __ptr64)>
; Function compile flags: /Ogtpy
; File c:\program files (x86)\microsoft visual studio 10.0\vc\include\xutility
_TEXT	ENDS
;	COMDAT ??$_Dist_type@V?$_Vector_iterator@V?$_Vector_val@PEAUSect@CInifile@@V?$xalloc@PEAUSect@CInifile@@@@@std@@@std@@@std@@YAPEA_JV?$_Vector_iterator@V?$_Vector_val@PEAUSect@CInifile@@V?$xalloc@PEAUSect@CInifile@@@@@std@@@0@@Z
_TEXT	SEGMENT
??$_Dist_type@V?$_Vector_iterator@V?$_Vector_val@PEAUSect@CInifile@@V?$xalloc@PEAUSect@CInifile@@@@@std@@@std@@@std@@YAPEA_JV?$_Vector_iterator@V?$_Vector_val@PEAUSect@CInifile@@V?$xalloc@PEAUSect@CInifile@@@@@std@@@0@@Z PROC ; std::_Dist_type<std::_Vector_iterator<std::_Vector_val<CInifile::Sect * __ptr64,xalloc<CInifile::Sect * __ptr64> > > >, COMDAT

; 850  : 	return (0);

	xor	eax, eax

; 851  : 	}

	ret	0
??$_Dist_type@V?$_Vector_iterator@V?$_Vector_val@PEAUSect@CInifile@@V?$xalloc@PEAUSect@CInifile@@@@@std@@@std@@@std@@YAPEA_JV?$_Vector_iterator@V?$_Vector_val@PEAUSect@CInifile@@V?$xalloc@PEAUSect@CInifile@@@@@std@@@0@@Z ENDP ; std::_Dist_type<std::_Vector_iterator<std::_Vector_val<CInifile::Sect * __ptr64,xalloc<CInifile::Sect * __ptr64> > > >
; Function compile flags: /Ogtpy
; File c:\program files (x86)\microsoft visual studio 10.0\vc\include\vector
_TEXT	ENDS
;	COMDAT ??$_Unchecked@V?$_Vector_val@PEAUSect@CInifile@@V?$xalloc@PEAUSect@CInifile@@@@@std@@@std@@YAPEAPEAUSect@CInifile@@V?$_Vector_iterator@V?$_Vector_val@PEAUSect@CInifile@@V?$xalloc@PEAUSect@CInifile@@@@@std@@@0@@Z
_TEXT	SEGMENT
_Iter$ = 8
??$_Unchecked@V?$_Vector_val@PEAUSect@CInifile@@V?$xalloc@PEAUSect@CInifile@@@@@std@@@std@@YAPEAPEAUSect@CInifile@@V?$_Vector_iterator@V?$_Vector_val@PEAUSect@CInifile@@V?$xalloc@PEAUSect@CInifile@@@@@std@@@0@@Z PROC ; std::_Unchecked<std::_Vector_val<CInifile::Sect * __ptr64,xalloc<CInifile::Sect * __ptr64> > >, COMDAT

; 394  : 	return (_Iter._Unchecked());

	mov	rax, rcx

; 395  : 	}

	ret	0
??$_Unchecked@V?$_Vector_val@PEAUSect@CInifile@@V?$xalloc@PEAUSect@CInifile@@@@@std@@@std@@YAPEAPEAUSect@CInifile@@V?$_Vector_iterator@V?$_Vector_val@PEAUSect@CInifile@@V?$xalloc@PEAUSect@CInifile@@@@@std@@@0@@Z ENDP ; std::_Unchecked<std::_Vector_val<CInifile::Sect * __ptr64,xalloc<CInifile::Sect * __ptr64> > >
; Function compile flags: /Ogtpy
_TEXT	ENDS
;	COMDAT ??$_Rechecked@V?$_Vector_val@UItem@CInifile@@V?$xalloc@UItem@CInifile@@@@@std@@@std@@YAAEAV?$_Vector_iterator@V?$_Vector_val@UItem@CInifile@@V?$xalloc@UItem@CInifile@@@@@std@@@0@AEAV10@PEAUItem@CInifile@@@Z
_TEXT	SEGMENT
_Iter$ = 8
_Right$ = 16
??$_Rechecked@V?$_Vector_val@UItem@CInifile@@V?$xalloc@UItem@CInifile@@@@@std@@@std@@YAAEAV?$_Vector_iterator@V?$_Vector_val@UItem@CInifile@@V?$xalloc@UItem@CInifile@@@@@std@@@0@AEAV10@PEAUItem@CInifile@@@Z PROC ; std::_Rechecked<std::_Vector_val<CInifile::Item,xalloc<CInifile::Item> > >, COMDAT

; 403  : 	return (_Iter._Rechecked(_Right));

	mov	QWORD PTR [rcx], rdx
	mov	rax, rcx

; 404  : 	}

	ret	0
??$_Rechecked@V?$_Vector_val@UItem@CInifile@@V?$xalloc@UItem@CInifile@@@@@std@@@std@@YAAEAV?$_Vector_iterator@V?$_Vector_val@UItem@CInifile@@V?$xalloc@UItem@CInifile@@@@@std@@@0@AEAV10@PEAUItem@CInifile@@@Z ENDP ; std::_Rechecked<std::_Vector_val<CInifile::Item,xalloc<CInifile::Item> > >
_TEXT	ENDS
PUBLIC	?item_pred@@YA_NAEBUItem@CInifile@@PEBD@Z	; item_pred
;	COMDAT pdata
; File c:\users\nummer\documents\github\olr-3.0\src\xray\xrcore\_std_extensions.h
pdata	SEGMENT
$pdata$??$_Lower_bound@PEAUItem@CInifile@@PEBD_JP6A_NAEBU12@PEBD@Z@std@@YAPEAUItem@CInifile@@PEAU12@0AEBQEBDP6A_NAEBU12@PEBD@ZPEA_J@Z DD imagerel $LN55
	DD	imagerel $LN55+37
	DD	imagerel $unwind$??$_Lower_bound@PEAUItem@CInifile@@PEBD_JP6A_NAEBU12@PEBD@Z@std@@YAPEAUItem@CInifile@@PEAU12@0AEBQEBDP6A_NAEBU12@PEBD@ZPEA_J@Z
pdata	ENDS
;	COMDAT pdata
pdata	SEGMENT
$pdata$1$??$_Lower_bound@PEAUItem@CInifile@@PEBD_JP6A_NAEBU12@PEBD@Z@std@@YAPEAUItem@CInifile@@PEAU12@0AEBQEBDP6A_NAEBU12@PEBD@ZPEA_J@Z DD imagerel $LN55+37
	DD	imagerel $LN55+122
	DD	imagerel $chain$1$??$_Lower_bound@PEAUItem@CInifile@@PEBD_JP6A_NAEBU12@PEBD@Z@std@@YAPEAUItem@CInifile@@PEAU12@0AEBQEBDP6A_NAEBU12@PEBD@ZPEA_J@Z
pdata	ENDS
;	COMDAT pdata
pdata	SEGMENT
$pdata$2$??$_Lower_bound@PEAUItem@CInifile@@PEBD_JP6A_NAEBU12@PEBD@Z@std@@YAPEAUItem@CInifile@@PEAU12@0AEBQEBDP6A_NAEBU12@PEBD@ZPEA_J@Z DD imagerel $LN55+122
	DD	imagerel $LN55+142
	DD	imagerel $chain$2$??$_Lower_bound@PEAUItem@CInifile@@PEBD_JP6A_NAEBU12@PEBD@Z@std@@YAPEAUItem@CInifile@@PEAU12@0AEBQEBDP6A_NAEBU12@PEBD@ZPEA_J@Z
pdata	ENDS
;	COMDAT xdata
xdata	SEGMENT
$chain$2$??$_Lower_bound@PEAUItem@CInifile@@PEBD_JP6A_NAEBU12@PEBD@Z@std@@YAPEAUItem@CInifile@@PEAU12@0AEBQEBDP6A_NAEBU12@PEBD@ZPEA_J@Z DD 021H
	DD	imagerel $LN55
	DD	imagerel $LN55+37
	DD	imagerel $unwind$??$_Lower_bound@PEAUItem@CInifile@@PEBD_JP6A_NAEBU12@PEBD@Z@std@@YAPEAUItem@CInifile@@PEAU12@0AEBQEBDP6A_NAEBU12@PEBD@ZPEA_J@Z
xdata	ENDS
;	COMDAT xdata
xdata	SEGMENT
$chain$1$??$_Lower_bound@PEAUItem@CInifile@@PEBD_JP6A_NAEBU12@PEBD@Z@std@@YAPEAUItem@CInifile@@PEAU12@0AEBQEBDP6A_NAEBU12@PEBD@ZPEA_J@Z DD 040a21H
	DD	07740aH
	DD	065405H
	DD	imagerel $LN55
	DD	imagerel $LN55+37
	DD	imagerel $unwind$??$_Lower_bound@PEAUItem@CInifile@@PEBD_JP6A_NAEBU12@PEBD@Z@std@@YAPEAUItem@CInifile@@PEAU12@0AEBQEBDP6A_NAEBU12@PEBD@ZPEA_J@Z
xdata	ENDS
;	COMDAT xdata
xdata	SEGMENT
$unwind$??$_Lower_bound@PEAUItem@CInifile@@PEBD_JP6A_NAEBU12@PEBD@Z@std@@YAPEAUItem@CInifile@@PEAU12@0AEBQEBDP6A_NAEBU12@PEBD@ZPEA_J@Z DD 061001H
	DD	096410H
	DD	083410H
	DD	0c00c3210H
; Function compile flags: /Ogtpy
; File c:\program files (x86)\microsoft visual studio 10.0\vc\include\algorithm
xdata	ENDS
;	COMDAT ??$_Lower_bound@PEAUItem@CInifile@@PEBD_JP6A_NAEBU12@PEBD@Z@std@@YAPEAUItem@CInifile@@PEAU12@0AEBQEBDP6A_NAEBU12@PEBD@ZPEA_J@Z
_TEXT	SEGMENT
_First$ = 48
_Last$ = 56
_Val$ = 64
??$_Lower_bound@PEAUItem@CInifile@@PEBD_JP6A_NAEBU12@PEBD@Z@std@@YAPEAUItem@CInifile@@PEAU12@0AEBQEBDP6A_NAEBU12@PEBD@ZPEA_J@Z PROC ; std::_Lower_bound<CInifile::Item * __ptr64,char const * __ptr64,__int64,bool (__cdecl*)(CInifile::Item const & __ptr64,char const * __ptr64)>, COMDAT

; 2759 : 	{	// find first element not before _Val, using _Pred

$LN55:
	mov	QWORD PTR [rsp+24], rbx
	mov	QWORD PTR [rsp+32], rsi
	push	r12
	sub	rsp, 32					; 00000020H
	mov	rbx, rdx
	mov	r12, r8
	mov	rsi, rcx

; 2760 : 	_Diff _Count = 0;
; 2761 : 	_Distance(_First, _Last, _Count);

	sub	rbx, rcx
	sar	rbx, 4

; 2762 : 	for (; 0 < _Count; )

	test	rbx, rbx
	jle	SHORT $LN54@Lower_boun@4
	mov	QWORD PTR [rsp+48], rbp
	mov	QWORD PTR [rsp+56], rdi
	npad	1
$LL4@Lower_boun@4:

; 2763 : 		{	// divide and conquer, find half that contains answer
; 2764 : 		_Diff _Count2 = _Count / 2;

	mov	rax, rbx
	cdq
	sub	rax, rdx

; 2765 : 		_FwdIt _Mid = _First;
; 2766 : 		_STD advance(_Mid, _Count2);
; 2767 : 
; 2768 : 		if (_Pred(*_Mid, _Val))

	mov	rdx, QWORD PTR [r12]
	sar	rax, 1
	mov	rbp, rax
	mov	rdi, rax
	shl	rbp, 4
	add	rbp, rsi
	mov	rcx, rbp
	call	?item_pred@@YA_NAEBUItem@CInifile@@PEBD@Z ; item_pred
	test	al, al
	je	SHORT $LN2@Lower_boun@4

; 2769 : //		if (_DEBUG_LT_PRED(_Pred, *_Mid, _Val))
; 2770 : 			{	// try top half
; 2771 : 			_First = ++_Mid;
; 2772 : 			_Count -= _Count2 + 1;

	or	rcx, -1
	lea	rsi, QWORD PTR [rbp+16]
	sub	rcx, rdi
	add	rbx, rcx

; 2773 : 			}
; 2774 : 		else

	jmp	SHORT $LN1@Lower_boun@4
$LN2@Lower_boun@4:

; 2775 : 			_Count = _Count2;

	mov	rbx, rdi
$LN1@Lower_boun@4:

; 2762 : 	for (; 0 < _Count; )

	test	rbx, rbx
	jg	SHORT $LL4@Lower_boun@4
	mov	rdi, QWORD PTR [rsp+56]
	mov	rbp, QWORD PTR [rsp+48]
$LN54@Lower_boun@4:

; 2776 : 		}
; 2777 : 	return (_First);
; 2778 : 	}

	mov	rbx, QWORD PTR [rsp+64]
	mov	rax, rsi
	mov	rsi, QWORD PTR [rsp+72]
	add	rsp, 32					; 00000020H
	pop	r12
	ret	0
??$_Lower_bound@PEAUItem@CInifile@@PEBD_JP6A_NAEBU12@PEBD@Z@std@@YAPEAUItem@CInifile@@PEAU12@0AEBQEBDP6A_NAEBU12@PEBD@ZPEA_J@Z ENDP ; std::_Lower_bound<CInifile::Item * __ptr64,char const * __ptr64,__int64,bool (__cdecl*)(CInifile::Item const & __ptr64,char const * __ptr64)>
; Function compile flags: /Ogtpy
; File c:\program files (x86)\microsoft visual studio 10.0\vc\include\xutility
_TEXT	ENDS
;	COMDAT ??$_Dist_type@V?$_Vector_iterator@V?$_Vector_val@UItem@CInifile@@V?$xalloc@UItem@CInifile@@@@@std@@@std@@@std@@YAPEA_JV?$_Vector_iterator@V?$_Vector_val@UItem@CInifile@@V?$xalloc@UItem@CInifile@@@@@std@@@0@@Z
_TEXT	SEGMENT
??$_Dist_type@V?$_Vector_iterator@V?$_Vector_val@UItem@CInifile@@V?$xalloc@UItem@CInifile@@@@@std@@@std@@@std@@YAPEA_JV?$_Vector_iterator@V?$_Vector_val@UItem@CInifile@@V?$xalloc@UItem@CInifile@@@@@std@@@0@@Z PROC ; std::_Dist_type<std::_Vector_iterator<std::_Vector_val<CInifile::Item,xalloc<CInifile::Item> > > >, COMDAT

; 850  : 	return (0);

	xor	eax, eax

; 851  : 	}

	ret	0
??$_Dist_type@V?$_Vector_iterator@V?$_Vector_val@UItem@CInifile@@V?$xalloc@UItem@CInifile@@@@@std@@@std@@@std@@YAPEA_JV?$_Vector_iterator@V?$_Vector_val@UItem@CInifile@@V?$xalloc@UItem@CInifile@@@@@std@@@0@@Z ENDP ; std::_Dist_type<std::_Vector_iterator<std::_Vector_val<CInifile::Item,xalloc<CInifile::Item> > > >
; Function compile flags: /Ogtpy
; File c:\program files (x86)\microsoft visual studio 10.0\vc\include\vector
_TEXT	ENDS
;	COMDAT ??$_Unchecked@V?$_Vector_val@UItem@CInifile@@V?$xalloc@UItem@CInifile@@@@@std@@@std@@YAPEAUItem@CInifile@@V?$_Vector_iterator@V?$_Vector_val@UItem@CInifile@@V?$xalloc@UItem@CInifile@@@@@std@@@0@@Z
_TEXT	SEGMENT
_Iter$ = 8
??$_Unchecked@V?$_Vector_val@UItem@CInifile@@V?$xalloc@UItem@CInifile@@@@@std@@@std@@YAPEAUItem@CInifile@@V?$_Vector_iterator@V?$_Vector_val@UItem@CInifile@@V?$xalloc@UItem@CInifile@@@@@std@@@0@@Z PROC ; std::_Unchecked<std::_Vector_val<CInifile::Item,xalloc<CInifile::Item> > >, COMDAT

; 394  : 	return (_Iter._Unchecked());

	mov	rax, rcx

; 395  : 	}

	ret	0
??$_Unchecked@V?$_Vector_val@UItem@CInifile@@V?$xalloc@UItem@CInifile@@@@@std@@@std@@YAPEAUItem@CInifile@@V?$_Vector_iterator@V?$_Vector_val@UItem@CInifile@@V?$xalloc@UItem@CInifile@@@@@std@@@0@@Z ENDP ; std::_Unchecked<std::_Vector_val<CInifile::Item,xalloc<CInifile::Item> > >
; Function compile flags: /Ogtpy
; File c:\program files (x86)\microsoft visual studio 10.0\vc\include\xmemory
_TEXT	ENDS
;	COMDAT ??$addressof@UItem@CInifile@@@std@@YAPEAUItem@CInifile@@AEAU12@@Z
_TEXT	SEGMENT
_Val$ = 8
??$addressof@UItem@CInifile@@@std@@YAPEAUItem@CInifile@@AEAU12@@Z PROC ; std::addressof<CInifile::Item>, COMDAT

; 111  : 	return ((_Ty *) &(char&)_Val);

	mov	rax, rcx

; 112  : 	}

	ret	0
??$addressof@UItem@CInifile@@@std@@YAPEAUItem@CInifile@@AEAU12@@Z ENDP ; std::addressof<CInifile::Item>
; Function compile flags: /Ogtpy
_TEXT	ENDS
;	COMDAT ??$addressof@$$CBUItem@CInifile@@@std@@YAPEBUItem@CInifile@@AEBU12@@Z
_TEXT	SEGMENT
_Val$ = 8
??$addressof@$$CBUItem@CInifile@@@std@@YAPEBUItem@CInifile@@AEBU12@@Z PROC ; std::addressof<CInifile::Item const >, COMDAT

; 111  : 	return ((_Ty *) &(char&)_Val);

	mov	rax, rcx

; 112  : 	}

	ret	0
??$addressof@$$CBUItem@CInifile@@@std@@YAPEBUItem@CInifile@@AEBU12@@Z ENDP ; std::addressof<CInifile::Item const >
; Function compile flags: /Ogtpy
; File c:\program files (x86)\microsoft visual studio 10.0\vc\include\string.h
_TEXT	ENDS
;	COMDAT ??$strcpy_s@$0CAA@@@YAHAEAY0CAA@DPEBD@Z
_TEXT	SEGMENT
_Dest$ = 8
_Source$ = 16
??$strcpy_s@$0CAA@@@YAHAEAY0CAA@DPEBD@Z PROC		; strcpy_s<512>, COMDAT

; 104  : __DEFINE_CPP_OVERLOAD_SECURE_FUNC_0_1(errno_t, strcpy_s, _Deref_post_z_ char, _Dest, _In_z_ const char *, _Source)

	mov	r8, rdx
	mov	edx, 512				; 00000200H
	rex_jmp	QWORD PTR __imp_strcpy_s
??$strcpy_s@$0CAA@@@YAHAEAY0CAA@DPEBD@Z ENDP		; strcpy_s<512>
_TEXT	ENDS
;	COMDAT pdata
; File c:\program files (x86)\microsoft visual studio 10.0\vc\include\vector
pdata	SEGMENT
$pdata$??$lower_bound@V?$_Vector_iterator@V?$_Vector_val@PEAUSect@CInifile@@V?$xalloc@PEAUSect@CInifile@@@@@std@@@std@@$$BY0BAA@DP6A_NPEBUSect@CInifile@@PEBD@Z@std@@YA?AV?$_Vector_iterator@V?$_Vector_val@PEAUSect@CInifile@@V?$xalloc@PEAUSect@CInifile@@@@@std@@@0@V10@0AEAY0BAA@$$CBDP6A_NPEBUSect@CInifile@@PEBD@Z@Z DD imagerel $LN17
	DD	imagerel $LN17+41
	DD	imagerel $unwind$??$lower_bound@V?$_Vector_iterator@V?$_Vector_val@PEAUSect@CInifile@@V?$xalloc@PEAUSect@CInifile@@@@@std@@@std@@$$BY0BAA@DP6A_NPEBUSect@CInifile@@PEBD@Z@std@@YA?AV?$_Vector_iterator@V?$_Vector_val@PEAUSect@CInifile@@V?$xalloc@PEAUSect@CInifile@@@@@std@@@0@V10@0AEAY0BAA@$$CBDP6A_NPEBUSect@CInifile@@PEBD@Z@Z
pdata	ENDS
;	COMDAT xdata
xdata	SEGMENT
$unwind$??$lower_bound@V?$_Vector_iterator@V?$_Vector_val@PEAUSect@CInifile@@V?$xalloc@PEAUSect@CInifile@@@@@std@@@std@@$$BY0BAA@DP6A_NPEBUSect@CInifile@@PEBD@Z@std@@YA?AV?$_Vector_iterator@V?$_Vector_val@PEAUSect@CInifile@@V?$xalloc@PEAUSect@CInifile@@@@@std@@@0@V10@0AEAY0BAA@$$CBDP6A_NPEBUSect@CInifile@@PEBD@Z@Z DD 020601H
	DD	030023206H
; Function compile flags: /Ogtpy
; File c:\program files (x86)\microsoft visual studio 10.0\vc\include\algorithm
xdata	ENDS
;	COMDAT ??$lower_bound@V?$_Vector_iterator@V?$_Vector_val@PEAUSect@CInifile@@V?$xalloc@PEAUSect@CInifile@@@@@std@@@std@@$$BY0BAA@DP6A_NPEBUSect@CInifile@@PEBD@Z@std@@YA?AV?$_Vector_iterator@V?$_Vector_val@PEAUSect@CInifile@@V?$xalloc@PEAUSect@CInifile@@@@@std@@@0@V10@0AEAY0BAA@$$CBDP6A_NPEBUSect@CInifile@@PEBD@Z@Z
_TEXT	SEGMENT
__$ReturnUdt$ = 48
_First$ = 56
_Last$ = 64
_Val$ = 72
??$lower_bound@V?$_Vector_iterator@V?$_Vector_val@PEAUSect@CInifile@@V?$xalloc@PEAUSect@CInifile@@@@@std@@@std@@$$BY0BAA@DP6A_NPEBUSect@CInifile@@PEBD@Z@std@@YA?AV?$_Vector_iterator@V?$_Vector_val@PEAUSect@CInifile@@V?$xalloc@PEAUSect@CInifile@@@@@std@@@0@V10@0AEAY0BAA@$$CBDP6A_NPEBUSect@CInifile@@PEBD@Z@Z PROC ; std::lower_bound<std::_Vector_iterator<std::_Vector_val<CInifile::Sect * __ptr64,xalloc<CInifile::Sect * __ptr64> > >,char [256],bool (__cdecl*)(CInifile::Sect const * __ptr64,char const * __ptr64)>, COMDAT

; 2785 : 	{	// find first element not before _Val, using _Pred

$LN17:
	push	rbx
	sub	rsp, 32					; 00000020H
	mov	r10, r8
	mov	rax, rdx
	mov	rbx, rcx

; 2786 : //	_DEBUG_ORDER_PRED(_First, _Last, _Pred);
; 2787 : 	return (_Rechecked(_First,
; 2788 : 		_Lower_bound(_Unchecked(_First), _Unchecked(_Last), _Val, _Pred,
; 2789 : 			_Dist_type(_First))));

	mov	rdx, r10
	mov	rcx, rax
	mov	r8, r9
	call	??$_Lower_bound@PEAPEAUSect@CInifile@@$$BY0BAA@$$CBD_JP6A_NPEBU12@PEBD@Z@std@@YAPEAPEAUSect@CInifile@@PEAPEAU12@0AEAY0BAA@$$CBDP6A_NPEBU12@PEBD@ZPEA_J@Z ; std::_Lower_bound<CInifile::Sect * __ptr64 * __ptr64,char const [256],__int64,bool (__cdecl*)(CInifile::Sect const * __ptr64,char const * __ptr64)>
	mov	QWORD PTR [rbx], rax
	mov	rax, rbx

; 2790 : 	}

	add	rsp, 32					; 00000020H
	pop	rbx
	ret	0
??$lower_bound@V?$_Vector_iterator@V?$_Vector_val@PEAUSect@CInifile@@V?$xalloc@PEAUSect@CInifile@@@@@std@@@std@@$$BY0BAA@DP6A_NPEBUSect@CInifile@@PEBD@Z@std@@YA?AV?$_Vector_iterator@V?$_Vector_val@PEAUSect@CInifile@@V?$xalloc@PEAUSect@CInifile@@@@@std@@@0@V10@0AEAY0BAA@$$CBDP6A_NPEBUSect@CInifile@@PEBD@Z@Z ENDP ; std::lower_bound<std::_Vector_iterator<std::_Vector_val<CInifile::Sect * __ptr64,xalloc<CInifile::Sect * __ptr64> > >,char [256],bool (__cdecl*)(CInifile::Sect const * __ptr64,char const * __ptr64)>
_TEXT	ENDS
;	COMDAT pdata
; File c:\program files (x86)\microsoft visual studio 10.0\vc\include\vector
pdata	SEGMENT
$pdata$??$lower_bound@V?$_Vector_iterator@V?$_Vector_val@PEAUSect@CInifile@@V?$xalloc@PEAUSect@CInifile@@@@@std@@@std@@PEBDP6A_NPEBUSect@CInifile@@PEBD@Z@std@@YA?AV?$_Vector_iterator@V?$_Vector_val@PEAUSect@CInifile@@V?$xalloc@PEAUSect@CInifile@@@@@std@@@0@V10@0AEBQEBDP6A_NPEBUSect@CInifile@@PEBD@Z@Z DD imagerel $LN17
	DD	imagerel $LN17+41
	DD	imagerel $unwind$??$lower_bound@V?$_Vector_iterator@V?$_Vector_val@PEAUSect@CInifile@@V?$xalloc@PEAUSect@CInifile@@@@@std@@@std@@PEBDP6A_NPEBUSect@CInifile@@PEBD@Z@std@@YA?AV?$_Vector_iterator@V?$_Vector_val@PEAUSect@CInifile@@V?$xalloc@PEAUSect@CInifile@@@@@std@@@0@V10@0AEBQEBDP6A_NPEBUSect@CInifile@@PEBD@Z@Z
pdata	ENDS
;	COMDAT xdata
xdata	SEGMENT
$unwind$??$lower_bound@V?$_Vector_iterator@V?$_Vector_val@PEAUSect@CInifile@@V?$xalloc@PEAUSect@CInifile@@@@@std@@@std@@PEBDP6A_NPEBUSect@CInifile@@PEBD@Z@std@@YA?AV?$_Vector_iterator@V?$_Vector_val@PEAUSect@CInifile@@V?$xalloc@PEAUSect@CInifile@@@@@std@@@0@V10@0AEBQEBDP6A_NPEBUSect@CInifile@@PEBD@Z@Z DD 020601H
	DD	030023206H
; Function compile flags: /Ogtpy
; File c:\program files (x86)\microsoft visual studio 10.0\vc\include\algorithm
xdata	ENDS
;	COMDAT ??$lower_bound@V?$_Vector_iterator@V?$_Vector_val@PEAUSect@CInifile@@V?$xalloc@PEAUSect@CInifile@@@@@std@@@std@@PEBDP6A_NPEBUSect@CInifile@@PEBD@Z@std@@YA?AV?$_Vector_iterator@V?$_Vector_val@PEAUSect@CInifile@@V?$xalloc@PEAUSect@CInifile@@@@@std@@@0@V10@0AEBQEBDP6A_NPEBUSect@CInifile@@PEBD@Z@Z
_TEXT	SEGMENT
__$ReturnUdt$ = 48
_First$ = 56
_Last$ = 64
_Val$ = 72
??$lower_bound@V?$_Vector_iterator@V?$_Vector_val@PEAUSect@CInifile@@V?$xalloc@PEAUSect@CInifile@@@@@std@@@std@@PEBDP6A_NPEBUSect@CInifile@@PEBD@Z@std@@YA?AV?$_Vector_iterator@V?$_Vector_val@PEAUSect@CInifile@@V?$xalloc@PEAUSect@CInifile@@@@@std@@@0@V10@0AEBQEBDP6A_NPEBUSect@CInifile@@PEBD@Z@Z PROC ; std::lower_bound<std::_Vector_iterator<std::_Vector_val<CInifile::Sect * __ptr64,xalloc<CInifile::Sect * __ptr64> > >,char const * __ptr64,bool (__cdecl*)(CInifile::Sect const * __ptr64,char const * __ptr64)>, COMDAT

; 2785 : 	{	// find first element not before _Val, using _Pred

$LN17:
	push	rbx
	sub	rsp, 32					; 00000020H
	mov	r10, r8
	mov	rax, rdx
	mov	rbx, rcx

; 2786 : //	_DEBUG_ORDER_PRED(_First, _Last, _Pred);
; 2787 : 	return (_Rechecked(_First,
; 2788 : 		_Lower_bound(_Unchecked(_First), _Unchecked(_Last), _Val, _Pred,
; 2789 : 			_Dist_type(_First))));

	mov	rdx, r10
	mov	rcx, rax
	mov	r8, r9
	call	??$_Lower_bound@PEAPEAUSect@CInifile@@PEBD_JP6A_NPEBU12@PEBD@Z@std@@YAPEAPEAUSect@CInifile@@PEAPEAU12@0AEBQEBDP6A_NPEBU12@PEBD@ZPEA_J@Z ; std::_Lower_bound<CInifile::Sect * __ptr64 * __ptr64,char const * __ptr64,__int64,bool (__cdecl*)(CInifile::Sect const * __ptr64,char const * __ptr64)>
	mov	QWORD PTR [rbx], rax
	mov	rax, rbx

; 2790 : 	}

	add	rsp, 32					; 00000020H
	pop	rbx
	ret	0
??$lower_bound@V?$_Vector_iterator@V?$_Vector_val@PEAUSect@CInifile@@V?$xalloc@PEAUSect@CInifile@@@@@std@@@std@@PEBDP6A_NPEBUSect@CInifile@@PEBD@Z@std@@YA?AV?$_Vector_iterator@V?$_Vector_val@PEAUSect@CInifile@@V?$xalloc@PEAUSect@CInifile@@@@@std@@@0@V10@0AEBQEBDP6A_NPEBUSect@CInifile@@PEBD@Z@Z ENDP ; std::lower_bound<std::_Vector_iterator<std::_Vector_val<CInifile::Sect * __ptr64,xalloc<CInifile::Sect * __ptr64> > >,char const * __ptr64,bool (__cdecl*)(CInifile::Sect const * __ptr64,char const * __ptr64)>
_TEXT	ENDS
;	COMDAT pdata
; File c:\program files (x86)\microsoft visual studio 10.0\vc\include\vector
pdata	SEGMENT
$pdata$??$lower_bound@V?$_Vector_iterator@V?$_Vector_val@UItem@CInifile@@V?$xalloc@UItem@CInifile@@@@@std@@@std@@PEBDP6A_NAEBUItem@CInifile@@PEBD@Z@std@@YA?AV?$_Vector_iterator@V?$_Vector_val@UItem@CInifile@@V?$xalloc@UItem@CInifile@@@@@std@@@0@V10@0AEBQEBDP6A_NAEBUItem@CInifile@@PEBD@Z@Z DD imagerel $LN17
	DD	imagerel $LN17+41
	DD	imagerel $unwind$??$lower_bound@V?$_Vector_iterator@V?$_Vector_val@UItem@CInifile@@V?$xalloc@UItem@CInifile@@@@@std@@@std@@PEBDP6A_NAEBUItem@CInifile@@PEBD@Z@std@@YA?AV?$_Vector_iterator@V?$_Vector_val@UItem@CInifile@@V?$xalloc@UItem@CInifile@@@@@std@@@0@V10@0AEBQEBDP6A_NAEBUItem@CInifile@@PEBD@Z@Z
pdata	ENDS
;	COMDAT xdata
xdata	SEGMENT
$unwind$??$lower_bound@V?$_Vector_iterator@V?$_Vector_val@UItem@CInifile@@V?$xalloc@UItem@CInifile@@@@@std@@@std@@PEBDP6A_NAEBUItem@CInifile@@PEBD@Z@std@@YA?AV?$_Vector_iterator@V?$_Vector_val@UItem@CInifile@@V?$xalloc@UItem@CInifile@@@@@std@@@0@V10@0AEBQEBDP6A_NAEBUItem@CInifile@@PEBD@Z@Z DD 020601H
	DD	030023206H
; Function compile flags: /Ogtpy
; File c:\program files (x86)\microsoft visual studio 10.0\vc\include\algorithm
xdata	ENDS
;	COMDAT ??$lower_bound@V?$_Vector_iterator@V?$_Vector_val@UItem@CInifile@@V?$xalloc@UItem@CInifile@@@@@std@@@std@@PEBDP6A_NAEBUItem@CInifile@@PEBD@Z@std@@YA?AV?$_Vector_iterator@V?$_Vector_val@UItem@CInifile@@V?$xalloc@UItem@CInifile@@@@@std@@@0@V10@0AEBQEBDP6A_NAEBUItem@CInifile@@PEBD@Z@Z
_TEXT	SEGMENT
__$ReturnUdt$ = 48
_First$ = 56
_Last$ = 64
_Val$ = 72
??$lower_bound@V?$_Vector_iterator@V?$_Vector_val@UItem@CInifile@@V?$xalloc@UItem@CInifile@@@@@std@@@std@@PEBDP6A_NAEBUItem@CInifile@@PEBD@Z@std@@YA?AV?$_Vector_iterator@V?$_Vector_val@UItem@CInifile@@V?$xalloc@UItem@CInifile@@@@@std@@@0@V10@0AEBQEBDP6A_NAEBUItem@CInifile@@PEBD@Z@Z PROC ; std::lower_bound<std::_Vector_iterator<std::_Vector_val<CInifile::Item,xalloc<CInifile::Item> > >,char const * __ptr64,bool (__cdecl*)(CInifile::Item const & __ptr64,char const * __ptr64)>, COMDAT

; 2785 : 	{	// find first element not before _Val, using _Pred

$LN17:
	push	rbx
	sub	rsp, 32					; 00000020H
	mov	r10, r8
	mov	rax, rdx
	mov	rbx, rcx

; 2786 : //	_DEBUG_ORDER_PRED(_First, _Last, _Pred);
; 2787 : 	return (_Rechecked(_First,
; 2788 : 		_Lower_bound(_Unchecked(_First), _Unchecked(_Last), _Val, _Pred,
; 2789 : 			_Dist_type(_First))));

	mov	rdx, r10
	mov	rcx, rax
	mov	r8, r9
	call	??$_Lower_bound@PEAUItem@CInifile@@PEBD_JP6A_NAEBU12@PEBD@Z@std@@YAPEAUItem@CInifile@@PEAU12@0AEBQEBDP6A_NAEBU12@PEBD@ZPEA_J@Z ; std::_Lower_bound<CInifile::Item * __ptr64,char const * __ptr64,__int64,bool (__cdecl*)(CInifile::Item const & __ptr64,char const * __ptr64)>
	mov	QWORD PTR [rbx], rax
	mov	rax, rbx

; 2790 : 	}

	add	rsp, 32					; 00000020H
	pop	rbx
	ret	0
??$lower_bound@V?$_Vector_iterator@V?$_Vector_val@UItem@CInifile@@V?$xalloc@UItem@CInifile@@@@@std@@@std@@PEBDP6A_NAEBUItem@CInifile@@PEBD@Z@std@@YA?AV?$_Vector_iterator@V?$_Vector_val@UItem@CInifile@@V?$xalloc@UItem@CInifile@@@@@std@@@0@V10@0AEBQEBDP6A_NAEBUItem@CInifile@@PEBD@Z@Z ENDP ; std::lower_bound<std::_Vector_iterator<std::_Vector_val<CInifile::Item,xalloc<CInifile::Item> > >,char const * __ptr64,bool (__cdecl*)(CInifile::Item const & __ptr64,char const * __ptr64)>
; Function compile flags: /Ogtpy
; File c:\program files (x86)\microsoft visual studio 10.0\vc\include\vector
_TEXT	ENDS
;	COMDAT ??Y?$_Vector_const_iterator@V?$_Vector_val@UItem@CInifile@@V?$xalloc@UItem@CInifile@@@@@std@@@std@@QEAAAEAV01@_J@Z
_TEXT	SEGMENT
this$ = 8
_Off$ = 16
??Y?$_Vector_const_iterator@V?$_Vector_val@UItem@CInifile@@V?$xalloc@UItem@CInifile@@@@@std@@@std@@QEAAAEAV01@_J@Z PROC ; std::_Vector_const_iterator<std::_Vector_val<CInifile::Item,xalloc<CInifile::Item> > >::operator+=, COMDAT

; 152  :  #if _ITERATOR_DEBUG_LEVEL == 2
; 153  : 		if (this->_Getcont() == 0
; 154  : 			|| this->_Ptr + _Off < ((_Myvec *)this->_Getcont())->_Myfirst
; 155  : 			|| ((_Myvec *)this->_Getcont())->_Mylast < this->_Ptr + _Off)
; 156  : 			{	// report error
; 157  : 			_DEBUG_ERROR("vector iterator + offset out of range");
; 158  : 			_SCL_SECURE_OUT_OF_RANGE;
; 159  : 			}
; 160  : 
; 161  :  #elif _ITERATOR_DEBUG_LEVEL == 1
; 162  : 		_SCL_SECURE_VALIDATE(this->_Getcont() != 0);
; 163  : 		_SCL_SECURE_VALIDATE_RANGE(
; 164  : 			((_Myvec *)this->_Getcont())->_Myfirst <= this->_Ptr + _Off
; 165  : 			&& this->_Ptr + _Off <= ((_Myvec *)this->_Getcont())->_Mylast);
; 166  :  #endif /* _ITERATOR_DEBUG_LEVEL */
; 167  : 
; 168  : 		_Ptr += _Off;

	shl	rdx, 4

; 169  : 		return (*this);

	mov	rax, rcx
	add	QWORD PTR [rcx], rdx

; 170  : 		}

	ret	0
??Y?$_Vector_const_iterator@V?$_Vector_val@UItem@CInifile@@V?$xalloc@UItem@CInifile@@@@@std@@@std@@QEAAAEAV01@_J@Z ENDP ; std::_Vector_const_iterator<std::_Vector_val<CInifile::Item,xalloc<CInifile::Item> > >::operator+=
; Function compile flags: /Ogtpy
_TEXT	ENDS
;	COMDAT ??Y?$_Vector_iterator@V?$_Vector_val@UItem@CInifile@@V?$xalloc@UItem@CInifile@@@@@std@@@std@@QEAAAEAV01@_J@Z
_TEXT	SEGMENT
this$ = 8
_Off$ = 16
??Y?$_Vector_iterator@V?$_Vector_val@UItem@CInifile@@V?$xalloc@UItem@CInifile@@@@@std@@@std@@QEAAAEAV01@_J@Z PROC ; std::_Vector_iterator<std::_Vector_val<CInifile::Item,xalloc<CInifile::Item> > >::operator+=, COMDAT

; 358  : 		*(_Mybase *)this += _Off;

	shl	rdx, 4

; 359  : 		return (*this);

	mov	rax, rcx
	add	QWORD PTR [rcx], rdx

; 360  : 		}

	ret	0
??Y?$_Vector_iterator@V?$_Vector_val@UItem@CInifile@@V?$xalloc@UItem@CInifile@@@@@std@@@std@@QEAAAEAV01@_J@Z ENDP ; std::_Vector_iterator<std::_Vector_val<CInifile::Item,xalloc<CInifile::Item> > >::operator+=
; Function compile flags: /Ogtpy
; File c:\users\nummer\documents\github\olr-3.0\src\xray\xrcore\_stl_extensions.h
_TEXT	ENDS
;	COMDAT ??0?$xalloc@PEAUSect@CInifile@@@@QEAA@XZ
_TEXT	SEGMENT
this$ = 8
??0?$xalloc@PEAUSect@CInifile@@@@QEAA@XZ PROC		; xalloc<CInifile::Sect * __ptr64>::xalloc<CInifile::Sect * __ptr64>, COMDAT

; 76   : 													xalloc			()										{	}

	mov	rax, rcx
	ret	0
??0?$xalloc@PEAUSect@CInifile@@@@QEAA@XZ ENDP		; xalloc<CInifile::Sect * __ptr64>::xalloc<CInifile::Sect * __ptr64>
; Function compile flags: /Ogtpy
; File c:\program files (x86)\microsoft visual studio 10.0\vc\include\vector
_TEXT	ENDS
;	COMDAT ?_Orphan_range@?$vector@UItem@CInifile@@V?$xalloc@UItem@CInifile@@@@@std@@IEBAXPEAUItem@CInifile@@0@Z
_TEXT	SEGMENT
?_Orphan_range@?$vector@UItem@CInifile@@V?$xalloc@UItem@CInifile@@@@@std@@IEBAXPEAUItem@CInifile@@0@Z PROC ; std::vector<CInifile::Item,xalloc<CInifile::Item> >::_Orphan_range, COMDAT

; 1454 : 		}

	ret	0
?_Orphan_range@?$vector@UItem@CInifile@@V?$xalloc@UItem@CInifile@@@@@std@@IEBAXPEAUItem@CInifile@@0@Z ENDP ; std::vector<CInifile::Item,xalloc<CInifile::Item> >::_Orphan_range
; Function compile flags: /Ogtpy
_TEXT	ENDS
;	COMDAT ??H?$_Vector_iterator@V?$_Vector_val@UItem@CInifile@@V?$xalloc@UItem@CInifile@@@@@std@@@std@@QEBA?AV01@_J@Z
_TEXT	SEGMENT
this$ = 8
__$ReturnUdt$ = 16
_Off$ = 24
??H?$_Vector_iterator@V?$_Vector_val@UItem@CInifile@@V?$xalloc@UItem@CInifile@@@@@std@@@std@@QEBA?AV01@_J@Z PROC ; std::_Vector_iterator<std::_Vector_val<CInifile::Item,xalloc<CInifile::Item> > >::operator+, COMDAT

; 364  : 		_Myiter _Tmp = *this;
; 365  : 		return (_Tmp += _Off);

	shl	r8, 4
	mov	rax, rdx
	add	r8, QWORD PTR [rcx]
	mov	QWORD PTR [rdx], r8

; 366  : 		}

	ret	0
??H?$_Vector_iterator@V?$_Vector_val@UItem@CInifile@@V?$xalloc@UItem@CInifile@@@@@std@@@std@@QEBA?AV01@_J@Z ENDP ; std::_Vector_iterator<std::_Vector_val<CInifile::Item,xalloc<CInifile::Item> > >::operator+
_TEXT	ENDS
PUBLIC	?_decorate@@YAXPEADPEBD@Z			; _decorate
; Function compile flags: /Ogtpy
; File c:\users\nummer\documents\github\olr-3.0\src\xray\xrcore\xr_ini.cpp
_TEXT	SEGMENT
dest$ = 8
src$ = 16
?_decorate@@YAXPEADPEBD@Z PROC				; _decorate

; 48   : 	if (src) {

	test	rdx, rdx
	je	SHORT $LN15@decorate

; 49   : 		BOOL bInsideSTR = false;
; 50   : 		while (*src) {

	movzx	r8d, BYTE PTR [rdx]
	xor	r9d, r9d
	test	r8b, r8b
	je	SHORT $LN14@decorate
$LL7@decorate:

; 51   : 			if (*src == ',') {

	cmp	r8b, 44					; 0000002cH
	jne	SHORT $LN5@decorate

; 52   : 				if (bInsideSTR) { *dest++ = *src++; }

	test	r9d, r9d
	je	SHORT $LN4@decorate
	mov	BYTE PTR [rcx], r8b
	jmp	SHORT $LN16@decorate
$LN4@decorate:

; 53   : 				else			{ *dest++ = *src++; *dest++ = ' '; }

	inc	rdx
	mov	WORD PTR [rcx], 8236			; 0000202cH
	add	rcx, 2

; 54   : 				continue;

	jmp	SHORT $LN13@decorate
$LN5@decorate:

; 55   : 			} else if (*src=='"') {

	cmp	r8b, 34					; 00000022H
	jne	SHORT $LN1@decorate

; 56   : 				bInsideSTR = !bInsideSTR;

	xor	eax, eax
	test	r9d, r9d
	sete	al
	mov	r9d, eax
$LN1@decorate:

; 57   : 			}
; 58   : 			*dest++ = *src++;

	mov	BYTE PTR [rcx], r8b
$LN16@decorate:
	inc	rcx
	inc	rdx
$LN13@decorate:

; 49   : 		BOOL bInsideSTR = false;
; 50   : 		while (*src) {

	movzx	r8d, BYTE PTR [rdx]
	test	r8b, r8b
	jne	SHORT $LL7@decorate
$LN15@decorate:

; 59   : 		}
; 60   : 	}
; 61   : 	*dest = 0;

	mov	BYTE PTR [rcx], 0

; 62   : }

	ret	0
$LN14@decorate:

; 59   : 		}
; 60   : 	}
; 61   : 	*dest = 0;

	mov	BYTE PTR [rcx], r9b

; 62   : }

	ret	0
?_decorate@@YAXPEADPEBD@Z ENDP				; _decorate
_TEXT	ENDS
PUBLIC	?_parse@@YAXPEADPEBD@Z				; _parse
pdata	SEGMENT
$pdata$?_parse@@YAXPEADPEBD@Z DD imagerel $LN27
	DD	imagerel $LN27+28
	DD	imagerel $unwind$?_parse@@YAXPEADPEBD@Z
$pdata$0$?_parse@@YAXPEADPEBD@Z DD imagerel $LN27+28
	DD	imagerel $LN27+109
	DD	imagerel $chain$0$?_parse@@YAXPEADPEBD@Z
$pdata$2$?_parse@@YAXPEADPEBD@Z DD imagerel $LN27+109
	DD	imagerel $LN27+160
	DD	imagerel $chain$2$?_parse@@YAXPEADPEBD@Z
$pdata$4$?_parse@@YAXPEADPEBD@Z DD imagerel $LN27+160
	DD	imagerel $LN27+179
	DD	imagerel $chain$4$?_parse@@YAXPEADPEBD@Z
$pdata$5$?_parse@@YAXPEADPEBD@Z DD imagerel $LN27+179
	DD	imagerel $LN27+193
	DD	imagerel $chain$5$?_parse@@YAXPEADPEBD@Z
pdata	ENDS
xdata	SEGMENT
$unwind$?_parse@@YAXPEADPEBD@Z DD 040a01H
	DD	07340aH
	DD	07006320aH
$chain$0$?_parse@@YAXPEADPEBD@Z DD 020521H
	DD	066405H
	DD	imagerel $LN27
	DD	imagerel $LN27+28
	DD	imagerel $unwind$?_parse@@YAXPEADPEBD@Z
$chain$2$?_parse@@YAXPEADPEBD@Z DD 020021H
	DD	066400H
	DD	imagerel $LN27
	DD	imagerel $LN27+28
	DD	imagerel $unwind$?_parse@@YAXPEADPEBD@Z
$chain$4$?_parse@@YAXPEADPEBD@Z DD 020021H
	DD	066400H
	DD	imagerel $LN27
	DD	imagerel $LN27+28
	DD	imagerel $unwind$?_parse@@YAXPEADPEBD@Z
$chain$5$?_parse@@YAXPEADPEBD@Z DD 021H
	DD	imagerel $LN27
	DD	imagerel $LN27+28
	DD	imagerel $unwind$?_parse@@YAXPEADPEBD@Z
; Function compile flags: /Ogtpy
xdata	ENDS
_TEXT	SEGMENT
dest$ = 48
src$ = 56
?_parse@@YAXPEADPEBD@Z PROC				; _parse

; 29   : {

$LN27:
	mov	QWORD PTR [rsp+16], rbx
	push	rdi
	sub	rsp, 32					; 00000020H
	mov	rbx, rdx
	mov	rdi, rcx

; 30   : 	if (src) {

	test	rdx, rdx
	je	$LN23@parse

; 31   : 		BOOL bInsideSTR = false;
; 32   : 		while (*src) {

	movzx	eax, BYTE PTR [rdx]
	mov	QWORD PTR [rsp+48], rsi
	xor	esi, esi
	test	al, al
	je	SHORT $LN22@parse
$LL8@parse:

; 33   : 			if (isspace((u8)*src)) {

	movzx	ecx, al
	call	QWORD PTR __imp_isspace
	test	eax, eax
	je	SHORT $LN6@parse

; 34   : 				if (bInsideSTR) { *dest++ = *src++; continue; }

	movzx	eax, BYTE PTR [rbx]
	test	esi, esi
	je	SHORT $LN15@parse
	mov	BYTE PTR [rdi], al
	jmp	SHORT $LN26@parse
$LN15@parse:

; 35   : 				while (*src && isspace(*src)) src++;

	test	al, al
	je	SHORT $LN24@parse
$LL4@parse:
	movsx	ecx, al
	call	QWORD PTR __imp_isspace
	test	eax, eax
	je	SHORT $LN17@parse
	movzx	eax, BYTE PTR [rbx+1]
	inc	rbx
	test	al, al
	jne	SHORT $LL4@parse

; 41   : 		}
; 42   : 	}
; 43   : 	*dest = 0;

	mov	BYTE PTR [rdi], al
	mov	rsi, QWORD PTR [rsp+48]

; 44   : }

	mov	rbx, QWORD PTR [rsp+56]
	add	rsp, 32					; 00000020H
	pop	rdi
	ret	0
$LN6@parse:

; 36   : 				continue;
; 37   : 			} else if (*src=='"') {

	movzx	ecx, BYTE PTR [rbx]
	cmp	cl, 34					; 00000022H
	jne	SHORT $LN1@parse

; 38   : 				bInsideSTR = !bInsideSTR;

	xor	eax, eax
	test	esi, esi
	sete	al
	mov	esi, eax
$LN1@parse:

; 39   : 			}
; 40   : 			*dest++ = *src++;

	mov	BYTE PTR [rdi], cl
$LN26@parse:
	inc	rdi
	inc	rbx
$LN17@parse:

; 31   : 		BOOL bInsideSTR = false;
; 32   : 		while (*src) {

	movzx	eax, BYTE PTR [rbx]
	test	al, al
	jne	SHORT $LL8@parse
$LN24@parse:

; 41   : 		}
; 42   : 	}
; 43   : 	*dest = 0;

	mov	BYTE PTR [rdi], 0
	mov	rsi, QWORD PTR [rsp+48]

; 44   : }

	mov	rbx, QWORD PTR [rsp+56]
	add	rsp, 32					; 00000020H
	pop	rdi
	ret	0
$LN22@parse:

; 41   : 		}
; 42   : 	}
; 43   : 	*dest = 0;

	mov	BYTE PTR [rcx], sil
	mov	rsi, QWORD PTR [rsp+48]

; 44   : }

	mov	rbx, QWORD PTR [rsp+56]
	add	rsp, 32					; 00000020H
	pop	rdi
	ret	0
$LN23@parse:

; 41   : 		}
; 42   : 	}
; 43   : 	*dest = 0;

	mov	BYTE PTR [rcx], 0

; 44   : }

	mov	rbx, QWORD PTR [rsp+56]
	add	rsp, 32					; 00000020H
	pop	rdi
	ret	0
?_parse@@YAXPEADPEBD@Z ENDP				; _parse
; Function compile flags: /Ogtpy
; File c:\users\nummer\documents\github\olr-3.0\src\xray\xrcore\xrstring.h
;	COMDAT ??M@YA_NAEBVshared_str@@0@Z
_TEXT	SEGMENT
a$ = 8
b$ = 16
??M@YA_NAEBVshared_str@@0@Z PROC			; operator<, COMDAT

; 95   : IC bool operator	<	(shared_str const & a, shared_str const & b)		{ return a._get() <  b._get();					}

	mov	rdx, QWORD PTR [rdx]
	cmp	QWORD PTR [rcx], rdx
	setb	al
	ret	0
??M@YA_NAEBVshared_str@@0@Z ENDP			; operator<
; Function compile flags: /Ogtpy
; File c:\users\nummer\documents\github\olr-3.0\src\xray\xrcore\_color.h
_TEXT	ENDS
;	COMDAT ?color_rgba@@YAIIIII@Z
_TEXT	SEGMENT
r$ = 8
g$ = 16
b$ = 24
a$ = 32
?color_rgba@@YAIIIII@Z PROC				; color_rgba, COMDAT

; 6    : ICF u32	color_rgba	(u32 r, u32 g, u32 b, u32 a)	{	return color_argb(a,r,g,b);		}

	movzx	eax, cl
	movzx	ecx, dl
	shl	r9d, 8
	or	eax, r9d
	shl	eax, 8
	or	eax, ecx
	movzx	ecx, r8b
	shl	eax, 8
	or	eax, ecx
	ret	0
?color_rgba@@YAIIIII@Z ENDP				; color_rgba
; Function compile flags: /Ogtpy
; File c:\program files (x86)\microsoft visual studio 10.0\vc\include\vector
_TEXT	ENDS
;	COMDAT ??G?$_Vector_const_iterator@V?$_Vector_val@PEAUSect@CInifile@@V?$xalloc@PEAUSect@CInifile@@@@@std@@@std@@QEBA_JAEBV01@@Z
_TEXT	SEGMENT
this$ = 8
_Right$ = 16
??G?$_Vector_const_iterator@V?$_Vector_val@PEAUSect@CInifile@@V?$xalloc@PEAUSect@CInifile@@@@@std@@@std@@QEBA_JAEBV01@@Z PROC ; std::_Vector_const_iterator<std::_Vector_val<CInifile::Sect * __ptr64,xalloc<CInifile::Sect * __ptr64> > >::operator-, COMDAT

; 191  : 		_Compat(_Right);
; 192  : 		return (this->_Ptr - _Right._Ptr);

	mov	rax, QWORD PTR [rcx]
	sub	rax, QWORD PTR [rdx]
	sar	rax, 3

; 193  : 		}

	ret	0
??G?$_Vector_const_iterator@V?$_Vector_val@PEAUSect@CInifile@@V?$xalloc@PEAUSect@CInifile@@@@@std@@@std@@QEBA_JAEBV01@@Z ENDP ; std::_Vector_const_iterator<std::_Vector_val<CInifile::Sect * __ptr64,xalloc<CInifile::Sect * __ptr64> > >::operator-
; Function compile flags: /Ogtpy
_TEXT	ENDS
;	COMDAT ??G?$_Vector_iterator@V?$_Vector_val@PEAUSect@CInifile@@V?$xalloc@PEAUSect@CInifile@@@@@std@@@std@@QEBA_JAEBV?$_Vector_const_iterator@V?$_Vector_val@PEAUSect@CInifile@@V?$xalloc@PEAUSect@CInifile@@@@@std@@@1@@Z
_TEXT	SEGMENT
this$ = 8
_Right$ = 16
??G?$_Vector_iterator@V?$_Vector_val@PEAUSect@CInifile@@V?$xalloc@PEAUSect@CInifile@@@@@std@@@std@@QEBA_JAEBV?$_Vector_const_iterator@V?$_Vector_val@PEAUSect@CInifile@@V?$xalloc@PEAUSect@CInifile@@@@@std@@@1@@Z PROC ; std::_Vector_iterator<std::_Vector_val<CInifile::Sect * __ptr64,xalloc<CInifile::Sect * __ptr64> > >::operator-, COMDAT

; 381  : 		return (*(_Mybase *)this - _Right);

	mov	rax, QWORD PTR [rcx]
	sub	rax, QWORD PTR [rdx]
	sar	rax, 3

; 382  : 		}

	ret	0
??G?$_Vector_iterator@V?$_Vector_val@PEAUSect@CInifile@@V?$xalloc@PEAUSect@CInifile@@@@@std@@@std@@QEBA_JAEBV?$_Vector_const_iterator@V?$_Vector_val@PEAUSect@CInifile@@V?$xalloc@PEAUSect@CInifile@@@@@std@@@1@@Z ENDP ; std::_Vector_iterator<std::_Vector_val<CInifile::Sect * __ptr64,xalloc<CInifile::Sect * __ptr64> > >::operator-
; Function compile flags: /Ogtpy
; File c:\program files (x86)\microsoft visual studio 10.0\vc\include\xutility
_TEXT	ENDS
;	COMDAT ??$_Advance@V?$_Vector_iterator@V?$_Vector_val@UItem@CInifile@@V?$xalloc@UItem@CInifile@@@@@std@@@std@@_J@std@@YAXAEAV?$_Vector_iterator@V?$_Vector_val@UItem@CInifile@@V?$xalloc@UItem@CInifile@@@@@std@@@0@_JUrandom_access_iterator_tag@0@@Z
_TEXT	SEGMENT
_Where$ = 8
_Off$ = 16
??$_Advance@V?$_Vector_iterator@V?$_Vector_val@UItem@CInifile@@V?$xalloc@UItem@CInifile@@@@@std@@@std@@_J@std@@YAXAEAV?$_Vector_iterator@V?$_Vector_val@UItem@CInifile@@V?$xalloc@UItem@CInifile@@@@@std@@@0@_JUrandom_access_iterator_tag@0@@Z PROC ; std::_Advance<std::_Vector_iterator<std::_Vector_val<CInifile::Item,xalloc<CInifile::Item> > >,__int64>, COMDAT

; 841  : 	_Where += _Off;

	shl	rdx, 4
	add	QWORD PTR [rcx], rdx

; 842  : 	}

	ret	0
??$_Advance@V?$_Vector_iterator@V?$_Vector_val@UItem@CInifile@@V?$xalloc@UItem@CInifile@@@@@std@@@std@@_J@std@@YAXAEAV?$_Vector_iterator@V?$_Vector_val@UItem@CInifile@@V?$xalloc@UItem@CInifile@@@@@std@@@0@_JUrandom_access_iterator_tag@0@@Z ENDP ; std::_Advance<std::_Vector_iterator<std::_Vector_val<CInifile::Item,xalloc<CInifile::Item> > >,__int64>
; Function compile flags: /Ogtpy
_TEXT	ENDS
;	COMDAT ??$_Advance@V?$_Vector_iterator@V?$_Vector_val@PEAUSect@CInifile@@V?$xalloc@PEAUSect@CInifile@@@@@std@@@std@@_J@std@@YAXAEAV?$_Vector_iterator@V?$_Vector_val@PEAUSect@CInifile@@V?$xalloc@PEAUSect@CInifile@@@@@std@@@0@_JUrandom_access_iterator_tag@0@@Z
_TEXT	SEGMENT
_Where$ = 8
_Off$ = 16
??$_Advance@V?$_Vector_iterator@V?$_Vector_val@PEAUSect@CInifile@@V?$xalloc@PEAUSect@CInifile@@@@@std@@@std@@_J@std@@YAXAEAV?$_Vector_iterator@V?$_Vector_val@PEAUSect@CInifile@@V?$xalloc@PEAUSect@CInifile@@@@@std@@@0@_JUrandom_access_iterator_tag@0@@Z PROC ; std::_Advance<std::_Vector_iterator<std::_Vector_val<CInifile::Sect * __ptr64,xalloc<CInifile::Sect * __ptr64> > >,__int64>, COMDAT

; 841  : 	_Where += _Off;

	lea	rax, QWORD PTR [rdx*8]
	add	QWORD PTR [rcx], rax

; 842  : 	}

	ret	0
??$_Advance@V?$_Vector_iterator@V?$_Vector_val@PEAUSect@CInifile@@V?$xalloc@PEAUSect@CInifile@@@@@std@@@std@@_J@std@@YAXAEAV?$_Vector_iterator@V?$_Vector_val@PEAUSect@CInifile@@V?$xalloc@PEAUSect@CInifile@@@@@std@@@0@_JUrandom_access_iterator_tag@0@@Z ENDP ; std::_Advance<std::_Vector_iterator<std::_Vector_val<CInifile::Sect * __ptr64,xalloc<CInifile::Sect * __ptr64> > >,__int64>
; Function compile flags: /Ogtpy
_TEXT	ENDS
;	COMDAT ??$_Distance2@V?$_Vector_iterator@V?$_Vector_val@PEAUSect@CInifile@@V?$xalloc@PEAUSect@CInifile@@@@@std@@@std@@_J@std@@YAXV?$_Vector_iterator@V?$_Vector_val@PEAUSect@CInifile@@V?$xalloc@PEAUSect@CInifile@@@@@std@@@0@0AEA_JUrandom_access_iterator_tag@0@@Z
_TEXT	SEGMENT
_First$ = 8
_Last$ = 16
_Off$ = 24
??$_Distance2@V?$_Vector_iterator@V?$_Vector_val@PEAUSect@CInifile@@V?$xalloc@PEAUSect@CInifile@@@@@std@@@std@@_J@std@@YAXV?$_Vector_iterator@V?$_Vector_val@PEAUSect@CInifile@@V?$xalloc@PEAUSect@CInifile@@@@@std@@@0@0AEA_JUrandom_access_iterator_tag@0@@Z PROC ; std::_Distance2<std::_Vector_iterator<std::_Vector_val<CInifile::Sect * __ptr64,xalloc<CInifile::Sect * __ptr64> > >,__int64>, COMDAT

; 886  :  #if _ITERATOR_DEBUG_LEVEL == 2
; 887  : 	if (_First != _Last)
; 888  : 		{	// check for null pointers
; 889  : 		_DEBUG_POINTER(_First);
; 890  : 		_DEBUG_POINTER(_Last);
; 891  : 		}
; 892  :  #endif /* _ITERATOR_DEBUG_LEVEL == 2 */
; 893  : 
; 894  : 	_Off += _Last - _First;

	sub	rdx, rcx
	sar	rdx, 3
	add	QWORD PTR [r8], rdx

; 895  : 	}

	ret	0
??$_Distance2@V?$_Vector_iterator@V?$_Vector_val@PEAUSect@CInifile@@V?$xalloc@PEAUSect@CInifile@@@@@std@@@std@@_J@std@@YAXV?$_Vector_iterator@V?$_Vector_val@PEAUSect@CInifile@@V?$xalloc@PEAUSect@CInifile@@@@@std@@@0@0AEA_JUrandom_access_iterator_tag@0@@Z ENDP ; std::_Distance2<std::_Vector_iterator<std::_Vector_val<CInifile::Sect * __ptr64,xalloc<CInifile::Sect * __ptr64> > >,__int64>
; Function compile flags: /Ogtpy
_TEXT	ENDS
;	COMDAT ??$advance@V?$_Vector_iterator@V?$_Vector_val@UItem@CInifile@@V?$xalloc@UItem@CInifile@@@@@std@@@std@@_J@std@@YAXAEAV?$_Vector_iterator@V?$_Vector_val@UItem@CInifile@@V?$xalloc@UItem@CInifile@@@@@std@@@0@_J@Z
_TEXT	SEGMENT
_Where$ = 8
_Off$ = 16
??$advance@V?$_Vector_iterator@V?$_Vector_val@UItem@CInifile@@V?$xalloc@UItem@CInifile@@@@@std@@@std@@_J@std@@YAXAEAV?$_Vector_iterator@V?$_Vector_val@UItem@CInifile@@V?$xalloc@UItem@CInifile@@@@@std@@@0@_J@Z PROC ; std::advance<std::_Vector_iterator<std::_Vector_val<CInifile::Item,xalloc<CInifile::Item> > >,__int64>, COMDAT

; 798  : 	_Advance(_Where, _Off, _Iter_cat(_Where));

	shl	rdx, 4
	add	QWORD PTR [rcx], rdx

; 799  : 	}

	ret	0
??$advance@V?$_Vector_iterator@V?$_Vector_val@UItem@CInifile@@V?$xalloc@UItem@CInifile@@@@@std@@@std@@_J@std@@YAXAEAV?$_Vector_iterator@V?$_Vector_val@UItem@CInifile@@V?$xalloc@UItem@CInifile@@@@@std@@@0@_J@Z ENDP ; std::advance<std::_Vector_iterator<std::_Vector_val<CInifile::Item,xalloc<CInifile::Item> > >,__int64>
; Function compile flags: /Ogtpy
_TEXT	ENDS
;	COMDAT ??$advance@V?$_Vector_iterator@V?$_Vector_val@PEAUSect@CInifile@@V?$xalloc@PEAUSect@CInifile@@@@@std@@@std@@_J@std@@YAXAEAV?$_Vector_iterator@V?$_Vector_val@PEAUSect@CInifile@@V?$xalloc@PEAUSect@CInifile@@@@@std@@@0@_J@Z
_TEXT	SEGMENT
_Where$ = 8
_Off$ = 16
??$advance@V?$_Vector_iterator@V?$_Vector_val@PEAUSect@CInifile@@V?$xalloc@PEAUSect@CInifile@@@@@std@@@std@@_J@std@@YAXAEAV?$_Vector_iterator@V?$_Vector_val@PEAUSect@CInifile@@V?$xalloc@PEAUSect@CInifile@@@@@std@@@0@_J@Z PROC ; std::advance<std::_Vector_iterator<std::_Vector_val<CInifile::Sect * __ptr64,xalloc<CInifile::Sect * __ptr64> > >,__int64>, COMDAT

; 798  : 	_Advance(_Where, _Off, _Iter_cat(_Where));

	lea	rax, QWORD PTR [rdx*8]
	add	QWORD PTR [rcx], rax

; 799  : 	}

	ret	0
??$advance@V?$_Vector_iterator@V?$_Vector_val@PEAUSect@CInifile@@V?$xalloc@PEAUSect@CInifile@@@@@std@@@std@@_J@std@@YAXAEAV?$_Vector_iterator@V?$_Vector_val@PEAUSect@CInifile@@V?$xalloc@PEAUSect@CInifile@@@@@std@@@0@_J@Z ENDP ; std::advance<std::_Vector_iterator<std::_Vector_val<CInifile::Sect * __ptr64,xalloc<CInifile::Sect * __ptr64> > >,__int64>
; Function compile flags: /Ogtpy
_TEXT	ENDS
;	COMDAT ??$distance@V?$_Vector_iterator@V?$_Vector_val@PEAUSect@CInifile@@V?$xalloc@PEAUSect@CInifile@@@@@std@@@std@@@std@@YA_JV?$_Vector_iterator@V?$_Vector_val@PEAUSect@CInifile@@V?$xalloc@PEAUSect@CInifile@@@@@std@@@0@0@Z
_TEXT	SEGMENT
_First$ = 8
_Last$ = 16
??$distance@V?$_Vector_iterator@V?$_Vector_val@PEAUSect@CInifile@@V?$xalloc@PEAUSect@CInifile@@@@@std@@@std@@@std@@YA_JV?$_Vector_iterator@V?$_Vector_val@PEAUSect@CInifile@@V?$xalloc@PEAUSect@CInifile@@@@@std@@@0@0@Z PROC ; std::distance<std::_Vector_iterator<std::_Vector_val<CInifile::Sect * __ptr64,xalloc<CInifile::Sect * __ptr64> > > >, COMDAT

; 901  : 	typename iterator_traits<_InIt>::difference_type _Off = 0;
; 902  : 	_Distance2(_First, _Last, _Off, _Iter_cat(_First));

	sub	rdx, rcx
	sar	rdx, 3

; 903  : 	return (_Off);

	mov	rax, rdx

; 904  : 	}

	ret	0
??$distance@V?$_Vector_iterator@V?$_Vector_val@PEAUSect@CInifile@@V?$xalloc@PEAUSect@CInifile@@@@@std@@@std@@@std@@YA_JV?$_Vector_iterator@V?$_Vector_val@PEAUSect@CInifile@@V?$xalloc@PEAUSect@CInifile@@@@@std@@@0@0@Z ENDP ; std::distance<std::_Vector_iterator<std::_Vector_val<CInifile::Sect * __ptr64,xalloc<CInifile::Sect * __ptr64> > > >
; Function compile flags: /Ogtpy
; File c:\program files (x86)\microsoft visual studio 10.0\vc\include\vector
_TEXT	ENDS
;	COMDAT ?_Grow_to@?$vector@PEAUSect@CInifile@@V?$xalloc@PEAUSect@CInifile@@@@@std@@IEBA_K_K@Z
_TEXT	SEGMENT
this$ = 8
_Count$ = 16
?_Grow_to@?$vector@PEAUSect@CInifile@@V?$xalloc@PEAUSect@CInifile@@@@@std@@IEBA_K_K@Z PROC ; std::vector<CInifile::Sect * __ptr64,xalloc<CInifile::Sect * __ptr64> >::_Grow_to, COMDAT

; 1275 : 		size_type _Capacity = capacity();

	mov	r8, QWORD PTR [rcx+16]

; 1276 : 
; 1277 : 		_Capacity = max_size() - _Capacity / 2 < _Capacity
; 1278 : 			? 0 : _Capacity + _Capacity / 2;	// try to grow by 50%

	mov	rax, 2305843009213693951		; 1fffffffffffffffH
	sub	r8, QWORD PTR [rcx]
	sar	r8, 3
	mov	rcx, r8
	shr	rcx, 1
	sub	rax, rcx
	cmp	rax, r8
	jae	SHORT $LN4@Grow_to@2
	xor	r8d, r8d

; 1279 : 		if (_Capacity < _Count)

	cmp	r8, rdx
	cmovb	r8, rdx

; 1280 : 			_Capacity = _Count;
; 1281 : 		return (_Capacity);

	mov	rax, r8

; 1282 : 		}

	ret	0
$LN4@Grow_to@2:

; 1276 : 
; 1277 : 		_Capacity = max_size() - _Capacity / 2 < _Capacity
; 1278 : 			? 0 : _Capacity + _Capacity / 2;	// try to grow by 50%

	add	r8, rcx

; 1279 : 		if (_Capacity < _Count)

	cmp	r8, rdx
	cmovb	r8, rdx

; 1280 : 			_Capacity = _Count;
; 1281 : 		return (_Capacity);

	mov	rax, r8

; 1282 : 		}

	ret	0
?_Grow_to@?$vector@PEAUSect@CInifile@@V?$xalloc@PEAUSect@CInifile@@@@@std@@IEBA_K_K@Z ENDP ; std::vector<CInifile::Sect * __ptr64,xalloc<CInifile::Sect * __ptr64> >::_Grow_to
_TEXT	ENDS
;	COMDAT pdata
pdata	SEGMENT
$pdata$??$rotate@V?$_Vector_iterator@V?$_Vector_val@PEAUSect@CInifile@@V?$xalloc@PEAUSect@CInifile@@@@@std@@@std@@@std@@YA?AV?$_Vector_iterator@V?$_Vector_val@PEAUSect@CInifile@@V?$xalloc@PEAUSect@CInifile@@@@@std@@@0@V10@00@Z DD imagerel $LN61
	DD	imagerel $LN61+100
	DD	imagerel $unwind$??$rotate@V?$_Vector_iterator@V?$_Vector_val@PEAUSect@CInifile@@V?$xalloc@PEAUSect@CInifile@@@@@std@@@std@@@std@@YA?AV?$_Vector_iterator@V?$_Vector_val@PEAUSect@CInifile@@V?$xalloc@PEAUSect@CInifile@@@@@std@@@0@V10@00@Z
pdata	ENDS
;	COMDAT xdata
xdata	SEGMENT
$unwind$??$rotate@V?$_Vector_iterator@V?$_Vector_val@PEAUSect@CInifile@@V?$xalloc@PEAUSect@CInifile@@@@@std@@@std@@@std@@YA?AV?$_Vector_iterator@V?$_Vector_val@PEAUSect@CInifile@@V?$xalloc@PEAUSect@CInifile@@@@@std@@@0@V10@00@Z DD 021401H
	DD	030103214H
; Function compile flags: /Ogtpy
; File c:\program files (x86)\microsoft visual studio 10.0\vc\include\xutility
xdata	ENDS
;	COMDAT ??$rotate@V?$_Vector_iterator@V?$_Vector_val@PEAUSect@CInifile@@V?$xalloc@PEAUSect@CInifile@@@@@std@@@std@@@std@@YA?AV?$_Vector_iterator@V?$_Vector_val@PEAUSect@CInifile@@V?$xalloc@PEAUSect@CInifile@@@@@std@@@0@V10@00@Z
_TEXT	SEGMENT
__$ReturnUdt$ = 48
_First$ = 56
_Mid$ = 64
_Last$ = 72
??$rotate@V?$_Vector_iterator@V?$_Vector_val@PEAUSect@CInifile@@V?$xalloc@PEAUSect@CInifile@@@@@std@@@std@@@std@@YA?AV?$_Vector_iterator@V?$_Vector_val@PEAUSect@CInifile@@V?$xalloc@PEAUSect@CInifile@@@@@std@@@0@V10@00@Z PROC ; std::rotate<std::_Vector_iterator<std::_Vector_val<CInifile::Sect * __ptr64,xalloc<CInifile::Sect * __ptr64> > > >, COMDAT

; 3294 : 	{	// rotate [_First, _Last)

$LN61:
	mov	QWORD PTR [rsp+32], r9
	mov	QWORD PTR [rsp+24], r8
	mov	QWORD PTR [rsp+16], rdx
	push	rbx
	sub	rsp, 32					; 00000020H
	mov	r10, r8
	mov	rax, rdx
	mov	rbx, rcx

; 3295 : 	_DEBUG_RANGE(_First, _Mid);
; 3296 : 	_DEBUG_RANGE(_Mid, _Last);
; 3297 : 	if (_First != _Mid && _Mid != _Last)

	cmp	rdx, r8
	je	SHORT $LN58@rotate@2
	cmp	r8, r9
	je	SHORT $LN58@rotate@2

; 3298 : 		{	// rotate and compute new first iterator
; 3299 : 		_Rotate(_Unchecked(_First), _Unchecked(_Mid), _Unchecked(_Last),
; 3300 : 			_Iter_cat(_First));

	mov	r8, r9
	mov	rdx, r10
	mov	rcx, rax
	call	??$_Rotate@PEAPEAUSect@CInifile@@_JPEAU12@@std@@YAXPEAPEAUSect@CInifile@@00PEA_J0@Z ; std::_Rotate<CInifile::Sect * __ptr64 * __ptr64,__int64,CInifile::Sect * __ptr64>

; 3301 : 		_STD advance(_First, _STD distance(_Mid, _Last));

	mov	r11, QWORD PTR _Last$[rsp]
	mov	rax, QWORD PTR _First$[rsp]
	sub	r11, QWORD PTR _Mid$[rsp]
	sar	r11, 3
	lea	rax, QWORD PTR [rax+r11*8]

; 3302 : 		}
; 3303 : 	return (_First);

	mov	QWORD PTR [rbx], rax
	mov	rax, rbx

; 3304 : 	}

	add	rsp, 32					; 00000020H
	pop	rbx
	ret	0
$LN58@rotate@2:

; 3302 : 		}
; 3303 : 	return (_First);

	mov	QWORD PTR [rcx], rdx
	mov	rax, rbx

; 3304 : 	}

	add	rsp, 32					; 00000020H
	pop	rbx
	ret	0
??$rotate@V?$_Vector_iterator@V?$_Vector_val@PEAUSect@CInifile@@V?$xalloc@PEAUSect@CInifile@@@@@std@@@std@@@std@@YA?AV?$_Vector_iterator@V?$_Vector_val@PEAUSect@CInifile@@V?$xalloc@PEAUSect@CInifile@@@@@std@@@0@V10@00@Z ENDP ; std::rotate<std::_Vector_iterator<std::_Vector_val<CInifile::Sect * __ptr64,xalloc<CInifile::Sect * __ptr64> > > >
; Function compile flags: /Ogtpy
; File c:\program files (x86)\microsoft visual studio 10.0\vc\include\vector
_TEXT	ENDS
;	COMDAT ??Z?$_Vector_iterator@V?$_Vector_val@PEAUSect@CInifile@@V?$xalloc@PEAUSect@CInifile@@@@@std@@@std@@QEAAAEAV01@_J@Z
_TEXT	SEGMENT
this$ = 8
??Z?$_Vector_iterator@V?$_Vector_val@PEAUSect@CInifile@@V?$xalloc@PEAUSect@CInifile@@@@@std@@@std@@QEAAAEAV01@_J@Z PROC ; std::_Vector_iterator<std::_Vector_val<CInifile::Sect * __ptr64,xalloc<CInifile::Sect * __ptr64> > >::operator-=, COMDAT

; 370  : 		return (*this += -_Off);

	add	QWORD PTR [rcx], -8
	mov	rax, rcx

; 371  : 		}

	ret	0
??Z?$_Vector_iterator@V?$_Vector_val@PEAUSect@CInifile@@V?$xalloc@PEAUSect@CInifile@@@@@std@@@std@@QEAAAEAV01@_J@Z ENDP ; std::_Vector_iterator<std::_Vector_val<CInifile::Sect * __ptr64,xalloc<CInifile::Sect * __ptr64> > >::operator-=
; Function compile flags: /Ogtpy
_TEXT	ENDS
;	COMDAT ??Z?$_Vector_iterator@V?$_Vector_val@UItem@CInifile@@V?$xalloc@UItem@CInifile@@@@@std@@@std@@QEAAAEAV01@_J@Z
_TEXT	SEGMENT
this$ = 8
??Z?$_Vector_iterator@V?$_Vector_val@UItem@CInifile@@V?$xalloc@UItem@CInifile@@@@@std@@@std@@QEAAAEAV01@_J@Z PROC ; std::_Vector_iterator<std::_Vector_val<CInifile::Item,xalloc<CInifile::Item> > >::operator-=, COMDAT

; 370  : 		return (*this += -_Off);

	add	QWORD PTR [rcx], -16
	mov	rax, rcx

; 371  : 		}

	ret	0
??Z?$_Vector_iterator@V?$_Vector_val@UItem@CInifile@@V?$xalloc@UItem@CInifile@@@@@std@@@std@@QEAAAEAV01@_J@Z ENDP ; std::_Vector_iterator<std::_Vector_val<CInifile::Item,xalloc<CInifile::Item> > >::operator-=
; Function compile flags: /Ogtpy
_TEXT	ENDS
;	COMDAT ??G?$_Vector_iterator@V?$_Vector_val@PEAUSect@CInifile@@V?$xalloc@PEAUSect@CInifile@@@@@std@@@std@@QEBA?AV01@_J@Z
_TEXT	SEGMENT
this$ = 8
__$ReturnUdt$ = 16
??G?$_Vector_iterator@V?$_Vector_val@PEAUSect@CInifile@@V?$xalloc@PEAUSect@CInifile@@@@@std@@@std@@QEBA?AV01@_J@Z PROC ; std::_Vector_iterator<std::_Vector_val<CInifile::Sect * __ptr64,xalloc<CInifile::Sect * __ptr64> > >::operator-, COMDAT

; 375  : 		_Myiter _Tmp = *this;
; 376  : 		return (_Tmp -= _Off);

	mov	rax, QWORD PTR [rcx]
	sub	rax, 8
	mov	QWORD PTR [rdx], rax
	mov	rax, rdx

; 377  : 		}

	ret	0
??G?$_Vector_iterator@V?$_Vector_val@PEAUSect@CInifile@@V?$xalloc@PEAUSect@CInifile@@@@@std@@@std@@QEBA?AV01@_J@Z ENDP ; std::_Vector_iterator<std::_Vector_val<CInifile::Sect * __ptr64,xalloc<CInifile::Sect * __ptr64> > >::operator-
; Function compile flags: /Ogtpy
_TEXT	ENDS
;	COMDAT ??G?$_Vector_iterator@V?$_Vector_val@UItem@CInifile@@V?$xalloc@UItem@CInifile@@@@@std@@@std@@QEBA?AV01@_J@Z
_TEXT	SEGMENT
this$ = 8
__$ReturnUdt$ = 16
??G?$_Vector_iterator@V?$_Vector_val@UItem@CInifile@@V?$xalloc@UItem@CInifile@@@@@std@@@std@@QEBA?AV01@_J@Z PROC ; std::_Vector_iterator<std::_Vector_val<CInifile::Item,xalloc<CInifile::Item> > >::operator-, COMDAT

; 375  : 		_Myiter _Tmp = *this;
; 376  : 		return (_Tmp -= _Off);

	mov	rax, QWORD PTR [rcx]
	sub	rax, 16
	mov	QWORD PTR [rdx], rax
	mov	rax, rdx

; 377  : 		}

	ret	0
??G?$_Vector_iterator@V?$_Vector_val@UItem@CInifile@@V?$xalloc@UItem@CInifile@@@@@std@@@std@@QEBA?AV01@_J@Z ENDP ; std::_Vector_iterator<std::_Vector_val<CInifile::Item,xalloc<CInifile::Item> > >::operator-
; Function compile flags: /Ogtpy
_TEXT	ENDS
;	COMDAT ?_Grow_to@?$vector@UItem@CInifile@@V?$xalloc@UItem@CInifile@@@@@std@@IEBA_K_K@Z
_TEXT	SEGMENT
this$ = 8
_Count$ = 16
?_Grow_to@?$vector@UItem@CInifile@@V?$xalloc@UItem@CInifile@@@@@std@@IEBA_K_K@Z PROC ; std::vector<CInifile::Item,xalloc<CInifile::Item> >::_Grow_to, COMDAT

; 1275 : 		size_type _Capacity = capacity();

	mov	r8, QWORD PTR [rcx+16]

; 1276 : 
; 1277 : 		_Capacity = max_size() - _Capacity / 2 < _Capacity
; 1278 : 			? 0 : _Capacity + _Capacity / 2;	// try to grow by 50%

	mov	rax, 1152921504606846975		; 0fffffffffffffffH
	sub	r8, QWORD PTR [rcx]
	sar	r8, 4
	mov	rcx, r8
	shr	rcx, 1
	sub	rax, rcx
	cmp	rax, r8
	jae	SHORT $LN4@Grow_to@3
	xor	r8d, r8d

; 1279 : 		if (_Capacity < _Count)

	cmp	r8, rdx
	cmovb	r8, rdx

; 1280 : 			_Capacity = _Count;
; 1281 : 		return (_Capacity);

	mov	rax, r8

; 1282 : 		}

	ret	0
$LN4@Grow_to@3:

; 1276 : 
; 1277 : 		_Capacity = max_size() - _Capacity / 2 < _Capacity
; 1278 : 			? 0 : _Capacity + _Capacity / 2;	// try to grow by 50%

	add	r8, rcx

; 1279 : 		if (_Capacity < _Count)

	cmp	r8, rdx
	cmovb	r8, rdx

; 1280 : 			_Capacity = _Count;
; 1281 : 		return (_Capacity);

	mov	rax, r8

; 1282 : 		}

	ret	0
?_Grow_to@?$vector@UItem@CInifile@@V?$xalloc@UItem@CInifile@@@@@std@@IEBA_K_K@Z ENDP ; std::vector<CInifile::Item,xalloc<CInifile::Item> >::_Grow_to
; Function compile flags: /Ogtpy
_TEXT	ENDS
;	COMDAT ??E?$_Vector_iterator@V?$_Vector_val@UItem@CInifile@@V?$xalloc@UItem@CInifile@@@@@std@@@std@@QEAAAEAV01@XZ
_TEXT	SEGMENT
this$ = 8
??E?$_Vector_iterator@V?$_Vector_val@UItem@CInifile@@V?$xalloc@UItem@CInifile@@@@@std@@@std@@QEAAAEAV01@XZ PROC ; std::_Vector_iterator<std::_Vector_val<CInifile::Item,xalloc<CInifile::Item> > >::operator++, COMDAT

; 332  : 		++*(_Mybase *)this;

	add	QWORD PTR [rcx], 16

; 333  : 		return (*this);

	mov	rax, rcx

; 334  : 		}

	ret	0
??E?$_Vector_iterator@V?$_Vector_val@UItem@CInifile@@V?$xalloc@UItem@CInifile@@@@@std@@@std@@QEAAAEAV01@XZ ENDP ; std::_Vector_iterator<std::_Vector_val<CInifile::Item,xalloc<CInifile::Item> > >::operator++
; Function compile flags: /Ogtpy
_TEXT	ENDS
;	COMDAT ??G?$_Vector_const_iterator@V?$_Vector_val@UItem@CInifile@@V?$xalloc@UItem@CInifile@@@@@std@@@std@@QEBA_JAEBV01@@Z
_TEXT	SEGMENT
this$ = 8
_Right$ = 16
??G?$_Vector_const_iterator@V?$_Vector_val@UItem@CInifile@@V?$xalloc@UItem@CInifile@@@@@std@@@std@@QEBA_JAEBV01@@Z PROC ; std::_Vector_const_iterator<std::_Vector_val<CInifile::Item,xalloc<CInifile::Item> > >::operator-, COMDAT

; 191  : 		_Compat(_Right);
; 192  : 		return (this->_Ptr - _Right._Ptr);

	mov	rax, QWORD PTR [rcx]
	sub	rax, QWORD PTR [rdx]
	sar	rax, 4

; 193  : 		}

	ret	0
??G?$_Vector_const_iterator@V?$_Vector_val@UItem@CInifile@@V?$xalloc@UItem@CInifile@@@@@std@@@std@@QEBA_JAEBV01@@Z ENDP ; std::_Vector_const_iterator<std::_Vector_val<CInifile::Item,xalloc<CInifile::Item> > >::operator-
; Function compile flags: /Ogtpy
_TEXT	ENDS
;	COMDAT ??0?$vector@PEAUSect@CInifile@@V?$xalloc@PEAUSect@CInifile@@@@@std@@QEAA@XZ
_TEXT	SEGMENT
this$ = 8
??0?$vector@PEAUSect@CInifile@@V?$xalloc@PEAUSect@CInifile@@@@@std@@QEAA@XZ PROC ; std::vector<CInifile::Sect * __ptr64,xalloc<CInifile::Sect * __ptr64> >::vector<CInifile::Sect * __ptr64,xalloc<CInifile::Sect * __ptr64> >, COMDAT

; 507  : 		{	// construct empty vector

	xor	eax, eax
	mov	QWORD PTR [rcx], rax
	mov	QWORD PTR [rcx+8], rax
	mov	QWORD PTR [rcx+16], rax

; 508  : 		}

	mov	rax, rcx
	ret	0
??0?$vector@PEAUSect@CInifile@@V?$xalloc@PEAUSect@CInifile@@@@@std@@QEAA@XZ ENDP ; std::vector<CInifile::Sect * __ptr64,xalloc<CInifile::Sect * __ptr64> >::vector<CInifile::Sect * __ptr64,xalloc<CInifile::Sect * __ptr64> >
; Function compile flags: /Ogtpy
_TEXT	ENDS
;	COMDAT ??E?$_Vector_iterator@V?$_Vector_val@PEAUSect@CInifile@@V?$xalloc@PEAUSect@CInifile@@@@@std@@@std@@QEAAAEAV01@XZ
_TEXT	SEGMENT
this$ = 8
??E?$_Vector_iterator@V?$_Vector_val@PEAUSect@CInifile@@V?$xalloc@PEAUSect@CInifile@@@@@std@@@std@@QEAAAEAV01@XZ PROC ; std::_Vector_iterator<std::_Vector_val<CInifile::Sect * __ptr64,xalloc<CInifile::Sect * __ptr64> > >::operator++, COMDAT

; 332  : 		++*(_Mybase *)this;

	add	QWORD PTR [rcx], 8

; 333  : 		return (*this);

	mov	rax, rcx

; 334  : 		}

	ret	0
??E?$_Vector_iterator@V?$_Vector_val@PEAUSect@CInifile@@V?$xalloc@PEAUSect@CInifile@@@@@std@@@std@@QEAAAEAV01@XZ ENDP ; std::_Vector_iterator<std::_Vector_val<CInifile::Sect * __ptr64,xalloc<CInifile::Sect * __ptr64> > >::operator++
; Function compile flags: /Ogtpy
_TEXT	ENDS
;	COMDAT ??D?$_Vector_iterator@V?$_Vector_val@PEAUSect@CInifile@@V?$xalloc@PEAUSect@CInifile@@@@@std@@@std@@QEBAAEAPEAUSect@CInifile@@XZ
_TEXT	SEGMENT
this$ = 8
??D?$_Vector_iterator@V?$_Vector_val@PEAUSect@CInifile@@V?$xalloc@PEAUSect@CInifile@@@@@std@@@std@@QEBAAEAPEAUSect@CInifile@@XZ PROC ; std::_Vector_iterator<std::_Vector_val<CInifile::Sect * __ptr64,xalloc<CInifile::Sect * __ptr64> > >::operator*, COMDAT

; 322  : 		return ((reference)**(_Mybase *)this);

	mov	rax, QWORD PTR [rcx]

; 323  : 		}

	ret	0
??D?$_Vector_iterator@V?$_Vector_val@PEAUSect@CInifile@@V?$xalloc@PEAUSect@CInifile@@@@@std@@@std@@QEBAAEAPEAUSect@CInifile@@XZ ENDP ; std::_Vector_iterator<std::_Vector_val<CInifile::Sect * __ptr64,xalloc<CInifile::Sect * __ptr64> > >::operator*
; Function compile flags: /Ogtpy
_TEXT	ENDS
;	COMDAT ??E?$_Vector_iterator@V?$_Vector_val@UItem@CInifile@@V?$xalloc@UItem@CInifile@@@@@std@@@std@@QEAA?AV01@H@Z
_TEXT	SEGMENT
this$ = 8
__$ReturnUdt$ = 16
??E?$_Vector_iterator@V?$_Vector_val@UItem@CInifile@@V?$xalloc@UItem@CInifile@@@@@std@@@std@@QEAA?AV01@H@Z PROC ; std::_Vector_iterator<std::_Vector_val<CInifile::Item,xalloc<CInifile::Item> > >::operator++, COMDAT

; 338  : 		_Myiter _Tmp = *this;

	mov	rax, QWORD PTR [rcx]
	mov	QWORD PTR [rdx], rax

; 339  : 		++*this;

	add	rax, 16
	mov	QWORD PTR [rcx], rax

; 340  : 		return (_Tmp);

	mov	rax, rdx

; 341  : 		}

	ret	0
??E?$_Vector_iterator@V?$_Vector_val@UItem@CInifile@@V?$xalloc@UItem@CInifile@@@@@std@@@std@@QEAA?AV01@H@Z ENDP ; std::_Vector_iterator<std::_Vector_val<CInifile::Item,xalloc<CInifile::Item> > >::operator++
; Function compile flags: /Ogtpy
_TEXT	ENDS
;	COMDAT ??D?$_Vector_iterator@V?$_Vector_val@UItem@CInifile@@V?$xalloc@UItem@CInifile@@@@@std@@@std@@QEBAAEAUItem@CInifile@@XZ
_TEXT	SEGMENT
this$ = 8
??D?$_Vector_iterator@V?$_Vector_val@UItem@CInifile@@V?$xalloc@UItem@CInifile@@@@@std@@@std@@QEBAAEAUItem@CInifile@@XZ PROC ; std::_Vector_iterator<std::_Vector_val<CInifile::Item,xalloc<CInifile::Item> > >::operator*, COMDAT

; 322  : 		return ((reference)**(_Mybase *)this);

	mov	rax, QWORD PTR [rcx]

; 323  : 		}

	ret	0
??D?$_Vector_iterator@V?$_Vector_val@UItem@CInifile@@V?$xalloc@UItem@CInifile@@@@@std@@@std@@QEBAAEAUItem@CInifile@@XZ ENDP ; std::_Vector_iterator<std::_Vector_val<CInifile::Item,xalloc<CInifile::Item> > >::operator*
; Function compile flags: /Ogtpy
_TEXT	ENDS
;	COMDAT ??E?$_Vector_const_iterator@V?$_Vector_val@UItem@CInifile@@V?$xalloc@UItem@CInifile@@@@@std@@@std@@QEAA?AV01@H@Z
_TEXT	SEGMENT
this$ = 8
__$ReturnUdt$ = 16
??E?$_Vector_const_iterator@V?$_Vector_val@UItem@CInifile@@V?$xalloc@UItem@CInifile@@@@@std@@@std@@QEAA?AV01@H@Z PROC ; std::_Vector_const_iterator<std::_Vector_val<CInifile::Item,xalloc<CInifile::Item> > >::operator++, COMDAT

; 116  : 		_Myiter _Tmp = *this;

	mov	rax, QWORD PTR [rcx]
	mov	QWORD PTR [rdx], rax

; 117  : 		++*this;

	add	rax, 16
	mov	QWORD PTR [rcx], rax

; 118  : 		return (_Tmp);

	mov	rax, rdx

; 119  : 		}

	ret	0
??E?$_Vector_const_iterator@V?$_Vector_val@UItem@CInifile@@V?$xalloc@UItem@CInifile@@@@@std@@@std@@QEAA?AV01@H@Z ENDP ; std::_Vector_const_iterator<std::_Vector_val<CInifile::Item,xalloc<CInifile::Item> > >::operator++
; Function compile flags: /Ogtpy
_TEXT	ENDS
;	COMDAT ??C?$_Vector_const_iterator@V?$_Vector_val@UItem@CInifile@@V?$xalloc@UItem@CInifile@@@@@std@@@std@@QEBAPEBUItem@CInifile@@XZ
_TEXT	SEGMENT
this$ = 8
??C?$_Vector_const_iterator@V?$_Vector_val@UItem@CInifile@@V?$xalloc@UItem@CInifile@@@@@std@@@std@@QEBAPEBUItem@CInifile@@XZ PROC ; std::_Vector_const_iterator<std::_Vector_val<CInifile::Item,xalloc<CInifile::Item> > >::operator->, COMDAT

; 89   : 		return (&**this);

	mov	rax, QWORD PTR [rcx]

; 90   : 		}

	ret	0
??C?$_Vector_const_iterator@V?$_Vector_val@UItem@CInifile@@V?$xalloc@UItem@CInifile@@@@@std@@@std@@QEBAPEBUItem@CInifile@@XZ ENDP ; std::_Vector_const_iterator<std::_Vector_val<CInifile::Item,xalloc<CInifile::Item> > >::operator->
; Function compile flags: /Ogtpy
; File c:\users\nummer\documents\github\olr-3.0\src\xray\xrcore\_stl_extensions.h
_TEXT	ENDS
;	COMDAT ?size@?$xr_vector@UItem@CInifile@@V?$xalloc@UItem@CInifile@@@@@@QEBAIXZ
_TEXT	SEGMENT
this$ = 8
?size@?$xr_vector@UItem@CInifile@@V?$xalloc@UItem@CInifile@@@@@@QEBAIXZ PROC ; xr_vector<CInifile::Item,xalloc<CInifile::Item> >::size, COMDAT

; 125  : 	u32		size				() const							{ return (u32)inherited::size();} 

	mov	rax, QWORD PTR [rcx+8]
	sub	rax, QWORD PTR [rcx]
	sar	rax, 4
	ret	0
?size@?$xr_vector@UItem@CInifile@@V?$xalloc@UItem@CInifile@@@@@@QEBAIXZ ENDP ; xr_vector<CInifile::Item,xalloc<CInifile::Item> >::size
_TEXT	ENDS
PUBLIC	?sect_pred@@YA_NPEBUSect@CInifile@@PEBD@Z	; sect_pred
; Function compile flags: /Ogtpy
; File c:\users\nummer\documents\github\olr-3.0\src\xray\xrcore\xr_ini.cpp
_TEXT	SEGMENT
x$ = 8
val$ = 16
?sect_pred@@YA_NPEBUSect@CInifile@@PEBD@Z PROC		; sect_pred

; 16   : 	return xr_strcmp(*x->Name,val)<0;

	mov	rax, QWORD PTR [rcx]
	xor	r9d, r9d
	mov	r8, rdx
	test	rax, rax
	je	SHORT $LN5@sect_pred
	add	rax, 12
	jmp	SHORT $LN6@sect_pred
$LN5@sect_pred:
	mov	rax, r9
$LN6@sect_pred:
	sub	r8, rax
	npad	6
$LL9@sect_pred:
	movzx	edx, BYTE PTR [rax]
	movzx	ecx, BYTE PTR [rax+r8]
	sub	edx, ecx
	jne	SHORT $LN10@sect_pred
	inc	rax
	test	ecx, ecx
	jne	SHORT $LL9@sect_pred
$LN10@sect_pred:
	test	edx, edx
	sets	al

; 17   : };

	ret	0
?sect_pred@@YA_NPEBUSect@CInifile@@PEBD@Z ENDP		; sect_pred
; Function compile flags: /Ogtpy
; File c:\program files (x86)\microsoft visual studio 10.0\vc\include\xmemory
;	COMDAT ??$_Cons_val@V?$xalloc@PEAUSect@CInifile@@@@PEAUSect@CInifile@@PEAU23@@std@@YAXAEAV?$xalloc@PEAUSect@CInifile@@@@PEAPEAUSect@CInifile@@$$QEAPEAU23@@Z
_TEXT	SEGMENT
_Pdest$ = 8
_Src$ = 16
??$_Cons_val@V?$xalloc@PEAUSect@CInifile@@@@PEAUSect@CInifile@@PEAU23@@std@@YAXAEAV?$xalloc@PEAUSect@CInifile@@@@PEAPEAUSect@CInifile@@$$QEAPEAU23@@Z PROC ; std::_Cons_val<xalloc<CInifile::Sect * __ptr64>,CInifile::Sect * __ptr64,CInifile::Sect * __ptr64>, COMDAT

; 280  : 	_Alval.construct(_Pdest, _STD forward<_Ty2>(_Src));

	test	rcx, rcx
	je	SHORT $LN9@Cons_val@12
	mov	rax, QWORD PTR [rdx]
	mov	QWORD PTR [rcx], rax
$LN9@Cons_val@12:

; 281  : 	}

	fatret	0
??$_Cons_val@V?$xalloc@PEAUSect@CInifile@@@@PEAUSect@CInifile@@PEAU23@@std@@YAXAEAV?$xalloc@PEAUSect@CInifile@@@@PEAPEAUSect@CInifile@@$$QEAPEAU23@@Z ENDP ; std::_Cons_val<xalloc<CInifile::Sect * __ptr64>,CInifile::Sect * __ptr64,CInifile::Sect * __ptr64>
_TEXT	ENDS
;	COMDAT pdata
; File c:\program files (x86)\microsoft visual studio 10.0\vc\include\utility
pdata	SEGMENT
$pdata$??$_Uninit_move@PEAPEAUSect@CInifile@@PEAPEAU12@V?$xalloc@PEAUSect@CInifile@@@@PEAU12@@std@@YAPEAPEAUSect@CInifile@@PEAPEAU12@00AEAV?$xalloc@PEAUSect@CInifile@@@@0U_Nonscalar_ptr_iterator_tag@0@@Z DD imagerel $LN32
	DD	imagerel $LN32+60
	DD	imagerel $unwind$??$_Uninit_move@PEAPEAUSect@CInifile@@PEAPEAU12@V?$xalloc@PEAUSect@CInifile@@@@PEAU12@@std@@YAPEAPEAUSect@CInifile@@PEAPEAU12@00AEAV?$xalloc@PEAUSect@CInifile@@@@0U_Nonscalar_ptr_iterator_tag@0@@Z
pdata	ENDS
;	COMDAT pdata
pdata	SEGMENT
$pdata$?catch$0@?0???$_Uninit_move@PEAPEAUSect@CInifile@@PEAPEAU12@V?$xalloc@PEAUSect@CInifile@@@@PEAU12@@std@@YAPEAPEAUSect@CInifile@@PEAPEAU12@00AEAV?$xalloc@PEAUSect@CInifile@@@@0U_Nonscalar_ptr_iterator_tag@0@@Z@4HA DD imagerel ?catch$0@?0???$_Uninit_move@PEAPEAUSect@CInifile@@PEAPEAU12@V?$xalloc@PEAUSect@CInifile@@@@PEAU12@@std@@YAPEAPEAUSect@CInifile@@PEAPEAU12@00AEAV?$xalloc@PEAUSect@CInifile@@@@0U_Nonscalar_ptr_iterator_tag@0@@Z@4HA
	DD	imagerel ?catch$0@?0???$_Uninit_move@PEAPEAUSect@CInifile@@PEAPEAU12@V?$xalloc@PEAUSect@CInifile@@@@PEAU12@@std@@YAPEAPEAUSect@CInifile@@PEAPEAU12@00AEAV?$xalloc@PEAUSect@CInifile@@@@0U_Nonscalar_ptr_iterator_tag@0@@Z@4HA+23
	DD	imagerel $unwind$?catch$0@?0???$_Uninit_move@PEAPEAUSect@CInifile@@PEAPEAU12@V?$xalloc@PEAUSect@CInifile@@@@PEAU12@@std@@YAPEAPEAUSect@CInifile@@PEAPEAU12@00AEAV?$xalloc@PEAUSect@CInifile@@@@0U_Nonscalar_ptr_iterator_tag@0@@Z@4HA
pdata	ENDS
;	COMDAT xdata
xdata	SEGMENT
$ip2state$??$_Uninit_move@PEAPEAUSect@CInifile@@PEAPEAU12@V?$xalloc@PEAUSect@CInifile@@@@PEAU12@@std@@YAPEAPEAUSect@CInifile@@PEAPEAU12@00AEAV?$xalloc@PEAUSect@CInifile@@@@0U_Nonscalar_ptr_iterator_tag@0@@Z DD imagerel ??$_Uninit_move@PEAPEAUSect@CInifile@@PEAPEAU12@V?$xalloc@PEAUSect@CInifile@@@@PEAU12@@std@@YAPEAPEAUSect@CInifile@@PEAPEAU12@00AEAV?$xalloc@PEAUSect@CInifile@@@@0U_Nonscalar_ptr_iterator_tag@0@@Z
	DD	0ffffffffH
	DD	imagerel ??$_Uninit_move@PEAPEAUSect@CInifile@@PEAPEAU12@V?$xalloc@PEAUSect@CInifile@@@@PEAU12@@std@@YAPEAPEAUSect@CInifile@@PEAPEAU12@00AEAV?$xalloc@PEAUSect@CInifile@@@@0U_Nonscalar_ptr_iterator_tag@0@@Z+16
	DD	00H
	DD	imagerel ??$_Uninit_move@PEAPEAUSect@CInifile@@PEAPEAU12@V?$xalloc@PEAUSect@CInifile@@@@PEAU12@@std@@YAPEAPEAUSect@CInifile@@PEAPEAU12@00AEAV?$xalloc@PEAUSect@CInifile@@@@0U_Nonscalar_ptr_iterator_tag@0@@Z+52
	DD	0ffffffffH
	DD	imagerel ?catch$0@?0???$_Uninit_move@PEAPEAUSect@CInifile@@PEAPEAU12@V?$xalloc@PEAUSect@CInifile@@@@PEAU12@@std@@YAPEAPEAUSect@CInifile@@PEAPEAU12@00AEAV?$xalloc@PEAUSect@CInifile@@@@0U_Nonscalar_ptr_iterator_tag@0@@Z@4HA
	DD	00H
	DD	imagerel ?catch$0@?0???$_Uninit_move@PEAPEAUSect@CInifile@@PEAPEAU12@V?$xalloc@PEAUSect@CInifile@@@@PEAU12@@std@@YAPEAPEAUSect@CInifile@@PEAPEAU12@00AEAV?$xalloc@PEAUSect@CInifile@@@@0U_Nonscalar_ptr_iterator_tag@0@@Z@4HA+13
	DD	01H
xdata	ENDS
;	COMDAT xdata
xdata	SEGMENT
$unwind$?catch$0@?0???$_Uninit_move@PEAPEAUSect@CInifile@@PEAPEAU12@V?$xalloc@PEAUSect@CInifile@@@@PEAU12@@std@@YAPEAPEAUSect@CInifile@@PEAPEAU12@00AEAV?$xalloc@PEAUSect@CInifile@@@@0U_Nonscalar_ptr_iterator_tag@0@@Z@4HA DD 020a19H
	DD	05006320aH
	DD	imagerel __CxxFrameHandler3
	DD	imagerel $cppxdata$??$_Uninit_move@PEAPEAUSect@CInifile@@PEAPEAU12@V?$xalloc@PEAUSect@CInifile@@@@PEAU12@@std@@YAPEAPEAUSect@CInifile@@PEAPEAU12@00AEAV?$xalloc@PEAUSect@CInifile@@@@0U_Nonscalar_ptr_iterator_tag@0@@Z
xdata	ENDS
;	COMDAT xdata
xdata	SEGMENT
$unwind$??$_Uninit_move@PEAPEAUSect@CInifile@@PEAPEAU12@V?$xalloc@PEAUSect@CInifile@@@@PEAU12@@std@@YAPEAPEAUSect@CInifile@@PEAPEAU12@00AEAV?$xalloc@PEAUSect@CInifile@@@@0U_Nonscalar_ptr_iterator_tag@0@@Z DD 010d19H
	DD	06204H
	DD	imagerel __CxxFrameHandler3
	DD	imagerel $cppxdata$??$_Uninit_move@PEAPEAUSect@CInifile@@PEAPEAU12@V?$xalloc@PEAUSect@CInifile@@@@PEAU12@@std@@YAPEAPEAUSect@CInifile@@PEAPEAU12@00AEAV?$xalloc@PEAUSect@CInifile@@@@0U_Nonscalar_ptr_iterator_tag@0@@Z
xdata	ENDS
;	COMDAT CONST
CONST	SEGMENT
$cppxdata$??$_Uninit_move@PEAPEAUSect@CInifile@@PEAPEAU12@V?$xalloc@PEAUSect@CInifile@@@@PEAU12@@std@@YAPEAPEAUSect@CInifile@@PEAPEAU12@00AEAV?$xalloc@PEAUSect@CInifile@@@@0U_Nonscalar_ptr_iterator_tag@0@@Z DD 019930522H
	DD	02H
	DD	imagerel $stateUnwindMap$??$_Uninit_move@PEAPEAUSect@CInifile@@PEAPEAU12@V?$xalloc@PEAUSect@CInifile@@@@PEAU12@@std@@YAPEAPEAUSect@CInifile@@PEAPEAU12@00AEAV?$xalloc@PEAUSect@CInifile@@@@0U_Nonscalar_ptr_iterator_tag@0@@Z
	DD	01H
	DD	imagerel $tryMap$??$_Uninit_move@PEAPEAUSect@CInifile@@PEAPEAU12@V?$xalloc@PEAUSect@CInifile@@@@PEAU12@@std@@YAPEAPEAUSect@CInifile@@PEAPEAU12@00AEAV?$xalloc@PEAUSect@CInifile@@@@0U_Nonscalar_ptr_iterator_tag@0@@Z
	DD	05H
	DD	imagerel $ip2state$??$_Uninit_move@PEAPEAUSect@CInifile@@PEAPEAU12@V?$xalloc@PEAUSect@CInifile@@@@PEAU12@@std@@YAPEAPEAUSect@CInifile@@PEAPEAU12@00AEAV?$xalloc@PEAUSect@CInifile@@@@0U_Nonscalar_ptr_iterator_tag@0@@Z
	DD	020H
	DD	00H
	DD	00H
CONST	ENDS
;	COMDAT xdata
xdata	SEGMENT
$tryMap$??$_Uninit_move@PEAPEAUSect@CInifile@@PEAPEAU12@V?$xalloc@PEAUSect@CInifile@@@@PEAU12@@std@@YAPEAPEAUSect@CInifile@@PEAPEAU12@00AEAV?$xalloc@PEAUSect@CInifile@@@@0U_Nonscalar_ptr_iterator_tag@0@@Z DD 00H
	DD	00H
	DD	01H
	DD	01H
	DD	imagerel $handlerMap$0$??$_Uninit_move@PEAPEAUSect@CInifile@@PEAPEAU12@V?$xalloc@PEAUSect@CInifile@@@@PEAU12@@std@@YAPEAPEAUSect@CInifile@@PEAPEAU12@00AEAV?$xalloc@PEAUSect@CInifile@@@@0U_Nonscalar_ptr_iterator_tag@0@@Z
xdata	ENDS
;	COMDAT xdata
xdata	SEGMENT
$handlerMap$0$??$_Uninit_move@PEAPEAUSect@CInifile@@PEAPEAU12@V?$xalloc@PEAUSect@CInifile@@@@PEAU12@@std@@YAPEAPEAUSect@CInifile@@PEAPEAU12@00AEAV?$xalloc@PEAUSect@CInifile@@@@0U_Nonscalar_ptr_iterator_tag@0@@Z DD 00H
	DD	00H
	DD	00H
	DD	imagerel ?catch$0@?0???$_Uninit_move@PEAPEAUSect@CInifile@@PEAPEAU12@V?$xalloc@PEAUSect@CInifile@@@@PEAU12@@std@@YAPEAPEAUSect@CInifile@@PEAPEAU12@00AEAV?$xalloc@PEAUSect@CInifile@@@@0U_Nonscalar_ptr_iterator_tag@0@@Z@4HA
	DD	038H
xdata	ENDS
;	COMDAT xdata
xdata	SEGMENT
$stateUnwindMap$??$_Uninit_move@PEAPEAUSect@CInifile@@PEAPEAU12@V?$xalloc@PEAUSect@CInifile@@@@PEAU12@@std@@YAPEAPEAUSect@CInifile@@PEAPEAU12@00AEAV?$xalloc@PEAUSect@CInifile@@@@0U_Nonscalar_ptr_iterator_tag@0@@Z DD 0ffffffffH
	DD	00H
	DD	0ffffffffH
	DD	00H
; Function compile flags: /Ogtpy
; File c:\program files (x86)\microsoft visual studio 10.0\vc\include\memory
xdata	ENDS
;	COMDAT ??$_Uninit_move@PEAPEAUSect@CInifile@@PEAPEAU12@V?$xalloc@PEAUSect@CInifile@@@@PEAU12@@std@@YAPEAPEAUSect@CInifile@@PEAPEAU12@00AEAV?$xalloc@PEAUSect@CInifile@@@@0U_Nonscalar_ptr_iterator_tag@0@@Z
_TEXT	SEGMENT
$T184180 = 32
_First$ = 64
_Last$ = 72
_Dest$ = 80
??$_Uninit_move@PEAPEAUSect@CInifile@@PEAPEAU12@V?$xalloc@PEAUSect@CInifile@@@@PEAU12@@std@@YAPEAPEAUSect@CInifile@@PEAPEAU12@00AEAV?$xalloc@PEAUSect@CInifile@@@@0U_Nonscalar_ptr_iterator_tag@0@@Z PROC ; std::_Uninit_move<CInifile::Sect * __ptr64 * __ptr64,CInifile::Sect * __ptr64 * __ptr64,xalloc<CInifile::Sect * __ptr64>,CInifile::Sect * __ptr64>, COMDAT

; 424  : 	{	// move [_First, _Last) to raw _Dest, using _Al, arbitrary type

$LN32:
	sub	rsp, 56					; 00000038H
	mov	QWORD PTR $T184180[rsp], -2
	npad	3
$LL6@Uninit_mov@2:

; 425  : 	_DEBUG_RANGE(_First, _Last);
; 426  : 	_DEBUG_POINTER(_Dest);
; 427  : 	_FwdIt _Next = _Dest;
; 428  : 
; 429  : 	_TRY_BEGIN
; 430  : 	for (; _First != _Last; ++_Dest, ++_First)

	cmp	rcx, rdx
	je	SHORT $LN4@Uninit_mov@2

; 431  : 		_Cons_val(_Al, _Dest, (_Valty &&)*_First);

	mov	rax, QWORD PTR [rcx]
	test	r8, r8
	je	SHORT $LN22@Uninit_mov@2
	mov	QWORD PTR [r8], rax
$LN22@Uninit_mov@2:

; 425  : 	_DEBUG_RANGE(_First, _Last);
; 426  : 	_DEBUG_POINTER(_Dest);
; 427  : 	_FwdIt _Next = _Dest;
; 428  : 
; 429  : 	_TRY_BEGIN
; 430  : 	for (; _First != _Last; ++_Dest, ++_First)

	add	r8, 8
	mov	QWORD PTR _Dest$[rsp], r8
	add	rcx, 8
	mov	QWORD PTR _First$[rsp], rcx
	jmp	SHORT $LL6@Uninit_mov@2
$LN4@Uninit_mov@2:

; 432  : 	_CATCH_ALL
; 433  : 	for (; _Next != _Dest; ++_Next)
; 434  : 		_Dest_val(_Al, _Next);
; 435  : 	_RERAISE;
; 436  : 	_CATCH_END
; 437  : 	return (_Dest);

	mov	rax, r8

; 438  : 	}

	add	rsp, 56					; 00000038H
	ret	0
$LN31@Uninit_mov@2:
??$_Uninit_move@PEAPEAUSect@CInifile@@PEAPEAU12@V?$xalloc@PEAUSect@CInifile@@@@PEAU12@@std@@YAPEAPEAUSect@CInifile@@PEAPEAU12@00AEAV?$xalloc@PEAUSect@CInifile@@@@0U_Nonscalar_ptr_iterator_tag@0@@Z ENDP ; std::_Uninit_move<CInifile::Sect * __ptr64 * __ptr64,CInifile::Sect * __ptr64 * __ptr64,xalloc<CInifile::Sect * __ptr64>,CInifile::Sect * __ptr64>
; Function compile flags: /Ogtpy
_TEXT	ENDS
;	COMDAT text$x
text$x	SEGMENT
$T184180 = 32
_First$ = 64
_Last$ = 72
_Dest$ = 80
?catch$0@?0???$_Uninit_move@PEAPEAUSect@CInifile@@PEAPEAU12@V?$xalloc@PEAUSect@CInifile@@@@PEAU12@@std@@YAPEAPEAUSect@CInifile@@PEAPEAU12@00AEAV?$xalloc@PEAUSect@CInifile@@@@0U_Nonscalar_ptr_iterator_tag@0@@Z@4HA PROC ; `std::_Uninit_move<CInifile::Sect * __ptr64 * __ptr64,CInifile::Sect * __ptr64 * __ptr64,xalloc<CInifile::Sect * __ptr64>,CInifile::Sect * __ptr64>'::`1'::catch$0

; 432  : 	_CATCH_ALL

	mov	QWORD PTR [rsp+16], rdx
	push	rbp
	sub	rsp, 32					; 00000020H
	mov	rbp, rdx
__catch$??$_Uninit_move@PEAPEAUSect@CInifile@@PEAPEAU12@V?$xalloc@PEAUSect@CInifile@@@@PEAU12@@std@@YAPEAPEAUSect@CInifile@@PEAPEAU12@00AEAV?$xalloc@PEAUSect@CInifile@@@@0U_Nonscalar_ptr_iterator_tag@0@@Z$0:

; 433  : 	for (; _Next != _Dest; ++_Next)
; 434  : 		_Dest_val(_Al, _Next);
; 435  : 	_RERAISE;

	xor	edx, edx
	xor	ecx, ecx
	call	_CxxThrowException
	npad	1
?catch$0@?0???$_Uninit_move@PEAPEAUSect@CInifile@@PEAPEAU12@V?$xalloc@PEAUSect@CInifile@@@@PEAU12@@std@@YAPEAPEAUSect@CInifile@@PEAPEAU12@00AEAV?$xalloc@PEAUSect@CInifile@@@@0U_Nonscalar_ptr_iterator_tag@0@@Z@4HA ENDP ; `std::_Uninit_move<CInifile::Sect * __ptr64 * __ptr64,CInifile::Sect * __ptr64 * __ptr64,xalloc<CInifile::Sect * __ptr64>,CInifile::Sect * __ptr64>'::`1'::catch$0
text$x	ENDS
;	COMDAT pdata
pdata	SEGMENT
$pdata$??$_Uninit_move@PEAPEAUSect@CInifile@@PEAPEAU12@V?$xalloc@PEAUSect@CInifile@@@@PEAU12@@std@@YAPEAPEAUSect@CInifile@@PEAPEAU12@00AEAV?$xalloc@PEAUSect@CInifile@@@@0U_Scalar_ptr_iterator_tag@0@@Z DD imagerel $LN3
	DD	imagerel $LN3+14
	DD	imagerel $unwind$??$_Uninit_move@PEAPEAUSect@CInifile@@PEAPEAU12@V?$xalloc@PEAUSect@CInifile@@@@PEAU12@@std@@YAPEAPEAUSect@CInifile@@PEAPEAU12@00AEAV?$xalloc@PEAUSect@CInifile@@@@0U_Scalar_ptr_iterator_tag@0@@Z
pdata	ENDS
;	COMDAT xdata
xdata	SEGMENT
$unwind$??$_Uninit_move@PEAPEAUSect@CInifile@@PEAPEAU12@V?$xalloc@PEAUSect@CInifile@@@@PEAU12@@std@@YAPEAPEAUSect@CInifile@@PEAPEAU12@00AEAV?$xalloc@PEAUSect@CInifile@@@@0U_Scalar_ptr_iterator_tag@0@@Z DD 010401H
	DD	04204H
; Function compile flags: /Ogtpy
xdata	ENDS
;	COMDAT ??$_Uninit_move@PEAPEAUSect@CInifile@@PEAPEAU12@V?$xalloc@PEAUSect@CInifile@@@@PEAU12@@std@@YAPEAPEAUSect@CInifile@@PEAPEAU12@00AEAV?$xalloc@PEAUSect@CInifile@@@@0U_Scalar_ptr_iterator_tag@0@@Z
_TEXT	SEGMENT
_First$ = 48
_Last$ = 56
_Dest$ = 64
??$_Uninit_move@PEAPEAUSect@CInifile@@PEAPEAU12@V?$xalloc@PEAUSect@CInifile@@@@PEAU12@@std@@YAPEAPEAUSect@CInifile@@PEAPEAU12@00AEAV?$xalloc@PEAUSect@CInifile@@@@0U_Scalar_ptr_iterator_tag@0@@Z PROC ; std::_Uninit_move<CInifile::Sect * __ptr64 * __ptr64,CInifile::Sect * __ptr64 * __ptr64,xalloc<CInifile::Sect * __ptr64>,CInifile::Sect * __ptr64>, COMDAT

; 446  : 	{	// move [_First, _Last) to raw _Dest, using _Al, scalar type

$LN3:
	sub	rsp, 40					; 00000028H

; 447  : 	return (_Uninit_move(_First, _Last, _Dest,
; 448  : 		_Al, (_Valty *)0, _Nonscalar_ptr_iterator_tag()));

	call	??$_Uninit_move@PEAPEAUSect@CInifile@@PEAPEAU12@V?$xalloc@PEAUSect@CInifile@@@@PEAU12@@std@@YAPEAPEAUSect@CInifile@@PEAPEAU12@00AEAV?$xalloc@PEAUSect@CInifile@@@@0U_Nonscalar_ptr_iterator_tag@0@@Z ; std::_Uninit_move<CInifile::Sect * __ptr64 * __ptr64,CInifile::Sect * __ptr64 * __ptr64,xalloc<CInifile::Sect * __ptr64>,CInifile::Sect * __ptr64>

; 449  : 	}

	add	rsp, 40					; 00000028H
	ret	0
??$_Uninit_move@PEAPEAUSect@CInifile@@PEAPEAU12@V?$xalloc@PEAUSect@CInifile@@@@PEAU12@@std@@YAPEAPEAUSect@CInifile@@PEAPEAU12@00AEAV?$xalloc@PEAUSect@CInifile@@@@0U_Scalar_ptr_iterator_tag@0@@Z ENDP ; std::_Uninit_move<CInifile::Sect * __ptr64 * __ptr64,CInifile::Sect * __ptr64 * __ptr64,xalloc<CInifile::Sect * __ptr64>,CInifile::Sect * __ptr64>
; Function compile flags: /Ogtpy
; File c:\program files (x86)\microsoft visual studio 10.0\vc\include\vector
_TEXT	ENDS
;	COMDAT ??G?$_Vector_iterator@V?$_Vector_val@UItem@CInifile@@V?$xalloc@UItem@CInifile@@@@@std@@@std@@QEBA_JAEBV?$_Vector_const_iterator@V?$_Vector_val@UItem@CInifile@@V?$xalloc@UItem@CInifile@@@@@std@@@1@@Z
_TEXT	SEGMENT
this$ = 8
_Right$ = 16
??G?$_Vector_iterator@V?$_Vector_val@UItem@CInifile@@V?$xalloc@UItem@CInifile@@@@@std@@@std@@QEBA_JAEBV?$_Vector_const_iterator@V?$_Vector_val@UItem@CInifile@@V?$xalloc@UItem@CInifile@@@@@std@@@1@@Z PROC ; std::_Vector_iterator<std::_Vector_val<CInifile::Item,xalloc<CInifile::Item> > >::operator-, COMDAT

; 381  : 		return (*(_Mybase *)this - _Right);

	mov	rax, QWORD PTR [rcx]
	sub	rax, QWORD PTR [rdx]
	sar	rax, 4

; 382  : 		}

	ret	0
??G?$_Vector_iterator@V?$_Vector_val@UItem@CInifile@@V?$xalloc@UItem@CInifile@@@@@std@@@std@@QEBA_JAEBV?$_Vector_const_iterator@V?$_Vector_val@UItem@CInifile@@V?$xalloc@UItem@CInifile@@@@@std@@@1@@Z ENDP ; std::_Vector_iterator<std::_Vector_val<CInifile::Item,xalloc<CInifile::Item> > >::operator-
; Function compile flags: /Ogtpy
; File c:\program files (x86)\microsoft visual studio 10.0\vc\include\memory
_TEXT	ENDS
;	COMDAT ??$_Uninitialized_move@PEAPEAUSect@CInifile@@PEAPEAU12@V?$xalloc@PEAUSect@CInifile@@@@@std@@YAPEAPEAUSect@CInifile@@PEAPEAU12@00AEAV?$xalloc@PEAUSect@CInifile@@@@@Z
_TEXT	SEGMENT
_First$ = 8
_Last$ = 16
_Dest$ = 24
??$_Uninitialized_move@PEAPEAUSect@CInifile@@PEAPEAU12@V?$xalloc@PEAUSect@CInifile@@@@@std@@YAPEAPEAUSect@CInifile@@PEAPEAU12@00AEAV?$xalloc@PEAUSect@CInifile@@@@@Z PROC ; std::_Uninitialized_move<CInifile::Sect * __ptr64 * __ptr64,CInifile::Sect * __ptr64 * __ptr64,xalloc<CInifile::Sect * __ptr64> >, COMDAT

; 470  : 	return (_Uninit_move(_First, _Last, _Dest, _Al,
; 471  : 		_Val_type(_First), _Ptr_cat(_First, _Dest)));
; 472  : 	}

	jmp	??$_Uninit_move@PEAPEAUSect@CInifile@@PEAPEAU12@V?$xalloc@PEAUSect@CInifile@@@@PEAU12@@std@@YAPEAPEAUSect@CInifile@@PEAPEAU12@00AEAV?$xalloc@PEAUSect@CInifile@@@@0U_Nonscalar_ptr_iterator_tag@0@@Z ; std::_Uninit_move<CInifile::Sect * __ptr64 * __ptr64,CInifile::Sect * __ptr64 * __ptr64,xalloc<CInifile::Sect * __ptr64>,CInifile::Sect * __ptr64>
??$_Uninitialized_move@PEAPEAUSect@CInifile@@PEAPEAU12@V?$xalloc@PEAUSect@CInifile@@@@@std@@YAPEAPEAUSect@CInifile@@PEAPEAU12@00AEAV?$xalloc@PEAUSect@CInifile@@@@@Z ENDP ; std::_Uninitialized_move<CInifile::Sect * __ptr64 * __ptr64,CInifile::Sect * __ptr64 * __ptr64,xalloc<CInifile::Sect * __ptr64> >
; Function compile flags: /Ogtpy
; File c:\program files (x86)\microsoft visual studio 10.0\vc\include\xutility
_TEXT	ENDS
;	COMDAT ??$_Distance2@V?$_Vector_iterator@V?$_Vector_val@UItem@CInifile@@V?$xalloc@UItem@CInifile@@@@@std@@@std@@_J@std@@YAXV?$_Vector_iterator@V?$_Vector_val@UItem@CInifile@@V?$xalloc@UItem@CInifile@@@@@std@@@0@0AEA_JUrandom_access_iterator_tag@0@@Z
_TEXT	SEGMENT
_First$ = 8
_Last$ = 16
_Off$ = 24
??$_Distance2@V?$_Vector_iterator@V?$_Vector_val@UItem@CInifile@@V?$xalloc@UItem@CInifile@@@@@std@@@std@@_J@std@@YAXV?$_Vector_iterator@V?$_Vector_val@UItem@CInifile@@V?$xalloc@UItem@CInifile@@@@@std@@@0@0AEA_JUrandom_access_iterator_tag@0@@Z PROC ; std::_Distance2<std::_Vector_iterator<std::_Vector_val<CInifile::Item,xalloc<CInifile::Item> > >,__int64>, COMDAT

; 886  :  #if _ITERATOR_DEBUG_LEVEL == 2
; 887  : 	if (_First != _Last)
; 888  : 		{	// check for null pointers
; 889  : 		_DEBUG_POINTER(_First);
; 890  : 		_DEBUG_POINTER(_Last);
; 891  : 		}
; 892  :  #endif /* _ITERATOR_DEBUG_LEVEL == 2 */
; 893  : 
; 894  : 	_Off += _Last - _First;

	sub	rdx, rcx
	sar	rdx, 4
	add	QWORD PTR [r8], rdx

; 895  : 	}

	ret	0
??$_Distance2@V?$_Vector_iterator@V?$_Vector_val@UItem@CInifile@@V?$xalloc@UItem@CInifile@@@@@std@@@std@@_J@std@@YAXV?$_Vector_iterator@V?$_Vector_val@UItem@CInifile@@V?$xalloc@UItem@CInifile@@@@@std@@@0@0AEA_JUrandom_access_iterator_tag@0@@Z ENDP ; std::_Distance2<std::_Vector_iterator<std::_Vector_val<CInifile::Item,xalloc<CInifile::Item> > >,__int64>
; Function compile flags: /Ogtpy
; File c:\program files (x86)\microsoft visual studio 10.0\vc\include\vector
_TEXT	ENDS
;	COMDAT ??$_Umove@PEAPEAUSect@CInifile@@@?$vector@PEAUSect@CInifile@@V?$xalloc@PEAUSect@CInifile@@@@@std@@IEAAPEAPEAUSect@CInifile@@PEAPEAU23@00@Z
_TEXT	SEGMENT
_First$ = 8
_Last$ = 16
_Ptr$ = 24
??$_Umove@PEAPEAUSect@CInifile@@@?$vector@PEAUSect@CInifile@@V?$xalloc@PEAUSect@CInifile@@@@@std@@IEAAPEAPEAUSect@CInifile@@PEAPEAU23@00@Z PROC ; std::vector<CInifile::Sect * __ptr64,xalloc<CInifile::Sect * __ptr64> >::_Umove<CInifile::Sect * __ptr64 * __ptr64>, COMDAT

; 1323 : 		{	// move initializing [_First, _Last), using allocator
; 1324 : 		return (_Uninitialized_move(_First, _Last,
; 1325 : 			_Ptr, this->_Alval));
; 1326 : 		}

	jmp	??$_Uninit_move@PEAPEAUSect@CInifile@@PEAPEAU12@V?$xalloc@PEAUSect@CInifile@@@@PEAU12@@std@@YAPEAPEAUSect@CInifile@@PEAPEAU12@00AEAV?$xalloc@PEAUSect@CInifile@@@@0U_Nonscalar_ptr_iterator_tag@0@@Z ; std::_Uninit_move<CInifile::Sect * __ptr64 * __ptr64,CInifile::Sect * __ptr64 * __ptr64,xalloc<CInifile::Sect * __ptr64>,CInifile::Sect * __ptr64>
??$_Umove@PEAPEAUSect@CInifile@@@?$vector@PEAUSect@CInifile@@V?$xalloc@PEAUSect@CInifile@@@@@std@@IEAAPEAPEAUSect@CInifile@@PEAPEAU23@00@Z ENDP ; std::vector<CInifile::Sect * __ptr64,xalloc<CInifile::Sect * __ptr64> >::_Umove<CInifile::Sect * __ptr64 * __ptr64>
; Function compile flags: /Ogtpy
; File c:\program files (x86)\microsoft visual studio 10.0\vc\include\xutility
_TEXT	ENDS
;	COMDAT ??$distance@V?$_Vector_iterator@V?$_Vector_val@UItem@CInifile@@V?$xalloc@UItem@CInifile@@@@@std@@@std@@@std@@YA_JV?$_Vector_iterator@V?$_Vector_val@UItem@CInifile@@V?$xalloc@UItem@CInifile@@@@@std@@@0@0@Z
_TEXT	SEGMENT
_First$ = 8
_Last$ = 16
??$distance@V?$_Vector_iterator@V?$_Vector_val@UItem@CInifile@@V?$xalloc@UItem@CInifile@@@@@std@@@std@@@std@@YA_JV?$_Vector_iterator@V?$_Vector_val@UItem@CInifile@@V?$xalloc@UItem@CInifile@@@@@std@@@0@0@Z PROC ; std::distance<std::_Vector_iterator<std::_Vector_val<CInifile::Item,xalloc<CInifile::Item> > > >, COMDAT

; 901  : 	typename iterator_traits<_InIt>::difference_type _Off = 0;
; 902  : 	_Distance2(_First, _Last, _Off, _Iter_cat(_First));

	sub	rdx, rcx
	sar	rdx, 4

; 903  : 	return (_Off);

	mov	rax, rdx

; 904  : 	}

	ret	0
??$distance@V?$_Vector_iterator@V?$_Vector_val@UItem@CInifile@@V?$xalloc@UItem@CInifile@@@@@std@@@std@@@std@@YA_JV?$_Vector_iterator@V?$_Vector_val@UItem@CInifile@@V?$xalloc@UItem@CInifile@@@@@std@@@0@0@Z ENDP ; std::distance<std::_Vector_iterator<std::_Vector_val<CInifile::Item,xalloc<CInifile::Item> > > >
_TEXT	ENDS
EXTRN	__RTCastToVoid:PROC
;	COMDAT pdata
; File c:\users\nummer\documents\github\olr-3.0\src\xray\xrcore\xrsyncronize.cpp
pdata	SEGMENT
$pdata$??R?$xr_special_free@$00VCInifile@@@@QEAAXAEAPEAVCInifile@@@Z DD imagerel $LN28
	DD	imagerel $LN28+84
	DD	imagerel $unwind$??R?$xr_special_free@$00VCInifile@@@@QEAAXAEAPEAVCInifile@@@Z
pdata	ENDS
;	COMDAT pdata
pdata	SEGMENT
$pdata$0$??R?$xr_special_free@$00VCInifile@@@@QEAAXAEAPEAVCInifile@@@Z DD imagerel $LN28+84
	DD	imagerel $LN28+134
	DD	imagerel $chain$0$??R?$xr_special_free@$00VCInifile@@@@QEAAXAEAPEAVCInifile@@@Z
pdata	ENDS
;	COMDAT pdata
pdata	SEGMENT
$pdata$1$??R?$xr_special_free@$00VCInifile@@@@QEAAXAEAPEAVCInifile@@@Z DD imagerel $LN28+134
	DD	imagerel $LN28+145
	DD	imagerel $chain$1$??R?$xr_special_free@$00VCInifile@@@@QEAAXAEAPEAVCInifile@@@Z
pdata	ENDS
;	COMDAT xdata
xdata	SEGMENT
$chain$1$??R?$xr_special_free@$00VCInifile@@@@QEAAXAEAPEAVCInifile@@@Z DD 021H
	DD	imagerel $LN28
	DD	imagerel $LN28+84
	DD	imagerel $unwind$??R?$xr_special_free@$00VCInifile@@@@QEAAXAEAPEAVCInifile@@@Z
xdata	ENDS
;	COMDAT xdata
xdata	SEGMENT
$chain$0$??R?$xr_special_free@$00VCInifile@@@@QEAAXAEAPEAVCInifile@@@Z DD 020521H
	DD	066405H
	DD	imagerel $LN28
	DD	imagerel $LN28+84
	DD	imagerel $unwind$??R?$xr_special_free@$00VCInifile@@@@QEAAXAEAPEAVCInifile@@@Z
xdata	ENDS
;	COMDAT xdata
xdata	SEGMENT
$unwind$??R?$xr_special_free@$00VCInifile@@@@QEAAXAEAPEAVCInifile@@@Z DD 040a01H
	DD	07340aH
	DD	07006320aH
; Function compile flags: /Ogtpy
; File c:\users\nummer\documents\github\olr-3.0\src\xray\xrcore\xrmemory_subst_msvc.h
xdata	ENDS
;	COMDAT ??R?$xr_special_free@$00VCInifile@@@@QEAAXAEAPEAVCInifile@@@Z
_TEXT	SEGMENT
ptr$ = 48
??R?$xr_special_free@$00VCInifile@@@@QEAAXAEAPEAVCInifile@@@Z PROC ; xr_special_free<1,CInifile>::operator(), COMDAT

; 131  : 	{

$LN28:
	mov	QWORD PTR [rsp+16], rbx
	push	rdi
	sub	rsp, 32					; 00000020H
	mov	rbx, rcx

; 132  : 		void*	_real_ptr	= dynamic_cast<void*>(ptr);

	mov	rcx, QWORD PTR [rcx]
	call	__RTCastToVoid

; 133  : 		ptr->~T			();

	mov	rcx, QWORD PTR [rbx]
	xor	edx, edx
	mov	r8, QWORD PTR [rcx]

; 134  : 		Memory.mem_free	(_real_ptr);

	lea	rdi, QWORD PTR [rax-1]
	call	QWORD PTR [r8]
	inc	DWORD PTR ?Memory@@3VxrMemory@@A
	movzx	eax, BYTE PTR [rdi]
	cmp	eax, 55					; 00000037H
	jne	SHORT $LN5@operator@12
	test	rdi, rdi
	je	SHORT $LN26@operator@12
	and	rdi, -8
	mov	rcx, QWORD PTR [rdi-8]

; 135  : 	}

	mov	rbx, QWORD PTR [rsp+56]
	add	rsp, 32					; 00000020H
	pop	rdi
	rex_jmp	QWORD PTR __imp_free

; 134  : 		Memory.mem_free	(_real_ptr);

$LN5@operator@12:
	lea	rbx, QWORD PTR [rax+rax*4]
	mov	QWORD PTR [rsp+48], rsi
	lea	rsi, OFFSET FLAT:?mem_pools@@3PAVMEMPOOL@@A ; mem_pools
	mov	rcx, QWORD PTR [rsi+rbx*8]
	call	QWORD PTR __imp_EnterCriticalSection
	mov	rax, QWORD PTR [rsi+rbx*8+32]
	mov	QWORD PTR [rdi], rax
	mov	rcx, QWORD PTR [rsi+rbx*8]
	mov	QWORD PTR [rsi+rbx*8+32], rdi
	call	QWORD PTR __imp_LeaveCriticalSection
	mov	rsi, QWORD PTR [rsp+48]
$LN26@operator@12:

; 135  : 	}

	mov	rbx, QWORD PTR [rsp+56]
	add	rsp, 32					; 00000020H
	pop	rdi
	ret	0
??R?$xr_special_free@$00VCInifile@@@@QEAAXAEAPEAVCInifile@@@Z ENDP ; xr_special_free<1,CInifile>::operator()
_TEXT	ENDS
;	COMDAT pdata
pdata	SEGMENT
$pdata$??$xr_delete@VCInifile@@@@YAXAEAPEAVCInifile@@@Z DD imagerel $LN4
	DD	imagerel $LN4+33
	DD	imagerel $unwind$??$xr_delete@VCInifile@@@@YAXAEAPEAVCInifile@@@Z
pdata	ENDS
;	COMDAT xdata
xdata	SEGMENT
$unwind$??$xr_delete@VCInifile@@@@YAXAEAPEAVCInifile@@@Z DD 020601H
	DD	030023206H
; Function compile flags: /Ogtpy
xdata	ENDS
;	COMDAT ??$xr_delete@VCInifile@@@@YAXAEAPEAVCInifile@@@Z
_TEXT	SEGMENT
ptr$ = 48
??$xr_delete@VCInifile@@@@YAXAEAPEAVCInifile@@@Z PROC	; xr_delete<CInifile>, COMDAT

; 150  : {

$LN4:
	push	rbx
	sub	rsp, 32					; 00000020H

; 151  : 	if (ptr) 

	cmp	QWORD PTR [rcx], 0
	mov	rbx, rcx
	je	SHORT $LN1@xr_delete

; 152  : 	{
; 153  : 		xr_special_free<xrcore::is_polymorphic<T>::result,T>()(ptr);

	call	??R?$xr_special_free@$00VCInifile@@@@QEAAXAEAPEAVCInifile@@@Z ; xr_special_free<1,CInifile>::operator()

; 154  : 		ptr = NULL;

	mov	QWORD PTR [rbx], 0
$LN1@xr_delete:

; 155  : 	}
; 156  : }

	add	rsp, 32					; 00000020H
	pop	rbx
	ret	0
??$xr_delete@VCInifile@@@@YAXAEAPEAVCInifile@@@Z ENDP	; xr_delete<CInifile>
; Function compile flags: /Ogtpy
; File c:\program files (x86)\microsoft visual studio 10.0\vc\include\vector
_TEXT	ENDS
;	COMDAT ??C?$_Vector_iterator@V?$_Vector_val@UItem@CInifile@@V?$xalloc@UItem@CInifile@@@@@std@@@std@@QEBAPEAUItem@CInifile@@XZ
_TEXT	SEGMENT
this$ = 8
??C?$_Vector_iterator@V?$_Vector_val@UItem@CInifile@@V?$xalloc@UItem@CInifile@@@@@std@@@std@@QEBAPEAUItem@CInifile@@XZ PROC ; std::_Vector_iterator<std::_Vector_val<CInifile::Item,xalloc<CInifile::Item> > >::operator->, COMDAT

; 327  : 		return (&**this);

	mov	rax, QWORD PTR [rcx]

; 328  : 		}

	ret	0
??C?$_Vector_iterator@V?$_Vector_val@UItem@CInifile@@V?$xalloc@UItem@CInifile@@@@@std@@@std@@QEBAPEAUItem@CInifile@@XZ ENDP ; std::_Vector_iterator<std::_Vector_val<CInifile::Item,xalloc<CInifile::Item> > >::operator->
_TEXT	ENDS
PUBLIC	?Destroy@CInifile@@SAXPEAV1@@Z			; CInifile::Destroy
pdata	SEGMENT
$pdata$?Destroy@CInifile@@SAXPEAV1@@Z DD imagerel $LN7
	DD	imagerel $LN7+30
	DD	imagerel $unwind$?Destroy@CInifile@@SAXPEAV1@@Z
pdata	ENDS
xdata	SEGMENT
$unwind$?Destroy@CInifile@@SAXPEAV1@@Z DD 010e01H
	DD	0420eH
; Function compile flags: /Ogtpy
; File c:\users\nummer\documents\github\olr-3.0\src\xray\xrcore\xr_ini.cpp
xdata	ENDS
_TEXT	SEGMENT
ini$ = 48
?Destroy@CInifile@@SAXPEAV1@@Z PROC			; CInifile::Destroy

; 12   : {	xr_delete(ini); }

$LN7:
	test	rcx, rcx
	je	SHORT $LN6@Destroy
	mov	QWORD PTR [rsp+8], rcx
	sub	rsp, 40					; 00000028H
	lea	rcx, QWORD PTR ini$[rsp]
	call	??R?$xr_special_free@$00VCInifile@@@@QEAAXAEAPEAVCInifile@@@Z ; xr_special_free<1,CInifile>::operator()
	add	rsp, 40					; 00000028H
$LN6@Destroy:
	fatret	0
?Destroy@CInifile@@SAXPEAV1@@Z ENDP			; CInifile::Destroy
; Function compile flags: /Ogtpy
; File c:\users\nummer\documents\github\olr-3.0\src\xray\xrcore\_stl_extensions.h
;	COMDAT ??0?$xr_vector@PEAUSect@CInifile@@V?$xalloc@PEAUSect@CInifile@@@@@@QEAA@XZ
_TEXT	SEGMENT
this$ = 8
??0?$xr_vector@PEAUSect@CInifile@@V?$xalloc@PEAUSect@CInifile@@@@@@QEAA@XZ PROC ; xr_vector<CInifile::Sect * __ptr64,xalloc<CInifile::Sect * __ptr64> >::xr_vector<CInifile::Sect * __ptr64,xalloc<CInifile::Sect * __ptr64> >, COMDAT

; 122  : 			xr_vector			()									: inherited	()					{}

	xor	eax, eax
	mov	QWORD PTR [rcx], rax
	mov	QWORD PTR [rcx+8], rax
	mov	QWORD PTR [rcx+16], rax
	mov	rax, rcx
	ret	0
??0?$xr_vector@PEAUSect@CInifile@@V?$xalloc@PEAUSect@CInifile@@@@@@QEAA@XZ ENDP ; xr_vector<CInifile::Sect * __ptr64,xalloc<CInifile::Sect * __ptr64> >::xr_vector<CInifile::Sect * __ptr64,xalloc<CInifile::Sect * __ptr64> >
_TEXT	ENDS
PUBLIC	?section_exist@CInifile@@QEAAHPEBD@Z		; CInifile::section_exist
pdata	SEGMENT
$pdata$?section_exist@CInifile@@QEAAHPEBD@Z DD imagerel $LN95
	DD	imagerel $LN95+32
	DD	imagerel $unwind$?section_exist@CInifile@@QEAAHPEBD@Z
$pdata$0$?section_exist@CInifile@@QEAAHPEBD@Z DD imagerel $LN95+32
	DD	imagerel $LN95+148
	DD	imagerel $chain$0$?section_exist@CInifile@@QEAAHPEBD@Z
$pdata$1$?section_exist@CInifile@@QEAAHPEBD@Z DD imagerel $LN95+148
	DD	imagerel $LN95+219
	DD	imagerel $chain$1$?section_exist@CInifile@@QEAAHPEBD@Z
pdata	ENDS
xdata	SEGMENT
$unwind$?section_exist@CInifile@@QEAAHPEBD@Z DD 030601H
	DD	033406H
	DD	07006H
$chain$0$?section_exist@CInifile@@QEAAHPEBD@Z DD 020521H
	DD	026405H
	DD	imagerel $LN95
	DD	imagerel $LN95+32
	DD	imagerel $unwind$?section_exist@CInifile@@QEAAHPEBD@Z
$chain$1$?section_exist@CInifile@@QEAAHPEBD@Z DD 021H
	DD	imagerel $LN95
	DD	imagerel $LN95+32
	DD	imagerel $unwind$?section_exist@CInifile@@QEAAHPEBD@Z
; Function compile flags: /Ogtpy
; File c:\users\nummer\documents\github\olr-3.0\src\xray\xrcore\xr_ini.cpp
xdata	ENDS
_TEXT	SEGMENT
this$ = 16
S$ = 24
?section_exist@CInifile@@QEAAHPEBD@Z PROC		; CInifile::section_exist

; 305  : {

$LN95:
	mov	QWORD PTR [rsp+16], rbx
	push	rdi

; 306  : 	RootIt I = std::lower_bound(DATA.begin(),DATA.end(),S,sect_pred);

	mov	r8, QWORD PTR [rcx+24]
	mov	rdi, QWORD PTR [rcx+16]
	mov	rbx, rdx
	mov	r9, r8
	sub	r9, rdi
	sar	r9, 3
	test	r9, r9
	jle	SHORT $LN35@section_ex
	mov	QWORD PTR [rsp+16], rsi
	npad	11
$LL36@section_ex:
	mov	rax, r9
	cdq
	sub	rax, rdx
	sar	rax, 1
	mov	r11, rax
	lea	rsi, QWORD PTR [rdi+rax*8]
	mov	rax, QWORD PTR [rdi+rax*8]
	mov	rax, QWORD PTR [rax]
	test	rax, rax
	je	SHORT $LN56@section_ex
	add	rax, 12
$LN56@section_ex:
	mov	r10, rbx
	sub	r10, rax
	npad	8
$LL93@section_ex:
	movzx	edx, BYTE PTR [rax]
	movzx	ecx, BYTE PTR [rax+r10]
	sub	edx, ecx
	jne	SHORT $LN94@section_ex
	inc	rax
	test	ecx, ecx
	jne	SHORT $LL93@section_ex
$LN94@section_ex:
	test	edx, edx
	jns	SHORT $LN34@section_ex
	or	rax, -1
	lea	rdi, QWORD PTR [rsi+8]
	sub	rax, r11
	add	r9, rax
	jmp	SHORT $LN33@section_ex
$LN34@section_ex:
	mov	r9, r11
$LN33@section_ex:
	test	r9, r9
	jg	SHORT $LL36@section_ex
	mov	rsi, QWORD PTR [rsp+16]
$LN35@section_ex:

; 307  : 	return (I!=DATA.end() && xr_strcmp(*(*I)->Name,S)==0);

	cmp	rdi, r8
	je	SHORT $LN3@section_ex
	mov	rax, QWORD PTR [rdi]
	mov	rax, QWORD PTR [rax]
	test	rax, rax
	je	SHORT $LN87@section_ex
	add	rax, 12
$LN87@section_ex:
	sub	rbx, rax
	npad	5
$LL91@section_ex:
	movzx	edx, BYTE PTR [rax]
	movzx	ecx, BYTE PTR [rax+rbx]
	sub	edx, ecx
	jne	SHORT $LN92@section_ex
	inc	rax
	test	ecx, ecx
	jne	SHORT $LL91@section_ex
$LN92@section_ex:
	test	edx, edx
	jne	SHORT $LN3@section_ex
	mov	eax, 1

; 308  : }

	mov	rbx, QWORD PTR [rsp+24]
	pop	rdi
	ret	0
$LN3@section_ex:

; 307  : 	return (I!=DATA.end() && xr_strcmp(*(*I)->Name,S)==0);

	xor	eax, eax

; 308  : }

	mov	rbx, QWORD PTR [rsp+24]
	pop	rdi
	ret	0
?section_exist@CInifile@@QEAAHPEBD@Z ENDP		; CInifile::section_exist
;	COMDAT pdata
; File c:\users\nummer\documents\github\olr-3.0\src\xray\xrcore\xrstring.h
pdata	SEGMENT
$pdata$??$swap@UItem@CInifile@@@std@@YAXAEAUItem@CInifile@@0@Z DD imagerel $LN83
	DD	imagerel $LN83+214
	DD	imagerel $unwind$??$swap@UItem@CInifile@@@std@@YAXAEAUItem@CInifile@@0@Z
pdata	ENDS
;	COMDAT xdata
xdata	SEGMENT
$unwind$??$swap@UItem@CInifile@@@std@@YAXAEAUItem@CInifile@@0@Z DD 020501H
	DD	013405H
; Function compile flags: /Ogtpy
; File c:\program files (x86)\microsoft visual studio 10.0\vc\include\utility
xdata	ENDS
;	COMDAT ??$swap@UItem@CInifile@@@std@@YAXAEAUItem@CInifile@@0@Z
_TEXT	SEGMENT
_Left$ = 8
_Right$ = 16
??$swap@UItem@CInifile@@@std@@YAXAEAUItem@CInifile@@0@Z PROC ; std::swap<CInifile::Item>, COMDAT

; 101  : 	{	// exchange values stored at _Left and _Right

$LN83:
	mov	QWORD PTR [rsp+8], rbx

; 102  : 	_Ty _Tmp = _Move(_Left);

	mov	r8, QWORD PTR [rcx]
	mov	r10, rcx
	test	r8, r8
	je	SHORT $LN12@swap
	inc	DWORD PTR [r8]
$LN12@swap:
	mov	r9, QWORD PTR [rcx+8]
	test	r9, r9
	je	SHORT $LN18@swap
	inc	DWORD PTR [r9]
$LN18@swap:

; 103  : 	_Left = _Move(_Right);

	mov	r11, QWORD PTR [rdx]
	test	r11, r11
	je	SHORT $LN31@swap
	inc	DWORD PTR [r11]
$LN31@swap:
	mov	rax, QWORD PTR [rcx]
	xor	ebx, ebx
	test	rax, rax
	je	SHORT $LN34@swap
	dec	DWORD PTR [rax]
	mov	rax, QWORD PTR [rcx]
	cmp	DWORD PTR [rax], ebx
	mov	rcx, rax
	cmove	rcx, rbx
	mov	QWORD PTR [r10], rcx
$LN34@swap:
	mov	QWORD PTR [r10], r11
	mov	r11, QWORD PTR [rdx+8]
	test	r11, r11
	je	SHORT $LN40@swap
	inc	DWORD PTR [r11]
$LN40@swap:
	mov	rax, QWORD PTR [r10+8]
	test	rax, rax
	je	SHORT $LN43@swap
	dec	DWORD PTR [rax]
	mov	rax, QWORD PTR [r10+8]
	cmp	DWORD PTR [rax], ebx
	mov	rcx, rax
	cmove	rcx, rbx
	mov	QWORD PTR [r10+8], rcx
$LN43@swap:
	mov	QWORD PTR [r10+8], r11

; 104  : 	_Right = _Move(_Tmp);

	test	r8, r8
	je	SHORT $LN53@swap
	inc	DWORD PTR [r8]
$LN53@swap:
	mov	rax, QWORD PTR [rdx]
	test	rax, rax
	je	SHORT $LN56@swap
	dec	DWORD PTR [rax]
	mov	rax, QWORD PTR [rdx]
	cmp	DWORD PTR [rax], ebx
	mov	rcx, rax
	cmove	rcx, rbx
	mov	QWORD PTR [rdx], rcx
$LN56@swap:
	mov	QWORD PTR [rdx], r8
	test	r9, r9
	je	SHORT $LN62@swap
	inc	DWORD PTR [r9]
$LN62@swap:
	mov	rax, QWORD PTR [rdx+8]
	test	rax, rax
	je	SHORT $LN65@swap
	dec	DWORD PTR [rax]
	mov	rax, QWORD PTR [rdx+8]
	cmp	DWORD PTR [rax], ebx
	mov	rcx, rax
	cmove	rcx, rbx
	mov	QWORD PTR [rdx+8], rcx
$LN65@swap:
	mov	QWORD PTR [rdx+8], r9

; 105  : 	}

	test	r9, r9
	je	SHORT $LN73@swap
	dec	DWORD PTR [r9]
$LN73@swap:
	test	r8, r8
	je	SHORT $LN79@swap
	dec	DWORD PTR [r8]
$LN79@swap:
	mov	rbx, QWORD PTR [rsp+8]
	ret	0
??$swap@UItem@CInifile@@@std@@YAXAEAUItem@CInifile@@0@Z ENDP ; std::swap<CInifile::Item>
; Function compile flags: /Ogtpy
; File c:\program files (x86)\microsoft visual studio 10.0\vc\include\xutility
_TEXT	ENDS
;	COMDAT ??$iter_swap@PEAUItem@CInifile@@PEAU12@@std@@YAXPEAUItem@CInifile@@0@Z
_TEXT	SEGMENT
_Left$ = 8
_Right$ = 16
??$iter_swap@PEAUItem@CInifile@@PEAU12@@std@@YAXPEAUItem@CInifile@@0@Z PROC ; std::iter_swap<CInifile::Item * __ptr64,CInifile::Item * __ptr64>, COMDAT

; 2134 : 	swap(*_Left, *_Right);
; 2135 : 	}

	jmp	??$swap@UItem@CInifile@@@std@@YAXAEAUItem@CInifile@@0@Z ; std::swap<CInifile::Item>
??$iter_swap@PEAUItem@CInifile@@PEAU12@@std@@YAXPEAUItem@CInifile@@0@Z ENDP ; std::iter_swap<CInifile::Item * __ptr64,CInifile::Item * __ptr64>
_TEXT	ENDS
;	COMDAT pdata
pdata	SEGMENT
$pdata$??$_Rotate@PEAUItem@CInifile@@_JU12@@std@@YAXPEAUItem@CInifile@@00PEA_J0@Z DD imagerel $LN25
	DD	imagerel $LN25+97
	DD	imagerel $unwind$??$_Rotate@PEAUItem@CInifile@@_JU12@@std@@YAXPEAUItem@CInifile@@00PEA_J0@Z
pdata	ENDS
;	COMDAT pdata
pdata	SEGMENT
$pdata$2$??$_Rotate@PEAUItem@CInifile@@_JU12@@std@@YAXPEAUItem@CInifile@@00PEA_J0@Z DD imagerel $LN25+97
	DD	imagerel $LN25+220
	DD	imagerel $chain$2$??$_Rotate@PEAUItem@CInifile@@_JU12@@std@@YAXPEAUItem@CInifile@@00PEA_J0@Z
pdata	ENDS
;	COMDAT pdata
pdata	SEGMENT
$pdata$3$??$_Rotate@PEAUItem@CInifile@@_JU12@@std@@YAXPEAUItem@CInifile@@00PEA_J0@Z DD imagerel $LN25+220
	DD	imagerel $LN25+236
	DD	imagerel $chain$3$??$_Rotate@PEAUItem@CInifile@@_JU12@@std@@YAXPEAUItem@CInifile@@00PEA_J0@Z
pdata	ENDS
;	COMDAT xdata
xdata	SEGMENT
$chain$3$??$_Rotate@PEAUItem@CInifile@@_JU12@@std@@YAXPEAUItem@CInifile@@00PEA_J0@Z DD 021H
	DD	imagerel $LN25
	DD	imagerel $LN25+97
	DD	imagerel $unwind$??$_Rotate@PEAUItem@CInifile@@_JU12@@std@@YAXPEAUItem@CInifile@@00PEA_J0@Z
xdata	ENDS
;	COMDAT xdata
xdata	SEGMENT
$chain$2$??$_Rotate@PEAUItem@CInifile@@_JU12@@std@@YAXPEAUItem@CInifile@@00PEA_J0@Z DD 060f21H
	DD	0a740fH
	DD	09640aH
	DD	083405H
	DD	imagerel $LN25
	DD	imagerel $LN25+97
	DD	imagerel $unwind$??$_Rotate@PEAUItem@CInifile@@_JU12@@std@@YAXPEAUItem@CInifile@@00PEA_J0@Z
xdata	ENDS
;	COMDAT xdata
xdata	SEGMENT
$unwind$??$_Rotate@PEAUItem@CInifile@@_JU12@@std@@YAXPEAUItem@CInifile@@00PEA_J0@Z DD 060f01H
	DD	0b540fH
	DD	0e00b320fH
	DD	0c007d009H
; Function compile flags: /Ogtpy
xdata	ENDS
;	COMDAT ??$_Rotate@PEAUItem@CInifile@@_JU12@@std@@YAXPEAUItem@CInifile@@00PEA_J0@Z
_TEXT	SEGMENT
_First$ = 64
_Mid$ = 72
_Last$ = 80
??$_Rotate@PEAUItem@CInifile@@_JU12@@std@@YAXPEAUItem@CInifile@@00PEA_J0@Z PROC ; std::_Rotate<CInifile::Item * __ptr64,__int64,CInifile::Item>, COMDAT

; 3256 : 	{	// rotate [_First, _Last), random-access iterators

$LN25:
	mov	QWORD PTR [rsp+32], rbp
	push	r12
	push	r13
	push	r14
	sub	rsp, 32					; 00000020H

; 3257 : 	_Diff _Shift = _Mid - _First;
; 3258 : 	_Diff _Count = _Last - _First;

	mov	r9, r8
	mov	r12, rdx
	mov	r14, r8
	sub	r12, rcx
	sub	r9, rcx
	mov	r13, rcx
	sar	r12, 4
	sar	r9, 4
	mov	rbp, r9

; 3259 : 
; 3260 : 	for (_Diff _Factor = _Shift; _Factor != 0; )

	mov	r8, r12
	test	r12, r12
	je	SHORT $LN8@Rotate@3
	npad	12
$LL9@Rotate@3:

; 3261 : 		{	// find subcycle count as GCD of shift count and length
; 3262 : 		_Diff _Tmp = _Count % _Factor;

	mov	rax, rbp

; 3263 : 		_Count = _Factor;

	mov	rbp, r8
	cdq
	idiv	r8

; 3264 : 		_Factor = _Tmp;

	mov	r8, rdx
	test	rdx, rdx
	jne	SHORT $LL9@Rotate@3
$LN8@Rotate@3:

; 3265 : 		}
; 3266 : 
; 3267 : 	if (_Count < _Last - _First)

	cmp	rbp, r9
	jge	$LN4@Rotate@3

; 3268 : 		for (; 0 < _Count; --_Count)

	test	rbp, rbp
	jle	SHORT $LN4@Rotate@3
	mov	QWORD PTR [rsp+64], rbx
	mov	QWORD PTR [rsp+72], rsi
	mov	QWORD PTR [rsp+80], rdi
	mov	rdi, rbp
	mov	rsi, r12
	shl	rdi, 4
	shl	rsi, 4
	add	rdi, rcx
$LL6@Rotate@3:

; 3269 : 			{	// rotate each subcycle
; 3270 : 			_RanIt _Hole = _First + _Count;
; 3271 : 			_RanIt _Next = _Hole;
; 3272 : 			_RanIt _Next1 = _Next + _Shift == _Last ? _First : _Next + _Shift;

	lea	rbx, QWORD PTR [rdi+rsi]
	mov	rcx, rdi
	cmp	rbx, r14
	cmove	rbx, r13
	npad	1
$LL3@Rotate@3:

; 3273 : 			for (; ; )
; 3274 : 				{	// percolate elements back around subcycle
; 3275 : 				iter_swap(_Next, _Next1);

	mov	rdx, rbx
	call	??$swap@UItem@CInifile@@@std@@YAXAEAUItem@CInifile@@0@Z ; std::swap<CInifile::Item>

; 3276 : 				_Next = _Next1;
; 3277 : 				_Next1 = _Shift < _Last - _Next1 ? _Next1 + _Shift
; 3278 : 					: _First + (_Shift - (_Last - _Next1));

	mov	rax, r14
	mov	rcx, rbx
	sub	rax, rbx
	sar	rax, 4
	cmp	r12, rax
	jge	SHORT $LN14@Rotate@3
	add	rbx, rsi
	jmp	SHORT $LN15@Rotate@3
$LN14@Rotate@3:
	mov	rbx, r12
	sub	rbx, rax
	shl	rbx, 4
	add	rbx, r13
$LN15@Rotate@3:

; 3279 : 				if (_Next1 == _Hole)

	cmp	rbx, rdi
	jne	SHORT $LL3@Rotate@3

; 3268 : 		for (; 0 < _Count; --_Count)

	dec	rbp
	sub	rdi, 16
	test	rbp, rbp
	jg	SHORT $LL6@Rotate@3
	mov	rdi, QWORD PTR [rsp+80]
	mov	rsi, QWORD PTR [rsp+72]
	mov	rbx, QWORD PTR [rsp+64]
$LN4@Rotate@3:

; 3280 : 					break;
; 3281 : 				}
; 3282 : 			}
; 3283 : 	}

	mov	rbp, QWORD PTR [rsp+88]
	add	rsp, 32					; 00000020H
	pop	r14
	pop	r13
	pop	r12
	ret	0
??$_Rotate@PEAUItem@CInifile@@_JU12@@std@@YAXPEAUItem@CInifile@@00PEA_J0@Z ENDP ; std::_Rotate<CInifile::Item * __ptr64,__int64,CInifile::Item>
_TEXT	ENDS
;	COMDAT pdata
pdata	SEGMENT
$pdata$??$_Rotate@PEAUItem@CInifile@@@std@@YAXPEAUItem@CInifile@@00Urandom_access_iterator_tag@0@@Z DD imagerel $LN7
	DD	imagerel $LN7+14
	DD	imagerel $unwind$??$_Rotate@PEAUItem@CInifile@@@std@@YAXPEAUItem@CInifile@@00Urandom_access_iterator_tag@0@@Z
pdata	ENDS
;	COMDAT xdata
xdata	SEGMENT
$unwind$??$_Rotate@PEAUItem@CInifile@@@std@@YAXPEAUItem@CInifile@@00Urandom_access_iterator_tag@0@@Z DD 010401H
	DD	04204H
; Function compile flags: /Ogtpy
xdata	ENDS
;	COMDAT ??$_Rotate@PEAUItem@CInifile@@@std@@YAXPEAUItem@CInifile@@00Urandom_access_iterator_tag@0@@Z
_TEXT	SEGMENT
_First$ = 48
_Mid$ = 56
_Last$ = 64
??$_Rotate@PEAUItem@CInifile@@@std@@YAXPEAUItem@CInifile@@00Urandom_access_iterator_tag@0@@Z PROC ; std::_Rotate<CInifile::Item * __ptr64>, COMDAT

; 3288 : 	{	// rotate [_First, _Last), random-access iterators

$LN7:
	sub	rsp, 40					; 00000028H

; 3289 : 	_Rotate(_First, _Mid, _Last, _Dist_type(_First), _Val_type(_First));

	call	??$_Rotate@PEAUItem@CInifile@@_JU12@@std@@YAXPEAUItem@CInifile@@00PEA_J0@Z ; std::_Rotate<CInifile::Item * __ptr64,__int64,CInifile::Item>

; 3290 : 	}

	add	rsp, 40					; 00000028H
	ret	0
??$_Rotate@PEAUItem@CInifile@@@std@@YAXPEAUItem@CInifile@@00Urandom_access_iterator_tag@0@@Z ENDP ; std::_Rotate<CInifile::Item * __ptr64>
_TEXT	ENDS
;	COMDAT pdata
; File c:\program files (x86)\microsoft visual studio 10.0\vc\include\vector
pdata	SEGMENT
$pdata$??$rotate@V?$_Vector_iterator@V?$_Vector_val@UItem@CInifile@@V?$xalloc@UItem@CInifile@@@@@std@@@std@@@std@@YA?AV?$_Vector_iterator@V?$_Vector_val@UItem@CInifile@@V?$xalloc@UItem@CInifile@@@@@std@@@0@V10@00@Z DD imagerel $LN61
	DD	imagerel $LN61+99
	DD	imagerel $unwind$??$rotate@V?$_Vector_iterator@V?$_Vector_val@UItem@CInifile@@V?$xalloc@UItem@CInifile@@@@@std@@@std@@@std@@YA?AV?$_Vector_iterator@V?$_Vector_val@UItem@CInifile@@V?$xalloc@UItem@CInifile@@@@@std@@@0@V10@00@Z
pdata	ENDS
;	COMDAT xdata
xdata	SEGMENT
$unwind$??$rotate@V?$_Vector_iterator@V?$_Vector_val@UItem@CInifile@@V?$xalloc@UItem@CInifile@@@@@std@@@std@@@std@@YA?AV?$_Vector_iterator@V?$_Vector_val@UItem@CInifile@@V?$xalloc@UItem@CInifile@@@@@std@@@0@V10@00@Z DD 021401H
	DD	030103214H
; Function compile flags: /Ogtpy
; File c:\program files (x86)\microsoft visual studio 10.0\vc\include\xutility
xdata	ENDS
;	COMDAT ??$rotate@V?$_Vector_iterator@V?$_Vector_val@UItem@CInifile@@V?$xalloc@UItem@CInifile@@@@@std@@@std@@@std@@YA?AV?$_Vector_iterator@V?$_Vector_val@UItem@CInifile@@V?$xalloc@UItem@CInifile@@@@@std@@@0@V10@00@Z
_TEXT	SEGMENT
__$ReturnUdt$ = 48
_First$ = 56
_Mid$ = 64
_Last$ = 72
??$rotate@V?$_Vector_iterator@V?$_Vector_val@UItem@CInifile@@V?$xalloc@UItem@CInifile@@@@@std@@@std@@@std@@YA?AV?$_Vector_iterator@V?$_Vector_val@UItem@CInifile@@V?$xalloc@UItem@CInifile@@@@@std@@@0@V10@00@Z PROC ; std::rotate<std::_Vector_iterator<std::_Vector_val<CInifile::Item,xalloc<CInifile::Item> > > >, COMDAT

; 3294 : 	{	// rotate [_First, _Last)

$LN61:
	mov	QWORD PTR [rsp+32], r9
	mov	QWORD PTR [rsp+24], r8
	mov	QWORD PTR [rsp+16], rdx
	push	rbx
	sub	rsp, 32					; 00000020H
	mov	r10, r8
	mov	rax, rdx
	mov	rbx, rcx

; 3295 : 	_DEBUG_RANGE(_First, _Mid);
; 3296 : 	_DEBUG_RANGE(_Mid, _Last);
; 3297 : 	if (_First != _Mid && _Mid != _Last)

	cmp	rdx, r8
	je	SHORT $LN58@rotate@3
	cmp	r8, r9
	je	SHORT $LN58@rotate@3

; 3298 : 		{	// rotate and compute new first iterator
; 3299 : 		_Rotate(_Unchecked(_First), _Unchecked(_Mid), _Unchecked(_Last),
; 3300 : 			_Iter_cat(_First));

	mov	r8, r9
	mov	rdx, r10
	mov	rcx, rax
	call	??$_Rotate@PEAUItem@CInifile@@_JU12@@std@@YAXPEAUItem@CInifile@@00PEA_J0@Z ; std::_Rotate<CInifile::Item * __ptr64,__int64,CInifile::Item>

; 3301 : 		_STD advance(_First, _STD distance(_Mid, _Last));

	mov	r11, QWORD PTR _Last$[rsp]
	mov	rax, QWORD PTR _First$[rsp]
	sub	r11, QWORD PTR _Mid$[rsp]
	and	r11, -16
	add	rax, r11

; 3302 : 		}
; 3303 : 	return (_First);

	mov	QWORD PTR [rbx], rax
	mov	rax, rbx

; 3304 : 	}

	add	rsp, 32					; 00000020H
	pop	rbx
	ret	0
$LN58@rotate@3:

; 3302 : 		}
; 3303 : 	return (_First);

	mov	QWORD PTR [rcx], rdx
	mov	rax, rbx

; 3304 : 	}

	add	rsp, 32					; 00000020H
	pop	rbx
	ret	0
??$rotate@V?$_Vector_iterator@V?$_Vector_val@UItem@CInifile@@V?$xalloc@UItem@CInifile@@@@@std@@@std@@@std@@YA?AV?$_Vector_iterator@V?$_Vector_val@UItem@CInifile@@V?$xalloc@UItem@CInifile@@@@@std@@@0@V10@00@Z ENDP ; std::rotate<std::_Vector_iterator<std::_Vector_val<CInifile::Item,xalloc<CInifile::Item> > > >
; Function compile flags: /Ogtpy
_TEXT	ENDS
;	COMDAT ??$_Copy_backward@PEAUItem@CInifile@@PEAU12@@std@@YAPEAUItem@CInifile@@PEAU12@00U_Nonscalar_ptr_iterator_tag@0@@Z
_TEXT	SEGMENT
_First$ = 8
_Last$ = 16
_Dest$ = 24
??$_Copy_backward@PEAUItem@CInifile@@PEAU12@@std@@YAPEAUItem@CInifile@@PEAU12@00U_Nonscalar_ptr_iterator_tag@0@@Z PROC ; std::_Copy_backward<CInifile::Item * __ptr64,CInifile::Item * __ptr64>, COMDAT

; 2438 : 	{	// copy [_First, _Last) backwards to [..., _Dest), arbitrary iterators

	mov	r10, rcx

; 2439 : 	while (_First != _Last)

	cmp	rcx, rdx
	je	SHORT $LN27@Copy_backw
	xor	r11d, r11d
	npad	5
$LL2@Copy_backw:

; 2440 : 		*--_Dest = *--_Last;

	mov	r9, QWORD PTR [rdx-16]
	sub	rdx, 16
	sub	r8, 16
	test	r9, r9
	je	SHORT $LN9@Copy_backw
	inc	DWORD PTR [r9]
$LN9@Copy_backw:
	mov	rax, QWORD PTR [r8]
	test	rax, rax
	je	SHORT $LN12@Copy_backw
	dec	DWORD PTR [rax]
	mov	rax, QWORD PTR [r8]
	cmp	DWORD PTR [rax], r11d
	mov	rcx, rax
	cmove	rcx, r11
	mov	QWORD PTR [r8], rcx
$LN12@Copy_backw:
	mov	QWORD PTR [r8], r9
	mov	r9, QWORD PTR [rdx+8]
	test	r9, r9
	je	SHORT $LN18@Copy_backw
	inc	DWORD PTR [r9]
$LN18@Copy_backw:
	mov	rax, QWORD PTR [r8+8]
	test	rax, rax
	je	SHORT $LN21@Copy_backw
	dec	DWORD PTR [rax]
	mov	rax, QWORD PTR [r8+8]
	cmp	DWORD PTR [rax], r11d
	mov	rcx, rax
	cmove	rcx, r11
	mov	QWORD PTR [r8+8], rcx
$LN21@Copy_backw:
	mov	QWORD PTR [r8+8], r9
	cmp	rdx, r10
	jne	SHORT $LL2@Copy_backw
$LN27@Copy_backw:

; 2441 : 	return (_Dest);

	mov	rax, r8

; 2442 : 	}

	ret	0
??$_Copy_backward@PEAUItem@CInifile@@PEAU12@@std@@YAPEAUItem@CInifile@@PEAU12@00U_Nonscalar_ptr_iterator_tag@0@@Z ENDP ; std::_Copy_backward<CInifile::Item * __ptr64,CInifile::Item * __ptr64>
_TEXT	ENDS
;	COMDAT pdata
; File c:\users\nummer\documents\github\olr-3.0\src\xray\xrcore\xrstring.h
pdata	SEGMENT
$pdata$??$_Fill@PEAUItem@CInifile@@U12@@std@@YAXPEAUItem@CInifile@@0AEBU12@@Z DD imagerel $LN28
	DD	imagerel $LN28+15
	DD	imagerel $unwind$??$_Fill@PEAUItem@CInifile@@U12@@std@@YAXPEAUItem@CInifile@@0AEBU12@@Z
pdata	ENDS
;	COMDAT pdata
pdata	SEGMENT
$pdata$0$??$_Fill@PEAUItem@CInifile@@U12@@std@@YAXPEAUItem@CInifile@@0AEBU12@@Z DD imagerel $LN28+15
	DD	imagerel $LN28+116
	DD	imagerel $chain$0$??$_Fill@PEAUItem@CInifile@@U12@@std@@YAXPEAUItem@CInifile@@0AEBU12@@Z
pdata	ENDS
;	COMDAT pdata
pdata	SEGMENT
$pdata$1$??$_Fill@PEAUItem@CInifile@@U12@@std@@YAXPEAUItem@CInifile@@0AEBU12@@Z DD imagerel $LN28+116
	DD	imagerel $LN28+121
	DD	imagerel $chain$1$??$_Fill@PEAUItem@CInifile@@U12@@std@@YAXPEAUItem@CInifile@@0AEBU12@@Z
pdata	ENDS
;	COMDAT xdata
xdata	SEGMENT
$chain$1$??$_Fill@PEAUItem@CInifile@@U12@@std@@YAXPEAUItem@CInifile@@0AEBU12@@Z DD 021H
	DD	imagerel $LN28
	DD	imagerel $LN28+15
	DD	imagerel $unwind$??$_Fill@PEAUItem@CInifile@@U12@@std@@YAXPEAUItem@CInifile@@0AEBU12@@Z
xdata	ENDS
;	COMDAT xdata
xdata	SEGMENT
$chain$0$??$_Fill@PEAUItem@CInifile@@U12@@std@@YAXPEAUItem@CInifile@@0AEBU12@@Z DD 020421H
	DD	03404H
	DD	imagerel $LN28
	DD	imagerel $LN28+15
	DD	imagerel $unwind$??$_Fill@PEAUItem@CInifile@@U12@@std@@YAXPEAUItem@CInifile@@0AEBU12@@Z
xdata	ENDS
;	COMDAT xdata
xdata	SEGMENT
$unwind$??$_Fill@PEAUItem@CInifile@@U12@@std@@YAXPEAUItem@CInifile@@0AEBU12@@Z DD 010401H
	DD	0204H
; Function compile flags: /Ogtpy
; File c:\program files (x86)\microsoft visual studio 10.0\vc\include\xutility
xdata	ENDS
;	COMDAT ??$_Fill@PEAUItem@CInifile@@U12@@std@@YAXPEAUItem@CInifile@@0AEBU12@@Z
_TEXT	SEGMENT
_First$ = 16
_Last$ = 24
_Val$ = 32
??$_Fill@PEAUItem@CInifile@@U12@@std@@YAXPEAUItem@CInifile@@0AEBU12@@Z PROC ; std::_Fill<CInifile::Item * __ptr64,CInifile::Item>, COMDAT

; 2690 : 	{	// copy _Val through [_First, _Last)

$LN28:
	sub	rsp, 8
	mov	r11, rdx
	mov	r9, rcx

; 2691 : 	for (; _First != _Last; ++_First)

	cmp	rcx, rdx
	je	SHORT $LN1@Fill
	mov	QWORD PTR [rsp], rbx
	xor	ebx, ebx
$LL3@Fill:

; 2692 : 		*_First = _Val;

	mov	r10, QWORD PTR [r8]
	test	r10, r10
	je	SHORT $LN10@Fill
	inc	DWORD PTR [r10]
$LN10@Fill:
	mov	rax, QWORD PTR [r9]
	test	rax, rax
	je	SHORT $LN13@Fill
	dec	DWORD PTR [rax]
	mov	rax, QWORD PTR [r9]
	cmp	DWORD PTR [rax], ebx
	mov	rcx, rax
	cmove	rcx, rbx
	mov	QWORD PTR [r9], rcx
$LN13@Fill:
	mov	QWORD PTR [r9], r10
	mov	rdx, QWORD PTR [r8+8]
	test	rdx, rdx
	je	SHORT $LN19@Fill
	inc	DWORD PTR [rdx]
$LN19@Fill:
	mov	rax, QWORD PTR [r9+8]
	test	rax, rax
	je	SHORT $LN22@Fill
	dec	DWORD PTR [rax]
	mov	rax, QWORD PTR [r9+8]
	cmp	DWORD PTR [rax], ebx
	mov	rcx, rax
	cmove	rcx, rbx
	mov	QWORD PTR [r9+8], rcx
$LN22@Fill:
	mov	QWORD PTR [r9+8], rdx
	add	r9, 16
	cmp	r9, r11
	jne	SHORT $LL3@Fill
	mov	rbx, QWORD PTR [rsp]
$LN1@Fill:

; 2693 : 	}

	add	rsp, 8
	ret	0
??$_Fill@PEAUItem@CInifile@@U12@@std@@YAXPEAUItem@CInifile@@0AEBU12@@Z ENDP ; std::_Fill<CInifile::Item * __ptr64,CInifile::Item>
_TEXT	ENDS
;	COMDAT pdata
; File c:\users\nummer\documents\github\olr-3.0\src\xray\xrcore\xrstring.h
pdata	SEGMENT
$pdata$??$_Copy_backward@PEAUItem@CInifile@@PEAU12@@std@@YAPEAUItem@CInifile@@PEAU12@00@Z DD imagerel $LN32
	DD	imagerel $LN32+15
	DD	imagerel $unwind$??$_Copy_backward@PEAUItem@CInifile@@PEAU12@@std@@YAPEAUItem@CInifile@@PEAU12@00@Z
pdata	ENDS
;	COMDAT pdata
pdata	SEGMENT
$pdata$0$??$_Copy_backward@PEAUItem@CInifile@@PEAU12@@std@@YAPEAUItem@CInifile@@PEAU12@00@Z DD imagerel $LN32+15
	DD	imagerel $LN32+131
	DD	imagerel $chain$0$??$_Copy_backward@PEAUItem@CInifile@@PEAU12@@std@@YAPEAUItem@CInifile@@PEAU12@00@Z
pdata	ENDS
;	COMDAT pdata
pdata	SEGMENT
$pdata$1$??$_Copy_backward@PEAUItem@CInifile@@PEAU12@@std@@YAPEAUItem@CInifile@@PEAU12@00@Z DD imagerel $LN32+131
	DD	imagerel $LN32+139
	DD	imagerel $chain$1$??$_Copy_backward@PEAUItem@CInifile@@PEAU12@@std@@YAPEAUItem@CInifile@@PEAU12@00@Z
pdata	ENDS
;	COMDAT xdata
xdata	SEGMENT
$chain$1$??$_Copy_backward@PEAUItem@CInifile@@PEAU12@@std@@YAPEAUItem@CInifile@@PEAU12@00@Z DD 021H
	DD	imagerel $LN32
	DD	imagerel $LN32+15
	DD	imagerel $unwind$??$_Copy_backward@PEAUItem@CInifile@@PEAU12@@std@@YAPEAUItem@CInifile@@PEAU12@00@Z
xdata	ENDS
;	COMDAT xdata
xdata	SEGMENT
$chain$0$??$_Copy_backward@PEAUItem@CInifile@@PEAU12@@std@@YAPEAUItem@CInifile@@PEAU12@00@Z DD 020421H
	DD	03404H
	DD	imagerel $LN32
	DD	imagerel $LN32+15
	DD	imagerel $unwind$??$_Copy_backward@PEAUItem@CInifile@@PEAU12@@std@@YAPEAUItem@CInifile@@PEAU12@00@Z
xdata	ENDS
;	COMDAT xdata
xdata	SEGMENT
$unwind$??$_Copy_backward@PEAUItem@CInifile@@PEAU12@@std@@YAPEAUItem@CInifile@@PEAU12@00@Z DD 010401H
	DD	0204H
; Function compile flags: /Ogtpy
; File c:\program files (x86)\microsoft visual studio 10.0\vc\include\xutility
xdata	ENDS
;	COMDAT ??$_Copy_backward@PEAUItem@CInifile@@PEAU12@@std@@YAPEAUItem@CInifile@@PEAU12@00@Z
_TEXT	SEGMENT
_First$ = 16
_Last$ = 24
_Dest$ = 32
??$_Copy_backward@PEAUItem@CInifile@@PEAU12@@std@@YAPEAUItem@CInifile@@PEAU12@00@Z PROC ; std::_Copy_backward<CInifile::Item * __ptr64,CInifile::Item * __ptr64>, COMDAT

; 2459 : 	{	// copy [_First, _Last) backwards to [..., _Dest), unchecked

$LN32:
	sub	rsp, 8
	mov	r10, rdx
	mov	r11, rcx

; 2460 : 	return (_Copy_backward(_First, _Last,
; 2461 : 		_Dest, _Ptr_cat(_First, _Dest)));

	cmp	rcx, rdx
	je	SHORT $LN31@Copy_backw@2
	mov	QWORD PTR [rsp], rbx
	sub	r10, r8
	xor	ebx, ebx
	npad	8
$LL6@Copy_backw@2:
	sub	r8, 16
	lea	r9, QWORD PTR [r10+r8]
	mov	rdx, QWORD PTR [r9]
	test	rdx, rdx
	je	SHORT $LN13@Copy_backw@2
	inc	DWORD PTR [rdx]
$LN13@Copy_backw@2:
	mov	rax, QWORD PTR [r8]
	test	rax, rax
	je	SHORT $LN16@Copy_backw@2
	dec	DWORD PTR [rax]
	mov	rax, QWORD PTR [r8]
	cmp	DWORD PTR [rax], ebx
	mov	rcx, rax
	cmove	rcx, rbx
	mov	QWORD PTR [r8], rcx
$LN16@Copy_backw@2:
	mov	QWORD PTR [r8], rdx
	mov	rax, QWORD PTR [r10+r8+8]
	test	rax, rax
	je	SHORT $LN22@Copy_backw@2
	inc	DWORD PTR [rax]
$LN22@Copy_backw@2:
	mov	rcx, QWORD PTR [r8+8]
	test	rcx, rcx
	je	SHORT $LN25@Copy_backw@2
	dec	DWORD PTR [rcx]
	mov	rcx, QWORD PTR [r8+8]
	cmp	DWORD PTR [rcx], ebx
	mov	rdx, rcx
	cmove	rdx, rbx
	mov	QWORD PTR [r8+8], rdx
$LN25@Copy_backw@2:
	mov	QWORD PTR [r8+8], rax
	cmp	r9, r11
	jne	SHORT $LL6@Copy_backw@2
	mov	rbx, QWORD PTR [rsp]
$LN31@Copy_backw@2:
	mov	rax, r8

; 2462 : 	}

	add	rsp, 8
	ret	0
??$_Copy_backward@PEAUItem@CInifile@@PEAU12@@std@@YAPEAUItem@CInifile@@PEAU12@00@Z ENDP ; std::_Copy_backward<CInifile::Item * __ptr64,CInifile::Item * __ptr64>
; Function compile flags: /Ogtpy
_TEXT	ENDS
;	COMDAT ??$fill@PEAUItem@CInifile@@U12@@std@@YAXPEAUItem@CInifile@@0AEBU12@@Z
_TEXT	SEGMENT
_First$ = 8
_Last$ = 16
_Val$ = 24
??$fill@PEAUItem@CInifile@@U12@@std@@YAXPEAUItem@CInifile@@0AEBU12@@Z PROC ; std::fill<CInifile::Item * __ptr64,CInifile::Item>, COMDAT

; 2714 : 	_DEBUG_RANGE(_First, _Last);
; 2715 : 	_Fill(_Unchecked(_First), _Unchecked(_Last), _Val);
; 2716 : 	}

	jmp	??$_Fill@PEAUItem@CInifile@@U12@@std@@YAXPEAUItem@CInifile@@0AEBU12@@Z ; std::_Fill<CInifile::Item * __ptr64,CInifile::Item>
??$fill@PEAUItem@CInifile@@U12@@std@@YAXPEAUItem@CInifile@@0AEBU12@@Z ENDP ; std::fill<CInifile::Item * __ptr64,CInifile::Item>
_TEXT	ENDS
PUBLIC	?section_exist@CInifile@@QEAAHAEBVshared_str@@@Z ; CInifile::section_exist
; Function compile flags: /Ogtpy
; File c:\users\nummer\documents\github\olr-3.0\src\xray\xrcore\xr_ini.cpp
_TEXT	SEGMENT
this$ = 8
S$ = 16
?section_exist@CInifile@@QEAAHAEBVshared_str@@@Z PROC	; CInifile::section_exist

; 332  : BOOL			CInifile::section_exist	( const shared_str& S	)					{ return	section_exist(*S);	}

	mov	rdx, QWORD PTR [rdx]
	test	rdx, rdx
	je	SHORT $LN5@section_ex@2
	add	rdx, 12
	jmp	?section_exist@CInifile@@QEAAHPEBD@Z	; CInifile::section_exist
$LN5@section_ex@2:
	jmp	?section_exist@CInifile@@QEAAHPEBD@Z	; CInifile::section_exist
?section_exist@CInifile@@QEAAHAEBVshared_str@@@Z ENDP	; CInifile::section_exist
; Function compile flags: /Ogtpy
; File c:\program files (x86)\microsoft visual studio 10.0\vc\include\xmemory
;	COMDAT ??$_Cons_val@V?$xalloc@UItem@CInifile@@@@UItem@CInifile@@U23@@std@@YAXAEAV?$xalloc@UItem@CInifile@@@@PEAUItem@CInifile@@$$QEAU23@@Z
_TEXT	SEGMENT
_Pdest$ = 8
_Src$ = 16
??$_Cons_val@V?$xalloc@UItem@CInifile@@@@UItem@CInifile@@U23@@std@@YAXAEAV?$xalloc@UItem@CInifile@@@@PEAUItem@CInifile@@$$QEAU23@@Z PROC ; std::_Cons_val<xalloc<CInifile::Item>,CInifile::Item,CInifile::Item>, COMDAT

; 279  : 	{	// construct using allocator

	mov	r8, rcx

; 280  : 	_Alval.construct(_Pdest, _STD forward<_Ty2>(_Src));

	test	rcx, rcx
	je	SHORT $LN9@Cons_val@31
	xor	r10d, r10d
	mov	QWORD PTR [rcx], r10
	mov	r9, QWORD PTR [rdx]
	test	r9, r9
	je	SHORT $LN19@Cons_val@31
	inc	DWORD PTR [r9]
$LN19@Cons_val@31:
	mov	rax, QWORD PTR [rcx]
	test	rax, rax
	je	SHORT $LN22@Cons_val@31
	dec	DWORD PTR [rax]
	mov	rax, QWORD PTR [rcx]
	cmp	DWORD PTR [rax], r10d
	mov	rcx, rax
	cmove	rcx, r10
	mov	QWORD PTR [r8], rcx
$LN22@Cons_val@31:
	mov	QWORD PTR [r8], r9
	mov	QWORD PTR [r8+8], r10
	mov	rdx, QWORD PTR [rdx+8]
	test	rdx, rdx
	je	SHORT $LN28@Cons_val@31
	inc	DWORD PTR [rdx]
$LN28@Cons_val@31:
	mov	rax, QWORD PTR [r8+8]
	test	rax, rax
	je	SHORT $LN31@Cons_val@31
	dec	DWORD PTR [rax]
	mov	rax, QWORD PTR [r8+8]
	cmp	DWORD PTR [rax], r10d
	mov	rcx, rax
	cmove	rcx, r10
	mov	QWORD PTR [r8+8], rcx
$LN31@Cons_val@31:
	mov	QWORD PTR [r8+8], rdx
$LN9@Cons_val@31:

; 281  : 	}

	fatret	0
??$_Cons_val@V?$xalloc@UItem@CInifile@@@@UItem@CInifile@@U23@@std@@YAXAEAV?$xalloc@UItem@CInifile@@@@PEAUItem@CInifile@@$$QEAU23@@Z ENDP ; std::_Cons_val<xalloc<CInifile::Item>,CInifile::Item,CInifile::Item>
_TEXT	ENDS
;	COMDAT pdata
; File c:\users\nummer\documents\github\olr-3.0\src\xray\xrcore\xrstring.h
pdata	SEGMENT
$pdata$??$_Uninit_move@PEAUItem@CInifile@@PEAU12@V?$xalloc@UItem@CInifile@@@@U12@@std@@YAPEAUItem@CInifile@@PEAU12@00AEAV?$xalloc@UItem@CInifile@@@@0U_Nonscalar_ptr_iterator_tag@0@@Z DD imagerel $LN52
	DD	imagerel $LN52+151
	DD	imagerel $unwind$??$_Uninit_move@PEAUItem@CInifile@@PEAU12@V?$xalloc@UItem@CInifile@@@@U12@@std@@YAPEAUItem@CInifile@@PEAU12@00AEAV?$xalloc@UItem@CInifile@@@@0U_Nonscalar_ptr_iterator_tag@0@@Z
pdata	ENDS
;	COMDAT pdata
pdata	SEGMENT
$pdata$?catch$0@?0???$_Uninit_move@PEAUItem@CInifile@@PEAU12@V?$xalloc@UItem@CInifile@@@@U12@@std@@YAPEAUItem@CInifile@@PEAU12@00AEAV?$xalloc@UItem@CInifile@@@@0U_Nonscalar_ptr_iterator_tag@0@@Z@4HA DD imagerel ?catch$0@?0???$_Uninit_move@PEAUItem@CInifile@@PEAU12@V?$xalloc@UItem@CInifile@@@@U12@@std@@YAPEAUItem@CInifile@@PEAU12@00AEAV?$xalloc@UItem@CInifile@@@@0U_Nonscalar_ptr_iterator_tag@0@@Z@4HA
	DD	imagerel ?catch$0@?0???$_Uninit_move@PEAUItem@CInifile@@PEAU12@V?$xalloc@UItem@CInifile@@@@U12@@std@@YAPEAUItem@CInifile@@PEAU12@00AEAV?$xalloc@UItem@CInifile@@@@0U_Nonscalar_ptr_iterator_tag@0@@Z@4HA+59
	DD	imagerel $unwind$?catch$0@?0???$_Uninit_move@PEAUItem@CInifile@@PEAU12@V?$xalloc@UItem@CInifile@@@@U12@@std@@YAPEAUItem@CInifile@@PEAU12@00AEAV?$xalloc@UItem@CInifile@@@@0U_Nonscalar_ptr_iterator_tag@0@@Z@4HA
pdata	ENDS
;	COMDAT xdata
xdata	SEGMENT
$ip2state$??$_Uninit_move@PEAUItem@CInifile@@PEAU12@V?$xalloc@UItem@CInifile@@@@U12@@std@@YAPEAUItem@CInifile@@PEAU12@00AEAV?$xalloc@UItem@CInifile@@@@0U_Nonscalar_ptr_iterator_tag@0@@Z DD imagerel ??$_Uninit_move@PEAUItem@CInifile@@PEAU12@V?$xalloc@UItem@CInifile@@@@U12@@std@@YAPEAUItem@CInifile@@PEAU12@00AEAV?$xalloc@UItem@CInifile@@@@0U_Nonscalar_ptr_iterator_tag@0@@Z
	DD	0ffffffffH
	DD	imagerel ??$_Uninit_move@PEAUItem@CInifile@@PEAU12@V?$xalloc@UItem@CInifile@@@@U12@@std@@YAPEAUItem@CInifile@@PEAU12@00AEAV?$xalloc@UItem@CInifile@@@@0U_Nonscalar_ptr_iterator_tag@0@@Z+26
	DD	00H
	DD	imagerel ??$_Uninit_move@PEAUItem@CInifile@@PEAU12@V?$xalloc@UItem@CInifile@@@@U12@@std@@YAPEAUItem@CInifile@@PEAU12@00AEAV?$xalloc@UItem@CInifile@@@@0U_Nonscalar_ptr_iterator_tag@0@@Z+143
	DD	0ffffffffH
	DD	imagerel ?catch$0@?0???$_Uninit_move@PEAUItem@CInifile@@PEAU12@V?$xalloc@UItem@CInifile@@@@U12@@std@@YAPEAUItem@CInifile@@PEAU12@00AEAV?$xalloc@UItem@CInifile@@@@0U_Nonscalar_ptr_iterator_tag@0@@Z@4HA
	DD	00H
	DD	imagerel ?catch$0@?0???$_Uninit_move@PEAUItem@CInifile@@PEAU12@V?$xalloc@UItem@CInifile@@@@U12@@std@@YAPEAUItem@CInifile@@PEAU12@00AEAV?$xalloc@UItem@CInifile@@@@0U_Nonscalar_ptr_iterator_tag@0@@Z@4HA+15
	DD	01H
xdata	ENDS
;	COMDAT xdata
xdata	SEGMENT
$unwind$?catch$0@?0???$_Uninit_move@PEAUItem@CInifile@@PEAU12@V?$xalloc@UItem@CInifile@@@@U12@@std@@YAPEAUItem@CInifile@@PEAU12@00AEAV?$xalloc@UItem@CInifile@@@@0U_Nonscalar_ptr_iterator_tag@0@@Z@4HA DD 040c19H
	DD	07008320cH
	DD	030065007H
	DD	imagerel __CxxFrameHandler3
	DD	imagerel $cppxdata$??$_Uninit_move@PEAUItem@CInifile@@PEAU12@V?$xalloc@UItem@CInifile@@@@U12@@std@@YAPEAUItem@CInifile@@PEAU12@00AEAV?$xalloc@UItem@CInifile@@@@0U_Nonscalar_ptr_iterator_tag@0@@Z
xdata	ENDS
;	COMDAT xdata
xdata	SEGMENT
$unwind$??$_Uninit_move@PEAUItem@CInifile@@PEAU12@V?$xalloc@UItem@CInifile@@@@U12@@std@@YAPEAUItem@CInifile@@PEAU12@00AEAV?$xalloc@UItem@CInifile@@@@0U_Nonscalar_ptr_iterator_tag@0@@Z DD 011219H
	DD	06209H
	DD	imagerel __CxxFrameHandler3
	DD	imagerel $cppxdata$??$_Uninit_move@PEAUItem@CInifile@@PEAU12@V?$xalloc@UItem@CInifile@@@@U12@@std@@YAPEAUItem@CInifile@@PEAU12@00AEAV?$xalloc@UItem@CInifile@@@@0U_Nonscalar_ptr_iterator_tag@0@@Z
xdata	ENDS
;	COMDAT CONST
CONST	SEGMENT
$cppxdata$??$_Uninit_move@PEAUItem@CInifile@@PEAU12@V?$xalloc@UItem@CInifile@@@@U12@@std@@YAPEAUItem@CInifile@@PEAU12@00AEAV?$xalloc@UItem@CInifile@@@@0U_Nonscalar_ptr_iterator_tag@0@@Z DD 019930522H
	DD	02H
	DD	imagerel $stateUnwindMap$??$_Uninit_move@PEAUItem@CInifile@@PEAU12@V?$xalloc@UItem@CInifile@@@@U12@@std@@YAPEAUItem@CInifile@@PEAU12@00AEAV?$xalloc@UItem@CInifile@@@@0U_Nonscalar_ptr_iterator_tag@0@@Z
	DD	01H
	DD	imagerel $tryMap$??$_Uninit_move@PEAUItem@CInifile@@PEAU12@V?$xalloc@UItem@CInifile@@@@U12@@std@@YAPEAUItem@CInifile@@PEAU12@00AEAV?$xalloc@UItem@CInifile@@@@0U_Nonscalar_ptr_iterator_tag@0@@Z
	DD	05H
	DD	imagerel $ip2state$??$_Uninit_move@PEAUItem@CInifile@@PEAU12@V?$xalloc@UItem@CInifile@@@@U12@@std@@YAPEAUItem@CInifile@@PEAU12@00AEAV?$xalloc@UItem@CInifile@@@@0U_Nonscalar_ptr_iterator_tag@0@@Z
	DD	020H
	DD	00H
	DD	00H
CONST	ENDS
;	COMDAT xdata
xdata	SEGMENT
$tryMap$??$_Uninit_move@PEAUItem@CInifile@@PEAU12@V?$xalloc@UItem@CInifile@@@@U12@@std@@YAPEAUItem@CInifile@@PEAU12@00AEAV?$xalloc@UItem@CInifile@@@@0U_Nonscalar_ptr_iterator_tag@0@@Z DD 00H
	DD	00H
	DD	01H
	DD	01H
	DD	imagerel $handlerMap$0$??$_Uninit_move@PEAUItem@CInifile@@PEAU12@V?$xalloc@UItem@CInifile@@@@U12@@std@@YAPEAUItem@CInifile@@PEAU12@00AEAV?$xalloc@UItem@CInifile@@@@0U_Nonscalar_ptr_iterator_tag@0@@Z
xdata	ENDS
;	COMDAT xdata
xdata	SEGMENT
$handlerMap$0$??$_Uninit_move@PEAUItem@CInifile@@PEAU12@V?$xalloc@UItem@CInifile@@@@U12@@std@@YAPEAUItem@CInifile@@PEAU12@00AEAV?$xalloc@UItem@CInifile@@@@0U_Nonscalar_ptr_iterator_tag@0@@Z DD 00H
	DD	00H
	DD	00H
	DD	imagerel ?catch$0@?0???$_Uninit_move@PEAUItem@CInifile@@PEAU12@V?$xalloc@UItem@CInifile@@@@U12@@std@@YAPEAUItem@CInifile@@PEAU12@00AEAV?$xalloc@UItem@CInifile@@@@0U_Nonscalar_ptr_iterator_tag@0@@Z@4HA
	DD	048H
xdata	ENDS
;	COMDAT xdata
xdata	SEGMENT
$stateUnwindMap$??$_Uninit_move@PEAUItem@CInifile@@PEAU12@V?$xalloc@UItem@CInifile@@@@U12@@std@@YAPEAUItem@CInifile@@PEAU12@00AEAV?$xalloc@UItem@CInifile@@@@0U_Nonscalar_ptr_iterator_tag@0@@Z DD 0ffffffffH
	DD	00H
	DD	0ffffffffH
	DD	00H
; Function compile flags: /Ogtpy
; File c:\program files (x86)\microsoft visual studio 10.0\vc\include\memory
xdata	ENDS
;	COMDAT ??$_Uninit_move@PEAUItem@CInifile@@PEAU12@V?$xalloc@UItem@CInifile@@@@U12@@std@@YAPEAUItem@CInifile@@PEAU12@00AEAV?$xalloc@UItem@CInifile@@@@0U_Nonscalar_ptr_iterator_tag@0@@Z
_TEXT	SEGMENT
$T265841 = 32
_First$ = 64
_Last$ = 72
_Dest$ = 80
_Next$ = 88
??$_Uninit_move@PEAUItem@CInifile@@PEAU12@V?$xalloc@UItem@CInifile@@@@U12@@std@@YAPEAUItem@CInifile@@PEAU12@00AEAV?$xalloc@UItem@CInifile@@@@0U_Nonscalar_ptr_iterator_tag@0@@Z PROC ; std::_Uninit_move<CInifile::Item * __ptr64,CInifile::Item * __ptr64,xalloc<CInifile::Item>,CInifile::Item>, COMDAT

; 424  : 	{	// move [_First, _Last) to raw _Dest, using _Al, arbitrary type

$LN52:
	mov	QWORD PTR [rsp+24], r8
	sub	rsp, 56					; 00000038H
	mov	QWORD PTR $T265841[rsp], -2
	mov	r9, rdx

; 425  : 	_DEBUG_RANGE(_First, _Last);
; 426  : 	_DEBUG_POINTER(_Dest);
; 427  : 	_FwdIt _Next = _Dest;

	mov	QWORD PTR _Next$[rsp], r8

; 428  : 
; 429  : 	_TRY_BEGIN

	xor	r10d, r10d
	npad	3
$LL6@Uninit_mov@9:

; 430  : 	for (; _First != _Last; ++_Dest, ++_First)

	cmp	rcx, r9
	je	SHORT $LN4@Uninit_mov@9

; 431  : 		_Cons_val(_Al, _Dest, (_Valty &&)*_First);

	test	r8, r8
	je	SHORT $LN22@Uninit_mov@9
	mov	QWORD PTR [r8], r10
	mov	rdx, QWORD PTR [rcx]
	test	rdx, rdx
	je	SHORT $LN32@Uninit_mov@9
	inc	DWORD PTR [rdx]
$LN32@Uninit_mov@9:
	cmp	QWORD PTR [r8], r10
	je	SHORT $LN35@Uninit_mov@9
	mov	rax, QWORD PTR [r8]
	dec	DWORD PTR [rax]
	mov	rax, QWORD PTR [r8]
	cmp	DWORD PTR [rax], r10d
	jne	SHORT $LN35@Uninit_mov@9
	mov	QWORD PTR [r8], r10
$LN35@Uninit_mov@9:
	mov	QWORD PTR [r8], rdx
	mov	QWORD PTR [r8+8], r10
	mov	rdx, QWORD PTR [rcx+8]
	test	rdx, rdx
	je	SHORT $LN41@Uninit_mov@9
	inc	DWORD PTR [rdx]
$LN41@Uninit_mov@9:
	cmp	QWORD PTR [r8+8], r10
	je	SHORT $LN44@Uninit_mov@9
	mov	rax, QWORD PTR [r8+8]
	dec	DWORD PTR [rax]
	mov	rax, QWORD PTR [r8+8]
	cmp	DWORD PTR [rax], r10d
	jne	SHORT $LN44@Uninit_mov@9
	mov	QWORD PTR [r8+8], r10
$LN44@Uninit_mov@9:
	mov	QWORD PTR [r8+8], rdx
$LN22@Uninit_mov@9:

; 430  : 	for (; _First != _Last; ++_Dest, ++_First)

	add	r8, 16
	mov	QWORD PTR _Dest$[rsp], r8
	add	rcx, 16
	mov	QWORD PTR _First$[rsp], rcx
	jmp	SHORT $LL6@Uninit_mov@9
$LN4@Uninit_mov@9:

; 432  : 	_CATCH_ALL
; 433  : 	for (; _Next != _Dest; ++_Next)
; 434  : 		_Dest_val(_Al, _Next);
; 435  : 	_RERAISE;
; 436  : 	_CATCH_END
; 437  : 	return (_Dest);

	mov	rax, r8

; 438  : 	}

	add	rsp, 56					; 00000038H
	ret	0
$LN51@Uninit_mov@9:
??$_Uninit_move@PEAUItem@CInifile@@PEAU12@V?$xalloc@UItem@CInifile@@@@U12@@std@@YAPEAUItem@CInifile@@PEAU12@00AEAV?$xalloc@UItem@CInifile@@@@0U_Nonscalar_ptr_iterator_tag@0@@Z ENDP ; std::_Uninit_move<CInifile::Item * __ptr64,CInifile::Item * __ptr64,xalloc<CInifile::Item>,CInifile::Item>
; Function compile flags: /Ogtpy
_TEXT	ENDS
;	COMDAT text$x
text$x	SEGMENT
$T265841 = 32
_First$ = 64
_Last$ = 72
_Dest$ = 80
_Next$ = 88
?catch$0@?0???$_Uninit_move@PEAUItem@CInifile@@PEAU12@V?$xalloc@UItem@CInifile@@@@U12@@std@@YAPEAUItem@CInifile@@PEAU12@00AEAV?$xalloc@UItem@CInifile@@@@0U_Nonscalar_ptr_iterator_tag@0@@Z@4HA PROC ; `std::_Uninit_move<CInifile::Item * __ptr64,CInifile::Item * __ptr64,xalloc<CInifile::Item>,CInifile::Item>'::`1'::catch$0

; 432  : 	_CATCH_ALL

	mov	QWORD PTR [rsp+16], rdx
	push	rbx
	push	rbp
	push	rdi
	sub	rsp, 32					; 00000020H
	mov	rbp, rdx
__catch$??$_Uninit_move@PEAUItem@CInifile@@PEAU12@V?$xalloc@UItem@CInifile@@@@U12@@std@@YAPEAUItem@CInifile@@PEAU12@00AEAV?$xalloc@UItem@CInifile@@@@0U_Nonscalar_ptr_iterator_tag@0@@Z$0:

; 433  : 	for (; _Next != _Dest; ++_Next)

	mov	rbx, QWORD PTR _Next$[rbp]
	mov	rdi, QWORD PTR _Dest$[rbp]
	cmp	rbx, rdi
	je	SHORT $LN1@catch$0@8
	npad	4
$LL3@catch$0@8:

; 434  : 		_Dest_val(_Al, _Next);

	mov	rcx, rbx
	call	??$_Dest_val@V?$xalloc@UItem@CInifile@@@@UItem@CInifile@@@std@@YAXAEAV?$xalloc@UItem@CInifile@@@@PEAUItem@CInifile@@@Z ; std::_Dest_val<xalloc<CInifile::Item>,CInifile::Item>

; 433  : 	for (; _Next != _Dest; ++_Next)

	add	rbx, 16
	cmp	rbx, rdi
	jne	SHORT $LL3@catch$0@8
$LN1@catch$0@8:

; 435  : 	_RERAISE;

	xor	edx, edx
	xor	ecx, ecx
	call	_CxxThrowException
	npad	1
?catch$0@?0???$_Uninit_move@PEAUItem@CInifile@@PEAU12@V?$xalloc@UItem@CInifile@@@@U12@@std@@YAPEAUItem@CInifile@@PEAU12@00AEAV?$xalloc@UItem@CInifile@@@@0U_Nonscalar_ptr_iterator_tag@0@@Z@4HA ENDP ; `std::_Uninit_move<CInifile::Item * __ptr64,CInifile::Item * __ptr64,xalloc<CInifile::Item>,CInifile::Item>'::`1'::catch$0
text$x	ENDS
;	COMDAT pdata
pdata	SEGMENT
$pdata$??$_Uninit_fill_n@PEAUItem@CInifile@@_KU12@V?$xalloc@UItem@CInifile@@@@U12@@std@@YAXPEAUItem@CInifile@@_KPEBU12@AEAV?$xalloc@UItem@CInifile@@@@0U_Nonscalar_ptr_iterator_tag@0@@Z DD imagerel $LN18
	DD	imagerel $LN18+78
	DD	imagerel $unwind$??$_Uninit_fill_n@PEAUItem@CInifile@@_KU12@V?$xalloc@UItem@CInifile@@@@U12@@std@@YAXPEAUItem@CInifile@@_KPEBU12@AEAV?$xalloc@UItem@CInifile@@@@0U_Nonscalar_ptr_iterator_tag@0@@Z
pdata	ENDS
;	COMDAT pdata
pdata	SEGMENT
$pdata$?catch$0@?0???$_Uninit_fill_n@PEAUItem@CInifile@@_KU12@V?$xalloc@UItem@CInifile@@@@U12@@std@@YAXPEAUItem@CInifile@@_KPEBU12@AEAV?$xalloc@UItem@CInifile@@@@0U_Nonscalar_ptr_iterator_tag@0@@Z@4HA DD imagerel ?catch$0@?0???$_Uninit_fill_n@PEAUItem@CInifile@@_KU12@V?$xalloc@UItem@CInifile@@@@U12@@std@@YAXPEAUItem@CInifile@@_KPEBU12@AEAV?$xalloc@UItem@CInifile@@@@0U_Nonscalar_ptr_iterator_tag@0@@Z@4HA
	DD	imagerel ?catch$0@?0???$_Uninit_fill_n@PEAUItem@CInifile@@_KU12@V?$xalloc@UItem@CInifile@@@@U12@@std@@YAXPEAUItem@CInifile@@_KPEBU12@AEAV?$xalloc@UItem@CInifile@@@@0U_Nonscalar_ptr_iterator_tag@0@@Z@4HA+59
	DD	imagerel $unwind$?catch$0@?0???$_Uninit_fill_n@PEAUItem@CInifile@@_KU12@V?$xalloc@UItem@CInifile@@@@U12@@std@@YAXPEAUItem@CInifile@@_KPEBU12@AEAV?$xalloc@UItem@CInifile@@@@0U_Nonscalar_ptr_iterator_tag@0@@Z@4HA
pdata	ENDS
;	COMDAT xdata
xdata	SEGMENT
$ip2state$??$_Uninit_fill_n@PEAUItem@CInifile@@_KU12@V?$xalloc@UItem@CInifile@@@@U12@@std@@YAXPEAUItem@CInifile@@_KPEBU12@AEAV?$xalloc@UItem@CInifile@@@@0U_Nonscalar_ptr_iterator_tag@0@@Z DD imagerel ??$_Uninit_fill_n@PEAUItem@CInifile@@_KU12@V?$xalloc@UItem@CInifile@@@@U12@@std@@YAXPEAUItem@CInifile@@_KPEBU12@AEAV?$xalloc@UItem@CInifile@@@@0U_Nonscalar_ptr_iterator_tag@0@@Z
	DD	0ffffffffH
	DD	imagerel ??$_Uninit_fill_n@PEAUItem@CInifile@@_KU12@V?$xalloc@UItem@CInifile@@@@U12@@std@@YAXPEAUItem@CInifile@@_KPEBU12@AEAV?$xalloc@UItem@CInifile@@@@0U_Nonscalar_ptr_iterator_tag@0@@Z+35
	DD	00H
	DD	imagerel ??$_Uninit_fill_n@PEAUItem@CInifile@@_KU12@V?$xalloc@UItem@CInifile@@@@U12@@std@@YAXPEAUItem@CInifile@@_KPEBU12@AEAV?$xalloc@UItem@CInifile@@@@0U_Nonscalar_ptr_iterator_tag@0@@Z+70
	DD	0ffffffffH
	DD	imagerel ?catch$0@?0???$_Uninit_fill_n@PEAUItem@CInifile@@_KU12@V?$xalloc@UItem@CInifile@@@@U12@@std@@YAXPEAUItem@CInifile@@_KPEBU12@AEAV?$xalloc@UItem@CInifile@@@@0U_Nonscalar_ptr_iterator_tag@0@@Z@4HA
	DD	00H
	DD	imagerel ?catch$0@?0???$_Uninit_fill_n@PEAUItem@CInifile@@_KU12@V?$xalloc@UItem@CInifile@@@@U12@@std@@YAXPEAUItem@CInifile@@_KPEBU12@AEAV?$xalloc@UItem@CInifile@@@@0U_Nonscalar_ptr_iterator_tag@0@@Z@4HA+15
	DD	01H
xdata	ENDS
;	COMDAT xdata
xdata	SEGMENT
$unwind$?catch$0@?0???$_Uninit_fill_n@PEAUItem@CInifile@@_KU12@V?$xalloc@UItem@CInifile@@@@U12@@std@@YAXPEAUItem@CInifile@@_KPEBU12@AEAV?$xalloc@UItem@CInifile@@@@0U_Nonscalar_ptr_iterator_tag@0@@Z@4HA DD 040c19H
	DD	07008320cH
	DD	030065007H
	DD	imagerel __CxxFrameHandler3
	DD	imagerel $cppxdata$??$_Uninit_fill_n@PEAUItem@CInifile@@_KU12@V?$xalloc@UItem@CInifile@@@@U12@@std@@YAXPEAUItem@CInifile@@_KPEBU12@AEAV?$xalloc@UItem@CInifile@@@@0U_Nonscalar_ptr_iterator_tag@0@@Z
xdata	ENDS
;	COMDAT xdata
xdata	SEGMENT
$unwind$??$_Uninit_fill_n@PEAUItem@CInifile@@_KU12@V?$xalloc@UItem@CInifile@@@@U12@@std@@YAXPEAUItem@CInifile@@_KPEBU12@AEAV?$xalloc@UItem@CInifile@@@@0U_Nonscalar_ptr_iterator_tag@0@@Z DD 041519H
	DD	07008520cH
	DD	030066007H
	DD	imagerel __CxxFrameHandler3
	DD	imagerel $cppxdata$??$_Uninit_fill_n@PEAUItem@CInifile@@_KU12@V?$xalloc@UItem@CInifile@@@@U12@@std@@YAXPEAUItem@CInifile@@_KPEBU12@AEAV?$xalloc@UItem@CInifile@@@@0U_Nonscalar_ptr_iterator_tag@0@@Z
xdata	ENDS
;	COMDAT CONST
CONST	SEGMENT
$cppxdata$??$_Uninit_fill_n@PEAUItem@CInifile@@_KU12@V?$xalloc@UItem@CInifile@@@@U12@@std@@YAXPEAUItem@CInifile@@_KPEBU12@AEAV?$xalloc@UItem@CInifile@@@@0U_Nonscalar_ptr_iterator_tag@0@@Z DD 019930522H
	DD	02H
	DD	imagerel $stateUnwindMap$??$_Uninit_fill_n@PEAUItem@CInifile@@_KU12@V?$xalloc@UItem@CInifile@@@@U12@@std@@YAXPEAUItem@CInifile@@_KPEBU12@AEAV?$xalloc@UItem@CInifile@@@@0U_Nonscalar_ptr_iterator_tag@0@@Z
	DD	01H
	DD	imagerel $tryMap$??$_Uninit_fill_n@PEAUItem@CInifile@@_KU12@V?$xalloc@UItem@CInifile@@@@U12@@std@@YAXPEAUItem@CInifile@@_KPEBU12@AEAV?$xalloc@UItem@CInifile@@@@0U_Nonscalar_ptr_iterator_tag@0@@Z
	DD	05H
	DD	imagerel $ip2state$??$_Uninit_fill_n@PEAUItem@CInifile@@_KU12@V?$xalloc@UItem@CInifile@@@@U12@@std@@YAXPEAUItem@CInifile@@_KPEBU12@AEAV?$xalloc@UItem@CInifile@@@@0U_Nonscalar_ptr_iterator_tag@0@@Z
	DD	020H
	DD	00H
	DD	00H
CONST	ENDS
;	COMDAT xdata
xdata	SEGMENT
$tryMap$??$_Uninit_fill_n@PEAUItem@CInifile@@_KU12@V?$xalloc@UItem@CInifile@@@@U12@@std@@YAXPEAUItem@CInifile@@_KPEBU12@AEAV?$xalloc@UItem@CInifile@@@@0U_Nonscalar_ptr_iterator_tag@0@@Z DD 00H
	DD	00H
	DD	01H
	DD	01H
	DD	imagerel $handlerMap$0$??$_Uninit_fill_n@PEAUItem@CInifile@@_KU12@V?$xalloc@UItem@CInifile@@@@U12@@std@@YAXPEAUItem@CInifile@@_KPEBU12@AEAV?$xalloc@UItem@CInifile@@@@0U_Nonscalar_ptr_iterator_tag@0@@Z
xdata	ENDS
;	COMDAT xdata
xdata	SEGMENT
$handlerMap$0$??$_Uninit_fill_n@PEAUItem@CInifile@@_KU12@V?$xalloc@UItem@CInifile@@@@U12@@std@@YAXPEAUItem@CInifile@@_KPEBU12@AEAV?$xalloc@UItem@CInifile@@@@0U_Nonscalar_ptr_iterator_tag@0@@Z DD 00H
	DD	00H
	DD	00H
	DD	imagerel ?catch$0@?0???$_Uninit_fill_n@PEAUItem@CInifile@@_KU12@V?$xalloc@UItem@CInifile@@@@U12@@std@@YAXPEAUItem@CInifile@@_KPEBU12@AEAV?$xalloc@UItem@CInifile@@@@0U_Nonscalar_ptr_iterator_tag@0@@Z@4HA
	DD	048H
xdata	ENDS
;	COMDAT xdata
xdata	SEGMENT
$stateUnwindMap$??$_Uninit_fill_n@PEAUItem@CInifile@@_KU12@V?$xalloc@UItem@CInifile@@@@U12@@std@@YAXPEAUItem@CInifile@@_KPEBU12@AEAV?$xalloc@UItem@CInifile@@@@0U_Nonscalar_ptr_iterator_tag@0@@Z DD 0ffffffffH
	DD	00H
	DD	0ffffffffH
	DD	00H
; Function compile flags: /Ogtpy
xdata	ENDS
;	COMDAT ??$_Uninit_fill_n@PEAUItem@CInifile@@_KU12@V?$xalloc@UItem@CInifile@@@@U12@@std@@YAXPEAUItem@CInifile@@_KPEBU12@AEAV?$xalloc@UItem@CInifile@@@@0U_Nonscalar_ptr_iterator_tag@0@@Z
_TEXT	SEGMENT
$T265881 = 32
_First$ = 80
_Count$ = 88
_Pval$ = 96
_Next$ = 104
??$_Uninit_fill_n@PEAUItem@CInifile@@_KU12@V?$xalloc@UItem@CInifile@@@@U12@@std@@YAXPEAUItem@CInifile@@_KPEBU12@AEAV?$xalloc@UItem@CInifile@@@@0U_Nonscalar_ptr_iterator_tag@0@@Z PROC ; std::_Uninit_fill_n<CInifile::Item * __ptr64,unsigned __int64,CInifile::Item,xalloc<CInifile::Item>,CInifile::Item>, COMDAT

; 558  : 	{	// copy _Count * *_Pval to raw _First, using _Al, arbitrary type

$LN18:
	mov	QWORD PTR [rsp+8], rcx
	push	rbx
	push	rsi
	push	rdi
	sub	rsp, 48					; 00000030H
	mov	QWORD PTR $T265881[rsp], -2
	mov	rsi, r8
	mov	rbx, rdx
	mov	rdi, rcx

; 559  :  #if _ITERATOR_DEBUG_LEVEL == 2
; 560  : //	if (_Count < 0)
; 561  : //		_DEBUG_ERROR("negative count in uninitialized fill");
; 562  :  #endif /* _ITERATOR_DEBUG_LEVEL == 2 */
; 563  : 
; 564  : 	_FwdIt _Next = _First;

	mov	QWORD PTR _Next$[rsp], rcx
$LL6@Uninit_fil:

; 565  : 
; 566  : 	_TRY_BEGIN
; 567  : 	for (; 0 < _Count; --_Count, ++_First)

	test	rbx, rbx
	je	SHORT $LN4@Uninit_fil

; 568  : 		_Cons_val(_Al, _First, *_Pval);

	mov	rdx, rsi
	mov	rcx, rdi
	call	??$_Cons_val@V?$xalloc@UItem@CInifile@@@@UItem@CInifile@@AEBU23@@std@@YAXAEAV?$xalloc@UItem@CInifile@@@@PEAUItem@CInifile@@AEBU23@@Z ; std::_Cons_val<xalloc<CInifile::Item>,CInifile::Item,CInifile::Item const & __ptr64>

; 565  : 
; 566  : 	_TRY_BEGIN
; 567  : 	for (; 0 < _Count; --_Count, ++_First)

	dec	rbx
	mov	QWORD PTR _Count$[rsp], rbx
	add	rdi, 16
	mov	QWORD PTR _First$[rsp], rdi
	jmp	SHORT $LL6@Uninit_fil
$LN4@Uninit_fil:

; 569  : 	_CATCH_ALL
; 570  : 	for (; _Next != _First; ++_Next)
; 571  : 		_Dest_val(_Al, _Next);
; 572  : 	_RERAISE;
; 573  : 	_CATCH_END
; 574  : 	}

	add	rsp, 48					; 00000030H
	pop	rdi
	pop	rsi
	pop	rbx
	ret	0
$LN17@Uninit_fil:
??$_Uninit_fill_n@PEAUItem@CInifile@@_KU12@V?$xalloc@UItem@CInifile@@@@U12@@std@@YAXPEAUItem@CInifile@@_KPEBU12@AEAV?$xalloc@UItem@CInifile@@@@0U_Nonscalar_ptr_iterator_tag@0@@Z ENDP ; std::_Uninit_fill_n<CInifile::Item * __ptr64,unsigned __int64,CInifile::Item,xalloc<CInifile::Item>,CInifile::Item>
; Function compile flags: /Ogtpy
_TEXT	ENDS
;	COMDAT text$x
text$x	SEGMENT
$T265881 = 32
_First$ = 80
_Count$ = 88
_Pval$ = 96
_Next$ = 104
?catch$0@?0???$_Uninit_fill_n@PEAUItem@CInifile@@_KU12@V?$xalloc@UItem@CInifile@@@@U12@@std@@YAXPEAUItem@CInifile@@_KPEBU12@AEAV?$xalloc@UItem@CInifile@@@@0U_Nonscalar_ptr_iterator_tag@0@@Z@4HA PROC ; `std::_Uninit_fill_n<CInifile::Item * __ptr64,unsigned __int64,CInifile::Item,xalloc<CInifile::Item>,CInifile::Item>'::`1'::catch$0

; 569  : 	_CATCH_ALL

	mov	QWORD PTR [rsp+16], rdx
	push	rbx
	push	rbp
	push	rdi
	sub	rsp, 32					; 00000020H
	mov	rbp, rdx
__catch$??$_Uninit_fill_n@PEAUItem@CInifile@@_KU12@V?$xalloc@UItem@CInifile@@@@U12@@std@@YAXPEAUItem@CInifile@@_KPEBU12@AEAV?$xalloc@UItem@CInifile@@@@0U_Nonscalar_ptr_iterator_tag@0@@Z$0:

; 570  : 	for (; _Next != _First; ++_Next)

	mov	rbx, QWORD PTR _Next$[rbp]
	mov	rdi, QWORD PTR _First$[rbp]
	cmp	rbx, rdi
	je	SHORT $LN1@catch$0@9
	npad	4
$LL3@catch$0@9:

; 571  : 		_Dest_val(_Al, _Next);

	mov	rcx, rbx
	call	??$_Dest_val@V?$xalloc@UItem@CInifile@@@@UItem@CInifile@@@std@@YAXAEAV?$xalloc@UItem@CInifile@@@@PEAUItem@CInifile@@@Z ; std::_Dest_val<xalloc<CInifile::Item>,CInifile::Item>

; 570  : 	for (; _Next != _First; ++_Next)

	add	rbx, 16
	cmp	rbx, rdi
	jne	SHORT $LL3@catch$0@9
$LN1@catch$0@9:

; 572  : 	_RERAISE;

	xor	edx, edx
	xor	ecx, ecx
	call	_CxxThrowException
	npad	1
?catch$0@?0???$_Uninit_fill_n@PEAUItem@CInifile@@_KU12@V?$xalloc@UItem@CInifile@@@@U12@@std@@YAXPEAUItem@CInifile@@_KPEBU12@AEAV?$xalloc@UItem@CInifile@@@@0U_Nonscalar_ptr_iterator_tag@0@@Z@4HA ENDP ; `std::_Uninit_fill_n<CInifile::Item * __ptr64,unsigned __int64,CInifile::Item,xalloc<CInifile::Item>,CInifile::Item>'::`1'::catch$0
; Function compile flags: /Ogtpy
text$x	ENDS
;	COMDAT ??$_Uninitialized_move@PEAUItem@CInifile@@PEAU12@V?$xalloc@UItem@CInifile@@@@@std@@YAPEAUItem@CInifile@@PEAU12@00AEAV?$xalloc@UItem@CInifile@@@@@Z
_TEXT	SEGMENT
_First$ = 8
_Last$ = 16
_Dest$ = 24
??$_Uninitialized_move@PEAUItem@CInifile@@PEAU12@V?$xalloc@UItem@CInifile@@@@@std@@YAPEAUItem@CInifile@@PEAU12@00AEAV?$xalloc@UItem@CInifile@@@@@Z PROC ; std::_Uninitialized_move<CInifile::Item * __ptr64,CInifile::Item * __ptr64,xalloc<CInifile::Item> >, COMDAT

; 470  : 	return (_Uninit_move(_First, _Last, _Dest, _Al,
; 471  : 		_Val_type(_First), _Ptr_cat(_First, _Dest)));
; 472  : 	}

	jmp	??$_Uninit_move@PEAUItem@CInifile@@PEAU12@V?$xalloc@UItem@CInifile@@@@U12@@std@@YAPEAUItem@CInifile@@PEAU12@00AEAV?$xalloc@UItem@CInifile@@@@0U_Nonscalar_ptr_iterator_tag@0@@Z ; std::_Uninit_move<CInifile::Item * __ptr64,CInifile::Item * __ptr64,xalloc<CInifile::Item>,CInifile::Item>
??$_Uninitialized_move@PEAUItem@CInifile@@PEAU12@V?$xalloc@UItem@CInifile@@@@@std@@YAPEAUItem@CInifile@@PEAU12@00AEAV?$xalloc@UItem@CInifile@@@@@Z ENDP ; std::_Uninitialized_move<CInifile::Item * __ptr64,CInifile::Item * __ptr64,xalloc<CInifile::Item> >
_TEXT	ENDS
;	COMDAT pdata
pdata	SEGMENT
$pdata$??_GSect@CInifile@@QEAAPEAXI@Z DD imagerel $LN21
	DD	imagerel $LN21+55
	DD	imagerel $unwind$??_GSect@CInifile@@QEAAPEAXI@Z
pdata	ENDS
;	COMDAT xdata
xdata	SEGMENT
$unwind$??_GSect@CInifile@@QEAAPEAXI@Z DD 020601H
	DD	030023206H
; Function compile flags: /Ogtpy
xdata	ENDS
;	COMDAT ??_GSect@CInifile@@QEAAPEAXI@Z
_TEXT	SEGMENT
this$ = 48
??_GSect@CInifile@@QEAAPEAXI@Z PROC			; CInifile::Sect::`scalar deleting destructor', COMDAT
$LN21:
	push	rbx
	sub	rsp, 32					; 00000020H
	mov	rbx, rcx
	add	rcx, 8
	call	?_Tidy@?$vector@UItem@CInifile@@V?$xalloc@UItem@CInifile@@@@@std@@IEAAXXZ ; std::vector<CInifile::Item,xalloc<CInifile::Item> >::_Tidy
	mov	r11, QWORD PTR [rbx]
	test	r11, r11
	je	SHORT $LN20@scalar@27
	dec	DWORD PTR [r11]
	mov	rax, QWORD PTR [rbx]
	xor	ecx, ecx
	cmp	DWORD PTR [rax], ecx
	mov	rdx, rax
	cmove	rdx, rcx
	mov	QWORD PTR [rbx], rdx
$LN20@scalar@27:
	mov	rax, rbx
	add	rsp, 32					; 00000020H
	pop	rbx
	ret	0
??_GSect@CInifile@@QEAAPEAXI@Z ENDP			; CInifile::Sect::`scalar deleting destructor'
_TEXT	ENDS
;	COMDAT pdata
; File c:\users\nummer\documents\github\olr-3.0\src\xray\xrcore\xrsyncronize.cpp
pdata	SEGMENT
$pdata$??R?$xr_special_free@$0A@USect@CInifile@@@@QEAAXAEAPEAUSect@CInifile@@@Z DD imagerel $LN47
	DD	imagerel $LN47+108
	DD	imagerel $unwind$??R?$xr_special_free@$0A@USect@CInifile@@@@QEAAXAEAPEAUSect@CInifile@@@Z
pdata	ENDS
;	COMDAT pdata
pdata	SEGMENT
$pdata$0$??R?$xr_special_free@$0A@USect@CInifile@@@@QEAAXAEAPEAUSect@CInifile@@@Z DD imagerel $LN47+108
	DD	imagerel $LN47+158
	DD	imagerel $chain$0$??R?$xr_special_free@$0A@USect@CInifile@@@@QEAAXAEAPEAUSect@CInifile@@@Z
pdata	ENDS
;	COMDAT pdata
pdata	SEGMENT
$pdata$1$??R?$xr_special_free@$0A@USect@CInifile@@@@QEAAXAEAPEAUSect@CInifile@@@Z DD imagerel $LN47+158
	DD	imagerel $LN47+169
	DD	imagerel $chain$1$??R?$xr_special_free@$0A@USect@CInifile@@@@QEAAXAEAPEAUSect@CInifile@@@Z
pdata	ENDS
;	COMDAT xdata
xdata	SEGMENT
$chain$1$??R?$xr_special_free@$0A@USect@CInifile@@@@QEAAXAEAPEAUSect@CInifile@@@Z DD 021H
	DD	imagerel $LN47
	DD	imagerel $LN47+108
	DD	imagerel $unwind$??R?$xr_special_free@$0A@USect@CInifile@@@@QEAAXAEAPEAUSect@CInifile@@@Z
xdata	ENDS
;	COMDAT xdata
xdata	SEGMENT
$chain$0$??R?$xr_special_free@$0A@USect@CInifile@@@@QEAAXAEAPEAUSect@CInifile@@@Z DD 020521H
	DD	066405H
	DD	imagerel $LN47
	DD	imagerel $LN47+108
	DD	imagerel $unwind$??R?$xr_special_free@$0A@USect@CInifile@@@@QEAAXAEAPEAUSect@CInifile@@@Z
xdata	ENDS
;	COMDAT xdata
xdata	SEGMENT
$unwind$??R?$xr_special_free@$0A@USect@CInifile@@@@QEAAXAEAPEAUSect@CInifile@@@Z DD 040a01H
	DD	07340aH
	DD	07006320aH
; Function compile flags: /Ogtpy
; File c:\users\nummer\documents\github\olr-3.0\src\xray\xrcore\xrmemory_subst_msvc.h
xdata	ENDS
;	COMDAT ??R?$xr_special_free@$0A@USect@CInifile@@@@QEAAXAEAPEAUSect@CInifile@@@Z
_TEXT	SEGMENT
ptr$ = 48
??R?$xr_special_free@$0A@USect@CInifile@@@@QEAAXAEAPEAUSect@CInifile@@@Z PROC ; xr_special_free<0,CInifile::Sect>::operator(), COMDAT

; 142  : 	{

$LN47:
	mov	QWORD PTR [rsp+16], rbx
	push	rdi
	sub	rsp, 32					; 00000020H

; 143  : 		ptr->~T			();

	mov	rbx, QWORD PTR [rcx]
	mov	rdi, rcx
	lea	rcx, QWORD PTR [rbx+8]
	call	?_Tidy@?$vector@UItem@CInifile@@V?$xalloc@UItem@CInifile@@@@@std@@IEAAXXZ ; std::vector<CInifile::Item,xalloc<CInifile::Item> >::_Tidy
	mov	r11, QWORD PTR [rbx]
	test	r11, r11
	je	SHORT $LN16@operator@56
	dec	DWORD PTR [r11]
	mov	rax, QWORD PTR [rbx]
	xor	ecx, ecx
	cmp	DWORD PTR [rax], ecx
	mov	rdx, rax
	cmove	rdx, rcx
	mov	QWORD PTR [rbx], rdx
$LN16@operator@56:

; 144  : 		Memory.mem_free	(ptr);

	mov	rdi, QWORD PTR [rdi]
	inc	DWORD PTR ?Memory@@3VxrMemory@@A
	movzx	eax, BYTE PTR [rdi-1]
	dec	rdi
	cmp	eax, 55					; 00000037H
	jne	SHORT $LN24@operator@56
	test	rdi, rdi
	je	SHORT $LN45@operator@56
	and	rdi, -8
	mov	rcx, QWORD PTR [rdi-8]

; 145  : 	}

	mov	rbx, QWORD PTR [rsp+56]
	add	rsp, 32					; 00000020H
	pop	rdi
	rex_jmp	QWORD PTR __imp_free

; 144  : 		Memory.mem_free	(ptr);

$LN24@operator@56:
	lea	rbx, QWORD PTR [rax+rax*4]
	mov	QWORD PTR [rsp+48], rsi
	lea	rsi, OFFSET FLAT:?mem_pools@@3PAVMEMPOOL@@A ; mem_pools
	mov	rcx, QWORD PTR [rsi+rbx*8]
	call	QWORD PTR __imp_EnterCriticalSection
	mov	rax, QWORD PTR [rsi+rbx*8+32]
	mov	QWORD PTR [rdi], rax
	mov	rcx, QWORD PTR [rsi+rbx*8]
	mov	QWORD PTR [rsi+rbx*8+32], rdi
	call	QWORD PTR __imp_LeaveCriticalSection
	mov	rsi, QWORD PTR [rsp+48]
$LN45@operator@56:

; 145  : 	}

	mov	rbx, QWORD PTR [rsp+56]
	add	rsp, 32					; 00000020H
	pop	rdi
	ret	0
??R?$xr_special_free@$0A@USect@CInifile@@@@QEAAXAEAPEAUSect@CInifile@@@Z ENDP ; xr_special_free<0,CInifile::Sect>::operator()
; Function compile flags: /Ogtpy
; File c:\program files (x86)\microsoft visual studio 10.0\vc\include\memory
_TEXT	ENDS
;	COMDAT ??$_Uninitialized_fill_n@PEAUItem@CInifile@@_KU12@V?$xalloc@UItem@CInifile@@@@@std@@YAXPEAUItem@CInifile@@_KPEBU12@AEAV?$xalloc@UItem@CInifile@@@@@Z
_TEXT	SEGMENT
_First$ = 8
_Count$ = 16
_Pval$ = 24
??$_Uninitialized_fill_n@PEAUItem@CInifile@@_KU12@V?$xalloc@UItem@CInifile@@@@@std@@YAXPEAUItem@CInifile@@_KPEBU12@AEAV?$xalloc@UItem@CInifile@@@@@Z PROC ; std::_Uninitialized_fill_n<CInifile::Item * __ptr64,unsigned __int64,CInifile::Item,xalloc<CInifile::Item> >, COMDAT

; 607  : 	_Uninit_fill_n(_First, _Count, _Pval, _Al,
; 608  : 		_Val_type(_First), _Ptr_cat(_First, _First));
; 609  : 	}

	jmp	??$_Uninit_fill_n@PEAUItem@CInifile@@_KU12@V?$xalloc@UItem@CInifile@@@@U12@@std@@YAXPEAUItem@CInifile@@_KPEBU12@AEAV?$xalloc@UItem@CInifile@@@@0U_Nonscalar_ptr_iterator_tag@0@@Z ; std::_Uninit_fill_n<CInifile::Item * __ptr64,unsigned __int64,CInifile::Item,xalloc<CInifile::Item>,CInifile::Item>
??$_Uninitialized_fill_n@PEAUItem@CInifile@@_KU12@V?$xalloc@UItem@CInifile@@@@@std@@YAXPEAUItem@CInifile@@_KPEBU12@AEAV?$xalloc@UItem@CInifile@@@@@Z ENDP ; std::_Uninitialized_fill_n<CInifile::Item * __ptr64,unsigned __int64,CInifile::Item,xalloc<CInifile::Item> >
; Function compile flags: /Ogtpy
; File c:\program files (x86)\microsoft visual studio 10.0\vc\include\vector
_TEXT	ENDS
;	COMDAT ??$_Umove@PEAUItem@CInifile@@@?$vector@UItem@CInifile@@V?$xalloc@UItem@CInifile@@@@@std@@IEAAPEAUItem@CInifile@@PEAU23@00@Z
_TEXT	SEGMENT
_First$ = 8
_Last$ = 16
_Ptr$ = 24
??$_Umove@PEAUItem@CInifile@@@?$vector@UItem@CInifile@@V?$xalloc@UItem@CInifile@@@@@std@@IEAAPEAUItem@CInifile@@PEAU23@00@Z PROC ; std::vector<CInifile::Item,xalloc<CInifile::Item> >::_Umove<CInifile::Item * __ptr64>, COMDAT

; 1323 : 		{	// move initializing [_First, _Last), using allocator
; 1324 : 		return (_Uninitialized_move(_First, _Last,
; 1325 : 			_Ptr, this->_Alval));
; 1326 : 		}

	jmp	??$_Uninit_move@PEAUItem@CInifile@@PEAU12@V?$xalloc@UItem@CInifile@@@@U12@@std@@YAPEAUItem@CInifile@@PEAU12@00AEAV?$xalloc@UItem@CInifile@@@@0U_Nonscalar_ptr_iterator_tag@0@@Z ; std::_Uninit_move<CInifile::Item * __ptr64,CInifile::Item * __ptr64,xalloc<CInifile::Item>,CInifile::Item>
??$_Umove@PEAUItem@CInifile@@@?$vector@UItem@CInifile@@V?$xalloc@UItem@CInifile@@@@@std@@IEAAPEAUItem@CInifile@@PEAU23@00@Z ENDP ; std::vector<CInifile::Item,xalloc<CInifile::Item> >::_Umove<CInifile::Item * __ptr64>
_TEXT	ENDS
;	COMDAT pdata
; File c:\users\nummer\documents\github\olr-3.0\src\xray\xrcore\xrmemory_subst_msvc.h
pdata	SEGMENT
$pdata$??$xr_delete@USect@CInifile@@@@YAXAEAPEAUSect@CInifile@@@Z DD imagerel $LN4
	DD	imagerel $LN4+33
	DD	imagerel $unwind$??$xr_delete@USect@CInifile@@@@YAXAEAPEAUSect@CInifile@@@Z
pdata	ENDS
;	COMDAT xdata
xdata	SEGMENT
$unwind$??$xr_delete@USect@CInifile@@@@YAXAEAPEAUSect@CInifile@@@Z DD 020601H
	DD	030023206H
; Function compile flags: /Ogtpy
xdata	ENDS
;	COMDAT ??$xr_delete@USect@CInifile@@@@YAXAEAPEAUSect@CInifile@@@Z
_TEXT	SEGMENT
ptr$ = 48
??$xr_delete@USect@CInifile@@@@YAXAEAPEAUSect@CInifile@@@Z PROC ; xr_delete<CInifile::Sect>, COMDAT

; 150  : {

$LN4:
	push	rbx
	sub	rsp, 32					; 00000020H

; 151  : 	if (ptr) 

	cmp	QWORD PTR [rcx], 0
	mov	rbx, rcx
	je	SHORT $LN1@xr_delete@9

; 152  : 	{
; 153  : 		xr_special_free<xrcore::is_polymorphic<T>::result,T>()(ptr);

	call	??R?$xr_special_free@$0A@USect@CInifile@@@@QEAAXAEAPEAUSect@CInifile@@@Z ; xr_special_free<0,CInifile::Sect>::operator()

; 154  : 		ptr = NULL;

	mov	QWORD PTR [rbx], 0
$LN1@xr_delete@9:

; 155  : 	}
; 156  : }

	add	rsp, 32					; 00000020H
	pop	rbx
	ret	0
??$xr_delete@USect@CInifile@@@@YAXAEAPEAUSect@CInifile@@@Z ENDP ; xr_delete<CInifile::Sect>
_TEXT	ENDS
;	COMDAT pdata
; File c:\program files (x86)\microsoft visual studio 10.0\vc\include\xutility
pdata	SEGMENT
$pdata$?_Ufill@?$vector@UItem@CInifile@@V?$xalloc@UItem@CInifile@@@@@std@@IEAAPEAUItem@CInifile@@PEAU34@_KPEBU34@@Z DD imagerel $LN9
	DD	imagerel $LN9+39
	DD	imagerel $unwind$?_Ufill@?$vector@UItem@CInifile@@V?$xalloc@UItem@CInifile@@@@@std@@IEAAPEAUItem@CInifile@@PEAU34@_KPEBU34@@Z
pdata	ENDS
;	COMDAT xdata
xdata	SEGMENT
$unwind$?_Ufill@?$vector@UItem@CInifile@@V?$xalloc@UItem@CInifile@@@@@std@@IEAAPEAUItem@CInifile@@PEAU34@_KPEBU34@@Z DD 040a01H
	DD	06340aH
	DD	07006320aH
; Function compile flags: /Ogtpy
; File c:\program files (x86)\microsoft visual studio 10.0\vc\include\vector
xdata	ENDS
;	COMDAT ?_Ufill@?$vector@UItem@CInifile@@V?$xalloc@UItem@CInifile@@@@@std@@IEAAPEAUItem@CInifile@@PEAU34@_KPEBU34@@Z
_TEXT	SEGMENT
_Ptr$ = 48
_Count$ = 56
_Pval$ = 64
?_Ufill@?$vector@UItem@CInifile@@V?$xalloc@UItem@CInifile@@@@@std@@IEAAPEAUItem@CInifile@@PEAU34@_KPEBU34@@Z PROC ; std::vector<CInifile::Item,xalloc<CInifile::Item> >::_Ufill, COMDAT

; 1420 : 		{	// copy initializing _Count * _Val, using allocator

$LN9:
	mov	QWORD PTR [rsp+8], rbx
	push	rdi
	sub	rsp, 32					; 00000020H
	mov	rdi, rdx
	mov	rbx, rcx

; 1421 : 		_Uninitialized_fill_n(_Ptr, _Count, _Pval, this->_Alval);

	call	??$_Uninit_fill_n@PEAUItem@CInifile@@_KU12@V?$xalloc@UItem@CInifile@@@@U12@@std@@YAXPEAUItem@CInifile@@_KPEBU12@AEAV?$xalloc@UItem@CInifile@@@@0U_Nonscalar_ptr_iterator_tag@0@@Z ; std::_Uninit_fill_n<CInifile::Item * __ptr64,unsigned __int64,CInifile::Item,xalloc<CInifile::Item>,CInifile::Item>

; 1422 : 		return (_Ptr + _Count);

	add	rdi, rdi
	lea	rax, QWORD PTR [rbx+rdi*8]

; 1423 : 		}

	mov	rbx, QWORD PTR [rsp+48]
	add	rsp, 32					; 00000020H
	pop	rdi
	ret	0
?_Ufill@?$vector@UItem@CInifile@@V?$xalloc@UItem@CInifile@@@@@std@@IEAAPEAUItem@CInifile@@PEAU34@_KPEBU34@@Z ENDP ; std::vector<CInifile::Item,xalloc<CInifile::Item> >::_Ufill
_TEXT	ENDS
;	COMDAT pdata
; File c:\program files (x86)\microsoft visual studio 10.0\vc\include\xutility
pdata	SEGMENT
$pdata$?erase@?$vector@UItem@CInifile@@V?$xalloc@UItem@CInifile@@@@@std@@QEAA?AV?$_Vector_iterator@V?$_Vector_val@UItem@CInifile@@V?$xalloc@UItem@CInifile@@@@@std@@@2@V?$_Vector_const_iterator@V?$_Vector_val@UItem@CInifile@@V?$xalloc@UItem@CInifile@@@@@std@@@2@@Z DD imagerel $LN81
	DD	imagerel $LN81+138
	DD	imagerel $unwind$?erase@?$vector@UItem@CInifile@@V?$xalloc@UItem@CInifile@@@@@std@@QEAA?AV?$_Vector_iterator@V?$_Vector_val@UItem@CInifile@@V?$xalloc@UItem@CInifile@@@@@std@@@2@V?$_Vector_const_iterator@V?$_Vector_val@UItem@CInifile@@V?$xalloc@UItem@CInifile@@@@@std@@@2@@Z
pdata	ENDS
;	COMDAT xdata
xdata	SEGMENT
$unwind$?erase@?$vector@UItem@CInifile@@V?$xalloc@UItem@CInifile@@@@@std@@QEAA?AV?$_Vector_iterator@V?$_Vector_val@UItem@CInifile@@V?$xalloc@UItem@CInifile@@@@@std@@@2@V?$_Vector_const_iterator@V?$_Vector_val@UItem@CInifile@@V?$xalloc@UItem@CInifile@@@@@std@@@2@@Z DD 040f01H
	DD	06340fH
	DD	0700b320fH
; Function compile flags: /Ogtpy
; File c:\program files (x86)\microsoft visual studio 10.0\vc\include\vector
xdata	ENDS
;	COMDAT ?erase@?$vector@UItem@CInifile@@V?$xalloc@UItem@CInifile@@@@@std@@QEAA?AV?$_Vector_iterator@V?$_Vector_val@UItem@CInifile@@V?$xalloc@UItem@CInifile@@@@@std@@@2@V?$_Vector_const_iterator@V?$_Vector_val@UItem@CInifile@@V?$xalloc@UItem@CInifile@@@@@std@@@2@@Z
_TEXT	SEGMENT
this$ = 48
__$ReturnUdt$ = 56
_Where$ = 64
?erase@?$vector@UItem@CInifile@@V?$xalloc@UItem@CInifile@@@@@std@@QEAA?AV?$_Vector_iterator@V?$_Vector_val@UItem@CInifile@@V?$xalloc@UItem@CInifile@@@@@std@@@2@V?$_Vector_const_iterator@V?$_Vector_val@UItem@CInifile@@V?$xalloc@UItem@CInifile@@@@@std@@@2@@Z PROC ; std::vector<CInifile::Item,xalloc<CInifile::Item> >::erase, COMDAT

; 1179 : 		{	// erase element at where

$LN81:
	mov	QWORD PTR [rsp+8], rbx
	mov	QWORD PTR [rsp+24], r8
	push	rdi
	sub	rsp, 32					; 00000020H
	mov	rbx, rcx
	mov	rdi, rdx

; 1180 : 		_Move(_VIPTR(_Where) + 1, this->_Mylast,
; 1181 : 			_VIPTR(_Where));

	lea	rcx, QWORD PTR [r8+16]
	mov	rdx, QWORD PTR [rbx+8]
	call	??$_Move@PEAUItem@CInifile@@PEAU12@@std@@YAPEAUItem@CInifile@@PEAU12@00U_Nonscalar_ptr_iterator_tag@0@@Z ; std::_Move<CInifile::Item * __ptr64,CInifile::Item * __ptr64>

; 1182 : 		_Destroy(this->_Mylast - 1, this->_Mylast);

	mov	r11, QWORD PTR [rbx+8]
	lea	r8, QWORD PTR [r11-16]
	cmp	r8, r11
	je	SHORT $LN13@erase@25
	xor	edx, edx
$LL15@erase@25:
	mov	rax, QWORD PTR [r8+8]
	test	rax, rax
	je	SHORT $LN31@erase@25
	dec	DWORD PTR [rax]
	mov	rax, QWORD PTR [r8+8]
	cmp	DWORD PTR [rax], edx
	mov	rcx, rax
	cmove	rcx, rdx
	mov	QWORD PTR [r8+8], rcx
$LN31@erase@25:
	mov	rax, QWORD PTR [r8]
	test	rax, rax
	je	SHORT $LN37@erase@25
	dec	DWORD PTR [rax]
	mov	rax, QWORD PTR [r8]
	cmp	DWORD PTR [rax], edx
	mov	rcx, rax
	cmove	rcx, rdx
	mov	QWORD PTR [r8], rcx
$LN37@erase@25:
	add	r8, 16
	cmp	r8, r11
	jne	SHORT $LL15@erase@25
$LN13@erase@25:

; 1183 : 		--this->_Mylast;
; 1184 : 		return (_Make_iter(_Where));

	mov	rax, QWORD PTR _Where$[rsp]
	add	QWORD PTR [rbx+8], -16

; 1185 : 		}

	mov	rbx, QWORD PTR [rsp+48]
	mov	QWORD PTR [rdi], rax
	mov	rax, rdi
	add	rsp, 32					; 00000020H
	pop	rdi
	ret	0
?erase@?$vector@UItem@CInifile@@V?$xalloc@UItem@CInifile@@@@@std@@QEAA?AV?$_Vector_iterator@V?$_Vector_val@UItem@CInifile@@V?$xalloc@UItem@CInifile@@@@@std@@@2@V?$_Vector_const_iterator@V?$_Vector_val@UItem@CInifile@@V?$xalloc@UItem@CInifile@@@@@std@@@2@@Z ENDP ; std::vector<CInifile::Item,xalloc<CInifile::Item> >::erase
pdata	SEGMENT
$pdata$?item_pred@@YA_NAEBUItem@CInifile@@PEBD@Z DD imagerel $LN37
	DD	imagerel $LN37+105
	DD	imagerel $unwind$?item_pred@@YA_NAEBUItem@CInifile@@PEBD@Z
pdata	ENDS
xdata	SEGMENT
$unwind$?item_pred@@YA_NAEBUItem@CInifile@@PEBD@Z DD 020601H
	DD	030023206H
; Function compile flags: /Ogtpy
; File c:\users\nummer\documents\github\olr-3.0\src\xray\xrcore\xr_ini.cpp
xdata	ENDS
_TEXT	SEGMENT
x$ = 48
val$ = 56
?item_pred@@YA_NAEBUItem@CInifile@@PEBD@Z PROC		; item_pred

; 20   : {

$LN37:
	push	rbx
	sub	rsp, 32					; 00000020H

; 21   :     if ((!x.first) || (!val))	return x.first<val;

	mov	rax, QWORD PTR [rcx]
	mov	r8, rdx
	mov	rbx, rcx
	test	rax, rax
	je	SHORT $LN2@item_pred
	test	rdx, rdx
	je	SHORT $LN2@item_pred

; 22   :     else				   		return xr_strcmp(*x.first,val)<0;

	add	rax, 12
	sub	r8, rax
$LL35@item_pred:
	movzx	edx, BYTE PTR [rax]
	movzx	ecx, BYTE PTR [rax+r8]
	sub	edx, ecx
	jne	SHORT $LN36@item_pred
	inc	rax
	test	ecx, ecx
	jne	SHORT $LL35@item_pred
$LN36@item_pred:
	xor	eax, eax
	test	edx, edx
	sets	al

; 23   : }

	add	rsp, 32					; 00000020H
	pop	rbx
	ret	0
$LN2@item_pred:

; 21   :     if ((!x.first) || (!val))	return x.first<val;

	mov	rcx, QWORD PTR ?g_pStringContainer@@3PEAVstr_container@@EA ; g_pStringContainer
	call	?dock@str_container@@QEAAPEAUstr_value@@PEBD@Z ; str_container::dock
	test	rax, rax
	je	SHORT $LN13@item_pred
	inc	DWORD PTR [rax]
$LN13@item_pred:
	cmp	QWORD PTR [rbx], rax
	setb	cl
	test	rax, rax
	je	SHORT $LN25@item_pred
	dec	DWORD PTR [rax]
$LN25@item_pred:
	movzx	eax, cl

; 23   : }

	add	rsp, 32					; 00000020H
	pop	rbx
	ret	0
?item_pred@@YA_NAEBUItem@CInifile@@PEBD@Z ENDP		; item_pred
PUBLIC	?line_exist@Sect@CInifile@@QEAAHPEBDPEAPEBD@Z	; CInifile::Sect::line_exist
pdata	SEGMENT
$pdata$?line_exist@Sect@CInifile@@QEAAHPEBDPEAPEBD@Z DD imagerel $LN132
	DD	imagerel $LN132+14
	DD	imagerel $unwind$?line_exist@Sect@CInifile@@QEAAHPEBDPEAPEBD@Z
$pdata$1$?line_exist@Sect@CInifile@@QEAAHPEBDPEAPEBD@Z DD imagerel $LN132+14
	DD	imagerel $LN132+53
	DD	imagerel $chain$1$?line_exist@Sect@CInifile@@QEAAHPEBDPEAPEBD@Z
$pdata$3$?line_exist@Sect@CInifile@@QEAAHPEBDPEAPEBD@Z DD imagerel $LN132+53
	DD	imagerel $LN132+217
	DD	imagerel $chain$3$?line_exist@Sect@CInifile@@QEAAHPEBDPEAPEBD@Z
$pdata$4$?line_exist@Sect@CInifile@@QEAAHPEBDPEAPEBD@Z DD imagerel $LN132+217
	DD	imagerel $LN132+233
	DD	imagerel $chain$4$?line_exist@Sect@CInifile@@QEAAHPEBDPEAPEBD@Z
$pdata$5$?line_exist@Sect@CInifile@@QEAAHPEBDPEAPEBD@Z DD imagerel $LN132+233
	DD	imagerel $LN132+328
	DD	imagerel $chain$5$?line_exist@Sect@CInifile@@QEAAHPEBDPEAPEBD@Z
pdata	ENDS
xdata	SEGMENT
$unwind$?line_exist@Sect@CInifile@@QEAAHPEBDPEAPEBD@Z DD 040a01H
	DD	0e006320aH
	DD	07002c004H
$chain$1$?line_exist@Sect@CInifile@@QEAAHPEBDPEAPEBD@Z DD 041121H
	DD	0bd411H
	DD	083405H
	DD	imagerel $LN132
	DD	imagerel $LN132+14
	DD	imagerel $unwind$?line_exist@Sect@CInifile@@QEAAHPEBDPEAPEBD@Z
$chain$3$?line_exist@Sect@CInifile@@QEAAHPEBDPEAPEBD@Z DD 040a21H
	DD	0a640aH
	DD	095405H
	DD	imagerel $LN132+14
	DD	imagerel $LN132+53
	DD	imagerel $chain$1$?line_exist@Sect@CInifile@@QEAAHPEBDPEAPEBD@Z
$chain$4$?line_exist@Sect@CInifile@@QEAAHPEBDPEAPEBD@Z DD 021H
	DD	imagerel $LN132+14
	DD	imagerel $LN132+53
	DD	imagerel $chain$1$?line_exist@Sect@CInifile@@QEAAHPEBDPEAPEBD@Z
$chain$5$?line_exist@Sect@CInifile@@QEAAHPEBDPEAPEBD@Z DD 021H
	DD	imagerel $LN132
	DD	imagerel $LN132+14
	DD	imagerel $unwind$?line_exist@Sect@CInifile@@QEAAHPEBDPEAPEBD@Z
; Function compile flags: /Ogtpy
xdata	ENDS
_TEXT	SEGMENT
this$ = 64
L$ = 72
val$ = 80
?line_exist@Sect@CInifile@@QEAAHPEBDPEAPEBD@Z PROC	; CInifile::Sect::line_exist

; 66   : {

$LN132:
	push	rdi
	push	r12
	push	r14
	sub	rsp, 32					; 00000020H

; 67   : 	SectCIt A = std::lower_bound(Data.begin(),Data.end(),L,item_pred);

	mov	r12, QWORD PTR [rcx+8]
	mov	QWORD PTR [rsp+64], rbx
	mov	rbx, QWORD PTR [rcx+16]
	sub	rbx, r12
	mov	QWORD PTR [rsp+88], r13
	mov	r14, r8
	sar	rbx, 4
	mov	rdi, rdx
	mov	r13, rcx
	test	rbx, rbx
	jle	$LN35@line_exist
	mov	QWORD PTR [rsp+72], rbp
	mov	QWORD PTR [rsp+80], rsi
	npad	1
$LL36@line_exist:
	mov	rax, rbx
	cdq
	sub	rax, rdx
	sar	rax, 1
	mov	rsi, rax
	mov	rbp, rax
	add	rsi, rsi
	mov	rcx, QWORD PTR [r12+rsi*8]
	test	rcx, rcx
	je	SHORT $LN52@line_exist
	test	rdi, rdi
	je	SHORT $LN52@line_exist
	add	rcx, 12
	mov	r8, rdi
	sub	r8, rcx
	npad	4
$LL130@line_exist:
	movzx	edx, BYTE PTR [rcx]
	movzx	eax, BYTE PTR [rcx+r8]
	sub	edx, eax
	jne	SHORT $LN131@line_exist
	inc	rcx
	test	eax, eax
	jne	SHORT $LL130@line_exist
$LN131@line_exist:
	test	edx, edx
	sets	cl
	jmp	SHORT $LN75@line_exist
$LN52@line_exist:
	mov	rcx, QWORD PTR ?g_pStringContainer@@3PEAVstr_container@@EA ; g_pStringContainer
	mov	rdx, rdi
	call	?dock@str_container@@QEAAPEAUstr_value@@PEBD@Z ; str_container::dock
	test	rax, rax
	je	SHORT $LN63@line_exist
	inc	DWORD PTR [rax]
$LN63@line_exist:
	cmp	QWORD PTR [r12+rsi*8], rax
	setb	cl
	test	rax, rax
	je	SHORT $LN75@line_exist
	dec	DWORD PTR [rax]
$LN75@line_exist:
	test	cl, cl
	je	SHORT $LN34@line_exist
	or	rax, -1
	lea	r12, QWORD PTR [r12+rsi*8+16]
	sub	rax, rbp
	add	rbx, rax
	jmp	SHORT $LN33@line_exist
$LN34@line_exist:
	mov	rbx, rbp
$LN33@line_exist:
	test	rbx, rbx
	jg	$LL36@line_exist
	mov	rsi, QWORD PTR [rsp+80]
	mov	rbp, QWORD PTR [rsp+72]
$LN35@line_exist:

; 68   :     if (A!=Data.end() && xr_strcmp(*A->first,L)==0){

	cmp	r12, QWORD PTR [r13+16]
	mov	rbx, QWORD PTR [rsp+64]
	mov	r13, QWORD PTR [rsp+88]
	je	SHORT $LN2@line_exist
	mov	rax, QWORD PTR [r12]
	xor	r8d, r8d
	test	rax, rax
	je	SHORT $LN112@line_exist
	add	rax, 12
	jmp	SHORT $LN113@line_exist
$LN112@line_exist:
	mov	rax, r8
$LN113@line_exist:
	sub	rdi, rax
$LL128@line_exist:
	movzx	edx, BYTE PTR [rax]
	movzx	ecx, BYTE PTR [rax+rdi]
	sub	edx, ecx
	jne	SHORT $LN129@line_exist
	inc	rax
	test	ecx, ecx
	jne	SHORT $LL128@line_exist
$LN129@line_exist:
	test	edx, edx
	jne	SHORT $LN2@line_exist

; 69   :     	if (val) *val = *A->second;

	test	r14, r14
	je	SHORT $LN1@line_exist
	mov	rax, QWORD PTR [r12+8]
	test	rax, rax
	je	SHORT $LN125@line_exist
	lea	r8, QWORD PTR [rax+12]
$LN125@line_exist:
	mov	QWORD PTR [r14], r8
$LN1@line_exist:

; 70   :     	return TRUE;

	mov	eax, 1

; 73   : }

	add	rsp, 32					; 00000020H
	pop	r14
	pop	r12
	pop	rdi
	ret	0
$LN2@line_exist:

; 71   :     }
; 72   : 	return FALSE;

	xor	eax, eax

; 73   : }

	add	rsp, 32					; 00000020H
	pop	r14
	pop	r12
	pop	rdi
	ret	0
?line_exist@Sect@CInifile@@QEAAHPEBDPEAPEBD@Z ENDP	; CInifile::Sect::line_exist
PUBLIC	?r_section@CInifile@@QEAAAEAUSect@1@PEBD@Z	; CInifile::r_section
pdata	SEGMENT
$pdata$?r_section@CInifile@@QEAAAEAUSect@1@PEBD@Z DD imagerel $LN103
	DD	imagerel $LN103+19
	DD	imagerel $unwind$?r_section@CInifile@@QEAAAEAUSect@1@PEBD@Z
$pdata$0$?r_section@CInifile@@QEAAAEAUSect@1@PEBD@Z DD imagerel $LN103+19
	DD	imagerel $LN103+83
	DD	imagerel $chain$0$?r_section@CInifile@@QEAAAEAUSect@1@PEBD@Z
$pdata$1$?r_section@CInifile@@QEAAAEAUSect@1@PEBD@Z DD imagerel $LN103+83
	DD	imagerel $LN103+199
	DD	imagerel $chain$1$?r_section@CInifile@@QEAAAEAUSect@1@PEBD@Z
$pdata$2$?r_section@CInifile@@QEAAAEAUSect@1@PEBD@Z DD imagerel $LN103+199
	DD	imagerel $LN103+212
	DD	imagerel $chain$2$?r_section@CInifile@@QEAAAEAUSect@1@PEBD@Z
$pdata$3$?r_section@CInifile@@QEAAAEAUSect@1@PEBD@Z DD imagerel $LN103+212
	DD	imagerel $LN103+333
	DD	imagerel $chain$3$?r_section@CInifile@@QEAAAEAUSect@1@PEBD@Z
pdata	ENDS
xdata	SEGMENT
$unwind$?r_section@CInifile@@QEAAAEAUSect@1@PEBD@Z DD 050d01H
	DD	02a540dH
	DD	026010dH
	DD	07006H
$chain$0$?r_section@CInifile@@QEAAAEAUSect@1@PEBD@Z DD 020821H
	DD	0283408H
	DD	imagerel $LN103
	DD	imagerel $LN103+19
	DD	imagerel $unwind$?r_section@CInifile@@QEAAAEAUSect@1@PEBD@Z
$chain$1$?r_section@CInifile@@QEAAAEAUSect@1@PEBD@Z DD 020821H
	DD	0296408H
	DD	imagerel $LN103+19
	DD	imagerel $LN103+83
	DD	imagerel $chain$0$?r_section@CInifile@@QEAAAEAUSect@1@PEBD@Z
$chain$2$?r_section@CInifile@@QEAAAEAUSect@1@PEBD@Z DD 021H
	DD	imagerel $LN103+19
	DD	imagerel $LN103+83
	DD	imagerel $chain$0$?r_section@CInifile@@QEAAAEAUSect@1@PEBD@Z
$chain$3$?r_section@CInifile@@QEAAAEAUSect@1@PEBD@Z DD 021H
	DD	imagerel $LN103
	DD	imagerel $LN103+19
	DD	imagerel $unwind$?r_section@CInifile@@QEAAAEAUSect@1@PEBD@Z
; Function compile flags: /Ogtpy
xdata	ENDS
_TEXT	SEGMENT
section$ = 48
this$ = 320
S$ = 328
?r_section@CInifile@@QEAAAEAUSect@1@PEBD@Z PROC		; CInifile::r_section

; 338  : {

$LN103:
	mov	QWORD PTR [rsp+24], rbp
	push	rdi
	sub	rsp, 304				; 00000130H
	mov	rbp, rdx

; 339  : 	char	section[256]; strcpy_s(section,sizeof(section),S); strlwr(section);

	mov	r8, rdx
	mov	QWORD PTR [rsp+320], rbx
	mov	rbx, rcx
	lea	rcx, QWORD PTR section$[rsp]
	mov	edx, 256				; 00000100H
	call	QWORD PTR __imp_strcpy_s
	lea	rcx, QWORD PTR section$[rsp]
	call	QWORD PTR __imp_strlwr

; 340  : 	RootIt I = std::lower_bound(DATA.begin(),DATA.end(),section,sect_pred);

	mov	r11, QWORD PTR [rbx+24]
	mov	rdi, QWORD PTR [rbx+16]
	mov	r10, r11
	xor	r8d, r8d
	sub	r10, rdi
	sar	r10, 3
	test	r10, r10
	jle	SHORT $LN35@r_section
	mov	QWORD PTR [rsp+328], rsi
	npad	5
$LL36@r_section:
	mov	rax, r10
	cdq
	sub	rax, rdx
	sar	rax, 1
	mov	rbx, rax
	lea	rsi, QWORD PTR [rdi+rax*8]
	mov	rax, QWORD PTR [rdi+rax*8]
	mov	rax, QWORD PTR [rax]
	test	rax, rax
	je	SHORT $LN55@r_section
	add	rax, 12
	jmp	SHORT $LN56@r_section
$LN55@r_section:
	mov	rax, r8
$LN56@r_section:
	lea	r9, QWORD PTR section$[rsp]
	sub	r9, rax
	npad	1
$LL100@r_section:
	movzx	edx, BYTE PTR [rax]
	movzx	ecx, BYTE PTR [rax+r9]
	sub	edx, ecx
	jne	SHORT $LN101@r_section
	inc	rax
	test	ecx, ecx
	jne	SHORT $LL100@r_section
$LN101@r_section:
	test	edx, edx
	jns	SHORT $LN34@r_section
	or	rax, -1
	lea	rdi, QWORD PTR [rsi+8]
	sub	rax, rbx
	add	r10, rax
	jmp	SHORT $LN33@r_section
$LN34@r_section:
	mov	r10, rbx
$LN33@r_section:
	test	r10, r10
	jg	SHORT $LL36@r_section
	mov	rsi, QWORD PTR [rsp+328]
$LN35@r_section:

; 341  : 	if (!(I!=DATA.end() && xr_strcmp(*(*I)->Name,section)==0))

	mov	rbx, QWORD PTR [rsp+320]
	cmp	rdi, r11
	je	SHORT $LN1@r_section
	mov	rax, QWORD PTR [rdi]
	mov	rcx, QWORD PTR [rax]
	test	rcx, rcx
	je	SHORT $LN86@r_section
	lea	r8, QWORD PTR [rcx+12]
$LN86@r_section:
	lea	r9, QWORD PTR section$[rsp]
	sub	r9, r8
	npad	5
$LL98@r_section:
	movzx	edx, BYTE PTR [r8]
	movzx	ecx, BYTE PTR [r8+r9]
	sub	edx, ecx
	jne	SHORT $LN99@r_section
	inc	r8
	test	ecx, ecx
	jne	SHORT $LL98@r_section
$LN99@r_section:
	test	edx, edx
	je	SHORT $LN94@r_section
$LN1@r_section:

; 342  : 		Debug.fatal(DEBUG_INFO,"Can't open section '%s'",S);

	lea	rax, OFFSET FLAT:??_C@_0BI@PGHMEHEA@Can?8t?5open?5section?5?8?$CFs?8?$AA@
	lea	r9, OFFSET FLAT:??_C@_0BE@BCNJJKHP@CInifile?3?3r_section?$AA@
	lea	rdx, OFFSET FLAT:??_C@_0L@BOCIKDOE@Xr_ini?4cpp?$AA@
	lea	rcx, OFFSET FLAT:?Debug@@3VxrDebug@@A	; Debug
	mov	r8d, 342				; 00000156H
	mov	QWORD PTR [rsp+40], rbp
	mov	QWORD PTR [rsp+32], rax
	call	?fatal@xrDebug@@QEAAXPEBDH00ZZ		; xrDebug::fatal

; 343  : 	return	**I;

	mov	rax, QWORD PTR [rdi]
$LN94@r_section:

; 344  : }

	mov	rbp, QWORD PTR [rsp+336]
	add	rsp, 304				; 00000130H
	pop	rdi
	ret	0
?r_section@CInifile@@QEAAAEAUSect@1@PEBD@Z ENDP		; CInifile::r_section
_TEXT	ENDS
PUBLIC	?r_section@CInifile@@QEAAAEAUSect@1@AEBVshared_str@@@Z ; CInifile::r_section
; Function compile flags: /Ogtpy
_TEXT	SEGMENT
this$ = 8
S$ = 16
?r_section@CInifile@@QEAAAEAUSect@1@AEBVshared_str@@@Z PROC ; CInifile::r_section

; 329  : CInifile::Sect&	CInifile::r_section		( const shared_str& S	)					{ return	r_section(*S);		}

	mov	rdx, QWORD PTR [rdx]
	test	rdx, rdx
	je	SHORT $LN5@r_section@2
	add	rdx, 12
	jmp	?r_section@CInifile@@QEAAAEAUSect@1@PEBD@Z ; CInifile::r_section
$LN5@r_section@2:
	jmp	?r_section@CInifile@@QEAAAEAUSect@1@PEBD@Z ; CInifile::r_section
?r_section@CInifile@@QEAAAEAUSect@1@AEBVshared_str@@@Z ENDP ; CInifile::r_section
_TEXT	ENDS
PUBLIC	?line_count@CInifile@@QEAAIPEBD@Z		; CInifile::line_count
pdata	SEGMENT
$pdata$?line_count@CInifile@@QEAAIPEBD@Z DD imagerel $LN47
	DD	imagerel $LN47+66
	DD	imagerel $unwind$?line_count@CInifile@@QEAAIPEBD@Z
pdata	ENDS
xdata	SEGMENT
$unwind$?line_count@CInifile@@QEAAIPEBD@Z DD 010401H
	DD	04204H
; Function compile flags: /Ogtpy
xdata	ENDS
_TEXT	SEGMENT
this$ = 48
Sname$ = 56
?line_count@CInifile@@QEAAIPEBD@Z PROC			; CInifile::line_count

; 319  : {

$LN47:
	sub	rsp, 40					; 00000028H

; 320  : 	Sect&	S = r_section(Sname);

	call	?r_section@CInifile@@QEAAAEAUSect@1@PEBD@Z ; CInifile::r_section

; 321  : 	SectCIt	I = S.Data.begin();
; 322  : 	u32	C = 0;

	xor	r8d, r8d
	mov	rcx, QWORD PTR [rax+8]
	mov	r9, QWORD PTR [rax+16]

; 323  : 	for (; I!=S.Data.end(); I++)	if (*I->first) C++;

	cmp	rcx, r9
	je	SHORT $LN46@line_count@2
	npad	7
$LL17@line_count@2:
	mov	rdx, QWORD PTR [rcx]
	test	rdx, rdx
	je	SHORT $LN3@line_count@2
	add	rdx, 12
	je	SHORT $LN3@line_count@2
	inc	r8d
$LN3@line_count@2:
	add	rcx, 16
	cmp	rcx, r9
	jne	SHORT $LL17@line_count@2
$LN46@line_count@2:

; 324  : 	return  C;

	mov	eax, r8d

; 325  : }

	add	rsp, 40					; 00000028H
	ret	0
?line_count@CInifile@@QEAAIPEBD@Z ENDP			; CInifile::line_count
_TEXT	ENDS
PUBLIC	?line_exist@CInifile@@QEAAHPEBD0@Z		; CInifile::line_exist
pdata	SEGMENT
$pdata$?line_exist@CInifile@@QEAAHPEBD0@Z DD imagerel $LN122
	DD	imagerel $LN122+45
	DD	imagerel $unwind$?line_exist@CInifile@@QEAAHPEBD0@Z
$pdata$1$?line_exist@CInifile@@QEAAHPEBD0@Z DD imagerel $LN122+45
	DD	imagerel $LN122+82
	DD	imagerel $chain$1$?line_exist@CInifile@@QEAAHPEBD0@Z
$pdata$2$?line_exist@CInifile@@QEAAHPEBD0@Z DD imagerel $LN122+82
	DD	imagerel $LN122+244
	DD	imagerel $chain$2$?line_exist@CInifile@@QEAAHPEBD0@Z
$pdata$3$?line_exist@CInifile@@QEAAHPEBD0@Z DD imagerel $LN122+244
	DD	imagerel $LN122+258
	DD	imagerel $chain$3$?line_exist@CInifile@@QEAAHPEBD0@Z
$pdata$4$?line_exist@CInifile@@QEAAHPEBD0@Z DD imagerel $LN122+258
	DD	imagerel $LN122+332
	DD	imagerel $chain$4$?line_exist@CInifile@@QEAAHPEBD0@Z
pdata	ENDS
xdata	SEGMENT
$unwind$?line_exist@CInifile@@QEAAHPEBD0@Z DD 062d01H
	DD	09c42dH
	DD	070043208H
	DD	030026003H
$chain$1$?line_exist@CInifile@@QEAAHPEBD0@Z DD 020521H
	DD	0ad405H
	DD	imagerel $LN122
	DD	imagerel $LN122+45
	DD	imagerel $unwind$?line_exist@CInifile@@QEAAHPEBD0@Z
$chain$2$?line_exist@CInifile@@QEAAHPEBD0@Z DD 020521H
	DD	085405H
	DD	imagerel $LN122+45
	DD	imagerel $LN122+82
	DD	imagerel $chain$1$?line_exist@CInifile@@QEAAHPEBD0@Z
$chain$3$?line_exist@CInifile@@QEAAHPEBD0@Z DD 021H
	DD	imagerel $LN122+45
	DD	imagerel $LN122+82
	DD	imagerel $chain$1$?line_exist@CInifile@@QEAAHPEBD0@Z
$chain$4$?line_exist@CInifile@@QEAAHPEBD0@Z DD 021H
	DD	imagerel $LN122
	DD	imagerel $LN122+45
	DD	imagerel $unwind$?line_exist@CInifile@@QEAAHPEBD0@Z
; Function compile flags: /Ogtpy
xdata	ENDS
_TEXT	SEGMENT
this$ = 64
S$ = 72
L$ = 80
?line_exist@CInifile@@QEAAHPEBD0@Z PROC			; CInifile::line_exist

; 311  : {

$LN122:
	push	rbx
	push	rsi
	push	rdi
	sub	rsp, 32					; 00000020H
	mov	rsi, r8
	mov	rbx, rdx
	mov	rdi, rcx

; 312  : 	if (!section_exist(S)) return FALSE;

	call	?section_exist@CInifile@@QEAAHPEBD@Z	; CInifile::section_exist
	test	eax, eax
	jne	SHORT $LN1@line_exist@2

; 316  : }

	add	rsp, 32					; 00000020H
	pop	rdi
	pop	rsi
	pop	rbx
	ret	0
$LN1@line_exist@2:

; 313  : 	Sect&	I = r_section(S);

	mov	rdx, rbx
	mov	rcx, rdi
	mov	QWORD PTR [rsp+72], r12
	mov	QWORD PTR [rsp+80], r13
	call	?r_section@CInifile@@QEAAAEAUSect@1@PEBD@Z ; CInifile::r_section

; 314  : 	SectCIt A = std::lower_bound(I.Data.begin(),I.Data.end(),L,item_pred);

	mov	rbx, QWORD PTR [rax+16]
	mov	r12, QWORD PTR [rax+8]
	mov	r13, rax
	sub	rbx, r12
	sar	rbx, 4
	test	rbx, rbx
	jle	$LN36@line_exist@2
	mov	QWORD PTR [rsp+64], rbp
	npad	9
$LL37@line_exist@2:
	mov	rax, rbx
	cdq
	sub	rax, rdx
	sar	rax, 1
	mov	rdi, rax
	mov	rbp, rax
	add	rdi, rdi
	mov	rcx, QWORD PTR [r12+rdi*8]
	test	rcx, rcx
	je	SHORT $LN53@line_exist@2
	test	rsi, rsi
	je	SHORT $LN53@line_exist@2
	add	rcx, 12
	mov	r8, rsi
	sub	r8, rcx
	npad	4
$LL120@line_exist@2:
	movzx	edx, BYTE PTR [rcx]
	movzx	eax, BYTE PTR [rcx+r8]
	sub	edx, eax
	jne	SHORT $LN121@line_exist@2
	inc	rcx
	test	eax, eax
	jne	SHORT $LL120@line_exist@2
$LN121@line_exist@2:
	test	edx, edx
	sets	cl
	jmp	SHORT $LN76@line_exist@2
$LN53@line_exist@2:
	mov	rcx, QWORD PTR ?g_pStringContainer@@3PEAVstr_container@@EA ; g_pStringContainer
	mov	rdx, rsi
	call	?dock@str_container@@QEAAPEAUstr_value@@PEBD@Z ; str_container::dock
	test	rax, rax
	je	SHORT $LN64@line_exist@2
	inc	DWORD PTR [rax]
$LN64@line_exist@2:
	cmp	QWORD PTR [r12+rdi*8], rax
	setb	cl
	test	rax, rax
	je	SHORT $LN76@line_exist@2
	dec	DWORD PTR [rax]
$LN76@line_exist@2:
	test	cl, cl
	je	SHORT $LN35@line_exist@2
	or	rax, -1
	lea	r12, QWORD PTR [r12+rdi*8+16]
	sub	rax, rbp
	add	rbx, rax
	jmp	SHORT $LN34@line_exist@2
$LN35@line_exist@2:
	mov	rbx, rbp
$LN34@line_exist@2:
	test	rbx, rbx
	jg	$LL37@line_exist@2
	mov	rbp, QWORD PTR [rsp+64]
$LN36@line_exist@2:

; 315  : 	return (A!=I.Data.end() && xr_strcmp(*A->first,L)==0);

	xor	r8d, r8d
	cmp	r12, QWORD PTR [r13+16]
	mov	r13, QWORD PTR [rsp+80]
	je	SHORT $LN4@line_exist@2
	mov	rax, QWORD PTR [r12]
	test	rax, rax
	je	SHORT $LN113@line_exist@2
	add	rax, 12
	jmp	SHORT $LN114@line_exist@2
$LN113@line_exist@2:
	mov	rax, r8
$LN114@line_exist@2:
	sub	rsi, rax
	npad	9
$LL118@line_exist@2:
	movzx	edx, BYTE PTR [rax]
	movzx	ecx, BYTE PTR [rax+rsi]
	sub	edx, ecx
	jne	SHORT $LN119@line_exist@2
	inc	rax
	test	ecx, ecx
	jne	SHORT $LL118@line_exist@2
$LN119@line_exist@2:
	test	edx, edx
	jne	SHORT $LN4@line_exist@2
	mov	r8d, 1
$LN4@line_exist@2:
	mov	eax, r8d
	mov	r12, QWORD PTR [rsp+72]

; 316  : }

	add	rsp, 32					; 00000020H
	pop	rdi
	pop	rsi
	pop	rbx
	ret	0
?line_exist@CInifile@@QEAAHPEBD0@Z ENDP			; CInifile::line_exist
;	COMDAT pdata
; File c:\users\nummer\documents\github\olr-3.0\src\xray\xrcore\_stl_extensions.h
pdata	SEGMENT
$pdata$??$xr_new@USect@CInifile@@@@YAPEAUSect@CInifile@@XZ DD imagerel $LN21
	DD	imagerel $LN21+59
	DD	imagerel $unwind$??$xr_new@USect@CInifile@@@@YAPEAUSect@CInifile@@XZ
pdata	ENDS
;	COMDAT xdata
xdata	SEGMENT
$unwind$??$xr_new@USect@CInifile@@@@YAPEAUSect@CInifile@@XZ DD 010401H
	DD	04204H
; Function compile flags: /Ogtpy
; File c:\users\nummer\documents\github\olr-3.0\src\xray\xrcore\xrmemory_subst_msvc.h
xdata	ENDS
;	COMDAT ??$xr_new@USect@CInifile@@@@YAPEAUSect@CInifile@@XZ
_TEXT	SEGMENT
??$xr_new@USect@CInifile@@@@YAPEAUSect@CInifile@@XZ PROC ; xr_new<CInifile::Sect>, COMDAT

; 67   : {

$LN21:
	sub	rsp, 40					; 00000028H

; 68   : 	T* ptr	= (T*)Memory.mem_alloc(sizeof(T));

	lea	rcx, OFFSET FLAT:?Memory@@3VxrMemory@@A	; Memory
	mov	edx, 40					; 00000028H
	call	?mem_alloc@xrMemory@@QEAAPEAX_K@Z	; xrMemory::mem_alloc
	mov	r11, rax

; 69   : 	return new (ptr) T();

	test	rax, rax
	je	SHORT $LN3@xr_new@3
	xor	eax, eax
	mov	QWORD PTR [r11], rax
	mov	QWORD PTR [r11+8], rax
	mov	QWORD PTR [r11+16], rax
	mov	QWORD PTR [r11+24], rax
	mov	rax, r11

; 70   : }

	add	rsp, 40					; 00000028H
	ret	0
$LN3@xr_new@3:
	add	rsp, 40					; 00000028H
	ret	0
??$xr_new@USect@CInifile@@@@YAPEAUSect@CInifile@@XZ ENDP ; xr_new<CInifile::Sect>
_TEXT	ENDS
PUBLIC	?remove_line@CInifile@@QEAAXPEBD0@Z		; CInifile::remove_line
pdata	SEGMENT
$pdata$?remove_line@CInifile@@QEAAXPEBD0@Z DD imagerel $LN211
	DD	imagerel $LN211+149
	DD	imagerel $unwind$?remove_line@CInifile@@QEAAXPEBD0@Z
$pdata$1$?remove_line@CInifile@@QEAAXPEBD0@Z DD imagerel $LN211+149
	DD	imagerel $LN211+512
	DD	imagerel $chain$1$?remove_line@CInifile@@QEAAXPEBD0@Z
$pdata$2$?remove_line@CInifile@@QEAAXPEBD0@Z DD imagerel $LN211+512
	DD	imagerel $LN211+589
	DD	imagerel $chain$2$?remove_line@CInifile@@QEAAXPEBD0@Z
$pdata$3$?remove_line@CInifile@@QEAAXPEBD0@Z DD imagerel $LN211+589
	DD	imagerel $LN211+609
	DD	imagerel $chain$3$?remove_line@CInifile@@QEAAXPEBD0@Z
pdata	ENDS
xdata	SEGMENT
$unwind$?remove_line@CInifile@@QEAAXPEBD0@Z DD 081001H
	DD	0123410H
	DD	0f00c9210H
	DD	07008e00aH
	DD	050066007H
$chain$1$?remove_line@CInifile@@QEAAXPEBD0@Z DD 041021H
	DD	011d410H
	DD	010c408H
	DD	imagerel $LN211
	DD	imagerel $LN211+149
	DD	imagerel $unwind$?remove_line@CInifile@@QEAAXPEBD0@Z
$chain$2$?remove_line@CInifile@@QEAAXPEBD0@Z DD 020021H
	DD	011d400H
	DD	imagerel $LN211
	DD	imagerel $LN211+149
	DD	imagerel $unwind$?remove_line@CInifile@@QEAAXPEBD0@Z
$chain$3$?remove_line@CInifile@@QEAAXPEBD0@Z DD 021H
	DD	imagerel $LN211
	DD	imagerel $LN211+149
	DD	imagerel $unwind$?remove_line@CInifile@@QEAAXPEBD0@Z
; Function compile flags: /Ogtpy
; File c:\users\nummer\documents\github\olr-3.0\src\xray\xrcore\xr_ini.cpp
xdata	ENDS
_TEXT	SEGMENT
this$ = 128
S$ = 136
L$ = 144
?remove_line@CInifile@@QEAAXPEBD0@Z PROC		; CInifile::remove_line

; 632  : {

$LN211:
	mov	QWORD PTR [rsp+24], rbx
	push	rbp
	push	rsi
	push	rdi
	push	r14
	push	r15
	sub	rsp, 80					; 00000050H

; 633  : 	R_ASSERT	(!bReadOnly);

	xor	r14d, r14d
	mov	rsi, r8
	mov	rdi, rdx
	cmp	BYTE PTR ?ignore_always@?3??remove_line@CInifile@@QEAAXPEBD0@Z@4_NA, r14b
	mov	rbx, rcx
	lea	r15, OFFSET FLAT:??_C@_0BG@HJJEFCMD@CInifile?3?3remove_line?$AA@
	lea	rbp, OFFSET FLAT:??_C@_0L@BOCIKDOE@Xr_ini?4cpp?$AA@
	jne	SHORT $LN9@remove_lin
	cmp	DWORD PTR [rcx+48], r14d
	je	SHORT $LN9@remove_lin
	lea	rax, OFFSET FLAT:?ignore_always@?3??remove_line@CInifile@@QEAAXPEBD0@Z@4_NA
	lea	r8, OFFSET FLAT:??_C@_0L@MCBJLICI@?$CBbReadOnly?$AA@
	lea	rdx, OFFSET FLAT:??_C@_0BB@DBHFCHNO@assertion?5failed?$AA@
	mov	QWORD PTR [rsp+64], rax
	mov	QWORD PTR [rsp+56], r15
	mov	DWORD PTR [rsp+48], 633			; 00000279H
	lea	rcx, OFFSET FLAT:?Debug@@3VxrDebug@@A	; Debug
	xor	r9d, r9d
	mov	QWORD PTR [rsp+40], rbp
	mov	QWORD PTR [rsp+32], r14
	call	?backend@xrDebug@@QEAAXPEBD0000H0AEA_N@Z ; xrDebug::backend
$LN9@remove_lin:

; 634  : 
; 635  :     if (line_exist(S,L)){

	mov	r8, rsi
	mov	rdx, rdi
	mov	rcx, rbx
	call	?line_exist@CInifile@@QEAAHPEBD0@Z	; CInifile::line_exist
	test	eax, eax
	je	$LN202@remove_lin

; 636  : 		Sect&	data	= r_section	(S);

	mov	rdx, rdi
	mov	rcx, rbx
	mov	QWORD PTR [rsp+128], r12
	mov	QWORD PTR [rsp+136], r13
	call	?r_section@CInifile@@QEAAAEAUSect@1@PEBD@Z ; CInifile::r_section

; 637  : 		SectIt_ A = std::lower_bound(data.Data.begin(),data.Data.end(),L,item_pred);

	mov	rbx, QWORD PTR [rax+16]
	mov	r12, QWORD PTR [rax+8]
	mov	r13, rax
	sub	rbx, r12
	sar	rbx, 4
	test	rbx, rbx
	jle	$LN45@remove_lin
	npad	11
$LL46@remove_lin:
	mov	rax, rbx
	cdq
	sub	rax, rdx
	sar	rax, 1
	mov	rdi, rax
	mov	rbp, rax
	add	rdi, rdi
	mov	rcx, QWORD PTR [r12+rdi*8]
	test	rcx, rcx
	je	SHORT $LN62@remove_lin
	test	rsi, rsi
	je	SHORT $LN62@remove_lin
	add	rcx, 12
	mov	r8, rsi
	sub	r8, rcx
	npad	4
$LL209@remove_lin:
	movzx	edx, BYTE PTR [rcx]
	movzx	eax, BYTE PTR [rcx+r8]
	sub	edx, eax
	jne	SHORT $LN210@remove_lin
	inc	rcx
	test	eax, eax
	jne	SHORT $LL209@remove_lin
$LN210@remove_lin:
	test	edx, edx
	sets	cl
	jmp	SHORT $LN85@remove_lin
$LN62@remove_lin:
	mov	rcx, QWORD PTR ?g_pStringContainer@@3PEAVstr_container@@EA ; g_pStringContainer
	mov	rdx, rsi
	call	?dock@str_container@@QEAAPEAUstr_value@@PEBD@Z ; str_container::dock
	test	rax, rax
	je	SHORT $LN73@remove_lin
	inc	DWORD PTR [rax]
$LN73@remove_lin:
	cmp	QWORD PTR [r12+rdi*8], rax
	setb	cl
	test	rax, rax
	je	SHORT $LN85@remove_lin
	dec	DWORD PTR [rax]
$LN85@remove_lin:
	test	cl, cl
	je	SHORT $LN44@remove_lin
	or	rax, -1
	lea	r12, QWORD PTR [r12+rdi*8+16]
	sub	rax, rbp
	add	rbx, rax
	jmp	SHORT $LN43@remove_lin
$LN44@remove_lin:
	mov	rbx, rbp
$LN43@remove_lin:
	test	rbx, rbx
	jg	$LL46@remove_lin
	lea	rbp, OFFSET FLAT:??_C@_0L@BOCIKDOE@Xr_ini?4cpp?$AA@
$LN45@remove_lin:

; 638  :     	R_ASSERT(A!=data.Data.end() && xr_strcmp(*A->first,L)==0);

	cmp	BYTE PTR ?ignore_always@?L@??remove_line@CInifile@@QEAAXPEBD0@Z@4_NA, r14b
	jne	SHORT $LN4@remove_lin
	cmp	r12, QWORD PTR [r13+16]
	je	SHORT $LN1@remove_lin
	mov	rcx, r12
	call	??Dshared_str@@QEBAPEBDXZ		; shared_str::operator*
	sub	rsi, rax
$LL207@remove_lin:
	movzx	r8d, BYTE PTR [rax]
	movzx	ecx, BYTE PTR [rax+rsi]
	sub	r8d, ecx
	jne	SHORT $LN208@remove_lin
	inc	rax
	test	ecx, ecx
	jne	SHORT $LL207@remove_lin
$LN208@remove_lin:
	test	r8d, r8d
	je	SHORT $LN4@remove_lin
$LN1@remove_lin:
	lea	rax, OFFSET FLAT:?ignore_always@?L@??remove_line@CInifile@@QEAAXPEBD0@Z@4_NA
	lea	r8, OFFSET FLAT:??_C@_0DA@GAFJJPBK@A?$CB?$DNdata?4Data?4end?$CI?$CJ?5?$CG?$CG?5xr_strcmp?$CI@
	lea	rdx, OFFSET FLAT:??_C@_0BB@DBHFCHNO@assertion?5failed?$AA@
	mov	QWORD PTR [rsp+64], rax
	mov	QWORD PTR [rsp+56], r15
	mov	DWORD PTR [rsp+48], 638			; 0000027eH
	lea	rcx, OFFSET FLAT:?Debug@@3VxrDebug@@A	; Debug
	xor	r9d, r9d
	mov	QWORD PTR [rsp+40], rbp
	mov	QWORD PTR [rsp+32], r14
	call	?backend@xrDebug@@QEAAXPEBD0000H0AEA_N@Z ; xrDebug::backend
$LN4@remove_lin:

; 639  :         data.Data.erase(A);

	mov	rdx, QWORD PTR [r13+16]
	lea	rcx, QWORD PTR [r12+16]
	mov	r8, r12
	call	??$_Move@PEAUItem@CInifile@@PEAU12@@std@@YAPEAUItem@CInifile@@PEAU12@00U_Nonscalar_ptr_iterator_tag@0@@Z ; std::_Move<CInifile::Item * __ptr64,CInifile::Item * __ptr64>
	mov	r11, QWORD PTR [r13+16]
	mov	r12, QWORD PTR [rsp+128]
	lea	rdx, QWORD PTR [r11-16]
	cmp	rdx, r11
	je	SHORT $LN138@remove_lin
	npad	1
$LL140@remove_lin:
	mov	rax, QWORD PTR [rdx+8]
	test	rax, rax
	je	SHORT $LN156@remove_lin
	dec	DWORD PTR [rax]
	mov	rax, QWORD PTR [rdx+8]
	cmp	DWORD PTR [rax], r14d
	mov	rcx, rax
	cmove	rcx, r14
	mov	QWORD PTR [rdx+8], rcx
$LN156@remove_lin:
	mov	rax, QWORD PTR [rdx]
	test	rax, rax
	je	SHORT $LN162@remove_lin
	dec	DWORD PTR [rax]
	mov	rax, QWORD PTR [rdx]
	cmp	DWORD PTR [rax], r14d
	mov	rcx, rax
	cmove	rcx, r14
	mov	QWORD PTR [rdx], rcx
$LN162@remove_lin:
	add	rdx, 16
	cmp	rdx, r11
	jne	SHORT $LL140@remove_lin
$LN138@remove_lin:
	add	QWORD PTR [r13+16], -16
	mov	r13, QWORD PTR [rsp+136]
$LN202@remove_lin:

; 640  :     }
; 641  : }

	mov	rbx, QWORD PTR [rsp+144]
	add	rsp, 80					; 00000050H
	pop	r15
	pop	r14
	pop	rdi
	pop	rsi
	pop	rbp
	ret	0
?remove_line@CInifile@@QEAAXPEBD0@Z ENDP		; CInifile::remove_line
_TEXT	ENDS
PUBLIC	?r_line@CInifile@@QEAAHPEBDHPEAPEBD1@Z		; CInifile::r_line
pdata	SEGMENT
$pdata$?r_line@CInifile@@QEAAHPEBDHPEAPEBD1@Z DD imagerel $LN64
	DD	imagerel $LN64+143
	DD	imagerel $unwind$?r_line@CInifile@@QEAAHPEBDHPEAPEBD1@Z
pdata	ENDS
xdata	SEGMENT
$unwind$?r_line@CInifile@@QEAAHPEBDHPEAPEBD1@Z DD 040a01H
	DD	06340aH
	DD	07006320aH
; Function compile flags: /Ogtpy
xdata	ENDS
_TEXT	SEGMENT
this$ = 48
S$ = 56
L$ = 64
N$ = 72
V$ = 80
?r_line@CInifile@@QEAAHPEBDHPEAPEBD1@Z PROC		; CInifile::r_line

; 484  : {

$LN64:
	mov	QWORD PTR [rsp+8], rbx
	push	rdi
	sub	rsp, 32					; 00000020H
	mov	rdi, r9
	mov	ebx, r8d

; 485  : 	Sect&	SS = r_section(S);

	call	?r_section@CInifile@@QEAAAEAUSect@1@PEBD@Z ; CInifile::r_section

; 486  : 	if (L>=(int)SS.Data.size() || L<0 ) return FALSE;

	mov	rcx, QWORD PTR [rax+16]
	sub	rcx, QWORD PTR [rax+8]
	sar	rcx, 4
	cmp	ebx, ecx
	jge	SHORT $LN5@r_line
	test	ebx, ebx
	js	SHORT $LN5@r_line

; 487  : 	for (SectCIt I=SS.Data.begin(); I!=SS.Data.end(); I++)

	mov	rcx, QWORD PTR [rax+8]
	mov	rdx, QWORD PTR [rax+16]
	cmp	rcx, rdx
	je	SHORT $LN5@r_line
$LL23@r_line:

; 488  : 		if (!(L--)){

	mov	eax, ebx
	dec	ebx
	test	eax, eax
	je	SHORT $LN62@r_line

; 487  : 	for (SectCIt I=SS.Data.begin(); I!=SS.Data.end(); I++)

	add	rcx, 16
	cmp	rcx, rdx
	jne	SHORT $LL23@r_line
$LN5@r_line:

; 486  : 	if (L>=(int)SS.Data.size() || L<0 ) return FALSE;

	xor	eax, eax

; 491  : 			return TRUE;
; 492  : 		}
; 493  : 	return FALSE;
; 494  : }

	mov	rbx, QWORD PTR [rsp+48]
	add	rsp, 32					; 00000020H
	pop	rdi
	ret	0
$LN62@r_line:

; 489  : 			*N = *I->first;

	mov	rax, QWORD PTR [rcx]
	xor	edx, edx
	test	rax, rax
	je	SHORT $LN48@r_line
	add	rax, 12
	jmp	SHORT $LN49@r_line
$LN48@r_line:
	mov	rax, rdx
$LN49@r_line:
	mov	QWORD PTR [rdi], rax

; 490  : 			*V = *I->second;

	mov	rax, QWORD PTR [rcx+8]
	test	rax, rax
	je	SHORT $LN59@r_line
	lea	rdx, QWORD PTR [rax+12]
$LN59@r_line:
	mov	rax, QWORD PTR V$[rsp]

; 491  : 			return TRUE;
; 492  : 		}
; 493  : 	return FALSE;
; 494  : }

	mov	rbx, QWORD PTR [rsp+48]
	mov	QWORD PTR [rax], rdx
	mov	eax, 1
	add	rsp, 32					; 00000020H
	pop	rdi
	ret	0
?r_line@CInifile@@QEAAHPEBDHPEAPEBD1@Z ENDP		; CInifile::r_line
_TEXT	ENDS
PUBLIC	?r_string@CInifile@@QEAAPEBDPEBD0@Z		; CInifile::r_string
pdata	SEGMENT
$pdata$?r_string@CInifile@@QEAAPEBDPEBD0@Z DD imagerel $LN132
	DD	imagerel $LN132+12
	DD	imagerel $unwind$?r_string@CInifile@@QEAAPEBDPEBD0@Z
$pdata$1$?r_string@CInifile@@QEAAPEBDPEBD0@Z DD imagerel $LN132+12
	DD	imagerel $LN132+63
	DD	imagerel $chain$1$?r_string@CInifile@@QEAAPEBDPEBD0@Z
$pdata$3$?r_string@CInifile@@QEAAPEBDPEBD0@Z DD imagerel $LN132+63
	DD	imagerel $LN132+236
	DD	imagerel $chain$3$?r_string@CInifile@@QEAAPEBDPEBD0@Z
$pdata$4$?r_string@CInifile@@QEAAPEBDPEBD0@Z DD imagerel $LN132+236
	DD	imagerel $LN132+252
	DD	imagerel $chain$4$?r_string@CInifile@@QEAAPEBDPEBD0@Z
$pdata$5$?r_string@CInifile@@QEAAPEBDPEBD0@Z DD imagerel $LN132+252
	DD	imagerel $LN132+417
	DD	imagerel $chain$5$?r_string@CInifile@@QEAAPEBDPEBD0@Z
pdata	ENDS
xdata	SEGMENT
$unwind$?r_string@CInifile@@QEAAPEBDPEBD0@Z DD 050c01H
	DD	0f008820cH
	DD	0c004e006H
	DD	05002H
$chain$1$?r_string@CInifile@@QEAAPEBDPEBD0@Z DD 041021H
	DD	08d410H
	DD	0e3405H
	DD	imagerel $LN132
	DD	imagerel $LN132+12
	DD	imagerel $unwind$?r_string@CInifile@@QEAAPEBDPEBD0@Z
$chain$3$?r_string@CInifile@@QEAAPEBDPEBD0@Z DD 040d21H
	DD	010740dH
	DD	0f6405H
	DD	imagerel $LN132+12
	DD	imagerel $LN132+63
	DD	imagerel $chain$1$?r_string@CInifile@@QEAAPEBDPEBD0@Z
$chain$4$?r_string@CInifile@@QEAAPEBDPEBD0@Z DD 021H
	DD	imagerel $LN132+12
	DD	imagerel $LN132+63
	DD	imagerel $chain$1$?r_string@CInifile@@QEAAPEBDPEBD0@Z
$chain$5$?r_string@CInifile@@QEAAPEBDPEBD0@Z DD 021H
	DD	imagerel $LN132
	DD	imagerel $LN132+12
	DD	imagerel $unwind$?r_string@CInifile@@QEAAPEBDPEBD0@Z
; Function compile flags: /Ogtpy
xdata	ENDS
_TEXT	SEGMENT
this$ = 112
S$ = 120
L$ = 128
?r_string@CInifile@@QEAAPEBDPEBD0@Z PROC		; CInifile::r_string

; 347  : {

$LN132:
	push	rbp
	push	r12
	push	r14
	push	r15
	sub	rsp, 72					; 00000048H
	mov	QWORD PTR [rsp+112], rbx
	mov	rbp, r8
	mov	r14, rdx
	mov	QWORD PTR [rsp+64], r13
	mov	r15, rcx

; 348  : 	Sect&	I = r_section(S);

	call	?r_section@CInifile@@QEAAAEAUSect@1@PEBD@Z ; CInifile::r_section

; 349  : 	SectCIt	A = std::lower_bound(I.Data.begin(),I.Data.end(),L,item_pred);

	mov	rbx, QWORD PTR [rax+16]
	mov	r12, QWORD PTR [rax+8]
	mov	r13, rax
	sub	rbx, r12
	sar	rbx, 4
	test	rbx, rbx
	jle	$LN35@r_string@2
	mov	QWORD PTR [rsp+120], rsi
	mov	QWORD PTR [rsp+128], rdi
	npad	4
$LL36@r_string@2:
	mov	rax, rbx
	cdq
	sub	rax, rdx
	sar	rax, 1
	mov	rdi, rax
	mov	rsi, rax
	add	rdi, rdi
	mov	rcx, QWORD PTR [r12+rdi*8]
	test	rcx, rcx
	je	SHORT $LN52@r_string@2
	test	rbp, rbp
	je	SHORT $LN52@r_string@2
	add	rcx, 12
	mov	r8, rbp
	sub	r8, rcx
	npad	4
$LL130@r_string@2:
	movzx	edx, BYTE PTR [rcx]
	movzx	eax, BYTE PTR [rcx+r8]
	sub	edx, eax
	jne	SHORT $LN131@r_string@2
	inc	rcx
	test	eax, eax
	jne	SHORT $LL130@r_string@2
$LN131@r_string@2:
	test	edx, edx
	sets	cl
	jmp	SHORT $LN75@r_string@2
$LN52@r_string@2:
	mov	rcx, QWORD PTR ?g_pStringContainer@@3PEAVstr_container@@EA ; g_pStringContainer
	mov	rdx, rbp
	call	?dock@str_container@@QEAAPEAUstr_value@@PEBD@Z ; str_container::dock
	test	rax, rax
	je	SHORT $LN63@r_string@2
	inc	DWORD PTR [rax]
$LN63@r_string@2:
	cmp	QWORD PTR [r12+rdi*8], rax
	setb	cl
	test	rax, rax
	je	SHORT $LN75@r_string@2
	dec	DWORD PTR [rax]
$LN75@r_string@2:
	test	cl, cl
	je	SHORT $LN34@r_string@2
	or	rax, -1
	lea	r12, QWORD PTR [r12+rdi*8+16]
	sub	rax, rsi
	add	rbx, rax
	jmp	SHORT $LN33@r_string@2
$LN34@r_string@2:
	mov	rbx, rsi
$LN33@r_string@2:
	test	rbx, rbx
	jg	$LL36@r_string@2
	mov	rdi, QWORD PTR [rsp+128]
	mov	rsi, QWORD PTR [rsp+120]
$LN35@r_string@2:

; 350  : 	if (A!=I.Data.end() && xr_strcmp(*A->first,L)==0)	return *A->second;

	cmp	r12, QWORD PTR [r13+16]
	mov	rbx, QWORD PTR [rsp+112]
	mov	r13, QWORD PTR [rsp+64]
	je	SHORT $LN2@r_string@2
	mov	rax, QWORD PTR [r12]
	xor	r9d, r9d
	test	rax, rax
	je	SHORT $LN112@r_string@2
	add	rax, 12
	jmp	SHORT $LN113@r_string@2
$LN112@r_string@2:
	mov	rax, r9
$LN113@r_string@2:
	mov	r8, rbp
	sub	r8, rax
	npad	9
$LL128@r_string@2:
	movzx	edx, BYTE PTR [rax]
	movzx	ecx, BYTE PTR [rax+r8]
	sub	edx, ecx
	jne	SHORT $LN129@r_string@2
	inc	rax
	test	ecx, ecx
	jne	SHORT $LL128@r_string@2
$LN129@r_string@2:
	test	edx, edx
	jne	SHORT $LN2@r_string@2
	mov	rax, QWORD PTR [r12+8]
	test	rax, rax
	je	SHORT $LN125@r_string@2
	lea	r9, QWORD PTR [rax+12]
$LN125@r_string@2:
	mov	rax, r9

; 354  : }

	add	rsp, 72					; 00000048H
	pop	r15
	pop	r14
	pop	r12
	pop	rbp
	ret	0
$LN2@r_string@2:

; 351  : 	else
; 352  : 		Debug.fatal(DEBUG_INFO,"Can't find variable %s in [%s], file %s",L,S, this->fName);

	mov	rax, QWORD PTR [r15+8]
	lea	r9, OFFSET FLAT:??_C@_0BD@DOJGBPMF@CInifile?3?3r_string?$AA@
	lea	rdx, OFFSET FLAT:??_C@_0L@BOCIKDOE@Xr_ini?4cpp?$AA@
	mov	QWORD PTR [rsp+56], rax
	lea	rax, OFFSET FLAT:??_C@_0CI@BBBLINKF@Can?8t?5find?5variable?5?$CFs?5in?5?$FL?$CFs?$FN?0?5@
	mov	QWORD PTR [rsp+48], r14
	lea	rcx, OFFSET FLAT:?Debug@@3VxrDebug@@A	; Debug
	mov	r8d, 352				; 00000160H
	mov	QWORD PTR [rsp+40], rbp
	mov	QWORD PTR [rsp+32], rax
	call	?fatal@xrDebug@@QEAAXPEBDH00ZZ		; xrDebug::fatal

; 353  : 	return 0;

	xor	eax, eax

; 354  : }

	add	rsp, 72					; 00000048H
	pop	r15
	pop	r14
	pop	r12
	pop	rbp
	ret	0
?r_string@CInifile@@QEAAPEBDPEBD0@Z ENDP		; CInifile::r_string
_TEXT	ENDS
PUBLIC	?line_count@CInifile@@QEAAIAEBVshared_str@@@Z	; CInifile::line_count
pdata	SEGMENT
$pdata$?line_count@CInifile@@QEAAIAEBVshared_str@@@Z DD imagerel $LN53
	DD	imagerel $LN53+73
	DD	imagerel $unwind$?line_count@CInifile@@QEAAIAEBVshared_str@@@Z
pdata	ENDS
xdata	SEGMENT
$unwind$?line_count@CInifile@@QEAAIAEBVshared_str@@@Z DD 020601H
	DD	030023206H
; Function compile flags: /Ogtpy
xdata	ENDS
_TEXT	SEGMENT
this$ = 48
S$ = 56
?line_count@CInifile@@QEAAIAEBVshared_str@@@Z PROC	; CInifile::line_count

; 331  : u32				CInifile::line_count	( const shared_str& S	)					{ return	line_count(*S);		}

$LN53:
	push	rbx
	sub	rsp, 32					; 00000020H
	mov	rax, QWORD PTR [rdx]
	xor	ebx, ebx
	lea	rdx, QWORD PTR [rax+12]
	test	rax, rax
	jne	SHORT $LN6@line_count@3
	mov	edx, ebx
$LN6@line_count@3:
	call	?r_section@CInifile@@QEAAAEAUSect@1@PEBD@Z ; CInifile::r_section
	mov	rcx, QWORD PTR [rax+8]
	mov	r8, QWORD PTR [rax+16]
	cmp	rcx, r8
	je	SHORT $LN52@line_count@3
$LL23@line_count@3:
	mov	rdx, QWORD PTR [rcx]
	test	rdx, rdx
	je	SHORT $LN9@line_count@3
	add	rdx, 12
	je	SHORT $LN9@line_count@3
	inc	ebx
$LN9@line_count@3:
	add	rcx, 16
	cmp	rcx, r8
	jne	SHORT $LL23@line_count@3
$LN52@line_count@3:
	mov	eax, ebx
	add	rsp, 32					; 00000020H
	pop	rbx
	ret	0
?line_count@CInifile@@QEAAIAEBVshared_str@@@Z ENDP	; CInifile::line_count
_TEXT	ENDS
PUBLIC	?line_exist@CInifile@@QEAAHAEBVshared_str@@0@Z	; CInifile::line_exist
; Function compile flags: /Ogtpy
_TEXT	SEGMENT
this$ = 8
S$ = 16
L$ = 24
?line_exist@CInifile@@QEAAHAEBVshared_str@@0@Z PROC	; CInifile::line_exist

; 330  : BOOL			CInifile::line_exist	( const shared_str& S, const shared_str& L )	{ return	line_exist(*S,*L);	}

	mov	r8, QWORD PTR [r8]
	mov	rax, rdx
	xor	edx, edx
	test	r8, r8
	je	SHORT $LN5@line_exist@3
	add	r8, 12
	jmp	SHORT $LN6@line_exist@3
$LN5@line_exist@3:
	mov	r8, rdx
$LN6@line_exist@3:
	mov	rax, QWORD PTR [rax]
	test	rax, rax
	je	SHORT $LN10@line_exist@3
	lea	rdx, QWORD PTR [rax+12]
$LN10@line_exist@3:
	jmp	?line_exist@CInifile@@QEAAHPEBD0@Z	; CInifile::line_exist
?line_exist@CInifile@@QEAAHAEBVshared_str@@0@Z ENDP	; CInifile::line_exist
;	COMDAT pdata
; File c:\program files (x86)\microsoft visual studio 10.0\vc\include\xutility
pdata	SEGMENT
$pdata$?reserve@?$vector@PEAUSect@CInifile@@V?$xalloc@PEAUSect@CInifile@@@@@std@@QEAAX_K@Z DD imagerel $LN44
	DD	imagerel $LN44+198
	DD	imagerel $unwind$?reserve@?$vector@PEAUSect@CInifile@@V?$xalloc@PEAUSect@CInifile@@@@@std@@QEAAX_K@Z
pdata	ENDS
;	COMDAT pdata
pdata	SEGMENT
$pdata$?catch$0@?0??reserve@?$vector@PEAUSect@CInifile@@V?$xalloc@PEAUSect@CInifile@@@@@std@@QEAAX_K@Z@4HA DD imagerel ?catch$0@?0??reserve@?$vector@PEAUSect@CInifile@@V?$xalloc@PEAUSect@CInifile@@@@@std@@QEAAX_K@Z@4HA
	DD	imagerel ?catch$0@?0??reserve@?$vector@PEAUSect@CInifile@@V?$xalloc@PEAUSect@CInifile@@@@@std@@QEAAX_K@Z@4HA+40
	DD	imagerel $unwind$?catch$0@?0??reserve@?$vector@PEAUSect@CInifile@@V?$xalloc@PEAUSect@CInifile@@@@@std@@QEAAX_K@Z@4HA
pdata	ENDS
;	COMDAT xdata
xdata	SEGMENT
$ip2state$?reserve@?$vector@PEAUSect@CInifile@@V?$xalloc@PEAUSect@CInifile@@@@@std@@QEAAX_K@Z DD imagerel ?reserve@?$vector@PEAUSect@CInifile@@V?$xalloc@PEAUSect@CInifile@@@@@std@@QEAAX_K@Z
	DD	0ffffffffH
	DD	imagerel ?reserve@?$vector@PEAUSect@CInifile@@V?$xalloc@PEAUSect@CInifile@@@@@std@@QEAAX_K@Z+107
	DD	00H
	DD	imagerel ?reserve@?$vector@PEAUSect@CInifile@@V?$xalloc@PEAUSect@CInifile@@@@@std@@QEAAX_K@Z+123
	DD	0ffffffffH
	DD	imagerel ?catch$0@?0??reserve@?$vector@PEAUSect@CInifile@@V?$xalloc@PEAUSect@CInifile@@@@@std@@QEAAX_K@Z@4HA
	DD	00H
	DD	imagerel ?catch$0@?0??reserve@?$vector@PEAUSect@CInifile@@V?$xalloc@PEAUSect@CInifile@@@@@std@@QEAAX_K@Z@4HA+13
	DD	01H
xdata	ENDS
;	COMDAT xdata
xdata	SEGMENT
$unwind$?catch$0@?0??reserve@?$vector@PEAUSect@CInifile@@V?$xalloc@PEAUSect@CInifile@@@@@std@@QEAAX_K@Z@4HA DD 020a19H
	DD	05006320aH
	DD	imagerel __CxxFrameHandler3
	DD	imagerel $cppxdata$?reserve@?$vector@PEAUSect@CInifile@@V?$xalloc@PEAUSect@CInifile@@@@@std@@QEAAX_K@Z
xdata	ENDS
;	COMDAT xdata
xdata	SEGMENT
$unwind$?reserve@?$vector@PEAUSect@CInifile@@V?$xalloc@PEAUSect@CInifile@@@@@std@@QEAAX_K@Z DD 081e19H
	DD	0b741eH
	DD	0a6419H
	DD	083414H
	DD	0c0025206H
	DD	imagerel __CxxFrameHandler3
	DD	imagerel $cppxdata$?reserve@?$vector@PEAUSect@CInifile@@V?$xalloc@PEAUSect@CInifile@@@@@std@@QEAAX_K@Z
xdata	ENDS
;	COMDAT CONST
CONST	SEGMENT
$cppxdata$?reserve@?$vector@PEAUSect@CInifile@@V?$xalloc@PEAUSect@CInifile@@@@@std@@QEAAX_K@Z DD 019930522H
	DD	02H
	DD	imagerel $stateUnwindMap$?reserve@?$vector@PEAUSect@CInifile@@V?$xalloc@PEAUSect@CInifile@@@@@std@@QEAAX_K@Z
	DD	01H
	DD	imagerel $tryMap$?reserve@?$vector@PEAUSect@CInifile@@V?$xalloc@PEAUSect@CInifile@@@@@std@@QEAAX_K@Z
	DD	05H
	DD	imagerel $ip2state$?reserve@?$vector@PEAUSect@CInifile@@V?$xalloc@PEAUSect@CInifile@@@@@std@@QEAAX_K@Z
	DD	020H
	DD	00H
	DD	00H
CONST	ENDS
;	COMDAT xdata
xdata	SEGMENT
$tryMap$?reserve@?$vector@PEAUSect@CInifile@@V?$xalloc@PEAUSect@CInifile@@@@@std@@QEAAX_K@Z DD 00H
	DD	00H
	DD	01H
	DD	01H
	DD	imagerel $handlerMap$0$?reserve@?$vector@PEAUSect@CInifile@@V?$xalloc@PEAUSect@CInifile@@@@@std@@QEAAX_K@Z
xdata	ENDS
;	COMDAT xdata
xdata	SEGMENT
$handlerMap$0$?reserve@?$vector@PEAUSect@CInifile@@V?$xalloc@PEAUSect@CInifile@@@@@std@@QEAAX_K@Z DD 00H
	DD	00H
	DD	00H
	DD	imagerel ?catch$0@?0??reserve@?$vector@PEAUSect@CInifile@@V?$xalloc@PEAUSect@CInifile@@@@@std@@QEAAX_K@Z@4HA
	DD	038H
xdata	ENDS
;	COMDAT xdata
xdata	SEGMENT
$stateUnwindMap$?reserve@?$vector@PEAUSect@CInifile@@V?$xalloc@PEAUSect@CInifile@@@@@std@@QEAAX_K@Z DD 0ffffffffH
	DD	00H
	DD	0ffffffffH
	DD	00H
; Function compile flags: /Ogtpy
; File c:\program files (x86)\microsoft visual studio 10.0\vc\include\vector
xdata	ENDS
;	COMDAT ?reserve@?$vector@PEAUSect@CInifile@@V?$xalloc@PEAUSect@CInifile@@@@@std@@QEAAX_K@Z
_TEXT	SEGMENT
$T295400 = 32
this$ = 64
$T295388 = 72
$T295381 = 72
_Ptr$99088 = 72
_Count$ = 72
?reserve@?$vector@PEAUSect@CInifile@@V?$xalloc@PEAUSect@CInifile@@@@@std@@QEAAX_K@Z PROC ; std::vector<CInifile::Sect * __ptr64,xalloc<CInifile::Sect * __ptr64> >::reserve, COMDAT

; 746  : 		{	// determine new minimum length of allocated storage

$LN44:
	push	r12
	sub	rsp, 48					; 00000030H
	mov	QWORD PTR $T295400[rsp], -2
	mov	QWORD PTR [rsp+64], rbx
	mov	QWORD PTR [rsp+80], rsi
	mov	QWORD PTR [rsp+88], rdi
	mov	rdi, rdx
	mov	rbx, rcx

; 747  : 		if (max_size() < _Count)

	mov	rax, 2305843009213693951		; 1fffffffffffffffH
	cmp	rdx, rax
	jbe	SHORT $LN5@reserve@5

; 748  : 			_Xlen();	// result too long

	lea	rcx, OFFSET FLAT:??_C@_0BD@OLBABOEK@vector?$DMT?$DO?5too?5long?$AA@
	call	QWORD PTR __imp_?_Xlength_error@std@@YAXPEBD@Z
	int	3
$LN5@reserve@5:

; 749  : 		else if (capacity() < _Count)

	mov	rax, QWORD PTR [rcx+16]
	sub	rax, QWORD PTR [rcx]
	sar	rax, 3
	cmp	rax, rdx
	jae	SHORT $LN3@reserve@5

; 750  : 			{	// not enough room, reallocate
; 751  : 			pointer _Ptr = this->_Alval.allocate(_Count);

	mov	edx, edx
	shl	rdx, 3
	lea	rcx, OFFSET FLAT:?Memory@@3VxrMemory@@A	; Memory
	call	?mem_alloc@xrMemory@@QEAAPEAX_K@Z	; xrMemory::mem_alloc
	mov	rsi, rax
	mov	QWORD PTR _Ptr$99088[rsp], rax

; 752  : 
; 753  : 			_TRY_BEGIN
; 754  : 			_Umove(this->_Myfirst, this->_Mylast, _Ptr);

	mov	r8, rax
	mov	rdx, QWORD PTR [rbx+8]
	mov	rcx, QWORD PTR [rbx]
	call	??$_Uninit_move@PEAPEAUSect@CInifile@@PEAPEAU12@V?$xalloc@PEAUSect@CInifile@@@@PEAU12@@std@@YAPEAPEAUSect@CInifile@@PEAPEAU12@00AEAV?$xalloc@PEAUSect@CInifile@@@@0U_Nonscalar_ptr_iterator_tag@0@@Z ; std::_Uninit_move<CInifile::Sect * __ptr64 * __ptr64,CInifile::Sect * __ptr64 * __ptr64,xalloc<CInifile::Sect * __ptr64>,CInifile::Sect * __ptr64>
	npad	1

; 755  : 			_CATCH_ALL
; 756  : 			this->_Alval.deallocate(_Ptr, _Count);
; 757  : 			_RERAISE;
; 758  : 			_CATCH_END
; 759  : 
; 760  : 			size_type _Size = size();

	mov	rax, QWORD PTR [rbx]
	mov	r12, QWORD PTR [rbx+8]
	sub	r12, rax
	sar	r12, 3

; 761  : 			if (this->_Myfirst != 0)

	test	rax, rax
	je	SHORT $LN39@reserve@5

; 762  : 				{	// destroy and deallocate old array
; 763  : 				_Destroy(this->_Myfirst, this->_Mylast);
; 764  : 				this->_Alval.deallocate(this->_Myfirst,
; 765  : 					this->_Myend - this->_Myfirst);

	mov	QWORD PTR $T295388[rsp], rax
	lea	rcx, QWORD PTR $T295388[rsp]
	call	??$xr_free@PEAUSect@CInifile@@@@YAXAEAPEAPEAUSect@CInifile@@@Z ; xr_free<CInifile::Sect * __ptr64>
$LN39@reserve@5:

; 766  : 				}
; 767  : 
; 768  : 			this->_Orphan_all();
; 769  : 			this->_Myend = _Ptr + _Count;

	lea	rax, QWORD PTR [rsi+rdi*8]
	mov	QWORD PTR [rbx+16], rax

; 770  : 			this->_Mylast = _Ptr + _Size;

	lea	rax, QWORD PTR [rsi+r12*8]
	mov	QWORD PTR [rbx+8], rax

; 771  : 			this->_Myfirst = _Ptr;

	mov	QWORD PTR [rbx], rsi
$LN3@reserve@5:

; 772  : 			}
; 773  : 		}

	mov	rbx, QWORD PTR [rsp+64]
	mov	rsi, QWORD PTR [rsp+80]
	mov	rdi, QWORD PTR [rsp+88]
	add	rsp, 48					; 00000030H
	pop	r12
	ret	0
$LN43@reserve@5:
?reserve@?$vector@PEAUSect@CInifile@@V?$xalloc@PEAUSect@CInifile@@@@@std@@QEAAX_K@Z ENDP ; std::vector<CInifile::Sect * __ptr64,xalloc<CInifile::Sect * __ptr64> >::reserve
; Function compile flags: /Ogtpy
_TEXT	ENDS
;	COMDAT text$x
text$x	SEGMENT
$T295400 = 32
this$ = 64
$T295388 = 72
$T295381 = 72
_Ptr$99088 = 72
_Count$ = 72
?catch$0@?0??reserve@?$vector@PEAUSect@CInifile@@V?$xalloc@PEAUSect@CInifile@@@@@std@@QEAAX_K@Z@4HA PROC ; `std::vector<CInifile::Sect * __ptr64,xalloc<CInifile::Sect * __ptr64> >::reserve'::`1'::catch$0

; 755  : 			_CATCH_ALL

	mov	QWORD PTR [rsp+16], rdx
	push	rbp
	sub	rsp, 32					; 00000020H
	mov	rbp, rdx
__catch$?reserve@?$vector@PEAUSect@CInifile@@V?$xalloc@PEAUSect@CInifile@@@@@std@@QEAAX_K@Z$0:

; 756  : 			this->_Alval.deallocate(_Ptr, _Count);

	mov	rax, QWORD PTR _Ptr$99088[rbp]
	mov	QWORD PTR $T295381[rbp], rax
	lea	rcx, QWORD PTR $T295381[rbp]
	call	??$xr_free@PEAUSect@CInifile@@@@YAXAEAPEAPEAUSect@CInifile@@@Z ; xr_free<CInifile::Sect * __ptr64>

; 757  : 			_RERAISE;

	xor	edx, edx
	xor	ecx, ecx
	call	_CxxThrowException
	npad	1
?catch$0@?0??reserve@?$vector@PEAUSect@CInifile@@V?$xalloc@PEAUSect@CInifile@@@@@std@@QEAAX_K@Z@4HA ENDP ; `std::vector<CInifile::Sect * __ptr64,xalloc<CInifile::Sect * __ptr64> >::reserve'::`1'::catch$0
text$x	ENDS
;	COMDAT pdata
; File c:\program files (x86)\microsoft visual studio 10.0\vc\include\xutility
pdata	SEGMENT
$pdata$?reserve@?$vector@UItem@CInifile@@V?$xalloc@UItem@CInifile@@@@@std@@QEAAX_K@Z DD imagerel $LN42
	DD	imagerel $LN42+211
	DD	imagerel $unwind$?reserve@?$vector@UItem@CInifile@@V?$xalloc@UItem@CInifile@@@@@std@@QEAAX_K@Z
pdata	ENDS
;	COMDAT pdata
pdata	SEGMENT
$pdata$?catch$0@?0??reserve@?$vector@UItem@CInifile@@V?$xalloc@UItem@CInifile@@@@@std@@QEAAX_K@Z@4HA DD imagerel ?catch$0@?0??reserve@?$vector@UItem@CInifile@@V?$xalloc@UItem@CInifile@@@@@std@@QEAAX_K@Z@4HA
	DD	imagerel ?catch$0@?0??reserve@?$vector@UItem@CInifile@@V?$xalloc@UItem@CInifile@@@@@std@@QEAAX_K@Z@4HA+40
	DD	imagerel $unwind$?catch$0@?0??reserve@?$vector@UItem@CInifile@@V?$xalloc@UItem@CInifile@@@@@std@@QEAAX_K@Z@4HA
pdata	ENDS
;	COMDAT xdata
xdata	SEGMENT
$ip2state$?reserve@?$vector@UItem@CInifile@@V?$xalloc@UItem@CInifile@@@@@std@@QEAAX_K@Z DD imagerel ?reserve@?$vector@UItem@CInifile@@V?$xalloc@UItem@CInifile@@@@@std@@QEAAX_K@Z
	DD	0ffffffffH
	DD	imagerel ?reserve@?$vector@UItem@CInifile@@V?$xalloc@UItem@CInifile@@@@@std@@QEAAX_K@Z+107
	DD	00H
	DD	imagerel ?reserve@?$vector@UItem@CInifile@@V?$xalloc@UItem@CInifile@@@@@std@@QEAAX_K@Z+123
	DD	0ffffffffH
	DD	imagerel ?catch$0@?0??reserve@?$vector@UItem@CInifile@@V?$xalloc@UItem@CInifile@@@@@std@@QEAAX_K@Z@4HA
	DD	00H
	DD	imagerel ?catch$0@?0??reserve@?$vector@UItem@CInifile@@V?$xalloc@UItem@CInifile@@@@@std@@QEAAX_K@Z@4HA+13
	DD	01H
xdata	ENDS
;	COMDAT xdata
xdata	SEGMENT
$unwind$?catch$0@?0??reserve@?$vector@UItem@CInifile@@V?$xalloc@UItem@CInifile@@@@@std@@QEAAX_K@Z@4HA DD 020a19H
	DD	05006320aH
	DD	imagerel __CxxFrameHandler3
	DD	imagerel $cppxdata$?reserve@?$vector@UItem@CInifile@@V?$xalloc@UItem@CInifile@@@@@std@@QEAAX_K@Z
xdata	ENDS
;	COMDAT xdata
xdata	SEGMENT
$unwind$?reserve@?$vector@UItem@CInifile@@V?$xalloc@UItem@CInifile@@@@@std@@QEAAX_K@Z DD 081e19H
	DD	0b741eH
	DD	0a6419H
	DD	083414H
	DD	0c0025206H
	DD	imagerel __CxxFrameHandler3
	DD	imagerel $cppxdata$?reserve@?$vector@UItem@CInifile@@V?$xalloc@UItem@CInifile@@@@@std@@QEAAX_K@Z
xdata	ENDS
;	COMDAT CONST
CONST	SEGMENT
$cppxdata$?reserve@?$vector@UItem@CInifile@@V?$xalloc@UItem@CInifile@@@@@std@@QEAAX_K@Z DD 019930522H
	DD	02H
	DD	imagerel $stateUnwindMap$?reserve@?$vector@UItem@CInifile@@V?$xalloc@UItem@CInifile@@@@@std@@QEAAX_K@Z
	DD	01H
	DD	imagerel $tryMap$?reserve@?$vector@UItem@CInifile@@V?$xalloc@UItem@CInifile@@@@@std@@QEAAX_K@Z
	DD	05H
	DD	imagerel $ip2state$?reserve@?$vector@UItem@CInifile@@V?$xalloc@UItem@CInifile@@@@@std@@QEAAX_K@Z
	DD	020H
	DD	00H
	DD	00H
CONST	ENDS
;	COMDAT xdata
xdata	SEGMENT
$tryMap$?reserve@?$vector@UItem@CInifile@@V?$xalloc@UItem@CInifile@@@@@std@@QEAAX_K@Z DD 00H
	DD	00H
	DD	01H
	DD	01H
	DD	imagerel $handlerMap$0$?reserve@?$vector@UItem@CInifile@@V?$xalloc@UItem@CInifile@@@@@std@@QEAAX_K@Z
xdata	ENDS
;	COMDAT xdata
xdata	SEGMENT
$handlerMap$0$?reserve@?$vector@UItem@CInifile@@V?$xalloc@UItem@CInifile@@@@@std@@QEAAX_K@Z DD 00H
	DD	00H
	DD	00H
	DD	imagerel ?catch$0@?0??reserve@?$vector@UItem@CInifile@@V?$xalloc@UItem@CInifile@@@@@std@@QEAAX_K@Z@4HA
	DD	038H
xdata	ENDS
;	COMDAT xdata
xdata	SEGMENT
$stateUnwindMap$?reserve@?$vector@UItem@CInifile@@V?$xalloc@UItem@CInifile@@@@@std@@QEAAX_K@Z DD 0ffffffffH
	DD	00H
	DD	0ffffffffH
	DD	00H
; Function compile flags: /Ogtpy
; File c:\program files (x86)\microsoft visual studio 10.0\vc\include\vector
xdata	ENDS
;	COMDAT ?reserve@?$vector@UItem@CInifile@@V?$xalloc@UItem@CInifile@@@@@std@@QEAAX_K@Z
_TEXT	SEGMENT
$T295509 = 32
this$ = 64
$T295497 = 72
$T295490 = 72
_Ptr$99079 = 72
_Count$ = 72
?reserve@?$vector@UItem@CInifile@@V?$xalloc@UItem@CInifile@@@@@std@@QEAAX_K@Z PROC ; std::vector<CInifile::Item,xalloc<CInifile::Item> >::reserve, COMDAT

; 746  : 		{	// determine new minimum length of allocated storage

$LN42:
	push	r12
	sub	rsp, 48					; 00000030H
	mov	QWORD PTR $T295509[rsp], -2
	mov	QWORD PTR [rsp+64], rbx
	mov	QWORD PTR [rsp+80], rsi
	mov	QWORD PTR [rsp+88], rdi
	mov	rdi, rdx
	mov	rbx, rcx

; 747  : 		if (max_size() < _Count)

	mov	rax, 1152921504606846975		; 0fffffffffffffffH
	cmp	rdx, rax
	jbe	SHORT $LN5@reserve@6

; 748  : 			_Xlen();	// result too long

	lea	rcx, OFFSET FLAT:??_C@_0BD@OLBABOEK@vector?$DMT?$DO?5too?5long?$AA@
	call	QWORD PTR __imp_?_Xlength_error@std@@YAXPEBD@Z
	int	3
$LN5@reserve@6:

; 749  : 		else if (capacity() < _Count)

	mov	rax, QWORD PTR [rcx+16]
	sub	rax, QWORD PTR [rcx]
	sar	rax, 4
	cmp	rax, rdx
	jae	SHORT $LN3@reserve@6

; 750  : 			{	// not enough room, reallocate
; 751  : 			pointer _Ptr = this->_Alval.allocate(_Count);

	mov	edx, edx
	shl	rdx, 4
	lea	rcx, OFFSET FLAT:?Memory@@3VxrMemory@@A	; Memory
	call	?mem_alloc@xrMemory@@QEAAPEAX_K@Z	; xrMemory::mem_alloc
	mov	r12, rax
	mov	QWORD PTR _Ptr$99079[rsp], rax

; 752  : 
; 753  : 			_TRY_BEGIN
; 754  : 			_Umove(this->_Myfirst, this->_Mylast, _Ptr);

	mov	r8, rax
	mov	rdx, QWORD PTR [rbx+8]
	mov	rcx, QWORD PTR [rbx]
	call	??$_Uninit_move@PEAUItem@CInifile@@PEAU12@V?$xalloc@UItem@CInifile@@@@U12@@std@@YAPEAUItem@CInifile@@PEAU12@00AEAV?$xalloc@UItem@CInifile@@@@0U_Nonscalar_ptr_iterator_tag@0@@Z ; std::_Uninit_move<CInifile::Item * __ptr64,CInifile::Item * __ptr64,xalloc<CInifile::Item>,CInifile::Item>
	npad	1

; 755  : 			_CATCH_ALL
; 756  : 			this->_Alval.deallocate(_Ptr, _Count);
; 757  : 			_RERAISE;
; 758  : 			_CATCH_END
; 759  : 
; 760  : 			size_type _Size = size();

	mov	rdx, QWORD PTR [rbx+8]
	mov	rcx, QWORD PTR [rbx]
	mov	rsi, rdx
	sub	rsi, rcx

; 761  : 			if (this->_Myfirst != 0)

	test	rcx, rcx
	je	SHORT $LN37@reserve@6

; 762  : 				{	// destroy and deallocate old array
; 763  : 				_Destroy(this->_Myfirst, this->_Mylast);

	call	?_Destroy@?$vector@UItem@CInifile@@V?$xalloc@UItem@CInifile@@@@@std@@IEAAXPEAUItem@CInifile@@0@Z ; std::vector<CInifile::Item,xalloc<CInifile::Item> >::_Destroy

; 764  : 				this->_Alval.deallocate(this->_Myfirst,
; 765  : 					this->_Myend - this->_Myfirst);

	mov	r11, QWORD PTR [rbx]
	mov	QWORD PTR $T295497[rsp], r11
	lea	rcx, QWORD PTR $T295497[rsp]
	call	??$xr_free@UItem@CInifile@@@@YAXAEAPEAUItem@CInifile@@@Z ; xr_free<CInifile::Item>
$LN37@reserve@6:

; 766  : 				}
; 767  : 
; 768  : 			this->_Orphan_all();
; 769  : 			this->_Myend = _Ptr + _Count;

	shl	rdi, 4
	add	rdi, r12
	mov	QWORD PTR [rbx+16], rdi

; 770  : 			this->_Mylast = _Ptr + _Size;

	and	rsi, -16
	add	rsi, r12
	mov	QWORD PTR [rbx+8], rsi

; 771  : 			this->_Myfirst = _Ptr;

	mov	QWORD PTR [rbx], r12
$LN3@reserve@6:

; 772  : 			}
; 773  : 		}

	mov	rbx, QWORD PTR [rsp+64]
	mov	rsi, QWORD PTR [rsp+80]
	mov	rdi, QWORD PTR [rsp+88]
	add	rsp, 48					; 00000030H
	pop	r12
	ret	0
$LN41@reserve@6:
?reserve@?$vector@UItem@CInifile@@V?$xalloc@UItem@CInifile@@@@@std@@QEAAX_K@Z ENDP ; std::vector<CInifile::Item,xalloc<CInifile::Item> >::reserve
; Function compile flags: /Ogtpy
_TEXT	ENDS
;	COMDAT text$x
text$x	SEGMENT
$T295509 = 32
this$ = 64
$T295497 = 72
$T295490 = 72
_Ptr$99079 = 72
_Count$ = 72
?catch$0@?0??reserve@?$vector@UItem@CInifile@@V?$xalloc@UItem@CInifile@@@@@std@@QEAAX_K@Z@4HA PROC ; `std::vector<CInifile::Item,xalloc<CInifile::Item> >::reserve'::`1'::catch$0

; 755  : 			_CATCH_ALL

	mov	QWORD PTR [rsp+16], rdx
	push	rbp
	sub	rsp, 32					; 00000020H
	mov	rbp, rdx
__catch$?reserve@?$vector@UItem@CInifile@@V?$xalloc@UItem@CInifile@@@@@std@@QEAAX_K@Z$0:

; 756  : 			this->_Alval.deallocate(_Ptr, _Count);

	mov	rax, QWORD PTR _Ptr$99079[rbp]
	mov	QWORD PTR $T295490[rbp], rax
	lea	rcx, QWORD PTR $T295490[rbp]
	call	??$xr_free@UItem@CInifile@@@@YAXAEAPEAUItem@CInifile@@@Z ; xr_free<CInifile::Item>

; 757  : 			_RERAISE;

	xor	edx, edx
	xor	ecx, ecx
	call	_CxxThrowException
	npad	1
?catch$0@?0??reserve@?$vector@UItem@CInifile@@V?$xalloc@UItem@CInifile@@@@@std@@QEAAX_K@Z@4HA ENDP ; `std::vector<CInifile::Item,xalloc<CInifile::Item> >::reserve'::`1'::catch$0
text$x	ENDS
;	COMDAT pdata
; File c:\users\nummer\documents\github\olr-3.0\src\xray\xrcore\_stl_extensions.h
pdata	SEGMENT
$pdata$?_Reserve@?$vector@PEAUSect@CInifile@@V?$xalloc@PEAUSect@CInifile@@@@@std@@IEAAX_K@Z DD imagerel $LN30
	DD	imagerel $LN30+137
	DD	imagerel $unwind$?_Reserve@?$vector@PEAUSect@CInifile@@V?$xalloc@PEAUSect@CInifile@@@@@std@@IEAAX_K@Z
pdata	ENDS
;	COMDAT xdata
xdata	SEGMENT
$unwind$?_Reserve@?$vector@PEAUSect@CInifile@@V?$xalloc@PEAUSect@CInifile@@@@@std@@IEAAX_K@Z DD 010401H
	DD	04204H
; Function compile flags: /Ogtpy
; File c:\program files (x86)\microsoft visual studio 10.0\vc\include\vector
xdata	ENDS
;	COMDAT ?_Reserve@?$vector@PEAUSect@CInifile@@V?$xalloc@PEAUSect@CInifile@@@@@std@@IEAAX_K@Z
_TEXT	SEGMENT
this$ = 48
?_Reserve@?$vector@PEAUSect@CInifile@@V?$xalloc@PEAUSect@CInifile@@@@@std@@IEAAX_K@Z PROC ; std::vector<CInifile::Sect * __ptr64,xalloc<CInifile::Sect * __ptr64> >::_Reserve, COMDAT

; 1290 : 		{	// ensure room for _Count new elements, grow exponentially

$LN30:
	sub	rsp, 40					; 00000028H

; 1291 : 		size_type _Size = size();

	mov	rax, QWORD PTR [rcx]
	mov	r8, QWORD PTR [rcx+8]
	mov	r9, rcx
	sub	r8, rax

; 1292 : 		if (max_size() - _Count < _Size)

	mov	rcx, 2305843009213693950		; 1ffffffffffffffeH
	sar	r8, 3
	cmp	r8, rcx
	jbe	SHORT $LN4@Reserve@5

; 1293 : 			_Xlen();

	lea	rcx, OFFSET FLAT:??_C@_0BD@OLBABOEK@vector?$DMT?$DO?5too?5long?$AA@
	call	QWORD PTR __imp_?_Xlength_error@std@@YAXPEBD@Z
	int	3
$LN4@Reserve@5:

; 1294 : 		else if ((_Size += _Count) <= capacity())

	mov	rdx, QWORD PTR [r9+16]
	inc	r8
	sub	rdx, rax
	sar	rdx, 3
	cmp	r8, rdx
	jbe	SHORT $LN1@Reserve@5

; 1295 : 			;
; 1296 : 		else
; 1297 : 			reserve(_Grow_to(_Size));

	mov	rcx, rdx
	mov	rax, 2305843009213693951		; 1fffffffffffffffH
	shr	rcx, 1
	sub	rax, rcx
	cmp	rax, rdx
	jae	SHORT $LN21@Reserve@5
	xor	edx, edx
	mov	rcx, r9
	cmp	rdx, r8
	cmovb	rdx, r8

; 1298 : 		}

	add	rsp, 40					; 00000028H
	jmp	?reserve@?$vector@PEAUSect@CInifile@@V?$xalloc@PEAUSect@CInifile@@@@@std@@QEAAX_K@Z ; std::vector<CInifile::Sect * __ptr64,xalloc<CInifile::Sect * __ptr64> >::reserve

; 1295 : 			;
; 1296 : 		else
; 1297 : 			reserve(_Grow_to(_Size));

$LN21@Reserve@5:
	add	rdx, rcx
	mov	rcx, r9
	cmp	rdx, r8
	cmovb	rdx, r8
	call	?reserve@?$vector@PEAUSect@CInifile@@V?$xalloc@PEAUSect@CInifile@@@@@std@@QEAAX_K@Z ; std::vector<CInifile::Sect * __ptr64,xalloc<CInifile::Sect * __ptr64> >::reserve
$LN1@Reserve@5:

; 1298 : 		}

	add	rsp, 40					; 00000028H
	ret	0
$LN29@Reserve@5:
?_Reserve@?$vector@PEAUSect@CInifile@@V?$xalloc@PEAUSect@CInifile@@@@@std@@IEAAX_K@Z ENDP ; std::vector<CInifile::Sect * __ptr64,xalloc<CInifile::Sect * __ptr64> >::_Reserve
_TEXT	ENDS
;	COMDAT pdata
; File c:\users\nummer\documents\github\olr-3.0\src\xray\xrcore\_stl_extensions.h
pdata	SEGMENT
$pdata$?_Reserve@?$vector@UItem@CInifile@@V?$xalloc@UItem@CInifile@@@@@std@@IEAAX_K@Z DD imagerel $LN30
	DD	imagerel $LN30+137
	DD	imagerel $unwind$?_Reserve@?$vector@UItem@CInifile@@V?$xalloc@UItem@CInifile@@@@@std@@IEAAX_K@Z
pdata	ENDS
;	COMDAT xdata
xdata	SEGMENT
$unwind$?_Reserve@?$vector@UItem@CInifile@@V?$xalloc@UItem@CInifile@@@@@std@@IEAAX_K@Z DD 010401H
	DD	04204H
; Function compile flags: /Ogtpy
; File c:\program files (x86)\microsoft visual studio 10.0\vc\include\vector
xdata	ENDS
;	COMDAT ?_Reserve@?$vector@UItem@CInifile@@V?$xalloc@UItem@CInifile@@@@@std@@IEAAX_K@Z
_TEXT	SEGMENT
this$ = 48
?_Reserve@?$vector@UItem@CInifile@@V?$xalloc@UItem@CInifile@@@@@std@@IEAAX_K@Z PROC ; std::vector<CInifile::Item,xalloc<CInifile::Item> >::_Reserve, COMDAT

; 1290 : 		{	// ensure room for _Count new elements, grow exponentially

$LN30:
	sub	rsp, 40					; 00000028H

; 1291 : 		size_type _Size = size();

	mov	rax, QWORD PTR [rcx]
	mov	r8, QWORD PTR [rcx+8]
	mov	r9, rcx
	sub	r8, rax

; 1292 : 		if (max_size() - _Count < _Size)

	mov	rcx, 1152921504606846974		; 0ffffffffffffffeH
	sar	r8, 4
	cmp	r8, rcx
	jbe	SHORT $LN4@Reserve@6

; 1293 : 			_Xlen();

	lea	rcx, OFFSET FLAT:??_C@_0BD@OLBABOEK@vector?$DMT?$DO?5too?5long?$AA@
	call	QWORD PTR __imp_?_Xlength_error@std@@YAXPEBD@Z
	int	3
$LN4@Reserve@6:

; 1294 : 		else if ((_Size += _Count) <= capacity())

	mov	rdx, QWORD PTR [r9+16]
	inc	r8
	sub	rdx, rax
	sar	rdx, 4
	cmp	r8, rdx
	jbe	SHORT $LN1@Reserve@6

; 1295 : 			;
; 1296 : 		else
; 1297 : 			reserve(_Grow_to(_Size));

	mov	rcx, rdx
	mov	rax, 1152921504606846975		; 0fffffffffffffffH
	shr	rcx, 1
	sub	rax, rcx
	cmp	rax, rdx
	jae	SHORT $LN21@Reserve@6
	xor	edx, edx
	mov	rcx, r9
	cmp	rdx, r8
	cmovb	rdx, r8

; 1298 : 		}

	add	rsp, 40					; 00000028H
	jmp	?reserve@?$vector@UItem@CInifile@@V?$xalloc@UItem@CInifile@@@@@std@@QEAAX_K@Z ; std::vector<CInifile::Item,xalloc<CInifile::Item> >::reserve

; 1295 : 			;
; 1296 : 		else
; 1297 : 			reserve(_Grow_to(_Size));

$LN21@Reserve@6:
	add	rdx, rcx
	mov	rcx, r9
	cmp	rdx, r8
	cmovb	rdx, r8
	call	?reserve@?$vector@UItem@CInifile@@V?$xalloc@UItem@CInifile@@@@@std@@QEAAX_K@Z ; std::vector<CInifile::Item,xalloc<CInifile::Item> >::reserve
$LN1@Reserve@6:

; 1298 : 		}

	add	rsp, 40					; 00000028H
	ret	0
$LN29@Reserve@6:
?_Reserve@?$vector@UItem@CInifile@@V?$xalloc@UItem@CInifile@@@@@std@@IEAAX_K@Z ENDP ; std::vector<CInifile::Item,xalloc<CInifile::Item> >::_Reserve
_TEXT	ENDS
;	COMDAT pdata
; File c:\users\nummer\documents\github\olr-3.0\src\xray\xrcore\xrstring.h
pdata	SEGMENT
$pdata$??$emplace_back@AEAUItem@CInifile@@@?$vector@UItem@CInifile@@V?$xalloc@UItem@CInifile@@@@@std@@QEAAXAEAUItem@CInifile@@@Z DD imagerel $LN43
	DD	imagerel $LN43+149
	DD	imagerel $unwind$??$emplace_back@AEAUItem@CInifile@@@?$vector@UItem@CInifile@@V?$xalloc@UItem@CInifile@@@@@std@@QEAAXAEAUItem@CInifile@@@Z
pdata	ENDS
;	COMDAT xdata
xdata	SEGMENT
$unwind$??$emplace_back@AEAUItem@CInifile@@@?$vector@UItem@CInifile@@V?$xalloc@UItem@CInifile@@@@@std@@QEAAXAEAUItem@CInifile@@@Z DD 040a01H
	DD	06340aH
	DD	07006320aH
; Function compile flags: /Ogtpy
; File c:\program files (x86)\microsoft visual studio 10.0\vc\include\vector
xdata	ENDS
;	COMDAT ??$emplace_back@AEAUItem@CInifile@@@?$vector@UItem@CInifile@@V?$xalloc@UItem@CInifile@@@@@std@@QEAAXAEAUItem@CInifile@@@Z
_TEXT	SEGMENT
this$ = 48
_Val$ = 56
??$emplace_back@AEAUItem@CInifile@@@?$vector@UItem@CInifile@@V?$xalloc@UItem@CInifile@@@@@std@@QEAAXAEAUItem@CInifile@@@Z PROC ; std::vector<CInifile::Item,xalloc<CInifile::Item> >::emplace_back<CInifile::Item & __ptr64>, COMDAT

; 661  : 		void emplace_back(_Valty&& _Val)

$LN43:
	mov	QWORD PTR [rsp+8], rbx
	push	rdi
	sub	rsp, 32					; 00000020H

; 662  : 		{	// insert element at end
; 663  : 		if (this->_Mylast == this->_Myend)

	mov	rax, QWORD PTR [rcx+16]
	mov	rdi, rdx
	mov	rbx, rcx
	cmp	QWORD PTR [rcx+8], rax
	jne	SHORT $LN1@emplace_ba@2

; 664  : 			_Reserve(1);

	call	?_Reserve@?$vector@UItem@CInifile@@V?$xalloc@UItem@CInifile@@@@@std@@IEAAX_K@Z ; std::vector<CInifile::Item,xalloc<CInifile::Item> >::_Reserve
$LN1@emplace_ba@2:

; 665  : 		_Orphan_range(this->_Mylast, this->_Mylast);
; 666  : 		_Cons_val(this->_Alval,
; 667  : 			this->_Mylast,
; 668  : 			_STD forward<_Valty>(_Val));

	mov	r8, QWORD PTR [rbx+8]
	test	r8, r8
	je	SHORT $LN42@emplace_ba@2
	xor	r9d, r9d
	mov	QWORD PTR [r8], r9
	mov	rdx, QWORD PTR [rdi]
	test	rdx, rdx
	je	SHORT $LN26@emplace_ba@2
	inc	DWORD PTR [rdx]
$LN26@emplace_ba@2:
	mov	rax, QWORD PTR [r8]
	test	rax, rax
	je	SHORT $LN29@emplace_ba@2
	dec	DWORD PTR [rax]
	mov	rax, QWORD PTR [r8]
	cmp	DWORD PTR [rax], r9d
	mov	rcx, rax
	cmove	rcx, r9
	mov	QWORD PTR [r8], rcx
$LN29@emplace_ba@2:
	mov	QWORD PTR [r8], rdx
	mov	QWORD PTR [r8+8], r9
	mov	rdx, QWORD PTR [rdi+8]
	test	rdx, rdx
	je	SHORT $LN35@emplace_ba@2
	inc	DWORD PTR [rdx]
$LN35@emplace_ba@2:
	mov	rax, QWORD PTR [r8+8]
	test	rax, rax
	je	SHORT $LN38@emplace_ba@2
	dec	DWORD PTR [rax]
	mov	rax, QWORD PTR [r8+8]
	cmp	DWORD PTR [rax], r9d
	mov	rcx, rax
	cmove	rcx, r9
	mov	QWORD PTR [r8+8], rcx
$LN38@emplace_ba@2:
	mov	QWORD PTR [r8+8], rdx
$LN42@emplace_ba@2:

; 669  : 		++this->_Mylast;

	add	QWORD PTR [rbx+8], 16

; 670  : 		}

	mov	rbx, QWORD PTR [rsp+48]
	add	rsp, 32					; 00000020H
	pop	rdi
	ret	0
??$emplace_back@AEAUItem@CInifile@@@?$vector@UItem@CInifile@@V?$xalloc@UItem@CInifile@@@@@std@@QEAAXAEAUItem@CInifile@@@Z ENDP ; std::vector<CInifile::Item,xalloc<CInifile::Item> >::emplace_back<CInifile::Item & __ptr64>
_TEXT	ENDS
;	COMDAT pdata
; File c:\program files (x86)\microsoft visual studio 10.0\vc\include\utility
pdata	SEGMENT
$pdata$??$emplace_back@AEAPEAUSect@CInifile@@@?$vector@PEAUSect@CInifile@@V?$xalloc@PEAUSect@CInifile@@@@@std@@QEAAXAEAPEAUSect@CInifile@@@Z DD imagerel $LN23
	DD	imagerel $LN23+62
	DD	imagerel $unwind$??$emplace_back@AEAPEAUSect@CInifile@@@?$vector@PEAUSect@CInifile@@V?$xalloc@PEAUSect@CInifile@@@@@std@@QEAAXAEAPEAUSect@CInifile@@@Z
pdata	ENDS
;	COMDAT xdata
xdata	SEGMENT
$unwind$??$emplace_back@AEAPEAUSect@CInifile@@@?$vector@PEAUSect@CInifile@@V?$xalloc@PEAUSect@CInifile@@@@@std@@QEAAXAEAPEAUSect@CInifile@@@Z DD 040a01H
	DD	06340aH
	DD	07006320aH
; Function compile flags: /Ogtpy
; File c:\program files (x86)\microsoft visual studio 10.0\vc\include\vector
xdata	ENDS
;	COMDAT ??$emplace_back@AEAPEAUSect@CInifile@@@?$vector@PEAUSect@CInifile@@V?$xalloc@PEAUSect@CInifile@@@@@std@@QEAAXAEAPEAUSect@CInifile@@@Z
_TEXT	SEGMENT
this$ = 48
_Val$ = 56
??$emplace_back@AEAPEAUSect@CInifile@@@?$vector@PEAUSect@CInifile@@V?$xalloc@PEAUSect@CInifile@@@@@std@@QEAAXAEAPEAUSect@CInifile@@@Z PROC ; std::vector<CInifile::Sect * __ptr64,xalloc<CInifile::Sect * __ptr64> >::emplace_back<CInifile::Sect * __ptr64 & __ptr64>, COMDAT

; 661  : 		void emplace_back(_Valty&& _Val)

$LN23:
	mov	QWORD PTR [rsp+8], rbx
	push	rdi
	sub	rsp, 32					; 00000020H

; 662  : 		{	// insert element at end
; 663  : 		if (this->_Mylast == this->_Myend)

	mov	rax, QWORD PTR [rcx+16]
	mov	rdi, rdx
	mov	rbx, rcx
	cmp	QWORD PTR [rcx+8], rax
	jne	SHORT $LN1@emplace_ba@3

; 664  : 			_Reserve(1);

	call	?_Reserve@?$vector@PEAUSect@CInifile@@V?$xalloc@PEAUSect@CInifile@@@@@std@@IEAAX_K@Z ; std::vector<CInifile::Sect * __ptr64,xalloc<CInifile::Sect * __ptr64> >::_Reserve
$LN1@emplace_ba@3:

; 665  : 		_Orphan_range(this->_Mylast, this->_Mylast);
; 666  : 		_Cons_val(this->_Alval,
; 667  : 			this->_Mylast,
; 668  : 			_STD forward<_Valty>(_Val));

	mov	rcx, QWORD PTR [rbx+8]
	test	rcx, rcx
	je	SHORT $LN22@emplace_ba@3
	mov	rax, QWORD PTR [rdi]
	mov	QWORD PTR [rcx], rax
$LN22@emplace_ba@3:

; 669  : 		++this->_Mylast;

	add	QWORD PTR [rbx+8], 8

; 670  : 		}

	mov	rbx, QWORD PTR [rsp+48]
	add	rsp, 32					; 00000020H
	pop	rdi
	ret	0
??$emplace_back@AEAPEAUSect@CInifile@@@?$vector@PEAUSect@CInifile@@V?$xalloc@PEAUSect@CInifile@@@@@std@@QEAAXAEAPEAUSect@CInifile@@@Z ENDP ; std::vector<CInifile::Sect * __ptr64,xalloc<CInifile::Sect * __ptr64> >::emplace_back<CInifile::Sect * __ptr64 & __ptr64>
_TEXT	ENDS
;	COMDAT pdata
pdata	SEGMENT
$pdata$??$emplace@AEAUItem@CInifile@@@?$vector@UItem@CInifile@@V?$xalloc@UItem@CInifile@@@@@std@@QEAA?AV?$_Vector_iterator@V?$_Vector_val@UItem@CInifile@@V?$xalloc@UItem@CInifile@@@@@std@@@1@V?$_Vector_const_iterator@V?$_Vector_val@UItem@CInifile@@V?$xalloc@UItem@CInifile@@@@@std@@@1@AEAUItem@CInifile@@@Z DD imagerel $LN155
	DD	imagerel $LN155+228
	DD	imagerel $unwind$??$emplace@AEAUItem@CInifile@@@?$vector@UItem@CInifile@@V?$xalloc@UItem@CInifile@@@@@std@@QEAA?AV?$_Vector_iterator@V?$_Vector_val@UItem@CInifile@@V?$xalloc@UItem@CInifile@@@@@std@@@1@V?$_Vector_const_iterator@V?$_Vector_val@UItem@CInifile@@V?$xalloc@UItem@CInifile@@@@@std@@@1@AEAUItem@CInifile@@@Z
pdata	ENDS
;	COMDAT xdata
xdata	SEGMENT
$unwind$??$emplace@AEAUItem@CInifile@@@?$vector@UItem@CInifile@@V?$xalloc@UItem@CInifile@@@@@std@@QEAA?AV?$_Vector_iterator@V?$_Vector_val@UItem@CInifile@@V?$xalloc@UItem@CInifile@@@@@std@@@1@V?$_Vector_const_iterator@V?$_Vector_val@UItem@CInifile@@V?$xalloc@UItem@CInifile@@@@@std@@@1@AEAUItem@CInifile@@@Z DD 081401H
	DD	086414H
	DD	075414H
	DD	063414H
	DD	070103214H
; Function compile flags: /Ogtpy
xdata	ENDS
;	COMDAT ??$emplace@AEAUItem@CInifile@@@?$vector@UItem@CInifile@@V?$xalloc@UItem@CInifile@@@@@std@@QEAA?AV?$_Vector_iterator@V?$_Vector_val@UItem@CInifile@@V?$xalloc@UItem@CInifile@@@@@std@@@1@V?$_Vector_const_iterator@V?$_Vector_val@UItem@CInifile@@V?$xalloc@UItem@CInifile@@@@@std@@@1@AEAUItem@CInifile@@@Z
_TEXT	SEGMENT
this$ = 48
__$ReturnUdt$ = 56
_Where$ = 64
_Val$ = 72
??$emplace@AEAUItem@CInifile@@@?$vector@UItem@CInifile@@V?$xalloc@UItem@CInifile@@@@@std@@QEAA?AV?$_Vector_iterator@V?$_Vector_val@UItem@CInifile@@V?$xalloc@UItem@CInifile@@@@@std@@@1@V?$_Vector_const_iterator@V?$_Vector_val@UItem@CInifile@@V?$xalloc@UItem@CInifile@@@@@std@@@1@AEAUItem@CInifile@@@Z PROC ; std::vector<CInifile::Item,xalloc<CInifile::Item> >::emplace<CInifile::Item & __ptr64>, COMDAT

; 679  : 		iterator emplace(const_iterator _Where, _Valty&& _Val)

$LN155:
	mov	QWORD PTR [rsp+8], rbx
	mov	QWORD PTR [rsp+16], rbp
	mov	QWORD PTR [rsp+24], rsi
	push	rdi
	sub	rsp, 32					; 00000020H

; 680  : 		{	// insert _Val at _Where
; 681  : 		size_type _Off = _VIPTR(_Where) - this->_Myfirst;
; 682  : 
; 683  :  #if _ITERATOR_DEBUG_LEVEL == 2
; 684  : 		if (size() < _Off)
; 685  : 			_DEBUG_ERROR("vector emplace iterator outside range");
; 686  :  #endif /* _ITERATOR_DEBUG_LEVEL == 2 */
; 687  : 
; 688  : 		emplace_back(_STD forward<_Valty>(_Val));

	mov	rax, QWORD PTR [rcx+16]
	mov	rdi, r8
	mov	rsi, r9
	sub	rdi, QWORD PTR [rcx]
	mov	rbp, rdx
	mov	rbx, rcx
	cmp	QWORD PTR [rcx+8], rax
	jne	SHORT $LN5@emplace@2
	call	?_Reserve@?$vector@UItem@CInifile@@V?$xalloc@UItem@CInifile@@@@@std@@IEAAX_K@Z ; std::vector<CInifile::Item,xalloc<CInifile::Item> >::_Reserve
$LN5@emplace@2:
	mov	rdx, QWORD PTR [rbx+8]
	test	rdx, rdx
	je	SHORT $LN20@emplace@2
	xor	r9d, r9d
	mov	QWORD PTR [rdx], r9
	mov	r8, QWORD PTR [rsi]
	test	r8, r8
	je	SHORT $LN30@emplace@2
	inc	DWORD PTR [r8]
$LN30@emplace@2:
	mov	rax, QWORD PTR [rdx]
	test	rax, rax
	je	SHORT $LN33@emplace@2
	dec	DWORD PTR [rax]
	mov	rax, QWORD PTR [rdx]
	cmp	DWORD PTR [rax], r9d
	mov	rcx, rax
	cmove	rcx, r9
	mov	QWORD PTR [rdx], rcx
$LN33@emplace@2:
	mov	QWORD PTR [rdx], r8
	mov	QWORD PTR [rdx+8], r9
	mov	r8, QWORD PTR [rsi+8]
	test	r8, r8
	je	SHORT $LN39@emplace@2
	inc	DWORD PTR [r8]
$LN39@emplace@2:
	mov	rax, QWORD PTR [rdx+8]
	test	rax, rax
	je	SHORT $LN42@emplace@2
	dec	DWORD PTR [rax]
	mov	rax, QWORD PTR [rdx+8]
	cmp	DWORD PTR [rax], r9d
	mov	rcx, rax
	cmove	rcx, r9
	mov	QWORD PTR [rdx+8], rcx
$LN42@emplace@2:
	mov	QWORD PTR [rdx+8], r8
$LN20@emplace@2:
	add	QWORD PTR [rbx+8], 16

; 689  : 		_STD rotate(begin() + _Off, end() - 1, end());

	mov	rax, QWORD PTR [rbx]
	mov	r8, QWORD PTR [rbx+8]
	and	rdi, -16
	lea	rdx, QWORD PTR [r8-16]
	lea	rcx, QWORD PTR [rdi+rax]
	cmp	rcx, rdx
	je	SHORT $LN139@emplace@2
	cmp	rdx, r8
	je	SHORT $LN139@emplace@2
	call	??$_Rotate@PEAUItem@CInifile@@_JU12@@std@@YAXPEAUItem@CInifile@@00PEA_J0@Z ; std::_Rotate<CInifile::Item * __ptr64,__int64,CInifile::Item>
$LN139@emplace@2:

; 690  : 		return (begin() + _Off);

	mov	rax, QWORD PTR [rbx]

; 691  : 		}

	mov	rsi, QWORD PTR [rsp+64]
	mov	rbx, QWORD PTR [rsp+48]
	lea	rcx, QWORD PTR [rdi+rax]
	mov	rax, rbp
	mov	QWORD PTR [rbp], rcx
	mov	rbp, QWORD PTR [rsp+56]
	add	rsp, 32					; 00000020H
	pop	rdi
	ret	0
??$emplace@AEAUItem@CInifile@@@?$vector@UItem@CInifile@@V?$xalloc@UItem@CInifile@@@@@std@@QEAA?AV?$_Vector_iterator@V?$_Vector_val@UItem@CInifile@@V?$xalloc@UItem@CInifile@@@@@std@@@1@V?$_Vector_const_iterator@V?$_Vector_val@UItem@CInifile@@V?$xalloc@UItem@CInifile@@@@@std@@@1@AEAUItem@CInifile@@@Z ENDP ; std::vector<CInifile::Item,xalloc<CInifile::Item> >::emplace<CInifile::Item & __ptr64>
_TEXT	ENDS
;	COMDAT pdata
pdata	SEGMENT
$pdata$??$emplace@AEAPEAUSect@CInifile@@@?$vector@PEAUSect@CInifile@@V?$xalloc@PEAUSect@CInifile@@@@@std@@QEAA?AV?$_Vector_iterator@V?$_Vector_val@PEAUSect@CInifile@@V?$xalloc@PEAUSect@CInifile@@@@@std@@@1@V?$_Vector_const_iterator@V?$_Vector_val@PEAUSect@CInifile@@V?$xalloc@PEAUSect@CInifile@@@@@std@@@1@AEAPEAUSect@CInifile@@@Z DD imagerel $LN135
	DD	imagerel $LN135+139
	DD	imagerel $unwind$??$emplace@AEAPEAUSect@CInifile@@@?$vector@PEAUSect@CInifile@@V?$xalloc@PEAUSect@CInifile@@@@@std@@QEAA?AV?$_Vector_iterator@V?$_Vector_val@PEAUSect@CInifile@@V?$xalloc@PEAUSect@CInifile@@@@@std@@@1@V?$_Vector_const_iterator@V?$_Vector_val@PEAUSect@CInifile@@V?$xalloc@PEAUSect@CInifile@@@@@std@@@1@AEAPEAUSect@CInifile@@@Z
pdata	ENDS
;	COMDAT xdata
xdata	SEGMENT
$unwind$??$emplace@AEAPEAUSect@CInifile@@@?$vector@PEAUSect@CInifile@@V?$xalloc@PEAUSect@CInifile@@@@@std@@QEAA?AV?$_Vector_iterator@V?$_Vector_val@PEAUSect@CInifile@@V?$xalloc@PEAUSect@CInifile@@@@@std@@@1@V?$_Vector_const_iterator@V?$_Vector_val@PEAUSect@CInifile@@V?$xalloc@PEAUSect@CInifile@@@@@std@@@1@AEAPEAUSect@CInifile@@@Z DD 081401H
	DD	086414H
	DD	075414H
	DD	063414H
	DD	070103214H
; Function compile flags: /Ogtpy
xdata	ENDS
;	COMDAT ??$emplace@AEAPEAUSect@CInifile@@@?$vector@PEAUSect@CInifile@@V?$xalloc@PEAUSect@CInifile@@@@@std@@QEAA?AV?$_Vector_iterator@V?$_Vector_val@PEAUSect@CInifile@@V?$xalloc@PEAUSect@CInifile@@@@@std@@@1@V?$_Vector_const_iterator@V?$_Vector_val@PEAUSect@CInifile@@V?$xalloc@PEAUSect@CInifile@@@@@std@@@1@AEAPEAUSect@CInifile@@@Z
_TEXT	SEGMENT
this$ = 48
__$ReturnUdt$ = 56
_Where$ = 64
_Val$ = 72
??$emplace@AEAPEAUSect@CInifile@@@?$vector@PEAUSect@CInifile@@V?$xalloc@PEAUSect@CInifile@@@@@std@@QEAA?AV?$_Vector_iterator@V?$_Vector_val@PEAUSect@CInifile@@V?$xalloc@PEAUSect@CInifile@@@@@std@@@1@V?$_Vector_const_iterator@V?$_Vector_val@PEAUSect@CInifile@@V?$xalloc@PEAUSect@CInifile@@@@@std@@@1@AEAPEAUSect@CInifile@@@Z PROC ; std::vector<CInifile::Sect * __ptr64,xalloc<CInifile::Sect * __ptr64> >::emplace<CInifile::Sect * __ptr64 & __ptr64>, COMDAT

; 679  : 		iterator emplace(const_iterator _Where, _Valty&& _Val)

$LN135:
	mov	QWORD PTR [rsp+8], rbx
	mov	QWORD PTR [rsp+16], rbp
	mov	QWORD PTR [rsp+24], rsi
	push	rdi
	sub	rsp, 32					; 00000020H

; 680  : 		{	// insert _Val at _Where
; 681  : 		size_type _Off = _VIPTR(_Where) - this->_Myfirst;
; 682  : 
; 683  :  #if _ITERATOR_DEBUG_LEVEL == 2
; 684  : 		if (size() < _Off)
; 685  : 			_DEBUG_ERROR("vector emplace iterator outside range");
; 686  :  #endif /* _ITERATOR_DEBUG_LEVEL == 2 */
; 687  : 
; 688  : 		emplace_back(_STD forward<_Valty>(_Val));

	mov	rax, QWORD PTR [rcx+16]
	mov	rdi, r8
	mov	rbp, r9
	sub	rdi, QWORD PTR [rcx]
	mov	rsi, rdx
	mov	rbx, rcx
	sar	rdi, 3
	cmp	QWORD PTR [rcx+8], rax
	jne	SHORT $LN5@emplace@3
	call	?_Reserve@?$vector@PEAUSect@CInifile@@V?$xalloc@PEAUSect@CInifile@@@@@std@@IEAAX_K@Z ; std::vector<CInifile::Sect * __ptr64,xalloc<CInifile::Sect * __ptr64> >::_Reserve
$LN5@emplace@3:
	mov	rcx, QWORD PTR [rbx+8]
	test	rcx, rcx
	je	SHORT $LN20@emplace@3
	mov	rax, QWORD PTR [rbp]
	mov	QWORD PTR [rcx], rax
$LN20@emplace@3:
	add	QWORD PTR [rbx+8], 8

; 689  : 		_STD rotate(begin() + _Off, end() - 1, end());

	mov	rax, QWORD PTR [rbx]
	mov	r8, QWORD PTR [rbx+8]
	lea	rdx, QWORD PTR [r8-8]
	lea	rcx, QWORD PTR [rax+rdi*8]
	cmp	rcx, rdx
	je	SHORT $LN119@emplace@3
	cmp	rdx, r8
	je	SHORT $LN119@emplace@3
	call	??$_Rotate@PEAPEAUSect@CInifile@@_JPEAU12@@std@@YAXPEAPEAUSect@CInifile@@00PEA_J0@Z ; std::_Rotate<CInifile::Sect * __ptr64 * __ptr64,__int64,CInifile::Sect * __ptr64>
$LN119@emplace@3:

; 690  : 		return (begin() + _Off);

	mov	rax, QWORD PTR [rbx]

; 691  : 		}

	mov	rbp, QWORD PTR [rsp+56]
	mov	rbx, QWORD PTR [rsp+48]
	lea	rcx, QWORD PTR [rax+rdi*8]
	mov	rax, rsi
	mov	QWORD PTR [rsi], rcx
	mov	rsi, QWORD PTR [rsp+64]
	add	rsp, 32					; 00000020H
	pop	rdi
	ret	0
??$emplace@AEAPEAUSect@CInifile@@@?$vector@PEAUSect@CInifile@@V?$xalloc@PEAUSect@CInifile@@@@@std@@QEAA?AV?$_Vector_iterator@V?$_Vector_val@PEAUSect@CInifile@@V?$xalloc@PEAUSect@CInifile@@@@@std@@@1@V?$_Vector_const_iterator@V?$_Vector_val@PEAUSect@CInifile@@V?$xalloc@PEAUSect@CInifile@@@@@std@@@1@AEAPEAUSect@CInifile@@@Z ENDP ; std::vector<CInifile::Sect * __ptr64,xalloc<CInifile::Sect * __ptr64> >::emplace<CInifile::Sect * __ptr64 & __ptr64>
_TEXT	ENDS
;	COMDAT pdata
; File c:\program files (x86)\microsoft visual studio 10.0\vc\include\utility
pdata	SEGMENT
$pdata$??$insert@AEAUItem@CInifile@@@?$vector@UItem@CInifile@@V?$xalloc@UItem@CInifile@@@@@std@@QEAA?AV?$_Vector_iterator@V?$_Vector_val@UItem@CInifile@@V?$xalloc@UItem@CInifile@@@@@std@@@1@V?$_Vector_const_iterator@V?$_Vector_val@UItem@CInifile@@V?$xalloc@UItem@CInifile@@@@@std@@@1@AEAUItem@CInifile@@@Z DD imagerel $LN5
	DD	imagerel $LN5+23
	DD	imagerel $unwind$??$insert@AEAUItem@CInifile@@@?$vector@UItem@CInifile@@V?$xalloc@UItem@CInifile@@@@@std@@QEAA?AV?$_Vector_iterator@V?$_Vector_val@UItem@CInifile@@V?$xalloc@UItem@CInifile@@@@@std@@@1@V?$_Vector_const_iterator@V?$_Vector_val@UItem@CInifile@@V?$xalloc@UItem@CInifile@@@@@std@@@1@AEAUItem@CInifile@@@Z
pdata	ENDS
;	COMDAT xdata
xdata	SEGMENT
$unwind$??$insert@AEAUItem@CInifile@@@?$vector@UItem@CInifile@@V?$xalloc@UItem@CInifile@@@@@std@@QEAA?AV?$_Vector_iterator@V?$_Vector_val@UItem@CInifile@@V?$xalloc@UItem@CInifile@@@@@std@@@1@V?$_Vector_const_iterator@V?$_Vector_val@UItem@CInifile@@V?$xalloc@UItem@CInifile@@@@@std@@@1@AEAUItem@CInifile@@@Z DD 020601H
	DD	030023206H
; Function compile flags: /Ogtpy
; File c:\program files (x86)\microsoft visual studio 10.0\vc\include\vector
xdata	ENDS
;	COMDAT ??$insert@AEAUItem@CInifile@@@?$vector@UItem@CInifile@@V?$xalloc@UItem@CInifile@@@@@std@@QEAA?AV?$_Vector_iterator@V?$_Vector_val@UItem@CInifile@@V?$xalloc@UItem@CInifile@@@@@std@@@1@V?$_Vector_const_iterator@V?$_Vector_val@UItem@CInifile@@V?$xalloc@UItem@CInifile@@@@@std@@@1@AEAUItem@CInifile@@@Z
_TEXT	SEGMENT
this$ = 48
__$ReturnUdt$ = 56
_Where$ = 64
_Val$ = 72
??$insert@AEAUItem@CInifile@@@?$vector@UItem@CInifile@@V?$xalloc@UItem@CInifile@@@@@std@@QEAA?AV?$_Vector_iterator@V?$_Vector_val@UItem@CInifile@@V?$xalloc@UItem@CInifile@@@@@std@@@1@V?$_Vector_const_iterator@V?$_Vector_val@UItem@CInifile@@V?$xalloc@UItem@CInifile@@@@@std@@@1@AEAUItem@CInifile@@@Z PROC ; std::vector<CInifile::Item,xalloc<CInifile::Item> >::insert<CInifile::Item & __ptr64>, COMDAT

; 673  : 		iterator insert(const_iterator _Where, _Valty&& _Val)

$LN5:
	push	rbx
	sub	rsp, 32					; 00000020H
	mov	rbx, rdx

; 674  : 		{	// insert _Val at _Where
; 675  : 		return (emplace(_Where, _STD forward<_Valty>(_Val)));

	call	??$emplace@AEAUItem@CInifile@@@?$vector@UItem@CInifile@@V?$xalloc@UItem@CInifile@@@@@std@@QEAA?AV?$_Vector_iterator@V?$_Vector_val@UItem@CInifile@@V?$xalloc@UItem@CInifile@@@@@std@@@1@V?$_Vector_const_iterator@V?$_Vector_val@UItem@CInifile@@V?$xalloc@UItem@CInifile@@@@@std@@@1@AEAUItem@CInifile@@@Z ; std::vector<CInifile::Item,xalloc<CInifile::Item> >::emplace<CInifile::Item & __ptr64>
	mov	rax, rbx

; 676  : 		}

	add	rsp, 32					; 00000020H
	pop	rbx
	ret	0
??$insert@AEAUItem@CInifile@@@?$vector@UItem@CInifile@@V?$xalloc@UItem@CInifile@@@@@std@@QEAA?AV?$_Vector_iterator@V?$_Vector_val@UItem@CInifile@@V?$xalloc@UItem@CInifile@@@@@std@@@1@V?$_Vector_const_iterator@V?$_Vector_val@UItem@CInifile@@V?$xalloc@UItem@CInifile@@@@@std@@@1@AEAUItem@CInifile@@@Z ENDP ; std::vector<CInifile::Item,xalloc<CInifile::Item> >::insert<CInifile::Item & __ptr64>
_TEXT	ENDS
;	COMDAT pdata
pdata	SEGMENT
$pdata$??$insert@AEAPEAUSect@CInifile@@@?$vector@PEAUSect@CInifile@@V?$xalloc@PEAUSect@CInifile@@@@@std@@QEAA?AV?$_Vector_iterator@V?$_Vector_val@PEAUSect@CInifile@@V?$xalloc@PEAUSect@CInifile@@@@@std@@@1@V?$_Vector_const_iterator@V?$_Vector_val@PEAUSect@CInifile@@V?$xalloc@PEAUSect@CInifile@@@@@std@@@1@AEAPEAUSect@CInifile@@@Z DD imagerel $LN139
	DD	imagerel $LN139+139
	DD	imagerel $unwind$??$insert@AEAPEAUSect@CInifile@@@?$vector@PEAUSect@CInifile@@V?$xalloc@PEAUSect@CInifile@@@@@std@@QEAA?AV?$_Vector_iterator@V?$_Vector_val@PEAUSect@CInifile@@V?$xalloc@PEAUSect@CInifile@@@@@std@@@1@V?$_Vector_const_iterator@V?$_Vector_val@PEAUSect@CInifile@@V?$xalloc@PEAUSect@CInifile@@@@@std@@@1@AEAPEAUSect@CInifile@@@Z
pdata	ENDS
;	COMDAT xdata
xdata	SEGMENT
$unwind$??$insert@AEAPEAUSect@CInifile@@@?$vector@PEAUSect@CInifile@@V?$xalloc@PEAUSect@CInifile@@@@@std@@QEAA?AV?$_Vector_iterator@V?$_Vector_val@PEAUSect@CInifile@@V?$xalloc@PEAUSect@CInifile@@@@@std@@@1@V?$_Vector_const_iterator@V?$_Vector_val@PEAUSect@CInifile@@V?$xalloc@PEAUSect@CInifile@@@@@std@@@1@AEAPEAUSect@CInifile@@@Z DD 081401H
	DD	086414H
	DD	075414H
	DD	063414H
	DD	070103214H
; Function compile flags: /Ogtpy
xdata	ENDS
;	COMDAT ??$insert@AEAPEAUSect@CInifile@@@?$vector@PEAUSect@CInifile@@V?$xalloc@PEAUSect@CInifile@@@@@std@@QEAA?AV?$_Vector_iterator@V?$_Vector_val@PEAUSect@CInifile@@V?$xalloc@PEAUSect@CInifile@@@@@std@@@1@V?$_Vector_const_iterator@V?$_Vector_val@PEAUSect@CInifile@@V?$xalloc@PEAUSect@CInifile@@@@@std@@@1@AEAPEAUSect@CInifile@@@Z
_TEXT	SEGMENT
this$ = 48
__$ReturnUdt$ = 56
_Where$ = 64
_Val$ = 72
??$insert@AEAPEAUSect@CInifile@@@?$vector@PEAUSect@CInifile@@V?$xalloc@PEAUSect@CInifile@@@@@std@@QEAA?AV?$_Vector_iterator@V?$_Vector_val@PEAUSect@CInifile@@V?$xalloc@PEAUSect@CInifile@@@@@std@@@1@V?$_Vector_const_iterator@V?$_Vector_val@PEAUSect@CInifile@@V?$xalloc@PEAUSect@CInifile@@@@@std@@@1@AEAPEAUSect@CInifile@@@Z PROC ; std::vector<CInifile::Sect * __ptr64,xalloc<CInifile::Sect * __ptr64> >::insert<CInifile::Sect * __ptr64 & __ptr64>, COMDAT

; 673  : 		iterator insert(const_iterator _Where, _Valty&& _Val)

$LN139:
	mov	QWORD PTR [rsp+8], rbx
	mov	QWORD PTR [rsp+16], rbp
	mov	QWORD PTR [rsp+24], rsi
	push	rdi
	sub	rsp, 32					; 00000020H

; 674  : 		{	// insert _Val at _Where
; 675  : 		return (emplace(_Where, _STD forward<_Valty>(_Val)));

	mov	rax, QWORD PTR [rcx+16]
	mov	rdi, r8
	mov	rbp, r9
	sub	rdi, QWORD PTR [rcx]
	mov	rsi, rdx
	mov	rbx, rcx
	sar	rdi, 3
	cmp	QWORD PTR [rcx+8], rax
	jne	SHORT $LN9@insert@3
	call	?_Reserve@?$vector@PEAUSect@CInifile@@V?$xalloc@PEAUSect@CInifile@@@@@std@@IEAAX_K@Z ; std::vector<CInifile::Sect * __ptr64,xalloc<CInifile::Sect * __ptr64> >::_Reserve
$LN9@insert@3:
	mov	rcx, QWORD PTR [rbx+8]
	test	rcx, rcx
	je	SHORT $LN24@insert@3
	mov	rax, QWORD PTR [rbp]
	mov	QWORD PTR [rcx], rax
$LN24@insert@3:
	add	QWORD PTR [rbx+8], 8
	mov	rax, QWORD PTR [rbx]
	mov	r8, QWORD PTR [rbx+8]
	lea	rdx, QWORD PTR [r8-8]
	lea	rcx, QWORD PTR [rax+rdi*8]
	cmp	rcx, rdx
	je	SHORT $LN123@insert@3
	cmp	rdx, r8
	je	SHORT $LN123@insert@3
	call	??$_Rotate@PEAPEAUSect@CInifile@@_JPEAU12@@std@@YAXPEAPEAUSect@CInifile@@00PEA_J0@Z ; std::_Rotate<CInifile::Sect * __ptr64 * __ptr64,__int64,CInifile::Sect * __ptr64>
$LN123@insert@3:
	mov	rax, QWORD PTR [rbx]

; 676  : 		}

	mov	rbp, QWORD PTR [rsp+56]
	mov	rbx, QWORD PTR [rsp+48]
	lea	rcx, QWORD PTR [rax+rdi*8]
	mov	rax, rsi
	mov	QWORD PTR [rsi], rcx
	mov	rsi, QWORD PTR [rsp+64]
	add	rsp, 32					; 00000020H
	pop	rdi
	ret	0
??$insert@AEAPEAUSect@CInifile@@@?$vector@PEAUSect@CInifile@@V?$xalloc@PEAUSect@CInifile@@@@@std@@QEAA?AV?$_Vector_iterator@V?$_Vector_val@PEAUSect@CInifile@@V?$xalloc@PEAUSect@CInifile@@@@@std@@@1@V?$_Vector_const_iterator@V?$_Vector_val@PEAUSect@CInifile@@V?$xalloc@PEAUSect@CInifile@@@@@std@@@1@AEAPEAUSect@CInifile@@@Z ENDP ; std::vector<CInifile::Sect * __ptr64,xalloc<CInifile::Sect * __ptr64> >::insert<CInifile::Sect * __ptr64 & __ptr64>
_TEXT	ENDS
;	COMDAT pdata
; File c:\users\nummer\documents\github\olr-3.0\src\xray\xrcore\xrstring.h
pdata	SEGMENT
$pdata$?_Insert_n@?$vector@UItem@CInifile@@V?$xalloc@UItem@CInifile@@@@@std@@IEAAXV?$_Vector_const_iterator@V?$_Vector_val@UItem@CInifile@@V?$xalloc@UItem@CInifile@@@@@std@@@2@_KAEBUItem@CInifile@@@Z DD imagerel $LN256
	DD	imagerel $LN256+857
	DD	imagerel $unwind$?_Insert_n@?$vector@UItem@CInifile@@V?$xalloc@UItem@CInifile@@@@@std@@IEAAXV?$_Vector_const_iterator@V?$_Vector_val@UItem@CInifile@@V?$xalloc@UItem@CInifile@@@@@std@@@2@_KAEBUItem@CInifile@@@Z
pdata	ENDS
;	COMDAT pdata
pdata	SEGMENT
$pdata$?catch$0@?0??_Insert_n@?$vector@UItem@CInifile@@V?$xalloc@UItem@CInifile@@@@@std@@IEAAXV?$_Vector_const_iterator@V?$_Vector_val@UItem@CInifile@@V?$xalloc@UItem@CInifile@@@@@std@@@2@_KAEBUItem@CInifile@@@Z@4HA DD imagerel ?catch$0@?0??_Insert_n@?$vector@UItem@CInifile@@V?$xalloc@UItem@CInifile@@@@@std@@IEAAXV?$_Vector_const_iterator@V?$_Vector_val@UItem@CInifile@@V?$xalloc@UItem@CInifile@@@@@std@@@2@_KAEBUItem@CInifile@@@Z@4HA
	DD	imagerel ?catch$0@?0??_Insert_n@?$vector@UItem@CInifile@@V?$xalloc@UItem@CInifile@@@@@std@@IEAAXV?$_Vector_const_iterator@V?$_Vector_val@UItem@CInifile@@V?$xalloc@UItem@CInifile@@@@@std@@@2@_KAEBUItem@CInifile@@@Z@4HA+112
	DD	imagerel $unwind$?catch$0@?0??_Insert_n@?$vector@UItem@CInifile@@V?$xalloc@UItem@CInifile@@@@@std@@IEAAXV?$_Vector_const_iterator@V?$_Vector_val@UItem@CInifile@@V?$xalloc@UItem@CInifile@@@@@std@@@2@_KAEBUItem@CInifile@@@Z@4HA
pdata	ENDS
;	COMDAT pdata
pdata	SEGMENT
$pdata$?catch$1@?0??_Insert_n@?$vector@UItem@CInifile@@V?$xalloc@UItem@CInifile@@@@@std@@IEAAXV?$_Vector_const_iterator@V?$_Vector_val@UItem@CInifile@@V?$xalloc@UItem@CInifile@@@@@std@@@2@_KAEBUItem@CInifile@@@Z@4HA DD imagerel ?catch$1@?0??_Insert_n@?$vector@UItem@CInifile@@V?$xalloc@UItem@CInifile@@@@@std@@IEAAXV?$_Vector_const_iterator@V?$_Vector_val@UItem@CInifile@@V?$xalloc@UItem@CInifile@@@@@std@@@2@_KAEBUItem@CInifile@@@Z@4HA
	DD	imagerel ?catch$1@?0??_Insert_n@?$vector@UItem@CInifile@@V?$xalloc@UItem@CInifile@@@@@std@@IEAAXV?$_Vector_const_iterator@V?$_Vector_val@UItem@CInifile@@V?$xalloc@UItem@CInifile@@@@@std@@@2@_KAEBUItem@CInifile@@@Z@4HA+54
	DD	imagerel $unwind$?catch$1@?0??_Insert_n@?$vector@UItem@CInifile@@V?$xalloc@UItem@CInifile@@@@@std@@IEAAXV?$_Vector_const_iterator@V?$_Vector_val@UItem@CInifile@@V?$xalloc@UItem@CInifile@@@@@std@@@2@_KAEBUItem@CInifile@@@Z@4HA
pdata	ENDS
;	COMDAT xdata
xdata	SEGMENT
$ip2state$?_Insert_n@?$vector@UItem@CInifile@@V?$xalloc@UItem@CInifile@@@@@std@@IEAAXV?$_Vector_const_iterator@V?$_Vector_val@UItem@CInifile@@V?$xalloc@UItem@CInifile@@@@@std@@@2@_KAEBUItem@CInifile@@@Z DD imagerel ?_Insert_n@?$vector@UItem@CInifile@@V?$xalloc@UItem@CInifile@@@@@std@@IEAAXV?$_Vector_const_iterator@V?$_Vector_val@UItem@CInifile@@V?$xalloc@UItem@CInifile@@@@@std@@@2@_KAEBUItem@CInifile@@@Z
	DD	0ffffffffH
	DD	imagerel ?_Insert_n@?$vector@UItem@CInifile@@V?$xalloc@UItem@CInifile@@@@@std@@IEAAXV?$_Vector_const_iterator@V?$_Vector_val@UItem@CInifile@@V?$xalloc@UItem@CInifile@@@@@std@@@2@_KAEBUItem@CInifile@@@Z+208
	DD	00H
	DD	imagerel ?_Insert_n@?$vector@UItem@CInifile@@V?$xalloc@UItem@CInifile@@@@@std@@IEAAXV?$_Vector_const_iterator@V?$_Vector_val@UItem@CInifile@@V?$xalloc@UItem@CInifile@@@@@std@@@2@_KAEBUItem@CInifile@@@Z+293
	DD	0ffffffffH
	DD	imagerel ?_Insert_n@?$vector@UItem@CInifile@@V?$xalloc@UItem@CInifile@@@@@std@@IEAAXV?$_Vector_const_iterator@V?$_Vector_val@UItem@CInifile@@V?$xalloc@UItem@CInifile@@@@@std@@@2@_KAEBUItem@CInifile@@@Z+460
	DD	02H
	DD	imagerel ?_Insert_n@?$vector@UItem@CInifile@@V?$xalloc@UItem@CInifile@@@@@std@@IEAAXV?$_Vector_const_iterator@V?$_Vector_val@UItem@CInifile@@V?$xalloc@UItem@CInifile@@@@@std@@@2@_KAEBUItem@CInifile@@@Z+501
	DD	0ffffffffH
	DD	imagerel ?catch$0@?0??_Insert_n@?$vector@UItem@CInifile@@V?$xalloc@UItem@CInifile@@@@@std@@IEAAXV?$_Vector_const_iterator@V?$_Vector_val@UItem@CInifile@@V?$xalloc@UItem@CInifile@@@@@std@@@2@_KAEBUItem@CInifile@@@Z@4HA
	DD	00H
	DD	imagerel ?catch$0@?0??_Insert_n@?$vector@UItem@CInifile@@V?$xalloc@UItem@CInifile@@@@@std@@IEAAXV?$_Vector_const_iterator@V?$_Vector_val@UItem@CInifile@@V?$xalloc@UItem@CInifile@@@@@std@@@2@_KAEBUItem@CInifile@@@Z@4HA+16
	DD	01H
	DD	imagerel ?catch$1@?0??_Insert_n@?$vector@UItem@CInifile@@V?$xalloc@UItem@CInifile@@@@@std@@IEAAXV?$_Vector_const_iterator@V?$_Vector_val@UItem@CInifile@@V?$xalloc@UItem@CInifile@@@@@std@@@2@_KAEBUItem@CInifile@@@Z@4HA
	DD	00H
	DD	imagerel ?catch$1@?0??_Insert_n@?$vector@UItem@CInifile@@V?$xalloc@UItem@CInifile@@@@@std@@IEAAXV?$_Vector_const_iterator@V?$_Vector_val@UItem@CInifile@@V?$xalloc@UItem@CInifile@@@@@std@@@2@_KAEBUItem@CInifile@@@Z@4HA+13
	DD	03H
xdata	ENDS
;	COMDAT xdata
xdata	SEGMENT
$unwind$?catch$1@?0??_Insert_n@?$vector@UItem@CInifile@@V?$xalloc@UItem@CInifile@@@@@std@@IEAAXV?$_Vector_const_iterator@V?$_Vector_val@UItem@CInifile@@V?$xalloc@UItem@CInifile@@@@@std@@@2@_KAEBUItem@CInifile@@@Z@4HA DD 020a19H
	DD	05006320aH
	DD	imagerel __CxxFrameHandler3
	DD	imagerel $cppxdata$?_Insert_n@?$vector@UItem@CInifile@@V?$xalloc@UItem@CInifile@@@@@std@@IEAAXV?$_Vector_const_iterator@V?$_Vector_val@UItem@CInifile@@V?$xalloc@UItem@CInifile@@@@@std@@@2@_KAEBUItem@CInifile@@@Z
xdata	ENDS
;	COMDAT xdata
xdata	SEGMENT
$unwind$?catch$0@?0??_Insert_n@?$vector@UItem@CInifile@@V?$xalloc@UItem@CInifile@@@@@std@@IEAAXV?$_Vector_const_iterator@V?$_Vector_val@UItem@CInifile@@V?$xalloc@UItem@CInifile@@@@@std@@@2@_KAEBUItem@CInifile@@@Z@4HA DD 050d19H
	DD	07009420dH
	DD	050076008H
	DD	03006H
	DD	imagerel __CxxFrameHandler3
	DD	imagerel $cppxdata$?_Insert_n@?$vector@UItem@CInifile@@V?$xalloc@UItem@CInifile@@@@@std@@IEAAXV?$_Vector_const_iterator@V?$_Vector_val@UItem@CInifile@@V?$xalloc@UItem@CInifile@@@@@std@@@2@_KAEBUItem@CInifile@@@Z
xdata	ENDS
;	COMDAT xdata
xdata	SEGMENT
$unwind$?_Insert_n@?$vector@UItem@CInifile@@V?$xalloc@UItem@CInifile@@@@@std@@IEAAXV?$_Vector_const_iterator@V?$_Vector_val@UItem@CInifile@@V?$xalloc@UItem@CInifile@@@@@std@@@2@_KAEBUItem@CInifile@@@Z DD 082219H
	DD	0f0157219H
	DD	0d011e013H
	DD	0700dc00fH
	DD	0300b600cH
	DD	imagerel __CxxFrameHandler3
	DD	imagerel $cppxdata$?_Insert_n@?$vector@UItem@CInifile@@V?$xalloc@UItem@CInifile@@@@@std@@IEAAXV?$_Vector_const_iterator@V?$_Vector_val@UItem@CInifile@@V?$xalloc@UItem@CInifile@@@@@std@@@2@_KAEBUItem@CInifile@@@Z
xdata	ENDS
;	COMDAT CONST
CONST	SEGMENT
$cppxdata$?_Insert_n@?$vector@UItem@CInifile@@V?$xalloc@UItem@CInifile@@@@@std@@IEAAXV?$_Vector_const_iterator@V?$_Vector_val@UItem@CInifile@@V?$xalloc@UItem@CInifile@@@@@std@@@2@_KAEBUItem@CInifile@@@Z DD 019930522H
	DD	04H
	DD	imagerel $stateUnwindMap$?_Insert_n@?$vector@UItem@CInifile@@V?$xalloc@UItem@CInifile@@@@@std@@IEAAXV?$_Vector_const_iterator@V?$_Vector_val@UItem@CInifile@@V?$xalloc@UItem@CInifile@@@@@std@@@2@_KAEBUItem@CInifile@@@Z
	DD	02H
	DD	imagerel $tryMap$?_Insert_n@?$vector@UItem@CInifile@@V?$xalloc@UItem@CInifile@@@@@std@@IEAAXV?$_Vector_const_iterator@V?$_Vector_val@UItem@CInifile@@V?$xalloc@UItem@CInifile@@@@@std@@@2@_KAEBUItem@CInifile@@@Z
	DD	09H
	DD	imagerel $ip2state$?_Insert_n@?$vector@UItem@CInifile@@V?$xalloc@UItem@CInifile@@@@@std@@IEAAXV?$_Vector_const_iterator@V?$_Vector_val@UItem@CInifile@@V?$xalloc@UItem@CInifile@@@@@std@@@2@_KAEBUItem@CInifile@@@Z
	DD	038H
	DD	00H
	DD	00H
CONST	ENDS
;	COMDAT xdata
xdata	SEGMENT
$tryMap$?_Insert_n@?$vector@UItem@CInifile@@V?$xalloc@UItem@CInifile@@@@@std@@IEAAXV?$_Vector_const_iterator@V?$_Vector_val@UItem@CInifile@@V?$xalloc@UItem@CInifile@@@@@std@@@2@_KAEBUItem@CInifile@@@Z DD 00H
	DD	00H
	DD	01H
	DD	01H
	DD	imagerel $handlerMap$0$?_Insert_n@?$vector@UItem@CInifile@@V?$xalloc@UItem@CInifile@@@@@std@@IEAAXV?$_Vector_const_iterator@V?$_Vector_val@UItem@CInifile@@V?$xalloc@UItem@CInifile@@@@@std@@@2@_KAEBUItem@CInifile@@@Z
	DD	02H
	DD	02H
	DD	03H
	DD	01H
	DD	imagerel $handlerMap$1$?_Insert_n@?$vector@UItem@CInifile@@V?$xalloc@UItem@CInifile@@@@@std@@IEAAXV?$_Vector_const_iterator@V?$_Vector_val@UItem@CInifile@@V?$xalloc@UItem@CInifile@@@@@std@@@2@_KAEBUItem@CInifile@@@Z
xdata	ENDS
;	COMDAT xdata
xdata	SEGMENT
$handlerMap$1$?_Insert_n@?$vector@UItem@CInifile@@V?$xalloc@UItem@CInifile@@@@@std@@IEAAXV?$_Vector_const_iterator@V?$_Vector_val@UItem@CInifile@@V?$xalloc@UItem@CInifile@@@@@std@@@2@_KAEBUItem@CInifile@@@Z DD 00H
	DD	00H
	DD	00H
	DD	imagerel ?catch$1@?0??_Insert_n@?$vector@UItem@CInifile@@V?$xalloc@UItem@CInifile@@@@@std@@IEAAXV?$_Vector_const_iterator@V?$_Vector_val@UItem@CInifile@@V?$xalloc@UItem@CInifile@@@@@std@@@2@_KAEBUItem@CInifile@@@Z@4HA
	DD	038H
xdata	ENDS
;	COMDAT xdata
xdata	SEGMENT
$handlerMap$0$?_Insert_n@?$vector@UItem@CInifile@@V?$xalloc@UItem@CInifile@@@@@std@@IEAAXV?$_Vector_const_iterator@V?$_Vector_val@UItem@CInifile@@V?$xalloc@UItem@CInifile@@@@@std@@@2@_KAEBUItem@CInifile@@@Z DD 00H
	DD	00H
	DD	00H
	DD	imagerel ?catch$0@?0??_Insert_n@?$vector@UItem@CInifile@@V?$xalloc@UItem@CInifile@@@@@std@@IEAAXV?$_Vector_const_iterator@V?$_Vector_val@UItem@CInifile@@V?$xalloc@UItem@CInifile@@@@@std@@@2@_KAEBUItem@CInifile@@@Z@4HA
	DD	058H
xdata	ENDS
;	COMDAT xdata
xdata	SEGMENT
$stateUnwindMap$?_Insert_n@?$vector@UItem@CInifile@@V?$xalloc@UItem@CInifile@@@@@std@@IEAAXV?$_Vector_const_iterator@V?$_Vector_val@UItem@CInifile@@V?$xalloc@UItem@CInifile@@@@@std@@@2@_KAEBUItem@CInifile@@@Z DD 0ffffffffH
	DD	00H
	DD	0ffffffffH
	DD	00H
	DD	0ffffffffH
	DD	00H
	DD	0ffffffffH
	DD	00H
; Function compile flags: /Ogtpy
; File c:\program files (x86)\microsoft visual studio 10.0\vc\include\vector
xdata	ENDS
;	COMDAT ?_Insert_n@?$vector@UItem@CInifile@@V?$xalloc@UItem@CInifile@@@@@std@@IEAAXV?$_Vector_const_iterator@V?$_Vector_val@UItem@CInifile@@V?$xalloc@UItem@CInifile@@@@@std@@@2@_KAEBUItem@CInifile@@@Z
_TEXT	SEGMENT
_Ncopied$98013 = 32
_Tmp$98030 = 40
_Whereoff$98012 = 40
$T298604 = 56
this$ = 128
_Where$ = 136
_Val$ = 144
$T297948 = 152
$T297941 = 152
_Newvec$98011 = 152
?_Insert_n@?$vector@UItem@CInifile@@V?$xalloc@UItem@CInifile@@@@@std@@IEAAXV?$_Vector_const_iterator@V?$_Vector_val@UItem@CInifile@@V?$xalloc@UItem@CInifile@@@@@std@@@2@_KAEBUItem@CInifile@@@Z PROC ; std::vector<CInifile::Item,xalloc<CInifile::Item> >::_Insert_n, COMDAT

; 1330 : 		{	// insert _Count * _Val at _Where

$LN256:
	mov	QWORD PTR [rsp+16], rdx
	mov	QWORD PTR [rsp+8], rcx
	push	rbx
	push	rsi
	push	rdi
	push	r12
	push	r13
	push	r14
	push	r15
	sub	rsp, 64					; 00000040H
	mov	QWORD PTR $T298604[rsp], -2
	mov	r12, r8
	mov	rax, rdx
	mov	r14, rcx

; 1331 :  #if _ITERATOR_DEBUG_LEVEL == 2
; 1332 : 		if (_VICONT(_Where) != this
; 1333 : 			|| _VIPTR(_Where) < this->_Myfirst
; 1334 : 			|| this->_Mylast < _VIPTR(_Where))
; 1335 : 			_DEBUG_ERROR("vector insert iterator outside range");
; 1336 :  #endif /* _ITERATOR_DEBUG_LEVEL == 2 */
; 1337 : 
; 1338 : 		if (_Count == 0)
; 1339 : 			;
; 1340 : 		else if (max_size() - size() < _Count)

	mov	rcx, QWORD PTR [rcx+8]
	mov	r10, QWORD PTR [r14]
	mov	r8, rcx
	sub	r8, r10
	sar	r8, 4
	mov	r9, 1152921504606846975			; 0fffffffffffffffH
	mov	rdx, r9
	sub	rdx, r8
	cmp	rdx, 1
	jae	SHORT $LN11@Insert_n

; 1341 : 			_Xlen();	// result too long

	lea	rcx, OFFSET FLAT:??_C@_0BD@OLBABOEK@vector?$DMT?$DO?5too?5long?$AA@
	call	QWORD PTR __imp_?_Xlength_error@std@@YAXPEBD@Z
	int	3
$LN11@Insert_n:

; 1342 : 		else if (capacity() < size() + _Count)

	inc	r8
	mov	rbx, QWORD PTR [r14+16]
	sub	rbx, r10
	sar	rbx, 4
	cmp	rbx, r8
	jae	$LN9@Insert_n

; 1343 : 			{	// not enough room, reallocate
; 1344 : 			size_type _Capacity = _Grow_to(size() + _Count);

	mov	rax, rbx
	shr	rax, 1
	sub	r9, rax
	cmp	r9, rbx
	jae	SHORT $LN42@Insert_n
	xor	r13d, r13d
	mov	ebx, r13d
	jmp	SHORT $LN43@Insert_n
$LN42@Insert_n:
	add	rbx, rax
	xor	r13d, r13d
$LN43@Insert_n:
	cmp	rbx, r8
	cmovb	rbx, r8

; 1345 : 			pointer _Newvec = this->_Alval.allocate(_Capacity);

	mov	edx, ebx
	shl	rdx, 4
	lea	rcx, OFFSET FLAT:?Memory@@3VxrMemory@@A	; Memory
	call	?mem_alloc@xrMemory@@QEAAPEAX_K@Z	; xrMemory::mem_alloc
	mov	r15, rax
	mov	QWORD PTR _Newvec$98011[rsp], rax

; 1346 : 			size_type _Whereoff = _VIPTR(_Where) - this->_Myfirst;

	mov	rdi, QWORD PTR _Where$[rsp]
	sub	rdi, QWORD PTR [r14]
	sar	rdi, 4
	mov	QWORD PTR _Whereoff$98012[rsp], rdi

; 1347 : 			int _Ncopied = 0;

	mov	DWORD PTR _Ncopied$98013[rsp], r13d

; 1348 : 
; 1349 : 			_TRY_BEGIN
; 1350 : 			_Ufill(_Newvec + _Whereoff, _Count,
; 1351 : 				_STD addressof(_Val));	// add new stuff

	mov	rcx, rdi
	shl	rcx, 4
	add	rcx, rax
	mov	r8, r12
	mov	esi, 1
	mov	edx, esi
	call	??$_Uninit_fill_n@PEAUItem@CInifile@@_KU12@V?$xalloc@UItem@CInifile@@@@U12@@std@@YAXPEAUItem@CInifile@@_KPEBU12@AEAV?$xalloc@UItem@CInifile@@@@0U_Nonscalar_ptr_iterator_tag@0@@Z ; std::_Uninit_fill_n<CInifile::Item * __ptr64,unsigned __int64,CInifile::Item,xalloc<CInifile::Item>,CInifile::Item>

; 1352 : 			++_Ncopied;

	mov	DWORD PTR _Ncopied$98013[rsp], esi

; 1353 : 			_Umove(this->_Myfirst, _VIPTR(_Where),
; 1354 : 				_Newvec);	// copy prefix

	mov	r8, r15
	mov	rdx, QWORD PTR _Where$[rsp]
	mov	rcx, QWORD PTR [r14]
	call	??$_Uninit_move@PEAUItem@CInifile@@PEAU12@V?$xalloc@UItem@CInifile@@@@U12@@std@@YAPEAUItem@CInifile@@PEAU12@00AEAV?$xalloc@UItem@CInifile@@@@0U_Nonscalar_ptr_iterator_tag@0@@Z ; std::_Uninit_move<CInifile::Item * __ptr64,CInifile::Item * __ptr64,xalloc<CInifile::Item>,CInifile::Item>

; 1355 : 			++_Ncopied;

	mov	DWORD PTR _Ncopied$98013[rsp], 2

; 1356 : 			_Umove(_VIPTR(_Where), this->_Mylast,
; 1357 : 				_Newvec + (_Whereoff + _Count));	// copy suffix

	lea	r8, QWORD PTR [rdi+1]
	shl	r8, 4
	add	r8, r15
	mov	rdx, QWORD PTR [r14+8]
	mov	rcx, QWORD PTR _Where$[rsp]
	call	??$_Uninit_move@PEAUItem@CInifile@@PEAU12@V?$xalloc@UItem@CInifile@@@@U12@@std@@YAPEAUItem@CInifile@@PEAU12@00AEAV?$xalloc@UItem@CInifile@@@@0U_Nonscalar_ptr_iterator_tag@0@@Z ; std::_Uninit_move<CInifile::Item * __ptr64,CInifile::Item * __ptr64,xalloc<CInifile::Item>,CInifile::Item>
	npad	1

; 1358 : 			_CATCH_ALL
; 1359 : 			if (1 < _Ncopied)
; 1360 : 				_Destroy(_Newvec, _Newvec + _Whereoff);
; 1361 : 			if (0 < _Ncopied)
; 1362 : 				_Destroy(_Newvec + _Whereoff, _Newvec + _Whereoff + _Count);
; 1363 : 			this->_Alval.deallocate(_Newvec, _Capacity);
; 1364 : 			_RERAISE;
; 1365 : 			_CATCH_END
; 1366 : 
; 1367 : 			_Count += size();

	mov	rdx, QWORD PTR [r14+8]
	mov	rcx, QWORD PTR [r14]
	mov	rdi, rdx
	sub	rdi, rcx
	sar	rdi, 4
	inc	rdi

; 1368 : 			if (this->_Myfirst != 0)

	test	rcx, rcx
	je	SHORT $LN84@Insert_n

; 1369 : 				{	// destroy and deallocate old array
; 1370 : 				_Destroy(this->_Myfirst, this->_Mylast);

	call	?_Destroy@?$vector@UItem@CInifile@@V?$xalloc@UItem@CInifile@@@@@std@@IEAAXPEAUItem@CInifile@@0@Z ; std::vector<CInifile::Item,xalloc<CInifile::Item> >::_Destroy

; 1371 : 				this->_Alval.deallocate(this->_Myfirst,
; 1372 : 					this->_Myend - this->_Myfirst);

	mov	r11, QWORD PTR [r14]
	mov	QWORD PTR $T297948[rsp], r11
	lea	rcx, QWORD PTR $T297948[rsp]
	call	??$xr_free@UItem@CInifile@@@@YAXAEAPEAUItem@CInifile@@@Z ; xr_free<CInifile::Item>
$LN84@Insert_n:

; 1373 : 				}
; 1374 : 
; 1375 : 			this->_Orphan_all();
; 1376 : 			this->_Myend = _Newvec + _Capacity;

	shl	rbx, 4
	add	rbx, r15
	mov	QWORD PTR [r14+16], rbx

; 1377 : 			this->_Mylast = _Newvec + _Count;

	shl	rdi, 4
	add	rdi, r15
	mov	QWORD PTR [r14+8], rdi

; 1378 : 			this->_Myfirst = _Newvec;

	mov	QWORD PTR [r14], r15

; 1379 : 			}
; 1380 : 		else if ((size_type)(this->_Mylast - _VIPTR(_Where))

	jmp	$LN244@Insert_n
$LN9@Insert_n:

; 1381 : 			< _Count)

	sub	rcx, rax
	sar	rcx, 4
	cmp	rcx, 1
	jae	$LN3@Insert_n

; 1382 : 			{	// new stuff spills off end
; 1383 : 			_Ty _Tmp = _Val;	// in case _Val is in sequence

	mov	rbx, QWORD PTR [r12]
	test	rbx, rbx
	je	SHORT $LN95@Insert_n
	inc	DWORD PTR [rbx]
	mov	rax, QWORD PTR _Where$[rsp]
$LN95@Insert_n:
	mov	QWORD PTR _Tmp$98030[rsp], rbx
	mov	rdi, QWORD PTR [r12+8]
	test	rdi, rdi
	je	SHORT $LN101@Insert_n
	inc	DWORD PTR [rdi]
	mov	rax, QWORD PTR _Where$[rsp]
$LN101@Insert_n:
	mov	QWORD PTR _Tmp$98030[rsp+8], rdi

; 1384 : 
; 1385 : 			_Umove(_VIPTR(_Where), this->_Mylast,
; 1386 : 				_VIPTR(_Where) + _Count);	// copy suffix

	lea	r8, QWORD PTR [rax+16]
	mov	rdx, QWORD PTR [r14+8]
	mov	rcx, rax
	call	??$_Uninit_move@PEAUItem@CInifile@@PEAU12@V?$xalloc@UItem@CInifile@@@@U12@@std@@YAPEAUItem@CInifile@@PEAU12@00AEAV?$xalloc@UItem@CInifile@@@@0U_Nonscalar_ptr_iterator_tag@0@@Z ; std::_Uninit_move<CInifile::Item * __ptr64,CInifile::Item * __ptr64,xalloc<CInifile::Item>,CInifile::Item>
	npad	1

; 1387 : 
; 1388 : 			_TRY_BEGIN
; 1389 : 			_Ufill(this->_Mylast,
; 1390 : 				_Count - (this->_Mylast - _VIPTR(_Where)),
; 1391 : 				_STD addressof(_Tmp));	// insert new stuff off end

	mov	rcx, QWORD PTR [r14+8]
	mov	rax, rcx
	sub	rax, QWORD PTR _Where$[rsp]
	sar	rax, 4
	mov	esi, 1
	sub	rsi, rax
	lea	r8, QWORD PTR _Tmp$98030[rsp]
	mov	rdx, rsi
	call	??$_Uninit_fill_n@PEAUItem@CInifile@@_KU12@V?$xalloc@UItem@CInifile@@@@U12@@std@@YAXPEAUItem@CInifile@@_KPEBU12@AEAV?$xalloc@UItem@CInifile@@@@0U_Nonscalar_ptr_iterator_tag@0@@Z ; std::_Uninit_fill_n<CInifile::Item * __ptr64,unsigned __int64,CInifile::Item,xalloc<CInifile::Item>,CInifile::Item>
	npad	1

; 1392 : 			_CATCH_ALL
; 1393 : 			_Destroy(_VIPTR(_Where) + _Count,
; 1394 : 				this->_Mylast + _Count);
; 1395 : 			_RERAISE;
; 1396 : 			_CATCH_END
; 1397 : 
; 1398 : 			this->_Mylast += _Count;

	add	QWORD PTR [r14+8], 16
	mov	r8, QWORD PTR [r14+8]

; 1399 : 			_Orphan_range(_VIPTR(_Where), this->_Mylast);
; 1400 : 			_STD fill(_VIPTR(_Where), this->_Mylast - _Count,
; 1401 : 				_Tmp);	// insert up to old end

	add	r8, -16
	mov	rdx, QWORD PTR _Where$[rsp]
	cmp	rdx, r8
	je	SHORT $LN134@Insert_n
	xor	r13d, r13d
$LL136@Insert_n:
	test	rbx, rbx
	je	SHORT $LN143@Insert_n
	inc	DWORD PTR [rbx]
$LN143@Insert_n:
	mov	rax, QWORD PTR [rdx]
	test	rax, rax
	je	SHORT $LN146@Insert_n
	dec	DWORD PTR [rax]
	mov	rax, QWORD PTR [rdx]
	mov	rcx, rax
	cmp	DWORD PTR [rax], r13d
	cmove	rcx, r13
	mov	QWORD PTR [rdx], rcx
$LN146@Insert_n:
	mov	QWORD PTR [rdx], rbx
	test	rdi, rdi
	je	SHORT $LN152@Insert_n
	inc	DWORD PTR [rdi]
$LN152@Insert_n:
	mov	rax, QWORD PTR [rdx+8]
	test	rax, rax
	je	SHORT $LN155@Insert_n
	dec	DWORD PTR [rax]
	mov	rax, QWORD PTR [rdx+8]
	mov	rcx, rax
	cmp	DWORD PTR [rax], r13d
	cmove	rcx, r13
	mov	QWORD PTR [rdx+8], rcx
$LN155@Insert_n:
	mov	QWORD PTR [rdx+8], rdi
	add	rdx, 16
	cmp	rdx, r8
	jne	SHORT $LL136@Insert_n
$LN134@Insert_n:

; 1402 : 			}

	test	rdi, rdi
	je	SHORT $LN163@Insert_n
	dec	DWORD PTR [rdi]
$LN163@Insert_n:
	test	rbx, rbx
	je	$LN244@Insert_n
	dec	DWORD PTR [rbx]

; 1403 : 		else

	jmp	$LN244@Insert_n
$LN3@Insert_n:

; 1404 : 			{	// new stuff can all be assigned
; 1405 : 			_Ty _Tmp = _Val;	// in case _Val is in sequence

	mov	rsi, QWORD PTR [r12]
	test	rsi, rsi
	je	SHORT $LN180@Insert_n
	inc	DWORD PTR [rsi]
$LN180@Insert_n:
	mov	r12, QWORD PTR [r12+8]
	test	r12, r12
	je	SHORT $LN186@Insert_n
	inc	DWORD PTR [r12]
$LN186@Insert_n:

; 1406 : 
; 1407 : 			pointer _Oldend = this->_Mylast;

	mov	rdi, QWORD PTR [r14+8]

; 1408 : 			this->_Mylast = _Umove(_Oldend - _Count, _Oldend,
; 1409 : 				this->_Mylast);	// copy suffix

	mov	r8, rdi
	mov	rdx, rdi
	lea	rcx, QWORD PTR [rdi-16]
	call	??$_Uninit_move@PEAUItem@CInifile@@PEAU12@V?$xalloc@UItem@CInifile@@@@U12@@std@@YAPEAUItem@CInifile@@PEAU12@00AEAV?$xalloc@UItem@CInifile@@@@0U_Nonscalar_ptr_iterator_tag@0@@Z ; std::_Uninit_move<CInifile::Item * __ptr64,CInifile::Item * __ptr64,xalloc<CInifile::Item>,CInifile::Item>
	mov	QWORD PTR [r14+8], rax

; 1410 : 
; 1411 : 			_Orphan_range(_VIPTR(_Where), this->_Mylast);
; 1412 : 			_STD _Copy_backward(_VIPTR(_Where), _Oldend - _Count,
; 1413 : 				_Oldend);	// copy hole

	mov	r8, rdi
	lea	rdx, QWORD PTR [rdi-16]
	mov	rcx, QWORD PTR _Where$[rsp]
	call	??$_Copy_backward@PEAUItem@CInifile@@PEAU12@@std@@YAPEAUItem@CInifile@@PEAU12@00@Z ; std::_Copy_backward<CInifile::Item * __ptr64,CInifile::Item * __ptr64>

; 1414 : 			_STD fill(_VIPTR(_Where),
; 1415 : 				_VIPTR(_Where) + _Count, _Tmp);	// insert into hole

	mov	r11, QWORD PTR _Where$[rsp]
	lea	rax, QWORD PTR [r11+16]
	cmp	r11, rax
	je	SHORT $LN209@Insert_n
	xor	r13d, r13d
$LL211@Insert_n:
	test	rsi, rsi
	je	SHORT $LN218@Insert_n
	inc	DWORD PTR [rsi]
$LN218@Insert_n:
	mov	rax, QWORD PTR [r11]
	test	rax, rax
	je	SHORT $LN221@Insert_n
	dec	DWORD PTR [rax]
	mov	rax, QWORD PTR [r11]
	mov	rcx, rax
	cmp	DWORD PTR [rax], r13d
	cmove	rcx, r13
	mov	QWORD PTR [r11], rcx
$LN221@Insert_n:
	mov	QWORD PTR [r11], rsi
	test	r12, r12
	je	SHORT $LN227@Insert_n
	inc	DWORD PTR [r12]
$LN227@Insert_n:
	mov	rax, QWORD PTR [r11+8]
	test	rax, rax
	je	SHORT $LN230@Insert_n
	dec	DWORD PTR [rax]
	mov	rax, QWORD PTR [r11+8]
	mov	rcx, rax
	cmp	DWORD PTR [rax], r13d
	cmove	rcx, r13
	mov	QWORD PTR [r11+8], rcx
$LN230@Insert_n:
	mov	QWORD PTR [r11+8], r12
	add	r11, 16
	mov	rax, QWORD PTR _Where$[rsp]
	add	rax, 16
	cmp	r11, rax
	jne	SHORT $LL211@Insert_n
$LN209@Insert_n:

; 1416 : 			}

	test	r12, r12
	je	SHORT $LN238@Insert_n
	dec	DWORD PTR [r12]
$LN238@Insert_n:
	test	rsi, rsi
	je	SHORT $LN244@Insert_n
	dec	DWORD PTR [rsi]
$LN244@Insert_n:

; 1417 : 		}

	add	rsp, 64					; 00000040H
	pop	r15
	pop	r14
	pop	r13
	pop	r12
	pop	rdi
	pop	rsi
	pop	rbx
	ret	0
$LN255@Insert_n:
?_Insert_n@?$vector@UItem@CInifile@@V?$xalloc@UItem@CInifile@@@@@std@@IEAAXV?$_Vector_const_iterator@V?$_Vector_val@UItem@CInifile@@V?$xalloc@UItem@CInifile@@@@@std@@@2@_KAEBUItem@CInifile@@@Z ENDP ; std::vector<CInifile::Item,xalloc<CInifile::Item> >::_Insert_n
; Function compile flags: /Ogtpy
_TEXT	ENDS
;	COMDAT text$x
text$x	SEGMENT
_Ncopied$98013 = 32
_Tmp$98030 = 40
_Whereoff$98012 = 40
$T298604 = 56
this$ = 128
_Where$ = 136
_Val$ = 144
$T297948 = 152
$T297941 = 152
_Newvec$98011 = 152
?catch$0@?0??_Insert_n@?$vector@UItem@CInifile@@V?$xalloc@UItem@CInifile@@@@@std@@IEAAXV?$_Vector_const_iterator@V?$_Vector_val@UItem@CInifile@@V?$xalloc@UItem@CInifile@@@@@std@@@2@_KAEBUItem@CInifile@@@Z@4HA PROC ; `std::vector<CInifile::Item,xalloc<CInifile::Item> >::_Insert_n'::`1'::catch$0

; 1358 : 			_CATCH_ALL

	mov	QWORD PTR [rsp+16], rdx
	push	rbx
	push	rbp
	push	rsi
	push	rdi
	sub	rsp, 40					; 00000028H
	mov	rbp, rdx
__catch$?_Insert_n@?$vector@UItem@CInifile@@V?$xalloc@UItem@CInifile@@@@@std@@IEAAXV?$_Vector_const_iterator@V?$_Vector_val@UItem@CInifile@@V?$xalloc@UItem@CInifile@@@@@std@@@2@_KAEBUItem@CInifile@@@Z$0:

; 1359 : 			if (1 < _Ncopied)

	mov	esi, DWORD PTR _Ncopied$98013[rbp]

; 1360 : 				_Destroy(_Newvec, _Newvec + _Whereoff);

	mov	rdi, QWORD PTR _Whereoff$98012[rbp]
	mov	rbx, QWORD PTR _Newvec$98011[rbp]

; 1359 : 			if (1 < _Ncopied)

	cmp	esi, 1
	jle	SHORT $LN7@catch$0@12

; 1360 : 				_Destroy(_Newvec, _Newvec + _Whereoff);

	mov	rdx, rdi
	shl	rdx, 4
	add	rdx, rbx
	mov	rcx, rbx
	call	?_Destroy@?$vector@UItem@CInifile@@V?$xalloc@UItem@CInifile@@@@@std@@IEAAXPEAUItem@CInifile@@0@Z ; std::vector<CInifile::Item,xalloc<CInifile::Item> >::_Destroy
$LN7@catch$0@12:

; 1361 : 			if (0 < _Ncopied)

	test	esi, esi
	jle	SHORT $LN6@catch$0@12

; 1362 : 				_Destroy(_Newvec + _Whereoff, _Newvec + _Whereoff + _Count);

	mov	rcx, rdi
	shl	rcx, 4
	add	rcx, rbx
	lea	rdx, QWORD PTR [rdi+1]
	shl	rdx, 4
	add	rdx, rbx
	call	?_Destroy@?$vector@UItem@CInifile@@V?$xalloc@UItem@CInifile@@@@@std@@IEAAXPEAUItem@CInifile@@0@Z ; std::vector<CInifile::Item,xalloc<CInifile::Item> >::_Destroy
$LN6@catch$0@12:

; 1363 : 			this->_Alval.deallocate(_Newvec, _Capacity);

	mov	QWORD PTR $T297941[rbp], rbx
	lea	rcx, QWORD PTR $T297941[rbp]
	call	??$xr_free@UItem@CInifile@@@@YAXAEAPEAUItem@CInifile@@@Z ; xr_free<CInifile::Item>

; 1364 : 			_RERAISE;

	xor	edx, edx
	xor	ecx, ecx
	call	_CxxThrowException
	npad	1
?catch$0@?0??_Insert_n@?$vector@UItem@CInifile@@V?$xalloc@UItem@CInifile@@@@@std@@IEAAXV?$_Vector_const_iterator@V?$_Vector_val@UItem@CInifile@@V?$xalloc@UItem@CInifile@@@@@std@@@2@_KAEBUItem@CInifile@@@Z@4HA ENDP ; `std::vector<CInifile::Item,xalloc<CInifile::Item> >::_Insert_n'::`1'::catch$0
; Function compile flags: /Ogtpy
_Ncopied$98013 = 32
_Tmp$98030 = 40
_Whereoff$98012 = 40
$T298604 = 56
this$ = 128
_Where$ = 136
_Val$ = 144
$T297948 = 152
$T297941 = 152
_Newvec$98011 = 152
?catch$1@?0??_Insert_n@?$vector@UItem@CInifile@@V?$xalloc@UItem@CInifile@@@@@std@@IEAAXV?$_Vector_const_iterator@V?$_Vector_val@UItem@CInifile@@V?$xalloc@UItem@CInifile@@@@@std@@@2@_KAEBUItem@CInifile@@@Z@4HA PROC ; `std::vector<CInifile::Item,xalloc<CInifile::Item> >::_Insert_n'::`1'::catch$1

; 1392 : 			_CATCH_ALL

	mov	QWORD PTR [rsp+16], rdx
	push	rbp
	sub	rsp, 32					; 00000020H
	mov	rbp, rdx
__catch$?_Insert_n@?$vector@UItem@CInifile@@V?$xalloc@UItem@CInifile@@@@@std@@IEAAXV?$_Vector_const_iterator@V?$_Vector_val@UItem@CInifile@@V?$xalloc@UItem@CInifile@@@@@std@@@2@_KAEBUItem@CInifile@@@Z$2:

; 1393 : 			_Destroy(_VIPTR(_Where) + _Count,
; 1394 : 				this->_Mylast + _Count);

	mov	rax, QWORD PTR this$[rbp]
	mov	rdx, QWORD PTR [rax+8]
	add	rdx, 16
	mov	rcx, QWORD PTR _Where$[rbp]
	add	rcx, 16
	call	?_Destroy@?$vector@UItem@CInifile@@V?$xalloc@UItem@CInifile@@@@@std@@IEAAXPEAUItem@CInifile@@0@Z ; std::vector<CInifile::Item,xalloc<CInifile::Item> >::_Destroy

; 1395 : 			_RERAISE;

	xor	edx, edx
	xor	ecx, ecx
	call	_CxxThrowException
	npad	1
?catch$1@?0??_Insert_n@?$vector@UItem@CInifile@@V?$xalloc@UItem@CInifile@@@@@std@@IEAAXV?$_Vector_const_iterator@V?$_Vector_val@UItem@CInifile@@V?$xalloc@UItem@CInifile@@@@@std@@@2@_KAEBUItem@CInifile@@@Z@4HA ENDP ; `std::vector<CInifile::Item,xalloc<CInifile::Item> >::_Insert_n'::`1'::catch$1
text$x	ENDS
;	COMDAT pdata
pdata	SEGMENT
$pdata$?insert@?$vector@UItem@CInifile@@V?$xalloc@UItem@CInifile@@@@@std@@QEAA?AV?$_Vector_iterator@V?$_Vector_val@UItem@CInifile@@V?$xalloc@UItem@CInifile@@@@@std@@@2@V?$_Vector_const_iterator@V?$_Vector_val@UItem@CInifile@@V?$xalloc@UItem@CInifile@@@@@std@@@2@AEBUItem@CInifile@@@Z DD imagerel $LN33
	DD	imagerel $LN33+97
	DD	imagerel $unwind$?insert@?$vector@UItem@CInifile@@V?$xalloc@UItem@CInifile@@@@@std@@QEAA?AV?$_Vector_iterator@V?$_Vector_val@UItem@CInifile@@V?$xalloc@UItem@CInifile@@@@@std@@@2@V?$_Vector_const_iterator@V?$_Vector_val@UItem@CInifile@@V?$xalloc@UItem@CInifile@@@@@std@@@2@AEBUItem@CInifile@@@Z
pdata	ENDS
;	COMDAT xdata
xdata	SEGMENT
$unwind$?insert@?$vector@UItem@CInifile@@V?$xalloc@UItem@CInifile@@@@@std@@QEAA?AV?$_Vector_iterator@V?$_Vector_val@UItem@CInifile@@V?$xalloc@UItem@CInifile@@@@@std@@@2@V?$_Vector_const_iterator@V?$_Vector_val@UItem@CInifile@@V?$xalloc@UItem@CInifile@@@@@std@@@2@AEBUItem@CInifile@@@Z DD 060f01H
	DD	07640fH
	DD	06340fH
	DD	0700b320fH
; Function compile flags: /Ogtpy
xdata	ENDS
;	COMDAT ?insert@?$vector@UItem@CInifile@@V?$xalloc@UItem@CInifile@@@@@std@@QEAA?AV?$_Vector_iterator@V?$_Vector_val@UItem@CInifile@@V?$xalloc@UItem@CInifile@@@@@std@@@2@V?$_Vector_const_iterator@V?$_Vector_val@UItem@CInifile@@V?$xalloc@UItem@CInifile@@@@@std@@@2@AEBUItem@CInifile@@@Z
_TEXT	SEGMENT
this$ = 48
__$ReturnUdt$ = 56
_Where$ = 64
_Val$ = 72
?insert@?$vector@UItem@CInifile@@V?$xalloc@UItem@CInifile@@@@@std@@QEAA?AV?$_Vector_iterator@V?$_Vector_val@UItem@CInifile@@V?$xalloc@UItem@CInifile@@@@@std@@@2@V?$_Vector_const_iterator@V?$_Vector_val@UItem@CInifile@@V?$xalloc@UItem@CInifile@@@@@std@@@2@AEBUItem@CInifile@@@Z PROC ; std::vector<CInifile::Item,xalloc<CInifile::Item> >::insert, COMDAT

; 1051 : 		{	// insert _Val at _Where

$LN33:
	mov	QWORD PTR [rsp+8], rbx
	mov	QWORD PTR [rsp+16], rsi
	push	rdi
	sub	rsp, 32					; 00000020H

; 1052 : 		size_type _Off = size() == 0 ? 0 : _Where - begin();

	mov	r10, QWORD PTR [rcx]
	mov	rax, r8
	mov	r8, QWORD PTR [rcx+8]
	sub	r8, r10
	mov	rsi, rdx
	mov	rdi, rcx
	test	r8, -16
	jne	SHORT $LN3@insert@4
	xor	ebx, ebx
	jmp	SHORT $LN4@insert@4
$LN3@insert@4:
	mov	rbx, rax
	sub	rbx, r10
	sar	rbx, 4
$LN4@insert@4:

; 1053 : 		_Insert_n(_Where, (size_type)1, _Val);

	mov	r8, r9
	mov	rdx, rax
	call	?_Insert_n@?$vector@UItem@CInifile@@V?$xalloc@UItem@CInifile@@@@@std@@IEAAXV?$_Vector_const_iterator@V?$_Vector_val@UItem@CInifile@@V?$xalloc@UItem@CInifile@@@@@std@@@2@_KAEBUItem@CInifile@@@Z ; std::vector<CInifile::Item,xalloc<CInifile::Item> >::_Insert_n

; 1054 : 		return (begin() + _Off);

	shl	rbx, 4
	mov	rax, rsi
	add	rbx, QWORD PTR [rdi]
	mov	QWORD PTR [rsi], rbx

; 1055 : 		}

	mov	rbx, QWORD PTR [rsp+48]
	mov	rsi, QWORD PTR [rsp+56]
	add	rsp, 32					; 00000020H
	pop	rdi
	ret	0
?insert@?$vector@UItem@CInifile@@V?$xalloc@UItem@CInifile@@@@@std@@QEAA?AV?$_Vector_iterator@V?$_Vector_val@UItem@CInifile@@V?$xalloc@UItem@CInifile@@@@@std@@@2@V?$_Vector_const_iterator@V?$_Vector_val@UItem@CInifile@@V?$xalloc@UItem@CInifile@@@@@std@@@2@AEBUItem@CInifile@@@Z ENDP ; std::vector<CInifile::Item,xalloc<CInifile::Item> >::insert
_TEXT	ENDS
PUBLIC	?w_string@CInifile@@QEAAXPEBD000@Z		; CInifile::w_string
pdata	SEGMENT
$pdata$?w_string@CInifile@@QEAAXPEBD000@Z DD imagerel $LN776
	DD	imagerel $LN776+11
	DD	imagerel $unwind$?w_string@CInifile@@QEAAXPEBD000@Z
$pdata$1$?w_string@CInifile@@QEAAXPEBD000@Z DD imagerel $LN776+11
	DD	imagerel $LN776+19
	DD	imagerel $chain$1$?w_string@CInifile@@QEAAXPEBD000@Z
$pdata$5$?w_string@CInifile@@QEAAXPEBD000@Z DD imagerel $LN776+19
	DD	imagerel $LN776+668
	DD	imagerel $chain$5$?w_string@CInifile@@QEAAXPEBD000@Z
$pdata$6$?w_string@CInifile@@QEAAXPEBD000@Z DD imagerel $LN776+668
	DD	imagerel $LN776+903
	DD	imagerel $chain$6$?w_string@CInifile@@QEAAXPEBD000@Z
$pdata$7$?w_string@CInifile@@QEAAXPEBD000@Z DD imagerel $LN776+903
	DD	imagerel $LN776+1241
	DD	imagerel $chain$7$?w_string@CInifile@@QEAAXPEBD000@Z
$pdata$8$?w_string@CInifile@@QEAAXPEBD000@Z DD imagerel $LN776+1241
	DD	imagerel $LN776+1257
	DD	imagerel $chain$8$?w_string@CInifile@@QEAAXPEBD000@Z
$pdata$9$?w_string@CInifile@@QEAAXPEBD000@Z DD imagerel $LN776+1257
	DD	imagerel $LN776+1268
	DD	imagerel $chain$9$?w_string@CInifile@@QEAAXPEBD000@Z
pdata	ENDS
xdata	SEGMENT
$unwind$?w_string@CInifile@@QEAAXPEBD000@Z DD 030b01H
	DD	070010bH
	DD	06004H
$chain$1$?w_string@CInifile@@QEAAXPEBD000@Z DD 040821H
	DD	0735408H
	DD	0723404H
	DD	imagerel $LN776
	DD	imagerel $LN776+11
	DD	imagerel $unwind$?w_string@CInifile@@QEAAXPEBD000@Z
$chain$5$?w_string@CInifile@@QEAAXPEBD000@Z DD 081021H
	DD	06de410H
	DD	06ed40cH
	DD	06fc408H
	DD	0747404H
	DD	imagerel $LN776+11
	DD	imagerel $LN776+19
	DD	imagerel $chain$1$?w_string@CInifile@@QEAAXPEBD000@Z
$chain$6$?w_string@CInifile@@QEAAXPEBD000@Z DD 020821H
	DD	06cf408H
	DD	imagerel $LN776+19
	DD	imagerel $LN776+668
	DD	imagerel $chain$5$?w_string@CInifile@@QEAAXPEBD000@Z
$chain$7$?w_string@CInifile@@QEAAXPEBD000@Z DD 040021H
	DD	06de400H
	DD	06fc400H
	DD	imagerel $LN776+11
	DD	imagerel $LN776+19
	DD	imagerel $chain$1$?w_string@CInifile@@QEAAXPEBD000@Z
$chain$8$?w_string@CInifile@@QEAAXPEBD000@Z DD 020021H
	DD	0735400H
	DD	imagerel $LN776
	DD	imagerel $LN776+11
	DD	imagerel $unwind$?w_string@CInifile@@QEAAXPEBD000@Z
$chain$9$?w_string@CInifile@@QEAAXPEBD000@Z DD 021H
	DD	imagerel $LN776
	DD	imagerel $LN776+11
	DD	imagerel $unwind$?w_string@CInifile@@QEAAXPEBD000@Z
; Function compile flags: /Ogtpy
; File c:\users\nummer\documents\github\olr-3.0\src\xray\xrcore\xr_ini.cpp
xdata	ENDS
_TEXT	SEGMENT
sect$ = 96
line$ = 352
value$ = 608
this$ = 912
S$ = 920
L$ = 928
V$ = 936
comment$ = 944
?w_string@CInifile@@QEAAXPEBD000@Z PROC			; CInifile::w_string

; 504  : {

$LN776:
	mov	rax, rsp
	push	rsi
	sub	rsp, 896				; 00000380H
	mov	QWORD PTR [rax+8], rbx
	mov	QWORD PTR [rax+16], rbp
	mov	QWORD PTR [rax+24], rdi
	mov	QWORD PTR [rax-16], r12
	mov	QWORD PTR [rax-24], r13
	mov	QWORD PTR [rax-32], r14

; 505  : 	R_ASSERT	(!bReadOnly);

	xor	r14d, r14d
	mov	r12, r9
	mov	r13, r8
	cmp	BYTE PTR ?ignore_always@?3??w_string@CInifile@@QEAAXPEBD000@Z@4_NA, r14b
	mov	rbx, rdx
	mov	rbp, rcx
	jne	SHORT $LN8@w_string
	cmp	DWORD PTR [rcx+48], r14d
	je	SHORT $LN8@w_string
	lea	rax, OFFSET FLAT:?ignore_always@?3??w_string@CInifile@@QEAAXPEBD000@Z@4_NA
	lea	r8, OFFSET FLAT:??_C@_0L@MCBJLICI@?$CBbReadOnly?$AA@
	lea	rdx, OFFSET FLAT:??_C@_0BB@DBHFCHNO@assertion?5failed?$AA@
	mov	QWORD PTR [rsp+64], rax
	lea	rax, OFFSET FLAT:??_C@_0BD@HEABFKIK@CInifile?3?3w_string?$AA@
	lea	rcx, OFFSET FLAT:?Debug@@3VxrDebug@@A	; Debug
	mov	QWORD PTR [rsp+56], rax
	lea	rax, OFFSET FLAT:??_C@_0L@BOCIKDOE@Xr_ini?4cpp?$AA@
	mov	DWORD PTR [rsp+48], 505			; 000001f9H
	mov	QWORD PTR [rsp+40], rax
	xor	r9d, r9d
	mov	QWORD PTR [rsp+32], r14
	call	?backend@xrDebug@@QEAAXPEBD0000H0AEA_N@Z ; xrDebug::backend
$LN8@w_string:

; 506  : 
; 507  : 	// section
; 508  : 	char	sect	[256];
; 509  : 	_parse	(sect,S);

	lea	rcx, QWORD PTR sect$[rsp]
	mov	rdx, rbx
	call	?_parse@@YAXPEADPEBD@Z			; _parse

; 510  : 	_strlwr	(sect);

	lea	rcx, QWORD PTR sect$[rsp]
	call	QWORD PTR __imp__strlwr

; 511  : 	if (!section_exist(sect))	{

	lea	rdx, QWORD PTR sect$[rsp]
	mov	rcx, rbp
	call	?section_exist@CInifile@@QEAAHPEBD@Z	; CInifile::section_exist
	test	eax, eax
	jne	$LN223@w_string

; 512  : 		// create _new_ section
; 513  : 		Sect			*NEW = xr_new<Sect>();

	lea	edx, QWORD PTR [rax+40]
	lea	rcx, OFFSET FLAT:?Memory@@3VxrMemory@@A	; Memory
	call	?mem_alloc@xrMemory@@QEAAPEAX_K@Z	; xrMemory::mem_alloc
	mov	rbx, rax
	test	rax, rax
	je	SHORT $LN16@w_string
	mov	QWORD PTR [rax], r14
	mov	QWORD PTR [rax+8], r14
	mov	QWORD PTR [rax+16], r14
	mov	QWORD PTR [rax+24], r14
	jmp	SHORT $LN17@w_string
$LN16@w_string:
	mov	rbx, r14
$LN17@w_string:

; 514  : 		NEW->Name		= sect;

	mov	rcx, QWORD PTR ?g_pStringContainer@@3PEAVstr_container@@EA ; g_pStringContainer
	lea	rdx, QWORD PTR sect$[rsp]
	call	?dock@str_container@@QEAAPEAUstr_value@@PEBD@Z ; str_container::dock
	test	rax, rax
	je	SHORT $LN36@w_string
	inc	DWORD PTR [rax]
$LN36@w_string:
	mov	rcx, QWORD PTR [rbx]
	test	rcx, rcx
	je	SHORT $LN39@w_string
	dec	DWORD PTR [rcx]
	mov	rcx, QWORD PTR [rbx]
	cmp	DWORD PTR [rcx], r14d
	mov	rdx, rcx
	cmove	rdx, r14
	mov	QWORD PTR [rbx], rdx
$LN39@w_string:
	mov	QWORD PTR [rbx], rax

; 515  : 		RootIt I		= std::lower_bound(DATA.begin(),DATA.end(),sect,sect_pred);

	mov	r8, QWORD PTR [rbp+24]
	mov	rdi, QWORD PTR [rbp+16]
	sub	r8, rdi
	sar	r8, 3
	test	r8, r8
	jle	SHORT $LN73@w_string
$LL74@w_string:
	mov	rax, r8
	cdq
	sub	rax, rdx
	sar	rax, 1
	mov	r10, rax
	lea	r11, QWORD PTR [rdi+rax*8]
	mov	rcx, QWORD PTR [r11]
	mov	rcx, QWORD PTR [rcx]
	test	rcx, rcx
	je	SHORT $LN93@w_string
	add	rcx, 12
	jmp	SHORT $LN94@w_string
$LN93@w_string:
	mov	rcx, r14
$LN94@w_string:
	lea	r9, QWORD PTR sect$[rsp]
	sub	r9, rcx
	npad	2
$LL761@w_string:
	movzx	edx, BYTE PTR [rcx]
	movzx	eax, BYTE PTR [rcx+r9]
	sub	edx, eax
	jne	SHORT $LN762@w_string
	inc	rcx
	test	eax, eax
	jne	SHORT $LL761@w_string
$LN762@w_string:
	test	edx, edx
	jns	SHORT $LN72@w_string
	or	rax, -1
	lea	rdi, QWORD PTR [r11+8]
	sub	rax, r10
	add	r8, rax
	jmp	SHORT $LN71@w_string
$LN72@w_string:
	mov	r8, r10
$LN71@w_string:
	test	r8, r8
	jg	SHORT $LL74@w_string
$LN73@w_string:

; 516  : 		DATA.insert		(I,NEW);

	sub	rdi, QWORD PTR [rbp+16]
	mov	rax, QWORD PTR [rbp+32]
	sar	rdi, 3
	cmp	QWORD PTR [rbp+24], rax
	jne	SHORT $LN109@w_string
	lea	rcx, QWORD PTR [rbp+16]
	call	?_Reserve@?$vector@PEAUSect@CInifile@@V?$xalloc@PEAUSect@CInifile@@@@@std@@IEAAX_K@Z ; std::vector<CInifile::Sect * __ptr64,xalloc<CInifile::Sect * __ptr64> >::_Reserve
$LN109@w_string:
	mov	rax, QWORD PTR [rbp+24]
	test	rax, rax
	je	SHORT $LN124@w_string
	mov	QWORD PTR [rax], rbx
$LN124@w_string:
	add	QWORD PTR [rbp+24], 8
	mov	rax, QWORD PTR [rbp+16]
	mov	r8, QWORD PTR [rbp+24]
	lea	rdx, QWORD PTR [r8-8]
	lea	rcx, QWORD PTR [rax+rdi*8]
	cmp	rcx, rdx
	je	SHORT $LN223@w_string
	cmp	rdx, r8
	je	SHORT $LN223@w_string
	call	??$_Rotate@PEAPEAUSect@CInifile@@_JPEAU12@@std@@YAXPEAPEAUSect@CInifile@@00PEA_J0@Z ; std::_Rotate<CInifile::Sect * __ptr64 * __ptr64,__int64,CInifile::Sect * __ptr64>
$LN223@w_string:

; 517  : 	}
; 518  : 
; 519  : 	// parse line/value
; 520  : 	char	line	[256];	_parse	(line,L);

	lea	rcx, QWORD PTR line$[rsp]
	mov	rdx, r13
	call	?_parse@@YAXPEADPEBD@Z			; _parse

; 521  : 	char	value	[256];	_parse	(value,V);

	lea	rcx, QWORD PTR value$[rsp]
	mov	rdx, r12
	call	?_parse@@YAXPEADPEBD@Z			; _parse

; 522  : 
; 523  : 	// duplicate & insert
; 524  : 	Item	I;

	mov	rcx, QWORD PTR ?g_pStringContainer@@3PEAVstr_container@@EA ; g_pStringContainer
	xor	edx, edx
	call	?dock@str_container@@QEAAPEAUstr_value@@PEBD@Z ; str_container::dock
	mov	rdi, rax
	test	rax, rax
	je	SHORT $LN246@w_string
	inc	DWORD PTR [rax]
$LN246@w_string:
	mov	rcx, QWORD PTR ?g_pStringContainer@@3PEAVstr_container@@EA ; g_pStringContainer
	xor	edx, edx
	call	?dock@str_container@@QEAAPEAUstr_value@@PEBD@Z ; str_container::dock
	mov	rbx, rax
	test	rax, rax
	je	SHORT $LN252@w_string
	inc	DWORD PTR [rax]
$LN252@w_string:

; 525  : 	Sect&	data	= r_section	(sect);

	lea	rdx, QWORD PTR sect$[rsp]
	mov	rcx, rbp
	call	?r_section@CInifile@@QEAAAEAUSect@1@PEBD@Z ; CInifile::r_section

; 526  : 	I.first			= (line[0]?line:0);

	cmp	BYTE PTR line$[rsp], r14b
	mov	rcx, QWORD PTR ?g_pStringContainer@@3PEAVstr_container@@EA ; g_pStringContainer
	lea	rdx, QWORD PTR line$[rsp]
	mov	r12, rax
	cmove	rdx, r14
	call	?dock@str_container@@QEAAPEAUstr_value@@PEBD@Z ; str_container::dock
	mov	rsi, rax
	test	rax, rax
	je	SHORT $LN261@w_string
	inc	DWORD PTR [rax]
$LN261@w_string:
	test	rdi, rdi
	je	SHORT $LN264@w_string
	dec	DWORD PTR [rdi]
$LN264@w_string:

; 527  : 	I.second		= (value[0]?value:0);

	cmp	BYTE PTR value$[rsp], r14b
	mov	rcx, QWORD PTR ?g_pStringContainer@@3PEAVstr_container@@EA ; g_pStringContainer
	lea	rdx, QWORD PTR value$[rsp]
	cmove	rdx, r14
	call	?dock@str_container@@QEAAPEAUstr_value@@PEBD@Z ; str_container::dock
	mov	rbp, rax
	test	rax, rax
	je	SHORT $LN270@w_string
	inc	DWORD PTR [rax]
$LN270@w_string:
	test	rbx, rbx
	je	SHORT $LN273@w_string
	dec	DWORD PTR [rbx]
$LN273@w_string:

; 528  : #ifdef DEBUG
; 529  : 	I.comment		= (comment?comment:0);
; 530  : #endif
; 531  : 	SectIt_	it		= std::lower_bound(data.Data.begin(),data.Data.end(),*I.first,item_pred);

	mov	QWORD PTR [rsp+864], r15
	lea	r15, QWORD PTR [rsi+12]
	test	rsi, rsi
	jne	SHORT $LN280@w_string
	mov	r15, r14
$LN280@w_string:
	mov	rdi, QWORD PTR [r12+16]
	mov	rbx, QWORD PTR [r12+8]
	sub	rdi, rbx
	sar	rdi, 4
	test	rdi, rdi
	jle	$LN311@w_string
	npad	6
$LL312@w_string:
	mov	rax, rdi
	cdq
	sub	rax, rdx
	sar	rax, 1
	mov	r13, rax
	mov	r14, rax
	add	r13, r13
	mov	rcx, QWORD PTR [rbx+r13*8]
	test	rcx, rcx
	je	SHORT $LN328@w_string
	test	r15, r15
	je	SHORT $LN328@w_string
	add	rcx, 12
	mov	r8, r15
	sub	r8, rcx
	npad	4
$LL759@w_string:
	movzx	edx, BYTE PTR [rcx]
	movzx	eax, BYTE PTR [rcx+r8]
	sub	edx, eax
	jne	SHORT $LN760@w_string
	inc	rcx
	test	eax, eax
	jne	SHORT $LL759@w_string
$LN760@w_string:
	test	edx, edx
	sets	cl
	jmp	SHORT $LN351@w_string
$LN328@w_string:
	mov	rcx, QWORD PTR ?g_pStringContainer@@3PEAVstr_container@@EA ; g_pStringContainer
	mov	rdx, r15
	call	?dock@str_container@@QEAAPEAUstr_value@@PEBD@Z ; str_container::dock
	test	rax, rax
	je	SHORT $LN339@w_string
	inc	DWORD PTR [rax]
$LN339@w_string:
	cmp	QWORD PTR [rbx+r13*8], rax
	setb	cl
	test	rax, rax
	je	SHORT $LN351@w_string
	dec	DWORD PTR [rax]
$LN351@w_string:
	test	cl, cl
	je	SHORT $LN310@w_string
	or	rax, -1
	lea	rbx, QWORD PTR [rbx+r13*8+16]
	sub	rax, r14
	add	rdi, rax
	jmp	SHORT $LN309@w_string
$LN310@w_string:
	mov	rdi, r14
$LN309@w_string:
	test	rdi, rdi
	jg	$LL312@w_string
	xor	r14d, r14d
$LN311@w_string:

; 532  : 
; 533  :     if (it != data.Data.end()) {

	mov	r15, QWORD PTR [rsp+864]
	mov	r13, QWORD PTR [rsp+880]
	mov	rdi, QWORD PTR [rsp+928]
	mov	rax, r12
	cmp	rbx, QWORD PTR [rax+16]
	je	$LN4@w_string

; 534  : 	    // Check for "first" matching
; 535  :     	if (0==xr_strcmp(*it->first,*I.first)) {

	lea	r8, QWORD PTR [rsi+12]
	test	rsi, rsi
	jne	SHORT $LN389@w_string
	mov	r8, r14
$LN389@w_string:
	mov	rax, QWORD PTR [rbx]
	test	rax, rax
	je	SHORT $LN394@w_string
	add	rax, 12
	jmp	SHORT $LN395@w_string
$LN394@w_string:
	mov	rax, r14
$LN395@w_string:
	sub	r8, rax
	npad	9
$LL757@w_string:
	movzx	edx, BYTE PTR [rax]
	movzx	ecx, BYTE PTR [rax+r8]
	sub	edx, ecx
	jne	SHORT $LN758@w_string
	inc	rax
	test	ecx, ecx
	jne	SHORT $LL757@w_string
$LN758@w_string:
	test	edx, edx
	jne	SHORT $LN4@w_string

; 536  :             *it  = I;

	test	rsi, rsi
	je	SHORT $LN409@w_string
	inc	DWORD PTR [rsi]
$LN409@w_string:
	mov	rax, QWORD PTR [rbx]
	test	rax, rax
	je	SHORT $LN412@w_string
	dec	DWORD PTR [rax]
	mov	rax, QWORD PTR [rbx]
	cmp	DWORD PTR [rax], 0
	mov	rcx, rax
	cmove	rcx, r14
	mov	QWORD PTR [rbx], rcx
$LN412@w_string:
	mov	QWORD PTR [rbx], rsi
	test	rbp, rbp
	je	SHORT $LN418@w_string
	inc	DWORD PTR [rbp]
$LN418@w_string:
	mov	rax, QWORD PTR [rbx+8]
	test	rax, rax
	je	SHORT $LN421@w_string
	dec	DWORD PTR [rax]
	mov	rax, QWORD PTR [rbx+8]
	cmp	DWORD PTR [rax], 0
	mov	rcx, rax
	cmove	rcx, r14
	mov	QWORD PTR [rbx+8], rcx
$LN421@w_string:
	mov	QWORD PTR [rbx+8], rbp

; 537  :         } else {

	jmp	$LN725@w_string
$LN4@w_string:

; 538  : 			data.Data.insert(it,I);
; 539  :         }
; 540  :     } else {
; 541  : 		data.Data.insert(it,I);

	mov	rax, QWORD PTR [r12+24]
	sub	rbx, QWORD PTR [r12+8]
	cmp	QWORD PTR [r12+16], rax
	jne	SHORT $LN591@w_string
	lea	rcx, QWORD PTR [r12+8]
	call	?_Reserve@?$vector@UItem@CInifile@@V?$xalloc@UItem@CInifile@@@@@std@@IEAAX_K@Z ; std::vector<CInifile::Item,xalloc<CInifile::Item> >::_Reserve
$LN591@w_string:
	mov	rdx, QWORD PTR [r12+16]
	test	rdx, rdx
	je	SHORT $LN606@w_string
	mov	QWORD PTR [rdx], r14
	test	rsi, rsi
	je	SHORT $LN616@w_string
	inc	DWORD PTR [rsi]
$LN616@w_string:
	mov	rax, QWORD PTR [rdx]
	test	rax, rax
	je	SHORT $LN619@w_string
	dec	DWORD PTR [rax]
	mov	rax, QWORD PTR [rdx]
	cmp	DWORD PTR [rax], 0
	mov	rcx, rax
	cmove	rcx, r14
	mov	QWORD PTR [rdx], rcx
$LN619@w_string:
	mov	QWORD PTR [rdx], rsi
	mov	QWORD PTR [rdx+8], r14
	test	rbp, rbp
	je	SHORT $LN625@w_string
	inc	DWORD PTR [rbp]
$LN625@w_string:
	mov	rax, QWORD PTR [rdx+8]
	test	rax, rax
	je	SHORT $LN628@w_string
	dec	DWORD PTR [rax]
	mov	rax, QWORD PTR [rdx+8]
	cmp	DWORD PTR [rax], 0
	mov	rcx, rax
	cmove	rcx, r14
	mov	QWORD PTR [rdx+8], rcx
$LN628@w_string:
	mov	QWORD PTR [rdx+8], rbp
$LN606@w_string:
	add	QWORD PTR [r12+16], 16
	mov	r8, QWORD PTR [r12+16]
	and	rbx, -16
	add	rbx, QWORD PTR [r12+8]
	lea	rdx, QWORD PTR [r8-16]
	cmp	rbx, rdx
	je	SHORT $LN725@w_string
	cmp	rdx, r8
	je	SHORT $LN725@w_string
	mov	rcx, rbx
	call	??$_Rotate@PEAUItem@CInifile@@_JU12@@std@@YAXPEAUItem@CInifile@@00PEA_J0@Z ; std::_Rotate<CInifile::Item * __ptr64,__int64,CInifile::Item>
$LN725@w_string:

; 542  :     }
; 543  : }

	mov	r14, QWORD PTR [rsp+872]
	mov	r12, QWORD PTR [rsp+888]
	mov	rbx, QWORD PTR [rsp+912]
	test	rbp, rbp
	je	SHORT $LN745@w_string
	dec	DWORD PTR [rbp]
$LN745@w_string:
	mov	rbp, QWORD PTR [rsp+920]
	test	rsi, rsi
	je	SHORT $LN751@w_string
	dec	DWORD PTR [rsi]
$LN751@w_string:
	add	rsp, 896				; 00000380H
	pop	rsi
	ret	0
?w_string@CInifile@@QEAAXPEBD000@Z ENDP			; CInifile::w_string
_TEXT	ENDS
PUBLIC	?r_line@CInifile@@QEAAHAEBVshared_str@@HPEAPEBD1@Z ; CInifile::r_line
pdata	SEGMENT
$pdata$?r_line@CInifile@@QEAAHAEBVshared_str@@HPEAPEBD1@Z DD imagerel $LN70
	DD	imagerel $LN70+177
	DD	imagerel $unwind$?r_line@CInifile@@QEAAHAEBVshared_str@@HPEAPEBD1@Z
pdata	ENDS
xdata	SEGMENT
$unwind$?r_line@CInifile@@QEAAHAEBVshared_str@@HPEAPEBD1@Z DD 060f01H
	DD	07640fH
	DD	06340fH
	DD	0700b320fH
; Function compile flags: /Ogtpy
xdata	ENDS
_TEXT	SEGMENT
this$ = 48
S$ = 56
L$ = 64
N$ = 72
V$ = 80
?r_line@CInifile@@QEAAHAEBVshared_str@@HPEAPEBD1@Z PROC	; CInifile::r_line

; 496  : {

$LN70:
	mov	QWORD PTR [rsp+8], rbx
	mov	QWORD PTR [rsp+16], rsi
	push	rdi
	sub	rsp, 32					; 00000020H

; 497  : 	return r_line(*S,L,N,V);

	mov	rdx, QWORD PTR [rdx]
	xor	edi, edi
	mov	rsi, r9
	mov	ebx, r8d
	test	rdx, rdx
	je	SHORT $LN5@r_line@2
	add	rdx, 12
	jmp	SHORT $LN6@r_line@2
$LN5@r_line@2:
	mov	rdx, rdi
$LN6@r_line@2:
	call	?r_section@CInifile@@QEAAAEAUSect@1@PEBD@Z ; CInifile::r_section
	mov	rcx, QWORD PTR [rax+16]
	sub	rcx, QWORD PTR [rax+8]
	sar	rcx, 4
	cmp	ebx, ecx
	jge	SHORT $LN11@r_line@2
	test	ebx, ebx
	js	SHORT $LN11@r_line@2
	mov	rcx, QWORD PTR [rax+8]
	mov	rdx, QWORD PTR [rax+16]
	cmp	rcx, rdx
	je	SHORT $LN11@r_line@2
	npad	2
$LL29@r_line@2:
	mov	eax, ebx
	dec	ebx
	test	eax, eax
	je	SHORT $LN68@r_line@2
	add	rcx, 16
	cmp	rcx, rdx
	jne	SHORT $LL29@r_line@2
$LN11@r_line@2:
	mov	eax, edi

; 498  : }

	mov	rbx, QWORD PTR [rsp+48]
	mov	rsi, QWORD PTR [rsp+56]
	add	rsp, 32					; 00000020H
	pop	rdi
	ret	0
$LN68@r_line@2:

; 497  : 	return r_line(*S,L,N,V);

	mov	rax, QWORD PTR [rcx]
	test	rax, rax
	je	SHORT $LN54@r_line@2
	add	rax, 12
	jmp	SHORT $LN55@r_line@2
$LN54@r_line@2:
	mov	rax, rdi
$LN55@r_line@2:
	mov	QWORD PTR [rsi], rax
	mov	rax, QWORD PTR [rcx+8]
	test	rax, rax
	je	SHORT $LN65@r_line@2
	lea	rdi, QWORD PTR [rax+12]
$LN65@r_line@2:
	mov	rax, QWORD PTR V$[rsp]

; 498  : }

	mov	rbx, QWORD PTR [rsp+48]
	mov	rsi, QWORD PTR [rsp+56]
	mov	QWORD PTR [rax], rdi
	mov	eax, 1
	add	rsp, 32					; 00000020H
	pop	rdi
	ret	0
?r_line@CInifile@@QEAAHAEBVshared_str@@HPEAPEBD1@Z ENDP	; CInifile::r_line
_TEXT	ENDS
PUBLIC	?r_token@CInifile@@QEAAHPEBD0PEBUxr_token@@@Z	; CInifile::r_token
pdata	SEGMENT
$pdata$?r_token@CInifile@@QEAAHPEBD0PEBUxr_token@@@Z DD imagerel $LN10
	DD	imagerel $LN10+120
	DD	imagerel $unwind$?r_token@CInifile@@QEAAHPEBD0PEBUxr_token@@@Z
pdata	ENDS
xdata	SEGMENT
$unwind$?r_token@CInifile@@QEAAHPEBD0PEBUxr_token@@@Z DD 081401H
	DD	086414H
	DD	075414H
	DD	063414H
	DD	070103214H
; Function compile flags: /Ogtpy
xdata	ENDS
_TEXT	SEGMENT
this$ = 48
S$ = 56
L$ = 64
token_list$ = 72
?r_token@CInifile@@QEAAHPEBD0PEBUxr_token@@@Z PROC	; CInifile::r_token

; 476  : {

$LN10:
	mov	QWORD PTR [rsp+8], rbx
	mov	QWORD PTR [rsp+16], rbp
	mov	QWORD PTR [rsp+24], rsi
	push	rdi
	sub	rsp, 32					; 00000020H
	mov	rsi, r9

; 477  : 	LPCSTR		C = r_string(S,L);

	call	?r_string@CInifile@@QEAAPEBDPEBD0@Z	; CInifile::r_string

; 478  : 	for( int i=0; token_list[i].name; i++ )

	xor	edi, edi
	mov	ebx, edi
	mov	rbp, rax
	cmp	QWORD PTR [rsi], rbx
	je	SHORT $LN2@r_token
	mov	rcx, rsi
	npad	5
$LL4@r_token:

; 479  : 		if( !stricmp(C,token_list[i].name) )

	mov	rdx, QWORD PTR [rcx]
	mov	rcx, rbp
	call	QWORD PTR __imp_stricmp
	test	eax, eax
	je	SHORT $LN8@r_token

; 478  : 	for( int i=0; token_list[i].name; i++ )

	inc	rbx
	inc	edi
	mov	rcx, rbx
	shl	rcx, 4
	add	rcx, rsi
	cmp	QWORD PTR [rcx], 0
	jne	SHORT $LL4@r_token
$LN2@r_token:

; 481  : 	return 0;

	xor	eax, eax
$LN5@r_token:

; 482  : }

	mov	rbx, QWORD PTR [rsp+48]
	mov	rbp, QWORD PTR [rsp+56]
	mov	rsi, QWORD PTR [rsp+64]
	add	rsp, 32					; 00000020H
	pop	rdi
	ret	0
$LN8@r_token:

; 480  : 			return token_list[i].id;

	movsxd	rax, edi
	add	rax, rax
	mov	eax, DWORD PTR [rsi+rax*8+8]
	jmp	SHORT $LN5@r_token
?r_token@CInifile@@QEAAHPEBD0PEBUxr_token@@@Z ENDP	; CInifile::r_token
_TEXT	ENDS
PUBLIC	?r_clsid@CInifile@@QEAA_KPEBD0@Z		; CInifile::r_clsid
pdata	SEGMENT
$pdata$?r_clsid@CInifile@@QEAA_KPEBD0@Z DD imagerel $LN3
	DD	imagerel $LN3+21
	DD	imagerel $unwind$?r_clsid@CInifile@@QEAA_KPEBD0@Z
pdata	ENDS
xdata	SEGMENT
$unwind$?r_clsid@CInifile@@QEAA_KPEBD0@Z DD 010401H
	DD	04204H
; Function compile flags: /Ogtpy
xdata	ENDS
_TEXT	SEGMENT
this$ = 48
S$ = 56
L$ = 64
?r_clsid@CInifile@@QEAA_KPEBD0@Z PROC			; CInifile::r_clsid

; 471  : {

$LN3:
	sub	rsp, 40					; 00000028H

; 472  : 	LPCSTR		C = r_string(S,L);

	call	?r_string@CInifile@@QEAAPEBDPEBD0@Z	; CInifile::r_string

; 473  : 	return		TEXT2CLSID(C);

	mov	rcx, rax

; 474  : }

	add	rsp, 40					; 00000028H
	jmp	?TEXT2CLSID@@YA_KPEBD@Z			; TEXT2CLSID
?r_clsid@CInifile@@QEAA_KPEBD0@Z ENDP			; CInifile::r_clsid
_TEXT	ENDS
PUBLIC	?r_bool@CInifile@@QEAAHPEBD0@Z			; CInifile::r_bool
pdata	SEGMENT
$pdata$?r_bool@CInifile@@QEAAHPEBD0@Z DD imagerel $LN15
	DD	imagerel $LN15+159
	DD	imagerel $unwind$?r_bool@CInifile@@QEAAHPEBD0@Z
pdata	ENDS
xdata	SEGMENT
$unwind$?r_bool@CInifile@@QEAAHPEBD0@Z DD 040a01H
	DD	06640aH
	DD	07006320aH
; Function compile flags: /Ogtpy
xdata	ENDS
_TEXT	SEGMENT
this$ = 48
S$ = 56
L$ = 64
B$ = 72
?r_bool@CInifile@@QEAAHPEBD0@Z PROC			; CInifile::r_bool

; 463  : {

$LN15:
	mov	QWORD PTR [rsp+8], rsi
	push	rdi
	sub	rsp, 32					; 00000020H

; 464  : 	LPCSTR		C = r_string(S,L);

	call	?r_string@CInifile@@QEAAPEBDPEBD0@Z	; CInifile::r_string

; 465  : 	char		B[8];
; 466  : 	strncpy		(B,C,7);

	lea	rcx, QWORD PTR B$[rsp]
	mov	r8d, 7
	mov	rdx, rax
	call	QWORD PTR __imp_strncpy

; 467  : 	strlwr		(B);

	lea	rcx, QWORD PTR B$[rsp]
	call	QWORD PTR __imp_strlwr

; 468  :     return 		IsBOOL(B);

	lea	rsi, QWORD PTR B$[rsp]
	lea	rdi, OFFSET FLAT:??_C@_02LIELOMNJ@on?$AA@
	mov	ecx, 3
	repe cmpsb
	je	SHORT $LN5@r_bool
	lea	rsi, QWORD PTR B$[rsp]
	lea	rdi, OFFSET FLAT:??_C@_03ICICOMAL@yes?$AA@
	mov	ecx, 4
	repe cmpsb
	je	SHORT $LN5@r_bool
	lea	rsi, QWORD PTR B$[rsp]
	lea	rdi, OFFSET FLAT:??_C@_04LOAJBDKD@true?$AA@
	mov	ecx, 5
	repe cmpsb
	je	SHORT $LN5@r_bool
	lea	rsi, QWORD PTR B$[rsp]
	lea	rdi, OFFSET FLAT:??_C@_01HIHLOKLC@1?$AA@
	mov	ecx, 2
	repe cmpsb
	je	SHORT $LN5@r_bool
	xor	eax, eax

; 469  : }

	mov	rsi, QWORD PTR [rsp+48]
	add	rsp, 32					; 00000020H
	pop	rdi
	ret	0

; 468  :     return 		IsBOOL(B);

$LN5@r_bool:
	mov	eax, 1

; 469  : }

	mov	rsi, QWORD PTR [rsp+48]
	add	rsp, 32					; 00000020H
	pop	rdi
	ret	0
?r_bool@CInifile@@QEAAHPEBD0@Z ENDP			; CInifile::r_bool
_TEXT	ENDS
PUBLIC	?r_fvector4@CInifile@@QEAA?AU?$_vector4@M@@PEBD0@Z ; CInifile::r_fvector4
pdata	SEGMENT
$pdata$?r_fvector4@CInifile@@QEAA?AU?$_vector4@M@@PEBD0@Z DD imagerel $LN3
	DD	imagerel $LN3+85
	DD	imagerel $unwind$?r_fvector4@CInifile@@QEAA?AU?$_vector4@M@@PEBD0@Z
pdata	ENDS
xdata	SEGMENT
$unwind$?r_fvector4@CInifile@@QEAA?AU?$_vector4@M@@PEBD0@Z DD 020601H
	DD	030025206H
; Function compile flags: /Ogtpy
xdata	ENDS
_TEXT	SEGMENT
this$ = 64
__$ReturnUdt$ = 72
S$ = 80
L$ = 88
?r_fvector4@CInifile@@QEAA?AU?$_vector4@M@@PEBD0@Z PROC	; CInifile::r_fvector4

; 456  : {

$LN3:
	push	rbx
	sub	rsp, 48					; 00000030H
	mov	rax, r8
	mov	rbx, rdx

; 457  : 	LPCSTR		C = r_string(S,L);

	mov	r8, r9
	mov	rdx, rax
	call	?r_string@CInifile@@QEAAPEBDPEBD0@Z	; CInifile::r_string

; 458  : 	Fvector4	V={0.f,0.f,0.f,0.f};

	xor	edx, edx
	lea	r8, QWORD PTR [rbx+8]
	lea	rcx, QWORD PTR [rbx+12]
	mov	DWORD PTR [r8], edx
	lea	r9, QWORD PTR [rbx+4]
	mov	DWORD PTR [rcx], edx

; 459  : 	sscanf		(C,"%f,%f,%f,%f",&V.x,&V.y,&V.z,&V.w);

	mov	QWORD PTR [rsp+40], rcx
	mov	DWORD PTR [r9], edx
	mov	DWORD PTR [rbx], edx
	mov	QWORD PTR [rsp+32], r8
	lea	rdx, OFFSET FLAT:??_C@_0M@JJJBFJKB@?$CFf?0?$CFf?0?$CFf?0?$CFf?$AA@
	mov	r8, rbx
	mov	rcx, rax
	call	QWORD PTR __imp_sscanf

; 460  : 	return V;

	mov	rax, rbx

; 461  : }

	add	rsp, 48					; 00000030H
	pop	rbx
	ret	0
?r_fvector4@CInifile@@QEAA?AU?$_vector4@M@@PEBD0@Z ENDP	; CInifile::r_fvector4
_TEXT	ENDS
PUBLIC	?r_fvector3@CInifile@@QEAA?AU?$_vector3@M@@PEBD0@Z ; CInifile::r_fvector3
pdata	SEGMENT
$pdata$?r_fvector3@CInifile@@QEAA?AU?$_vector3@M@@PEBD0@Z DD imagerel $LN3
	DD	imagerel $LN3+73
	DD	imagerel $unwind$?r_fvector3@CInifile@@QEAA?AU?$_vector3@M@@PEBD0@Z
pdata	ENDS
xdata	SEGMENT
$unwind$?r_fvector3@CInifile@@QEAA?AU?$_vector3@M@@PEBD0@Z DD 020601H
	DD	030025206H
; Function compile flags: /Ogtpy
xdata	ENDS
_TEXT	SEGMENT
this$ = 64
__$ReturnUdt$ = 72
S$ = 80
L$ = 88
?r_fvector3@CInifile@@QEAA?AU?$_vector3@M@@PEBD0@Z PROC	; CInifile::r_fvector3

; 449  : {

$LN3:
	push	rbx
	sub	rsp, 48					; 00000030H
	mov	rax, r8
	mov	rbx, rdx

; 450  : 	LPCSTR		C = r_string(S,L);

	mov	r8, r9
	mov	rdx, rax
	call	?r_string@CInifile@@QEAAPEBDPEBD0@Z	; CInifile::r_string

; 451  : 	Fvector3	V={0.f,0.f,0.f};

	xor	edx, edx
	lea	rcx, QWORD PTR [rbx+8]
	mov	DWORD PTR [rcx], edx
	lea	r9, QWORD PTR [rbx+4]
	mov	DWORD PTR [rbx], edx
	mov	DWORD PTR [r9], edx

; 452  : 	sscanf		(C,"%f,%f,%f",&V.x,&V.y,&V.z);

	mov	QWORD PTR [rsp+32], rcx
	lea	rdx, OFFSET FLAT:??_C@_08GJNPJIKN@?$CFf?0?$CFf?0?$CFf?$AA@
	mov	r8, rbx
	mov	rcx, rax
	call	QWORD PTR __imp_sscanf

; 453  : 	return V;

	mov	rax, rbx

; 454  : }

	add	rsp, 48					; 00000030H
	pop	rbx
	ret	0
?r_fvector3@CInifile@@QEAA?AU?$_vector3@M@@PEBD0@Z ENDP	; CInifile::r_fvector3
_TEXT	ENDS
PUBLIC	?r_fvector2@CInifile@@QEAA?AU?$_vector2@M@@PEBD0@Z ; CInifile::r_fvector2
pdata	SEGMENT
$pdata$?r_fvector2@CInifile@@QEAA?AU?$_vector2@M@@PEBD0@Z DD imagerel $LN3
	DD	imagerel $LN3+62
	DD	imagerel $unwind$?r_fvector2@CInifile@@QEAA?AU?$_vector2@M@@PEBD0@Z
pdata	ENDS
xdata	SEGMENT
$unwind$?r_fvector2@CInifile@@QEAA?AU?$_vector2@M@@PEBD0@Z DD 020601H
	DD	030023206H
; Function compile flags: /Ogtpy
xdata	ENDS
_TEXT	SEGMENT
this$ = 48
__$ReturnUdt$ = 56
S$ = 64
L$ = 72
?r_fvector2@CInifile@@QEAA?AU?$_vector2@M@@PEBD0@Z PROC	; CInifile::r_fvector2

; 442  : {

$LN3:
	push	rbx
	sub	rsp, 32					; 00000020H
	mov	rax, r8
	mov	rbx, rdx

; 443  : 	LPCSTR		C = r_string(S,L);

	mov	r8, r9
	mov	rdx, rax
	call	?r_string@CInifile@@QEAAPEBDPEBD0@Z	; CInifile::r_string

; 444  : 	Fvector2	V={0.f,0.f};

	xor	ecx, ecx
	lea	r9, QWORD PTR [rbx+4]
	mov	DWORD PTR [rbx], ecx
	mov	DWORD PTR [r9], ecx

; 445  : 	sscanf		(C,"%f,%f",&V.x,&V.y);

	lea	rdx, OFFSET FLAT:??_C@_05OIOLBAJI@?$CFf?0?$CFf?$AA@
	mov	rcx, rax
	mov	r8, rbx
	call	QWORD PTR __imp_sscanf

; 446  : 	return V;

	mov	rax, rbx

; 447  : }

	add	rsp, 32					; 00000020H
	pop	rbx
	ret	0
?r_fvector2@CInifile@@QEAA?AU?$_vector2@M@@PEBD0@Z ENDP	; CInifile::r_fvector2
_TEXT	ENDS
PUBLIC	?r_ivector4@CInifile@@QEAA?AU?$_vector4@H@@PEBD0@Z ; CInifile::r_ivector4
pdata	SEGMENT
$pdata$?r_ivector4@CInifile@@QEAA?AU?$_vector4@H@@PEBD0@Z DD imagerel $LN3
	DD	imagerel $LN3+85
	DD	imagerel $unwind$?r_ivector4@CInifile@@QEAA?AU?$_vector4@H@@PEBD0@Z
pdata	ENDS
xdata	SEGMENT
$unwind$?r_ivector4@CInifile@@QEAA?AU?$_vector4@H@@PEBD0@Z DD 020601H
	DD	030025206H
; Function compile flags: /Ogtpy
xdata	ENDS
_TEXT	SEGMENT
this$ = 64
__$ReturnUdt$ = 72
S$ = 80
L$ = 88
?r_ivector4@CInifile@@QEAA?AU?$_vector4@H@@PEBD0@Z PROC	; CInifile::r_ivector4

; 435  : {

$LN3:
	push	rbx
	sub	rsp, 48					; 00000030H
	mov	rax, r8
	mov	rbx, rdx

; 436  : 	LPCSTR		C = r_string(S,L);

	mov	r8, r9
	mov	rdx, rax
	call	?r_string@CInifile@@QEAAPEBDPEBD0@Z	; CInifile::r_string

; 437  : 	Ivector4	V={0,0,0,0};

	xor	edx, edx
	lea	r8, QWORD PTR [rbx+8]
	lea	rcx, QWORD PTR [rbx+12]
	mov	DWORD PTR [r8], edx
	lea	r9, QWORD PTR [rbx+4]
	mov	DWORD PTR [rcx], edx

; 438  : 	sscanf		(C,"%d,%d,%d,%d",&V.x,&V.y,&V.z,&V.w);

	mov	QWORD PTR [rsp+40], rcx
	mov	DWORD PTR [r9], edx
	mov	DWORD PTR [rbx], edx
	mov	QWORD PTR [rsp+32], r8
	lea	rdx, OFFSET FLAT:??_C@_0M@MLCONGPP@?$CFd?0?$CFd?0?$CFd?0?$CFd?$AA@
	mov	r8, rbx
	mov	rcx, rax
	call	QWORD PTR __imp_sscanf

; 439  : 	return V;

	mov	rax, rbx

; 440  : }

	add	rsp, 48					; 00000030H
	pop	rbx
	ret	0
?r_ivector4@CInifile@@QEAA?AU?$_vector4@H@@PEBD0@Z ENDP	; CInifile::r_ivector4
_TEXT	ENDS
PUBLIC	?r_ivector3@CInifile@@QEAA?AU?$_vector3@H@@PEBD0@Z ; CInifile::r_ivector3
pdata	SEGMENT
$pdata$?r_ivector3@CInifile@@QEAA?AU?$_vector3@H@@PEBD0@Z DD imagerel $LN3
	DD	imagerel $LN3+73
	DD	imagerel $unwind$?r_ivector3@CInifile@@QEAA?AU?$_vector3@H@@PEBD0@Z
pdata	ENDS
xdata	SEGMENT
$unwind$?r_ivector3@CInifile@@QEAA?AU?$_vector3@H@@PEBD0@Z DD 020601H
	DD	030025206H
; Function compile flags: /Ogtpy
xdata	ENDS
_TEXT	SEGMENT
this$ = 64
__$ReturnUdt$ = 72
S$ = 80
L$ = 88
?r_ivector3@CInifile@@QEAA?AU?$_vector3@H@@PEBD0@Z PROC	; CInifile::r_ivector3

; 428  : {

$LN3:
	push	rbx
	sub	rsp, 48					; 00000030H
	mov	rax, r8
	mov	rbx, rdx

; 429  : 	LPCSTR		C = r_string(S,L);

	mov	r8, r9
	mov	rdx, rax
	call	?r_string@CInifile@@QEAAPEBDPEBD0@Z	; CInifile::r_string

; 430  : 	Ivector		V={0,0,0};

	xor	edx, edx
	lea	rcx, QWORD PTR [rbx+8]
	mov	DWORD PTR [rcx], edx
	lea	r9, QWORD PTR [rbx+4]
	mov	DWORD PTR [rbx], edx
	mov	DWORD PTR [r9], edx

; 431  : 	sscanf		(C,"%d,%d,%d",&V.x,&V.y,&V.z);

	mov	QWORD PTR [rsp+32], rcx
	lea	rdx, OFFSET FLAT:??_C@_08GDAMKODC@?$CFd?0?$CFd?0?$CFd?$AA@
	mov	r8, rbx
	mov	rcx, rax
	call	QWORD PTR __imp_sscanf

; 432  : 	return V;

	mov	rax, rbx

; 433  : }

	add	rsp, 48					; 00000030H
	pop	rbx
	ret	0
?r_ivector3@CInifile@@QEAA?AU?$_vector3@H@@PEBD0@Z ENDP	; CInifile::r_ivector3
_TEXT	ENDS
PUBLIC	?r_ivector2@CInifile@@QEAA?AU?$_vector2@H@@PEBD0@Z ; CInifile::r_ivector2
pdata	SEGMENT
$pdata$?r_ivector2@CInifile@@QEAA?AU?$_vector2@H@@PEBD0@Z DD imagerel $LN3
	DD	imagerel $LN3+62
	DD	imagerel $unwind$?r_ivector2@CInifile@@QEAA?AU?$_vector2@H@@PEBD0@Z
pdata	ENDS
xdata	SEGMENT
$unwind$?r_ivector2@CInifile@@QEAA?AU?$_vector2@H@@PEBD0@Z DD 020601H
	DD	030023206H
; Function compile flags: /Ogtpy
xdata	ENDS
_TEXT	SEGMENT
this$ = 48
__$ReturnUdt$ = 56
S$ = 64
L$ = 72
?r_ivector2@CInifile@@QEAA?AU?$_vector2@H@@PEBD0@Z PROC	; CInifile::r_ivector2

; 421  : {

$LN3:
	push	rbx
	sub	rsp, 32					; 00000020H
	mov	rax, r8
	mov	rbx, rdx

; 422  : 	LPCSTR		C = r_string(S,L);

	mov	r8, r9
	mov	rdx, rax
	call	?r_string@CInifile@@QEAAPEBDPEBD0@Z	; CInifile::r_string

; 423  : 	Ivector2	V={0,0};

	xor	ecx, ecx
	lea	r9, QWORD PTR [rbx+4]
	mov	DWORD PTR [rbx], ecx
	mov	DWORD PTR [r9], ecx

; 424  : 	sscanf		(C,"%d,%d",&V.x,&V.y);

	lea	rdx, OFFSET FLAT:??_C@_05KABNCBHK@?$CFd?0?$CFd?$AA@
	mov	rcx, rax
	mov	r8, rbx
	call	QWORD PTR __imp_sscanf

; 425  : 	return V;

	mov	rax, rbx

; 426  : }

	add	rsp, 32					; 00000020H
	pop	rbx
	ret	0
?r_ivector2@CInifile@@QEAA?AU?$_vector2@H@@PEBD0@Z ENDP	; CInifile::r_ivector2
_TEXT	ENDS
PUBLIC	?r_color@CInifile@@QEAAIPEBD0@Z			; CInifile::r_color
pdata	SEGMENT
$pdata$?r_color@CInifile@@QEAAIPEBD0@Z DD imagerel $LN7
	DD	imagerel $LN7+116
	DD	imagerel $unwind$?r_color@CInifile@@QEAAIPEBD0@Z
pdata	ENDS
xdata	SEGMENT
$unwind$?r_color@CInifile@@QEAAIPEBD0@Z DD 010401H
	DD	08204H
; Function compile flags: /Ogtpy
xdata	ENDS
_TEXT	SEGMENT
a$ = 48
g$ = 52
b$ = 56
this$ = 80
S$ = 88
L$ = 96
r$ = 104
?r_color@CInifile@@QEAAIPEBD0@Z PROC			; CInifile::r_color

; 413  : {

$LN7:
	sub	rsp, 72					; 00000048H

; 414  : 	LPCSTR		C = r_string(S,L);

	call	?r_string@CInifile@@QEAAPEBDPEBD0@Z	; CInifile::r_string

; 415  : 	u32			r=0,g=0,b=0,a=255;

	xor	ecx, ecx

; 416  : 	sscanf		(C,"%d,%d,%d,%d",&r,&g,&b,&a);

	lea	r9, QWORD PTR g$[rsp]
	mov	DWORD PTR r$[rsp], ecx
	mov	DWORD PTR g$[rsp], ecx
	mov	DWORD PTR b$[rsp], ecx
	lea	rcx, QWORD PTR a$[rsp]
	lea	r8, QWORD PTR r$[rsp]
	lea	rdx, OFFSET FLAT:??_C@_0M@MLCONGPP@?$CFd?0?$CFd?0?$CFd?0?$CFd?$AA@
	mov	QWORD PTR [rsp+40], rcx
	lea	rcx, QWORD PTR b$[rsp]
	mov	DWORD PTR a$[rsp], 255			; 000000ffH
	mov	QWORD PTR [rsp+32], rcx
	mov	rcx, rax
	call	QWORD PTR __imp_sscanf

; 417  : 	return color_rgba(r,g,b,a);

	mov	ecx, DWORD PTR a$[rsp]
	movzx	eax, BYTE PTR r$[rsp]
	shl	ecx, 8
	or	eax, ecx
	movzx	ecx, BYTE PTR g$[rsp]
	shl	eax, 8
	or	eax, ecx
	movzx	ecx, BYTE PTR b$[rsp]
	shl	eax, 8
	or	eax, ecx

; 418  : }

	add	rsp, 72					; 00000048H
	ret	0
?r_color@CInifile@@QEAAIPEBD0@Z ENDP			; CInifile::r_color
_TEXT	ENDS
PUBLIC	?r_fcolor@CInifile@@QEAA?AU?$_color@M@@PEBD0@Z	; CInifile::r_fcolor
pdata	SEGMENT
$pdata$?r_fcolor@CInifile@@QEAA?AU?$_color@M@@PEBD0@Z DD imagerel $LN3
	DD	imagerel $LN3+85
	DD	imagerel $unwind$?r_fcolor@CInifile@@QEAA?AU?$_color@M@@PEBD0@Z
pdata	ENDS
xdata	SEGMENT
$unwind$?r_fcolor@CInifile@@QEAA?AU?$_color@M@@PEBD0@Z DD 020601H
	DD	030025206H
; Function compile flags: /Ogtpy
xdata	ENDS
_TEXT	SEGMENT
this$ = 64
__$ReturnUdt$ = 72
S$ = 80
L$ = 88
?r_fcolor@CInifile@@QEAA?AU?$_color@M@@PEBD0@Z PROC	; CInifile::r_fcolor

; 406  : {

$LN3:
	push	rbx
	sub	rsp, 48					; 00000030H
	mov	rax, r8
	mov	rbx, rdx

; 407  : 	LPCSTR		C = r_string(S,L);

	mov	r8, r9
	mov	rdx, rax
	call	?r_string@CInifile@@QEAAPEBDPEBD0@Z	; CInifile::r_string

; 408  : 	Fcolor		V={0,0,0,0};

	xor	edx, edx
	lea	r8, QWORD PTR [rbx+8]
	lea	rcx, QWORD PTR [rbx+12]
	mov	DWORD PTR [r8], edx
	lea	r9, QWORD PTR [rbx+4]
	mov	DWORD PTR [rcx], edx

; 409  : 	sscanf		(C,"%f,%f,%f,%f",&V.r,&V.g,&V.b,&V.a);

	mov	QWORD PTR [rsp+40], rcx
	mov	DWORD PTR [r9], edx
	mov	DWORD PTR [rbx], edx
	mov	QWORD PTR [rsp+32], r8
	lea	rdx, OFFSET FLAT:??_C@_0M@JJJBFJKB@?$CFf?0?$CFf?0?$CFf?0?$CFf?$AA@
	mov	r8, rbx
	mov	rcx, rax
	call	QWORD PTR __imp_sscanf

; 410  : 	return V;

	mov	rax, rbx

; 411  : }

	add	rsp, 48					; 00000030H
	pop	rbx
	ret	0
?r_fcolor@CInifile@@QEAA?AU?$_color@M@@PEBD0@Z ENDP	; CInifile::r_fcolor
_TEXT	ENDS
PUBLIC	?r_float@CInifile@@QEAAMPEBD0@Z			; CInifile::r_float
pdata	SEGMENT
$pdata$?r_float@CInifile@@QEAAMPEBD0@Z DD imagerel $LN3
	DD	imagerel $LN3+27
	DD	imagerel $unwind$?r_float@CInifile@@QEAAMPEBD0@Z
pdata	ENDS
xdata	SEGMENT
$unwind$?r_float@CInifile@@QEAAMPEBD0@Z DD 010401H
	DD	04204H
; Function compile flags: /Ogtpy
xdata	ENDS
_TEXT	SEGMENT
this$ = 48
S$ = 56
L$ = 64
?r_float@CInifile@@QEAAMPEBD0@Z PROC			; CInifile::r_float

; 401  : {

$LN3:
	sub	rsp, 40					; 00000028H

; 402  : 	LPCSTR		C = r_string(S,L);

	call	?r_string@CInifile@@QEAAPEBDPEBD0@Z	; CInifile::r_string

; 403  : 	return		float(atof( C ));

	mov	rcx, rax
	call	QWORD PTR __imp_atof
	cvtsd2ss xmm0, xmm0

; 404  : }

	add	rsp, 40					; 00000028H
	ret	0
?r_float@CInifile@@QEAAMPEBD0@Z ENDP			; CInifile::r_float
_TEXT	ENDS
PUBLIC	?r_s32@CInifile@@QEAAHPEBD0@Z			; CInifile::r_s32
pdata	SEGMENT
$pdata$?r_s32@CInifile@@QEAAHPEBD0@Z DD imagerel $LN3
	DD	imagerel $LN3+23
	DD	imagerel $unwind$?r_s32@CInifile@@QEAAHPEBD0@Z
pdata	ENDS
xdata	SEGMENT
$unwind$?r_s32@CInifile@@QEAAHPEBD0@Z DD 010401H
	DD	04204H
; Function compile flags: /Ogtpy
xdata	ENDS
_TEXT	SEGMENT
this$ = 48
S$ = 56
L$ = 64
?r_s32@CInifile@@QEAAHPEBD0@Z PROC			; CInifile::r_s32

; 396  : {

$LN3:
	sub	rsp, 40					; 00000028H

; 397  : 	LPCSTR		C = r_string(S,L);

	call	?r_string@CInifile@@QEAAPEBDPEBD0@Z	; CInifile::r_string

; 398  : 	return		s32(atoi(C));

	mov	rcx, rax

; 399  : }

	add	rsp, 40					; 00000028H
	rex_jmp	QWORD PTR __imp_atoi
?r_s32@CInifile@@QEAAHPEBD0@Z ENDP			; CInifile::r_s32
_TEXT	ENDS
PUBLIC	?r_s16@CInifile@@QEAAFPEBD0@Z			; CInifile::r_s16
pdata	SEGMENT
$pdata$?r_s16@CInifile@@QEAAFPEBD0@Z DD imagerel $LN3
	DD	imagerel $LN3+23
	DD	imagerel $unwind$?r_s16@CInifile@@QEAAFPEBD0@Z
pdata	ENDS
xdata	SEGMENT
$unwind$?r_s16@CInifile@@QEAAFPEBD0@Z DD 010401H
	DD	04204H
; Function compile flags: /Ogtpy
xdata	ENDS
_TEXT	SEGMENT
this$ = 48
S$ = 56
L$ = 64
?r_s16@CInifile@@QEAAFPEBD0@Z PROC			; CInifile::r_s16

; 391  : {

$LN3:
	sub	rsp, 40					; 00000028H

; 392  : 	LPCSTR		C = r_string(S,L);

	call	?r_string@CInifile@@QEAAPEBDPEBD0@Z	; CInifile::r_string

; 393  : 	return		s16(atoi(C));

	mov	rcx, rax

; 394  : }

	add	rsp, 40					; 00000028H
	rex_jmp	QWORD PTR __imp_atoi
?r_s16@CInifile@@QEAAFPEBD0@Z ENDP			; CInifile::r_s16
_TEXT	ENDS
PUBLIC	?r_s8@CInifile@@QEAACPEBD0@Z			; CInifile::r_s8
pdata	SEGMENT
$pdata$?r_s8@CInifile@@QEAACPEBD0@Z DD imagerel $LN3
	DD	imagerel $LN3+23
	DD	imagerel $unwind$?r_s8@CInifile@@QEAACPEBD0@Z
pdata	ENDS
xdata	SEGMENT
$unwind$?r_s8@CInifile@@QEAACPEBD0@Z DD 010401H
	DD	04204H
; Function compile flags: /Ogtpy
xdata	ENDS
_TEXT	SEGMENT
this$ = 48
S$ = 56
L$ = 64
?r_s8@CInifile@@QEAACPEBD0@Z PROC			; CInifile::r_s8

; 386  : {

$LN3:
	sub	rsp, 40					; 00000028H

; 387  : 	LPCSTR		C = r_string(S,L);

	call	?r_string@CInifile@@QEAAPEBDPEBD0@Z	; CInifile::r_string

; 388  : 	return		s8(atoi(C));

	mov	rcx, rax

; 389  : }

	add	rsp, 40					; 00000028H
	rex_jmp	QWORD PTR __imp_atoi
?r_s8@CInifile@@QEAACPEBD0@Z ENDP			; CInifile::r_s8
_TEXT	ENDS
PUBLIC	?r_u32@CInifile@@QEAAIPEBD0@Z			; CInifile::r_u32
pdata	SEGMENT
$pdata$?r_u32@CInifile@@QEAAIPEBD0@Z DD imagerel $LN3
	DD	imagerel $LN3+23
	DD	imagerel $unwind$?r_u32@CInifile@@QEAAIPEBD0@Z
pdata	ENDS
xdata	SEGMENT
$unwind$?r_u32@CInifile@@QEAAIPEBD0@Z DD 010401H
	DD	04204H
; Function compile flags: /Ogtpy
xdata	ENDS
_TEXT	SEGMENT
this$ = 48
S$ = 56
L$ = 64
?r_u32@CInifile@@QEAAIPEBD0@Z PROC			; CInifile::r_u32

; 381  : {

$LN3:
	sub	rsp, 40					; 00000028H

; 382  : 	LPCSTR		C = r_string(S,L);

	call	?r_string@CInifile@@QEAAPEBDPEBD0@Z	; CInifile::r_string

; 383  : 	return		u32(atoi(C));

	mov	rcx, rax

; 384  : }

	add	rsp, 40					; 00000028H
	rex_jmp	QWORD PTR __imp_atoi
?r_u32@CInifile@@QEAAIPEBD0@Z ENDP			; CInifile::r_u32
_TEXT	ENDS
PUBLIC	?r_u16@CInifile@@QEAAGPEBD0@Z			; CInifile::r_u16
pdata	SEGMENT
$pdata$?r_u16@CInifile@@QEAAGPEBD0@Z DD imagerel $LN3
	DD	imagerel $LN3+23
	DD	imagerel $unwind$?r_u16@CInifile@@QEAAGPEBD0@Z
pdata	ENDS
xdata	SEGMENT
$unwind$?r_u16@CInifile@@QEAAGPEBD0@Z DD 010401H
	DD	04204H
; Function compile flags: /Ogtpy
xdata	ENDS
_TEXT	SEGMENT
this$ = 48
S$ = 56
L$ = 64
?r_u16@CInifile@@QEAAGPEBD0@Z PROC			; CInifile::r_u16

; 376  : {

$LN3:
	sub	rsp, 40					; 00000028H

; 377  : 	LPCSTR		C = r_string(S,L);

	call	?r_string@CInifile@@QEAAPEBDPEBD0@Z	; CInifile::r_string

; 378  : 	return		u16(atoi(C));

	mov	rcx, rax

; 379  : }

	add	rsp, 40					; 00000028H
	rex_jmp	QWORD PTR __imp_atoi
?r_u16@CInifile@@QEAAGPEBD0@Z ENDP			; CInifile::r_u16
_TEXT	ENDS
PUBLIC	?r_u8@CInifile@@QEAAEPEBD0@Z			; CInifile::r_u8
pdata	SEGMENT
$pdata$?r_u8@CInifile@@QEAAEPEBD0@Z DD imagerel $LN3
	DD	imagerel $LN3+23
	DD	imagerel $unwind$?r_u8@CInifile@@QEAAEPEBD0@Z
pdata	ENDS
xdata	SEGMENT
$unwind$?r_u8@CInifile@@QEAAEPEBD0@Z DD 010401H
	DD	04204H
; Function compile flags: /Ogtpy
xdata	ENDS
_TEXT	SEGMENT
this$ = 48
S$ = 56
L$ = 64
?r_u8@CInifile@@QEAAEPEBD0@Z PROC			; CInifile::r_u8

; 371  : {

$LN3:
	sub	rsp, 40					; 00000028H

; 372  : 	LPCSTR		C = r_string(S,L);

	call	?r_string@CInifile@@QEAAPEBDPEBD0@Z	; CInifile::r_string

; 373  : 	return		u8(atoi(C));

	mov	rcx, rax

; 374  : }

	add	rsp, 40					; 00000028H
	rex_jmp	QWORD PTR __imp_atoi
?r_u8@CInifile@@QEAAEPEBD0@Z ENDP			; CInifile::r_u8
_TEXT	ENDS
PUBLIC	?r_string_wb@CInifile@@QEAA?AVshared_str@@PEBD0@Z ; CInifile::r_string_wb
pdata	SEGMENT
$pdata$?r_string_wb@CInifile@@QEAA?AVshared_str@@PEBD0@Z DD imagerel $LN52
	DD	imagerel $LN52+195
	DD	imagerel $unwind$?r_string_wb@CInifile@@QEAA?AVshared_str@@PEBD0@Z
pdata	ENDS
xdata	SEGMENT
$unwind$?r_string_wb@CInifile@@QEAA?AVshared_str@@PEBD0@Z DD 050d01H
	DD	046340dH
	DD	044010dH
	DD	07006H
; Function compile flags: /Ogtpy
xdata	ENDS
_TEXT	SEGMENT
_original$ = 32
this$ = 560
__$ReturnUdt$ = 568
S$ = 576
L$ = 584
?r_string_wb@CInifile@@QEAA?AVshared_str@@PEBD0@Z PROC	; CInifile::r_string_wb

; 356  : shared_str		CInifile::r_string_wb(LPCSTR S, LPCSTR L)	{

$LN52:
	mov	QWORD PTR [rsp+8], rbx
	push	rdi
	sub	rsp, 544				; 00000220H
	mov	rax, r8
	mov	rbx, rdx

; 357  : 	LPCSTR		_base		= r_string(S,L);

	mov	r8, r9
	mov	rdx, rax
	call	?r_string@CInifile@@QEAAPEBDPEBD0@Z	; CInifile::r_string

; 358  : 	
; 359  : 	if	(0==_base)					return	shared_str(0);

	test	rax, rax
	jne	SHORT $LN4@r_string_w
	xor	edi, edi
	xor	edx, edx
	jmp	SHORT $LN51@r_string_w
$LN4@r_string_w:

; 360  : 
; 361  : 	string512						_original;
; 362  : 	strcpy_s						(_original,_base);

	lea	rcx, QWORD PTR _original$[rsp]
	mov	r8, rax
	mov	edx, 512				; 00000200H
	call	QWORD PTR __imp_strcpy_s

; 363  : 	u32			_len				= xr_strlen(_original);

	or	rcx, -1
	xor	eax, eax
	lea	rdi, QWORD PTR _original$[rsp]
	repne scasb

; 364  : 	if	(0==_len)					return	shared_str("");

	xor	edi, edi
	not	rcx
	dec	rcx
	test	ecx, ecx
	jne	SHORT $LN3@r_string_w
	lea	rdx, OFFSET FLAT:??_C@_00CNPNBAHC@?$AA@
	jmp	SHORT $LN51@r_string_w
$LN3@r_string_w:

; 365  : 	if	('"'==_original[_len-1])	_original[_len-1]=0;				// skip end

	lea	eax, DWORD PTR [rcx-1]

; 366  : 	if	('"'==_original[0])			return	shared_str(&_original[0] + 1);	// skip begin

	lea	rdx, QWORD PTR _original$[rsp+1]
	mov	ecx, eax
	movzx	eax, BYTE PTR _original$[rsp+rax]
	cmp	BYTE PTR _original$[rsp+rcx], 34	; 00000022H
	cmove	eax, edi
	mov	BYTE PTR _original$[rsp+rcx], al
	cmp	BYTE PTR _original$[rsp], 34		; 00000022H
	je	SHORT $LN51@r_string_w

; 367  : 	return									shared_str(_original);

	lea	rdx, QWORD PTR _original$[rsp]
$LN51@r_string_w:
	mov	rcx, QWORD PTR ?g_pStringContainer@@3PEAVstr_container@@EA ; g_pStringContainer
	mov	QWORD PTR [rbx], rdi
	call	?dock@str_container@@QEAAPEAUstr_value@@PEBD@Z ; str_container::dock
	test	rax, rax
	je	SHORT $LN40@r_string_w
	inc	DWORD PTR [rax]
$LN40@r_string_w:
	mov	rcx, QWORD PTR [rbx]
	test	rcx, rcx
	je	SHORT $LN43@r_string_w
	dec	DWORD PTR [rcx]
	cmove	rcx, rdi
	mov	QWORD PTR [rbx], rcx
$LN43@r_string_w:
	mov	QWORD PTR [rbx], rax
	mov	rax, rbx

; 368  : }

	mov	rbx, QWORD PTR [rsp+560]
	add	rsp, 544				; 00000220H
	pop	rdi
	ret	0
?r_string_wb@CInifile@@QEAA?AVshared_str@@PEBD0@Z ENDP	; CInifile::r_string_wb
_TEXT	ENDS
pdata	SEGMENT
$pdata$?insert_item@@YAXPEAUSect@CInifile@@AEBUItem@2@@Z DD imagerel ?insert_item@@YAXPEAUSect@CInifile@@AEBUItem@2@@Z
	DD	imagerel ?insert_item@@YAXPEAUSect@CInifile@@AEBUItem@2@@Z+13
	DD	imagerel $unwind$?insert_item@@YAXPEAUSect@CInifile@@AEBUItem@2@@Z
$pdata$2$?insert_item@@YAXPEAUSect@CInifile@@AEBUItem@2@@Z DD imagerel ?insert_item@@YAXPEAUSect@CInifile@@AEBUItem@2@@Z+13
	DD	imagerel ?insert_item@@YAXPEAUSect@CInifile@@AEBUItem@2@@Z+77
	DD	imagerel $chain$2$?insert_item@@YAXPEAUSect@CInifile@@AEBUItem@2@@Z
$pdata$4$?insert_item@@YAXPEAUSect@CInifile@@AEBUItem@2@@Z DD imagerel ?insert_item@@YAXPEAUSect@CInifile@@AEBUItem@2@@Z+77
	DD	imagerel ?insert_item@@YAXPEAUSect@CInifile@@AEBUItem@2@@Z+252
	DD	imagerel $chain$4$?insert_item@@YAXPEAUSect@CInifile@@AEBUItem@2@@Z
$pdata$5$?insert_item@@YAXPEAUSect@CInifile@@AEBUItem@2@@Z DD imagerel ?insert_item@@YAXPEAUSect@CInifile@@AEBUItem@2@@Z+252
	DD	imagerel ?insert_item@@YAXPEAUSect@CInifile@@AEBUItem@2@@Z+273
	DD	imagerel $chain$5$?insert_item@@YAXPEAUSect@CInifile@@AEBUItem@2@@Z
$pdata$6$?insert_item@@YAXPEAUSect@CInifile@@AEBUItem@2@@Z DD imagerel ?insert_item@@YAXPEAUSect@CInifile@@AEBUItem@2@@Z+273
	DD	imagerel ?insert_item@@YAXPEAUSect@CInifile@@AEBUItem@2@@Z+359
	DD	imagerel $chain$6$?insert_item@@YAXPEAUSect@CInifile@@AEBUItem@2@@Z
pdata	ENDS
xdata	SEGMENT
$unwind$?insert_item@@YAXPEAUSect@CInifile@@AEBUItem@2@@Z DD 040a01H
	DD	0f006520aH
	DD	07002d004H
$chain$2$?insert_item@@YAXPEAUSect@CInifile@@AEBUItem@2@@Z DD 061221H
	DD	04e412H
	DD	0b540aH
	DD	0a3405H
	DD	imagerel ?insert_item@@YAXPEAUSect@CInifile@@AEBUItem@2@@Z
	DD	imagerel ?insert_item@@YAXPEAUSect@CInifile@@AEBUItem@2@@Z+13
	DD	imagerel $unwind$?insert_item@@YAXPEAUSect@CInifile@@AEBUItem@2@@Z
$chain$4$?insert_item@@YAXPEAUSect@CInifile@@AEBUItem@2@@Z DD 040a21H
	DD	05c40aH
	DD	0c6405H
	DD	imagerel ?insert_item@@YAXPEAUSect@CInifile@@AEBUItem@2@@Z+13
	DD	imagerel ?insert_item@@YAXPEAUSect@CInifile@@AEBUItem@2@@Z+77
	DD	imagerel $chain$2$?insert_item@@YAXPEAUSect@CInifile@@AEBUItem@2@@Z
$chain$5$?insert_item@@YAXPEAUSect@CInifile@@AEBUItem@2@@Z DD 021H
	DD	imagerel ?insert_item@@YAXPEAUSect@CInifile@@AEBUItem@2@@Z+13
	DD	imagerel ?insert_item@@YAXPEAUSect@CInifile@@AEBUItem@2@@Z+77
	DD	imagerel $chain$2$?insert_item@@YAXPEAUSect@CInifile@@AEBUItem@2@@Z
$chain$6$?insert_item@@YAXPEAUSect@CInifile@@AEBUItem@2@@Z DD 021H
	DD	imagerel ?insert_item@@YAXPEAUSect@CInifile@@AEBUItem@2@@Z
	DD	imagerel ?insert_item@@YAXPEAUSect@CInifile@@AEBUItem@2@@Z+13
	DD	imagerel $unwind$?insert_item@@YAXPEAUSect@CInifile@@AEBUItem@2@@Z
; Function compile flags: /Ogtpy
xdata	ENDS
_TEXT	SEGMENT
tgt$ = 80
I$ = 88
?insert_item@@YAXPEAUSect@CInifile@@AEBUItem@2@@Z PROC	; insert_item

; 118  : {

	push	rdi
	push	r13
	push	r15
	sub	rsp, 48					; 00000030H

; 119  : 	CInifile::SectIt_	sect_it		= std::lower_bound(tgt->Data.begin(),tgt->Data.end(),*I.first,item_pred);

	mov	rax, QWORD PTR [rdx]
	mov	QWORD PTR [rsp+80], rbx
	mov	QWORD PTR [rsp+88], rbp
	xor	r8d, r8d
	mov	QWORD PTR [rsp+32], r14
	mov	r13, rdx
	lea	rbp, QWORD PTR [rax+12]
	mov	r14, rcx
	test	rax, rax
	jne	SHORT $LN8@insert_ite
	mov	ebp, r8d
$LN8@insert_ite:
	mov	rdi, QWORD PTR [rcx+8]
	mov	rbx, QWORD PTR [rcx+16]
	lea	r15, QWORD PTR [rcx+8]
	sub	rbx, rdi
	sar	rbx, 4
	test	rbx, rbx
	jle	$LN39@insert_ite
	mov	QWORD PTR [rsp+96], rsi
	mov	QWORD PTR [rsp+40], r12
	npad	9
$LL40@insert_ite:
	mov	rax, rbx
	cdq
	sub	rax, rdx
	sar	rax, 1
	mov	rsi, rax
	mov	r12, rax
	add	rsi, rsi
	mov	rcx, QWORD PTR [rdi+rsi*8]
	test	rcx, rcx
	je	SHORT $LN56@insert_ite
	test	rbp, rbp
	je	SHORT $LN56@insert_ite
	add	rcx, 12
	mov	r8, rbp
	sub	r8, rcx
	npad	4
$LL169@insert_ite:
	movzx	edx, BYTE PTR [rcx]
	movzx	eax, BYTE PTR [rcx+r8]
	sub	edx, eax
	jne	SHORT $LN170@insert_ite
	inc	rcx
	test	eax, eax
	jne	SHORT $LL169@insert_ite
$LN170@insert_ite:
	test	edx, edx
	sets	cl
	jmp	SHORT $LN79@insert_ite
$LN56@insert_ite:
	mov	rcx, QWORD PTR ?g_pStringContainer@@3PEAVstr_container@@EA ; g_pStringContainer
	mov	rdx, rbp
	call	?dock@str_container@@QEAAPEAUstr_value@@PEBD@Z ; str_container::dock
	test	rax, rax
	je	SHORT $LN67@insert_ite
	inc	DWORD PTR [rax]
$LN67@insert_ite:
	cmp	QWORD PTR [rdi+rsi*8], rax
	setb	cl
	test	rax, rax
	je	SHORT $LN79@insert_ite
	dec	DWORD PTR [rax]
$LN79@insert_ite:
	test	cl, cl
	je	SHORT $LN38@insert_ite
	or	rax, -1
	lea	rdi, QWORD PTR [rdi+rsi*8+16]
	sub	rax, r12
	add	rbx, rax
	jmp	SHORT $LN37@insert_ite
$LN38@insert_ite:
	mov	rbx, r12
$LN37@insert_ite:
	test	rbx, rbx
	jg	$LL40@insert_ite
	mov	r12, QWORD PTR [rsp+40]
	mov	rsi, QWORD PTR [rsp+96]
	xor	r8d, r8d
$LN39@insert_ite:

; 120  : 	if (sect_it!=tgt->Data.end() && sect_it->first.equal(I.first)){ 

	cmp	rdi, QWORD PTR [r14+16]
	mov	rbp, QWORD PTR [rsp+88]
	mov	rbx, QWORD PTR [rsp+80]
	mov	r14, QWORD PTR [rsp+32]
	je	SHORT $LN2@insert_ite
	mov	rax, QWORD PTR [r13]
	cmp	QWORD PTR [rdi], rax
	jne	SHORT $LN2@insert_ite

; 121  : 		sect_it->second	= I.second;

	mov	rdx, QWORD PTR [r13+8]
	test	rdx, rdx
	je	SHORT $LN129@insert_ite
	inc	DWORD PTR [rdx]
$LN129@insert_ite:
	mov	rax, QWORD PTR [rdi+8]
	test	rax, rax
	je	SHORT $LN132@insert_ite
	dec	DWORD PTR [rax]
	mov	rax, QWORD PTR [rdi+8]
	cmp	DWORD PTR [rax], 0
	mov	rcx, rax
	cmove	rcx, r8
	mov	QWORD PTR [rdi+8], rcx
$LN132@insert_ite:
	mov	QWORD PTR [rdi+8], rdx

; 127  : 	}
; 128  : }

	add	rsp, 48					; 00000030H
	pop	r15
	pop	r13
	pop	rdi
	ret	0
$LN2@insert_ite:

; 122  : #ifdef DEBUG
; 123  : 		sect_it->comment= I.comment;
; 124  : #endif
; 125  : 	}else{
; 126  : 		tgt->Data.insert	(sect_it,I);

	mov	r8, r13
	mov	rdx, rdi
	mov	rcx, r15

; 127  : 	}
; 128  : }

	add	rsp, 48					; 00000030H
	pop	r15
	pop	r13
	pop	rdi
	jmp	?_Insert_n@?$vector@UItem@CInifile@@V?$xalloc@UItem@CInifile@@@@@std@@IEAAXV?$_Vector_const_iterator@V?$_Vector_val@UItem@CInifile@@V?$xalloc@UItem@CInifile@@@@@std@@@2@_KAEBUItem@CInifile@@@Z ; std::vector<CInifile::Item,xalloc<CInifile::Item> >::_Insert_n
?insert_item@@YAXPEAUSect@CInifile@@AEBUItem@2@@Z ENDP	; insert_item
PUBLIC	?w_bool@CInifile@@QEAAXPEBD0H0@Z		; CInifile::w_bool
pdata	SEGMENT
$pdata$?w_bool@CInifile@@QEAAXPEBD0H0@Z DD imagerel $LN3
	DD	imagerel $LN3+47
	DD	imagerel $unwind$?w_bool@CInifile@@QEAAXPEBD0H0@Z
pdata	ENDS
xdata	SEGMENT
$unwind$?w_bool@CInifile@@QEAAXPEBD0H0@Z DD 010401H
	DD	06204H
; Function compile flags: /Ogtpy
xdata	ENDS
_TEXT	SEGMENT
this$ = 64
S$ = 72
L$ = 80
V$ = 88
comment$ = 96
?w_bool@CInifile@@QEAAXPEBD0H0@Z PROC			; CInifile::w_bool

; 627  : {

$LN3:
	sub	rsp, 56					; 00000038H
	mov	eax, r9d

; 628  : 	w_string	(S,L,V?"on":"off",comment);

	lea	r10, OFFSET FLAT:??_C@_02LIELOMNJ@on?$AA@
	lea	r9, OFFSET FLAT:??_C@_03MCADLMAF@off?$AA@
	test	eax, eax
	mov	rax, QWORD PTR comment$[rsp]
	cmovne	r9, r10
	mov	QWORD PTR [rsp+32], rax
	call	?w_string@CInifile@@QEAAXPEBD000@Z	; CInifile::w_string

; 629  : }

	add	rsp, 56					; 00000038H
	ret	0
?w_bool@CInifile@@QEAAXPEBD0H0@Z ENDP			; CInifile::w_bool
_TEXT	ENDS
PUBLIC	?w_fvector4@CInifile@@QEAAXPEBD0AEBU?$_vector4@M@@0@Z ; CInifile::w_fvector4
pdata	SEGMENT
$pdata$?w_fvector4@CInifile@@QEAAXPEBD0AEBU?$_vector4@M@@0@Z DD imagerel $LN3
	DD	imagerel $LN3+161
	DD	imagerel $unwind$?w_fvector4@CInifile@@QEAAXPEBD0AEBU?$_vector4@M@@0@Z
pdata	ENDS
xdata	SEGMENT
$unwind$?w_fvector4@CInifile@@QEAAXPEBD0AEBU?$_vector4@M@@0@Z DD 071201H
	DD	01b6412H
	DD	01a3412H
	DD	0180112H
	DD	0700bH
; Function compile flags: /Ogtpy
xdata	ENDS
_TEXT	SEGMENT
temp$ = 64
this$ = 208
S$ = 216
L$ = 224
V$ = 232
comment$ = 240
?w_fvector4@CInifile@@QEAAXPEBD0AEBU?$_vector4@M@@0@Z PROC ; CInifile::w_fvector4

; 621  : {

$LN3:
	mov	QWORD PTR [rsp+8], rbx
	mov	QWORD PTR [rsp+16], rsi
	push	rdi
	sub	rsp, 192				; 000000c0H

; 622  : 	string128 temp; sprintf_s		(temp,sizeof(temp),"%f,%f,%f,%f", V.x, V.y, V.z, V.w);

	movd	xmm3, DWORD PTR [r9]
	movd	xmm0, DWORD PTR [r9+12]
	movd	xmm1, DWORD PTR [r9+8]
	mov	rbx, r8
	mov	rsi, rcx
	mov	rdi, rdx
	lea	r8, OFFSET FLAT:??_C@_0M@JJJBFJKB@?$CFf?0?$CFf?0?$CFf?0?$CFf?$AA@
	lea	rcx, QWORD PTR temp$[rsp]
	mov	edx, 128				; 00000080H
	cvtps2pd xmm3, xmm3
	cvtps2pd xmm0, xmm0
	cvtps2pd xmm1, xmm1
	movd	xmm2, DWORD PTR [r9+4]
	movd	r9, xmm3
	movsdx	QWORD PTR [rsp+48], xmm0
	movsdx	QWORD PTR [rsp+40], xmm1
	cvtps2pd xmm2, xmm2
	movsdx	QWORD PTR [rsp+32], xmm2
	call	QWORD PTR __imp_sprintf_s

; 623  : 	w_string	(S,L,temp,comment);

	mov	r11, QWORD PTR comment$[rsp]
	lea	r9, QWORD PTR temp$[rsp]
	mov	r8, rbx
	mov	rdx, rdi
	mov	rcx, rsi
	mov	QWORD PTR [rsp+32], r11
	call	?w_string@CInifile@@QEAAXPEBD000@Z	; CInifile::w_string

; 624  : }

	lea	r11, QWORD PTR [rsp+192]
	mov	rbx, QWORD PTR [r11+16]
	mov	rsi, QWORD PTR [r11+24]
	mov	rsp, r11
	pop	rdi
	ret	0
?w_fvector4@CInifile@@QEAAXPEBD0AEBU?$_vector4@M@@0@Z ENDP ; CInifile::w_fvector4
_TEXT	ENDS
PUBLIC	?w_fvector3@CInifile@@QEAAXPEBD0AEBU?$_vector3@M@@0@Z ; CInifile::w_fvector3
pdata	SEGMENT
$pdata$?w_fvector3@CInifile@@QEAAXPEBD0AEBU?$_vector3@M@@0@Z DD imagerel $LN3
	DD	imagerel $LN3+146
	DD	imagerel $unwind$?w_fvector3@CInifile@@QEAAXPEBD0AEBU?$_vector3@M@@0@Z
pdata	ENDS
xdata	SEGMENT
$unwind$?w_fvector3@CInifile@@QEAAXPEBD0AEBU?$_vector3@M@@0@Z DD 071201H
	DD	0196412H
	DD	0183412H
	DD	0160112H
	DD	0700bH
; Function compile flags: /Ogtpy
xdata	ENDS
_TEXT	SEGMENT
temp$ = 48
this$ = 192
S$ = 200
L$ = 208
V$ = 216
comment$ = 224
?w_fvector3@CInifile@@QEAAXPEBD0AEBU?$_vector3@M@@0@Z PROC ; CInifile::w_fvector3

; 615  : {

$LN3:
	mov	QWORD PTR [rsp+8], rbx
	mov	QWORD PTR [rsp+16], rsi
	push	rdi
	sub	rsp, 176				; 000000b0H

; 616  : 	string128 temp; sprintf_s		(temp,sizeof(temp),"%f,%f,%f", V.x, V.y, V.z);

	movd	xmm3, DWORD PTR [r9]
	movd	xmm0, DWORD PTR [r9+8]
	movd	xmm1, DWORD PTR [r9+4]
	mov	rbx, r8
	mov	rsi, rcx
	mov	rdi, rdx
	lea	r8, OFFSET FLAT:??_C@_08GJNPJIKN@?$CFf?0?$CFf?0?$CFf?$AA@
	lea	rcx, QWORD PTR temp$[rsp]
	mov	edx, 128				; 00000080H
	cvtps2pd xmm3, xmm3
	cvtps2pd xmm0, xmm0
	cvtps2pd xmm1, xmm1
	movd	r9, xmm3
	movsdx	QWORD PTR [rsp+40], xmm0
	movsdx	QWORD PTR [rsp+32], xmm1
	call	QWORD PTR __imp_sprintf_s

; 617  : 	w_string	(S,L,temp,comment);

	mov	r11, QWORD PTR comment$[rsp]
	lea	r9, QWORD PTR temp$[rsp]
	mov	r8, rbx
	mov	rdx, rdi
	mov	rcx, rsi
	mov	QWORD PTR [rsp+32], r11
	call	?w_string@CInifile@@QEAAXPEBD000@Z	; CInifile::w_string

; 618  : }

	lea	r11, QWORD PTR [rsp+176]
	mov	rbx, QWORD PTR [r11+16]
	mov	rsi, QWORD PTR [r11+24]
	mov	rsp, r11
	pop	rdi
	ret	0
?w_fvector3@CInifile@@QEAAXPEBD0AEBU?$_vector3@M@@0@Z ENDP ; CInifile::w_fvector3
_TEXT	ENDS
PUBLIC	?w_fvector2@CInifile@@QEAAXPEBD0AEBU?$_vector2@M@@0@Z ; CInifile::w_fvector2
pdata	SEGMENT
$pdata$?w_fvector2@CInifile@@QEAAXPEBD0AEBU?$_vector2@M@@0@Z DD imagerel $LN3
	DD	imagerel $LN3+131
	DD	imagerel $unwind$?w_fvector2@CInifile@@QEAAXPEBD0AEBU?$_vector2@M@@0@Z
pdata	ENDS
xdata	SEGMENT
$unwind$?w_fvector2@CInifile@@QEAAXPEBD0AEBU?$_vector2@M@@0@Z DD 071201H
	DD	0196412H
	DD	0183412H
	DD	0160112H
	DD	0700bH
; Function compile flags: /Ogtpy
xdata	ENDS
_TEXT	SEGMENT
temp$ = 48
this$ = 192
S$ = 200
L$ = 208
V$ = 216
comment$ = 224
?w_fvector2@CInifile@@QEAAXPEBD0AEBU?$_vector2@M@@0@Z PROC ; CInifile::w_fvector2

; 609  : {

$LN3:
	mov	QWORD PTR [rsp+8], rbx
	mov	QWORD PTR [rsp+16], rsi
	push	rdi
	sub	rsp, 176				; 000000b0H

; 610  : 	string128 temp; sprintf_s		(temp,sizeof(temp),"%f,%f", V.x, V.y);

	movd	xmm3, DWORD PTR [r9]
	movd	xmm0, DWORD PTR [r9+4]
	mov	rbx, r8
	mov	rsi, rcx
	mov	rdi, rdx
	lea	r8, OFFSET FLAT:??_C@_05OIOLBAJI@?$CFf?0?$CFf?$AA@
	lea	rcx, QWORD PTR temp$[rsp]
	mov	edx, 128				; 00000080H
	cvtps2pd xmm3, xmm3
	cvtps2pd xmm0, xmm0
	movd	r9, xmm3
	movsdx	QWORD PTR [rsp+32], xmm0
	call	QWORD PTR __imp_sprintf_s

; 611  : 	w_string	(S,L,temp,comment);

	mov	r11, QWORD PTR comment$[rsp]
	lea	r9, QWORD PTR temp$[rsp]
	mov	r8, rbx
	mov	rdx, rdi
	mov	rcx, rsi
	mov	QWORD PTR [rsp+32], r11
	call	?w_string@CInifile@@QEAAXPEBD000@Z	; CInifile::w_string

; 612  : }

	lea	r11, QWORD PTR [rsp+176]
	mov	rbx, QWORD PTR [r11+16]
	mov	rsi, QWORD PTR [r11+24]
	mov	rsp, r11
	pop	rdi
	ret	0
?w_fvector2@CInifile@@QEAAXPEBD0AEBU?$_vector2@M@@0@Z ENDP ; CInifile::w_fvector2
_TEXT	ENDS
PUBLIC	?w_ivector4@CInifile@@QEAAXPEBD0AEBU?$_vector4@H@@0@Z ; CInifile::w_ivector4
pdata	SEGMENT
$pdata$?w_ivector4@CInifile@@QEAAXPEBD0AEBU?$_vector4@H@@0@Z DD imagerel $LN3
	DD	imagerel $LN3+130
	DD	imagerel $unwind$?w_ivector4@CInifile@@QEAAXPEBD0AEBU?$_vector4@H@@0@Z
pdata	ENDS
xdata	SEGMENT
$unwind$?w_ivector4@CInifile@@QEAAXPEBD0AEBU?$_vector4@H@@0@Z DD 071201H
	DD	01b6412H
	DD	01a3412H
	DD	0180112H
	DD	0700bH
; Function compile flags: /Ogtpy
xdata	ENDS
_TEXT	SEGMENT
temp$ = 64
this$ = 208
S$ = 216
L$ = 224
V$ = 232
comment$ = 240
?w_ivector4@CInifile@@QEAAXPEBD0AEBU?$_vector4@H@@0@Z PROC ; CInifile::w_ivector4

; 604  : {

$LN3:
	mov	QWORD PTR [rsp+8], rbx
	mov	QWORD PTR [rsp+16], rsi
	push	rdi
	sub	rsp, 192				; 000000c0H

; 605  : 	string128 temp; sprintf_s		(temp,sizeof(temp),"%d,%d,%d,%d", V.x, V.y, V.z, V.w);

	mov	eax, DWORD PTR [r9+12]
	mov	rbx, r8
	mov	rsi, rcx
	mov	DWORD PTR [rsp+48], eax
	mov	eax, DWORD PTR [r9+8]
	mov	rdi, rdx
	mov	DWORD PTR [rsp+40], eax
	mov	eax, DWORD PTR [r9+4]
	mov	r9d, DWORD PTR [r9]
	lea	r8, OFFSET FLAT:??_C@_0M@MLCONGPP@?$CFd?0?$CFd?0?$CFd?0?$CFd?$AA@
	lea	rcx, QWORD PTR temp$[rsp]
	mov	edx, 128				; 00000080H
	mov	DWORD PTR [rsp+32], eax
	call	QWORD PTR __imp_sprintf_s

; 606  : 	w_string	(S,L,temp,comment);

	mov	r11, QWORD PTR comment$[rsp]
	lea	r9, QWORD PTR temp$[rsp]
	mov	r8, rbx
	mov	rdx, rdi
	mov	rcx, rsi
	mov	QWORD PTR [rsp+32], r11
	call	?w_string@CInifile@@QEAAXPEBD000@Z	; CInifile::w_string

; 607  : }

	lea	r11, QWORD PTR [rsp+192]
	mov	rbx, QWORD PTR [r11+16]
	mov	rsi, QWORD PTR [r11+24]
	mov	rsp, r11
	pop	rdi
	ret	0
?w_ivector4@CInifile@@QEAAXPEBD0AEBU?$_vector4@H@@0@Z ENDP ; CInifile::w_ivector4
_TEXT	ENDS
PUBLIC	?w_ivector3@CInifile@@QEAAXPEBD0AEBU?$_vector3@H@@0@Z ; CInifile::w_ivector3
pdata	SEGMENT
$pdata$?w_ivector3@CInifile@@QEAAXPEBD0AEBU?$_vector3@H@@0@Z DD imagerel $LN3
	DD	imagerel $LN3+122
	DD	imagerel $unwind$?w_ivector3@CInifile@@QEAAXPEBD0AEBU?$_vector3@H@@0@Z
pdata	ENDS
xdata	SEGMENT
$unwind$?w_ivector3@CInifile@@QEAAXPEBD0AEBU?$_vector3@H@@0@Z DD 071201H
	DD	0196412H
	DD	0183412H
	DD	0160112H
	DD	0700bH
; Function compile flags: /Ogtpy
xdata	ENDS
_TEXT	SEGMENT
temp$ = 48
this$ = 192
S$ = 200
L$ = 208
V$ = 216
comment$ = 224
?w_ivector3@CInifile@@QEAAXPEBD0AEBU?$_vector3@H@@0@Z PROC ; CInifile::w_ivector3

; 598  : {

$LN3:
	mov	QWORD PTR [rsp+8], rbx
	mov	QWORD PTR [rsp+16], rsi
	push	rdi
	sub	rsp, 176				; 000000b0H

; 599  : 	string128 temp; sprintf_s		(temp,sizeof(temp),"%d,%d,%d", V.x, V.y, V.z);

	mov	eax, DWORD PTR [r9+8]
	mov	rbx, r8
	mov	rsi, rcx
	mov	DWORD PTR [rsp+40], eax
	mov	eax, DWORD PTR [r9+4]
	mov	r9d, DWORD PTR [r9]
	mov	rdi, rdx
	lea	r8, OFFSET FLAT:??_C@_08GDAMKODC@?$CFd?0?$CFd?0?$CFd?$AA@
	lea	rcx, QWORD PTR temp$[rsp]
	mov	edx, 128				; 00000080H
	mov	DWORD PTR [rsp+32], eax
	call	QWORD PTR __imp_sprintf_s

; 600  : 	w_string	(S,L,temp,comment);

	mov	r11, QWORD PTR comment$[rsp]
	lea	r9, QWORD PTR temp$[rsp]
	mov	r8, rbx
	mov	rdx, rdi
	mov	rcx, rsi
	mov	QWORD PTR [rsp+32], r11
	call	?w_string@CInifile@@QEAAXPEBD000@Z	; CInifile::w_string

; 601  : }

	lea	r11, QWORD PTR [rsp+176]
	mov	rbx, QWORD PTR [r11+16]
	mov	rsi, QWORD PTR [r11+24]
	mov	rsp, r11
	pop	rdi
	ret	0
?w_ivector3@CInifile@@QEAAXPEBD0AEBU?$_vector3@H@@0@Z ENDP ; CInifile::w_ivector3
_TEXT	ENDS
PUBLIC	?w_ivector2@CInifile@@QEAAXPEBD0AEBU?$_vector2@H@@0@Z ; CInifile::w_ivector2
pdata	SEGMENT
$pdata$?w_ivector2@CInifile@@QEAAXPEBD0AEBU?$_vector2@H@@0@Z DD imagerel $LN3
	DD	imagerel $LN3+114
	DD	imagerel $unwind$?w_ivector2@CInifile@@QEAAXPEBD0AEBU?$_vector2@H@@0@Z
pdata	ENDS
xdata	SEGMENT
$unwind$?w_ivector2@CInifile@@QEAAXPEBD0AEBU?$_vector2@H@@0@Z DD 071201H
	DD	0196412H
	DD	0183412H
	DD	0160112H
	DD	0700bH
; Function compile flags: /Ogtpy
xdata	ENDS
_TEXT	SEGMENT
temp$ = 48
this$ = 192
S$ = 200
L$ = 208
V$ = 216
comment$ = 224
?w_ivector2@CInifile@@QEAAXPEBD0AEBU?$_vector2@H@@0@Z PROC ; CInifile::w_ivector2

; 592  : {

$LN3:
	mov	QWORD PTR [rsp+8], rbx
	mov	QWORD PTR [rsp+16], rsi
	push	rdi
	sub	rsp, 176				; 000000b0H

; 593  : 	string128 temp; sprintf_s		(temp,sizeof(temp),"%d,%d", V.x, V.y);

	mov	eax, DWORD PTR [r9+4]
	mov	r9d, DWORD PTR [r9]
	mov	rbx, r8
	mov	rsi, rcx
	mov	rdi, rdx
	lea	r8, OFFSET FLAT:??_C@_05KABNCBHK@?$CFd?0?$CFd?$AA@
	lea	rcx, QWORD PTR temp$[rsp]
	mov	edx, 128				; 00000080H
	mov	DWORD PTR [rsp+32], eax
	call	QWORD PTR __imp_sprintf_s

; 594  : 	w_string	(S,L,temp,comment);

	mov	r11, QWORD PTR comment$[rsp]
	lea	r9, QWORD PTR temp$[rsp]
	mov	r8, rbx
	mov	rdx, rdi
	mov	rcx, rsi
	mov	QWORD PTR [rsp+32], r11
	call	?w_string@CInifile@@QEAAXPEBD000@Z	; CInifile::w_string

; 595  : }

	lea	r11, QWORD PTR [rsp+176]
	mov	rbx, QWORD PTR [r11+16]
	mov	rsi, QWORD PTR [r11+24]
	mov	rsp, r11
	pop	rdi
	ret	0
?w_ivector2@CInifile@@QEAAXPEBD0AEBU?$_vector2@H@@0@Z ENDP ; CInifile::w_ivector2
_TEXT	ENDS
PUBLIC	?w_color@CInifile@@QEAAXPEBD0I0@Z		; CInifile::w_color
pdata	SEGMENT
$pdata$?w_color@CInifile@@QEAAXPEBD0I0@Z DD imagerel $LN11
	DD	imagerel $LN11+145
	DD	imagerel $unwind$?w_color@CInifile@@QEAAXPEBD0I0@Z
pdata	ENDS
xdata	SEGMENT
$unwind$?w_color@CInifile@@QEAAXPEBD0I0@Z DD 071201H
	DD	01b6412H
	DD	01a3412H
	DD	0180112H
	DD	0700bH
; Function compile flags: /Ogtpy
xdata	ENDS
_TEXT	SEGMENT
temp$ = 64
this$ = 208
S$ = 216
L$ = 224
V$ = 232
comment$ = 240
?w_color@CInifile@@QEAAXPEBD0I0@Z PROC			; CInifile::w_color

; 586  : {

$LN11:
	mov	QWORD PTR [rsp+8], rbx
	mov	QWORD PTR [rsp+16], rsi
	push	rdi
	sub	rsp, 192				; 000000c0H
	mov	rsi, rcx

; 587  : 	string128 temp; sprintf_s		(temp,sizeof(temp),"%d,%d,%d,%d", color_get_R(V), color_get_G(V), color_get_B(V), color_get_A(V));

	mov	ecx, r9d
	mov	eax, r9d
	movzx	r11d, r9b
	shr	ecx, 24
	shr	eax, 8
	mov	DWORD PTR [rsp+48], ecx
	mov	rbx, r8
	shr	r9d, 16
	mov	rdi, rdx
	movzx	r10d, al
	mov	DWORD PTR [rsp+40], r11d
	lea	rcx, QWORD PTR temp$[rsp]
	lea	r8, OFFSET FLAT:??_C@_0M@MLCONGPP@?$CFd?0?$CFd?0?$CFd?0?$CFd?$AA@
	movzx	r9d, r9b
	mov	edx, 128				; 00000080H
	mov	DWORD PTR [rsp+32], r10d
	call	QWORD PTR __imp_sprintf_s

; 588  : 	w_string	(S,L,temp,comment);

	mov	r11, QWORD PTR comment$[rsp]
	lea	r9, QWORD PTR temp$[rsp]
	mov	r8, rbx
	mov	rdx, rdi
	mov	rcx, rsi
	mov	QWORD PTR [rsp+32], r11
	call	?w_string@CInifile@@QEAAXPEBD000@Z	; CInifile::w_string

; 589  : }

	lea	r11, QWORD PTR [rsp+192]
	mov	rbx, QWORD PTR [r11+16]
	mov	rsi, QWORD PTR [r11+24]
	mov	rsp, r11
	pop	rdi
	ret	0
?w_color@CInifile@@QEAAXPEBD0I0@Z ENDP			; CInifile::w_color
_TEXT	ENDS
PUBLIC	?w_fcolor@CInifile@@QEAAXPEBD0AEBU?$_color@M@@0@Z ; CInifile::w_fcolor
pdata	SEGMENT
$pdata$?w_fcolor@CInifile@@QEAAXPEBD0AEBU?$_color@M@@0@Z DD imagerel $LN3
	DD	imagerel $LN3+161
	DD	imagerel $unwind$?w_fcolor@CInifile@@QEAAXPEBD0AEBU?$_color@M@@0@Z
pdata	ENDS
xdata	SEGMENT
$unwind$?w_fcolor@CInifile@@QEAAXPEBD0AEBU?$_color@M@@0@Z DD 071201H
	DD	01b6412H
	DD	01a3412H
	DD	0180112H
	DD	0700bH
; Function compile flags: /Ogtpy
xdata	ENDS
_TEXT	SEGMENT
temp$ = 64
this$ = 208
S$ = 216
L$ = 224
V$ = 232
comment$ = 240
?w_fcolor@CInifile@@QEAAXPEBD0AEBU?$_color@M@@0@Z PROC	; CInifile::w_fcolor

; 580  : {

$LN3:
	mov	QWORD PTR [rsp+8], rbx
	mov	QWORD PTR [rsp+16], rsi
	push	rdi
	sub	rsp, 192				; 000000c0H

; 581  : 	string128 temp; sprintf_s		(temp,sizeof(temp),"%f,%f,%f,%f", V.r, V.g, V.b, V.a);

	movd	xmm3, DWORD PTR [r9]
	movd	xmm0, DWORD PTR [r9+12]
	movd	xmm1, DWORD PTR [r9+8]
	mov	rbx, r8
	mov	rsi, rcx
	mov	rdi, rdx
	lea	r8, OFFSET FLAT:??_C@_0M@JJJBFJKB@?$CFf?0?$CFf?0?$CFf?0?$CFf?$AA@
	lea	rcx, QWORD PTR temp$[rsp]
	mov	edx, 128				; 00000080H
	cvtps2pd xmm3, xmm3
	cvtps2pd xmm0, xmm0
	cvtps2pd xmm1, xmm1
	movd	xmm2, DWORD PTR [r9+4]
	movd	r9, xmm3
	movsdx	QWORD PTR [rsp+48], xmm0
	movsdx	QWORD PTR [rsp+40], xmm1
	cvtps2pd xmm2, xmm2
	movsdx	QWORD PTR [rsp+32], xmm2
	call	QWORD PTR __imp_sprintf_s

; 582  : 	w_string	(S,L,temp,comment);

	mov	r11, QWORD PTR comment$[rsp]
	lea	r9, QWORD PTR temp$[rsp]
	mov	r8, rbx
	mov	rdx, rdi
	mov	rcx, rsi
	mov	QWORD PTR [rsp+32], r11
	call	?w_string@CInifile@@QEAAXPEBD000@Z	; CInifile::w_string

; 583  : }

	lea	r11, QWORD PTR [rsp+192]
	mov	rbx, QWORD PTR [r11+16]
	mov	rsi, QWORD PTR [r11+24]
	mov	rsp, r11
	pop	rdi
	ret	0
?w_fcolor@CInifile@@QEAAXPEBD0AEBU?$_color@M@@0@Z ENDP	; CInifile::w_fcolor
_TEXT	ENDS
PUBLIC	?w_float@CInifile@@QEAAXPEBD0M0@Z		; CInifile::w_float
pdata	SEGMENT
$pdata$?w_float@CInifile@@QEAAXPEBD0M0@Z DD imagerel $LN3
	DD	imagerel $LN3+114
	DD	imagerel $unwind$?w_float@CInifile@@QEAAXPEBD0M0@Z
pdata	ENDS
xdata	SEGMENT
$unwind$?w_float@CInifile@@QEAAXPEBD0M0@Z DD 071201H
	DD	0196412H
	DD	0183412H
	DD	0160112H
	DD	0700bH
; Function compile flags: /Ogtpy
xdata	ENDS
_TEXT	SEGMENT
temp$ = 48
this$ = 192
S$ = 200
L$ = 208
V$ = 216
comment$ = 224
?w_float@CInifile@@QEAAXPEBD0M0@Z PROC			; CInifile::w_float

; 575  : {

$LN3:
	mov	QWORD PTR [rsp+8], rbx
	mov	QWORD PTR [rsp+16], rsi
	push	rdi
	sub	rsp, 176				; 000000b0H

; 576  : 	string128 temp; sprintf_s		(temp,sizeof(temp),"%f",V);

	unpcklps xmm3, xmm3
	mov	rbx, r8
	mov	rsi, rcx
	mov	rdi, rdx
	lea	r8, OFFSET FLAT:??_C@_02NJPGOMH@?$CFf?$AA@
	lea	rcx, QWORD PTR temp$[rsp]
	cvtps2pd xmm3, xmm3
	mov	edx, 128				; 00000080H
	movd	r9, xmm3
	call	QWORD PTR __imp_sprintf_s

; 577  : 	w_string	(S,L,temp,comment);

	mov	r11, QWORD PTR comment$[rsp]
	lea	r9, QWORD PTR temp$[rsp]
	mov	r8, rbx
	mov	rdx, rdi
	mov	rcx, rsi
	mov	QWORD PTR [rsp+32], r11
	call	?w_string@CInifile@@QEAAXPEBD000@Z	; CInifile::w_string

; 578  : }

	lea	r11, QWORD PTR [rsp+176]
	mov	rbx, QWORD PTR [r11+16]
	mov	rsi, QWORD PTR [r11+24]
	mov	rsp, r11
	pop	rdi
	ret	0
?w_float@CInifile@@QEAAXPEBD0M0@Z ENDP			; CInifile::w_float
_TEXT	ENDS
PUBLIC	?w_s32@CInifile@@QEAAXPEBD0H0@Z			; CInifile::w_s32
pdata	SEGMENT
$pdata$?w_s32@CInifile@@QEAAXPEBD0H0@Z DD imagerel $LN3
	DD	imagerel $LN3+103
	DD	imagerel $unwind$?w_s32@CInifile@@QEAAXPEBD0H0@Z
pdata	ENDS
xdata	SEGMENT
$unwind$?w_s32@CInifile@@QEAAXPEBD0H0@Z DD 071201H
	DD	0196412H
	DD	0183412H
	DD	0160112H
	DD	0700bH
; Function compile flags: /Ogtpy
xdata	ENDS
_TEXT	SEGMENT
temp$ = 48
this$ = 192
S$ = 200
L$ = 208
V$ = 216
comment$ = 224
?w_s32@CInifile@@QEAAXPEBD0H0@Z PROC			; CInifile::w_s32

; 570  : {

$LN3:
	mov	QWORD PTR [rsp+8], rbx
	mov	QWORD PTR [rsp+16], rsi
	push	rdi
	sub	rsp, 176				; 000000b0H
	mov	rbx, r8
	mov	rsi, rcx
	mov	rdi, rdx

; 571  : 	string128 temp; sprintf_s		(temp,sizeof(temp),"%d",V);

	lea	r8, OFFSET FLAT:??_C@_02DPKJAMEF@?$CFd?$AA@
	lea	rcx, QWORD PTR temp$[rsp]
	mov	edx, 128				; 00000080H
	call	QWORD PTR __imp_sprintf_s

; 572  : 	w_string	(S,L,temp,comment);

	mov	r11, QWORD PTR comment$[rsp]
	lea	r9, QWORD PTR temp$[rsp]
	mov	r8, rbx
	mov	rdx, rdi
	mov	rcx, rsi
	mov	QWORD PTR [rsp+32], r11
	call	?w_string@CInifile@@QEAAXPEBD000@Z	; CInifile::w_string

; 573  : }

	lea	r11, QWORD PTR [rsp+176]
	mov	rbx, QWORD PTR [r11+16]
	mov	rsi, QWORD PTR [r11+24]
	mov	rsp, r11
	pop	rdi
	ret	0
?w_s32@CInifile@@QEAAXPEBD0H0@Z ENDP			; CInifile::w_s32
_TEXT	ENDS
PUBLIC	?w_s16@CInifile@@QEAAXPEBD0F0@Z			; CInifile::w_s16
pdata	SEGMENT
$pdata$?w_s16@CInifile@@QEAAXPEBD0F0@Z DD imagerel $LN3
	DD	imagerel $LN3+107
	DD	imagerel $unwind$?w_s16@CInifile@@QEAAXPEBD0F0@Z
pdata	ENDS
xdata	SEGMENT
$unwind$?w_s16@CInifile@@QEAAXPEBD0F0@Z DD 071201H
	DD	0196412H
	DD	0183412H
	DD	0160112H
	DD	0700bH
; Function compile flags: /Ogtpy
xdata	ENDS
_TEXT	SEGMENT
temp$ = 48
this$ = 192
S$ = 200
L$ = 208
V$ = 216
comment$ = 224
?w_s16@CInifile@@QEAAXPEBD0F0@Z PROC			; CInifile::w_s16

; 565  : {

$LN3:
	mov	QWORD PTR [rsp+8], rbx
	mov	QWORD PTR [rsp+16], rsi
	push	rdi
	sub	rsp, 176				; 000000b0H
	mov	rbx, r8
	mov	rsi, rcx
	mov	rdi, rdx

; 566  : 	string128 temp; sprintf_s		(temp,sizeof(temp),"%d",V);

	lea	r8, OFFSET FLAT:??_C@_02DPKJAMEF@?$CFd?$AA@
	lea	rcx, QWORD PTR temp$[rsp]
	movsx	r9d, r9w
	mov	edx, 128				; 00000080H
	call	QWORD PTR __imp_sprintf_s

; 567  : 	w_string	(S,L,temp,comment);

	mov	r11, QWORD PTR comment$[rsp]
	lea	r9, QWORD PTR temp$[rsp]
	mov	r8, rbx
	mov	rdx, rdi
	mov	rcx, rsi
	mov	QWORD PTR [rsp+32], r11
	call	?w_string@CInifile@@QEAAXPEBD000@Z	; CInifile::w_string

; 568  : }

	lea	r11, QWORD PTR [rsp+176]
	mov	rbx, QWORD PTR [r11+16]
	mov	rsi, QWORD PTR [r11+24]
	mov	rsp, r11
	pop	rdi
	ret	0
?w_s16@CInifile@@QEAAXPEBD0F0@Z ENDP			; CInifile::w_s16
_TEXT	ENDS
PUBLIC	?w_s8@CInifile@@QEAAXPEBD0C0@Z			; CInifile::w_s8
pdata	SEGMENT
$pdata$?w_s8@CInifile@@QEAAXPEBD0C0@Z DD imagerel $LN3
	DD	imagerel $LN3+107
	DD	imagerel $unwind$?w_s8@CInifile@@QEAAXPEBD0C0@Z
pdata	ENDS
xdata	SEGMENT
$unwind$?w_s8@CInifile@@QEAAXPEBD0C0@Z DD 071201H
	DD	0196412H
	DD	0183412H
	DD	0160112H
	DD	0700bH
; Function compile flags: /Ogtpy
xdata	ENDS
_TEXT	SEGMENT
temp$ = 48
this$ = 192
S$ = 200
L$ = 208
V$ = 216
comment$ = 224
?w_s8@CInifile@@QEAAXPEBD0C0@Z PROC			; CInifile::w_s8

; 560  : {

$LN3:
	mov	QWORD PTR [rsp+8], rbx
	mov	QWORD PTR [rsp+16], rsi
	push	rdi
	sub	rsp, 176				; 000000b0H
	mov	rbx, r8
	mov	rsi, rcx
	mov	rdi, rdx

; 561  : 	string128 temp; sprintf_s		(temp,sizeof(temp),"%d",V);

	lea	r8, OFFSET FLAT:??_C@_02DPKJAMEF@?$CFd?$AA@
	lea	rcx, QWORD PTR temp$[rsp]
	movsx	r9d, r9b
	mov	edx, 128				; 00000080H
	call	QWORD PTR __imp_sprintf_s

; 562  : 	w_string	(S,L,temp,comment);

	mov	r11, QWORD PTR comment$[rsp]
	lea	r9, QWORD PTR temp$[rsp]
	mov	r8, rbx
	mov	rdx, rdi
	mov	rcx, rsi
	mov	QWORD PTR [rsp+32], r11
	call	?w_string@CInifile@@QEAAXPEBD000@Z	; CInifile::w_string

; 563  : }

	lea	r11, QWORD PTR [rsp+176]
	mov	rbx, QWORD PTR [r11+16]
	mov	rsi, QWORD PTR [r11+24]
	mov	rsp, r11
	pop	rdi
	ret	0
?w_s8@CInifile@@QEAAXPEBD0C0@Z ENDP			; CInifile::w_s8
_TEXT	ENDS
PUBLIC	?w_u32@CInifile@@QEAAXPEBD0I0@Z			; CInifile::w_u32
pdata	SEGMENT
$pdata$?w_u32@CInifile@@QEAAXPEBD0I0@Z DD imagerel $LN3
	DD	imagerel $LN3+103
	DD	imagerel $unwind$?w_u32@CInifile@@QEAAXPEBD0I0@Z
pdata	ENDS
xdata	SEGMENT
$unwind$?w_u32@CInifile@@QEAAXPEBD0I0@Z DD 071201H
	DD	0196412H
	DD	0183412H
	DD	0160112H
	DD	0700bH
; Function compile flags: /Ogtpy
xdata	ENDS
_TEXT	SEGMENT
temp$ = 48
this$ = 192
S$ = 200
L$ = 208
V$ = 216
comment$ = 224
?w_u32@CInifile@@QEAAXPEBD0I0@Z PROC			; CInifile::w_u32

; 555  : {

$LN3:
	mov	QWORD PTR [rsp+8], rbx
	mov	QWORD PTR [rsp+16], rsi
	push	rdi
	sub	rsp, 176				; 000000b0H
	mov	rbx, r8
	mov	rsi, rcx
	mov	rdi, rdx

; 556  : 	string128 temp; sprintf_s		(temp,sizeof(temp),"%d",V);

	lea	r8, OFFSET FLAT:??_C@_02DPKJAMEF@?$CFd?$AA@
	lea	rcx, QWORD PTR temp$[rsp]
	mov	edx, 128				; 00000080H
	call	QWORD PTR __imp_sprintf_s

; 557  : 	w_string	(S,L,temp,comment);

	mov	r11, QWORD PTR comment$[rsp]
	lea	r9, QWORD PTR temp$[rsp]
	mov	r8, rbx
	mov	rdx, rdi
	mov	rcx, rsi
	mov	QWORD PTR [rsp+32], r11
	call	?w_string@CInifile@@QEAAXPEBD000@Z	; CInifile::w_string

; 558  : }

	lea	r11, QWORD PTR [rsp+176]
	mov	rbx, QWORD PTR [r11+16]
	mov	rsi, QWORD PTR [r11+24]
	mov	rsp, r11
	pop	rdi
	ret	0
?w_u32@CInifile@@QEAAXPEBD0I0@Z ENDP			; CInifile::w_u32
_TEXT	ENDS
PUBLIC	?w_u16@CInifile@@QEAAXPEBD0G0@Z			; CInifile::w_u16
pdata	SEGMENT
$pdata$?w_u16@CInifile@@QEAAXPEBD0G0@Z DD imagerel $LN3
	DD	imagerel $LN3+107
	DD	imagerel $unwind$?w_u16@CInifile@@QEAAXPEBD0G0@Z
pdata	ENDS
xdata	SEGMENT
$unwind$?w_u16@CInifile@@QEAAXPEBD0G0@Z DD 071201H
	DD	0196412H
	DD	0183412H
	DD	0160112H
	DD	0700bH
; Function compile flags: /Ogtpy
xdata	ENDS
_TEXT	SEGMENT
temp$ = 48
this$ = 192
S$ = 200
L$ = 208
V$ = 216
comment$ = 224
?w_u16@CInifile@@QEAAXPEBD0G0@Z PROC			; CInifile::w_u16

; 550  : {

$LN3:
	mov	QWORD PTR [rsp+8], rbx
	mov	QWORD PTR [rsp+16], rsi
	push	rdi
	sub	rsp, 176				; 000000b0H
	mov	rbx, r8
	mov	rsi, rcx
	mov	rdi, rdx

; 551  : 	string128 temp; sprintf_s		(temp,sizeof(temp),"%d",V);

	lea	r8, OFFSET FLAT:??_C@_02DPKJAMEF@?$CFd?$AA@
	lea	rcx, QWORD PTR temp$[rsp]
	movzx	r9d, r9w
	mov	edx, 128				; 00000080H
	call	QWORD PTR __imp_sprintf_s

; 552  : 	w_string	(S,L,temp,comment);

	mov	r11, QWORD PTR comment$[rsp]
	lea	r9, QWORD PTR temp$[rsp]
	mov	r8, rbx
	mov	rdx, rdi
	mov	rcx, rsi
	mov	QWORD PTR [rsp+32], r11
	call	?w_string@CInifile@@QEAAXPEBD000@Z	; CInifile::w_string

; 553  : }

	lea	r11, QWORD PTR [rsp+176]
	mov	rbx, QWORD PTR [r11+16]
	mov	rsi, QWORD PTR [r11+24]
	mov	rsp, r11
	pop	rdi
	ret	0
?w_u16@CInifile@@QEAAXPEBD0G0@Z ENDP			; CInifile::w_u16
_TEXT	ENDS
PUBLIC	?w_u8@CInifile@@QEAAXPEBD0E0@Z			; CInifile::w_u8
pdata	SEGMENT
$pdata$?w_u8@CInifile@@QEAAXPEBD0E0@Z DD imagerel $LN3
	DD	imagerel $LN3+107
	DD	imagerel $unwind$?w_u8@CInifile@@QEAAXPEBD0E0@Z
pdata	ENDS
xdata	SEGMENT
$unwind$?w_u8@CInifile@@QEAAXPEBD0E0@Z DD 071201H
	DD	0196412H
	DD	0183412H
	DD	0160112H
	DD	0700bH
; Function compile flags: /Ogtpy
xdata	ENDS
_TEXT	SEGMENT
temp$ = 48
this$ = 192
S$ = 200
L$ = 208
V$ = 216
comment$ = 224
?w_u8@CInifile@@QEAAXPEBD0E0@Z PROC			; CInifile::w_u8

; 545  : {

$LN3:
	mov	QWORD PTR [rsp+8], rbx
	mov	QWORD PTR [rsp+16], rsi
	push	rdi
	sub	rsp, 176				; 000000b0H
	mov	rbx, r8
	mov	rsi, rcx
	mov	rdi, rdx

; 546  : 	string128 temp; sprintf_s		(temp,sizeof(temp),"%d",V);

	lea	r8, OFFSET FLAT:??_C@_02DPKJAMEF@?$CFd?$AA@
	lea	rcx, QWORD PTR temp$[rsp]
	movzx	r9d, r9b
	mov	edx, 128				; 00000080H
	call	QWORD PTR __imp_sprintf_s

; 547  : 	w_string	(S,L,temp,comment);

	mov	r11, QWORD PTR comment$[rsp]
	lea	r9, QWORD PTR temp$[rsp]
	mov	r8, rbx
	mov	rdx, rdi
	mov	rcx, rsi
	mov	QWORD PTR [rsp+32], r11
	call	?w_string@CInifile@@QEAAXPEBD000@Z	; CInifile::w_string

; 548  : }

	lea	r11, QWORD PTR [rsp+176]
	mov	rbx, QWORD PTR [r11+16]
	mov	rsi, QWORD PTR [r11+24]
	mov	rsp, r11
	pop	rdi
	ret	0
?w_u8@CInifile@@QEAAXPEBD0E0@Z ENDP			; CInifile::w_u8
PUBLIC	?save_as@CInifile@@QEAA_NPEBD@Z			; CInifile::save_as
pdata	SEGMENT
$pdata$?save_as@CInifile@@QEAA_NPEBD@Z DD imagerel $LN196
	DD	imagerel $LN196+271
	DD	imagerel $unwind$?save_as@CInifile@@QEAA_NPEBD@Z
$pdata$0$?save_as@CInifile@@QEAA_NPEBD@Z DD imagerel $LN196+271
	DD	imagerel $LN196+1003
	DD	imagerel $chain$0$?save_as@CInifile@@QEAA_NPEBD@Z
$pdata$1$?save_as@CInifile@@QEAA_NPEBD@Z DD imagerel $LN196+1003
	DD	imagerel $LN196+1020
	DD	imagerel $chain$1$?save_as@CInifile@@QEAA_NPEBD@Z
pdata	ENDS
xdata	SEGMENT
$unwind$?save_as@CInifile@@QEAA_NPEBD@Z DD 071701H
	DD	08c0117H
	DD	0c006d008H
	DD	030037004H
	DD	05002H
$chain$0$?save_as@CInifile@@QEAA_NPEBD@Z DD 020821H
	DD	0946408H
	DD	imagerel $LN196
	DD	imagerel $LN196+271
	DD	imagerel $unwind$?save_as@CInifile@@QEAA_NPEBD@Z
$chain$1$?save_as@CInifile@@QEAA_NPEBD@Z DD 021H
	DD	imagerel $LN196
	DD	imagerel $LN196+271
	DD	imagerel $unwind$?save_as@CInifile@@QEAA_NPEBD@Z
; Function compile flags: /Ogtpy
xdata	ENDS
_TEXT	SEGMENT
temp$97446 = 80
fname$344348 = 592
val$97447 = 592
$T344673 = 1168
$T344669 = 1168
$T344651 = 1168
$T344647 = 1168
$T344460 = 1168
$T344456 = 1168
this$ = 1168
F$ = 1176
new_fname$ = 1176
?save_as@CInifile@@QEAA_NPEBD@Z PROC			; CInifile::save_as

; 242  : {

$LN196:
	push	rbp
	push	rbx
	push	rdi
	push	r12
	push	r13
	lea	rbp, QWORD PTR [rsp-864]
	sub	rsp, 1120				; 00000460H
	mov	rbx, rdx
	mov	r13, rcx

; 243  : 	// save if needed
; 244  :     if (new_fname&&new_fname[0]){

	test	rdx, rdx
	je	SHORT $LN17@save_as
	cmp	BYTE PTR [rdx], 0
	je	SHORT $LN17@save_as

; 245  :         xr_free			(fName);

	cmp	QWORD PTR [rcx+8], 0
	je	SHORT $LN21@save_as
	add	rcx, 8
	call	??$xr_free@D@@YAXAEAPEAD@Z		; xr_free<char>
$LN21@save_as:

; 246  :         fName			= xr_strdup(new_fname);

	mov	rcx, rbx
	call	?xr_strdup@@YAPEADPEBD@Z		; xr_strdup
	mov	QWORD PTR [r13+8], rax
$LN17@save_as:

; 247  :     }
; 248  :     R_ASSERT			(fName&&fName[0]);

	cmp	BYTE PTR ?ignore_always@?6??save_as@CInifile@@QEAA_NPEBD@Z@4_NA, 0
	jne	SHORT $LN16@save_as
	mov	rax, QWORD PTR [r13+8]
	test	rax, rax
	je	SHORT $LN13@save_as
	cmp	BYTE PTR [rax], 0
	jne	SHORT $LN16@save_as
$LN13@save_as:
	lea	rax, OFFSET FLAT:?ignore_always@?6??save_as@CInifile@@QEAA_NPEBD@Z@4_NA
	lea	r8, OFFSET FLAT:??_C@_0BA@HGOPAPJG@fName?$CG?$CGfName?$FL0?$FN?$AA@
	lea	rdx, OFFSET FLAT:??_C@_0BB@DBHFCHNO@assertion?5failed?$AA@
	mov	QWORD PTR [rsp+64], rax
	lea	rax, OFFSET FLAT:??_C@_0BC@LBCCFBEL@CInifile?3?3save_as?$AA@
	lea	rcx, OFFSET FLAT:?Debug@@3VxrDebug@@A	; Debug
	mov	QWORD PTR [rsp+56], rax
	lea	rax, OFFSET FLAT:??_C@_0L@BOCIKDOE@Xr_ini?4cpp?$AA@
	mov	DWORD PTR [rsp+48], 248			; 000000f8H
	mov	QWORD PTR [rsp+40], rax
	xor	r9d, r9d
	mov	QWORD PTR [rsp+32], 0
	call	?backend@xrDebug@@QEAAXPEBD0000H0AEA_N@Z ; xrDebug::backend
$LN16@save_as:

; 249  :     IWriter* F			= FS.w_open_ex(fName);

	mov	r8, QWORD PTR [r13+8]
	lea	rcx, QWORD PTR fname$344348[rbp-256]
	mov	edx, 520				; 00000208H
	call	QWORD PTR __imp_strcpy_s
	lea	rcx, QWORD PTR fname$344348[rbp-256]
	call	QWORD PTR __imp_strlwr
	lea	rcx, OFFSET FLAT:?Memory@@3VxrMemory@@A	; Memory
	mov	edx, 56					; 00000038H
	call	?mem_alloc@xrMemory@@QEAAPEAX_K@Z	; xrMemory::mem_alloc
	test	rax, rax
	je	SHORT $LN41@save_as
	lea	rdx, QWORD PTR fname$344348[rbp-256]
	mov	r8b, 1
	mov	rcx, rax
	call	??0CFileWriter@@QEAA@PEBD_N@Z		; CFileWriter::CFileWriter
	mov	r12, rax
	jmp	SHORT $LN42@save_as
$LN41@save_as:
	xor	r12d, r12d
$LN42@save_as:
	mov	QWORD PTR F$[rbp-256], r12

; 250  :     if (F){

	test	r12, r12
	je	$LN12@save_as

; 251  :         string512		temp,val;
; 252  :         for (RootIt r_it=DATA.begin(); r_it!=DATA.end(); ++r_it)

	mov	QWORD PTR [rsp+1184], rsi
	mov	rsi, QWORD PTR [r13+16]
	cmp	rsi, QWORD PTR [r13+24]
	je	$LN9@save_as
$LL55@save_as:

; 253  : 		{
; 254  :             sprintf_s		(temp,sizeof(temp),"[%s]",*(*r_it)->Name);

	mov	rax, QWORD PTR [rsi]
	mov	rcx, QWORD PTR [rax]
	test	rcx, rcx
	je	SHORT $LN80@save_as
	lea	r9, QWORD PTR [rcx+12]
	jmp	SHORT $LN81@save_as
$LN80@save_as:
	xor	r9d, r9d
$LN81@save_as:
	lea	r8, OFFSET FLAT:??_C@_04LIFAFMCE@?$FL?$CFs?$FN?$AA@
	lea	rcx, QWORD PTR temp$97446[rsp]
	mov	edx, 512				; 00000200H
	call	QWORD PTR __imp_sprintf_s

; 255  :             F->w_string	(temp);

	mov	r11, QWORD PTR [r12]
	or	rcx, -1
	xor	eax, eax
	lea	rdi, QWORD PTR temp$97446[rsp]
	lea	rdx, QWORD PTR temp$97446[rsp]
	repne scasb
	not	rcx
	lea	r8, QWORD PTR [rcx-1]
	mov	rcx, r12
	call	QWORD PTR [r11+24]
	mov	rax, QWORD PTR [r12]
	lea	rdx, QWORD PTR $T344456[rbp-256]
	mov	r8d, 1
	mov	rcx, r12
	mov	BYTE PTR $T344456[rbp-256], 13
	call	QWORD PTR [rax+24]
	mov	rax, QWORD PTR [r12]
	lea	rdx, QWORD PTR $T344460[rbp-256]
	mov	r8d, 1
	mov	rcx, r12
	mov	BYTE PTR $T344460[rbp-256], 10
	call	QWORD PTR [rax+24]

; 256  :             for (SectCIt s_it=(*r_it)->Data.begin(); s_it!=(*r_it)->Data.end(); ++s_it)

	mov	rdx, QWORD PTR [rsi]
	mov	rbx, QWORD PTR [rdx+8]
	cmp	rbx, QWORD PTR [rdx+16]
	je	$LN6@save_as
$LL111@save_as:

; 257  :             {
; 258  :                 const Item&	I = *s_it;
; 259  :                 if (*I.first) {

	mov	rax, QWORD PTR [rbx]
	test	rax, rax
	je	$LN5@save_as
	add	rax, 12
	je	$LN5@save_as

; 260  :                     if (*I.second) {

	mov	rdx, QWORD PTR [rbx+8]
	test	rdx, rdx
	je	$LN4@save_as
	add	rdx, 12
	je	$LN4@save_as

; 261  :                         _decorate	(val,*I.second);

	movzx	edi, BYTE PTR [rdx]
	xor	r8d, r8d
	lea	rcx, QWORD PTR val$97447[rbp-256]
	test	dil, dil
	je	SHORT $LN150@save_as
$LL151@save_as:
	cmp	dil, 44					; 0000002cH
	jne	SHORT $LN149@save_as
	test	r8d, r8d
	je	SHORT $LN148@save_as
	mov	BYTE PTR [rcx], dil
	jmp	SHORT $LN195@save_as
$LN148@save_as:
	inc	rdx
	mov	WORD PTR [rcx], 8236			; 0000202cH
	add	rcx, 2
	jmp	SHORT $LN190@save_as
$LN149@save_as:
	cmp	dil, 34					; 00000022H
	jne	SHORT $LN145@save_as
	xor	eax, eax
	test	r8d, r8d
	sete	al
	mov	r8d, eax
$LN145@save_as:
	mov	BYTE PTR [rcx], dil
$LN195@save_as:
	inc	rcx
	inc	rdx
$LN190@save_as:
	movzx	edi, BYTE PTR [rdx]
	test	dil, dil
	jne	SHORT $LL151@save_as
$LN150@save_as:
	mov	BYTE PTR [rcx], 0

; 262  : #ifdef DEBUG
; 263  :                         if (*I.comment) {
; 264  :                             // name, value and comment
; 265  :                             sprintf_s	(temp,sizeof(temp),"%8s%-32s = %-32s ;%s"," ",*I.first,val,*I.comment);
; 266  :                         } else
; 267  : #endif
; 268  : 						{
; 269  :                             // only name and value
; 270  :                             sprintf_s	(temp,sizeof(temp),"%8s%-32s = %-32s"," ",*I.first,val);

	mov	rax, QWORD PTR [rbx]
	test	rax, rax
	je	SHORT $LN158@save_as
	add	rax, 12
$LN158@save_as:
	lea	rcx, QWORD PTR val$97447[rbp-256]
	lea	r9, OFFSET FLAT:??_C@_01CLKCMJKC@?5?$AA@
	lea	r8, OFFSET FLAT:??_C@_0BB@DGLKGBOG@?$CF8s?$CF?932s?5?$DN?5?$CF?932s?$AA@
	mov	QWORD PTR [rsp+40], rcx
	lea	rcx, QWORD PTR temp$97446[rsp]
	mov	edx, 512				; 00000200H
	mov	QWORD PTR [rsp+32], rax
	call	QWORD PTR __imp_sprintf_s

; 271  :                         }
; 272  :                     } else {

	jmp	SHORT $LN2@save_as
$LN4@save_as:

; 273  : #ifdef DEBUG
; 274  :                         if (*I.comment) {
; 275  :                             // name and comment
; 276  :                             sprintf_s(temp,sizeof(temp),"%8s%-32s = ;%s"," ",*I.first,*I.comment);
; 277  :                         } else
; 278  : #endif
; 279  : 						{
; 280  :                             // only name
; 281  :                             sprintf_s(temp,sizeof(temp),"%8s%-32s = "," ",*I.first);

	lea	r9, OFFSET FLAT:??_C@_01CLKCMJKC@?5?$AA@
	lea	r8, OFFSET FLAT:??_C@_0M@FGDEMPPI@?$CF8s?$CF?932s?5?$DN?5?$AA@
	lea	rcx, QWORD PTR temp$97446[rsp]
	mov	edx, 512				; 00000200H
	mov	QWORD PTR [rsp+32], rax
	call	QWORD PTR __imp_sprintf_s

; 282  :                         }
; 283  :                     }
; 284  :                 } else {

	jmp	SHORT $LN2@save_as
$LN5@save_as:

; 285  :                     // no name, so no value
; 286  : #ifdef DEBUG
; 287  :                     if (*I.comment)
; 288  : 						sprintf_s		(temp,sizeof(temp),"%8s;%s"," ",*I.comment);
; 289  :                     else
; 290  : #endif
; 291  : 						temp[0]		= 0;

	mov	BYTE PTR temp$97446[rsp], 0
$LN2@save_as:

; 292  :                 }
; 293  :                 _TrimRight			(temp);

	xor	eax, eax
	or	rcx, -1
	lea	rdi, QWORD PTR temp$97446[rsp]
	repne scasb
	not	rcx
	lea	rax, QWORD PTR [rcx-1]
	mov	eax, eax
	lea	rcx, QWORD PTR temp$97446[rsp+rax]
	lea	rax, QWORD PTR temp$97446[rsp]
	cmp	rcx, rax
	je	SHORT $LN194@save_as
	npad	1
$LL164@save_as:
	cmp	BYTE PTR [rcx], 32			; 00000020H
	ja	SHORT $LN194@save_as
	lea	rax, QWORD PTR temp$97446[rsp]
	dec	rcx
	cmp	rcx, rax
	jne	SHORT $LL164@save_as
$LN194@save_as:
	mov	BYTE PTR [rcx+1], 0

; 294  :                 if (temp[0])		F->w_string	(temp);

	cmp	BYTE PTR temp$97446[rsp], 0
	je	SHORT $LN7@save_as
	mov	r9, QWORD PTR [r12]
	or	rcx, -1
	xor	eax, eax
	lea	rdi, QWORD PTR temp$97446[rsp]
	lea	rdx, QWORD PTR temp$97446[rsp]
	repne scasb
	not	rcx
	lea	r8, QWORD PTR [rcx-1]
	mov	rcx, r12
	call	QWORD PTR [r9+24]
	mov	rax, QWORD PTR [r12]
	lea	rdx, QWORD PTR $T344647[rbp-256]
	mov	r8d, 1
	mov	rcx, r12
	mov	BYTE PTR $T344647[rbp-256], 13
	call	QWORD PTR [rax+24]
	mov	rax, QWORD PTR [r12]
	lea	rdx, QWORD PTR $T344651[rbp-256]
	mov	r8d, 1
	mov	rcx, r12
	mov	BYTE PTR $T344651[rbp-256], 10
	call	QWORD PTR [rax+24]
$LN7@save_as:

; 256  :             for (SectCIt s_it=(*r_it)->Data.begin(); s_it!=(*r_it)->Data.end(); ++s_it)

	mov	rax, QWORD PTR [rsi]
	add	rbx, 16
	cmp	rbx, QWORD PTR [rax+16]
	jne	$LL111@save_as
$LN6@save_as:

; 295  :             }
; 296  :             F->w_string		(" ");

	mov	rax, QWORD PTR [r12]
	lea	rdx, OFFSET FLAT:??_C@_01CLKCMJKC@?5?$AA@
	mov	r8d, 1
	mov	rcx, r12
	call	QWORD PTR [rax+24]
	mov	rax, QWORD PTR [r12]
	lea	rdx, QWORD PTR $T344669[rbp-256]
	mov	r8d, 1
	mov	rcx, r12
	mov	BYTE PTR $T344669[rbp-256], 13
	call	QWORD PTR [rax+24]
	mov	rax, QWORD PTR [r12]
	lea	rdx, QWORD PTR $T344673[rbp-256]
	mov	r8d, 1
	mov	rcx, r12
	mov	BYTE PTR $T344673[rbp-256], 10
	call	QWORD PTR [rax+24]
	add	rsi, 8
	cmp	rsi, QWORD PTR [r13+24]
	jne	$LL55@save_as
$LN9@save_as:

; 297  :         }
; 298  :         FS.w_close			(F);

	mov	rcx, QWORD PTR ?xr_FS@@3PEAVCLocatorAPI@@EA ; xr_FS
	lea	rdx, QWORD PTR F$[rbp-256]
	call	?w_close@CLocatorAPI@@QEAAXAEAPEAVIWriter@@@Z ; CLocatorAPI::w_close
	mov	rsi, QWORD PTR [rsp+1184]

; 299  : 	    return true;

	mov	al, 1

; 302  : }

	add	rsp, 1120				; 00000460H
	pop	r13
	pop	r12
	pop	rdi
	pop	rbx
	pop	rbp
	ret	0
$LN12@save_as:

; 300  :     }
; 301  :     return false;

	xor	al, al

; 302  : }

	add	rsp, 1120				; 00000460H
	pop	r13
	pop	r12
	pop	rdi
	pop	rbx
	pop	rbp
	ret	0
?save_as@CInifile@@QEAA_NPEBD@Z ENDP			; CInifile::save_as
_TEXT	ENDS
PUBLIC	??1CInifile@@UEAA@XZ				; CInifile::~CInifile
pdata	SEGMENT
$pdata$??1CInifile@@UEAA@XZ DD imagerel $LN92
	DD	imagerel $LN92+189
	DD	imagerel $unwind$??1CInifile@@UEAA@XZ
$pdata$0$??1CInifile@@UEAA@XZ DD imagerel $LN92+189
	DD	imagerel $LN92+241
	DD	imagerel $chain$0$??1CInifile@@UEAA@XZ
$pdata$1$??1CInifile@@UEAA@XZ DD imagerel $LN92+241
	DD	imagerel $LN92+275
	DD	imagerel $chain$1$??1CInifile@@UEAA@XZ
pdata	ENDS
xdata	SEGMENT
$unwind$??1CInifile@@UEAA@XZ DD 081501H
	DD	097415H
	DD	086415H
	DD	073415H
	DD	0c0113215H
$chain$0$??1CInifile@@UEAA@XZ DD 020521H
	DD	065405H
	DD	imagerel $LN92
	DD	imagerel $LN92+189
	DD	imagerel $unwind$??1CInifile@@UEAA@XZ
$chain$1$??1CInifile@@UEAA@XZ DD 021H
	DD	imagerel $LN92
	DD	imagerel $LN92+189
	DD	imagerel $unwind$??1CInifile@@UEAA@XZ
; Function compile flags: /Ogtpy
xdata	ENDS
_TEXT	SEGMENT
this$ = 48
??1CInifile@@UEAA@XZ PROC				; CInifile::~CInifile

; 103  : {

$LN92:
	mov	QWORD PTR [rsp+16], rbx
	mov	QWORD PTR [rsp+24], rsi
	mov	QWORD PTR [rsp+32], rdi
	push	r12
	sub	rsp, 32					; 00000020H

; 104  : 	if (!bReadOnly&&bSaveAtEnd) {

	cmp	DWORD PTR [rcx+48], 0
	lea	rax, OFFSET FLAT:??_7CInifile@@6B@
	mov	rsi, rcx
	mov	QWORD PTR [rcx], rax
	jne	SHORT $LN4@CInifile
	cmp	DWORD PTR [rcx+52], 0
	je	SHORT $LN4@CInifile

; 105  : 		if (!save_as())

	xor	edx, edx
	call	?save_as@CInifile@@QEAA_NPEBD@Z		; CInifile::save_as
	test	al, al
	jne	SHORT $LN4@CInifile

; 106  : 			Log		("!Can't save inifile:",fName);

	mov	rdx, QWORD PTR [rsi+8]
	lea	rcx, OFFSET FLAT:??_C@_0BF@HIBEFMCL@?$CBCan?8t?5save?5inifile?3?$AA@
	call	?Log@@YAXPEBD0@Z			; Log
$LN4@CInifile:

; 107  : 	}
; 108  : 
; 109  : 	xr_free			(fName);

	cmp	QWORD PTR [rsi+8], 0
	lea	rcx, QWORD PTR [rsi+8]
	je	SHORT $LN8@CInifile
	call	??$xr_free@D@@YAXAEAPEAD@Z		; xr_free<char>
$LN8@CInifile:

; 110  : 
; 111  : 	RootIt			I = DATA.begin();

	mov	rbx, QWORD PTR [rsi+16]

; 112  : 	RootIt			E = DATA.end();

	mov	rdi, QWORD PTR [rsi+24]

; 113  : 	for ( ; I != E; ++I)

	xor	r12d, r12d
	cmp	rbx, rdi
	je	SHORT $LN1@CInifile
	npad	7
$LL31@CInifile:

; 114  : 		xr_delete	(*I);

	cmp	QWORD PTR [rbx], r12
	je	SHORT $LN2@CInifile
	mov	rcx, rbx
	call	??R?$xr_special_free@$0A@USect@CInifile@@@@QEAAXAEAPEAUSect@CInifile@@@Z ; xr_special_free<0,CInifile::Sect>::operator()
	mov	QWORD PTR [rbx], r12
$LN2@CInifile:

; 113  : 	for ( ; I != E; ++I)

	add	rbx, 8
	cmp	rbx, rdi
	jne	SHORT $LL31@CInifile
$LN1@CInifile:

; 115  : }

	mov	rdi, QWORD PTR [rsi+16]
	test	rdi, rdi
	je	SHORT $LN86@CInifile
	inc	DWORD PTR ?Memory@@3VxrMemory@@A
	movzx	eax, BYTE PTR [rdi-1]
	dec	rdi
	cmp	eax, 55					; 00000037H
	jne	SHORT $LN65@CInifile
	test	rdi, rdi
	je	SHORT $LN86@CInifile
	and	rdi, -8
	mov	rcx, QWORD PTR [rdi-8]
	call	QWORD PTR __imp_free
	jmp	SHORT $LN86@CInifile
$LN65@CInifile:
	lea	rbx, QWORD PTR [rax+rax*4]
	mov	QWORD PTR [rsp+48], rbp
	lea	rbp, OFFSET FLAT:?mem_pools@@3PAVMEMPOOL@@A ; mem_pools
	mov	rcx, QWORD PTR [rbp+rbx*8]
	call	QWORD PTR __imp_EnterCriticalSection
	mov	rax, QWORD PTR [rbp+rbx*8+32]
	mov	QWORD PTR [rdi], rax
	mov	rcx, QWORD PTR [rbp+rbx*8]
	mov	QWORD PTR [rbp+rbx*8+32], rdi
	call	QWORD PTR __imp_LeaveCriticalSection
	mov	rbp, QWORD PTR [rsp+48]
$LN86@CInifile:
	mov	rbx, QWORD PTR [rsp+56]
	mov	rdi, QWORD PTR [rsp+72]
	mov	QWORD PTR [rsi+16], r12
	mov	QWORD PTR [rsi+24], r12
	mov	QWORD PTR [rsi+32], r12
	mov	rsi, QWORD PTR [rsp+64]
	add	rsp, 32					; 00000020H
	pop	r12
	ret	0
??1CInifile@@UEAA@XZ ENDP				; CInifile::~CInifile
PUBLIC	?Load@CInifile@@AEAAXPEAVIReader@@PEBD@Z	; CInifile::Load
pdata	SEGMENT
$pdata$?Load@CInifile@@AEAAXPEAVIReader@@PEBD@Z DD imagerel $LN1055
	DD	imagerel $LN1055+160
	DD	imagerel $unwind$?Load@CInifile@@AEAAXPEAVIReader@@PEBD@Z
$pdata$1$?Load@CInifile@@AEAAXPEAVIReader@@PEBD@Z DD imagerel $LN1055+160
	DD	imagerel $LN1055+3797
	DD	imagerel $chain$1$?Load@CInifile@@AEAAXPEAVIReader@@PEBD@Z
$pdata$2$?Load@CInifile@@AEAAXPEAVIReader@@PEBD@Z DD imagerel $LN1055+3797
	DD	imagerel $LN1055+3807
	DD	imagerel $chain$2$?Load@CInifile@@AEAAXPEAVIReader@@PEBD@Z
pdata	ENDS
xdata	SEGMENT
$unwind$?Load@CInifile@@AEAAXPEAVIReader@@PEBD@Z DD 042601H
	DD	04e10126H
	DD	050106011H
$chain$1$?Load@CInifile@@AEAAXPEAVIReader@@PEBD@Z DD 041021H
	DD	04df7410H
	DD	04e03408H
	DD	imagerel $LN1055
	DD	imagerel $LN1055+160
	DD	imagerel $unwind$?Load@CInifile@@AEAAXPEAVIReader@@PEBD@Z
$chain$2$?Load@CInifile@@AEAAXPEAVIReader@@PEBD@Z DD 021H
	DD	imagerel $LN1055
	DD	imagerel $LN1055+160
	DD	imagerel $unwind$?Load@CInifile@@AEAAXPEAVIReader@@PEBD@Z
; Function compile flags: /Ogtpy
xdata	ENDS
_TEXT	SEGMENT
Current$1$ = 80
tmp$97399 = 96
inc_name$97328 = 96
tv3327 = 160
tv3322 = 160
cnt$1$ = 160
tv3326 = 168
tv3323 = 168
inherited_names$1$ = 168
I$97414 = 176
fn$97338 = 192
str$ = 720
inc_path$97339 = 4816
folder$97340 = 5344
str2$ = 5872
this$ = 10016
$T372370 = 10024
F$ = 10024
path$ = 10032
tv3325 = 10040
tv3324 = 10040
src$1$ = 10040
k$1$ = 10040
$T370902 = 10040
?Load@CInifile@@AEAAXPEAVIReader@@PEBD@Z PROC		; CInifile::Load

; 131  : {

$LN1055:
	mov	QWORD PTR [rsp+24], r8
	mov	QWORD PTR [rsp+16], rdx
	mov	QWORD PTR [rsp+8], rcx
	push	rbp
	push	rsi
	lea	rbp, QWORD PTR [rsp-9736]
	mov	eax, 9992				; 00002708H
	call	__chkstk
	sub	rsp, rax

; 132  : 	R_ASSERT(F);

	xor	esi, esi
	mov	r9, rdx
	lea	rcx, OFFSET FLAT:??_C@_0P@PFFEEJAK@CInifile?3?3Load?$AA@
	cmp	BYTE PTR ?ignore_always@?3??Load@CInifile@@AEAAXPEAVIReader@@PEBD@Z@4_NA, sil
	lea	rdx, OFFSET FLAT:??_C@_0L@BOCIKDOE@Xr_ini?4cpp?$AA@
	jne	SHORT $LN48@Load
	test	r9, r9
	jne	SHORT $LN48@Load
	lea	rax, OFFSET FLAT:?ignore_always@?3??Load@CInifile@@AEAAXPEAVIReader@@PEBD@Z@4_NA
	lea	r8, OFFSET FLAT:??_C@_01BIAFAFID@F?$AA@
	mov	QWORD PTR [rsp+64], rax
	mov	QWORD PTR [rsp+56], rcx
	mov	DWORD PTR [rsp+48], 132			; 00000084H
	mov	QWORD PTR [rsp+40], rdx
	lea	rcx, OFFSET FLAT:?Debug@@3VxrDebug@@A	; Debug
	lea	rdx, OFFSET FLAT:??_C@_0BB@DBHFCHNO@assertion?5failed?$AA@
	mov	QWORD PTR [rsp+32], rsi
	call	?backend@xrDebug@@QEAAXPEBD0000H0AEA_N@Z ; xrDebug::backend
	mov	r9, QWORD PTR F$[rbp-256]
$LN48@Load:

; 133  : 	Sect		*Current = 0;
; 134  : 	string4096	str;
; 135  : 	string4096	str2;
; 136  : 
; 137  : 	while (!F->eof())

	mov	eax, DWORD PTR [r9+20]
	mov	QWORD PTR Current$1$[rsp], rsi
	sub	eax, DWORD PTR [r9+16]
	test	eax, eax
	jle	$LN974@Load
	mov	QWORD PTR [rsp+9984], rbx
	mov	QWORD PTR [rsp+9976], rdi
$LN1054@Load:

; 138  : 	{
; 139  : 		F->r_string		(str,sizeof(str));

	movsxd	rcx, DWORD PTR [r9+16]
	mov	r8, QWORD PTR [r9+8]
	mov	edi, DWORD PTR [r9+20]
	lea	rax, QWORD PTR [r8+rcx]
	lea	r11, OFFSET FLAT:??_C@_06ODPOMCLF@FS?4cpp?$AA@
	lea	r10, OFFSET FLAT:??_C@_0BC@LFPNBCKC@IReader?3?3r_string?$AA@
	mov	QWORD PTR src$1$[rbp-256], rax
	mov	eax, edi
	lea	rdx, OFFSET FLAT:?ignore_always@?3??r_string@IReader@@QEAAXPEADI@Z@4_NA
	sub	eax, ecx
	mov	ebx, esi
	test	eax, eax
	jle	SHORT $LN1025@Load
	npad	10
$LL70@Load:
	inc	DWORD PTR [r9+16]
	movsxd	rcx, DWORD PTR [r9+16]
	mov	eax, edi
	sub	eax, ecx
	inc	ebx
	inc	rsi
	test	eax, eax
	jle	SHORT $LN68@Load
	movzx	edx, BYTE PTR [rcx+r8]
	cmp	dl, 13
	je	SHORT $LN992@Load
	cmp	dl, 10
	je	SHORT $LN992@Load
$LN68@Load:
	mov	eax, edi
	sub	eax, DWORD PTR [r9+16]
	test	eax, eax
	jg	SHORT $LL70@Load
	jmp	SHORT $LN1047@Load
$LN992@Load:
	sub	edi, ecx
	test	edi, edi
	jle	SHORT $LN1047@Load
	npad	10
$LL67@Load:
	movsxd	rax, ecx
	movzx	edx, BYTE PTR [rax+r8]
	cmp	dl, 13
	je	SHORT $LN97@Load
	cmp	dl, 10
	jne	SHORT $LN1047@Load
$LN97@Load:
	inc	ecx
	mov	DWORD PTR [r9+16], ecx
	mov	eax, DWORD PTR [r9+20]
	sub	eax, ecx
	test	eax, eax
	jg	SHORT $LL67@Load
$LN1047@Load:

; 159  :         	string64	inc_name;	
; 160  : 			R_ASSERT	(path&&path[0]);

	lea	rdx, OFFSET FLAT:?ignore_always@?3??r_string@IReader@@QEAAXPEADI@Z@4_NA
$LN1025@Load:

; 138  : 	{
; 139  : 		F->r_string		(str,sizeof(str));

	cmp	BYTE PTR ?ignore_always@?3??r_string@IReader@@QEAAXPEADI@Z@4_NA, 0
	jne	SHORT $LN62@Load
	cmp	ebx, 4095				; 00000fffH
	jb	SHORT $LN62@Load
	mov	QWORD PTR [rsp+64], rdx
	mov	QWORD PTR [rsp+56], r10
	mov	DWORD PTR [rsp+48], 349			; 0000015dH
	mov	QWORD PTR [rsp+40], r11
	lea	rdx, OFFSET FLAT:??_C@_0O@CCNJDAAG@sz?$DM?$CItgt_sz?91?$CJ?$AA@
	lea	r8, OFFSET FLAT:??_C@_0BO@CBOGAODA@Dest?5string?5less?5than?5needed?4?$AA@
	lea	rcx, OFFSET FLAT:?Debug@@3VxrDebug@@A	; Debug
	xor	r9d, r9d
	mov	QWORD PTR [rsp+32], 0
	call	?backend@xrDebug@@QEAAXPEBD0000H0AEA_N@Z ; xrDebug::backend
$LN62@Load:
	mov	rdx, QWORD PTR src$1$[rbp-256]
	lea	rcx, QWORD PTR str$[rbp-256]
	mov	r8d, ebx
	call	QWORD PTR __imp_strncpy
	mov	BYTE PTR str$[rbp+rsi-256], 0

; 140  : 		_Trim			(str);

	movzx	ecx, BYTE PTR str$[rbp-256]
	lea	rax, QWORD PTR str$[rbp-256]
	test	cl, cl
	je	SHORT $LN106@Load
$LL108@Load:
	cmp	cl, 32					; 00000020H
	ja	SHORT $LN107@Load
	movzx	ecx, BYTE PTR [rax+1]
	inc	rax
	test	cl, cl
	jne	SHORT $LL108@Load
$LN107@Load:
	lea	rcx, QWORD PTR str$[rbp-256]
	cmp	rax, rcx
	je	SHORT $LN106@Load
	movzx	edx, BYTE PTR [rax]
	lea	rcx, QWORD PTR str$[rbp-256]
	test	dl, dl
	je	SHORT $LN103@Load
	lea	rdi, QWORD PTR str$[rbp-256]
	sub	rax, rdi
	npad	4
$LL105@Load:
	mov	BYTE PTR [rcx], dl
	movzx	edx, BYTE PTR [rax+rcx+1]
	inc	rcx
	test	dl, dl
	jne	SHORT $LL105@Load
$LN103@Load:
	mov	BYTE PTR [rcx], 0
$LN106@Load:
	xor	eax, eax
	or	rcx, -1
	lea	rdi, QWORD PTR str$[rbp-256]
	repne scasb
	not	rcx
	lea	rax, QWORD PTR [rcx-1]
	mov	eax, eax
	lea	rcx, QWORD PTR str$[rbp+rax-256]
	lea	rax, QWORD PTR str$[rbp-256]
	cmp	rcx, rax
	je	SHORT $LN1034@Load
	npad	3
$LL112@Load:
	cmp	BYTE PTR [rcx], 32			; 00000020H
	ja	SHORT $LN1034@Load
	lea	rax, QWORD PTR str$[rbp-256]
	dec	rcx
	cmp	rcx, rax
	jne	SHORT $LL112@Load
$LN1034@Load:
	mov	BYTE PTR [rcx+1], 0

; 141  : 		LPSTR semi	= strchr(str,';');

	lea	rcx, QWORD PTR str$[rbp-256]
	mov	edx, 59					; 0000003bH
	call	QWORD PTR __imp_strchr

; 142  : 		LPSTR semi_1	= strchr(str,'/');

	lea	rcx, QWORD PTR str$[rbp-256]
	mov	edx, 47					; 0000002fH
	mov	rdi, rax
	call	QWORD PTR __imp_strchr

; 143  : 		
; 144  : 		if(semi_1 && (*(semi_1+1)=='/') && ((!semi) || (semi && (semi_1<semi) )) ){

	test	rax, rax
	je	SHORT $LN43@Load
	cmp	BYTE PTR [rax+1], 47			; 0000002fH
	jne	SHORT $LN43@Load
	test	rdi, rdi
	je	SHORT $LN42@Load
	cmp	rax, rdi
	jae	SHORT $LN43@Load
$LN42@Load:

; 145  : 			semi = semi_1;

	mov	rdi, rax
$LN43@Load:

; 146  : 		}
; 147  : 
; 148  : #ifdef DEBUG
; 149  : 		LPSTR comment	= 0;
; 150  : #endif
; 151  : 		if (semi) {

	test	rdi, rdi
	je	SHORT $LN41@Load

; 152  : 			*semi		= 0;

	mov	BYTE PTR [rdi], 0
$LN41@Load:

; 153  : #ifdef DEBUG
; 154  : 			comment		= semi+1;
; 155  : #endif
; 156  : 		}
; 157  : 
; 158  :         if (str[0] && (str[0]=='#') && strstr(str,"#include")){

	movzx	eax, BYTE PTR str$[rbp-256]
	test	al, al
	je	$LN28@Load
	cmp	al, 35					; 00000023H
	jne	$LN40@Load
	lea	rdx, OFFSET FLAT:??_C@_08GPLAJCBH@?$CDinclude?$AA@
	lea	rcx, QWORD PTR str$[rbp-256]
	call	QWORD PTR __imp_strstr
	test	rax, rax
	je	$LN1031@Load

; 159  :         	string64	inc_name;	
; 160  : 			R_ASSERT	(path&&path[0]);

	cmp	BYTE PTR ?ignore_always@?BD@??Load@CInifile@@AEAAXPEAVIReader@@PEBD@Z@4_NA, 0
	jne	SHORT $LN1045@Load
	mov	rax, QWORD PTR path$[rbp-256]
	test	rax, rax
	je	SHORT $LN35@Load
	cmp	BYTE PTR [rax], 0
	jne	SHORT $LN1045@Load
$LN35@Load:
	lea	rax, OFFSET FLAT:?ignore_always@?BD@??Load@CInifile@@AEAAXPEAVIReader@@PEBD@Z@4_NA
	xor	esi, esi
	lea	r8, OFFSET FLAT:??_C@_0O@OGKPJIFO@path?$CG?$CGpath?$FL0?$FN?$AA@
	mov	QWORD PTR [rsp+64], rax
	lea	rax, OFFSET FLAT:??_C@_0P@PFFEEJAK@CInifile?3?3Load?$AA@
	lea	rdx, OFFSET FLAT:??_C@_0BB@DBHFCHNO@assertion?5failed?$AA@
	mov	QWORD PTR [rsp+56], rax
	lea	rax, OFFSET FLAT:??_C@_0L@BOCIKDOE@Xr_ini?4cpp?$AA@
	mov	DWORD PTR [rsp+48], 160			; 000000a0H
	mov	QWORD PTR [rsp+40], rax
	lea	rcx, OFFSET FLAT:?Debug@@3VxrDebug@@A	; Debug
	xor	r9d, r9d
	mov	QWORD PTR [rsp+32], rsi
	call	?backend@xrDebug@@QEAAXPEBD0000H0AEA_N@Z ; xrDebug::backend
	jmp	SHORT $LN38@Load
$LN1045@Load:
	xor	esi, esi
$LN38@Load:

; 161  :         	if (_GetItem	(str,1,inc_name,'"')){

	lea	rbx, QWORD PTR str$[rbp-256]
	mov	edi, esi
	npad	6
$LL132@Load:
	mov	edx, 34					; 00000022H
	mov	rcx, rbx
	call	QWORD PTR __imp_strchr
	mov	rbx, rax
	test	rax, rax
	je	SHORT $LN127@Load
	inc	edi
	inc	rbx
	cmp	edi, 1
	jb	SHORT $LL132@Load
	test	rbx, rbx
	je	SHORT $LN127@Load
	mov	edx, 34					; 00000022H
	mov	rcx, rbx
	call	QWORD PTR __imp_strchr
	mov	rdi, rax
	test	rax, rax
	je	SHORT $LN137@Load
	sub	rdi, rbx
	jmp	SHORT $LN138@Load
$LN137@Load:
	or	rcx, -1
	mov	rdi, rbx
	repne scasb
	not	rcx
	lea	rdi, QWORD PTR [rcx-1]
	mov	edi, edi
$LN138@Load:
	lea	rcx, QWORD PTR inc_name$97328[rsp]
	mov	r8, rdi
	mov	rdx, rbx
	call	QWORD PTR __imp_strncpy
	mov	BYTE PTR inc_name$97328[rsp+rdi], 0
	jmp	SHORT $LN126@Load
$LN127@Load:
	mov	rcx, rsi
	npad	3
$LL130@Load:
	lea	rax, OFFSET FLAT:??_C@_00CNPNBAHC@?$AA@
	inc	rcx
	movzx	eax, BYTE PTR [rcx+rax-1]
	mov	BYTE PTR inc_name$97328[rsp+rcx-1], al
	test	al, al
	jne	SHORT $LL130@Load
$LN126@Load:
	movzx	ecx, BYTE PTR inc_name$97328[rsp]
	lea	rax, QWORD PTR inc_name$97328[rsp]
	test	cl, cl
	je	SHORT $LN146@Load
$LL148@Load:
	cmp	cl, 32					; 00000020H
	ja	SHORT $LN147@Load
	movzx	ecx, BYTE PTR [rax+1]
	inc	rax
	test	cl, cl
	jne	SHORT $LL148@Load
$LN147@Load:
	lea	rcx, QWORD PTR inc_name$97328[rsp]
	cmp	rax, rcx
	je	SHORT $LN146@Load
	movzx	edx, BYTE PTR [rax]
	lea	rcx, QWORD PTR inc_name$97328[rsp]
	test	dl, dl
	je	SHORT $LN143@Load
	lea	rdi, QWORD PTR inc_name$97328[rsp]
	sub	rax, rdi
	npad	13
$LL145@Load:
	mov	BYTE PTR [rcx], dl
	movzx	edx, BYTE PTR [rax+rcx+1]
	inc	rcx
	test	dl, dl
	jne	SHORT $LL145@Load
$LN143@Load:
	mov	BYTE PTR [rcx], 0
$LN146@Load:
	xor	eax, eax
	or	rcx, -1
	lea	rdi, QWORD PTR inc_name$97328[rsp]
	repne scasb
	not	rcx
	lea	rax, QWORD PTR [rcx-1]
	mov	eax, eax
	lea	rcx, QWORD PTR inc_name$97328[rsp+rax]
	lea	rax, QWORD PTR inc_name$97328[rsp]
	cmp	rcx, rax
	je	SHORT $LN1035@Load
$LL152@Load:
	cmp	BYTE PTR [rcx], 32			; 00000020H
	ja	SHORT $LN1035@Load
	lea	rax, QWORD PTR inc_name$97328[rsp]
	dec	rcx
	cmp	rcx, rax
	jne	SHORT $LL152@Load
$LN1035@Load:

; 162  :             	string_path	fn,inc_path,folder;
; 163  :                 strconcat	(sizeof(fn),fn,path,inc_name);

	mov	rdx, QWORD PTR path$[rbp-256]
	mov	BYTE PTR [rcx+1], 0
	or	rcx, -1
	mov	rdi, rdx
	xor	eax, eax
	mov	r8, rdx
	repne scasb
	mov	edx, 520				; 00000208H
	not	rcx
	lea	rdi, QWORD PTR [rcx-1]
	lea	rcx, QWORD PTR fn$97338[rbp-256]
	call	QWORD PTR __imp_strcpy_s
	mov	edx, 520				; 00000208H
	lea	r8, QWORD PTR inc_name$97328[rsp]
	lea	rcx, QWORD PTR fn$97338[rbp-256]
	sub	edx, edi
	call	QWORD PTR __imp_strcat_s

; 164  : 				_splitpath	(fn,inc_path,folder, 0, 0 );

	lea	r8, QWORD PTR folder$97340[rbp-256]
	lea	rdx, QWORD PTR inc_path$97339[rbp-256]
	lea	rcx, QWORD PTR fn$97338[rbp-256]
	xor	r9d, r9d
	mov	QWORD PTR [rsp+32], rsi
	call	QWORD PTR __imp__splitpath

; 165  : 				strcat		(inc_path,folder);

	xor	eax, eax
	or	rcx, -1
	lea	rdi, QWORD PTR inc_path$97339[rbp-256]
	lea	rdx, QWORD PTR folder$97340[rbp-256]
	repne scasb
	xor	ecx, ecx
	npad	11
$LL1030@Load:
	movzx	eax, BYTE PTR [rdx+rcx]
	inc	rcx
	mov	BYTE PTR [rdi+rcx-2], al
	test	al, al
	jne	SHORT $LL1030@Load

; 166  :             	IReader* I 	= FS.r_open(fn); R_ASSERT3(I,"Can't find include file:", inc_name);

	mov	rcx, QWORD PTR ?xr_FS@@3PEAVCLocatorAPI@@EA ; xr_FS
	lea	r8, QWORD PTR fn$97338[rbp-256]
	xor	edx, edx
	call	??$r_open_impl@VIReader@@@CLocatorAPI@@AEAAPEAVIReader@@PEBD0@Z ; CLocatorAPI::r_open_impl<IReader>
	cmp	BYTE PTR ?ignore_always@?BK@??Load@CInifile@@AEAAXPEAVIReader@@PEBD@Z@4_NA, 0
	mov	rbx, rax
	jne	SHORT $LN32@Load
	test	rax, rax
	jne	SHORT $LN32@Load
	lea	rax, OFFSET FLAT:?ignore_always@?BK@??Load@CInifile@@AEAAXPEAVIReader@@PEBD@Z@4_NA
	lea	r9, QWORD PTR inc_name$97328[rsp]
	lea	r8, OFFSET FLAT:??_C@_0BJ@JNOOHJGB@Can?8t?5find?5include?5file?3?$AA@
	mov	QWORD PTR [rsp+64], rax
	lea	rax, OFFSET FLAT:??_C@_0P@PFFEEJAK@CInifile?3?3Load?$AA@
	lea	rdx, OFFSET FLAT:??_C@_01JPJNBJEM@I?$AA@
	mov	QWORD PTR [rsp+56], rax
	lea	rax, OFFSET FLAT:??_C@_0L@BOCIKDOE@Xr_ini?4cpp?$AA@
	mov	DWORD PTR [rsp+48], 166			; 000000a6H
	mov	QWORD PTR [rsp+40], rax
	lea	rcx, OFFSET FLAT:?Debug@@3VxrDebug@@A	; Debug
	mov	QWORD PTR [rsp+32], rsi
	call	?backend@xrDebug@@QEAAXPEBD0000H0AEA_N@Z ; xrDebug::backend
$LN32@Load:

; 167  :             	Load		(I,inc_path);

	mov	rdi, QWORD PTR this$[rbp-256]
	lea	r8, QWORD PTR inc_path$97339[rbp-256]
	mov	rdx, rbx
	mov	rcx, rdi
	call	?Load@CInifile@@AEAAXPEAVIReader@@PEBD@Z ; CInifile::Load

; 168  :                 FS.r_close	(I);

	mov	rdx, QWORD PTR ?xr_FS@@3PEAVCLocatorAPI@@EA ; xr_FS
	test	DWORD PTR [rdx+160], 512		; 00000200H
	je	SHORT $LN167@Load
	mov	rcx, rbx
	call	??$_unregister_open_file@VIReader@@@@YAXPEAVIReader@@@Z ; _unregister_open_file<IReader>
$LN167@Load:
	test	rbx, rbx
	je	$LN1038@Load
	mov	rcx, rbx
	call	__RTCastToVoid
	xor	edx, edx
	mov	rcx, rbx
	mov	rdi, rax
	mov	rax, QWORD PTR [rbx]
	call	QWORD PTR [rax]
	inc	DWORD PTR ?Memory@@3VxrMemory@@A
	movzx	eax, BYTE PTR [rdi-1]
	lea	rbx, QWORD PTR [rdi-1]
	cmp	eax, 55					; 00000037H
	jne	SHORT $LN179@Load
	test	rbx, rbx
	je	SHORT $LN1037@Load
	and	rbx, -8
	mov	rcx, QWORD PTR [rbx-8]
	call	QWORD PTR __imp_free
$LN1037@Load:
	mov	rbx, QWORD PTR Current$1$[rsp]
	jmp	$LN1051@Load
$LN179@Load:
	lea	rdi, QWORD PTR [rax+rax*4]
	lea	rcx, OFFSET FLAT:?mem_pools@@3PAVMEMPOOL@@A ; mem_pools
	mov	rcx, QWORD PTR [rcx+rdi*8]
	call	QWORD PTR __imp_EnterCriticalSection
	lea	rcx, OFFSET FLAT:?mem_pools@@3PAVMEMPOOL@@A ; mem_pools
	mov	rax, QWORD PTR [rcx+rdi*8+32]
	mov	QWORD PTR [rbx], rax
	mov	QWORD PTR [rcx+rdi*8+32], rbx
	mov	rcx, QWORD PTR [rcx+rdi*8]
	call	QWORD PTR __imp_LeaveCriticalSection

; 169  :             }

	mov	rbx, QWORD PTR Current$1$[rsp]
	jmp	$LN1051@Load
$LN1031@Load:
	movzx	eax, BYTE PTR str$[rbp-256]
$LN40@Load:

; 170  :         }else if (str[0] && (str[0]=='[')){

	test	al, al
	je	$LN28@Load
	cmp	al, 91					; 0000005bH
	jne	$LN28@Load

; 171  : 			// insert previous filled section
; 172  : 			if (Current){

	mov	rdi, QWORD PTR Current$1$[rsp]
	test	rdi, rdi
	je	$LN417@Load

; 173  : 				RootIt I		= std::lower_bound(DATA.begin(),DATA.end(),*Current->Name,sect_pred);

	mov	rcx, QWORD PTR [rdi]
	mov	QWORD PTR tv3327[rbp-256], rcx
	test	rcx, rcx
	je	SHORT $LN204@Load
	lea	r11, QWORD PTR [rcx+12]
	jmp	SHORT $LN205@Load
$LN204@Load:
	xor	r11d, r11d
$LN205@Load:
	mov	rax, QWORD PTR this$[rbp-256]
	mov	rbx, QWORD PTR [rax+16]
	lea	rsi, QWORD PTR [rax+16]
	mov	rax, QWORD PTR [rax+24]
	mov	r8, rax
	mov	QWORD PTR tv3325[rbp-256], rsi
	mov	QWORD PTR tv3323[rbp-256], rax
	sub	r8, rbx
	sar	r8, 3
	test	r8, r8
	jle	SHORT $LN236@Load
	xor	esi, esi
	npad	6
$LL237@Load:
	mov	rax, r8
	cdq
	sub	rax, rdx
	sar	rax, 1
	mov	r9, rax
	lea	r10, QWORD PTR [rbx+rax*8]
	mov	rax, QWORD PTR [rbx+rax*8]
	mov	rax, QWORD PTR [rax]
	test	rax, rax
	je	SHORT $LN256@Load
	add	rax, 12
	jmp	SHORT $LN257@Load
$LN256@Load:
	mov	rax, rsi
$LN257@Load:
	mov	rdi, r11
	sub	rdi, rax
	npad	3
$LL1028@Load:
	movzx	edx, BYTE PTR [rax]
	movzx	ecx, BYTE PTR [rax+rdi]
	sub	edx, ecx
	jne	SHORT $LN1029@Load
	inc	rax
	test	ecx, ecx
	jne	SHORT $LL1028@Load
$LN1029@Load:
	test	edx, edx
	jns	SHORT $LN235@Load
	or	rax, -1
	lea	rbx, QWORD PTR [r10+8]
	sub	rax, r9
	add	r8, rax
	jmp	SHORT $LN234@Load
$LN235@Load:
	mov	r8, r9
$LN234@Load:
	test	r8, r8
	jg	SHORT $LL237@Load
	mov	rsi, QWORD PTR tv3325[rbp-256]
	mov	rcx, QWORD PTR tv3327[rbp-256]
	mov	rax, QWORD PTR tv3323[rbp-256]
	mov	rdi, QWORD PTR Current$1$[rsp]
$LN236@Load:

; 174  : 				if ((I!=DATA.end())&&((*I)->Name==Current->Name))

	cmp	rbx, rax
	je	SHORT $LN26@Load
	mov	rax, QWORD PTR [rbx]
	cmp	QWORD PTR [rax], rcx
	jne	SHORT $LN26@Load

; 175  : 					Debug.fatal(DEBUG_INFO,"Duplicate section '%s' found.",*Current->Name);

	test	rcx, rcx
	je	SHORT $LN293@Load
	lea	rax, QWORD PTR [rcx+12]
	jmp	SHORT $LN294@Load
$LN293@Load:
	xor	eax, eax
$LN294@Load:
	mov	QWORD PTR [rsp+40], rax
	lea	rax, OFFSET FLAT:??_C@_0BO@PADAFPII@Duplicate?5section?5?8?$CFs?8?5found?4?$AA@
	lea	r9, OFFSET FLAT:??_C@_0P@PFFEEJAK@CInifile?3?3Load?$AA@
	lea	rdx, OFFSET FLAT:??_C@_0L@BOCIKDOE@Xr_ini?4cpp?$AA@
	lea	rcx, OFFSET FLAT:?Debug@@3VxrDebug@@A	; Debug
	mov	r8d, 175				; 000000afH
	mov	QWORD PTR [rsp+32], rax
	call	?fatal@xrDebug@@QEAAXPEBDH00ZZ		; xrDebug::fatal
$LN26@Load:

; 176  : 				DATA.insert		(I,Current);

	sub	rbx, QWORD PTR [rsi]
	mov	rax, QWORD PTR [rsi+16]
	sar	rbx, 3
	cmp	QWORD PTR [rsi+8], rax
	jne	SHORT $LN303@Load
	mov	rcx, rsi
	call	?_Reserve@?$vector@PEAUSect@CInifile@@V?$xalloc@PEAUSect@CInifile@@@@@std@@IEAAX_K@Z ; std::vector<CInifile::Sect * __ptr64,xalloc<CInifile::Sect * __ptr64> >::_Reserve
$LN303@Load:
	mov	rax, QWORD PTR [rsi+8]
	test	rax, rax
	je	SHORT $LN318@Load
	mov	QWORD PTR [rax], rdi
$LN318@Load:
	add	QWORD PTR [rsi+8], 8
	mov	rax, QWORD PTR [rsi]
	mov	r8, QWORD PTR [rsi+8]
	lea	rdx, QWORD PTR [r8-8]
	lea	rcx, QWORD PTR [rax+rbx*8]
	cmp	rcx, rdx
	je	SHORT $LN417@Load
	cmp	rdx, r8
	je	SHORT $LN417@Load
	call	??$_Rotate@PEAPEAUSect@CInifile@@_JPEAU12@@std@@YAXPEAPEAUSect@CInifile@@00PEA_J0@Z ; std::_Rotate<CInifile::Sect * __ptr64 * __ptr64,__int64,CInifile::Sect * __ptr64>
$LN417@Load:

; 177  : 			}
; 178  : 			Current				= xr_new<Sect>();

	lea	rcx, OFFSET FLAT:?Memory@@3VxrMemory@@A	; Memory
	mov	edx, 40					; 00000028H
	call	?mem_alloc@xrMemory@@QEAAPEAX_K@Z	; xrMemory::mem_alloc
	xor	edi, edi
	mov	rbx, rax
	mov	QWORD PTR Current$1$[rsp], rax
	test	rax, rax
	je	SHORT $LN435@Load
	mov	QWORD PTR [rax], rdi
	mov	QWORD PTR [rax+8], rdi
	mov	QWORD PTR [rax+16], rdi
	mov	QWORD PTR [rax+24], rdi
	jmp	SHORT $LN436@Load
$LN435@Load:
	mov	rbx, rdi
	mov	QWORD PTR Current$1$[rsp], rbx
$LN436@Load:

; 179  : 			Current->Name		= 0;

	mov	rcx, QWORD PTR ?g_pStringContainer@@3PEAVstr_container@@EA ; g_pStringContainer
	xor	edx, edx
	call	?dock@str_container@@QEAAPEAUstr_value@@PEBD@Z ; str_container::dock
	test	rax, rax
	je	SHORT $LN455@Load
	inc	DWORD PTR [rax]
$LN455@Load:
	mov	rcx, QWORD PTR [rbx]
	test	rcx, rcx
	je	SHORT $LN458@Load
	dec	DWORD PTR [rcx]
	mov	rcx, QWORD PTR [rbx]
	cmp	DWORD PTR [rcx], 0
	mov	rdx, rcx
	cmove	rdx, rdi
	mov	QWORD PTR [rbx], rdx
$LN458@Load:
	mov	QWORD PTR [rbx], rax

; 180  : 			// start new section
; 181  : 			R_ASSERT3(strchr(str,']'),"Bad ini section found: ",str);

	cmp	BYTE PTR ?ignore_always@?CH@??Load@CInifile@@AEAAXPEAVIReader@@PEBD@Z@4_NA, 0
	jne	SHORT $LN24@Load
	lea	rcx, QWORD PTR str$[rbp-256]
	mov	edx, 93					; 0000005dH
	call	QWORD PTR __imp_strchr
	test	rax, rax
	jne	SHORT $LN24@Load
	lea	rax, OFFSET FLAT:?ignore_always@?CH@??Load@CInifile@@AEAAXPEAVIReader@@PEBD@Z@4_NA
	lea	r9, QWORD PTR str$[rbp-256]
	lea	r8, OFFSET FLAT:??_C@_0BI@IHFKKOHL@Bad?5ini?5section?5found?3?5?$AA@
	mov	QWORD PTR [rsp+64], rax
	lea	rax, OFFSET FLAT:??_C@_0P@PFFEEJAK@CInifile?3?3Load?$AA@
	lea	rdx, OFFSET FLAT:??_C@_0BA@NMAHPAMG@strchr?$CIstr?0?8?$FN?8?$CJ?$AA@
	mov	QWORD PTR [rsp+56], rax
	lea	rax, OFFSET FLAT:??_C@_0L@BOCIKDOE@Xr_ini?4cpp?$AA@
	mov	DWORD PTR [rsp+48], 181			; 000000b5H
	mov	QWORD PTR [rsp+40], rax
	lea	rcx, OFFSET FLAT:?Debug@@3VxrDebug@@A	; Debug
	mov	QWORD PTR [rsp+32], rdi
	call	?backend@xrDebug@@QEAAXPEBD0000H0AEA_N@Z ; xrDebug::backend
$LN24@Load:

; 182  : 			LPCSTR inherited_names = strstr(str,"]:");

	lea	rdx, OFFSET FLAT:??_C@_02EBHDEFHH@?$FN?3?$AA@
	lea	rcx, QWORD PTR str$[rbp-256]
	call	QWORD PTR __imp_strstr
	mov	rdi, rax

; 183  : 			if (0!=inherited_names){

	test	rax, rax
	je	$LN15@Load

; 184  : 				VERIFY2			(bReadOnly,"Allow for readonly mode only.");
; 185  : 				inherited_names	+= 2;

	add	rdi, 2

; 186  : 				int cnt			= _GetItemCount(inherited_names);

	mov	dl, 44					; 0000002cH
	mov	rcx, rdi
	mov	QWORD PTR inherited_names$1$[rbp-256], rdi
	call	?_GetItemCount@@YAHPEBDD@Z		; _GetItemCount

; 187  : 				for (int k=0; k<cnt; ++k){

	xor	ecx, ecx
	mov	DWORD PTR cnt$1$[rbp-256], eax
	mov	esi, ecx
	mov	DWORD PTR k$1$[rbp-256], ecx
	test	eax, eax
	jle	$LN15@Load
	npad	7
$LL17@Load:

; 188  : 					xr_string	tmp;
; 189  : 					_GetItem	(inherited_names,k,tmp);

	mov	rbx, rdi
	mov	QWORD PTR tmp$97399[rsp+24], 15
	mov	QWORD PTR tmp$97399[rsp+16], rcx
	mov	edi, ecx
	mov	BYTE PTR tmp$97399[rsp], 0
	test	esi, esi
	je	SHORT $LN498@Load
	npad	4
$LL499@Load:
	mov	edx, 44					; 0000002cH
	mov	rcx, rbx
	call	QWORD PTR __imp_strchr
	mov	rbx, rax
	test	rax, rax
	je	$LN495@Load
	inc	edi
	inc	rbx
	cmp	edi, esi
	jb	SHORT $LL499@Load
$LN498@Load:
	test	rbx, rbx
	je	$LN495@Load
	mov	edx, 44					; 0000002cH
	mov	rcx, rbx
	call	QWORD PTR __imp_strchr
	mov	rsi, rax
	test	rax, rax
	je	SHORT $LN504@Load
	sub	rsi, rbx
	jmp	SHORT $LN505@Load
$LN504@Load:
	or	rcx, -1
	mov	rdi, rbx
	repne scasb
	not	rcx
	lea	rsi, QWORD PTR [rcx-1]
	mov	esi, esi
$LN505@Load:
	or	rcx, -1
	xor	eax, eax
	mov	rdi, rbx
	repne scasb
	mov	rdx, rbx
	not	rcx
	lea	r8, QWORD PTR [rcx-1]
	lea	rcx, QWORD PTR tmp$97399[rsp]
	call	?assign@?$basic_string@DU?$char_traits@D@std@@V?$xalloc@D@@@std@@QEAAAEAV12@PEBD_K@Z ; std::basic_string<char,std::char_traits<char>,xalloc<char> >::assign
	mov	r8, QWORD PTR tmp$97399[rsp+16]
	cmp	r8, rsi
	jb	$LN1007@Load
	mov	rax, r8
	mov	rbx, r8
	sub	rax, rsi
	cmp	rax, r8
	cmovb	rbx, rax
	test	rbx, rbx
	je	SHORT $LN540@Load
	mov	rcx, QWORD PTR tmp$97399[rsp]
	mov	rax, QWORD PTR tmp$97399[rsp+24]
	lea	rdi, QWORD PTR tmp$97399[rsp]
	cmp	rax, 16
	lea	r9, QWORD PTR tmp$97399[rsp]
	lea	rdx, QWORD PTR [rbx+rsi]
	cmovae	rdi, rcx
	cmovae	r9, rcx
	sub	r8, rbx
	lea	rcx, QWORD PTR [rsi+rdi]
	sub	r8, rsi
	add	rdx, r9
	call	QWORD PTR __imp_memmove
	mov	rdx, QWORD PTR tmp$97399[rsp+16]
	lea	rax, QWORD PTR tmp$97399[rsp]
	sub	rdx, rbx
	cmp	QWORD PTR tmp$97399[rsp+24], 16
	cmovae	rax, QWORD PTR tmp$97399[rsp]
	mov	QWORD PTR tmp$97399[rsp+16], rdx
	mov	BYTE PTR [rdx+rax], 0
$LN540@Load:
	lea	rdx, QWORD PTR tmp$97399[rsp]
	lea	rcx, QWORD PTR tmp$97399[rsp]
	or	r9, -1
	xor	r8d, r8d
	call	?assign@?$basic_string@DU?$char_traits@D@std@@V?$xalloc@D@@@std@@QEAAAEAV12@AEBV12@_K1@Z ; std::basic_string<char,std::char_traits<char>,xalloc<char> >::assign
	mov	esi, DWORD PTR k$1$[rbp-256]
	jmp	SHORT $LN554@Load
$LN495@Load:
	lea	rax, OFFSET FLAT:??_C@_00CNPNBAHC@?$AA@
	lea	rcx, QWORD PTR tmp$97399[rsp]
	xor	r8d, r8d
	mov	rdx, rax
	call	?assign@?$basic_string@DU?$char_traits@D@std@@V?$xalloc@D@@@std@@QEAAAEAV12@PEBD_K@Z ; std::basic_string<char,std::char_traits<char>,xalloc<char> >::assign
$LN554@Load:
	mov	rdx, QWORD PTR tmp$97399[rsp]
	mov	r9, QWORD PTR tmp$97399[rsp+24]
	lea	rdi, QWORD PTR tmp$97399[rsp]
	cmp	r9, 16
	lea	rcx, QWORD PTR tmp$97399[rsp]
	cmovae	rdi, rdx
	cmovae	rcx, rdx
	movzx	eax, BYTE PTR [rdi]
	test	al, al
	je	SHORT $LN1036@Load
$LL564@Load:
	cmp	al, 32					; 00000020H
	ja	SHORT $LN1036@Load
	movzx	eax, BYTE PTR [rdi+1]
	inc	rdi
	test	al, al
	jne	SHORT $LL564@Load
$LN1036@Load:
	cmp	rdi, rcx
	je	SHORT $LN603@Load
	mov	r8, QWORD PTR tmp$97399[rsp+16]
	sub	rdi, rcx
	cmp	r8, rdi
	cmovb	rdi, r8
	test	rdi, rdi
	je	SHORT $LN603@Load
	cmp	r9, 16
	lea	rax, QWORD PTR tmp$97399[rsp]
	lea	rcx, QWORD PTR tmp$97399[rsp]
	cmovae	rax, rdx
	cmovae	rcx, rdx
	sub	r8, rdi
	lea	rdx, QWORD PTR [rdi+rax]
	call	QWORD PTR __imp_memmove
	mov	rdx, QWORD PTR tmp$97399[rsp+16]
	lea	rax, QWORD PTR tmp$97399[rsp]
	sub	rdx, rdi
	cmp	QWORD PTR tmp$97399[rsp+24], 16
	cmovae	rax, QWORD PTR tmp$97399[rsp]
	mov	QWORD PTR tmp$97399[rsp+16], rdx
	mov	BYTE PTR [rdx+rax], 0
$LN603@Load:
	lea	rcx, QWORD PTR tmp$97399[rsp]
	call	?_TrimRight@@YAAEAV?$basic_string@DU?$char_traits@D@std@@V?$xalloc@D@@@std@@AEAV12@@Z ; _TrimRight

; 190  : 					Sect& inherited_section = r_section(tmp.c_str());

	cmp	QWORD PTR tmp$97399[rsp+24], 16
	mov	rcx, QWORD PTR this$[rbp-256]
	lea	rdx, QWORD PTR tmp$97399[rsp]
	cmovae	rdx, QWORD PTR tmp$97399[rsp]
	call	?r_section@CInifile@@QEAAAEAUSect@1@PEBD@Z ; CInifile::r_section
	mov	rbx, rax

; 191  : 					for (SectIt_ it =inherited_section.Data.begin(); it!=inherited_section.Data.end(); it++)

	mov	rdi, QWORD PTR [rax+8]
	cmp	rdi, QWORD PTR [rax+16]
	je	SHORT $LN12@Load
	mov	rsi, QWORD PTR Current$1$[rsp]
	npad	10
$LL632@Load:

; 192  : 						insert_item	(Current,*it);

	mov	rdx, rdi
	mov	rcx, rsi
	call	?insert_item@@YAXPEAUSect@CInifile@@AEBUItem@2@@Z ; insert_item
	add	rdi, 16
	cmp	rdi, QWORD PTR [rbx+16]
	jne	SHORT $LL632@Load
	mov	esi, DWORD PTR k$1$[rbp-256]
$LN12@Load:

; 193  : 				}

	cmp	QWORD PTR tmp$97399[rsp+24], 16
	jb	SHORT $LN667@Load
	mov	rax, QWORD PTR tmp$97399[rsp]
	mov	QWORD PTR $T370902[rbp-256], rax
	test	rax, rax
	je	SHORT $LN667@Load
	lea	rcx, QWORD PTR $T370902[rbp-256]
	call	??$xr_free@D@@YAXAEAPEAD@Z		; xr_free<char>
$LN667@Load:

; 187  : 				for (int k=0; k<cnt; ++k){

	mov	rdi, QWORD PTR inherited_names$1$[rbp-256]
	inc	esi
	mov	ecx, 0
	mov	DWORD PTR k$1$[rbp-256], esi
	cmp	esi, DWORD PTR cnt$1$[rbp-256]
	jl	$LL17@Load
	mov	rbx, QWORD PTR Current$1$[rsp]
$LN15@Load:

; 194  : 			}
; 195  : 			*strchr(str,']') 	= 0;

	lea	rcx, QWORD PTR str$[rbp-256]
	mov	edx, 93					; 0000005dH
	call	QWORD PTR __imp_strchr

; 196  : 			Current->Name 		= strlwr(str+1);

	lea	rcx, QWORD PTR str$[rbp-255]
	mov	BYTE PTR [rax], 0
	call	QWORD PTR __imp_strlwr
	mov	rcx, QWORD PTR ?g_pStringContainer@@3PEAVstr_container@@EA ; g_pStringContainer
	mov	rdx, rax
	call	?dock@str_container@@QEAAPEAUstr_value@@PEBD@Z ; str_container::dock
	test	rax, rax
	je	SHORT $LN686@Load
	inc	DWORD PTR [rax]
$LN686@Load:
	mov	rcx, QWORD PTR [rbx]
	test	rcx, rcx
	je	SHORT $LN1043@Load
	dec	DWORD PTR [rcx]
	mov	rcx, QWORD PTR [rbx]
	mov	esi, 0
	cmp	DWORD PTR [rcx], 0
	mov	rdx, rcx
	cmove	rdx, rsi
	mov	QWORD PTR [rbx], rdx
	mov	QWORD PTR [rbx], rax

; 197  : 		} else {

	jmp	$LN1051@Load
$LN1043@Load:

; 228  : 				}
; 229  : 			}

	xor	esi, esi
	mov	QWORD PTR [rbx], rax
	jmp	$LN1051@Load
$LN28@Load:

; 198  : 			if (Current){

	mov	rbx, QWORD PTR Current$1$[rsp]
	test	rbx, rbx
	je	$LN1040@Load

; 199  : 				char*		name	= str;
; 200  : 				char*		t		= strchr(name,'=');

	lea	rcx, QWORD PTR str$[rbp-256]
	mov	edx, 61					; 0000003dH
	call	QWORD PTR __imp_strchr

; 201  : 				if (t)		{
; 202  : 					*t		= 0;
; 203  : 					_Trim	(name);

	lea	rcx, QWORD PTR str$[rbp-256]
	mov	rdi, rax
	test	rax, rax
	je	SHORT $LN9@Load
	mov	BYTE PTR [rax], 0
	call	?_Trim@@YAPEADPEAD@Z			; _Trim

; 204  : 					_parse	(str2,++t);

	lea	rdx, QWORD PTR [rdi+1]
	lea	rcx, QWORD PTR str2$[rbp-256]
	call	?_parse@@YAXPEADPEBD@Z			; _parse

; 205  : 				} else {

	jmp	SHORT $LN8@Load
$LN9@Load:

; 206  : 					_Trim	(name);

	call	?_Trim@@YAPEADPEAD@Z			; _Trim

; 207  : 					str2[0]	= 0;

	mov	BYTE PTR str2$[rbp-256], 0
$LN8@Load:

; 208  : 				}
; 209  : 
; 210  : 				Item		I;

	mov	rcx, QWORD PTR ?g_pStringContainer@@3PEAVstr_container@@EA ; g_pStringContainer
	xor	edx, edx
	call	?dock@str_container@@QEAAPEAUstr_value@@PEBD@Z ; str_container::dock
	mov	rbx, rax
	test	rax, rax
	je	SHORT $LN702@Load
	inc	DWORD PTR [rax]
$LN702@Load:
	mov	rcx, QWORD PTR ?g_pStringContainer@@3PEAVstr_container@@EA ; g_pStringContainer
	xor	edx, edx
	call	?dock@str_container@@QEAAPEAUstr_value@@PEBD@Z ; str_container::dock
	mov	rsi, rax
	test	rax, rax
	je	SHORT $LN708@Load
	inc	DWORD PTR [rax]
$LN708@Load:

; 211  : 				I.first		= (name[0]?name:NULL);

	cmp	BYTE PTR str$[rbp-256], 0
	mov	rcx, QWORD PTR ?g_pStringContainer@@3PEAVstr_container@@EA ; g_pStringContainer
	mov	eax, 0
	lea	rdx, QWORD PTR str$[rbp-256]
	cmove	rdx, rax
	call	?dock@str_container@@QEAAPEAUstr_value@@PEBD@Z ; str_container::dock
	mov	rdi, rax
	test	rax, rax
	je	SHORT $LN717@Load
	inc	DWORD PTR [rax]
$LN717@Load:
	test	rbx, rbx
	je	SHORT $LN720@Load
	dec	DWORD PTR [rbx]
$LN720@Load:

; 212  : 				I.second	= (str2[0]?str2:NULL);

	cmp	BYTE PTR str2$[rbp-256], 0
	mov	rcx, QWORD PTR ?g_pStringContainer@@3PEAVstr_container@@EA ; g_pStringContainer
	mov	QWORD PTR I$97414[rbp-256], rax
	mov	eax, 0
	lea	rdx, QWORD PTR str2$[rbp-256]
	cmove	rdx, rax
	call	?dock@str_container@@QEAAPEAUstr_value@@PEBD@Z ; str_container::dock
	mov	rbx, rax
	test	rax, rax
	je	SHORT $LN726@Load
	inc	DWORD PTR [rax]
$LN726@Load:
	test	rsi, rsi
	je	SHORT $LN729@Load
	dec	DWORD PTR [rsi]
$LN729@Load:
	mov	QWORD PTR I$97414[rbp-248], rax

; 213  : #ifdef DEBUG
; 214  : 				I.comment	= bReadOnly?0:comment;
; 215  : #endif
; 216  : 
; 217  : 				if (bReadOnly) {

	mov	rax, QWORD PTR this$[rbp-256]
	cmp	DWORD PTR [rax+48], 0
	je	SHORT $LN7@Load

; 218  : 					if (*I.first)							insert_item	(Current,I);

	test	rdi, rdi
	je	SHORT $LN4@Load
	lea	rax, QWORD PTR [rdi+12]

; 219  : 				} else {

	jmp	SHORT $LN1053@Load
$LN7@Load:

; 220  : 					if	(
; 221  : 							*I.first
; 222  : 							|| *I.second 
; 223  : #ifdef DEBUG
; 224  : 							|| *I.comment
; 225  : #endif
; 226  : 						)

	test	rdi, rdi
	je	SHORT $LN1023@Load
	lea	rax, QWORD PTR [rdi+12]
	test	rax, rax
	jne	SHORT $LN3@Load
$LN1023@Load:
	test	rbx, rbx
	je	SHORT $LN1042@Load
	lea	rax, QWORD PTR [rbx+12]
$LN1053@Load:
	test	rax, rax
	je	SHORT $LN4@Load
$LN3@Load:

; 227  : 						insert_item	(Current,I);

	mov	rcx, QWORD PTR Current$1$[rsp]
	lea	rdx, QWORD PTR I$97414[rbp-256]
	call	?insert_item@@YAXPEAUSect@CInifile@@AEBUItem@2@@Z ; insert_item
$LN4@Load:

; 228  : 				}
; 229  : 			}

	test	rbx, rbx
	je	SHORT $LN1042@Load
	dec	DWORD PTR [rbx]
	mov	esi, 0
	cmove	rbx, rsi
	mov	QWORD PTR I$97414[rbp-248], rbx
	jmp	SHORT $LN749@Load
$LN1042@Load:
	xor	esi, esi
$LN749@Load:
	mov	rbx, QWORD PTR Current$1$[rsp]
	test	rdi, rdi
	je	SHORT $LN1051@Load
	dec	DWORD PTR [rdi]
	cmove	rdi, rsi
	mov	QWORD PTR I$97414[rbp-256], rdi
	jmp	SHORT $LN1051@Load
$LN1038@Load:

; 177  : 			}
; 178  : 			Current				= xr_new<Sect>();

	mov	rbx, QWORD PTR Current$1$[rsp]
	jmp	SHORT $LN755@Load
$LN1040@Load:

; 198  : 			if (Current){

	xor	esi, esi
$LN1051@Load:
	mov	rdi, QWORD PTR this$[rbp-256]

; 228  : 				}
; 229  : 			}

$LN755@Load:

; 133  : 	Sect		*Current = 0;
; 134  : 	string4096	str;
; 135  : 	string4096	str2;
; 136  : 
; 137  : 	while (!F->eof())

	mov	r9, QWORD PTR F$[rbp-256]
	mov	eax, DWORD PTR [r9+20]
	sub	eax, DWORD PTR [r9+16]
	test	eax, eax
	jg	$LN1054@Load

; 230  : 		}
; 231  : 	}
; 232  : 	if (Current)

	test	rbx, rbx
	je	$LN1049@Load

; 233  : 	{
; 234  : 		RootIt I		= std::lower_bound(DATA.begin(),DATA.end(),*Current->Name,sect_pred);

	mov	r11, QWORD PTR [rbx]
	mov	QWORD PTR tv3326[rbp-256], r11
	test	r11, r11
	je	SHORT $LN761@Load
	lea	rax, QWORD PTR [r11+12]
	mov	QWORD PTR $T372370[rbp-256], rax
	jmp	SHORT $LN762@Load
$LN1007@Load:

; 188  : 					xr_string	tmp;
; 189  : 					_GetItem	(inherited_names,k,tmp);

	lea	rcx, OFFSET FLAT:??_C@_0BI@CFPLBAOH@invalid?5string?5position?$AA@
	call	QWORD PTR __imp_?_Xout_of_range@std@@YAXPEBD@Z
	int	3

; 233  : 	{
; 234  : 		RootIt I		= std::lower_bound(DATA.begin(),DATA.end(),*Current->Name,sect_pred);

$LN761@Load:
	mov	QWORD PTR $T372370[rbp-256], rsi
$LN762@Load:
	mov	rax, QWORD PTR [rdi+24]
	mov	rbx, QWORD PTR [rdi+16]
	lea	rsi, QWORD PTR [rdi+16]
	mov	r8, rax
	mov	QWORD PTR tv3324[rbp-256], rsi
	mov	QWORD PTR tv3322[rbp-256], rax
	sub	r8, rbx
	sar	r8, 3
	test	r8, r8
	jle	SHORT $LN793@Load
	mov	rsi, QWORD PTR $T372370[rbp-256]
	xor	r11d, r11d
	npad	5
$LL794@Load:
	mov	rax, r8
	cdq
	sub	rax, rdx
	sar	rax, 1
	mov	r9, rax
	lea	r10, QWORD PTR [rbx+rax*8]
	mov	rcx, QWORD PTR [r10]
	mov	rcx, QWORD PTR [rcx]
	test	rcx, rcx
	je	SHORT $LN813@Load
	add	rcx, 12
	jmp	SHORT $LN814@Load
$LN813@Load:
	mov	rcx, r11
$LN814@Load:
	mov	rdi, rsi
	sub	rdi, rcx
	npad	4
$LL1026@Load:
	movzx	edx, BYTE PTR [rcx]
	movzx	eax, BYTE PTR [rcx+rdi]
	sub	edx, eax
	jne	SHORT $LN1027@Load
	inc	rcx
	test	eax, eax
	jne	SHORT $LL1026@Load
$LN1027@Load:
	test	edx, edx
	jns	SHORT $LN792@Load
	or	rax, -1
	lea	rbx, QWORD PTR [r10+8]
	sub	rax, r9
	add	r8, rax
	jmp	SHORT $LN791@Load
$LN792@Load:
	mov	r8, r9
$LN791@Load:
	test	r8, r8
	jg	SHORT $LL794@Load
	mov	rsi, QWORD PTR tv3324[rbp-256]
	mov	r11, QWORD PTR tv3326[rbp-256]
	mov	rax, QWORD PTR tv3322[rbp-256]
$LN793@Load:

; 235  : 		if ((I!=DATA.end())&&((*I)->Name==Current->Name))

	cmp	rbx, rax
	je	SHORT $LN1@Load
	mov	rax, QWORD PTR [rbx]
	cmp	QWORD PTR [rax], r11
	jne	SHORT $LN1@Load

; 236  : 			Debug.fatal(DEBUG_INFO,"Duplicate section '%s' found.",*Current->Name);

	test	r11, r11
	je	SHORT $LN850@Load
	lea	rax, QWORD PTR [r11+12]
	jmp	SHORT $LN851@Load
$LN850@Load:
	xor	eax, eax
$LN851@Load:
	mov	QWORD PTR [rsp+40], rax
	lea	rax, OFFSET FLAT:??_C@_0BO@PADAFPII@Duplicate?5section?5?8?$CFs?8?5found?4?$AA@
	lea	r9, OFFSET FLAT:??_C@_0P@PFFEEJAK@CInifile?3?3Load?$AA@
	lea	rdx, OFFSET FLAT:??_C@_0L@BOCIKDOE@Xr_ini?4cpp?$AA@
	lea	rcx, OFFSET FLAT:?Debug@@3VxrDebug@@A	; Debug
	mov	r8d, 236				; 000000ecH
	mov	QWORD PTR [rsp+32], rax
	call	?fatal@xrDebug@@QEAAXPEBDH00ZZ		; xrDebug::fatal
$LN1@Load:

; 237  : 		DATA.insert		(I,Current);

	sub	rbx, QWORD PTR [rsi]
	mov	rax, QWORD PTR [rsi+16]
	sar	rbx, 3
	cmp	QWORD PTR [rsi+8], rax
	jne	SHORT $LN860@Load
	mov	rcx, rsi
	call	?_Reserve@?$vector@PEAUSect@CInifile@@V?$xalloc@PEAUSect@CInifile@@@@@std@@IEAAX_K@Z ; std::vector<CInifile::Sect * __ptr64,xalloc<CInifile::Sect * __ptr64> >::_Reserve
$LN860@Load:
	mov	rax, QWORD PTR [rsi+8]
	test	rax, rax
	je	SHORT $LN875@Load
	mov	rcx, QWORD PTR Current$1$[rsp]
	mov	QWORD PTR [rax], rcx
$LN875@Load:
	add	QWORD PTR [rsi+8], 8
	mov	rax, QWORD PTR [rsi]
	mov	r8, QWORD PTR [rsi+8]
	lea	rdx, QWORD PTR [r8-8]
	lea	rcx, QWORD PTR [rax+rbx*8]
	cmp	rcx, rdx
	je	SHORT $LN1049@Load
	cmp	rdx, r8
	je	SHORT $LN1049@Load
	call	??$_Rotate@PEAPEAUSect@CInifile@@_JPEAU12@@std@@YAXPEAPEAUSect@CInifile@@00PEA_J0@Z ; std::_Rotate<CInifile::Sect * __ptr64 * __ptr64,__int64,CInifile::Sect * __ptr64>
$LN1049@Load:
	mov	rbx, QWORD PTR [rsp+9984]
	mov	rdi, QWORD PTR [rsp+9976]
$LN974@Load:

; 238  : 	}
; 239  : }

	add	rsp, 9992				; 00002708H
	pop	rsi
	pop	rbp
	ret	0
$LN1050@Load:
?Load@CInifile@@AEAAXPEAVIReader@@PEBD@Z ENDP		; CInifile::Load
_TEXT	ENDS
PUBLIC	??0CInifile@@QEAA@PEBDHHH@Z			; CInifile::CInifile
pdata	SEGMENT
$pdata$??0CInifile@@QEAA@PEBDHHH@Z DD imagerel $LN67
	DD	imagerel $LN67+25
	DD	imagerel $unwind$??0CInifile@@QEAA@PEBDHHH@Z
$pdata$1$??0CInifile@@QEAA@PEBDHHH@Z DD imagerel $LN67+25
	DD	imagerel $LN67+169
	DD	imagerel $chain$1$??0CInifile@@QEAA@PEBDHHH@Z
$pdata$2$??0CInifile@@QEAA@PEBDHHH@Z DD imagerel $LN67+169
	DD	imagerel $LN67+445
	DD	imagerel $chain$2$??0CInifile@@QEAA@PEBDHHH@Z
pdata	ENDS
xdata	SEGMENT
$unwind$??0CInifile@@QEAA@PEBDHHH@Z DD 091601H
	DD	0915416H
	DD	0903416H
	DD	08a0116H
	DD	0700de00fH
	DD	0600cH
$chain$1$??0CInifile@@QEAA@PEBDHHH@Z DD 040821H
	DD	08fd408H
	DD	08ec404H
	DD	imagerel $LN67
	DD	imagerel $LN67+25
	DD	imagerel $unwind$??0CInifile@@QEAA@PEBDHHH@Z
$chain$2$??0CInifile@@QEAA@PEBDHHH@Z DD 021H
	DD	imagerel $LN67
	DD	imagerel $LN67+25
	DD	imagerel $unwind$??0CInifile@@QEAA@PEBDHHH@Z
; Function compile flags: /Ogtpy
xdata	ENDS
_TEXT	SEGMENT
path$97258 = 48
folder$97259 = 576
this$ = 1136
szFileName$ = 1144
ReadOnly$ = 1152
bLoad$ = 1160
SaveAtEnd$ = 1168
??0CInifile@@QEAA@PEBDHHH@Z PROC			; CInifile::CInifile

; 85   : {

$LN67:
	mov	rax, rsp
	mov	QWORD PTR [rax+24], rbx
	mov	QWORD PTR [rax+32], rbp
	push	rsi
	push	rdi
	push	r14
	sub	rsp, 1104				; 00000450H
	xor	r14d, r14d
	mov	QWORD PTR [rax+8], r12
	mov	QWORD PTR [rax+16], r13
	lea	rax, OFFSET FLAT:??_7CInifile@@6B@
	mov	r12d, r9d
	mov	r13d, r8d
	mov	QWORD PTR [rcx], rax
	mov	rbp, rdx
	mov	rbx, rcx
	mov	QWORD PTR [rcx+16], r14
	mov	QWORD PTR [rcx+24], r14
	mov	QWORD PTR [rcx+32], r14

; 86   : 	fName		= szFileName?xr_strdup(szFileName):0;

	test	rdx, rdx
	je	SHORT $LN5@CInifile@2
	or	rcx, -1
	mov	rdi, rdx
	xor	eax, eax
	repne scasb
	not	rcx
	and	ecx, ecx
	mov	edi, ecx
	mov	edx, ecx
	lea	rcx, OFFSET FLAT:?Memory@@3VxrMemory@@A	; Memory
	call	?mem_alloc@xrMemory@@QEAAPEAX_K@Z	; xrMemory::mem_alloc
	mov	r8d, edi
	mov	rdx, rbp
	mov	rcx, rax
	mov	rsi, rax
	call	memcpy
	jmp	SHORT $LN6@CInifile@2
$LN5@CInifile@2:
	mov	rsi, r14
$LN6@CInifile@2:

; 87   :     bReadOnly	= ReadOnly;
; 88   :     bSaveAtEnd	= SaveAtEnd;

	mov	eax, DWORD PTR SaveAtEnd$[rsp]
	mov	DWORD PTR [rbx+48], r13d
	mov	r13, QWORD PTR [rsp+1144]

; 89   : 	if (bLoad)

	test	r12d, r12d
	mov	r12, QWORD PTR [rsp+1136]
	mov	DWORD PTR [rbx+52], eax
	mov	QWORD PTR [rbx+8], rsi
	je	$LN65@CInifile@2

; 90   : 	{	
; 91   :     	string_path	path,folder; 
; 92   : 		_splitpath	(fName, path, folder, 0, 0 );

	lea	r8, QWORD PTR folder$97259[rsp]
	lea	rdx, QWORD PTR path$97258[rsp]
	xor	r9d, r9d
	mov	rcx, rsi
	mov	QWORD PTR [rsp+32], r14
	call	QWORD PTR __imp__splitpath

; 93   :         strcat		(path,folder);

	xor	eax, eax
	or	rcx, -1
	lea	rdi, QWORD PTR path$97258[rsp]
	lea	rdx, QWORD PTR folder$97259[rsp]
	repne scasb
	xor	ecx, ecx
	npad	2
$LL63@CInifile@2:
	movzx	eax, BYTE PTR [rdx+rcx]
	inc	rcx
	mov	BYTE PTR [rdi+rcx-2], al
	test	al, al
	jne	SHORT $LL63@CInifile@2

; 94   : 		IReader* R 	= FS.r_open(szFileName);

	mov	rcx, QWORD PTR ?xr_FS@@3PEAVCLocatorAPI@@EA ; xr_FS
	mov	r8, rbp
	xor	edx, edx
	call	??$r_open_impl@VIReader@@@CLocatorAPI@@AEAAPEAVIReader@@PEBD0@Z ; CLocatorAPI::r_open_impl<IReader>
	mov	rsi, rax

; 95   :         if (R){

	test	rax, rax
	je	$LN65@CInifile@2

; 96   : 			Load		(R,path);

	lea	r8, QWORD PTR path$97258[rsp]
	mov	rdx, rax
	mov	rcx, rbx
	call	?Load@CInifile@@AEAAXPEAVIReader@@PEBD@Z ; CInifile::Load

; 97   : 			FS.r_close	(R);

	mov	rdx, QWORD PTR ?xr_FS@@3PEAVCLocatorAPI@@EA ; xr_FS
	test	DWORD PTR [rdx+160], 512		; 00000200H
	je	SHORT $LN28@CInifile@2
	mov	rcx, rsi
	call	??$_unregister_open_file@VIReader@@@@YAXPEAVIReader@@@Z ; _unregister_open_file<IReader>
$LN28@CInifile@2:
	mov	rcx, rsi
	call	__RTCastToVoid
	xor	edx, edx
	mov	rcx, rsi
	mov	rdi, rax
	mov	rax, QWORD PTR [rsi]
	call	QWORD PTR [rax]
	inc	DWORD PTR ?Memory@@3VxrMemory@@A
	movzx	eax, BYTE PTR [rdi-1]
	lea	rsi, QWORD PTR [rdi-1]
	cmp	eax, 55					; 00000037H
	jne	SHORT $LN40@CInifile@2
	test	rsi, rsi
	je	SHORT $LN65@CInifile@2
	and	rsi, -8
	mov	rcx, QWORD PTR [rsi-8]
	call	QWORD PTR __imp_free
	jmp	SHORT $LN65@CInifile@2
$LN40@CInifile@2:
	lea	rdi, QWORD PTR [rax+rax*4]
	lea	rbp, OFFSET FLAT:?mem_pools@@3PAVMEMPOOL@@A ; mem_pools
	mov	rcx, QWORD PTR [rbp+rdi*8]
	call	QWORD PTR __imp_EnterCriticalSection
	mov	rax, QWORD PTR [rbp+rdi*8+32]
	mov	QWORD PTR [rsi], rax
	mov	rcx, QWORD PTR [rbp+rdi*8]
	mov	QWORD PTR [rbp+rdi*8+32], rsi
	call	QWORD PTR __imp_LeaveCriticalSection
$LN65@CInifile@2:

; 98   :         }
; 99   : 	}
; 100  : }

	lea	r11, QWORD PTR [rsp+1104]
	mov	rax, rbx
	mov	rbx, QWORD PTR [r11+48]
	mov	rbp, QWORD PTR [r11+56]
	mov	rsp, r11
	pop	r14
	pop	rdi
	pop	rsi
	ret	0
??0CInifile@@QEAA@PEBDHHH@Z ENDP			; CInifile::CInifile
_TEXT	ENDS
PUBLIC	??0CInifile@@QEAA@PEAVIReader@@PEBD@Z		; CInifile::CInifile
pdata	SEGMENT
$pdata$??0CInifile@@QEAA@PEAVIReader@@PEBD@Z DD imagerel $LN13
	DD	imagerel $LN13+59
	DD	imagerel $unwind$??0CInifile@@QEAA@PEAVIReader@@PEBD@Z
pdata	ENDS
xdata	SEGMENT
$unwind$??0CInifile@@QEAA@PEAVIReader@@PEBD@Z DD 020601H
	DD	030023206H
; Function compile flags: /Ogtpy
xdata	ENDS
_TEXT	SEGMENT
this$ = 48
F$ = 56
path$ = 64
??0CInifile@@QEAA@PEAVIReader@@PEBD@Z PROC		; CInifile::CInifile

; 77   : {

$LN13:
	push	rbx
	sub	rsp, 32					; 00000020H
	lea	rax, OFFSET FLAT:??_7CInifile@@6B@
	mov	rbx, rcx
	mov	QWORD PTR [rcx], rax
	xor	eax, eax
	mov	QWORD PTR [rcx+16], rax
	mov	QWORD PTR [rcx+24], rax
	mov	QWORD PTR [rcx+32], rax

; 78   : 	fName		= 0;

	mov	QWORD PTR [rcx+8], rax

; 79   : 	bReadOnly	= TRUE;

	mov	QWORD PTR [rcx+48], 1

; 80   : 	bSaveAtEnd	= FALSE;
; 81   : 	Load		(F,path);

	call	?Load@CInifile@@AEAAXPEAVIReader@@PEBD@Z ; CInifile::Load

; 82   : }

	mov	rax, rbx
	add	rsp, 32					; 00000020H
	pop	rbx
	ret	0
??0CInifile@@QEAA@PEAVIReader@@PEBD@Z ENDP		; CInifile::CInifile
;	COMDAT pdata
; File c:\program files (x86)\microsoft visual studio 10.0\vc\include\new
pdata	SEGMENT
$pdata$??$xr_new@VCInifile@@PEBDH@@YAPEAVCInifile@@AEBQEBDAEBH@Z DD imagerel $LN7
	DD	imagerel $LN7+88
	DD	imagerel $unwind$??$xr_new@VCInifile@@PEBDH@@YAPEAVCInifile@@AEBQEBDAEBH@Z
pdata	ENDS
;	COMDAT xdata
xdata	SEGMENT
$unwind$??$xr_new@VCInifile@@PEBDH@@YAPEAVCInifile@@AEBQEBDAEBH@Z DD 040a01H
	DD	08340aH
	DD	07006520aH
; Function compile flags: /Ogtpy
; File c:\users\nummer\documents\github\olr-3.0\src\xray\xrcore\xrmemory_subst_msvc.h
xdata	ENDS
;	COMDAT ??$xr_new@VCInifile@@PEBDH@@YAPEAVCInifile@@AEBQEBDAEBH@Z
_TEXT	SEGMENT
p1$ = 64
p2$ = 72
??$xr_new@VCInifile@@PEBDH@@YAPEAVCInifile@@AEBQEBDAEBH@Z PROC ; xr_new<CInifile,char const * __ptr64,int>, COMDAT

; 79   : IC	T*		xr_new		(const P1& p1, const P2& p2) {

$LN7:
	mov	QWORD PTR [rsp+8], rbx
	push	rdi
	sub	rsp, 48					; 00000030H
	mov	rdi, rcx
	mov	rbx, rdx

; 80   : 	T* ptr	= (T*)Memory.mem_alloc(sizeof(T));

	lea	rcx, OFFSET FLAT:?Memory@@3VxrMemory@@A	; Memory
	mov	edx, 56					; 00000038H
	call	?mem_alloc@xrMemory@@QEAAPEAX_K@Z	; xrMemory::mem_alloc

; 81   : 	return new (ptr) T(p1,p2);

	test	rax, rax
	je	SHORT $LN3@xr_new@22
	mov	r8d, DWORD PTR [rbx]
	mov	rdx, QWORD PTR [rdi]
	mov	r9d, 1
	mov	rcx, rax
	mov	DWORD PTR [rsp+32], 1
	call	??0CInifile@@QEAA@PEBDHHH@Z		; CInifile::CInifile

; 82   : }

	mov	rbx, QWORD PTR [rsp+64]
	add	rsp, 48					; 00000030H
	pop	rdi
	ret	0
$LN3@xr_new@22:
	mov	rbx, QWORD PTR [rsp+64]
	add	rsp, 48					; 00000030H
	pop	rdi
	ret	0
??$xr_new@VCInifile@@PEBDH@@YAPEAVCInifile@@AEBQEBDAEBH@Z ENDP ; xr_new<CInifile,char const * __ptr64,int>
_TEXT	ENDS
PUBLIC	?Create@CInifile@@SAPEAV1@PEBDH@Z		; CInifile::Create
pdata	SEGMENT
$pdata$?Create@CInifile@@SAPEAV1@PEBDH@Z DD imagerel $LN9
	DD	imagerel $LN9+87
	DD	imagerel $unwind$?Create@CInifile@@SAPEAV1@PEBDH@Z
pdata	ENDS
xdata	SEGMENT
$unwind$?Create@CInifile@@SAPEAV1@PEBDH@Z DD 040a01H
	DD	08340aH
	DD	07006520aH
; Function compile flags: /Ogtpy
; File c:\users\nummer\documents\github\olr-3.0\src\xray\xrcore\xr_ini.cpp
xdata	ENDS
_TEXT	SEGMENT
szFileName$ = 64
ReadOnly$ = 72
?Create@CInifile@@SAPEAV1@PEBDH@Z PROC			; CInifile::Create

; 9    : {	return xr_new<CInifile>(szFileName,ReadOnly); }

$LN9:
	mov	QWORD PTR [rsp+8], rbx
	push	rdi
	sub	rsp, 48					; 00000030H
	mov	rdi, rcx
	mov	ebx, edx
	lea	rcx, OFFSET FLAT:?Memory@@3VxrMemory@@A	; Memory
	mov	edx, 56					; 00000038H
	call	?mem_alloc@xrMemory@@QEAAPEAX_K@Z	; xrMemory::mem_alloc
	test	rax, rax
	je	SHORT $LN5@Create
	mov	r9d, 1
	mov	r8d, ebx
	mov	rdx, rdi
	mov	rcx, rax
	mov	DWORD PTR [rsp+32], 1
	call	??0CInifile@@QEAA@PEBDHHH@Z		; CInifile::CInifile
	mov	rbx, QWORD PTR [rsp+64]
	add	rsp, 48					; 00000030H
	pop	rdi
	ret	0
$LN5@Create:
	mov	rbx, QWORD PTR [rsp+64]
	add	rsp, 48					; 00000030H
	pop	rdi
	ret	0
?Create@CInifile@@SAPEAV1@PEBDH@Z ENDP			; CInifile::Create
END
