; Listing generated by Microsoft (R) Optimizing Compiler Version 16.00.40219.01 

include listing.inc

INCLUDELIB OLDNAMES

PUBLIC	??_R4CSymbolEngine@@6B@				; CSymbolEngine::`RTTI Complete Object Locator'
PUBLIC	??_R3CSymbolEngine@@8				; CSymbolEngine::`RTTI Class Hierarchy Descriptor'
PUBLIC	??_R2CSymbolEngine@@8				; CSymbolEngine::`RTTI Base Class Array'
PUBLIC	??_R1A@?0A@EA@CSymbolEngine@@8			; CSymbolEngine::`RTTI Base Class Descriptor at (0,-1,0,64)'
PUBLIC	??_R0?AVCSymbolEngine@@@8			; CSymbolEngine `RTTI Type Descriptor'
PUBLIC	?strstr@@YAPEADPEADPEBD@Z			; strstr
PUBLIC	?strconcat@@YAPEBDHPEADPEBD1@Z			; strconcat
PUBLIC	??0CSymbolEngine@@QEAA@XZ			; CSymbolEngine::CSymbolEngine
PUBLIC	??_GCSymbolEngine@@UEAAPEAXI@Z			; CSymbolEngine::`scalar deleting destructor'
PUBLIC	??1CSymbolEngine@@UEAA@XZ			; CSymbolEngine::~CSymbolEngine
PUBLIC	??_U@YAPEAX_K@Z					; operator new[]
PUBLIC	?GetInMemoryFileVersion@CSymbolEngine@@QEAAHPEBDAEAK1@Z ; CSymbolEngine::GetInMemoryFileVersion
PUBLIC	??$strcpy_s@$0EA@@@YAHAEAY0EA@DPEBD@Z		; strcpy_s<64>
PUBLIC	??$xr_new@VCLocatorAPI@@@@YAPEAVCLocatorAPI@@XZ	; xr_new<CLocatorAPI>
PUBLIC	??$xr_new@VEFS_Utils@@@@YAPEAVEFS_Utils@@XZ	; xr_new<EFS_Utils>
PUBLIC	?buffer@stream@ppmd@compression@@QEBAPEAEXZ	; compression::ppmd::stream::buffer
PUBLIC	??_GCLocatorAPI@@QEAAPEAXI@Z			; CLocatorAPI::`scalar deleting destructor'
PUBLIC	??R?$xr_special_free@$0A@VCLocatorAPI@@@@QEAAXAEAPEAVCLocatorAPI@@@Z ; xr_special_free<0,CLocatorAPI>::operator()
PUBLIC	??$xr_delete@VCLocatorAPI@@@@YAXAEAPEAVCLocatorAPI@@@Z ; xr_delete<CLocatorAPI>
PUBLIC	??R?$xr_special_free@$00VEFS_Utils@@@@QEAAXAEAPEAVEFS_Utils@@@Z ; xr_special_free<1,EFS_Utils>::operator()
PUBLIC	??$xr_delete@VEFS_Utils@@@@YAXAEAPEAVEFS_Utils@@@Z ; xr_delete<EFS_Utils>
PUBLIC	??R?$xr_special_free@$0A@Vstream@ppmd@compression@@@@QEAAXAEAPEAVstream@ppmd@compression@@@Z ; xr_special_free<0,compression::ppmd::stream>::operator()
PUBLIC	??$xr_delete@Vstream@ppmd@compression@@@@YAXAEAPEAVstream@ppmd@compression@@@Z ; xr_delete<compression::ppmd::stream>
PUBLIC	?Core@@3VxrCore@@A				; Core
PUBLIC	?build_id@@3IA					; build_id
PUBLIC	?build_date@@3PEBDEB				; build_date
PUBLIC	??_C@_01KICIPPFI@?2?$AA@			; `string'
PUBLIC	??_C@_0L@KNAPJNOA@xrCore?4dll?$AA@		; `string'
PUBLIC	??_C@_03OOPKOFPE@?9wf?$AA@			; `string'
PUBLIC	??_C@_06EPKOIJFL@?$CF?$FL?$FO?5?$FN?5?$AA@	; `string'
PUBLIC	??_C@_04CPLKOIEC@?9wf?5?$AA@			; `string'
PUBLIC	??_C@_0L@FOPADGPO@?9mem_debug?$AA@		; `string'
PUBLIC	??_C@_06LOIFJNFN@?9build?$AA@			; `string'
PUBLIC	??_C@_07FDFMNBND@?9ebuild?$AA@			; `string'
PUBLIC	??_C@_0P@FKEDFFFF@?9file_activity?$AA@		; `string'
PUBLIC	??_C@_06MIBHPEBH@xrCore?$AA@			; `string'
PUBLIC	??_C@_0BD@JOAIEFKH@?8?$CFs?8?5build?5?$CFd?0?5?$CFs?6?$AA@ ; `string'
PUBLIC	??_C@_0BJ@KCKDNGEA@EnumerateLoadedModulesEx?$AA@ ; `string'
PUBLIC	??_C@_0M@OOEJBPPK@dbghelp?4dll?$AA@		; `string'
PUBLIC	??_C@_0EG@KOOKGMKK@?S?q?r?$OA?p?e?b?x?h?i?5?t?$OA?i?k?5dbghelp?4dll?5?$CI?$CFd?4@ ; `string'
PUBLIC	??_C@_0BB@IILKFANF@DebugHlp?5Warning?$AA@	; `string'
PUBLIC	??_7CSymbolEngine@@6B@				; CSymbolEngine::`vftable'
EXTRN	__imp__strlwr_s:PROC
EXTRN	__imp_strstr:PROC
EXTRN	__imp_GetProcAddress:PROC
EXTRN	__imp_GetCommandLineA:PROC
EXTRN	__imp_SetCurrentDirectoryA:PROC
EXTRN	__imp_GetCurrentDirectoryA:PROC
EXTRN	__imp_GetComputerNameA:PROC
EXTRN	__imp_GetUserNameA:PROC
EXTRN	__imp_MessageBoxA:PROC
EXTRN	__imp_sprintf_s:PROC
EXTRN	__imp_sscanf:PROC
EXTRN	__imp__splitpath:PROC
EXTRN	__imp_strcat_s:PROC
EXTRN	__imp_ImagehlpApiVersion:PROC
EXTRN	??_ECSymbolEngine@@UEAAPEAXI@Z:PROC		; CSymbolEngine::`vector deleting destructor'
EXTRN	__imp_GetModuleFileNameA:PROC
EXTRN	__imp_GetModuleHandleA:PROC
EXTRN	__imp_GetFileVersionInfoSizeA:PROC
EXTRN	__imp_GetFileVersionInfoA:PROC
EXTRN	__imp_VerQueryValueA:PROC
EXTRN	__imp_strcpy_s:PROC
EXTRN	__imp__clearfp:PROC
EXTRN	__imp__control87:PROC
EXTRN	__imp_timeBeginPeriod:PROC
EXTRN	__imp_CoInitializeEx:PROC
?Core@@3VxrCore@@A DB 06d0H DUP (?)			; Core
?build_id@@3IA DD 01H DUP (?)				; build_id
	ALIGN	8

?build_date@@3PEBDEB DQ 01H DUP (?)			; build_date
init_counter DD	01H DUP (?)
;	COMDAT ??_7CSymbolEngine@@6B@
CONST	SEGMENT
??_7CSymbolEngine@@6B@ DQ FLAT:??_R4CSymbolEngine@@6B@	; CSymbolEngine::`vftable'
	DQ	FLAT:??_ECSymbolEngine@@UEAAPEAXI@Z
CONST	ENDS
;	COMDAT ??_R4CSymbolEngine@@6B@
rdata$r	SEGMENT
??_R4CSymbolEngine@@6B@ DD 01H				; CSymbolEngine::`RTTI Complete Object Locator'
	DD	00H
	DD	00H
	DD	imagerel ??_R0?AVCSymbolEngine@@@8
	DD	imagerel ??_R3CSymbolEngine@@8
	DD	imagerel ??_R4CSymbolEngine@@6B@
rdata$r	ENDS
;	COMDAT ??_R3CSymbolEngine@@8
rdata$r	SEGMENT
??_R3CSymbolEngine@@8 DD 00H				; CSymbolEngine::`RTTI Class Hierarchy Descriptor'
	DD	00H
	DD	01H
	DD	imagerel ??_R2CSymbolEngine@@8
rdata$r	ENDS
;	COMDAT ??_R2CSymbolEngine@@8
rdata$r	SEGMENT
??_R2CSymbolEngine@@8 DD imagerel ??_R1A@?0A@EA@CSymbolEngine@@8 ; CSymbolEngine::`RTTI Base Class Array'
	ORG $+3
rdata$r	ENDS
;	COMDAT ??_R1A@?0A@EA@CSymbolEngine@@8
rdata$r	SEGMENT
??_R1A@?0A@EA@CSymbolEngine@@8 DD imagerel ??_R0?AVCSymbolEngine@@@8 ; CSymbolEngine::`RTTI Base Class Descriptor at (0,-1,0,64)'
	DD	00H
	DD	00H
	DD	0ffffffffH
	DD	00H
	DD	040H
	DD	imagerel ??_R3CSymbolEngine@@8
rdata$r	ENDS
;	COMDAT ??_R0?AVCSymbolEngine@@@8
_DATA	SEGMENT
??_R0?AVCSymbolEngine@@@8 DQ FLAT:??_7type_info@@6B@	; CSymbolEngine `RTTI Type Descriptor'
	DQ	0000000000000000H
	DB	'.?AVCSymbolEngine@@', 00H
_DATA	ENDS
;	COMDAT ??_C@_0BB@IILKFANF@DebugHlp?5Warning?$AA@
CONST	SEGMENT
??_C@_0BB@IILKFANF@DebugHlp?5Warning?$AA@ DB 'DebugHlp Warning', 00H ; `string'
CONST	ENDS
;	COMDAT ??_C@_0EG@KOOKGMKK@?S?q?r?$OA?p?e?b?x?h?i?5?t?$OA?i?k?5dbghelp?4dll?5?$CI?$CFd?4@
CONST	SEGMENT
??_C@_0EG@KOOKGMKK@?S?q?r?$OA?p?e?b?x?h?i?5?t?$OA?i?k?5dbghelp?4dll?5?$CI?$CFd?4@ DB 0d3H
	DB	0f1H, 0f2H, 0e0H, 0f0H, 0e5H, 0e2H, 0f8H, 0e8H, 0e9H, ' ', 0f4H
	DB	0e0H, 0e9H, 0ebH, ' dbghelp.dll (%d.%d.%d.%d), ', 0e5H, 0e3H, 0eeH
	DB	' ', 0f0H, 0e5H, 0eaH, 0eeH, 0ecH, 0e5H, 0edH, 0e4H, 0f3H, 0e5H
	DB	0f2H, 0f1H, 0ffH, ' ', 0f3H, 0e4H, 0e0H, 0ebH, 0e8H, 0f2H, 0fcH
	DB	'.', 00H					; `string'
CONST	ENDS
;	COMDAT ??_C@_0M@OOEJBPPK@dbghelp?4dll?$AA@
CONST	SEGMENT
??_C@_0M@OOEJBPPK@dbghelp?4dll?$AA@ DB 'dbghelp.dll', 00H ; `string'
CONST	ENDS
;	COMDAT ??_C@_0BJ@KCKDNGEA@EnumerateLoadedModulesEx?$AA@
CONST	SEGMENT
??_C@_0BJ@KCKDNGEA@EnumerateLoadedModulesEx?$AA@ DB 'EnumerateLoadedModul'
	DB	'esEx', 00H					; `string'
CONST	ENDS
;	COMDAT ??_C@_0BD@JOAIEFKH@?8?$CFs?8?5build?5?$CFd?0?5?$CFs?6?$AA@
CONST	SEGMENT
??_C@_0BD@JOAIEFKH@?8?$CFs?8?5build?5?$CFd?0?5?$CFs?6?$AA@ DB '''%s'' bui'
	DB	'ld %d, %s', 0aH, 00H			; `string'
CONST	ENDS
;	COMDAT ??_C@_06MIBHPEBH@xrCore?$AA@
CONST	SEGMENT
??_C@_06MIBHPEBH@xrCore?$AA@ DB 'xrCore', 00H		; `string'
CONST	ENDS
;	COMDAT ??_C@_0P@FKEDFFFF@?9file_activity?$AA@
CONST	SEGMENT
??_C@_0P@FKEDFFFF@?9file_activity?$AA@ DB '-file_activity', 00H ; `string'
CONST	ENDS
;	COMDAT ??_C@_07FDFMNBND@?9ebuild?$AA@
CONST	SEGMENT
??_C@_07FDFMNBND@?9ebuild?$AA@ DB '-ebuild', 00H	; `string'
CONST	ENDS
;	COMDAT ??_C@_06LOIFJNFN@?9build?$AA@
CONST	SEGMENT
??_C@_06LOIFJNFN@?9build?$AA@ DB '-build', 00H		; `string'
CONST	ENDS
;	COMDAT ??_C@_0L@FOPADGPO@?9mem_debug?$AA@
CONST	SEGMENT
??_C@_0L@FOPADGPO@?9mem_debug?$AA@ DB '-mem_debug', 00H	; `string'
CONST	ENDS
;	COMDAT ??_C@_04CPLKOIEC@?9wf?5?$AA@
CONST	SEGMENT
??_C@_04CPLKOIEC@?9wf?5?$AA@ DB '-wf ', 00H		; `string'
CONST	ENDS
;	COMDAT ??_C@_06EPKOIJFL@?$CF?$FL?$FO?5?$FN?5?$AA@
CONST	SEGMENT
??_C@_06EPKOIJFL@?$CF?$FL?$FO?5?$FN?5?$AA@ DB '%[^ ] ', 00H ; `string'
CONST	ENDS
;	COMDAT ??_C@_03OOPKOFPE@?9wf?$AA@
CONST	SEGMENT
??_C@_03OOPKOFPE@?9wf?$AA@ DB '-wf', 00H		; `string'
CONST	ENDS
;	COMDAT ??_C@_0L@KNAPJNOA@xrCore?4dll?$AA@
CONST	SEGMENT
??_C@_0L@KNAPJNOA@xrCore?4dll?$AA@ DB 'xrCore.dll', 00H	; `string'
CONST	ENDS
;	COMDAT ??_C@_01KICIPPFI@?2?$AA@
CONST	SEGMENT
??_C@_01KICIPPFI@?2?$AA@ DB '\', 00H			; `string'
; Function compile flags: /Ogtpy
; File c:\users\nummer\documents\github\olr-3.0\src\xray\xrcore\xrmemory.h
;	COMDAT ??_U@YAPEAX_K@Z
_TEXT	SEGMENT
size$ = 8
??_U@YAPEAX_K@Z PROC					; operator new[], COMDAT

; 128  : 	IC void*	operator new[]		(size_t size)		{	return Memory.mem_alloc(size?size:1);				}

	test	rcx, rcx
	mov	edx, 1
	cmovne	rdx, rcx
	lea	rcx, OFFSET FLAT:?Memory@@3VxrMemory@@A	; Memory
	jmp	?mem_alloc@xrMemory@@QEAAPEAX_K@Z	; xrMemory::mem_alloc
??_U@YAPEAX_K@Z ENDP					; operator new[]
; Function compile flags: /Ogtpy
; File c:\program files (x86)\microsoft visual studio 10.0\vc\include\string.h
_TEXT	ENDS
;	COMDAT ?strstr@@YAPEADPEADPEBD@Z
_TEXT	SEGMENT
_Str$ = 8
_SubStr$ = 16
?strstr@@YAPEADPEADPEBD@Z PROC				; strstr, COMDAT

; 221  : 	{ return (char*)strstr((const char*)_Str, _SubStr); }

	rex_jmp	QWORD PTR __imp_strstr
?strstr@@YAPEADPEADPEBD@Z ENDP				; strstr
; Function compile flags: /Ogtpy
_TEXT	ENDS
;	COMDAT ??$strcpy_s@$0EA@@@YAHAEAY0EA@DPEBD@Z
_TEXT	SEGMENT
_Dest$ = 8
_Source$ = 16
??$strcpy_s@$0EA@@@YAHAEAY0EA@DPEBD@Z PROC		; strcpy_s<64>, COMDAT

; 104  : __DEFINE_CPP_OVERLOAD_SECURE_FUNC_0_1(errno_t, strcpy_s, _Deref_post_z_ char, _Dest, _In_z_ const char *, _Source)

	mov	r8, rdx
	mov	edx, 64					; 00000040H
	rex_jmp	QWORD PTR __imp_strcpy_s
??$strcpy_s@$0EA@@@YAHAEAY0EA@DPEBD@Z ENDP		; strcpy_s<64>
_TEXT	ENDS
PUBLIC	DllMain
pdata	SEGMENT
$pdata$DllMain DD imagerel $LN11
	DD	imagerel $LN11+112
	DD	imagerel $unwind$DllMain
pdata	ENDS
xdata	SEGMENT
$unwind$DllMain DD 010401H
	DD	04204H
; Function compile flags: /Ogtpy
; File c:\users\nummer\documents\github\olr-3.0\src\xray\xrcore\xrcore.cpp
xdata	ENDS
_TEXT	SEGMENT
hinstDLL$ = 48
ul_reason_for_call$ = 56
lpvReserved$ = 64
DllMain	PROC

; 178  : {

$LN11:
	sub	rsp, 40					; 00000028H

; 179  : 	switch (ul_reason_for_call)

	dec	edx
	je	SHORT $LN4@DllMain
	dec	edx
	jne	SHORT $LN10@DllMain

; 188  : 		}
; 189  : //.		LogFile.reserve		(256);
; 190  : 		break;
; 191  : 	case DLL_THREAD_ATTACH:
; 192  : 		CoInitializeEx	(NULL, COINIT_MULTITHREADED);

	xor	ecx, ecx
	call	QWORD PTR __imp_CoInitializeEx

; 193  : 		timeBeginPeriod	(1);

	mov	ecx, 1
	call	QWORD PTR __imp_timeBeginPeriod

; 194  : 		break;
; 195  : 	case DLL_THREAD_DETACH:
; 196  : 		break;
; 197  : 	case DLL_PROCESS_DETACH:
; 198  : #ifdef USE_MEMORY_MONITOR
; 199  : 		memory_monitor::flush_each_time	(true);
; 200  : #endif // USE_MEMORY_MONITOR
; 201  : 		break;
; 202  : 	}
; 203  :     return TRUE;

	mov	eax, 1

; 204  : }

	add	rsp, 40					; 00000028H
	ret	0
$LN4@DllMain:

; 180  : 	{
; 181  : 	case DLL_PROCESS_ATTACH:
; 182  : 		{
; 183  : 			_clear87		();

	call	QWORD PTR __imp__clearfp

; 184  : 			_control87		( _PC_53,   MCW_PC );

	mov	edx, 196608				; 00030000H
	mov	ecx, 65536				; 00010000H
	call	QWORD PTR __imp__control87

; 185  : 			_control87		( _RC_CHOP, MCW_RC );

	mov	edx, 768				; 00000300H
	mov	ecx, edx
	call	QWORD PTR __imp__control87

; 186  : 			_control87		( _RC_NEAR, MCW_RC );

	mov	edx, 768				; 00000300H
	xor	ecx, ecx
	call	QWORD PTR __imp__control87

; 187  : 			_control87		( _MCW_EM,  MCW_EM );

	mov	edx, 524319				; 0008001fH
	mov	ecx, edx
	call	QWORD PTR __imp__control87
$LN10@DllMain:

; 194  : 		break;
; 195  : 	case DLL_THREAD_DETACH:
; 196  : 		break;
; 197  : 	case DLL_PROCESS_DETACH:
; 198  : #ifdef USE_MEMORY_MONITOR
; 199  : 		memory_monitor::flush_each_time	(true);
; 200  : #endif // USE_MEMORY_MONITOR
; 201  : 		break;
; 202  : 	}
; 203  :     return TRUE;

	mov	eax, 1

; 204  : }

	add	rsp, 40					; 00000028H
	ret	0
DllMain	ENDP
; Function compile flags: /Ogtpy
; File c:\users\nummer\documents\github\olr-3.0\src\xray\xrcore\compression_ppmd_stream_inline.h
_TEXT	ENDS
;	COMDAT ?buffer@stream@ppmd@compression@@QEBAPEAEXZ
_TEXT	SEGMENT
?buffer@stream@ppmd@compression@@QEBAPEAEXZ PROC	; compression::ppmd::stream::buffer, COMDAT

; 36   : 	return			(m_buffer);

	mov	rax, QWORD PTR ?trained_model@@3PEAVstream@ppmd@compression@@EA ; trained_model
	mov	rax, QWORD PTR [rax+8]

; 37   : }

	ret	0
?buffer@stream@ppmd@compression@@QEBAPEAEXZ ENDP	; compression::ppmd::stream::buffer
; Function compile flags: /Ogtpy
; File c:\users\nummer\documents\github\olr-3.0\src\xray\xrcore\blackbox\symbolengine.h
_TEXT	ENDS
;	COMDAT ??1CSymbolEngine@@UEAA@XZ
_TEXT	SEGMENT
this$ = 8
??1CSymbolEngine@@UEAA@XZ PROC				; CSymbolEngine::~CSymbolEngine, COMDAT

; 82   :     {

	lea	rax, OFFSET FLAT:??_7CSymbolEngine@@6B@
	mov	QWORD PTR [rcx], rax

; 83   :     }

	ret	0
??1CSymbolEngine@@UEAA@XZ ENDP				; CSymbolEngine::~CSymbolEngine
; Function compile flags: /Ogtpy
_TEXT	ENDS
;	COMDAT ??0CSymbolEngine@@QEAA@XZ
_TEXT	SEGMENT
this$ = 8
??0CSymbolEngine@@QEAA@XZ PROC				; CSymbolEngine::CSymbolEngine, COMDAT

; 77   :     CSymbolEngine ( void )

	lea	rax, OFFSET FLAT:??_7CSymbolEngine@@6B@
	mov	QWORD PTR [rcx], rax

; 78   :     {
; 79   :     }

	mov	rax, rcx
	ret	0
??0CSymbolEngine@@QEAA@XZ ENDP				; CSymbolEngine::CSymbolEngine
;	COMDAT pdata
; File c:\users\nummer\documents\github\olr-3.0\src\xray\xrcore\_std_extensions.h
pdata	SEGMENT
$pdata$?strconcat@@YAPEBDHPEADPEBD1@Z DD imagerel $LN5
	DD	imagerel $LN5+99
	DD	imagerel $unwind$?strconcat@@YAPEBDHPEADPEBD1@Z
pdata	ENDS
;	COMDAT xdata
xdata	SEGMENT
$unwind$?strconcat@@YAPEBDHPEADPEBD1@Z DD 081401H
	DD	086414H
	DD	075414H
	DD	063414H
	DD	070103214H
; Function compile flags: /Ogtpy
xdata	ENDS
;	COMDAT ?strconcat@@YAPEBDHPEADPEBD1@Z
_TEXT	SEGMENT
dest_sz$ = 48
dest$ = 56
S1$ = 64
S2$ = 72
?strconcat@@YAPEBDHPEADPEBD1@Z PROC			; strconcat, COMDAT

; 171  : {

$LN5:
	mov	QWORD PTR [rsp+8], rbx
	mov	QWORD PTR [rsp+16], rbp
	mov	QWORD PTR [rsp+24], rsi
	push	rdi
	sub	rsp, 32					; 00000020H
	movsxd	rbx, ecx

; 172  : 	u32 l1 = xr_strlen(S1);

	or	rcx, -1
	mov	rbp, rdx
	xor	eax, eax
	mov	rdi, r8

; 173  : 	strcpy_s(dest,dest_sz,S1);

	mov	rdx, rbx
	repne scasb
	mov	rsi, r9
	not	rcx
	lea	rdi, QWORD PTR [rcx-1]
	mov	rcx, rbp
	call	QWORD PTR __imp_strcpy_s

; 174  : 	strcat_s(dest,dest_sz-l1,S2);

	sub	ebx, edi
	mov	r8, rsi
	mov	edx, ebx
	mov	rcx, rbp
	call	QWORD PTR __imp_strcat_s

; 175  : 	return dest;
; 176  : //.	return strcat(strcpy(dest,S1),S2);
; 177  : }

	mov	rbx, QWORD PTR [rsp+48]
	mov	rsi, QWORD PTR [rsp+64]
	mov	rax, rbp
	mov	rbp, QWORD PTR [rsp+56]
	add	rsp, 32					; 00000020H
	pop	rdi
	ret	0
?strconcat@@YAPEBDHPEADPEBD1@Z ENDP			; strconcat
;	COMDAT pdata
; File c:\users\nummer\documents\github\olr-3.0\src\xray\xrcore\xrsyncronize.cpp
pdata	SEGMENT
$pdata$??R?$xr_special_free@$0A@Vstream@ppmd@compression@@@@QEAAXAEAPEAVstream@ppmd@compression@@@Z DD imagerel $LN28
	DD	imagerel $LN28+56
	DD	imagerel $unwind$??R?$xr_special_free@$0A@Vstream@ppmd@compression@@@@QEAAXAEAPEAVstream@ppmd@compression@@@Z
pdata	ENDS
;	COMDAT pdata
pdata	SEGMENT
$pdata$1$??R?$xr_special_free@$0A@Vstream@ppmd@compression@@@@QEAAXAEAPEAVstream@ppmd@compression@@@Z DD imagerel $LN28+56
	DD	imagerel $LN28+120
	DD	imagerel $chain$1$??R?$xr_special_free@$0A@Vstream@ppmd@compression@@@@QEAAXAEAPEAVstream@ppmd@compression@@@Z
pdata	ENDS
;	COMDAT pdata
pdata	SEGMENT
$pdata$2$??R?$xr_special_free@$0A@Vstream@ppmd@compression@@@@QEAAXAEAPEAVstream@ppmd@compression@@@Z DD imagerel $LN28+120
	DD	imagerel $LN28+126
	DD	imagerel $chain$2$??R?$xr_special_free@$0A@Vstream@ppmd@compression@@@@QEAAXAEAPEAVstream@ppmd@compression@@@Z
pdata	ENDS
;	COMDAT xdata
xdata	SEGMENT
$chain$2$??R?$xr_special_free@$0A@Vstream@ppmd@compression@@@@QEAAXAEAPEAVstream@ppmd@compression@@@Z DD 021H
	DD	imagerel $LN28
	DD	imagerel $LN28+56
	DD	imagerel $unwind$??R?$xr_special_free@$0A@Vstream@ppmd@compression@@@@QEAAXAEAPEAVstream@ppmd@compression@@@Z
xdata	ENDS
;	COMDAT xdata
xdata	SEGMENT
$chain$1$??R?$xr_special_free@$0A@Vstream@ppmd@compression@@@@QEAAXAEAPEAVstream@ppmd@compression@@@Z DD 040e21H
	DD	07640eH
	DD	063405H
	DD	imagerel $LN28
	DD	imagerel $LN28+56
	DD	imagerel $unwind$??R?$xr_special_free@$0A@Vstream@ppmd@compression@@@@QEAAXAEAPEAVstream@ppmd@compression@@@Z
xdata	ENDS
;	COMDAT xdata
xdata	SEGMENT
$unwind$??R?$xr_special_free@$0A@Vstream@ppmd@compression@@@@QEAAXAEAPEAVstream@ppmd@compression@@@Z DD 020601H
	DD	070023206H
; Function compile flags: /Ogtpy
; File c:\users\nummer\documents\github\olr-3.0\src\xray\xrcore\xrmemory_subst_msvc.h
xdata	ENDS
;	COMDAT ??R?$xr_special_free@$0A@Vstream@ppmd@compression@@@@QEAAXAEAPEAVstream@ppmd@compression@@@Z
_TEXT	SEGMENT
??R?$xr_special_free@$0A@Vstream@ppmd@compression@@@@QEAAXAEAPEAVstream@ppmd@compression@@@Z PROC ; xr_special_free<0,compression::ppmd::stream>::operator(), COMDAT

; 142  : 	{

$LN28:
	push	rdi
	sub	rsp, 32					; 00000020H

; 143  : 		ptr->~T			();
; 144  : 		Memory.mem_free	(ptr);

	inc	DWORD PTR ?Memory@@3VxrMemory@@A
	mov	rdi, QWORD PTR ?trained_model@@3PEAVstream@ppmd@compression@@EA ; trained_model
	movzx	eax, BYTE PTR [rdi-1]
	dec	rdi
	cmp	eax, 55					; 00000037H
	jne	SHORT $LN5@operator@26
	test	rdi, rdi
	je	SHORT $LN26@operator@26
	and	rdi, -8
	mov	rcx, QWORD PTR [rdi-8]

; 145  : 	}

	add	rsp, 32					; 00000020H
	pop	rdi
	rex_jmp	QWORD PTR __imp_free

; 143  : 		ptr->~T			();
; 144  : 		Memory.mem_free	(ptr);

$LN5@operator@26:
	mov	QWORD PTR [rsp+48], rbx
	lea	rbx, QWORD PTR [rax+rax*4]
	mov	QWORD PTR [rsp+56], rsi
	lea	rsi, OFFSET FLAT:?mem_pools@@3PAVMEMPOOL@@A ; mem_pools
	mov	rcx, QWORD PTR [rsi+rbx*8]
	call	QWORD PTR __imp_EnterCriticalSection
	mov	rax, QWORD PTR [rsi+rbx*8+32]
	mov	QWORD PTR [rdi], rax
	mov	rcx, QWORD PTR [rsi+rbx*8]
	mov	QWORD PTR [rsi+rbx*8+32], rdi
	call	QWORD PTR __imp_LeaveCriticalSection
	mov	rsi, QWORD PTR [rsp+56]
	mov	rbx, QWORD PTR [rsp+48]
$LN26@operator@26:

; 145  : 	}

	add	rsp, 32					; 00000020H
	pop	rdi
	ret	0
??R?$xr_special_free@$0A@Vstream@ppmd@compression@@@@QEAAXAEAPEAVstream@ppmd@compression@@@Z ENDP ; xr_special_free<0,compression::ppmd::stream>::operator()
_TEXT	ENDS
;	COMDAT pdata
; File c:\users\nummer\documents\github\olr-3.0\src\xray\xrcore\xrsyncronize.cpp
pdata	SEGMENT
$pdata$??R?$xr_special_free@$00VEFS_Utils@@@@QEAAXAEAPEAVEFS_Utils@@@Z DD imagerel $LN28
	DD	imagerel $LN28+89
	DD	imagerel $unwind$??R?$xr_special_free@$00VEFS_Utils@@@@QEAAXAEAPEAVEFS_Utils@@@Z
pdata	ENDS
;	COMDAT pdata
pdata	SEGMENT
$pdata$0$??R?$xr_special_free@$00VEFS_Utils@@@@QEAAXAEAPEAVEFS_Utils@@@Z DD imagerel $LN28+89
	DD	imagerel $LN28+139
	DD	imagerel $chain$0$??R?$xr_special_free@$00VEFS_Utils@@@@QEAAXAEAPEAVEFS_Utils@@@Z
pdata	ENDS
;	COMDAT pdata
pdata	SEGMENT
$pdata$1$??R?$xr_special_free@$00VEFS_Utils@@@@QEAAXAEAPEAVEFS_Utils@@@Z DD imagerel $LN28+139
	DD	imagerel $LN28+150
	DD	imagerel $chain$1$??R?$xr_special_free@$00VEFS_Utils@@@@QEAAXAEAPEAVEFS_Utils@@@Z
pdata	ENDS
;	COMDAT xdata
xdata	SEGMENT
$chain$1$??R?$xr_special_free@$00VEFS_Utils@@@@QEAAXAEAPEAVEFS_Utils@@@Z DD 021H
	DD	imagerel $LN28
	DD	imagerel $LN28+89
	DD	imagerel $unwind$??R?$xr_special_free@$00VEFS_Utils@@@@QEAAXAEAPEAVEFS_Utils@@@Z
xdata	ENDS
;	COMDAT xdata
xdata	SEGMENT
$chain$0$??R?$xr_special_free@$00VEFS_Utils@@@@QEAAXAEAPEAVEFS_Utils@@@Z DD 020521H
	DD	066405H
	DD	imagerel $LN28
	DD	imagerel $LN28+89
	DD	imagerel $unwind$??R?$xr_special_free@$00VEFS_Utils@@@@QEAAXAEAPEAVEFS_Utils@@@Z
xdata	ENDS
;	COMDAT xdata
xdata	SEGMENT
$unwind$??R?$xr_special_free@$00VEFS_Utils@@@@QEAAXAEAPEAVEFS_Utils@@@Z DD 040a01H
	DD	07340aH
	DD	07006320aH
; Function compile flags: /Ogtpy
; File c:\users\nummer\documents\github\olr-3.0\src\xray\xrcore\xrmemory_subst_msvc.h
xdata	ENDS
;	COMDAT ??R?$xr_special_free@$00VEFS_Utils@@@@QEAAXAEAPEAVEFS_Utils@@@Z
_TEXT	SEGMENT
??R?$xr_special_free@$00VEFS_Utils@@@@QEAAXAEAPEAVEFS_Utils@@@Z PROC ; xr_special_free<1,EFS_Utils>::operator(), COMDAT

; 131  : 	{

$LN28:
	mov	QWORD PTR [rsp+16], rbx
	push	rdi
	sub	rsp, 32					; 00000020H

; 132  : 		void*	_real_ptr	= dynamic_cast<void*>(ptr);

	mov	rcx, QWORD PTR ?xr_EFS@@3PEAVEFS_Utils@@EA ; xr_EFS
	call	__RTCastToVoid

; 133  : 		ptr->~T			();

	mov	rcx, QWORD PTR ?xr_EFS@@3PEAVEFS_Utils@@EA ; xr_EFS
	xor	edx, edx
	mov	r8, QWORD PTR [rcx]

; 134  : 		Memory.mem_free	(_real_ptr);

	lea	rdi, QWORD PTR [rax-1]
	call	QWORD PTR [r8]
	inc	DWORD PTR ?Memory@@3VxrMemory@@A
	movzx	eax, BYTE PTR [rdi]
	cmp	eax, 55					; 00000037H
	jne	SHORT $LN5@operator@27
	test	rdi, rdi
	je	SHORT $LN26@operator@27
	and	rdi, -8
	mov	rcx, QWORD PTR [rdi-8]

; 135  : 	}

	mov	rbx, QWORD PTR [rsp+56]
	add	rsp, 32					; 00000020H
	pop	rdi
	rex_jmp	QWORD PTR __imp_free

; 134  : 		Memory.mem_free	(_real_ptr);

$LN5@operator@27:
	lea	rbx, QWORD PTR [rax+rax*4]
	mov	QWORD PTR [rsp+48], rsi
	lea	rsi, OFFSET FLAT:?mem_pools@@3PAVMEMPOOL@@A ; mem_pools
	mov	rcx, QWORD PTR [rsi+rbx*8]
	call	QWORD PTR __imp_EnterCriticalSection
	mov	rax, QWORD PTR [rsi+rbx*8+32]
	mov	QWORD PTR [rdi], rax
	mov	rcx, QWORD PTR [rsi+rbx*8]
	mov	QWORD PTR [rsi+rbx*8+32], rdi
	call	QWORD PTR __imp_LeaveCriticalSection
	mov	rsi, QWORD PTR [rsp+48]
$LN26@operator@27:

; 135  : 	}

	mov	rbx, QWORD PTR [rsp+56]
	add	rsp, 32					; 00000020H
	pop	rdi
	ret	0
??R?$xr_special_free@$00VEFS_Utils@@@@QEAAXAEAPEAVEFS_Utils@@@Z ENDP ; xr_special_free<1,EFS_Utils>::operator()
_TEXT	ENDS
;	COMDAT pdata
pdata	SEGMENT
$pdata$??$xr_delete@Vstream@ppmd@compression@@@@YAXAEAPEAVstream@ppmd@compression@@@Z DD imagerel $LN4
	DD	imagerel $LN4+35
	DD	imagerel $unwind$??$xr_delete@Vstream@ppmd@compression@@@@YAXAEAPEAVstream@ppmd@compression@@@Z
pdata	ENDS
;	COMDAT xdata
xdata	SEGMENT
$unwind$??$xr_delete@Vstream@ppmd@compression@@@@YAXAEAPEAVstream@ppmd@compression@@@Z DD 010401H
	DD	04204H
; Function compile flags: /Ogtpy
xdata	ENDS
;	COMDAT ??$xr_delete@Vstream@ppmd@compression@@@@YAXAEAPEAVstream@ppmd@compression@@@Z
_TEXT	SEGMENT
??$xr_delete@Vstream@ppmd@compression@@@@YAXAEAPEAVstream@ppmd@compression@@@Z PROC ; xr_delete<compression::ppmd::stream>, COMDAT

; 150  : {

$LN4:
	sub	rsp, 40					; 00000028H

; 151  : 	if (ptr) 

	cmp	QWORD PTR ?trained_model@@3PEAVstream@ppmd@compression@@EA, 0 ; trained_model
	je	SHORT $LN1@xr_delete@4

; 152  : 	{
; 153  : 		xr_special_free<xrcore::is_polymorphic<T>::result,T>()(ptr);

	call	??R?$xr_special_free@$0A@Vstream@ppmd@compression@@@@QEAAXAEAPEAVstream@ppmd@compression@@@Z ; xr_special_free<0,compression::ppmd::stream>::operator()

; 154  : 		ptr = NULL;

	mov	QWORD PTR ?trained_model@@3PEAVstream@ppmd@compression@@EA, 0 ; trained_model
$LN1@xr_delete@4:

; 155  : 	}
; 156  : }

	add	rsp, 40					; 00000028H
	ret	0
??$xr_delete@Vstream@ppmd@compression@@@@YAXAEAPEAVstream@ppmd@compression@@@Z ENDP ; xr_delete<compression::ppmd::stream>
_TEXT	ENDS
;	COMDAT pdata
pdata	SEGMENT
$pdata$??$xr_delete@VEFS_Utils@@@@YAXAEAPEAVEFS_Utils@@@Z DD imagerel $LN4
	DD	imagerel $LN4+35
	DD	imagerel $unwind$??$xr_delete@VEFS_Utils@@@@YAXAEAPEAVEFS_Utils@@@Z
pdata	ENDS
;	COMDAT xdata
xdata	SEGMENT
$unwind$??$xr_delete@VEFS_Utils@@@@YAXAEAPEAVEFS_Utils@@@Z DD 010401H
	DD	04204H
; Function compile flags: /Ogtpy
xdata	ENDS
;	COMDAT ??$xr_delete@VEFS_Utils@@@@YAXAEAPEAVEFS_Utils@@@Z
_TEXT	SEGMENT
??$xr_delete@VEFS_Utils@@@@YAXAEAPEAVEFS_Utils@@@Z PROC	; xr_delete<EFS_Utils>, COMDAT

; 150  : {

$LN4:
	sub	rsp, 40					; 00000028H

; 151  : 	if (ptr) 

	cmp	QWORD PTR ?xr_EFS@@3PEAVEFS_Utils@@EA, 0 ; xr_EFS
	je	SHORT $LN1@xr_delete@5

; 152  : 	{
; 153  : 		xr_special_free<xrcore::is_polymorphic<T>::result,T>()(ptr);

	call	??R?$xr_special_free@$00VEFS_Utils@@@@QEAAXAEAPEAVEFS_Utils@@@Z ; xr_special_free<1,EFS_Utils>::operator()

; 154  : 		ptr = NULL;

	mov	QWORD PTR ?xr_EFS@@3PEAVEFS_Utils@@EA, 0 ; xr_EFS
$LN1@xr_delete@5:

; 155  : 	}
; 156  : }

	add	rsp, 40					; 00000028H
	ret	0
??$xr_delete@VEFS_Utils@@@@YAXAEAPEAVEFS_Utils@@@Z ENDP	; xr_delete<EFS_Utils>
;	COMDAT pdata
pdata	SEGMENT
$pdata$??_GCSymbolEngine@@UEAAPEAXI@Z DD imagerel $LN9
	DD	imagerel $LN9+48
	DD	imagerel $unwind$??_GCSymbolEngine@@UEAAPEAXI@Z
pdata	ENDS
;	COMDAT xdata
xdata	SEGMENT
$unwind$??_GCSymbolEngine@@UEAAPEAXI@Z DD 020601H
	DD	030023206H
; Function compile flags: /Ogtpy
xdata	ENDS
;	COMDAT ??_GCSymbolEngine@@UEAAPEAXI@Z
_TEXT	SEGMENT
$T223823 = 48
this$ = 48
__flags$ = 56
??_GCSymbolEngine@@UEAAPEAXI@Z PROC			; CSymbolEngine::`scalar deleting destructor', COMDAT
$LN9:
	push	rbx
	sub	rsp, 32					; 00000020H
	lea	rax, OFFSET FLAT:??_7CSymbolEngine@@6B@
	mov	rbx, rcx
	mov	QWORD PTR [rcx], rax
	test	dl, 1
	je	SHORT $LN8@scalar@16
	mov	QWORD PTR $T223823[rsp], rcx
	lea	rcx, QWORD PTR $T223823[rsp]
	call	??$xr_free@X@@YAXAEAPEAX@Z		; xr_free<void>
$LN8@scalar@16:
	mov	rax, rbx
	add	rsp, 32					; 00000020H
	pop	rbx
	ret	0
??_GCSymbolEngine@@UEAAPEAXI@Z ENDP			; CSymbolEngine::`scalar deleting destructor'
_TEXT	ENDS
;	COMDAT pdata
; File c:\users\nummer\documents\github\olr-3.0\src\xray\xrcore\xrmemory.h
pdata	SEGMENT
$pdata$?GetInMemoryFileVersion@CSymbolEngine@@QEAAHPEBDAEAK1@Z DD imagerel $LN54
	DD	imagerel $LN54+283
	DD	imagerel $unwind$?GetInMemoryFileVersion@CSymbolEngine@@QEAAHPEBDAEAK1@Z
pdata	ENDS
;	COMDAT xdata
xdata	SEGMENT
$unwind$?GetInMemoryFileVersion@CSymbolEngine@@QEAAHPEBDAEAK1@Z DD 077a01H
	DD	027347aH
	DD	028010bH
	DD	060037004H
	DD	05002H
; Function compile flags: /Ogtpy
; File c:\users\nummer\documents\github\olr-3.0\src\xray\xrcore\blackbox\symbolengine.h
xdata	ENDS
;	COMDAT ?GetInMemoryFileVersion@CSymbolEngine@@QEAAHPEBDAEAK1@Z
_TEXT	SEGMENT
szImageHlp$ = 32
dwVerInfoHandle$ = 352
dwMS$ = 352
uiLen$ = 360
dwLS$ = 360
$T223912 = 368
$T223916 = 368
lpVerInfo$ = 376
?GetInMemoryFileVersion@CSymbolEngine@@QEAAHPEBDAEAK1@Z PROC ; CSymbolEngine::GetInMemoryFileVersion, COMDAT

; 139  :     {

$LN54:
	push	rbp
	push	rsi
	push	rdi
	sub	rsp, 320				; 00000140H
	mov	rbp, rcx

; 140  :         HMODULE hInstIH = GetModuleHandle ( szFile ) ;

	lea	rcx, OFFSET FLAT:??_C@_0M@OOEJBPPK@dbghelp?4dll?$AA@
	mov	rsi, rdx
	call	QWORD PTR __imp_GetModuleHandleA

; 141  : 
; 142  :         // Get the full filename of the loaded version.
; 143  :         TCHAR szImageHlp[ MAX_PATH ] ;
; 144  :         GetModuleFileName ( hInstIH , szImageHlp , MAX_PATH ) ;

	lea	rdx, QWORD PTR szImageHlp$[rsp]
	mov	r8d, 260				; 00000104H
	mov	rcx, rax
	call	QWORD PTR __imp_GetModuleFileNameA

; 145  : 
; 146  :         dwMS = 0 ;

	xor	r11d, r11d

; 147  :         dwLS = 0 ;
; 148  : 
; 149  :         // Get the version information size.
; 150  :         DWORD dwVerInfoHandle ;
; 151  :         DWORD dwVerSize       ;
; 152  : 
; 153  :         dwVerSize = GetFileVersionInfoSize ( szImageHlp       ,
; 154  :                                              &dwVerInfoHandle  ) ;

	lea	rdx, QWORD PTR dwVerInfoHandle$[rsp]
	lea	rcx, QWORD PTR szImageHlp$[rsp]
	mov	DWORD PTR [rbp], r11d
	mov	DWORD PTR [rsi], r11d
	call	QWORD PTR __imp_GetFileVersionInfoSizeA
	mov	edi, eax

; 155  :         if ( 0 == dwVerSize )

	test	eax, eax
	jne	SHORT $LN3@GetInMemor

; 186  :     }

	add	rsp, 320				; 00000140H
	pop	rdi
	pop	rsi
	pop	rbp
	ret	0
$LN3@GetInMemor:

; 156  :         {
; 157  :             return ( FALSE ) ;
; 158  :         }
; 159  : 
; 160  :         // Got the version size, now get the version information.
; 161  :         LPVOID lpData = (LPVOID)new TCHAR [ dwVerSize ] ;

	test	eax, eax
	mov	edx, 1
	lea	rcx, OFFSET FLAT:?Memory@@3VxrMemory@@A	; Memory
	cmovne	rdx, rdi
	mov	QWORD PTR [rsp+312], rbx
	call	?mem_alloc@xrMemory@@QEAAPEAX_K@Z	; xrMemory::mem_alloc

; 162  :         if ( FALSE == GetFileVersionInfo ( szImageHlp       ,
; 163  :                                            dwVerInfoHandle  ,
; 164  :                                            dwVerSize        ,
; 165  :                                            lpData            ) )

	mov	edx, DWORD PTR dwVerInfoHandle$[rsp]
	lea	rcx, QWORD PTR szImageHlp$[rsp]
	mov	r9, rax
	mov	r8d, edi
	mov	rbx, rax
	call	QWORD PTR __imp_GetFileVersionInfoA
	test	eax, eax
	jne	SHORT $LN2@GetInMemor

; 166  :         {
; 167  :             delete [] lpData ;

	lea	rcx, QWORD PTR $T223912[rsp]
	mov	QWORD PTR $T223912[rsp], rbx
	call	??$xr_free@X@@YAXAEAPEAX@Z		; xr_free<void>

; 168  :             return ( FALSE ) ;

	xor	eax, eax
	jmp	SHORT $LN53@GetInMemor
$LN2@GetInMemor:

; 169  :         }
; 170  : 
; 171  :         VS_FIXEDFILEINFO * lpVerInfo ;
; 172  :         UINT uiLen ;
; 173  :         BOOL bRet = VerQueryValue ( lpData              ,
; 174  :                                     _T ( "\\" )         ,
; 175  :                                     (LPVOID*)&lpVerInfo ,
; 176  :                                     &uiLen               ) ;

	lea	r9, QWORD PTR uiLen$[rsp]
	lea	r8, QWORD PTR lpVerInfo$[rsp]
	lea	rdx, OFFSET FLAT:??_C@_01KICIPPFI@?2?$AA@
	mov	rcx, rbx
	call	QWORD PTR __imp_VerQueryValueA
	mov	edi, eax

; 177  :         if ( TRUE == bRet )

	cmp	eax, 1
	jne	SHORT $LN1@GetInMemor

; 178  :         {
; 179  :             dwMS = lpVerInfo->dwFileVersionMS ;

	mov	rdx, QWORD PTR lpVerInfo$[rsp]
	mov	ecx, DWORD PTR [rdx+8]
	mov	DWORD PTR [rbp], ecx

; 180  :             dwLS = lpVerInfo->dwFileVersionLS ;

	mov	ecx, DWORD PTR [rdx+12]
	mov	DWORD PTR [rsi], ecx
$LN1@GetInMemor:

; 181  :         }
; 182  : 
; 183  :         delete [] lpData ;

	lea	rcx, QWORD PTR $T223916[rsp]
	mov	QWORD PTR $T223916[rsp], rbx
	call	??$xr_free@X@@YAXAEAPEAX@Z		; xr_free<void>

; 184  : 
; 185  :         return ( bRet ) ;

	mov	eax, edi
$LN53@GetInMemor:
	mov	rbx, QWORD PTR [rsp+312]

; 186  :     }

	add	rsp, 320				; 00000140H
	pop	rdi
	pop	rsi
	pop	rbp
	ret	0
?GetInMemoryFileVersion@CSymbolEngine@@QEAAHPEBDAEAK1@Z ENDP ; CSymbolEngine::GetInMemoryFileVersion
;	COMDAT pdata
pdata	SEGMENT
$pdata$??_GCLocatorAPI@@QEAAPEAXI@Z DD imagerel $LN6
	DD	imagerel $LN6+23
	DD	imagerel $unwind$??_GCLocatorAPI@@QEAAPEAXI@Z
pdata	ENDS
;	COMDAT xdata
xdata	SEGMENT
$unwind$??_GCLocatorAPI@@QEAAPEAXI@Z DD 020601H
	DD	030023206H
; Function compile flags: /Ogtpy
xdata	ENDS
;	COMDAT ??_GCLocatorAPI@@QEAAPEAXI@Z
_TEXT	SEGMENT
this$ = 48
??_GCLocatorAPI@@QEAAPEAXI@Z PROC			; CLocatorAPI::`scalar deleting destructor', COMDAT
$LN6:
	push	rbx
	sub	rsp, 32					; 00000020H
	mov	rbx, rcx
	call	??1CLocatorAPI@@QEAA@XZ			; CLocatorAPI::~CLocatorAPI
	mov	rax, rbx
	add	rsp, 32					; 00000020H
	pop	rbx
	ret	0
??_GCLocatorAPI@@QEAAPEAXI@Z ENDP			; CLocatorAPI::`scalar deleting destructor'
_TEXT	ENDS
;	COMDAT pdata
; File c:\users\nummer\documents\github\olr-3.0\src\xray\xrcore\xrsyncronize.cpp
pdata	SEGMENT
$pdata$??R?$xr_special_free@$0A@VCLocatorAPI@@@@QEAAXAEAPEAVCLocatorAPI@@@Z DD imagerel $LN33
	DD	imagerel $LN33+68
	DD	imagerel $unwind$??R?$xr_special_free@$0A@VCLocatorAPI@@@@QEAAXAEAPEAVCLocatorAPI@@@Z
pdata	ENDS
;	COMDAT pdata
pdata	SEGMENT
$pdata$1$??R?$xr_special_free@$0A@VCLocatorAPI@@@@QEAAXAEAPEAVCLocatorAPI@@@Z DD imagerel $LN33+68
	DD	imagerel $LN33+132
	DD	imagerel $chain$1$??R?$xr_special_free@$0A@VCLocatorAPI@@@@QEAAXAEAPEAVCLocatorAPI@@@Z
pdata	ENDS
;	COMDAT pdata
pdata	SEGMENT
$pdata$2$??R?$xr_special_free@$0A@VCLocatorAPI@@@@QEAAXAEAPEAVCLocatorAPI@@@Z DD imagerel $LN33+132
	DD	imagerel $LN33+138
	DD	imagerel $chain$2$??R?$xr_special_free@$0A@VCLocatorAPI@@@@QEAAXAEAPEAVCLocatorAPI@@@Z
pdata	ENDS
;	COMDAT xdata
xdata	SEGMENT
$chain$2$??R?$xr_special_free@$0A@VCLocatorAPI@@@@QEAAXAEAPEAVCLocatorAPI@@@Z DD 021H
	DD	imagerel $LN33
	DD	imagerel $LN33+68
	DD	imagerel $unwind$??R?$xr_special_free@$0A@VCLocatorAPI@@@@QEAAXAEAPEAVCLocatorAPI@@@Z
xdata	ENDS
;	COMDAT xdata
xdata	SEGMENT
$chain$1$??R?$xr_special_free@$0A@VCLocatorAPI@@@@QEAAXAEAPEAVCLocatorAPI@@@Z DD 040e21H
	DD	07640eH
	DD	063405H
	DD	imagerel $LN33
	DD	imagerel $LN33+68
	DD	imagerel $unwind$??R?$xr_special_free@$0A@VCLocatorAPI@@@@QEAAXAEAPEAVCLocatorAPI@@@Z
xdata	ENDS
;	COMDAT xdata
xdata	SEGMENT
$unwind$??R?$xr_special_free@$0A@VCLocatorAPI@@@@QEAAXAEAPEAVCLocatorAPI@@@Z DD 020601H
	DD	070023206H
; Function compile flags: /Ogtpy
; File c:\users\nummer\documents\github\olr-3.0\src\xray\xrcore\xrmemory_subst_msvc.h
xdata	ENDS
;	COMDAT ??R?$xr_special_free@$0A@VCLocatorAPI@@@@QEAAXAEAPEAVCLocatorAPI@@@Z
_TEXT	SEGMENT
??R?$xr_special_free@$0A@VCLocatorAPI@@@@QEAAXAEAPEAVCLocatorAPI@@@Z PROC ; xr_special_free<0,CLocatorAPI>::operator(), COMDAT

; 142  : 	{

$LN33:
	push	rdi
	sub	rsp, 32					; 00000020H

; 143  : 		ptr->~T			();

	mov	rcx, QWORD PTR ?xr_FS@@3PEAVCLocatorAPI@@EA ; xr_FS
	call	??1CLocatorAPI@@QEAA@XZ			; CLocatorAPI::~CLocatorAPI

; 144  : 		Memory.mem_free	(ptr);

	inc	DWORD PTR ?Memory@@3VxrMemory@@A
	mov	rdi, QWORD PTR ?xr_FS@@3PEAVCLocatorAPI@@EA ; xr_FS
	movzx	eax, BYTE PTR [rdi-1]
	dec	rdi
	cmp	eax, 55					; 00000037H
	jne	SHORT $LN10@operator@60
	test	rdi, rdi
	je	SHORT $LN31@operator@60
	and	rdi, -8
	mov	rcx, QWORD PTR [rdi-8]

; 145  : 	}

	add	rsp, 32					; 00000020H
	pop	rdi
	rex_jmp	QWORD PTR __imp_free

; 144  : 		Memory.mem_free	(ptr);

$LN10@operator@60:
	mov	QWORD PTR [rsp+48], rbx
	lea	rbx, QWORD PTR [rax+rax*4]
	mov	QWORD PTR [rsp+56], rsi
	lea	rsi, OFFSET FLAT:?mem_pools@@3PAVMEMPOOL@@A ; mem_pools
	mov	rcx, QWORD PTR [rsi+rbx*8]
	call	QWORD PTR __imp_EnterCriticalSection
	mov	rax, QWORD PTR [rsi+rbx*8+32]
	mov	QWORD PTR [rdi], rax
	mov	rcx, QWORD PTR [rsi+rbx*8]
	mov	QWORD PTR [rsi+rbx*8+32], rdi
	call	QWORD PTR __imp_LeaveCriticalSection
	mov	rsi, QWORD PTR [rsp+56]
	mov	rbx, QWORD PTR [rsp+48]
$LN31@operator@60:

; 145  : 	}

	add	rsp, 32					; 00000020H
	pop	rdi
	ret	0
??R?$xr_special_free@$0A@VCLocatorAPI@@@@QEAAXAEAPEAVCLocatorAPI@@@Z ENDP ; xr_special_free<0,CLocatorAPI>::operator()
_TEXT	ENDS
;	COMDAT pdata
pdata	SEGMENT
$pdata$??$xr_delete@VCLocatorAPI@@@@YAXAEAPEAVCLocatorAPI@@@Z DD imagerel $LN4
	DD	imagerel $LN4+35
	DD	imagerel $unwind$??$xr_delete@VCLocatorAPI@@@@YAXAEAPEAVCLocatorAPI@@@Z
pdata	ENDS
;	COMDAT xdata
xdata	SEGMENT
$unwind$??$xr_delete@VCLocatorAPI@@@@YAXAEAPEAVCLocatorAPI@@@Z DD 010401H
	DD	04204H
; Function compile flags: /Ogtpy
xdata	ENDS
;	COMDAT ??$xr_delete@VCLocatorAPI@@@@YAXAEAPEAVCLocatorAPI@@@Z
_TEXT	SEGMENT
??$xr_delete@VCLocatorAPI@@@@YAXAEAPEAVCLocatorAPI@@@Z PROC ; xr_delete<CLocatorAPI>, COMDAT

; 150  : {

$LN4:
	sub	rsp, 40					; 00000028H

; 151  : 	if (ptr) 

	cmp	QWORD PTR ?xr_FS@@3PEAVCLocatorAPI@@EA, 0 ; xr_FS
	je	SHORT $LN1@xr_delete@11

; 152  : 	{
; 153  : 		xr_special_free<xrcore::is_polymorphic<T>::result,T>()(ptr);

	call	??R?$xr_special_free@$0A@VCLocatorAPI@@@@QEAAXAEAPEAVCLocatorAPI@@@Z ; xr_special_free<0,CLocatorAPI>::operator()

; 154  : 		ptr = NULL;

	mov	QWORD PTR ?xr_FS@@3PEAVCLocatorAPI@@EA, 0 ; xr_FS
$LN1@xr_delete@11:

; 155  : 	}
; 156  : }

	add	rsp, 40					; 00000028H
	ret	0
??$xr_delete@VCLocatorAPI@@@@YAXAEAPEAVCLocatorAPI@@@Z ENDP ; xr_delete<CLocatorAPI>
;	COMDAT pdata
; File c:\program files (x86)\microsoft visual studio 10.0\vc\include\xtree
pdata	SEGMENT
$pdata$??$xr_new@VEFS_Utils@@@@YAPEAVEFS_Utils@@XZ DD imagerel $LN37
	DD	imagerel $LN37+120
	DD	imagerel $unwind$??$xr_new@VEFS_Utils@@@@YAPEAVEFS_Utils@@XZ
pdata	ENDS
;	COMDAT xdata
xdata	SEGMENT
$unwind$??$xr_new@VEFS_Utils@@@@YAPEAVEFS_Utils@@XZ DD 020601H
	DD	030023206H
; Function compile flags: /Ogtpy
; File c:\users\nummer\documents\github\olr-3.0\src\xray\xrcore\xrmemory_subst_msvc.h
xdata	ENDS
;	COMDAT ??$xr_new@VEFS_Utils@@@@YAPEAVEFS_Utils@@XZ
_TEXT	SEGMENT
??$xr_new@VEFS_Utils@@@@YAPEAVEFS_Utils@@XZ PROC	; xr_new<EFS_Utils>, COMDAT

; 67   : {

$LN37:
	push	rbx
	sub	rsp, 32					; 00000020H

; 68   : 	T* ptr	= (T*)Memory.mem_alloc(sizeof(T));

	lea	rcx, OFFSET FLAT:?Memory@@3VxrMemory@@A	; Memory
	mov	edx, 40					; 00000028H
	call	?mem_alloc@xrMemory@@QEAAPEAX_K@Z	; xrMemory::mem_alloc
	mov	rbx, rax

; 69   : 	return new (ptr) T();

	test	rax, rax
	je	SHORT $LN3@xr_new@19
	lea	rax, OFFSET FLAT:??_7EFS_Utils@@6B@
	lea	rcx, OFFSET FLAT:?Memory@@3VxrMemory@@A	; Memory
	mov	edx, 80					; 00000050H
	mov	QWORD PTR [rbx], rax
	mov	QWORD PTR [rbx+24], 0
	call	?mem_alloc@xrMemory@@QEAAPEAX_K@Z	; xrMemory::mem_alloc
	mov	QWORD PTR [rbx+16], rax
	mov	QWORD PTR [rax], rax
	mov	rax, QWORD PTR [rbx+16]
	mov	QWORD PTR [rax+8], rax
	mov	rax, QWORD PTR [rbx+16]
	mov	QWORD PTR [rax+16], rax
	mov	rax, QWORD PTR [rbx+16]
	mov	BYTE PTR [rax+72], 1
	mov	rax, QWORD PTR [rbx+16]
	mov	BYTE PTR [rax+73], 1
	mov	rax, rbx

; 70   : }

	add	rsp, 32					; 00000020H
	pop	rbx
	ret	0
$LN3@xr_new@19:
	add	rsp, 32					; 00000020H
	pop	rbx
	ret	0
??$xr_new@VEFS_Utils@@@@YAPEAVEFS_Utils@@XZ ENDP	; xr_new<EFS_Utils>
_TEXT	ENDS
;	COMDAT pdata
; File c:\program files (x86)\microsoft visual studio 10.0\vc\include\new
pdata	SEGMENT
$pdata$??$xr_new@VCLocatorAPI@@@@YAPEAVCLocatorAPI@@XZ DD imagerel $LN7
	DD	imagerel $LN7+43
	DD	imagerel $unwind$??$xr_new@VCLocatorAPI@@@@YAPEAVCLocatorAPI@@XZ
pdata	ENDS
;	COMDAT xdata
xdata	SEGMENT
$unwind$??$xr_new@VCLocatorAPI@@@@YAPEAVCLocatorAPI@@XZ DD 010401H
	DD	04204H
; Function compile flags: /Ogtpy
; File c:\users\nummer\documents\github\olr-3.0\src\xray\xrcore\xrmemory_subst_msvc.h
xdata	ENDS
;	COMDAT ??$xr_new@VCLocatorAPI@@@@YAPEAVCLocatorAPI@@XZ
_TEXT	SEGMENT
??$xr_new@VCLocatorAPI@@@@YAPEAVCLocatorAPI@@XZ PROC	; xr_new<CLocatorAPI>, COMDAT

; 67   : {

$LN7:
	sub	rsp, 40					; 00000028H

; 68   : 	T* ptr	= (T*)Memory.mem_alloc(sizeof(T));

	lea	rcx, OFFSET FLAT:?Memory@@3VxrMemory@@A	; Memory
	mov	edx, 176				; 000000b0H
	call	?mem_alloc@xrMemory@@QEAAPEAX_K@Z	; xrMemory::mem_alloc

; 69   : 	return new (ptr) T();

	test	rax, rax
	je	SHORT $LN3@xr_new@20
	mov	rcx, rax

; 70   : }

	add	rsp, 40					; 00000028H
	jmp	??0CLocatorAPI@@QEAA@XZ			; CLocatorAPI::CLocatorAPI
$LN3@xr_new@20:
	add	rsp, 40					; 00000028H
	ret	0
??$xr_new@VCLocatorAPI@@@@YAPEAVCLocatorAPI@@XZ ENDP	; xr_new<CLocatorAPI>
PUBLIC	?_destroy@xrCore@@QEAAXXZ			; xrCore::_destroy
pdata	SEGMENT
$pdata$?_destroy@xrCore@@QEAAXXZ DD imagerel $LN26
	DD	imagerel $LN26+23
	DD	imagerel $unwind$?_destroy@xrCore@@QEAAXXZ
$pdata$0$?_destroy@xrCore@@QEAAXXZ DD imagerel $LN26+23
	DD	imagerel $LN26+194
	DD	imagerel $chain$0$?_destroy@xrCore@@QEAAXXZ
$pdata$1$?_destroy@xrCore@@QEAAXXZ DD imagerel $LN26+194
	DD	imagerel $LN26+199
	DD	imagerel $chain$1$?_destroy@xrCore@@QEAAXXZ
pdata	ENDS
xdata	SEGMENT
$unwind$?_destroy@xrCore@@QEAAXXZ DD 010401H
	DD	04204H
$chain$0$?_destroy@xrCore@@QEAAXXZ DD 020521H
	DD	043405H
	DD	imagerel $LN26
	DD	imagerel $LN26+23
	DD	imagerel $unwind$?_destroy@xrCore@@QEAAXXZ
$chain$1$?_destroy@xrCore@@QEAAXXZ DD 021H
	DD	imagerel $LN26
	DD	imagerel $LN26+23
	DD	imagerel $unwind$?_destroy@xrCore@@QEAAXXZ
; Function compile flags: /Ogtpy
; File c:\users\nummer\documents\github\olr-3.0\src\xray\xrcore\xrcore.cpp
xdata	ENDS
_TEXT	SEGMENT
this$ = 48
buffer$128759 = 56
?_destroy@xrCore@@QEAAXXZ PROC				; xrCore::_destroy

; 150  : {

$LN26:
	sub	rsp, 40					; 00000028H

; 151  : 	--init_counter;

	dec	DWORD PTR init_counter

; 152  : 	if (0==init_counter){

	jne	$LN18@destroy@10

; 153  : 		FS._destroy			();

	mov	rcx, QWORD PTR ?xr_FS@@3PEAVCLocatorAPI@@EA ; xr_FS
	mov	QWORD PTR [rsp+32], rbx
	call	?_destroy@CLocatorAPI@@QEAAXXZ		; CLocatorAPI::_destroy

; 154  : 		EFS._destroy		();
; 155  : 		xr_delete			(xr_FS);

	xor	ebx, ebx
	cmp	QWORD PTR ?xr_FS@@3PEAVCLocatorAPI@@EA, rbx ; xr_FS
	je	SHORT $LN7@destroy@10
	call	??R?$xr_special_free@$0A@VCLocatorAPI@@@@QEAAXAEAPEAVCLocatorAPI@@@Z ; xr_special_free<0,CLocatorAPI>::operator()
	mov	QWORD PTR ?xr_FS@@3PEAVCLocatorAPI@@EA, rbx ; xr_FS
$LN7@destroy@10:

; 156  : 		xr_delete			(xr_EFS);

	cmp	QWORD PTR ?xr_EFS@@3PEAVEFS_Utils@@EA, rbx ; xr_EFS
	je	SHORT $LN10@destroy@10
	call	??R?$xr_special_free@$00VEFS_Utils@@@@QEAAXAEAPEAVEFS_Utils@@@Z ; xr_special_free<1,EFS_Utils>::operator()
	mov	QWORD PTR ?xr_EFS@@3PEAVEFS_Utils@@EA, rbx ; xr_EFS
$LN10@destroy@10:

; 157  : 
; 158  : #ifndef	_EDITOR
; 159  : 		if (trained_model) {

	mov	rax, QWORD PTR ?trained_model@@3PEAVstream@ppmd@compression@@EA ; trained_model
	test	rax, rax
	je	SHORT $LN15@destroy@10

; 160  : 			void			*buffer = trained_model->buffer();

	mov	rax, QWORD PTR [rax+8]

; 161  : 			xr_free			(buffer);

	lea	rcx, QWORD PTR buffer$128759[rsp]
	mov	QWORD PTR buffer$128759[rsp], rax
	call	??$xr_free@X@@YAXAEAPEAX@Z		; xr_free<void>

; 162  : 			xr_delete		(trained_model);

	cmp	QWORD PTR ?trained_model@@3PEAVstream@ppmd@compression@@EA, rbx ; trained_model
	je	SHORT $LN15@destroy@10
	call	??R?$xr_special_free@$0A@Vstream@ppmd@compression@@@@QEAAXAEAPEAVstream@ppmd@compression@@@Z ; xr_special_free<0,compression::ppmd::stream>::operator()
	mov	QWORD PTR ?trained_model@@3PEAVstream@ppmd@compression@@EA, rbx ; trained_model
$LN15@destroy@10:

; 163  : 		}
; 164  : #endif
; 165  : 
; 166  : 		Memory._destroy		();

	lea	rcx, OFFSET FLAT:?verbosity_filters@@3Vstr_container@@A ; verbosity_filters
	call	?clean@str_container@@QEAAXXZ		; str_container::clean
	cmp	QWORD PTR ?g_pSharedMemoryContainer@@3PEAVsmem_container@@EA, rbx ; g_pSharedMemoryContainer
	je	SHORT $LN20@destroy@10
	call	??R?$xr_special_free@$0A@Vsmem_container@@@@QEAAXAEAPEAVsmem_container@@@Z ; xr_special_free<0,smem_container>::operator()
	mov	QWORD PTR ?g_pSharedMemoryContainer@@3PEAVsmem_container@@EA, rbx ; g_pSharedMemoryContainer
$LN20@destroy@10:
	cmp	QWORD PTR ?g_pStringContainer@@3PEAVstr_container@@EA, rbx ; g_pStringContainer
	je	SHORT $LN23@destroy@10
	call	??R?$xr_special_free@$0A@Vstr_container@@@@QEAAXAEAPEAVstr_container@@@Z ; xr_special_free<0,str_container>::operator()
	mov	QWORD PTR ?g_pStringContainer@@3PEAVstr_container@@EA, rbx ; g_pStringContainer
$LN23@destroy@10:
	mov	DWORD PTR ?mem_initialized@@3HA, ebx	; mem_initialized
	mov	rbx, QWORD PTR [rsp+32]
$LN18@destroy@10:

; 167  : 	}
; 168  : }

	add	rsp, 40					; 00000028H
	ret	0
?_destroy@xrCore@@QEAAXXZ ENDP				; xrCore::_destroy
PUBLIC	?_initialize@xrCore@@QEAAXPEBDP6AX0@ZH0@Z	; xrCore::_initialize
pdata	SEGMENT
$pdata$?_initialize@xrCore@@QEAAXPEBDP6AX0@ZH0@Z DD imagerel $LN88
	DD	imagerel $LN88+10
	DD	imagerel $unwind$?_initialize@xrCore@@QEAAXPEBDP6AX0@ZH0@Z
$pdata$1$?_initialize@xrCore@@QEAAXPEBDP6AX0@ZH0@Z DD imagerel $LN88+10
	DD	imagerel $LN88+18
	DD	imagerel $chain$1$?_initialize@xrCore@@QEAAXPEBDP6AX0@ZH0@Z
$pdata$3$?_initialize@xrCore@@QEAAXPEBDP6AX0@ZH0@Z DD imagerel $LN88+18
	DD	imagerel $LN88+63
	DD	imagerel $chain$3$?_initialize@xrCore@@QEAAXPEBDP6AX0@ZH0@Z
$pdata$6$?_initialize@xrCore@@QEAAXPEBDP6AX0@ZH0@Z DD imagerel $LN88+63
	DD	imagerel $LN88+342
	DD	imagerel $chain$6$?_initialize@xrCore@@QEAAXPEBDP6AX0@ZH0@Z
$pdata$7$?_initialize@xrCore@@QEAAXPEBDP6AX0@ZH0@Z DD imagerel $LN88+342
	DD	imagerel $LN88+562
	DD	imagerel $chain$7$?_initialize@xrCore@@QEAAXPEBDP6AX0@ZH0@Z
$pdata$8$?_initialize@xrCore@@QEAAXPEBDP6AX0@ZH0@Z DD imagerel $LN88+562
	DD	imagerel $LN88+705
	DD	imagerel $chain$8$?_initialize@xrCore@@QEAAXPEBDP6AX0@ZH0@Z
$pdata$9$?_initialize@xrCore@@QEAAXPEBDP6AX0@ZH0@Z DD imagerel $LN88+705
	DD	imagerel $LN88+722
	DD	imagerel $chain$9$?_initialize@xrCore@@QEAAXPEBDP6AX0@ZH0@Z
$pdata$10$?_initialize@xrCore@@QEAAXPEBDP6AX0@ZH0@Z DD imagerel $LN88+722
	DD	imagerel $LN88+939
	DD	imagerel $chain$10$?_initialize@xrCore@@QEAAXPEBDP6AX0@ZH0@Z
$pdata$11$?_initialize@xrCore@@QEAAXPEBDP6AX0@ZH0@Z DD imagerel $LN88+939
	DD	imagerel $LN88+1047
	DD	imagerel $chain$11$?_initialize@xrCore@@QEAAXPEBDP6AX0@ZH0@Z
pdata	ENDS
xdata	SEGMENT
$unwind$?_initialize@xrCore@@QEAAXPEBDP6AX0@ZH0@Z DD 020a01H
	DD	0137010aH
$chain$1$?_initialize@xrCore@@QEAAXPEBDP6AX0@ZH0@Z DD 040821H
	DD	01366408H
	DD	01395404H
	DD	imagerel $LN88
	DD	imagerel $LN88+10
	DD	imagerel $unwind$?_initialize@xrCore@@QEAAXPEBDP6AX0@ZH0@Z
$chain$3$?_initialize@xrCore@@QEAAXPEBDP6AX0@ZH0@Z DD 040821H
	DD	0133d408H
	DD	0134c404H
	DD	imagerel $LN88+10
	DD	imagerel $LN88+18
	DD	imagerel $chain$1$?_initialize@xrCore@@QEAAXPEBDP6AX0@ZH0@Z
$chain$6$?_initialize@xrCore@@QEAAXPEBDP6AX0@ZH0@Z DD 061c21H
	DD	0132e41cH
	DD	01357414H
	DD	01383408H
	DD	imagerel $LN88+18
	DD	imagerel $LN88+63
	DD	imagerel $chain$3$?_initialize@xrCore@@QEAAXPEBDP6AX0@ZH0@Z
$chain$7$?_initialize@xrCore@@QEAAXPEBDP6AX0@ZH0@Z DD 040021H
	DD	0132e400H
	DD	01357400H
	DD	imagerel $LN88+18
	DD	imagerel $LN88+63
	DD	imagerel $chain$3$?_initialize@xrCore@@QEAAXPEBDP6AX0@ZH0@Z
$chain$8$?_initialize@xrCore@@QEAAXPEBDP6AX0@ZH0@Z DD 020021H
	DD	01357400H
	DD	imagerel $LN88+18
	DD	imagerel $LN88+63
	DD	imagerel $chain$3$?_initialize@xrCore@@QEAAXPEBDP6AX0@ZH0@Z
$chain$9$?_initialize@xrCore@@QEAAXPEBDP6AX0@ZH0@Z DD 021H
	DD	imagerel $LN88+18
	DD	imagerel $LN88+63
	DD	imagerel $chain$3$?_initialize@xrCore@@QEAAXPEBDP6AX0@ZH0@Z
$chain$10$?_initialize@xrCore@@QEAAXPEBDP6AX0@ZH0@Z DD 020021H
	DD	0133d400H
	DD	imagerel $LN88+10
	DD	imagerel $LN88+18
	DD	imagerel $chain$1$?_initialize@xrCore@@QEAAXPEBDP6AX0@ZH0@Z
$chain$11$?_initialize@xrCore@@QEAAXPEBDP6AX0@ZH0@Z DD 021H
	DD	imagerel $LN88
	DD	imagerel $LN88+10
	DD	imagerel $unwind$?_initialize@xrCore@@QEAAXPEBDP6AX0@ZH0@Z
; Function compile flags: /Ogtpy
xdata	ENDS
_TEXT	SEGMENT
dwVer$128668 = 64
sz_comp$128640 = 64
msg$128667 = 80
dr$128631 = 336
di$128632 = 864
fn$128630 = 1392
c_name$128636 = 1920
this$ = 2496
_ApplicationName$ = 2504
cb$ = 2512
sz_user$128639 = 2520
init_fs$ = 2520
fs_fname$ = 2528
?_initialize@xrCore@@QEAAXPEBDP6AX0@ZH0@Z PROC		; xrCore::_initialize

; 34   : {

$LN88:
	mov	rax, rsp
	sub	rsp, 2488				; 000009b8H
	mov	QWORD PTR [rax+16], rbp
	mov	QWORD PTR [rax-8], rsi
	mov	QWORD PTR [rax-24], r12
	mov	QWORD PTR [rax-32], r13
	mov	r13, r8

; 35   : 	strcpy_s					(ApplicationName,_ApplicationName);

	mov	r8, rdx
	mov	edx, 64					; 00000040H
	mov	r12d, r9d
	mov	rbp, rcx
	call	QWORD PTR __imp_strcpy_s

; 36   : 	if (0==init_counter) {

	xor	esi, esi
	cmp	DWORD PTR init_counter, esi
	jne	$LN39@initialize@6

; 37   : #ifdef XRCORE_STATIC	
; 38   : 		_clear87	();
; 39   : 		_control87	( _PC_53,   MCW_PC );
; 40   : 		_control87	( _RC_CHOP, MCW_RC );
; 41   : 		_control87	( _RC_NEAR, MCW_RC );
; 42   : 		_control87	( _MCW_EM,  MCW_EM );
; 43   : #endif
; 44   : 		// Init COM so we can use CoCreateInstance
; 45   : //		HRESULT co_res = 
; 46   : 			CoInitializeEx (NULL, COINIT_MULTITHREADED);

	mov	QWORD PTR [rsp+2496], rbx
	xor	edx, edx
	xor	ecx, ecx
	mov	QWORD PTR [rsp+2472], rdi
	mov	QWORD PTR [rsp+2448], r14
	call	QWORD PTR __imp_CoInitializeEx

; 47   : 
; 48   : 		strcpy_s			(Params,sizeof(Params),GetCommandLine());

	call	QWORD PTR __imp_GetCommandLineA
	lea	rcx, QWORD PTR [rbp+1232]
	mov	edx, 512				; 00000200H
	mov	r8, rax
	call	QWORD PTR __imp_strcpy_s

; 49   : 		_strlwr_s			(Params,sizeof(Params));

	lea	rcx, QWORD PTR [rbp+1232]
	mov	edx, 512				; 00000200H
	call	QWORD PTR __imp__strlwr_s

; 50   : 
; 51   : 		string_path		fn,dr,di;
; 52   : 
; 53   : 		// application path
; 54   :         GetModuleFileName(GetModuleHandle(MODULE_NAME),fn,sizeof(fn));

	lea	rcx, OFFSET FLAT:??_C@_0L@KNAPJNOA@xrCore?4dll?$AA@
	call	QWORD PTR __imp_GetModuleHandleA
	lea	rdx, QWORD PTR fn$128630[rsp]
	mov	r8d, 520				; 00000208H
	mov	rcx, rax
	call	QWORD PTR __imp_GetModuleFileNameA

; 55   :         _splitpath		(fn,dr,di,0,0);

	lea	r8, QWORD PTR di$128632[rsp]
	lea	rdx, QWORD PTR dr$128631[rsp]
	lea	rcx, QWORD PTR fn$128630[rsp]
	xor	r9d, r9d
	mov	QWORD PTR [rsp+32], rsi
	call	QWORD PTR __imp__splitpath

; 56   :         strconcat		(sizeof(ApplicationPath),ApplicationPath,dr,di);

	or	rcx, -1
	xor	eax, eax
	lea	rdi, QWORD PTR dr$128631[rsp]
	lea	r8, QWORD PTR dr$128631[rsp]
	mov	edx, 520				; 00000208H
	repne scasb
	not	rcx
	lea	rdi, QWORD PTR [rcx-1]
	lea	rcx, QWORD PTR [rbp+64]
	call	QWORD PTR __imp_strcpy_s
	mov	edx, 520				; 00000208H
	lea	r8, QWORD PTR di$128632[rsp]
	lea	rcx, QWORD PTR [rbp+64]
	sub	edx, edi
	call	QWORD PTR __imp_strcat_s

; 57   : #ifndef _EDITOR
; 58   : 		strcpy_s		(g_application_path,sizeof(g_application_path),ApplicationPath);

	lea	r8, QWORD PTR [rbp+64]
	lea	rcx, OFFSET FLAT:?g_application_path@@3PADA ; g_application_path
	mov	edx, 256				; 00000100H
	call	QWORD PTR __imp_strcpy_s

; 59   : #endif
; 60   : 
; 61   : 		// working path
; 62   :         if( strstr(Params,"-wf") )

	lea	rdx, OFFSET FLAT:??_C@_03OOPKOFPE@?9wf?$AA@
	lea	rcx, QWORD PTR [rbp+1232]
	call	QWORD PTR __imp_strstr
	mov	rbx, QWORD PTR [rsp+2496]
	test	rax, rax
	je	SHORT $LN9@initialize@6

; 63   :         {
; 64   :             string_path				c_name;
; 65   :             sscanf					(strstr(Core.Params,"-wf ")+4,"%[^ ] ",c_name);

	lea	rdx, OFFSET FLAT:??_C@_04CPLKOIEC@?9wf?5?$AA@
	lea	rcx, OFFSET FLAT:?Core@@3VxrCore@@A+1232
	call	QWORD PTR __imp_strstr
	lea	r8, QWORD PTR c_name$128636[rsp]
	lea	rdx, OFFSET FLAT:??_C@_06EPKOIJFL@?$CF?$FL?$FO?5?$FN?5?$AA@
	lea	rcx, QWORD PTR [rax+4]
	call	QWORD PTR __imp_sscanf

; 66   :             SetCurrentDirectory     (c_name);

	lea	rcx, QWORD PTR c_name$128636[rsp]
	call	QWORD PTR __imp_SetCurrentDirectoryA
$LN9@initialize@6:

; 67   : 
; 68   :         }
; 69   : 		GetCurrentDirectory(sizeof(WorkingPath),WorkingPath);

	lea	rdx, QWORD PTR [rbp+584]
	mov	ecx, 520				; 00000208H
	call	QWORD PTR __imp_GetCurrentDirectoryA

; 70   : 
; 71   : 		// User/Comp Name
; 72   : 		DWORD	sz_user		= sizeof(UserName);
; 73   : 		GetUserName			(UserName,&sz_user);

	lea	rcx, QWORD PTR [rbp+1104]
	lea	rdx, QWORD PTR sz_user$128639[rsp]
	mov	DWORD PTR sz_user$128639[rsp], 64	; 00000040H
	call	QWORD PTR __imp_GetUserNameA

; 74   : 
; 75   : 		DWORD	sz_comp		= sizeof(CompName);
; 76   : 		GetComputerName		(CompName,&sz_comp);

	lea	rcx, QWORD PTR [rbp+1168]
	lea	rdx, QWORD PTR sz_comp$128640[rsp]
	mov	DWORD PTR sz_comp$128640[rsp], 64	; 00000040H
	call	QWORD PTR __imp_GetComputerNameA

; 77   : 
; 78   : 		// Mathematics & PSI detection
; 79   : 		CPU::Detect			();

	call	?Detect@CPU@@YAXXZ			; CPU::Detect

; 80   : 		
; 81   : 		Memory._initialize	(strstr(Params,"-mem_debug") ? TRUE : FALSE);

	lea	rdx, OFFSET FLAT:??_C@_0L@FOPADGPO@?9mem_debug?$AA@
	lea	rcx, QWORD PTR [rbp+1232]
	call	QWORD PTR __imp_strstr
	mov	edx, esi
	lea	rcx, OFFSET FLAT:?Memory@@3VxrMemory@@A	; Memory
	test	rax, rax
	setne	dl
	call	?_initialize@xrMemory@@QEAAXH@Z		; xrMemory::_initialize

; 82   : 
; 83   : 		DUMP_PHASE;
; 84   : 
; 85   : 		InitLog				();

	call	?InitLog@@YAXXZ				; InitLog

; 86   : 		_initialize_cpu		();

	call	?_initialize_cpu@@YAXXZ			; _initialize_cpu

; 87   : 
; 88   : //		Debug._initialize	();
; 89   : 
; 90   : 		rtc_initialize		();
; 91   : 
; 92   : 		xr_FS				= xr_new<CLocatorAPI>	();

	lea	rcx, OFFSET FLAT:?Memory@@3VxrMemory@@A	; Memory
	mov	edx, 176				; 000000b0H
	call	?mem_alloc@xrMemory@@QEAAPEAX_K@Z	; xrMemory::mem_alloc
	mov	r14, QWORD PTR [rsp+2448]
	test	rax, rax
	je	SHORT $LN32@initialize@6
	mov	rcx, rax
	call	??0CLocatorAPI@@QEAA@XZ			; CLocatorAPI::CLocatorAPI
	mov	QWORD PTR ?xr_FS@@3PEAVCLocatorAPI@@EA, rax ; xr_FS
	jmp	SHORT $LN33@initialize@6
$LN32@initialize@6:
	mov	QWORD PTR ?xr_FS@@3PEAVCLocatorAPI@@EA, rsi ; xr_FS
$LN33@initialize@6:

; 93   : 
; 94   : 		xr_EFS				= xr_new<EFS_Utils>		();

	lea	rcx, OFFSET FLAT:?Memory@@3VxrMemory@@A	; Memory
	mov	edx, 40					; 00000028H
	call	?mem_alloc@xrMemory@@QEAAPEAX_K@Z	; xrMemory::mem_alloc
	mov	rdi, rax
	test	rax, rax
	je	SHORT $LN38@initialize@6
	lea	rax, OFFSET FLAT:??_7EFS_Utils@@6B@
	lea	rcx, OFFSET FLAT:?Memory@@3VxrMemory@@A	; Memory
	mov	edx, 80					; 00000050H
	mov	QWORD PTR [rdi], rax
	mov	QWORD PTR [rdi+24], rsi
	call	?mem_alloc@xrMemory@@QEAAPEAX_K@Z	; xrMemory::mem_alloc
	mov	QWORD PTR [rdi+16], rax
	mov	QWORD PTR [rax], rax
	mov	rax, QWORD PTR [rdi+16]
	mov	QWORD PTR [rax+8], rax
	mov	rax, QWORD PTR [rdi+16]
	mov	QWORD PTR [rax+16], rax
	mov	rax, QWORD PTR [rdi+16]
	mov	BYTE PTR [rax+72], 1
	mov	rax, QWORD PTR [rdi+16]
	mov	BYTE PTR [rax+73], 1
	mov	QWORD PTR ?xr_EFS@@3PEAVEFS_Utils@@EA, rdi ; xr_EFS
	jmp	SHORT $LN87@initialize@6
$LN38@initialize@6:
	mov	QWORD PTR ?xr_EFS@@3PEAVEFS_Utils@@EA, rsi ; xr_EFS
$LN87@initialize@6:
	mov	rdi, QWORD PTR [rsp+2472]
$LN39@initialize@6:

; 95   : //.		R_ASSERT			(co_res==S_OK);
; 96   : 	}
; 97   : 	if (init_fs){

	test	r12d, r12d
	mov	r12, QWORD PTR [rsp+2464]
	je	$LN78@initialize@6

; 98   : 		u32 flags			= 0;
; 99   : 		if (0!=strstr(Params,"-build"))	 flags |= CLocatorAPI::flBuildCopy;

	add	rbp, 1232				; 000004d0H
	lea	rdx, OFFSET FLAT:??_C@_06LOIFJNFN@?9build?$AA@
	mov	rcx, rbp
	call	QWORD PTR __imp_strstr
	mov	ecx, 2

; 100  : 		if (0!=strstr(Params,"-ebuild")) flags |= CLocatorAPI::flBuildCopy|CLocatorAPI::flEBuildCopy;

	lea	rdx, OFFSET FLAT:??_C@_07FDFMNBND@?9ebuild?$AA@
	test	rax, rax
	cmovne	esi, ecx
	mov	rcx, rbp
	call	QWORD PTR __imp_strstr
	test	rax, rax
	je	SHORT $LN3@initialize@6
	or	esi, 10
$LN3@initialize@6:

; 101  : #ifdef DEBUG
; 102  : 		if (strstr(Params,"-cache"))  flags |= CLocatorAPI::flCacheFiles;
; 103  : 		else flags &= ~CLocatorAPI::flCacheFiles;
; 104  : #endif // DEBUG
; 105  : #ifdef _EDITOR // for EDITORS - no cache
; 106  : 		flags 				&=~ CLocatorAPI::flCacheFiles;
; 107  : #endif // _EDITOR
; 108  : 		flags |= CLocatorAPI::flScanAppRoot;
; 109  : 
; 110  : #ifndef	_EDITOR
; 111  : 	#ifndef ELocatorAPIH
; 112  : 		if (0!=strstr(Params,"-file_activity"))	 flags |= CLocatorAPI::flDumpFileActivity;

	lea	rdx, OFFSET FLAT:??_C@_0P@FKEDFFFF@?9file_activity?$AA@
	mov	rcx, rbp
	bts	esi, 7
	call	QWORD PTR __imp_strstr
	test	rax, rax
	je	SHORT $LN2@initialize@6
	bts	esi, 9
$LN2@initialize@6:

; 113  : 	#endif
; 114  : #endif
; 115  : 		FS._initialize		(flags,0,fs_fname);

	mov	r9, QWORD PTR fs_fname$[rsp]
	mov	rcx, QWORD PTR ?xr_FS@@3PEAVCLocatorAPI@@EA ; xr_FS
	xor	r8d, r8d
	mov	edx, esi
	call	?_initialize@CLocatorAPI@@QEAAXIPEBD0@Z	; CLocatorAPI::_initialize

; 116  : 		Msg					("'%s' build %d, %s\n","xrCore",build_id, build_date);

	mov	r9, QWORD PTR ?build_date@@3PEBDEB	; build_date
	mov	r8d, DWORD PTR ?build_id@@3IA		; build_id
	lea	rdx, OFFSET FLAT:??_C@_06MIBHPEBH@xrCore?$AA@
	lea	rcx, OFFSET FLAT:??_C@_0BD@JOAIEFKH@?8?$CFs?8?5build?5?$CFd?0?5?$CFs?6?$AA@
	call	?Msg@@YAXPEBDZZ				; Msg

; 117  : 		EFS._initialize		();

$LN78@initialize@6:

; 118  : #ifdef DEBUG
; 119  :     #ifndef	_EDITOR
; 120  : 		Msg					("CRT heap 0x%08x",_get_heap_handle());
; 121  : 		Msg					("Process heap 0x%08x",GetProcessHeap());
; 122  :     #endif
; 123  : #endif // DEBUG
; 124  : 	}
; 125  : 	
; 126  : 	SetLogCB				(cb);

	mov	rcx, r13
	call	?SetLogCB@@YAXP6AXPEBD@Z@Z		; SetLogCB

; 127  : 
; 128  : 	LPAPI_VERSION ver = ImagehlpApiVersion();

	call	QWORD PTR __imp_ImagehlpApiVersion

; 129  : 	if ( NULL == GetProcAddress ( GetModuleHandle("dbghelp.dll"), "EnumerateLoadedModulesEx") )

	lea	rcx, OFFSET FLAT:??_C@_0M@OOEJBPPK@dbghelp?4dll?$AA@
	call	QWORD PTR __imp_GetModuleHandleA
	lea	rdx, OFFSET FLAT:??_C@_0BJ@KCKDNGEA@EnumerateLoadedModulesEx?$AA@
	mov	rcx, rax
	call	QWORD PTR __imp_GetProcAddress
	mov	r13, QWORD PTR [rsp+2456]
	mov	rsi, QWORD PTR [rsp+2480]
	mov	rbp, QWORD PTR [rsp+2504]
	test	rax, rax
	jne	SHORT $LN86@initialize@6

; 130  : 	{
; 131  : 		string256 msg;		
; 132  : 		DWORD dwVer[2];
; 133  : 		WORD *v4 = (WORD*) &dwVer;
; 134  : 		CSymbolEngine SE;
; 135  : 		SE.GetInMemoryFileVersion("dbghelp.dll", dwVer[0], dwVer[1]);

	lea	rdx, QWORD PTR dwVer$128668[rsp+4]
	lea	rcx, QWORD PTR dwVer$128668[rsp]
	call	?GetInMemoryFileVersion@CSymbolEngine@@QEAAHPEBDAEAK1@Z ; CSymbolEngine::GetInMemoryFileVersion

; 136  : 
; 137  : 		sprintf_s(msg, 256, "  dbghelp.dll (%d.%d.%d.%d),   .", 
; 138  : 								v4[1], v4[0], v4[3], v4[2]);

	movzx	ecx, WORD PTR dwVer$128668[rsp+4]
	movzx	eax, WORD PTR dwVer$128668[rsp+6]
	movzx	edx, WORD PTR dwVer$128668[rsp]
	movzx	r9d, WORD PTR dwVer$128668[rsp+2]
	mov	DWORD PTR [rsp+48], ecx
	mov	DWORD PTR [rsp+40], eax
	mov	DWORD PTR [rsp+32], edx
	lea	rcx, QWORD PTR msg$128667[rsp]
	lea	r8, OFFSET FLAT:??_C@_0EG@KOOKGMKK@?S?q?r?$OA?p?e?b?x?h?i?5?t?$OA?i?k?5dbghelp?4dll?5?$CI?$CFd?4@
	mov	edx, 256				; 00000100H
	call	QWORD PTR __imp_sprintf_s

; 139  : 		MessageBox(NULL, msg, "DebugHlp Warning", MB_OK);

	lea	r8, OFFSET FLAT:??_C@_0BB@IILKFANF@DebugHlp?5Warning?$AA@
	lea	rdx, QWORD PTR msg$128667[rsp]
	xor	r9d, r9d
	xor	ecx, ecx
	call	QWORD PTR __imp_MessageBoxA
$LN86@initialize@6:

; 140  : 	}
; 141  : 
; 142  : 	init_counter++;

	inc	DWORD PTR init_counter

; 143  : }

	add	rsp, 2488				; 000009b8H
	ret	0
?_initialize@xrCore@@QEAAXPEBDP6AX0@ZH0@Z ENDP		; xrCore::_initialize
END
