; Listing generated by Microsoft (R) Optimizing Compiler Version 18.00.40629.0 

include listing.inc

INCLUDELIB OLDNAMES

PUBLIC	??_C@_03EEBNCBOD@?5?$CFs?$AA@			; `string'
PUBLIC	??_C@_0EF@FFGHPKJO@?$CBException?5stack?5trace?5?$CFd?5lines?0@ ; `string'
PUBLIC	??_C@_0EP@DPEOBJ@?$CBBuildStackTrace?5produced?5?$CFd?5lin@ ; `string'
PUBLIC	??_C@_07IDOMDILH@?$CD?5?$CFd?5?$CFs?$AA@	; `string'
PUBLIC	??_C@_01EEMJAFIK@?6?$AA@			; `string'
PUBLIC	??_C@_07LFMCMLFD@?$FLerror?$FN?$AA@		; `string'
PUBLIC	??_C@_0BC@HPNOMGOM@?$CFsFATAL?5ERROR?$CFs?$CFs?$AA@ ; `string'
PUBLIC	??_C@_0BH@GALINIK@?$CFsExpression?5?5?5?5?3?5?$CFs?$CFs?$AA@ ; `string'
PUBLIC	??_C@_0BH@CIBMKEDG@?$CFsFunction?5?5?5?5?5?5?3?5?$CFs?$CFs?$AA@ ; `string'
PUBLIC	??_C@_0BH@LPGPLBHP@?$CFsFile?5?5?5?5?5?5?5?5?5?5?3?5?$CFs?$CFs?$AA@ ; `string'
PUBLIC	??_C@_0BH@MHCDNAKD@?$CFsLine?5?5?5?5?5?5?5?5?5?5?3?5?$CFd?$CFs?$AA@ ; `string'
PUBLIC	??_C@_06DIJPEION@?$CFs?$CFs?$CFs?$AA@		; `string'
PUBLIC	??_C@_04HDOCAJNK@?$CFs?$CFs?$AA@		; `string'
PUBLIC	??_C@_0BH@PHPNCJFN@?$CFsDescription?5?5?5?3?5?$CFs?$CFs?$AA@ ; `string'
PUBLIC	??_C@_0BH@IOIAOHDG@?$CFsArgument?50?5?5?5?5?3?5?$CFs?$CFs?$AA@ ; `string'
PUBLIC	??_C@_0BH@BFCFKLFJ@?$CFsArgument?51?5?5?5?5?3?5?$CFs?$CFs?$AA@ ; `string'
PUBLIC	??_C@_0BH@DGNIFBHF@?$CFsArguments?5?5?5?5?5?3?5?$CFs?$CFs?$AA@ ; `string'
PUBLIC	??_C@_02PCIJFNDE@?$AN?6?$AA@			; `string'
PUBLIC	??_C@_0P@LGHNPNBO@$?$CDDUMP_CONTEXT?$AA@	; `string'
PUBLIC	??_C@_0BG@BFABOLIM@?9no_call_stack_assert?$AA@	; `string'
PUBLIC	??_C@_0DH@FBGGHGDD@?Q?l?n?r?p?h?r?e?5?k?n?c?5?t?$OA?i?k?5?h?5?l?h?m?h?d?$OA?l?o?5?q?5?o@ ; `string'
PUBLIC	??_C@_0P@LFFKDEGP@?$CBstack?5trace?3?6?$AA@	; `string'
PUBLIC	??_C@_05BFHLOLLO@?$CB?7?5?$CFs?$AA@		; `string'
PUBLIC	??_C@_0CP@NCFNAJGJ@?$CFs?M?$OA?f?l?h?r?e?5?$CC?N?r?l?e?m?$OA?$CC?5?d?k?$PP?5?o?p?e?p?$PL?b?$OA?m?h@ ; `string'
PUBLIC	??_C@_0DB@GHHJAOIC@?M?$OA?f?l?h?r?e?5?$CC?O?n?b?r?n?p?h?r?$PM?$CC?5?d?k?$PP?5?d?$OA?k?$PM?m?e?i?x@ ; `string'
PUBLIC	??_C@_0FG@CBCJHJDL@?M?$OA?f?l?h?r?e?5?$CC?O?p?n?d?n?k?f?h?r?$PM?$CC?5?d?k?$PP?5?d?$OA?k?$PM?m?e?i@ ; `string'
PUBLIC	??_C@_0BB@LFOOJIBK@?T?$OA?r?$OA?k?$PM?m?$OA?$PP?5?N?x?h?a?j?$OA?$AA@ ; `string'
PUBLIC	??_C@_0BB@DBHFCHNO@assertion?5failed?$AA@	; `string'
PUBLIC	??_C@_0BA@GDNONNGA@?$DMno?5expression?$DO?$AA@	; `string'
PUBLIC	??_C@_0M@GKMDFHNF@fatal?5error?$AA@		; `string'
PUBLIC	??_C@_0CA@GIMGAEOF@?$CBVERIFY_FAILED?3?5?$CFs?$FL?$CFd?$FN?5?$HL?$CFs?$HN?5?5?$CFs?$AA@ ; `string'
PUBLIC	??_C@_0CD@CDOELBKC@?$CBVERIFY_FAILED?3?5?$CFs?$FL?$CFd?$FN?5?$HL?$CFs?$HN?5?5?$CFs?5@ ; `string'
PUBLIC	??_C@_0CG@BKODDBLF@?$CBVERIFY_FAILED?3?5?$CFs?$FL?$CFd?$FN?5?$HL?$CFs?$HN?5?5?$CFs?5@ ; `string'
PUBLIC	??_C@_0CJ@KGGNIJJB@?$CBVERIFY_FAILED?3?5?$CFs?$FL?$CFd?$FN?5?$HL?$CFs?$HN?5?5?$CFs?5@ ; `string'
PUBLIC	??_C@_0CM@LPDFONIG@?$CBVERIFY_FAILED?3?5?$CFs?$FL?$CFd?$FN?5?$HL?$CFs?$HN?5?5?$CFs?5@ ; `string'
PUBLIC	??_C@_0CO@JONIMMBM@?$CK?5?$FLx?9ray?$FN?3?5crt?5heap?$FL?$CFd?5K?$FN?0?5proce@ ; `string'
PUBLIC	??_C@_0CO@IEOAMGIK@?$CK?5?$FLx?9ray?$FN?3?5economy?3?5strings?$FL?$CFd?5K@ ; `string'
PUBLIC	??_C@_0CE@EPEEKFLF@Out?5of?5memory?4?5Memory?5request?3?5?$CF@ ; `string'
PUBLIC	??_C@_0BG@IFJHIFJP@out_of_memory_handler?$AA@	; `string'
PUBLIC	??_C@_0P@NIPFKGHM@xrDebugNew?4cpp?$AA@		; `string'
PUBLIC	??_C@_0M@IBNEFJCG@DBGHELP?4DLL?$AA@		; `string'
PUBLIC	??_C@_0DE@HNLBHCBO@?$CB?$CDERROR?3?5dbghelp?4dll?5version?5is?5@ ; `string'
PUBLIC	??_C@_0BC@MNIKNFKD@MiniDumpWriteDump?$AA@	; `string'
PUBLIC	??_C@_05MJENMIDH@?4mdmp?$AA@			; `string'
PUBLIC	??_C@_05MIDDFADP@logs?1?$AA@			; `string'
PUBLIC	??_C@_0BI@LIBKOBMP@Saved?5dump?5file?5to?5?8?$CFs?8?$AA@ ; `string'
PUBLIC	??_C@_0CM@IDCCJAOB@Failed?5to?5save?5dump?5file?5to?5?8?$CFs?8@ ; `string'
PUBLIC	??_C@_0CL@KMCGFKEK@Failed?5to?5create?5dump?5file?5?8?$CFs?8?5@ ; `string'
PUBLIC	??_C@_0BE@EABCMIFC@DBGHELP?4DLL?5too?5old?$AA@	; `string'
PUBLIC	??_C@_0BG@MHLNFKHB@DBGHELP?4DLL?5not?5found?$AA@ ; `string'
PUBLIC	??_C@_0BF@LOGNCPDL@?$FLerror?$FN?$FL?$CF8d?$FN?5?5?5?5?3?5?$CFs?$AA@ ; `string'
PUBLIC	??_C@_0CC@DHELJALK@Unhandled?5exception?5stack?5trace?3@ ; `string'
PUBLIC	??_C@_0BB@EAFFLADJ@stack?5trace?3?$AN?6?$AN?6?$AA@ ; `string'
PUBLIC	??_C@_04LLEBNMDN@?$CFs?$AN?6?$AA@		; `string'
PUBLIC	??_C@_03ILJCGOLJ@?6?$CFs?$AA@			; `string'
PUBLIC	??_C@_0M@HCPCIMCN@Fatal?5error?$AA@		; `string'
PUBLIC	??_C@_0DJ@KIAABDKE@?M?e?h?q?o?p?$OA?b?h?l?$OA?$PP?5?n?x?h?a?j?$OA?6?6?M?$OA?f?l?h?r?e?5OK?5@ ; `string'
PUBLIC	??_C@_0BD@EOOGADKP@?9silent_error_mode?$AA@	; `string'
PUBLIC	??_C@_0L@FDGNGFIG@_terminate?$AA@		; `string'
PUBLIC	??_C@_0CD@MNNFJELM@Unexpected?5application?5terminati@ ; `string'
PUBLIC	??_C@_0CG@EJBDGGN@?M?$OA?f?l?h?r?e?5OK?5?d?k?$PP?5?g?$OA?b?e?p?x?e?m?h?$PP?5?o?p?n?c?p?$OA@ ; `string'
PUBLIC	??_C@_0M@HFFOIJBL@Fatal?5Error?$AA@		; `string'
PUBLIC	??_C@_0N@EHAENDPC@handler_base?$AA@		; `string'
PUBLIC	??_C@_0CB@GMGDKICO@?b?$PL?g?b?$OA?m?5?a?$OA?g?n?b?$PL?i?5?n?a?p?$OA?a?n?r?w?h?j?5?n?x?h?a?j?h@ ; `string'
PUBLIC	??_C@_0BK@NBNIIJLH@invalid_parameter_handler?$AA@ ; `string'
PUBLIC	??_C@_0CO@LFNJNJHE@?b?$PL?g?b?$OA?m?5?n?a?p?$OA?a?n?r?w?h?j?5?n?x?h?a?j?h?5?8?m?e?b?e?p?m@ ; `string'
PUBLIC	??_C@_0CJ@HGJHMGII@?g?$OA?j?n?m?w?h?k?$OA?q?$PM?5?q?b?n?a?n?d?m?$OA?$PP?5?n?o?e?p?$OA?r?h?b?m?$OA@ ; `string'
PUBLIC	??_C@_0DN@LFCPOJOF@?b?$PL?g?n?b?5?b?h?p?r?s?$OA?k?$PM?m?n?i?5?t?s?m?j?v?h?h?5?m?e?5?n?o?p@ ; `string'
PUBLIC	??_C@_0BE@ONKMEICK@?o?p?h?k?n?f?e?m?h?e?5?o?p?e?p?b?$OA?m?n?$AA@ ; `string'
PUBLIC	??_C@_0CF@IBAKOLNA@?n?x?h?a?j?$OA?5?b?$PL?w?h?q?k?e?m?h?$PP?5?q?5?o?k?$OA?b?$OA?$PO?y?e?i?5?r?n@ ; `string'
PUBLIC	??_C@_0BH@LGIEMPPN@?m?e?b?e?p?m?$OA?$PP?5?h?m?q?r?p?s?j?v?h?$PP?5?V?O?$AA@ ; `string'
PUBLIC	??_C@_0BF@JHKEIGNA@?g?$OA?b?e?p?x?e?m?h?e?5?q?5?j?n?d?n?l?53?$AA@ ; `string'
PUBLIC	?Debug@@3VxrDebug@@A				; Debug
EXTRN	__imp_SetUnhandledExceptionFilter:PROC
EXTRN	__imp__set_purecall_handler:PROC
EXTRN	__imp_?set_new_handler@std@@YAP6AXXZP6AXXZ@Z:PROC
EXTRN	__imp_?_set_new_handler@@YAP6AH_K@ZP6AH0@Z@Z:PROC
EXTRN	__imp_?_set_new_mode@@YAHH@Z:PROC
EXTRN	__imp__set_invalid_parameter_handler:PROC
EXTRN	__imp_signal:PROC
EXTRN	__imp__set_abort_behavior:PROC
EXTRN	__imp_wcstombs_s:PROC
EXTRN	__imp_?set_terminate@@YAP6AXXZP6AXXZ@Z:PROC
EXTRN	__imp_exit:PROC
EXTRN	__imp_LocalFree:PROC
EXTRN	__imp_GetCurrentProcessId:PROC
EXTRN	__imp_GetCurrentThreadId:PROC
EXTRN	__imp_LoadLibraryA:PROC
EXTRN	__imp_FormatMessageA:PROC
EXTRN	__imp_DebugBreak:PROC
EXTRN	__imp_ShowCursor:PROC
EXTRN	__imp_GetTopWindow:PROC
EXTRN	__imp_ShowWindow:PROC
EXTRN	__imp_TerminateProcess:PROC
EXTRN	__imp_sprintf:PROC
EXTRN	__imp_SetClipboardData:PROC
EXTRN	__imp_EmptyClipboard:PROC
EXTRN	__imp_GlobalUnlock:PROC
EXTRN	__imp_GlobalLock:PROC
EXTRN	__imp_CloseClipboard:PROC
EXTRN	__imp_GlobalAlloc:PROC
EXTRN	__imp_OpenClipboard:PROC
EXTRN	__imp_IsDebuggerPresent:PROC
previous_filter DQ 01H DUP (?)
error_after_dialog DB 01H DUP (?)
	ALIGN	4

?Debug@@3VxrDebug@@A DB 010H DUP (?)			; Debug
_BSS	ENDS
;	COMDAT ??_C@_0BF@JHKEIGNA@?g?$OA?b?e?p?x?e?m?h?e?5?q?5?j?n?d?n?l?53?$AA@
CONST	SEGMENT
??_C@_0BF@JHKEIGNA@?g?$OA?b?e?p?x?e?m?h?e?5?q?5?j?n?d?n?l?53?$AA@ DB 0e7H
	DB	0e0H, 0e2H, 0e5H, 0f0H, 0f8H, 0e5H, 0edH, 0e8H, 0e5H, ' ', 0f1H
	DB	' ', 0eaH, 0eeH, 0e4H, 0eeH, 0ecH, ' 3', 00H	; `string'
CONST	ENDS
;	COMDAT ??_C@_0BH@LGIEMPPN@?m?e?b?e?p?m?$OA?$PP?5?h?m?q?r?p?s?j?v?h?$PP?5?V?O?$AA@
CONST	SEGMENT
??_C@_0BH@LGIEMPPN@?m?e?b?e?p?m?$OA?$PP?5?h?m?q?r?p?s?j?v?h?$PP?5?V?O?$AA@ DB 0edH
	DB	0e5H, 0e2H, 0e5H, 0f0H, 0edH, 0e0H, 0ffH, ' ', 0e8H, 0edH, 0f1H
	DB	0f2H, 0f0H, 0f3H, 0eaH, 0f6H, 0e8H, 0ffH, ' ', 0d6H, 0cfH, 00H ; `string'
CONST	ENDS
;	COMDAT ??_C@_0CF@IBAKOLNA@?n?x?h?a?j?$OA?5?b?$PL?w?h?q?k?e?m?h?$PP?5?q?5?o?k?$OA?b?$OA?$PO?y?e?i?5?r?n@
CONST	SEGMENT
??_C@_0CF@IBAKOLNA@?n?x?h?a?j?$OA?5?b?$PL?w?h?q?k?e?m?h?$PP?5?q?5?o?k?$OA?b?$OA?$PO?y?e?i?5?r?n@ DB 0eeH
	DB	0f8H, 0e8H, 0e1H, 0eaH, 0e0H, ' ', 0e2H, 0fbH, 0f7H, 0e8H, 0f1H
	DB	0ebH, 0e5H, 0edH, 0e8H, 0ffH, ' ', 0f1H, ' ', 0efH, 0ebH, 0e0H
	DB	0e2H, 0e0H, 0feH, 0f9H, 0e5H, 0e9H, ' ', 0f2H, 0eeH, 0f7H, 0eaH
	DB	0eeH, 0e9H, 00H				; `string'
CONST	ENDS
;	COMDAT ??_C@_0BE@ONKMEICK@?o?p?h?k?n?f?e?m?h?e?5?o?p?e?p?b?$OA?m?n?$AA@
CONST	SEGMENT
??_C@_0BE@ONKMEICK@?o?p?h?k?n?f?e?m?h?e?5?o?p?e?p?b?$OA?m?n?$AA@ DB 0efH, 0f0H
	DB	0e8H, 0ebH, 0eeH, 0e6H, 0e5H, 0edH, 0e8H, 0e5H, ' ', 0efH, 0f0H
	DB	0e5H, 0f0H, 0e2H, 0e0H, 0edH, 0eeH, 00H	; `string'
CONST	ENDS
;	COMDAT ??_C@_0DN@LFCPOJOF@?b?$PL?g?n?b?5?b?h?p?r?s?$OA?k?$PM?m?n?i?5?t?s?m?j?v?h?h?5?m?e?5?n?o?p@
CONST	SEGMENT
??_C@_0DN@LFCPOJOF@?b?$PL?g?n?b?5?b?h?p?r?s?$OA?k?$PM?m?n?i?5?t?s?m?j?v?h?h?5?m?e?5?n?o?p@ DB 0e2H
	DB	0fbH, 0e7H, 0eeH, 0e2H, ' ', 0e2H, 0e8H, 0f0H, 0f2H, 0f3H, 0e0H
	DB	0ebH, 0fcH, 0edH, 0eeH, 0e9H, ' ', 0f4H, 0f3H, 0edH, 0eaH, 0f6H
	DB	0e8H, 0e8H, ' ', 0edH, 0e5H, ' ', 0eeH, 0efH, 0f0H, 0e5H, 0e4H
	DB	0e5H, 0ebH, 0e5H, 0edH, 0edH, 0eeH, 0e9H, ' ', 0e4H, 0ebH, 0ffH
	DB	' ', 0eaH, 0ebH, 0e0H, 0f1H, 0f1H, 0e0H, ' ', 0eeH, 0e1H, 0faH
	DB	0e5H, 0eaH, 0f2H, 0e0H, 00H			; `string'
CONST	ENDS
;	COMDAT ??_C@_0CJ@HGJHMGII@?g?$OA?j?n?m?w?h?k?$OA?q?$PM?5?q?b?n?a?n?d?m?$OA?$PP?5?n?o?e?p?$OA?r?h?b?m?$OA@
CONST	SEGMENT
??_C@_0CJ@HGJHMGII@?g?$OA?j?n?m?w?h?k?$OA?q?$PM?5?q?b?n?a?n?d?m?$OA?$PP?5?n?o?e?p?$OA?r?h?b?m?$OA@ DB 0e7H
	DB	0e0H, 0eaH, 0eeH, 0edH, 0f7H, 0e8H, 0ebH, 0e0H, 0f1H, 0fcH, ' '
	DB	0f1H, 0e2H, 0eeH, 0e1H, 0eeH, 0e4H, 0edH, 0e0H, 0ffH, ' ', 0eeH
	DB	0efH, 0e5H, 0f0H, 0e0H, 0f2H, 0e8H, 0e2H, 0edH, 0e0H, 0ffH, ' '
	DB	0efH, 0e0H, 0ecH, 0ffH, 0f2H, 0fcH, 00H	; `string'
CONST	ENDS
;	COMDAT ??_C@_0CO@LFNJNJHE@?b?$PL?g?b?$OA?m?5?n?a?p?$OA?a?n?r?w?h?j?5?n?x?h?a?j?h?5?8?m?e?b?e?p?m@
CONST	SEGMENT
??_C@_0CO@LFNJNJHE@?b?$PL?g?b?$OA?m?5?n?a?p?$OA?a?n?r?w?h?j?5?n?x?h?a?j?h?5?8?m?e?b?e?p?m@ DB 0e2H
	DB	0fbH, 0e7H, 0e2H, 0e0H, 0edH, ' ', 0eeH, 0e1H, 0f0H, 0e0H, 0e1H
	DB	0eeH, 0f2H, 0f7H, 0e8H, 0eaH, ' ', 0eeH, 0f8H, 0e8H, 0e1H, 0eaH
	DB	0e8H, ' ''', 0edH, 0e5H, 0e2H, 0e5H, 0f0H, 0edH, 0fbH, 0e9H, ' '
	DB	0efH, 0e0H, 0f0H, 0e0H, 0ecH, 0e5H, 0f2H, 0f0H, ''' ', 00H ; `string'
CONST	ENDS
;	COMDAT ??_C@_0BK@NBNIIJLH@invalid_parameter_handler?$AA@
CONST	SEGMENT
??_C@_0BK@NBNIIJLH@invalid_parameter_handler?$AA@ DB 'invalid_parameter_h'
	DB	'andler', 00H				; `string'
CONST	ENDS
;	COMDAT ??_C@_0CB@GMGDKICO@?b?$PL?g?b?$OA?m?5?a?$OA?g?n?b?$PL?i?5?n?a?p?$OA?a?n?r?w?h?j?5?n?x?h?a?j?h@
CONST	SEGMENT
??_C@_0CB@GMGDKICO@?b?$PL?g?b?$OA?m?5?a?$OA?g?n?b?$PL?i?5?n?a?p?$OA?a?n?r?w?h?j?5?n?x?h?a?j?h@ DB 0e2H
	DB	0fbH, 0e7H, 0e2H, 0e0H, 0edH, ' ', 0e1H, 0e0H, 0e7H, 0eeH, 0e2H
	DB	0fbH, 0e9H, ' ', 0eeH, 0e1H, 0f0H, 0e0H, 0e1H, 0eeH, 0f2H, 0f7H
	DB	0e8H, 0eaH, ' ', 0eeH, 0f8H, 0e8H, 0e1H, 0eaH, 0e8H, 00H ; `string'
CONST	ENDS
;	COMDAT ??_C@_0N@EHAENDPC@handler_base?$AA@
CONST	SEGMENT
??_C@_0N@EHAENDPC@handler_base?$AA@ DB 'handler_base', 00H ; `string'
CONST	ENDS
;	COMDAT ??_C@_0M@HFFOIJBL@Fatal?5Error?$AA@
CONST	SEGMENT
??_C@_0M@HFFOIJBL@Fatal?5Error?$AA@ DB 'Fatal Error', 00H ; `string'
CONST	ENDS
;	COMDAT ??_C@_0CG@EJBDGGN@?M?$OA?f?l?h?r?e?5OK?5?d?k?$PP?5?g?$OA?b?e?p?x?e?m?h?$PP?5?o?p?n?c?p?$OA@
CONST	SEGMENT
??_C@_0CG@EJBDGGN@?M?$OA?f?l?h?r?e?5OK?5?d?k?$PP?5?g?$OA?b?e?p?x?e?m?h?$PP?5?o?p?n?c?p?$OA@ DB 0cdH
	DB	0e0H, 0e6H, 0ecH, 0e8H, 0f2H, 0e5H, ' OK ', 0e4H, 0ebH, 0ffH, ' '
	DB	0e7H, 0e0H, 0e2H, 0e5H, 0f0H, 0f8H, 0e5H, 0edH, 0e8H, 0ffH, ' '
	DB	0efH, 0f0H, 0eeH, 0e3H, 0f0H, 0e0H, 0ecH, 0ecH, 0fbH, 0dH, 0aH
	DB	00H						; `string'
CONST	ENDS
;	COMDAT ??_C@_0CD@MNNFJELM@Unexpected?5application?5terminati@
CONST	SEGMENT
??_C@_0CD@MNNFJELM@Unexpected?5application?5terminati@ DB 'Unexpected app'
	DB	'lication termination', 00H			; `string'
CONST	ENDS
;	COMDAT ??_C@_0L@FDGNGFIG@_terminate?$AA@
CONST	SEGMENT
??_C@_0L@FDGNGFIG@_terminate?$AA@ DB '_terminate', 00H	; `string'
CONST	ENDS
;	COMDAT ??_C@_0BD@EOOGADKP@?9silent_error_mode?$AA@
CONST	SEGMENT
??_C@_0BD@EOOGADKP@?9silent_error_mode?$AA@ DB '-silent_error_mode', 00H ; `string'
CONST	ENDS
;	COMDAT ??_C@_0DJ@KIAABDKE@?M?e?h?q?o?p?$OA?b?h?l?$OA?$PP?5?n?x?h?a?j?$OA?6?6?M?$OA?f?l?h?r?e?5OK?5@
CONST	SEGMENT
??_C@_0DJ@KIAABDKE@?M?e?h?q?o?p?$OA?b?h?l?$OA?$PP?5?n?x?h?a?j?$OA?6?6?M?$OA?f?l?h?r?e?5OK?5@ DB 0cdH
	DB	0e5H, 0e8H, 0f1H, 0efH, 0f0H, 0e0H, 0e2H, 0e8H, 0ecH, 0e0H, 0ffH
	DB	' ', 0eeH, 0f8H, 0e8H, 0e1H, 0eaH, 0e0H, 0aH, 0aH, 0cdH, 0e0H, 0e6H
	DB	0ecH, 0e8H, 0f2H, 0e5H, ' OK ', 0e4H, 0ebH, 0ffH, ' ', 0e7H, 0e0H
	DB	0e2H, 0e5H, 0f0H, 0f8H, 0e5H, 0edH, 0e8H, 0ffH, ' ', 0efH, 0f0H
	DB	0eeH, 0e3H, 0f0H, 0e0H, 0ecH, 0ecH, 0fbH, 00H ; `string'
CONST	ENDS
;	COMDAT ??_C@_0M@HCPCIMCN@Fatal?5error?$AA@
CONST	SEGMENT
??_C@_0M@HCPCIMCN@Fatal?5error?$AA@ DB 'Fatal error', 00H ; `string'
CONST	ENDS
;	COMDAT ??_C@_03ILJCGOLJ@?6?$CFs?$AA@
CONST	SEGMENT
??_C@_03ILJCGOLJ@?6?$CFs?$AA@ DB 0aH, '%s', 00H		; `string'
CONST	ENDS
;	COMDAT ??_C@_04LLEBNMDN@?$CFs?$AN?6?$AA@
CONST	SEGMENT
??_C@_04LLEBNMDN@?$CFs?$AN?6?$AA@ DB '%s', 0dH, 0aH, 00H ; `string'
CONST	ENDS
;	COMDAT ??_C@_0BB@EAFFLADJ@stack?5trace?3?$AN?6?$AN?6?$AA@
CONST	SEGMENT
??_C@_0BB@EAFFLADJ@stack?5trace?3?$AN?6?$AN?6?$AA@ DB 'stack trace:', 0dH
	DB	0aH, 0dH, 0aH, 00H				; `string'
CONST	ENDS
;	COMDAT ??_C@_0CC@DHELJALK@Unhandled?5exception?5stack?5trace?3@
CONST	SEGMENT
??_C@_0CC@DHELJALK@Unhandled?5exception?5stack?5trace?3@ DB 'Unhandled ex'
	DB	'ception stack trace:', 0aH, 00H		; `string'
CONST	ENDS
;	COMDAT ??_C@_0BF@LOGNCPDL@?$FLerror?$FN?$FL?$CF8d?$FN?5?5?5?5?3?5?$CFs?$AA@
CONST	SEGMENT
??_C@_0BF@LOGNCPDL@?$FLerror?$FN?$FL?$CF8d?$FN?5?5?5?5?3?5?$CFs?$AA@ DB '['
	DB	'error][%8d]    : %s', 00H			; `string'
CONST	ENDS
;	COMDAT ??_C@_0BG@MHLNFKHB@DBGHELP?4DLL?5not?5found?$AA@
CONST	SEGMENT
??_C@_0BG@MHLNFKHB@DBGHELP?4DLL?5not?5found?$AA@ DB 'DBGHELP.DLL not foun'
	DB	'd', 00H					; `string'
CONST	ENDS
;	COMDAT ??_C@_0BE@EABCMIFC@DBGHELP?4DLL?5too?5old?$AA@
CONST	SEGMENT
??_C@_0BE@EABCMIFC@DBGHELP?4DLL?5too?5old?$AA@ DB 'DBGHELP.DLL too old', 00H ; `string'
CONST	ENDS
;	COMDAT ??_C@_0CL@KMCGFKEK@Failed?5to?5create?5dump?5file?5?8?$CFs?8?5@
CONST	SEGMENT
??_C@_0CL@KMCGFKEK@Failed?5to?5create?5dump?5file?5?8?$CFs?8?5@ DB 'Faile'
	DB	'd to create dump file ''%s'' (error %d)', 00H ; `string'
CONST	ENDS
;	COMDAT ??_C@_0CM@IDCCJAOB@Failed?5to?5save?5dump?5file?5to?5?8?$CFs?8@
CONST	SEGMENT
??_C@_0CM@IDCCJAOB@Failed?5to?5save?5dump?5file?5to?5?8?$CFs?8@ DB 'Faile'
	DB	'd to save dump file to ''%s'' (error %d)', 00H ; `string'
CONST	ENDS
;	COMDAT ??_C@_0BI@LIBKOBMP@Saved?5dump?5file?5to?5?8?$CFs?8?$AA@
CONST	SEGMENT
??_C@_0BI@LIBKOBMP@Saved?5dump?5file?5to?5?8?$CFs?8?$AA@ DB 'Saved dump f'
	DB	'ile to ''%s''', 00H				; `string'
CONST	ENDS
;	COMDAT ??_C@_05MIDDFADP@logs?1?$AA@
CONST	SEGMENT
??_C@_05MIDDFADP@logs?1?$AA@ DB 'logs/', 00H		; `string'
CONST	ENDS
;	COMDAT ??_C@_05MJENMIDH@?4mdmp?$AA@
CONST	SEGMENT
??_C@_05MJENMIDH@?4mdmp?$AA@ DB '.mdmp', 00H		; `string'
CONST	ENDS
;	COMDAT ??_C@_0BC@MNIKNFKD@MiniDumpWriteDump?$AA@
CONST	SEGMENT
??_C@_0BC@MNIKNFKD@MiniDumpWriteDump?$AA@ DB 'MiniDumpWriteDump', 00H ; `string'
CONST	ENDS
;	COMDAT ??_C@_0DE@HNLBHCBO@?$CB?$CDERROR?3?5dbghelp?4dll?5version?5is?5@
CONST	SEGMENT
??_C@_0DE@HNLBHCBO@?$CB?$CDERROR?3?5dbghelp?4dll?5version?5is?5@ DB '!#ER'
	DB	'ROR: dbghelp.dll version is old for this build.', 00H ; `string'
CONST	ENDS
;	COMDAT ??_C@_0M@IBNEFJCG@DBGHELP?4DLL?$AA@
CONST	SEGMENT
??_C@_0M@IBNEFJCG@DBGHELP?4DLL?$AA@ DB 'DBGHELP.DLL', 00H ; `string'
CONST	ENDS
;	COMDAT ??_C@_0P@NIPFKGHM@xrDebugNew?4cpp?$AA@
CONST	SEGMENT
??_C@_0P@NIPFKGHM@xrDebugNew?4cpp?$AA@ DB 'xrDebugNew.cpp', 00H ; `string'
CONST	ENDS
;	COMDAT ??_C@_0BG@IFJHIFJP@out_of_memory_handler?$AA@
CONST	SEGMENT
??_C@_0BG@IFJHIFJP@out_of_memory_handler?$AA@ DB 'out_of_memory_handler', 00H ; `string'
CONST	ENDS
;	COMDAT ??_C@_0CE@EPEEKFLF@Out?5of?5memory?4?5Memory?5request?3?5?$CF@
CONST	SEGMENT
??_C@_0CE@EPEEKFLF@Out?5of?5memory?4?5Memory?5request?3?5?$CF@ DB 'Out of'
	DB	' memory. Memory request: %d K', 00H		; `string'
CONST	ENDS
;	COMDAT ??_C@_0CO@IEOAMGIK@?$CK?5?$FLx?9ray?$FN?3?5economy?3?5strings?$FL?$CFd?5K@
CONST	SEGMENT
??_C@_0CO@IEOAMGIK@?$CK?5?$FLx?9ray?$FN?3?5economy?3?5strings?$FL?$CFd?5K@ DB '*'
	DB	' [x-ray]: economy: strings[%d K], smem[%d K]', 00H ; `string'
CONST	ENDS
;	COMDAT ??_C@_0CO@JONIMMBM@?$CK?5?$FLx?9ray?$FN?3?5crt?5heap?$FL?$CFd?5K?$FN?0?5proce@
CONST	SEGMENT
??_C@_0CO@JONIMMBM@?$CK?5?$FLx?9ray?$FN?3?5crt?5heap?$FL?$CFd?5K?$FN?0?5proce@ DB '*'
	DB	' [x-ray]: crt heap[%d K], process heap[%d K]', 00H ; `string'
CONST	ENDS
;	COMDAT ??_C@_0CM@LPDFONIG@?$CBVERIFY_FAILED?3?5?$CFs?$FL?$CFd?$FN?5?$HL?$CFs?$HN?5?5?$CFs?5@
CONST	SEGMENT
??_C@_0CM@LPDFONIG@?$CBVERIFY_FAILED?3?5?$CFs?$FL?$CFd?$FN?5?$HL?$CFs?$HN?5?5?$CFs?5@ DB '!'
	DB	'VERIFY_FAILED: %s[%d] {%s}  %s %s %s %s %s', 00H ; `string'
CONST	ENDS
;	COMDAT ??_C@_0CJ@KGGNIJJB@?$CBVERIFY_FAILED?3?5?$CFs?$FL?$CFd?$FN?5?$HL?$CFs?$HN?5?5?$CFs?5@
CONST	SEGMENT
??_C@_0CJ@KGGNIJJB@?$CBVERIFY_FAILED?3?5?$CFs?$FL?$CFd?$FN?5?$HL?$CFs?$HN?5?5?$CFs?5@ DB '!'
	DB	'VERIFY_FAILED: %s[%d] {%s}  %s %s %s %s', 00H ; `string'
CONST	ENDS
;	COMDAT ??_C@_0CG@BKODDBLF@?$CBVERIFY_FAILED?3?5?$CFs?$FL?$CFd?$FN?5?$HL?$CFs?$HN?5?5?$CFs?5@
CONST	SEGMENT
??_C@_0CG@BKODDBLF@?$CBVERIFY_FAILED?3?5?$CFs?$FL?$CFd?$FN?5?$HL?$CFs?$HN?5?5?$CFs?5@ DB '!'
	DB	'VERIFY_FAILED: %s[%d] {%s}  %s %s %s', 00H	; `string'
CONST	ENDS
;	COMDAT ??_C@_0CD@CDOELBKC@?$CBVERIFY_FAILED?3?5?$CFs?$FL?$CFd?$FN?5?$HL?$CFs?$HN?5?5?$CFs?5@
CONST	SEGMENT
??_C@_0CD@CDOELBKC@?$CBVERIFY_FAILED?3?5?$CFs?$FL?$CFd?$FN?5?$HL?$CFs?$HN?5?5?$CFs?5@ DB '!'
	DB	'VERIFY_FAILED: %s[%d] {%s}  %s %s', 00H	; `string'
CONST	ENDS
;	COMDAT ??_C@_0CA@GIMGAEOF@?$CBVERIFY_FAILED?3?5?$CFs?$FL?$CFd?$FN?5?$HL?$CFs?$HN?5?5?$CFs?$AA@
CONST	SEGMENT
??_C@_0CA@GIMGAEOF@?$CBVERIFY_FAILED?3?5?$CFs?$FL?$CFd?$FN?5?$HL?$CFs?$HN?5?5?$CFs?$AA@ DB '!'
	DB	'VERIFY_FAILED: %s[%d] {%s}  %s', 00H	; `string'
CONST	ENDS
;	COMDAT ??_C@_0M@GKMDFHNF@fatal?5error?$AA@
CONST	SEGMENT
??_C@_0M@GKMDFHNF@fatal?5error?$AA@ DB 'fatal error', 00H ; `string'
CONST	ENDS
;	COMDAT ??_C@_0BA@GDNONNGA@?$DMno?5expression?$DO?$AA@
CONST	SEGMENT
??_C@_0BA@GDNONNGA@?$DMno?5expression?$DO?$AA@ DB '<no expression>', 00H ; `string'
CONST	ENDS
;	COMDAT ??_C@_0BB@DBHFCHNO@assertion?5failed?$AA@
CONST	SEGMENT
??_C@_0BB@DBHFCHNO@assertion?5failed?$AA@ DB 'assertion failed', 00H ; `string'
CONST	ENDS
;	COMDAT ??_C@_0BB@LFOOJIBK@?T?$OA?r?$OA?k?$PM?m?$OA?$PP?5?N?x?h?a?j?$OA?$AA@
CONST	SEGMENT
??_C@_0BB@LFOOJIBK@?T?$OA?r?$OA?k?$PM?m?$OA?$PP?5?N?x?h?a?j?$OA?$AA@ DB 0d4H
	DB	0e0H, 0f2H, 0e0H, 0ebH, 0fcH, 0edH, 0e0H, 0ffH, ' ', 0ceH, 0f8H
	DB	0e8H, 0e1H, 0eaH, 0e0H, 00H			; `string'
CONST	ENDS
;	COMDAT ??_C@_0FG@CBCJHJDL@?M?$OA?f?l?h?r?e?5?$CC?O?p?n?d?n?k?f?h?r?$PM?$CC?5?d?k?$PP?5?d?$OA?k?$PM?m?e?i@
CONST	SEGMENT
??_C@_0FG@CBCJHJDL@?M?$OA?f?l?h?r?e?5?$CC?O?p?n?d?n?k?f?h?r?$PM?$CC?5?d?k?$PP?5?d?$OA?k?$PM?m?e?i@ DB 0cdH
	DB	0e0H, 0e6H, 0ecH, 0e8H, 0f2H, 0e5H, ' "', 0cfH, 0f0H, 0eeH, 0e4H
	DB	0eeH, 0ebH, 0e6H, 0e8H, 0f2H, 0fcH, '" ', 0e4H, 0ebH, 0ffH, ' '
	DB	0e4H, 0e0H, 0ebH, 0fcH, 0edH, 0e5H, 0e9H, 0f8H, 0e5H, 0e3H, 0eeH
	DB	' ', 0e2H, 0fbH, 0efH, 0eeH, 0ebH, 0edH, 0e5H, 0edH, 0e8H, 0ffH
	DB	' ', 0e8H, 0dH, 0aH, ' ', 0e8H, 0e3H, 0edH, 0eeH, 0f0H, 0e8H, 0f0H
	DB	0eeH, 0e2H, 0e0H, 0edH, 0e8H, 0ffH, ' ', 0efH, 0eeH, 0f5H, 0eeH
	DB	0e6H, 0e8H, 0f5H, ' ', 0eeH, 0f8H, 0e8H, 0e1H, 0eeH, 0eaH, ' %'
	DB	's%s', 00H					; `string'
CONST	ENDS
;	COMDAT ??_C@_0DB@GHHJAOIC@?M?$OA?f?l?h?r?e?5?$CC?O?n?b?r?n?p?h?r?$PM?$CC?5?d?k?$PP?5?d?$OA?k?$PM?m?e?i?x@
CONST	SEGMENT
??_C@_0DB@GHHJAOIC@?M?$OA?f?l?h?r?e?5?$CC?O?n?b?r?n?p?h?r?$PM?$CC?5?d?k?$PP?5?d?$OA?k?$PM?m?e?i?x@ DB 0cdH
	DB	0e0H, 0e6H, 0ecH, 0e8H, 0f2H, 0e5H, ' "', 0cfH, 0eeH, 0e2H, 0f2H
	DB	0eeH, 0f0H, 0e8H, 0f2H, 0fcH, '" ', 0e4H, 0ebH, 0ffH, ' ', 0e4H
	DB	0e0H, 0ebH, 0fcH, 0edH, 0e5H, 0e9H, 0f8H, 0e5H, 0e3H, 0eeH, ' '
	DB	0e2H, 0fbH, 0efH, 0eeH, 0ebH, 0edH, 0e5H, 0edH, 0e8H, 0ffH, '%'
	DB	's', 00H					; `string'
CONST	ENDS
;	COMDAT ??_C@_0CP@NCFNAJGJ@?$CFs?M?$OA?f?l?h?r?e?5?$CC?N?r?l?e?m?$OA?$CC?5?d?k?$PP?5?o?p?e?p?$PL?b?$OA?m?h@
CONST	SEGMENT
??_C@_0CP@NCFNAJGJ@?$CFs?M?$OA?f?l?h?r?e?5?$CC?N?r?l?e?m?$OA?$CC?5?d?k?$PP?5?o?p?e?p?$PL?b?$OA?m?h@ DB '%'
	DB	's', 0cdH, 0e0H, 0e6H, 0ecH, 0e8H, 0f2H, 0e5H, ' "', 0ceH, 0f2H
	DB	0ecH, 0e5H, 0edH, 0e0H, '" ', 0e4H, 0ebH, 0ffH, ' ', 0efH, 0f0H
	DB	0e5H, 0f0H, 0fbH, 0e2H, 0e0H, 0edH, 0e8H, 0ffH, ' ', 0e2H, 0fbH
	DB	0efH, 0eeH, 0ebH, 0edH, 0e5H, 0edH, 0e8H, 0ffH, '%s', 00H ; `string'
CONST	ENDS
;	COMDAT ??_C@_05BFHLOLLO@?$CB?7?5?$CFs?$AA@
CONST	SEGMENT
??_C@_05BFHLOLLO@?$CB?7?5?$CFs?$AA@ DB '!', 09H, ' %s', 00H ; `string'
CONST	ENDS
;	COMDAT ??_C@_0P@LFFKDEGP@?$CBstack?5trace?3?6?$AA@
CONST	SEGMENT
??_C@_0P@LFFKDEGP@?$CBstack?5trace?3?6?$AA@ DB '!stack trace:', 0aH, 00H ; `string'
CONST	ENDS
;	COMDAT ??_C@_0DH@FBGGHGDD@?Q?l?n?r?p?h?r?e?5?k?n?c?5?t?$OA?i?k?5?h?5?l?h?m?h?d?$OA?l?o?5?q?5?o@
CONST	SEGMENT
??_C@_0DH@FBGGHGDD@?Q?l?n?r?p?h?r?e?5?k?n?c?5?t?$OA?i?k?5?h?5?l?h?m?h?d?$OA?l?o?5?q?5?o@ DB 0d1H
	DB	0ecH, 0eeH, 0f2H, 0f0H, 0e8H, 0f2H, 0e5H, ' ', 0ebH, 0eeH, 0e3H
	DB	' ', 0f4H, 0e0H, 0e9H, 0ebH, ' ', 0e8H, ' ', 0ecH, 0e8H, 0edH, 0e8H
	DB	0e4H, 0e0H, 0ecH, 0efH, ' ', 0f1H, ' ', 0efH, 0eeH, 0e4H, 0f0H
	DB	0eeH, 0e1H, 0edH, 0eeH, 0e9H, ' ', 0e8H, 0edH, 0f4H, 0eeH, 0f0H
	DB	0ecH, 0e0H, 0f6H, 0e8H, 0e5H, 0e9H, 0dH, 0aH, 00H ; `string'
CONST	ENDS
;	COMDAT ??_C@_0BG@BFABOLIM@?9no_call_stack_assert?$AA@
CONST	SEGMENT
??_C@_0BG@BFABOLIM@?9no_call_stack_assert?$AA@ DB '-no_call_stack_assert', 00H ; `string'
CONST	ENDS
;	COMDAT ??_C@_0P@LGHNPNBO@$?$CDDUMP_CONTEXT?$AA@
CONST	SEGMENT
??_C@_0P@LGHNPNBO@$?$CDDUMP_CONTEXT?$AA@ DB '$#DUMP_CONTEXT', 00H ; `string'
CONST	ENDS
;	COMDAT ??_C@_02PCIJFNDE@?$AN?6?$AA@
CONST	SEGMENT
??_C@_02PCIJFNDE@?$AN?6?$AA@ DB 0dH, 0aH, 00H		; `string'
CONST	ENDS
;	COMDAT ??_C@_0BH@DGNIFBHF@?$CFsArguments?5?5?5?5?5?3?5?$CFs?$CFs?$AA@
CONST	SEGMENT
??_C@_0BH@DGNIFBHF@?$CFsArguments?5?5?5?5?5?3?5?$CFs?$CFs?$AA@ DB '%sArgu'
	DB	'ments     : %s%s', 00H			; `string'
CONST	ENDS
;	COMDAT ??_C@_0BH@BFCFKLFJ@?$CFsArgument?51?5?5?5?5?3?5?$CFs?$CFs?$AA@
CONST	SEGMENT
??_C@_0BH@BFCFKLFJ@?$CFsArgument?51?5?5?5?5?3?5?$CFs?$CFs?$AA@ DB '%sArgu'
	DB	'ment 1    : %s%s', 00H			; `string'
CONST	ENDS
;	COMDAT ??_C@_0BH@IOIAOHDG@?$CFsArgument?50?5?5?5?5?3?5?$CFs?$CFs?$AA@
CONST	SEGMENT
??_C@_0BH@IOIAOHDG@?$CFsArgument?50?5?5?5?5?3?5?$CFs?$CFs?$AA@ DB '%sArgu'
	DB	'ment 0    : %s%s', 00H			; `string'
CONST	ENDS
;	COMDAT ??_C@_0BH@PHPNCJFN@?$CFsDescription?5?5?5?3?5?$CFs?$CFs?$AA@
CONST	SEGMENT
??_C@_0BH@PHPNCJFN@?$CFsDescription?5?5?5?3?5?$CFs?$CFs?$AA@ DB '%sDescri'
	DB	'ption   : %s%s', 00H			; `string'
CONST	ENDS
;	COMDAT ??_C@_04HDOCAJNK@?$CFs?$CFs?$AA@
CONST	SEGMENT
??_C@_04HDOCAJNK@?$CFs?$CFs?$AA@ DB '%s%s', 00H		; `string'
CONST	ENDS
;	COMDAT ??_C@_06DIJPEION@?$CFs?$CFs?$CFs?$AA@
CONST	SEGMENT
??_C@_06DIJPEION@?$CFs?$CFs?$CFs?$AA@ DB '%s%s%s', 00H	; `string'
CONST	ENDS
;	COMDAT ??_C@_0BH@MHCDNAKD@?$CFsLine?5?5?5?5?5?5?5?5?5?5?3?5?$CFd?$CFs?$AA@
CONST	SEGMENT
??_C@_0BH@MHCDNAKD@?$CFsLine?5?5?5?5?5?5?5?5?5?5?3?5?$CFd?$CFs?$AA@ DB '%'
	DB	'sLine          : %d%s', 00H			; `string'
CONST	ENDS
;	COMDAT ??_C@_0BH@LPGPLBHP@?$CFsFile?5?5?5?5?5?5?5?5?5?5?3?5?$CFs?$CFs?$AA@
CONST	SEGMENT
??_C@_0BH@LPGPLBHP@?$CFsFile?5?5?5?5?5?5?5?5?5?5?3?5?$CFs?$CFs?$AA@ DB '%'
	DB	'sFile          : %s%s', 00H			; `string'
CONST	ENDS
;	COMDAT ??_C@_0BH@CIBMKEDG@?$CFsFunction?5?5?5?5?5?5?3?5?$CFs?$CFs?$AA@
CONST	SEGMENT
??_C@_0BH@CIBMKEDG@?$CFsFunction?5?5?5?5?5?5?3?5?$CFs?$CFs?$AA@ DB '%sFun'
	DB	'ction      : %s%s', 00H			; `string'
CONST	ENDS
;	COMDAT ??_C@_0BH@GALINIK@?$CFsExpression?5?5?5?5?3?5?$CFs?$CFs?$AA@
CONST	SEGMENT
??_C@_0BH@GALINIK@?$CFsExpression?5?5?5?5?3?5?$CFs?$CFs?$AA@ DB '%sExpres'
	DB	'sion    : %s%s', 00H			; `string'
CONST	ENDS
;	COMDAT ??_C@_0BC@HPNOMGOM@?$CFsFATAL?5ERROR?$CFs?$CFs?$AA@
CONST	SEGMENT
??_C@_0BC@HPNOMGOM@?$CFsFATAL?5ERROR?$CFs?$CFs?$AA@ DB '%sFATAL ERROR%s%s'
	DB	00H						; `string'
CONST	ENDS
;	COMDAT ??_C@_07LFMCMLFD@?$FLerror?$FN?$AA@
CONST	SEGMENT
??_C@_07LFMCMLFD@?$FLerror?$FN?$AA@ DB '[error]', 00H	; `string'
CONST	ENDS
;	COMDAT ??_C@_01EEMJAFIK@?6?$AA@
CONST	SEGMENT
??_C@_01EEMJAFIK@?6?$AA@ DB 0aH, 00H			; `string'
CONST	ENDS
;	COMDAT ??_C@_07IDOMDILH@?$CD?5?$CFd?5?$CFs?$AA@
CONST	SEGMENT
??_C@_07IDOMDILH@?$CD?5?$CFd?5?$CFs?$AA@ DB '# %d %s', 00H ; `string'
CONST	ENDS
;	COMDAT ??_C@_0EP@DPEOBJ@?$CBBuildStackTrace?5produced?5?$CFd?5lin@
CONST	SEGMENT
??_C@_0EP@DPEOBJ@?$CBBuildStackTrace?5produced?5?$CFd?5lin@ DB '!BuildSta'
	DB	'ckTrace produced %d lines. Exception EIP = 0x%08x, ESP = 0x%0'
	DB	'8x:', 0aH, '* %s', 00H			; `string'
CONST	ENDS
;	COMDAT ??_C@_0EF@FFGHPKJO@?$CBException?5stack?5trace?5?$CFd?5lines?0@
CONST	SEGMENT
??_C@_0EF@FFGHPKJO@?$CBException?5stack?5trace?5?$CFd?5lines?0@ DB '!Exce'
	DB	'ption stack trace %d lines, EIP = 0x%08x, ESP = 0x%08x: ', 0aH
	DB	'* 0 %s', 00H				; `string'
CONST	ENDS
;	COMDAT ??_C@_03EEBNCBOD@?5?$CFs?$AA@
CONST	SEGMENT
??_C@_03EEBNCBOD@?5?$CFs?$AA@ DB ' %s', 00H		; `string'
PUBLIC	?c_str@?$basic_string@DU?$char_traits@D@std@@V?$allocator@D@2@@std@@QEBAPEBDXZ ; std::basic_string<char,std::char_traits<char>,std::allocator<char> >::c_str
PUBLIC	?xr_malloc@@YAPEAX_K@Z				; xr_malloc
PUBLIC	??$strcpy_s@$0BAAA@@@YAHAEAY0BAAA@DPEBD@Z	; strcpy_s<4096>
PUBLIC	?_initialize@xrDebug@@QEAAXAEB_N@Z		; xrDebug::_initialize
PUBLIC	?_terminate@@YAXXZ				; _terminate
PUBLIC	?UnhandledFilter@@YAJPEAU_EXCEPTION_POINTERS@@@Z ; UnhandledFilter
PUBLIC	?format_message@@YAXPEADAEBI@Z			; format_message
PUBLIC	?save_mini_dump@@YAXPEAU_EXCEPTION_POINTERS@@@Z	; save_mini_dump
PUBLIC	?LoadDebugHlp@@YAPEAUHINSTANCE__@@XZ		; LoadDebugHlp
PUBLIC	?out_of_memory_handler@@YAH_K@Z			; out_of_memory_handler
PUBLIC	?verify_error@xrDebug@@QEAAXPEBD00000H0@Z	; xrDebug::verify_error
PUBLIC	?verify_error@xrDebug@@QEAAXPEBD0000H0@Z	; xrDebug::verify_error
PUBLIC	?verify_error@xrDebug@@QEAAXPEBD000H0@Z		; xrDebug::verify_error
PUBLIC	?verify_error@xrDebug@@QEAAXPEBD00H0@Z		; xrDebug::verify_error
PUBLIC	?verify_error@xrDebug@@QEAAXPEBDAEBV?$basic_string@DU?$char_traits@D@std@@V?$allocator@D@2@@std@@0H0@Z ; xrDebug::verify_error
PUBLIC	?verify_error@xrDebug@@QEAAXPEBD0H0@Z		; xrDebug::verify_error
PUBLIC	?fail@xrDebug@@QEAAXPEBD0000H0AEA_N@Z		; xrDebug::fail
PUBLIC	?error@xrDebug@@QEAAXJPEBD00H0AEA_N@Z		; xrDebug::error
PUBLIC	?error@xrDebug@@QEAAXJPEBD0H0AEA_N@Z		; xrDebug::error
PUBLIC	?backend@xrDebug@@QEAAXPEBD0000H0AEA_N@Z	; xrDebug::backend
PUBLIC	?gather_info@@YAXPEBD0000H0PEAD@Z		; gather_info
PUBLIC	?SimpleExceptionFilter@@YAIPEAU_EXCEPTION_POINTERS@@@Z ; SimpleExceptionFilter
PUBLIC	?LogStackTraceEx@@YAXPEAU_EXCEPTION_POINTERS@@@Z ; LogStackTraceEx
PUBLIC	?LogStackTrace@@YAXPEBD@Z			; LogStackTrace
PUBLIC	?update_clipboard@@YAXPEBD@Z			; update_clipboard
PUBLIC	?copy_to_clipboard@@YAXPEBD@Z			; copy_to_clipboard
PUBLIC	?fatal@xrDebug@@QEAAXPEBDH00ZZ			; xrDebug::fatal
PUBLIC	?do_exit@xrDebug@@QEAAXAEBV?$basic_string@DU?$char_traits@D@std@@V?$allocator@D@2@@std@@@Z ; xrDebug::do_exit
PUBLIC	?fail@xrDebug@@QEAAXPEBDAEBV?$basic_string@DU?$char_traits@D@std@@V?$allocator@D@2@@std@@0H0AEA_N@Z ; xrDebug::fail
PUBLIC	?fail@xrDebug@@QEAAXPEBD00H0AEA_N@Z		; xrDebug::fail
PUBLIC	?error2string@xrDebug@@QEAAPEBDJ@Z		; xrDebug::error2string
PUBLIC	?debug_on_thread_spawn@@YAXXZ			; debug_on_thread_spawn
PUBLIC	?fail@xrDebug@@QEAAXPEBD0H0AEA_N@Z		; xrDebug::fail
PUBLIC	?fail@xrDebug@@QEAAXPEBD000H0AEA_N@Z		; xrDebug::fail
;	COMDAT ?$S1@?1??backend@xrDebug@@QEAAXPEBD0000H0AEA_N@Z@4IA
_BSS	SEGMENT
?$S1@?1??backend@xrDebug@@QEAAXPEBD0000H0AEA_N@Z@4IA DD 01H DUP (?) ; S1<`template-parameter-2',xrDebug::ackend, ?? :: ?? ::IA::Z::Z::XPEBD0000H0AEA_N * __ptr64 const>
_BSS	ENDS
;	COMDAT ?CS@?1??backend@xrDebug@@QEAAXPEBD0000H0AEA_N@Z@4VxrCriticalSection@@A
_BSS	SEGMENT
?CS@?1??backend@xrDebug@@QEAAXPEBD0000H0AEA_N@Z@4VxrCriticalSection@@A DQ 01H DUP (?) ; `xrDebug::backend'::`2'::CS
_BSS	ENDS
;	COMDAT ?desc_storage@?1??error2string@xrDebug@@QEAAPEBDJ@Z@4PADA
_BSS	SEGMENT
?desc_storage@?1??error2string@xrDebug@@QEAAPEBDJ@Z@4PADA DB 0400H DUP (?) ; `xrDebug::error2string'::`2'::desc_storage
_BSS	ENDS
pdata	SEGMENT
$pdata$?_initialize@xrDebug@@QEAAXAEB_N@Z DD imagerel $LN6
	DD	imagerel $LN6+219
	DD	imagerel $unwind$?_initialize@xrDebug@@QEAAXAEB_N@Z
$pdata$?termination_handler@@YAXH@Z DD imagerel ?termination_handler@@YAXH@Z
	DD	imagerel ?termination_handler@@YAXH@Z+89
	DD	imagerel $unwind$?termination_handler@@YAXH@Z
$pdata$?illegal_instruction_handler@@YAXH@Z DD imagerel ?illegal_instruction_handler@@YAXH@Z
	DD	imagerel ?illegal_instruction_handler@@YAXH@Z+89
	DD	imagerel $unwind$?illegal_instruction_handler@@YAXH@Z
$pdata$?floating_point_handler@@YAXH@Z DD imagerel ?floating_point_handler@@YAXH@Z
	DD	imagerel ?floating_point_handler@@YAXH@Z+89
	DD	imagerel $unwind$?floating_point_handler@@YAXH@Z
$pdata$?abort_handler@@YAXH@Z DD imagerel ?abort_handler@@YAXH@Z
	DD	imagerel ?abort_handler@@YAXH@Z+89
	DD	imagerel $unwind$?abort_handler@@YAXH@Z
$pdata$?pure_call_handler@@YAXXZ DD imagerel ?pure_call_handler@@YAXXZ
	DD	imagerel ?pure_call_handler@@YAXXZ+89
	DD	imagerel $unwind$?pure_call_handler@@YAXXZ
$pdata$?std_out_of_memory_handler@@YAXXZ DD imagerel ?std_out_of_memory_handler@@YAXXZ
	DD	imagerel ?std_out_of_memory_handler@@YAXXZ+89
	DD	imagerel $unwind$?std_out_of_memory_handler@@YAXXZ
$pdata$?invalid_parameter_handler@@YAXPEB_W00I_K@Z DD imagerel ?invalid_parameter_handler@@YAXPEB_W00I_K@Z
	DD	imagerel ?invalid_parameter_handler@@YAXPEB_W00I_K@Z+437
	DD	imagerel $unwind$?invalid_parameter_handler@@YAXPEB_W00I_K@Z
$pdata$?handler_base@@YAXPEBD@Z DD imagerel ?handler_base@@YAXPEBD@Z
	DD	imagerel ?handler_base@@YAXPEBD@Z+85
	DD	imagerel $unwind$?handler_base@@YAXPEBD@Z
$pdata$?_terminate@@YAXXZ DD imagerel $LN10
	DD	imagerel $LN10+205
	DD	imagerel $unwind$?_terminate@@YAXXZ
$pdata$?UnhandledFilter@@YAJPEAU_EXCEPTION_POINTERS@@@Z DD imagerel $LN55
	DD	imagerel $LN55+807
	DD	imagerel $unwind$?UnhandledFilter@@YAJPEAU_EXCEPTION_POINTERS@@@Z
pdata	ENDS
pdata	SEGMENT
$pdata$?fin$0@?0??UnhandledFilter@@YAJPEAU_EXCEPTION_POINTERS@@@Z@4HA DD imagerel ?fin$0@?0??UnhandledFilter@@YAJPEAU_EXCEPTION_POINTERS@@@Z@4HA
	DD	imagerel ?fin$0@?0??UnhandledFilter@@YAJPEAU_EXCEPTION_POINTERS@@@Z@4HA+22
	DD	imagerel $unwind$?fin$0@?0??UnhandledFilter@@YAJPEAU_EXCEPTION_POINTERS@@@Z@4HA
pdata	ENDS
pdata	SEGMENT
$pdata$?format_message@@YAXPEADAEBI@Z DD imagerel $LN9
	DD	imagerel $LN9+104
	DD	imagerel $unwind$?format_message@@YAXPEADAEBI@Z
$pdata$?save_mini_dump@@YAXPEAU_EXCEPTION_POINTERS@@@Z DD imagerel $LN45
	DD	imagerel $LN45+981
	DD	imagerel $unwind$?save_mini_dump@@YAXPEAU_EXCEPTION_POINTERS@@@Z
$pdata$?LoadDebugHlp@@YAPEAUHINSTANCE__@@XZ DD imagerel $LN17
	DD	imagerel $LN17+47
	DD	imagerel $unwind$?LoadDebugHlp@@YAPEAUHINSTANCE__@@XZ
$pdata$0$?LoadDebugHlp@@YAPEAUHINSTANCE__@@XZ DD imagerel $LN17+47
	DD	imagerel $LN17+152
	DD	imagerel $chain$0$?LoadDebugHlp@@YAPEAUHINSTANCE__@@XZ
$pdata$1$?LoadDebugHlp@@YAPEAUHINSTANCE__@@XZ DD imagerel $LN17+152
	DD	imagerel $LN17+312
	DD	imagerel $chain$1$?LoadDebugHlp@@YAPEAUHINSTANCE__@@XZ
$pdata$2$?LoadDebugHlp@@YAPEAUHINSTANCE__@@XZ DD imagerel $LN17+312
	DD	imagerel $LN17+339
	DD	imagerel $chain$2$?LoadDebugHlp@@YAPEAUHINSTANCE__@@XZ
$pdata$3$?LoadDebugHlp@@YAPEAUHINSTANCE__@@XZ DD imagerel $LN17+339
	DD	imagerel $LN17+348
	DD	imagerel $chain$3$?LoadDebugHlp@@YAPEAUHINSTANCE__@@XZ
$pdata$?out_of_memory_handler@@YAH_K@Z DD imagerel $LN42
	DD	imagerel $LN42+519
	DD	imagerel $unwind$?out_of_memory_handler@@YAH_K@Z
$pdata$?verify_error@xrDebug@@QEAAXPEBD00000H0@Z DD imagerel $LN4
	DD	imagerel $LN4+86
	DD	imagerel $unwind$?verify_error@xrDebug@@QEAAXPEBD00000H0@Z
$pdata$?verify_error@xrDebug@@QEAAXPEBD0000H0@Z DD imagerel $LN4
	DD	imagerel $LN4+67
	DD	imagerel $unwind$?verify_error@xrDebug@@QEAAXPEBD0000H0@Z
$pdata$?verify_error@xrDebug@@QEAAXPEBD000H0@Z DD imagerel $LN4
	DD	imagerel $LN4+54
	DD	imagerel $unwind$?verify_error@xrDebug@@QEAAXPEBD000H0@Z
$pdata$?error@xrDebug@@QEAAXJPEBD00H0AEA_N@Z DD imagerel $LN7
	DD	imagerel $LN7+176
	DD	imagerel $unwind$?error@xrDebug@@QEAAXJPEBD00H0AEA_N@Z
$pdata$?error@xrDebug@@QEAAXJPEBD0H0AEA_N@Z DD imagerel $LN7
	DD	imagerel $LN7+168
	DD	imagerel $unwind$?error@xrDebug@@QEAAXJPEBD0H0AEA_N@Z
pdata	ENDS
;	COMDAT pdata
pdata	SEGMENT
$pdata$??__FCS@?1??backend@xrDebug@@QEAAXPEBD0000H0AEA_N@Z@YAXXZ DD imagerel ??__FCS@?1??backend@xrDebug@@QEAAXPEBD0000H0AEA_N@Z@YAXXZ
	DD	imagerel ??__FCS@?1??backend@xrDebug@@QEAAXPEBD0000H0AEA_N@Z@YAXXZ+33
	DD	imagerel $unwind$??__FCS@?1??backend@xrDebug@@QEAAXPEBD0000H0AEA_N@Z@YAXXZ
pdata	ENDS
pdata	SEGMENT
$pdata$?backend@xrDebug@@QEAAXPEBD0000H0AEA_N@Z DD imagerel $LN33
	DD	imagerel $LN33+499
	DD	imagerel $unwind$?backend@xrDebug@@QEAAXPEBD0000H0AEA_N@Z
$pdata$?gather_info@@YAXPEBD0000H0PEAD@Z DD imagerel $LN47
	DD	imagerel $LN47+842
	DD	imagerel $unwind$?gather_info@@YAXPEBD0000H0PEAD@Z
pdata	ENDS
pdata	SEGMENT
$pdata$?fin$0@?0??gather_info@@YAXPEBD0000H0PEAD@Z@4HA DD imagerel ?fin$0@?0??gather_info@@YAXPEBD0000H0PEAD@Z@4HA
	DD	imagerel ?fin$0@?0??gather_info@@YAXPEBD0000H0PEAD@Z@4HA+26
	DD	imagerel $unwind$?fin$0@?0??gather_info@@YAXPEBD0000H0PEAD@Z@4HA
pdata	ENDS
pdata	SEGMENT
$pdata$?SimpleExceptionFilter@@YAIPEAU_EXCEPTION_POINTERS@@@Z DD imagerel $LN4
	DD	imagerel $LN4+19
	DD	imagerel $unwind$?SimpleExceptionFilter@@YAIPEAU_EXCEPTION_POINTERS@@@Z
$pdata$?LogStackTraceEx@@YAXPEAU_EXCEPTION_POINTERS@@@Z DD imagerel $LN21
	DD	imagerel $LN21+349
	DD	imagerel $unwind$?LogStackTraceEx@@YAXPEAU_EXCEPTION_POINTERS@@@Z
pdata	ENDS
pdata	SEGMENT
$pdata$?fin$0@?0??LogStackTraceEx@@YAXPEAU_EXCEPTION_POINTERS@@@Z@4HA DD imagerel ?fin$0@?0??LogStackTraceEx@@YAXPEAU_EXCEPTION_POINTERS@@@Z@4HA
	DD	imagerel ?fin$0@?0??LogStackTraceEx@@YAXPEAU_EXCEPTION_POINTERS@@@Z@4HA+29
	DD	imagerel $unwind$?fin$0@?0??LogStackTraceEx@@YAXPEAU_EXCEPTION_POINTERS@@@Z@4HA
pdata	ENDS
pdata	SEGMENT
$pdata$?LogStackTrace@@YAXPEBD@Z DD imagerel $LN16
	DD	imagerel $LN16+133
	DD	imagerel $unwind$?LogStackTrace@@YAXPEBD@Z
pdata	ENDS
pdata	SEGMENT
$pdata$?fin$0@?0??LogStackTrace@@YAXPEBD@Z@4HA DD imagerel ?fin$0@?0??LogStackTrace@@YAXPEBD@Z@4HA
	DD	imagerel ?fin$0@?0??LogStackTrace@@YAXPEBD@Z@4HA+26
	DD	imagerel $unwind$?fin$0@?0??LogStackTrace@@YAXPEBD@Z@4HA
pdata	ENDS
pdata	SEGMENT
$pdata$?copy_to_clipboard@@YAXPEBD@Z DD imagerel $LN14
	DD	imagerel $LN14+35
	DD	imagerel $unwind$?copy_to_clipboard@@YAXPEBD@Z
$pdata$0$?copy_to_clipboard@@YAXPEBD@Z DD imagerel $LN14+35
	DD	imagerel $LN14+151
	DD	imagerel $chain$0$?copy_to_clipboard@@YAXPEBD@Z
$pdata$1$?copy_to_clipboard@@YAXPEBD@Z DD imagerel $LN14+151
	DD	imagerel $LN14+157
	DD	imagerel $chain$1$?copy_to_clipboard@@YAXPEBD@Z
$pdata$?fatal@xrDebug@@QEAAXPEBDH00ZZ DD imagerel $LN4
	DD	imagerel $LN4+117
	DD	imagerel $unwind$?fatal@xrDebug@@QEAAXPEBDH00ZZ
$pdata$?do_exit@xrDebug@@QEAAXAEBV?$basic_string@DU?$char_traits@D@std@@V?$allocator@D@2@@std@@@Z DD imagerel $LN17
	DD	imagerel $LN17+98
	DD	imagerel $unwind$?do_exit@xrDebug@@QEAAXAEBV?$basic_string@DU?$char_traits@D@std@@V?$allocator@D@2@@std@@@Z
$pdata$?fail@xrDebug@@QEAAXPEBDAEBV?$basic_string@DU?$char_traits@D@std@@V?$allocator@D@2@@std@@0H0AEA_N@Z DD imagerel $LN12
	DD	imagerel $LN12+78
	DD	imagerel $unwind$?fail@xrDebug@@QEAAXPEBDAEBV?$basic_string@DU?$char_traits@D@std@@V?$allocator@D@2@@std@@0H0AEA_N@Z
$pdata$?fail@xrDebug@@QEAAXPEBD00H0AEA_N@Z DD imagerel $LN4
	DD	imagerel $LN4+68
	DD	imagerel $unwind$?fail@xrDebug@@QEAAXPEBD00H0AEA_N@Z
$pdata$?error2string@xrDebug@@QEAAPEBDJ@Z DD imagerel $LN5
	DD	imagerel $LN5+63
	DD	imagerel $unwind$?error2string@xrDebug@@QEAAPEBDJ@Z
$pdata$?fail@xrDebug@@QEAAXPEBD0H0AEA_N@Z DD imagerel $LN4
	DD	imagerel $LN4+72
	DD	imagerel $unwind$?fail@xrDebug@@QEAAXPEBD0H0AEA_N@Z
$pdata$?fail@xrDebug@@QEAAXPEBD000H0AEA_N@Z DD imagerel $LN4
	DD	imagerel $LN4+73
	DD	imagerel $unwind$?fail@xrDebug@@QEAAXPEBD000H0AEA_N@Z
;	COMDAT xdata
xdata	SEGMENT
$unwind$??__FCS@?1??backend@xrDebug@@QEAAXPEBD0000H0AEA_N@Z@YAXXZ DD 010401H
	DD	04204H
xdata	ENDS
xdata	SEGMENT
$unwind$?_initialize@xrDebug@@QEAAXAEB_N@Z DD 010401H
	DD	04204H
$unwind$?termination_handler@@YAXH@Z DD 010401H
	DD	0a204H
$unwind$?illegal_instruction_handler@@YAXH@Z DD 010401H
	DD	0a204H
$unwind$?floating_point_handler@@YAXH@Z DD 010401H
	DD	0a204H
$unwind$?abort_handler@@YAXH@Z DD 010401H
	DD	0a204H
$unwind$?pure_call_handler@@YAXXZ DD 010401H
	DD	0a204H
$unwind$?std_out_of_memory_handler@@YAXXZ DD 010401H
	DD	0a204H
$unwind$?invalid_parameter_handler@@YAXPEB_W00I_K@Z DD 071501H
	DD	06103415H
	DD	060a0115H
	DD	060077008H
	DD	05006H
$unwind$?handler_base@@YAXPEBD@Z DD 010401H
	DD	0a204H
$unwind$?_terminate@@YAXXZ DD 020d01H
	DD	0209010dH
$unwind$?UnhandledFilter@@YAJPEAU_EXCEPTION_POINTERS@@@Z DD 091e11H
	DD	02c9741eH
	DD	02c8641eH
	DD	02c6341eH
	DD	02c4011eH
	DD	0f011H
	DD	imagerel __C_specific_handler
	DD	01H
	DD	imagerel $LN55+197
	DD	imagerel $LN55+656
	DD	imagerel ?fin$0@?0??UnhandledFilter@@YAJPEAU_EXCEPTION_POINTERS@@@Z@4HA
	DD	00H
$unwind$?fin$0@?0??UnhandledFilter@@YAJPEAU_EXCEPTION_POINTERS@@@Z@4HA DD 020601H
	DD	050027206H
$unwind$?format_message@@YAXPEADAEBI@Z DD 040a01H
	DD	0a340aH
	DD	07006720aH
$unwind$?save_mini_dump@@YAXPEAU_EXCEPTION_POINTERS@@@Z DD 091909H
	DD	01223419H
	DD	011a0119H
	DD	0e010f012H
	DD	0700cc00eH
	DD	0600bH
	DD	imagerel __C_specific_handler
	DD	01H
	DD	imagerel $LN45+348
	DD	imagerel $LN45+404
	DD	01H
	DD	imagerel $LN45+404
$unwind$?LoadDebugHlp@@YAPEAUHINSTANCE__@@XZ DD 030901H
	DD	0480109H
	DD	03002H
$chain$0$?LoadDebugHlp@@YAPEAUHINSTANCE__@@XZ DD 020821H
	DD	0467408H
	DD	imagerel $LN17
	DD	imagerel $LN17+47
	DD	imagerel $unwind$?LoadDebugHlp@@YAPEAUHINSTANCE__@@XZ
$chain$1$?LoadDebugHlp@@YAPEAUHINSTANCE__@@XZ DD 020821H
	DD	0476408H
	DD	imagerel $LN17+47
	DD	imagerel $LN17+152
	DD	imagerel $chain$0$?LoadDebugHlp@@YAPEAUHINSTANCE__@@XZ
$chain$2$?LoadDebugHlp@@YAPEAUHINSTANCE__@@XZ DD 021H
	DD	imagerel $LN17+47
	DD	imagerel $LN17+152
	DD	imagerel $chain$0$?LoadDebugHlp@@YAPEAUHINSTANCE__@@XZ
$chain$3$?LoadDebugHlp@@YAPEAUHINSTANCE__@@XZ DD 021H
	DD	imagerel $LN17
	DD	imagerel $LN17+47
	DD	imagerel $unwind$?LoadDebugHlp@@YAPEAUHINSTANCE__@@XZ
$unwind$?out_of_memory_handler@@YAH_K@Z DD 0c1e01H
	DD	011741eH
	DD	010641eH
	DD	0f541eH
	DD	0e341eH
	DD	0f01a921eH
	DD	0c016e018H
$unwind$?verify_error@xrDebug@@QEAAXPEBD00000H0@Z DD 010401H
	DD	0a204H
$unwind$?verify_error@xrDebug@@QEAAXPEBD0000H0@Z DD 010401H
	DD	08204H
$unwind$?verify_error@xrDebug@@QEAAXPEBD000H0@Z DD 010401H
	DD	08204H
$unwind$?error@xrDebug@@QEAAXJPEBD00H0AEA_N@Z DD 081501H
	DD	0e7415H
	DD	0d6415H
	DD	0c3415H
	DD	0e0119215H
$unwind$?error@xrDebug@@QEAAXJPEBD0H0AEA_N@Z DD 081501H
	DD	0e7415H
	DD	0d6415H
	DD	0c3415H
	DD	0e0119215H
$unwind$?backend@xrDebug@@QEAAXPEBD0000H0AEA_N@Z DD 091d01H
	DD	020c641dH
	DD	020b541dH
	DD	020a341dH
	DD	0208011dH
	DD	07010H
$unwind$?gather_info@@YAXPEBD0000H0PEAD@Z DD 0a2111H
	DD	0116421H
	DD	0103421H
	DD	0f01d7221H
	DD	0d019e01bH
	DD	07015c017H
	DD	imagerel __C_specific_handler
	DD	01H
	DD	imagerel $LN47+724
	DD	imagerel $LN47+791
	DD	imagerel ?fin$0@?0??gather_info@@YAXPEBD0000H0PEAD@Z@4HA
	DD	00H
$unwind$?fin$0@?0??gather_info@@YAXPEBD0000H0PEAD@Z@4HA DD 020601H
	DD	050025206H
$unwind$?SimpleExceptionFilter@@YAIPEAU_EXCEPTION_POINTERS@@@Z DD 010401H
	DD	04204H
$unwind$?LogStackTraceEx@@YAXPEAU_EXCEPTION_POINTERS@@@Z DD 071211H
	DD	0a66412H
	DD	0a53412H
	DD	0a20112H
	DD	0700bH
	DD	imagerel __C_specific_handler
	DD	01H
	DD	imagerel $LN21+47
	DD	imagerel $LN21+321
	DD	imagerel ?fin$0@?0??LogStackTraceEx@@YAXPEAU_EXCEPTION_POINTERS@@@Z@4HA
	DD	00H
$unwind$?fin$0@?0??LogStackTraceEx@@YAXPEAU_EXCEPTION_POINTERS@@@Z@4HA DD 020601H
	DD	050025206H
$unwind$?LogStackTrace@@YAXPEBD@Z DD 060f11H
	DD	0a640fH
	DD	08340fH
	DD	0700b520fH
	DD	imagerel __C_specific_handler
	DD	01H
	DD	imagerel $LN16+34
	DD	imagerel $LN16+110
	DD	imagerel ?fin$0@?0??LogStackTrace@@YAXPEBD@Z@4HA
	DD	00H
$unwind$?fin$0@?0??LogStackTrace@@YAXPEBD@Z@4HA DD 020601H
	DD	050023206H
$unwind$?copy_to_clipboard@@YAXPEBD@Z DD 020601H
	DD	030023206H
$chain$0$?copy_to_clipboard@@YAXPEBD@Z DD 020521H
	DD	067405H
	DD	imagerel $LN14
	DD	imagerel $LN14+35
	DD	imagerel $unwind$?copy_to_clipboard@@YAXPEBD@Z
$chain$1$?copy_to_clipboard@@YAXPEBD@Z DD 021H
	DD	imagerel $LN14
	DD	imagerel $LN14+35
	DD	imagerel $unwind$?copy_to_clipboard@@YAXPEBD@Z
$unwind$?fatal@xrDebug@@QEAAXPEBDH00ZZ DD 060e01H
	DD	08d010eH
	DD	060067007H
	DD	030045005H
$unwind$?do_exit@xrDebug@@QEAAXAEBV?$basic_string@DU?$char_traits@D@std@@V?$allocator@D@2@@std@@@Z DD 020601H
	DD	030023206H
$unwind$?fail@xrDebug@@QEAAXPEBDAEBV?$basic_string@DU?$char_traits@D@std@@V?$allocator@D@2@@std@@0H0AEA_N@Z DD 010401H
	DD	0a204H
$unwind$?fail@xrDebug@@QEAAXPEBD00H0AEA_N@Z DD 010401H
	DD	0a204H
$unwind$?error2string@xrDebug@@QEAAPEBDJ@Z DD 020601H
	DD	030027206H
$unwind$?fail@xrDebug@@QEAAXPEBD0H0AEA_N@Z DD 010401H
	DD	0a204H
$unwind$?fail@xrDebug@@QEAAXPEBD000H0AEA_N@Z DD 010401H
	DD	0a204H
; Function compile flags: /Ogtpy
; File c:\users\nummer\documents\github\olr-3.0\src\xray\xrcore\xrdebugnew.cpp
_TEXT	SEGMENT
this$ = 96
e1$ = 104
e2$ = 112
e3$ = 120
file$ = 128
line$ = 136
function$ = 144
ignore_always$ = 152
?fail@xrDebug@@QEAAXPEBD000H0AEA_N@Z PROC		; xrDebug::fail

; 466  : {

$LN4:
	sub	rsp, 88					; 00000058H

; 467  : 	backend		(e1,e2,e3,0,file,line,function,ignore_always);

	mov	rax, QWORD PTR ignore_always$[rsp]
	mov	QWORD PTR [rsp+64], rax
	mov	rax, QWORD PTR function$[rsp]
	mov	QWORD PTR [rsp+56], rax
	mov	eax, DWORD PTR line$[rsp]
	mov	DWORD PTR [rsp+48], eax
	mov	rax, QWORD PTR file$[rsp]
	mov	QWORD PTR [rsp+40], rax
	mov	QWORD PTR [rsp+32], 0
	call	?backend@xrDebug@@QEAAXPEBD0000H0AEA_N@Z ; xrDebug::backend

; 468  : }

	add	rsp, 88					; 00000058H
	ret	0
?fail@xrDebug@@QEAAXPEBD000H0AEA_N@Z ENDP		; xrDebug::fail
_TEXT	ENDS
; Function compile flags: /Ogtpy
; File c:\users\nummer\documents\github\olr-3.0\src\xray\xrcore\xrdebugnew.cpp
_TEXT	SEGMENT
this$ = 96
e1$ = 104
file$ = 112
line$ = 120
function$ = 128
ignore_always$ = 136
?fail@xrDebug@@QEAAXPEBD0H0AEA_N@Z PROC			; xrDebug::fail

; 451  : {

$LN4:
	sub	rsp, 88					; 00000058H

; 452  : 	backend		("assertion failed",e1,0,0,file,line,function,ignore_always);

	mov	rax, QWORD PTR ignore_always$[rsp]
	mov	QWORD PTR [rsp+64], rax
	mov	rax, QWORD PTR function$[rsp]
	mov	QWORD PTR [rsp+56], rax
	mov	DWORD PTR [rsp+48], r9d
	mov	QWORD PTR [rsp+40], r8
	mov	r8, rdx
	lea	rdx, OFFSET FLAT:??_C@_0BB@DBHFCHNO@assertion?5failed?$AA@
	xor	r9d, r9d
	mov	QWORD PTR [rsp+32], 0
	call	?backend@xrDebug@@QEAAXPEBD0000H0AEA_N@Z ; xrDebug::backend

; 453  : }

	add	rsp, 88					; 00000058H
	ret	0
?fail@xrDebug@@QEAAXPEBD0H0AEA_N@Z ENDP			; xrDebug::fail
_TEXT	ENDS
; Function compile flags: /Ogtpy
; File c:\users\nummer\documents\github\olr-3.0\src\xray\xrcore\xrdebugnew.cpp
_TEXT	SEGMENT
?debug_on_thread_spawn@@YAXXZ PROC			; debug_on_thread_spawn

; 921  : #ifdef USE_BUG_TRAP
; 922  : 		BT_SetTerminate					();
; 923  : #else // USE_BUG_TRAP
; 924  : 		std::set_terminate				(_terminate);

	lea	rcx, OFFSET FLAT:?_terminate@@YAXXZ	; _terminate
	rex_jmp	QWORD PTR __imp_?set_terminate@@YAP6AXXZP6AXXZ@Z
?debug_on_thread_spawn@@YAXXZ ENDP			; debug_on_thread_spawn
_TEXT	ENDS
; Function compile flags: /Ogtpy
; File c:\users\nummer\documents\github\olr-3.0\src\xray\xrcore\xrdebugnew.cpp
_TEXT	SEGMENT
this$ = 80
code$ = 88
?error2string@xrDebug@@QEAAPEBDJ@Z PROC			; xrDebug::error2string

; 424  : {

$LN5:
	push	rbx
	sub	rsp, 64					; 00000040H

; 425  : 	LPCSTR				result	= 0;
; 426  : 	static	string1024	desc_storage;
; 427  : 
; 428  : #ifdef _M_AMD64
; 429  : #else
; 430  : 	result				= DXGetErrorDescription	(code);
; 431  : #endif
; 432  : 	if (0==result) 
; 433  : 	{
; 434  : 		FormatMessage	(FORMAT_MESSAGE_FROM_SYSTEM,0,code,0,desc_storage,sizeof(desc_storage)-1,0);

	mov	r8d, edx
	mov	QWORD PTR [rsp+48], 0
	lea	rbx, OFFSET FLAT:?desc_storage@?1??error2string@xrDebug@@QEAAPEBDJ@Z@4PADA
	xor	r9d, r9d
	xor	edx, edx
	mov	ecx, 4096				; 00001000H
	mov	DWORD PTR [rsp+40], 1023		; 000003ffH
	mov	QWORD PTR [rsp+32], rbx
	call	QWORD PTR __imp_FormatMessageA

; 435  : 		result			= desc_storage;
; 436  : 	}
; 437  : 	return		result	;

	mov	rax, rbx

; 438  : }

	add	rsp, 64					; 00000040H
	pop	rbx
	ret	0
?error2string@xrDebug@@QEAAPEBDJ@Z ENDP			; xrDebug::error2string
_TEXT	ENDS
; Function compile flags: /Ogtpy
; File c:\users\nummer\documents\github\olr-3.0\src\xray\xrcore\xrdebugnew.cpp
_TEXT	SEGMENT
this$ = 96
e1$ = 104
e2$ = 112
file$ = 120
line$ = 128
function$ = 136
ignore_always$ = 144
?fail@xrDebug@@QEAAXPEBD00H0AEA_N@Z PROC		; xrDebug::fail

; 461  : {

$LN4:
	sub	rsp, 88					; 00000058H

; 462  : 	backend		(e1,e2,0,0,file,line,function,ignore_always);

	mov	rax, QWORD PTR ignore_always$[rsp]
	mov	QWORD PTR [rsp+64], rax
	mov	rax, QWORD PTR function$[rsp]
	mov	QWORD PTR [rsp+56], rax
	mov	eax, DWORD PTR line$[rsp]
	mov	DWORD PTR [rsp+48], eax
	mov	QWORD PTR [rsp+40], r9
	xor	r9d, r9d
	mov	QWORD PTR [rsp+32], 0
	call	?backend@xrDebug@@QEAAXPEBD0000H0AEA_N@Z ; xrDebug::backend

; 463  : }

	add	rsp, 88					; 00000058H
	ret	0
?fail@xrDebug@@QEAAXPEBD00H0AEA_N@Z ENDP		; xrDebug::fail
_TEXT	ENDS
; Function compile flags: /Ogtpy
; File c:\users\nummer\documents\github\olr-3.0\src\xray\xrcore\xrdebugnew.cpp
; File c:\program files (x86)\microsoft visual studio 12.0\vc\include\xstring
; File c:\program files (x86)\microsoft visual studio 12.0\vc\include\xstddef
; File c:\users\nummer\documents\github\olr-3.0\src\xray\xrcore\xrdebugnew.cpp
_TEXT	SEGMENT
this$ = 96
e1$ = 104
e2$ = 112
file$ = 120
line$ = 128
function$ = 136
ignore_always$ = 144
?fail@xrDebug@@QEAAXPEBDAEBV?$basic_string@DU?$char_traits@D@std@@V?$allocator@D@2@@std@@0H0AEA_N@Z PROC ; xrDebug::fail

; 456  : {

$LN12:
	sub	rsp, 88					; 00000058H
; File c:\program files (x86)\microsoft visual studio 12.0\vc\include\xstring

; 520  : 			: this->_Bx._Buf);

	cmp	QWORD PTR [r8+24], 16
	jb	SHORT $LN8@fail
; File c:\program files (x86)\microsoft visual studio 12.0\vc\include\xstddef

; 95   : 		reinterpret_cast<const volatile char&>(_Val)))));

	mov	r8, QWORD PTR [r8]
$LN8@fail:
; File c:\users\nummer\documents\github\olr-3.0\src\xray\xrcore\xrdebugnew.cpp

; 457  : 	backend		(e1,e2.c_str(),0,0,file,line,function,ignore_always);

	mov	rax, QWORD PTR ignore_always$[rsp]
	mov	QWORD PTR [rsp+64], rax
	mov	rax, QWORD PTR function$[rsp]
	mov	QWORD PTR [rsp+56], rax
	mov	eax, DWORD PTR line$[rsp]
	mov	DWORD PTR [rsp+48], eax
	mov	QWORD PTR [rsp+40], r9
	xor	r9d, r9d
	mov	QWORD PTR [rsp+32], 0
	call	?backend@xrDebug@@QEAAXPEBD0000H0AEA_N@Z ; xrDebug::backend

; 458  : }

	add	rsp, 88					; 00000058H
	ret	0
?fail@xrDebug@@QEAAXPEBDAEBV?$basic_string@DU?$char_traits@D@std@@V?$allocator@D@2@@std@@0H0AEA_N@Z ENDP ; xrDebug::fail
_TEXT	ENDS
; Function compile flags: /Ogtpy
; File c:\users\nummer\documents\github\olr-3.0\src\xray\xrcore\xrdebugnew.cpp
; File c:\users\nummer\documents\github\olr-3.0\src\xray\xrcore\log.cpp
; File c:\users\nummer\documents\github\olr-3.0\src\xray\xrcore\xrdebugnew.cpp
; File c:\users\nummer\documents\github\olr-3.0\src\xray\xrcore\log.cpp
; File c:\program files (x86)\microsoft visual studio 12.0\vc\include\xstring
; File c:\users\nummer\documents\github\olr-3.0\src\xray\xrcore\log.cpp
; File c:\program files (x86)\microsoft visual studio 12.0\vc\include\xstring
; File c:\program files (x86)\microsoft visual studio 12.0\vc\include\xstddef
; File c:\users\nummer\documents\github\olr-3.0\src\xray\xrcore\xrdebugnew.cpp
_TEXT	SEGMENT
this$ = 48
message$ = 56
?do_exit@xrDebug@@QEAAXAEBV?$basic_string@DU?$char_traits@D@std@@V?$allocator@D@2@@std@@@Z PROC ; xrDebug::do_exit

; 342  : {

$LN17:
	push	rbx
	sub	rsp, 32					; 00000020H
; File c:\users\nummer\documents\github\olr-3.0\src\xray\xrcore\log.cpp

; 33   : 	if (LogWriter)

	mov	rcx, QWORD PTR ?LogWriter@@3PEAVIWriter@@EA ; LogWriter
; File c:\users\nummer\documents\github\olr-3.0\src\xray\xrcore\xrdebugnew.cpp

; 342  : {

	mov	rbx, rdx
; File c:\users\nummer\documents\github\olr-3.0\src\xray\xrcore\log.cpp

; 33   : 	if (LogWriter)

	test	rcx, rcx
	je	SHORT $LN5@do_exit

; 34   : 		LogWriter->flush();

	mov	rax, QWORD PTR [rcx]
	call	QWORD PTR [rax+40]
$LN5@do_exit:
; File c:\program files (x86)\microsoft visual studio 12.0\vc\include\xstring

; 520  : 			: this->_Bx._Buf);

	cmp	QWORD PTR [rbx+24], 16
; File c:\users\nummer\documents\github\olr-3.0\src\xray\xrcore\log.cpp

; 35   : 	cached_log = 0;

	mov	QWORD PTR ?cached_log@@3_KA, 0		; cached_log
; File c:\program files (x86)\microsoft visual studio 12.0\vc\include\xstring

; 520  : 			: this->_Bx._Buf);

	jb	SHORT $LN12@do_exit
; File c:\program files (x86)\microsoft visual studio 12.0\vc\include\xstddef

; 95   : 		reinterpret_cast<const volatile char&>(_Val)))));

	mov	rbx, QWORD PTR [rbx]
$LN12@do_exit:
; File c:\users\nummer\documents\github\olr-3.0\src\xray\xrcore\xrdebugnew.cpp

; 344  : 	MessageBox			(NULL,message.c_str(),"Error",MB_OK|MB_ICONERROR|MB_SYSTEMMODAL);

	lea	r8, OFFSET FLAT:??_C@_05NAOIJFC@Error?$AA@
	mov	r9d, 4112				; 00001010H
	mov	rdx, rbx
	xor	ecx, ecx
	call	QWORD PTR __imp_MessageBoxA

; 345  : 	TerminateProcess	(GetCurrentProcess(),1);

	call	QWORD PTR __imp_GetCurrentProcess
	mov	edx, 1
	mov	rcx, rax

; 346  : }

	add	rsp, 32					; 00000020H
	pop	rbx

; 345  : 	TerminateProcess	(GetCurrentProcess(),1);

	rex_jmp	QWORD PTR __imp_TerminateProcess
?do_exit@xrDebug@@QEAAXAEBV?$basic_string@DU?$char_traits@D@std@@V?$allocator@D@2@@std@@@Z ENDP ; xrDebug::do_exit
_TEXT	ENDS
; Function compile flags: /Ogtpy
; File c:\users\nummer\documents\github\olr-3.0\src\xray\xrcore\xrdebugnew.cpp
_TEXT	SEGMENT
ignore_always$ = 80
buffer$ = 96
this$ = 1168
file$ = 1176
line$ = 1184
function$ = 1192
F$ = 1200
?fatal@xrDebug@@QEAAXPEBDH00ZZ PROC			; xrDebug::fatal

; 476  : {

$LN4:
	mov	rax, rsp
	push	rbx
	push	rbp
	push	rsi
	push	rdi
	sub	rsp, 1128				; 00000468H
	mov	rsi, rdx

; 477  : 	string1024	buffer;
; 478  : 
; 479  : 	va_list		p;
; 480  : 	va_start	(p,F);
; 481  : 	vsprintf	(buffer,F,p);

	mov	rdx, QWORD PTR [rax+40]
	mov	edi, r8d
	mov	rbp, rcx
	lea	r8, QWORD PTR [rax+48]
	lea	rcx, QWORD PTR buffer$[rsp]
	mov	rbx, r9
	call	QWORD PTR __imp_vsprintf

; 482  : 	va_end		(p);
; 483  : 
; 484  : 	bool		ignore_always = true;
; 485  : 
; 486  : 	backend		("fatal error","<no expression>",buffer,0,file,line,function,ignore_always);

	lea	rax, QWORD PTR ignore_always$[rsp]
	mov	QWORD PTR [rsp+64], rax
	mov	QWORD PTR [rsp+56], rbx
	mov	DWORD PTR [rsp+48], edi
	lea	r9, QWORD PTR buffer$[rsp]
	lea	r8, OFFSET FLAT:??_C@_0BA@GDNONNGA@?$DMno?5expression?$DO?$AA@
	lea	rdx, OFFSET FLAT:??_C@_0M@GKMDFHNF@fatal?5error?$AA@
	mov	rcx, rbp
	mov	QWORD PTR [rsp+40], rsi
	mov	QWORD PTR [rsp+32], 0
	call	?backend@xrDebug@@QEAAXPEBD0000H0AEA_N@Z ; xrDebug::backend

; 487  : }

	add	rsp, 1128				; 00000468H
	pop	rdi
	pop	rsi
	pop	rbp
	pop	rbx
	ret	0
?fatal@xrDebug@@QEAAXPEBDH00ZZ ENDP			; xrDebug::fatal
_TEXT	ENDS
; Function compile flags: /Ogtpy
; File c:\users\nummer\documents\github\olr-3.0\src\xray\xrcore\xrdebugnew.cpp
_TEXT	SEGMENT
string$ = 48
?copy_to_clipboard@@YAXPEBD@Z PROC			; copy_to_clipboard

; 123  : {

$LN14:
	push	rbx
	sub	rsp, 32					; 00000020H
	mov	rbx, rcx

; 124  : 	if (IsDebuggerPresent())

	call	QWORD PTR __imp_IsDebuggerPresent
	test	eax, eax
	jne	$LN4@copy_to_cl

; 125  : 		return;
; 126  : 
; 127  : 	if (!OpenClipboard(0))

	xor	ecx, ecx
	call	QWORD PTR __imp_OpenClipboard
	test	eax, eax
	je	SHORT $LN4@copy_to_cl

; 128  : 		return;
; 129  : 
; 130  : 	HGLOBAL				handle = GlobalAlloc(GHND | GMEM_DDESHARE,(strlen(string) + 1)*sizeof(char));

	mov	QWORD PTR [rsp+48], rdi
	or	rdx, -1
	npad	4
$LL10@copy_to_cl:
	inc	rdx
	cmp	BYTE PTR [rbx+rdx], 0
	jne	SHORT $LL10@copy_to_cl
	inc	rdx
	mov	ecx, 8258				; 00002042H
	call	QWORD PTR __imp_GlobalAlloc
	mov	rdi, rax

; 131  : 	if (!handle) {

	test	rax, rax
	je	SHORT $LN12@copy_to_cl

; 132  : 		CloseClipboard	();
; 133  : 		return;
; 134  : 	}
; 135  : 
; 136  : 	char				*memory = (char*)GlobalLock(handle);

	mov	rcx, rax
	call	QWORD PTR __imp_GlobalLock

; 137  : 	strcpy				(memory,string);

	sub	rax, rbx
	npad	5
$LL6@copy_to_cl:
	movzx	ecx, BYTE PTR [rbx]
	lea	rbx, QWORD PTR [rbx+1]
	mov	BYTE PTR [rax+rbx-1], cl
	test	cl, cl
	jne	SHORT $LL6@copy_to_cl

; 138  : 	GlobalUnlock		(handle);

	mov	rcx, rdi
	call	QWORD PTR __imp_GlobalUnlock

; 139  : 	EmptyClipboard		();

	call	QWORD PTR __imp_EmptyClipboard

; 140  : 	SetClipboardData	(CF_TEXT,handle);

	mov	rdx, rdi
	mov	ecx, 1
	call	QWORD PTR __imp_SetClipboardData
$LN12@copy_to_cl:

; 141  : 	CloseClipboard		();

	call	QWORD PTR __imp_CloseClipboard
	mov	rdi, QWORD PTR [rsp+48]
$LN4@copy_to_cl:

; 142  : }

	add	rsp, 32					; 00000020H
	pop	rbx
	ret	0
?copy_to_clipboard@@YAXPEBD@Z ENDP			; copy_to_clipboard
_TEXT	ENDS
; Function compile flags: /Ogtpy
; File c:\users\nummer\documents\github\olr-3.0\src\xray\xrcore\xrdebugnew.cpp
_TEXT	SEGMENT
string$dead$ = 8
?update_clipboard@@YAXPEBD@Z PROC			; update_clipboard

; 146  : #ifdef DEBUG
; 147  : 	if (IsDebuggerPresent())
; 148  : 		return;
; 149  : 
; 150  : 	if (!OpenClipboard(0))
; 151  : 		return;
; 152  : 
; 153  : 	HGLOBAL				handle = GetClipboardData(CF_TEXT);
; 154  : 	if (!handle) {
; 155  : 		CloseClipboard		();
; 156  : 		copy_to_clipboard	(string);
; 157  : 		return;
; 158  : 	}
; 159  : 
; 160  : 	LPSTR				memory = (char*)GlobalLock(handle);
; 161  : 	u32					memory_length = xr_strlen(memory);
; 162  : 	u32					string_length = xr_strlen(string);
; 163  : 	LPSTR				buffer = (LPSTR)_alloca((memory_length + string_length + 1)*sizeof(char));
; 164  : 	strcpy				(buffer,memory);
; 165  : 	GlobalUnlock		(handle);
; 166  : 
; 167  : 	strcat				(buffer,string);
; 168  : 	CloseClipboard		();
; 169  : 	copy_to_clipboard	(buffer);
; 170  : #endif // DEBUG
; 171  : }

	ret	0
?update_clipboard@@YAXPEBD@Z ENDP			; update_clipboard
_TEXT	ENDS
; Function compile flags: /Ogtpy
; File c:\users\nummer\documents\github\olr-3.0\src\xray\xrcore\xrdebugnew.cpp
_TEXT	SEGMENT
i$1 = 32
header$ = 64
ss_init$ = 72
?LogStackTrace@@YAXPEBD@Z PROC				; LogStackTrace

; 179  : {

$LN16:
	mov	QWORD PTR [rsp+8], rbx
	mov	QWORD PTR [rsp+24], rsi
	push	rdi
	sub	rsp, 48					; 00000030H

; 180  : 	bool ss_init = shared_str_initialized; // alpet:     -    shared_str::doc

	movzx	edi, BYTE PTR ?shared_str_initialized@@3_NA ; shared_str_initialized
	mov	BYTE PTR ss_init$[rsp], dil

; 181  : 	shared_str_initialized = false;

	mov	BYTE PTR ?shared_str_initialized@@3_NA, 0 ; shared_str_initialized

; 182  : 	__try
; 183  : 	{
; 184  : 		Msg("%s", header);

	mov	rdx, rcx
	lea	rcx, OFFSET FLAT:??_C@_02DKCKIIND@?$CFs?$AA@
	call	?Msg@@YAXPEBDZZ				; Msg

; 185  : 		BuildStackTrace();

	call	?BuildStackTrace@@YAPEBDXZ		; BuildStackTrace

; 186  : 
; 187  : 		for (int i = 1; i < g_stackTraceCount; ++i)

	mov	ebx, 1
	lea	rsi, OFFSET FLAT:?g_stackTrace@@3PAY0BAAA@DA ; g_stackTrace
$LN15@LogStackTr:
	mov	DWORD PTR i$1[rsp], ebx
	cmp	ebx, DWORD PTR ?g_stackTraceCount@@3HA	; g_stackTraceCount
	jge	SHORT $LN1@LogStackTr

; 188  : 			Msg(" %s", g_stackTrace[i]);

	movsxd	rdx, ebx
	shl	rdx, 12
	add	rdx, rsi
	lea	rcx, OFFSET FLAT:??_C@_03EEBNCBOD@?5?$CFs?$AA@
	call	?Msg@@YAXPEBDZZ				; Msg

; 186  : 
; 187  : 		for (int i = 1; i < g_stackTraceCount; ++i)

	inc	ebx
	jmp	SHORT $LN15@LogStackTr
$LN1@LogStackTr:

; 189  : 
; 190  : 		FlushLog();

	call	?FlushLog@@YAXXZ			; FlushLog
	npad	1
$LN11@LogStackTr:

; 191  : 	}
; 192  : 	__finally
; 193  : 	{
; 194  : 		shared_str_initialized = ss_init;

	mov	BYTE PTR ?shared_str_initialized@@3_NA, dil ; shared_str_initialized
$LN5@LogStackTr:

; 195  : 	}
; 196  : 	
; 197  : }

	mov	rbx, QWORD PTR [rsp+64]
	mov	rsi, QWORD PTR [rsp+80]
	add	rsp, 48					; 00000030H
	pop	rdi
	ret	0
?LogStackTrace@@YAXPEBD@Z ENDP				; LogStackTrace
_TEXT	ENDS
; Function compile flags: /Ogtpy
text$x	SEGMENT
i$1 = 32
header$ = 64
ss_init$ = 72
?fin$0@?0??LogStackTrace@@YAXPEBD@Z@4HA PROC		; `LogStackTrace'::`1'::fin$0

; 192  : 	__finally

	push	rbp
	sub	rsp, 32					; 00000020H
	mov	rbp, rdx
$LN8@fin$0:

; 193  : 	{
; 194  : 		shared_str_initialized = ss_init;

	movzx	eax, BYTE PTR ss_init$[rbp]
	mov	BYTE PTR ?shared_str_initialized@@3_NA, al ; shared_str_initialized
$LN9@fin$0:
	add	rsp, 32					; 00000020H
	pop	rbp
	ret	0
	int	3
?fin$0@?0??LogStackTrace@@YAXPEBD@Z@4HA ENDP		; `LogStackTrace'::`1'::fin$0
text$x	ENDS
; Function compile flags: /Ogtpy
; File c:\users\nummer\documents\github\olr-3.0\src\xray\xrcore\xrdebugnew.cpp
_TEXT	SEGMENT
line$1 = 48
rec$2 = 64
ss_init$ = 1312
pExPtrs$ = 1312
?LogStackTraceEx@@YAXPEAU_EXCEPTION_POINTERS@@@Z PROC	; LogStackTraceEx

; 202  : {	

$LN21:
	mov	QWORD PTR [rsp+16], rbx
	mov	QWORD PTR [rsp+24], rsi
	push	rdi
	sub	rsp, 1296				; 00000510H
	mov	r8, rcx

; 203  : 	//     (!)
; 204  : 	bool ss_init = shared_str_initialized; // alpet:     -    shared_str::doc

	movzx	esi, BYTE PTR ?shared_str_initialized@@3_NA ; shared_str_initialized
	mov	BYTE PTR ss_init$[rsp], sil

; 205  : 	
; 206  : 
; 207  : 	if (pExPtrs->ContextRecord)

	cmp	QWORD PTR [rcx+8], 0
	je	$LN7@LogStackTr

; 208  : 	__try	
; 209  : 	{		
; 210  : 		force_flush_log = true;

	mov	BYTE PTR ?force_flush_log@@3_NA, 1	; force_flush_log

; 211  : 		shared_str_initialized = false;

	mov	BYTE PTR ?shared_str_initialized@@3_NA, 0 ; shared_str_initialized

; 212  : 		CONTEXT rec = *pExPtrs->ContextRecord; //   

	mov	rax, QWORD PTR [rcx+8]
	lea	rcx, QWORD PTR rec$2[rsp]
	mov	edx, 9
	npad	5
$LL18@LogStackTr:
	movups	xmm0, XMMWORD PTR [rax]
	movups	XMMWORD PTR [rcx], xmm0
	movups	xmm1, XMMWORD PTR [rax+16]
	movups	XMMWORD PTR [rcx+16], xmm1
	movups	xmm0, XMMWORD PTR [rax+32]
	movups	XMMWORD PTR [rcx+32], xmm0
	movups	xmm1, XMMWORD PTR [rax+48]
	movups	XMMWORD PTR [rcx+48], xmm1
	movups	xmm0, XMMWORD PTR [rax+64]
	movups	XMMWORD PTR [rcx+64], xmm0
	movups	xmm1, XMMWORD PTR [rax+80]
	movups	XMMWORD PTR [rcx+80], xmm1
	movups	xmm0, XMMWORD PTR [rax+96]
	movups	XMMWORD PTR [rcx+96], xmm0
	lea	rcx, QWORD PTR [rcx+128]
	movups	xmm1, XMMWORD PTR [rax+112]
	movups	XMMWORD PTR [rcx-16], xmm1
	lea	rax, QWORD PTR [rax+128]
	dec	rdx
	jne	SHORT $LL18@LogStackTr
	movups	xmm0, XMMWORD PTR [rax]
	movups	XMMWORD PTR [rcx], xmm0
	movups	xmm1, XMMWORD PTR [rax+16]
	movups	XMMWORD PTR [rcx+16], xmm1
	movups	xmm0, XMMWORD PTR [rax+32]
	movups	XMMWORD PTR [rcx+32], xmm0
	movups	xmm1, XMMWORD PTR [rax+48]
	movups	XMMWORD PTR [rcx+48], xmm1
	movups	xmm0, XMMWORD PTR [rax+64]
	movups	XMMWORD PTR [rcx+64], xmm0

; 213  :  		//  Msg("##DEBUG: sizeof(CONTEXT) = %d bytes ", sizeof(rec));
; 214  : 		// pExPtrs->ExceptionRecord = NULL;
; 215  : 		BuildStackTrace(pExPtrs); //     ContextRecord.EIP

	mov	rcx, r8
	call	?BuildStackTrace@@YAXPEAU_EXCEPTION_POINTERS@@@Z ; BuildStackTrace

; 216  : 
; 217  : #ifdef ENVIRONMENT32
; 218  : 		if (g_stackTraceCount > 0)
; 219  : 			Msg("!Exception stack trace %d lines, EIP = 0x%08x, ESP = 0x%08x: \n* 0 %s",
; 220  : 					g_stackTraceCount, rec.Eip, rec.Esp, g_stackTrace[0]);
; 221  : 		else
; 222  : 			Msg("!BuildStackTrace produced %d lines. Exception EIP = 0x%08x, ESP = 0x%08x:\n* %s", 
; 223  : 					g_stackTraceCount, rec.Eip, rec.Esp, g_stackTrace[0]);
; 224  : #else
; 225  : 		if (g_stackTraceCount > 0)

	mov	edx, DWORD PTR ?g_stackTraceCount@@3HA	; g_stackTraceCount

; 226  : 			Msg("!Exception stack trace %d lines, EIP = 0x%08x, ESP = 0x%08x: \n* 0 %s",
; 227  : 				g_stackTraceCount, rec.Rip, rec.Rsp, g_stackTrace[0]);

	lea	rdi, OFFSET FLAT:?g_stackTrace@@3PAY0BAAA@DA ; g_stackTrace
	mov	r9, QWORD PTR rec$2[rsp+152]
	mov	r8, QWORD PTR rec$2[rsp+248]
	mov	QWORD PTR [rsp+32], rdi

; 216  : 
; 217  : #ifdef ENVIRONMENT32
; 218  : 		if (g_stackTraceCount > 0)
; 219  : 			Msg("!Exception stack trace %d lines, EIP = 0x%08x, ESP = 0x%08x: \n* 0 %s",
; 220  : 					g_stackTraceCount, rec.Eip, rec.Esp, g_stackTrace[0]);
; 221  : 		else
; 222  : 			Msg("!BuildStackTrace produced %d lines. Exception EIP = 0x%08x, ESP = 0x%08x:\n* %s", 
; 223  : 					g_stackTraceCount, rec.Eip, rec.Esp, g_stackTrace[0]);
; 224  : #else
; 225  : 		if (g_stackTraceCount > 0)

	test	edx, edx

; 226  : 			Msg("!Exception stack trace %d lines, EIP = 0x%08x, ESP = 0x%08x: \n* 0 %s",
; 227  : 				g_stackTraceCount, rec.Rip, rec.Rsp, g_stackTrace[0]);

	lea	rcx, OFFSET FLAT:??_C@_0EF@FFGHPKJO@?$CBException?5stack?5trace?5?$CFd?5lines?0@

; 216  : 
; 217  : #ifdef ENVIRONMENT32
; 218  : 		if (g_stackTraceCount > 0)
; 219  : 			Msg("!Exception stack trace %d lines, EIP = 0x%08x, ESP = 0x%08x: \n* 0 %s",
; 220  : 					g_stackTraceCount, rec.Eip, rec.Esp, g_stackTrace[0]);
; 221  : 		else
; 222  : 			Msg("!BuildStackTrace produced %d lines. Exception EIP = 0x%08x, ESP = 0x%08x:\n* %s", 
; 223  : 					g_stackTraceCount, rec.Eip, rec.Esp, g_stackTrace[0]);
; 224  : #else
; 225  : 		if (g_stackTraceCount > 0)

	jg	SHORT $LN19@LogStackTr

; 228  : 		else
; 229  : 			Msg("!BuildStackTrace produced %d lines. Exception EIP = 0x%08x, ESP = 0x%08x:\n* %s",
; 230  : 				g_stackTraceCount, rec.Rip, rec.Rsp, g_stackTrace[0]);

	lea	rcx, OFFSET FLAT:??_C@_0EP@DPEOBJ@?$CBBuildStackTrace?5produced?5?$CFd?5lin@
$LN19@LogStackTr:
	call	?Msg@@YAXPEBDZZ				; Msg

; 231  : #endif
; 232  : 
; 233  : 		for (int line = 1; line < g_stackTraceCount; line ++)

	mov	ebx, 1
$LN20@LogStackTr:
	mov	DWORD PTR line$1[rsp], ebx
	cmp	ebx, DWORD PTR ?g_stackTraceCount@@3HA	; g_stackTraceCount
	jge	SHORT $LN1@LogStackTr

; 234  : 			 Msg("# %d %s", line, g_stackTrace[line]);

	movsxd	r8, ebx
	shl	r8, 12
	add	r8, rdi
	mov	edx, ebx
	lea	rcx, OFFSET FLAT:??_C@_07IDOMDILH@?$CD?5?$CFd?5?$CFs?$AA@
	call	?Msg@@YAXPEBDZZ				; Msg

; 231  : #endif
; 232  : 
; 233  : 		for (int line = 1; line < g_stackTraceCount; line ++)

	inc	ebx
	jmp	SHORT $LN20@LogStackTr
$LN1@LogStackTr:

; 235  : 
; 236  : 		Sleep(500);

	mov	ecx, 500				; 000001f4H
	call	QWORD PTR __imp_Sleep
	npad	1
$LN14@LogStackTr:

; 237  : 	}
; 238  : 	__finally
; 239  : 	{
; 240  : 		shared_str_initialized = ss_init;

	mov	BYTE PTR ?shared_str_initialized@@3_NA, sil ; shared_str_initialized
$LN7@LogStackTr:

; 241  : 	}
; 242  : }

	lea	r11, QWORD PTR [rsp+1296]
	mov	rbx, QWORD PTR [r11+24]
	mov	rsi, QWORD PTR [r11+32]
	mov	rsp, r11
	pop	rdi
	ret	0
?LogStackTraceEx@@YAXPEAU_EXCEPTION_POINTERS@@@Z ENDP	; LogStackTraceEx
_TEXT	ENDS
; Function compile flags: /Ogtpy
text$x	SEGMENT
line$1 = 48
rec$2 = 64
ss_init$ = 1312
pExPtrs$ = 1312
?fin$0@?0??LogStackTraceEx@@YAXPEAU_EXCEPTION_POINTERS@@@Z@4HA PROC ; `LogStackTraceEx'::`1'::fin$0

; 238  : 	__finally

	push	rbp
	sub	rsp, 48					; 00000030H
	mov	rbp, rdx
$LN11@fin$0:

; 239  : 	{
; 240  : 		shared_str_initialized = ss_init;

	movzx	eax, BYTE PTR ss_init$[rbp]
	mov	BYTE PTR ?shared_str_initialized@@3_NA, al ; shared_str_initialized
$LN12@fin$0:
	add	rsp, 48					; 00000030H
	pop	rbp
	ret	0
	int	3
?fin$0@?0??LogStackTraceEx@@YAXPEAU_EXCEPTION_POINTERS@@@Z@4HA ENDP ; `LogStackTraceEx'::`1'::fin$0
text$x	ENDS
; Function compile flags: /Ogtpy
; File c:\users\nummer\documents\github\olr-3.0\src\xray\xrcore\xrdebugnew.cpp
_TEXT	SEGMENT
pExPtrs$ = 48
?SimpleExceptionFilter@@YAIPEAU_EXCEPTION_POINTERS@@@Z PROC ; SimpleExceptionFilter

; 245  : {

$LN4:
	sub	rsp, 40					; 00000028H

; 246  : 	LogStackTraceEx ( pExPtrs ); 

	call	?LogStackTraceEx@@YAXPEAU_EXCEPTION_POINTERS@@@Z ; LogStackTraceEx

; 247  : 	return EXCEPTION_EXECUTE_HANDLER;

	mov	eax, 1

; 248  : }

	add	rsp, 40					; 00000028H
	ret	0
?SimpleExceptionFilter@@YAIPEAU_EXCEPTION_POINTERS@@@Z ENDP ; SimpleExceptionFilter
_TEXT	ENDS
; Function compile flags: /Ogtpy
; File c:\users\nummer\documents\github\olr-3.0\src\xray\xrcore\xrdebugnew.cpp
; File c:\users\nummer\documents\github\olr-3.0\src\xray\xrcore\log.cpp
; File c:\users\nummer\documents\github\olr-3.0\src\xray\xrcore\xrdebugnew.cpp
; File c:\program files (x86)\microsoft visual studio 12.0\vc\include\string.h
; File c:\users\nummer\documents\github\olr-3.0\src\xray\xrcore\xrdebugnew.cpp
_TEXT	SEGMENT
i$1 = 48
expression$ = 112
ss_init$2 = 120
description$ = 120
argument0$ = 128
argument1$ = 136
file$ = 144
line$ = 152
function$ = 160
extended_description$1$ = 168
assertion_info$ = 168
?gather_info@@YAXPEBD0000H0PEAD@Z PROC			; gather_info

; 252  : {

$LN47:
	mov	QWORD PTR [rsp+24], rbx
	mov	QWORD PTR [rsp+32], rsi
	mov	QWORD PTR [rsp+16], rdx
	mov	QWORD PTR [rsp+8], rcx
	push	rdi
	push	r12
	push	r13
	push	r14
	push	r15
	sub	rsp, 64					; 00000040H
	mov	r12, r9
	mov	rsi, r8
	mov	rax, rdx

; 253  : 	force_flush_log = true;

	mov	BYTE PTR ?force_flush_log@@3_NA, 1	; force_flush_log

; 254  : 	LPSTR				buffer = assertion_info;

	mov	r13, QWORD PTR assertion_info$[rsp]
	mov	rbx, r13

; 255  : 	LPCSTR				endline = "\n";

	lea	rdi, OFFSET FLAT:??_C@_01EEMJAFIK@?6?$AA@

; 256  : 	LPCSTR				prefix = "[error]";

	lea	r14, OFFSET FLAT:??_C@_07LFMCMLFD@?$FLerror?$FN?$AA@

; 257  : 	bool				extended_description = (description && !argument0 && strchr(description,'\n'));

	test	rdx, rdx
	je	SHORT $LN23@gather_inf
	test	r8, r8
	jne	SHORT $LN23@gather_inf
	lea	edx, QWORD PTR [r8+10]
	mov	rcx, rax
	call	QWORD PTR __imp_strchr
	test	rax, rax
	mov	BYTE PTR extended_description$1$[rsp], 1
	jne	SHORT $LN24@gather_inf
$LN23@gather_inf:
	mov	BYTE PTR extended_description$1$[rsp], 0
$LN24@gather_inf:

; 258  : 	for (int i=0; i<2; ++i) {

	xor	r15d, r15d
	npad	7
$LL20@gather_inf:

; 259  : 		if (!i)

	test	r15d, r15d
	jne	SHORT $LN17@gather_inf

; 260  : 			buffer		+= sprintf(buffer,"%sFATAL ERROR%s%s",endline,endline,endline);

	mov	QWORD PTR [rsp+32], rdi
	mov	r9, rdi
	mov	r8, rdi
	lea	rdx, OFFSET FLAT:??_C@_0BC@HPNOMGOM@?$CFsFATAL?5ERROR?$CFs?$CFs?$AA@
	mov	rcx, rbx
	call	QWORD PTR __imp_sprintf
	movsxd	rcx, eax
	add	rbx, rcx
$LN17@gather_inf:

; 261  : 		buffer			+= sprintf(buffer,"%sExpression    : %s%s",prefix,expression,endline);

	mov	QWORD PTR [rsp+32], rdi
	mov	r9, QWORD PTR expression$[rsp]
	mov	r8, r14
	lea	rdx, OFFSET FLAT:??_C@_0BH@GALINIK@?$CFsExpression?5?5?5?5?3?5?$CFs?$CFs?$AA@
	mov	rcx, rbx
	call	QWORD PTR __imp_sprintf
	movsxd	rcx, eax
	add	rbx, rcx

; 262  : 		buffer			+= sprintf(buffer,"%sFunction      : %s%s",prefix,function,endline);

	mov	QWORD PTR [rsp+32], rdi
	mov	r9, QWORD PTR function$[rsp]
	mov	r8, r14
	lea	rdx, OFFSET FLAT:??_C@_0BH@CIBMKEDG@?$CFsFunction?5?5?5?5?5?5?3?5?$CFs?$CFs?$AA@
	mov	rcx, rbx
	call	QWORD PTR __imp_sprintf
	movsxd	rcx, eax
	add	rbx, rcx

; 263  : 		buffer			+= sprintf(buffer,"%sFile          : %s%s",prefix,file,endline);

	mov	QWORD PTR [rsp+32], rdi
	mov	r9, QWORD PTR file$[rsp]
	mov	r8, r14
	lea	rdx, OFFSET FLAT:??_C@_0BH@LPGPLBHP@?$CFsFile?5?5?5?5?5?5?5?5?5?5?3?5?$CFs?$CFs?$AA@
	mov	rcx, rbx
	call	QWORD PTR __imp_sprintf
	movsxd	rcx, eax
	add	rbx, rcx

; 264  : 		buffer			+= sprintf(buffer,"%sLine          : %d%s",prefix,line,endline);

	mov	QWORD PTR [rsp+32], rdi
	mov	r9d, DWORD PTR line$[rsp]
	mov	r8, r14
	lea	rdx, OFFSET FLAT:??_C@_0BH@MHCDNAKD@?$CFsLine?5?5?5?5?5?5?5?5?5?5?3?5?$CFd?$CFs?$AA@
	mov	rcx, rbx
	call	QWORD PTR __imp_sprintf
	movsxd	rcx, eax
	add	rbx, rcx

; 267  : 			buffer		+= sprintf(buffer,"%s%s%s",endline,description,endline);

	mov	QWORD PTR [rsp+32], rdi
	mov	r9, QWORD PTR description$[rsp]
	mov	rcx, rbx

; 265  : 		
; 266  : 		if (extended_description) {

	cmp	BYTE PTR extended_description$1$[rsp], 0
	je	SHORT $LN16@gather_inf

; 267  : 			buffer		+= sprintf(buffer,"%s%s%s",endline,description,endline);

	mov	r8, rdi
	lea	rdx, OFFSET FLAT:??_C@_06DIJPEION@?$CFs?$CFs?$CFs?$AA@
	call	QWORD PTR __imp_sprintf
	movsxd	rcx, eax
	add	rbx, rcx

; 268  : 			if (argument0) {

	test	rsi, rsi
	je	$LN9@gather_inf

; 270  : 					buffer	+= sprintf(buffer,"%s%s",argument0,endline);

	mov	r9, rdi
	mov	r8, rsi
	lea	rdx, OFFSET FLAT:??_C@_04HDOCAJNK@?$CFs?$CFs?$AA@
	mov	rcx, rbx
	call	QWORD PTR __imp_sprintf
	movsxd	rcx, eax
	add	rbx, rcx

; 269  : 				if (argument1) {

	test	r12, r12
	je	$LN9@gather_inf

; 271  : 					buffer	+= sprintf(buffer,"%s%s",argument1,endline);

	mov	r9, rdi
	mov	r8, r12
	lea	rdx, OFFSET FLAT:??_C@_04HDOCAJNK@?$CFs?$CFs?$AA@
	mov	rcx, rbx
	call	QWORD PTR __imp_sprintf

; 272  : 				}
; 273  : 				else

	jmp	SHORT $LN44@gather_inf
$LN16@gather_inf:

; 274  : 					buffer	+= sprintf(buffer,"%s%s",argument0,endline);
; 275  : 			}
; 276  : 		}
; 277  : 		else {
; 278  : 			buffer		+= sprintf(buffer,"%sDescription   : %s%s",prefix,description,endline);

	mov	r8, r14
	lea	rdx, OFFSET FLAT:??_C@_0BH@PHPNCJFN@?$CFsDescription?5?5?5?3?5?$CFs?$CFs?$AA@
	call	QWORD PTR __imp_sprintf
	movsxd	rcx, eax
	add	rbx, rcx

; 279  : 			if (argument0) {

	test	rsi, rsi
	je	SHORT $LN9@gather_inf

; 281  : 					buffer	+= sprintf(buffer,"%sArgument 0    : %s%s",prefix,argument0,endline);

	mov	QWORD PTR [rsp+32], rdi
	mov	r9, rsi
	mov	r8, r14
	mov	rcx, rbx

; 280  : 				if (argument1) {

	test	r12, r12
	je	SHORT $LN10@gather_inf

; 281  : 					buffer	+= sprintf(buffer,"%sArgument 0    : %s%s",prefix,argument0,endline);

	lea	rdx, OFFSET FLAT:??_C@_0BH@IOIAOHDG@?$CFsArgument?50?5?5?5?5?3?5?$CFs?$CFs?$AA@
	call	QWORD PTR __imp_sprintf
	movsxd	rcx, eax
	add	rbx, rcx

; 282  : 					buffer	+= sprintf(buffer,"%sArgument 1    : %s%s",prefix,argument1,endline);

	mov	QWORD PTR [rsp+32], rdi
	mov	r9, r12
	mov	r8, r14
	lea	rdx, OFFSET FLAT:??_C@_0BH@BFCFKLFJ@?$CFsArgument?51?5?5?5?5?3?5?$CFs?$CFs?$AA@
	mov	rcx, rbx

; 283  : 				}
; 284  : 				else

	jmp	SHORT $LN45@gather_inf
$LN10@gather_inf:

; 285  : 					buffer	+= sprintf(buffer,"%sArguments     : %s%s",prefix,argument0,endline);

	lea	rdx, OFFSET FLAT:??_C@_0BH@DGNIFBHF@?$CFsArguments?5?5?5?5?5?3?5?$CFs?$CFs?$AA@
$LN45@gather_inf:
	call	QWORD PTR __imp_sprintf
$LN44@gather_inf:
	movsxd	rcx, eax
	add	rbx, rcx
$LN9@gather_inf:

; 286  : 			}
; 287  : 		}
; 288  : 
; 289  : 		buffer			+= sprintf(buffer,"%s",endline);

	mov	r8, rdi
	lea	rdx, OFFSET FLAT:??_C@_02DKCKIIND@?$CFs?$AA@
	mov	rcx, rbx
	call	QWORD PTR __imp_sprintf
	movsxd	rcx, eax
	add	rbx, rcx

; 290  : 		if (!i) {

	test	r15d, r15d
	jne	SHORT $LN19@gather_inf

; 291  : 			if (shared_str_initialized) {

	cmp	BYTE PTR ?shared_str_initialized@@3_NA, r15b ; shared_str_initialized
	je	SHORT $LN33@gather_inf

; 292  : 				Msg		("%s",assertion_info);

	mov	rdx, r13
	lea	rcx, OFFSET FLAT:??_C@_02DKCKIIND@?$CFs?$AA@
	call	?Msg@@YAXPEBDZZ				; Msg
; File c:\users\nummer\documents\github\olr-3.0\src\xray\xrcore\log.cpp

; 33   : 	if (LogWriter)

	mov	rcx, QWORD PTR ?LogWriter@@3PEAVIWriter@@EA ; LogWriter
	test	rcx, rcx
	je	SHORT $LN32@gather_inf

; 34   : 		LogWriter->flush();

	mov	rax, QWORD PTR [rcx]
	call	QWORD PTR [rax+40]
$LN32@gather_inf:

; 35   : 	cached_log = 0;

	mov	QWORD PTR ?cached_log@@3_KA, 0		; cached_log
$LN33@gather_inf:
; File c:\users\nummer\documents\github\olr-3.0\src\xray\xrcore\xrdebugnew.cpp

; 295  : 			buffer		= assertion_info;

	mov	rbx, r13

; 296  : 			endline		= "\r\n";

	lea	rdi, OFFSET FLAT:??_C@_02PCIJFNDE@?$AN?6?$AA@

; 297  : 			prefix		= "";

	lea	r14, OFFSET FLAT:??_C@_00CNPNBAHC@?$AA@
$LN19@gather_inf:

; 258  : 	for (int i=0; i<2; ++i) {

	inc	r15d
	cmp	r15d, 2
	jl	$LL20@gather_inf

; 298  : 		}				
; 299  : 	}
; 300  : 
; 301  : #ifdef USE_MEMORY_MONITOR
; 302  : 	memory_monitor::flush_each_time	(true);
; 303  : 	memory_monitor::flush_each_time	(false);
; 304  : #endif // USE_MEMORY_MONITOR	
; 305  : 
; 306  : 	MsgCB("$#DUMP_CONTEXT"); // alpet:  ,    

	lea	rcx, OFFSET FLAT:??_C@_0P@LGHNPNBO@$?$CDDUMP_CONTEXT?$AA@
	call	?MsgCB@@YAXPEBDZZ			; MsgCB

; 307  : 	if (!strstr(GetCommandLine(),"-no_call_stack_assert")) {

	call	QWORD PTR __imp_GetCommandLineA
; File c:\program files (x86)\microsoft visual studio 12.0\vc\include\string.h

; 228  :         { return (char*)strstr((const char*)_Str, _SubStr); }

	lea	rdx, OFFSET FLAT:??_C@_0BG@BFABOLIM@?9no_call_stack_assert?$AA@
	mov	rcx, rax
	call	QWORD PTR __imp_strstr
; File c:\users\nummer\documents\github\olr-3.0\src\xray\xrcore\xrdebugnew.cpp

; 307  : 	if (!strstr(GetCommandLine(),"-no_call_stack_assert")) {

	test	rax, rax
	jne	SHORT $LN1@gather_inf

; 308  : 
; 309  : #ifdef USE_OWN_ERROR_MESSAGE_WINDOW
; 310  : 
; 311  : 
; 312  : 		buffer			+= sprintf(buffer, MSG_SEE_LOG);

	lea	rdx, OFFSET FLAT:??_C@_0DH@FBGGHGDD@?Q?l?n?r?p?h?r?e?5?k?n?c?5?t?$OA?i?k?5?h?5?l?h?m?h?d?$OA?l?o?5?q?5?o@
	mov	rcx, rbx
	call	QWORD PTR __imp_sprintf

; 313  : 
; 314  : //		buffer			+= sprintf(buffer,"stack trace:%s%s",endline,endline);
; 315  : #endif // USE_OWN_ERROR_MESSAGE_WINDOW
; 316  : 		bool ss_init = shared_str_initialized;

	movzx	edi, BYTE PTR ?shared_str_initialized@@3_NA ; shared_str_initialized
	mov	BYTE PTR ss_init$2[rsp], dil

; 317  : 		shared_str_initialized = false;

	mov	BYTE PTR ?shared_str_initialized@@3_NA, 0 ; shared_str_initialized

; 318  : 		__try
; 319  : 		{
; 320  : 			BuildStackTrace();

	call	?BuildStackTrace@@YAPEBDXZ		; BuildStackTrace

; 321  : 			Msg("!stack trace:\n");

	lea	rcx, OFFSET FLAT:??_C@_0P@LFFKDEGP@?$CBstack?5trace?3?6?$AA@
	call	?Msg@@YAXPEBDZZ				; Msg

; 322  : 			for (int i = 2; i < g_stackTraceCount; ++i)

	mov	ebx, 2
	lea	rsi, OFFSET FLAT:?g_stackTrace@@3PAY0BAAA@DA ; g_stackTrace
$LN46@gather_inf:
	mov	DWORD PTR i$1[rsp], ebx
	cmp	ebx, DWORD PTR ?g_stackTraceCount@@3HA	; g_stackTraceCount
	jge	SHORT $LN2@gather_inf

; 323  : 				Msg("!\t %s", g_stackTrace[i]);

	movsxd	rdx, ebx
	shl	rdx, 12
	add	rdx, rsi
	lea	rcx, OFFSET FLAT:??_C@_05BFHLOLLO@?$CB?7?5?$CFs?$AA@
	call	?Msg@@YAXPEBDZZ				; Msg

; 322  : 			for (int i = 2; i < g_stackTraceCount; ++i)

	inc	ebx
	jmp	SHORT $LN46@gather_inf
$LN2@gather_inf:
$LN29@gather_inf:

; 324  : 		}
; 325  : 		__finally
; 326  : 		{
; 327  : 			shared_str_initialized = ss_init;

	mov	BYTE PTR ?shared_str_initialized@@3_NA, dil ; shared_str_initialized

; 328  : 		}
; 329  : 
; 330  : 
; 331  : #ifdef USE_OWN_ERROR_MESSAGE_WINDOW
; 332  : //			buffer		+= sprintf(buffer,"%s%s",g_stackTrace[i],endline);
; 333  : #endif // USE_OWN_ERROR_MESSAGE_WINDOW
; 334  : 				
; 335  : 
; 336  : 		if (!IsDebuggerPresent())

	call	QWORD PTR __imp_IsDebuggerPresent
	test	eax, eax
	jne	SHORT $LN1@gather_inf

; 337  : 			 copy_to_clipboard	(assertion_info);

	mov	rcx, r13
	call	?copy_to_clipboard@@YAXPEBD@Z		; copy_to_clipboard
$LN1@gather_inf:

; 338  : 	}
; 339  : }

	lea	r11, QWORD PTR [rsp+64]
	mov	rbx, QWORD PTR [r11+64]
	mov	rsi, QWORD PTR [r11+72]
	mov	rsp, r11
	pop	r15
	pop	r14
	pop	r13
	pop	r12
	pop	rdi
	ret	0
?gather_info@@YAXPEBD0000H0PEAD@Z ENDP			; gather_info
_TEXT	ENDS
; Function compile flags: /Ogtpy
text$x	SEGMENT
i$1 = 48
expression$ = 112
ss_init$2 = 120
description$ = 120
argument0$ = 128
argument1$ = 136
file$ = 144
line$ = 152
function$ = 160
extended_description$1$ = 168
assertion_info$ = 168
?fin$0@?0??gather_info@@YAXPEBD0000H0PEAD@Z@4HA PROC	; `gather_info'::`1'::fin$0

; 325  : 		__finally

	push	rbp
	sub	rsp, 48					; 00000030H
	mov	rbp, rdx
$LN26@fin$0:

; 326  : 		{
; 327  : 			shared_str_initialized = ss_init;

	movzx	eax, BYTE PTR ss_init$2[rbp]
	mov	BYTE PTR ?shared_str_initialized@@3_NA, al ; shared_str_initialized
$LN27@fin$0:
	add	rsp, 48					; 00000030H
	pop	rbp
	ret	0
	int	3
?fin$0@?0??gather_info@@YAXPEBD0000H0PEAD@Z@4HA ENDP	; `gather_info'::`1'::fin$0
text$x	ENDS
; Function compile flags: /Ogtpy
; File c:\users\nummer\documents\github\olr-3.0\src\xray\xrcore\xrdebugnew.cpp
; File c:\users\nummer\documents\github\olr-3.0\src\xray\xrcore\xrmemory.h
; File c:\users\nummer\documents\github\olr-3.0\src\xray\xrcore\xrdebugnew.cpp
; File c:\users\nummer\documents\github\olr-3.0\src\xray\xrcore\xrmemory.h
; File c:\users\nummer\documents\github\olr-3.0\src\xray\xrcore\xrsyncronize.cpp
; File c:\users\nummer\documents\github\olr-3.0\src\xray\xrcore\xrmemory.h
; File c:\users\nummer\documents\github\olr-3.0\src\xray\xrcore\xrsyncronize.cpp
; File c:\users\nummer\documents\github\olr-3.0\src\xray\xrcore\xrdebugnew.cpp
; File c:\users\nummer\documents\github\olr-3.0\src\xray\xrcore\xrsyncronize.cpp
; File c:\users\nummer\documents\github\olr-3.0\src\xray\xrcore\xrdebugnew.cpp
; File c:\users\nummer\documents\github\olr-3.0\src\xray\xrcore\_std_extensions.h
; File c:\users\nummer\documents\github\olr-3.0\src\xray\xrcore\xrdebugnew.cpp
; File c:\users\nummer\documents\github\olr-3.0\src\xray\xrcore\xrdebug.h
; File c:\users\nummer\documents\github\olr-3.0\src\xray\xrcore\xrdebugnew.cpp
; File c:\users\nummer\documents\github\olr-3.0\src\xray\xrcore\xrsyncronize.cpp
; File c:\users\nummer\documents\github\olr-3.0\src\xray\xrcore\xrdebugnew.cpp
_TEXT	SEGMENT
assertion_info$ = 64
this$ = 4176
expression$ = 4184
description$ = 4192
argument0$ = 4200
argument1$ = 4208
file$ = 4216
line$ = 4224
function$ = 4232
ignore_always$ = 4240
?backend@xrDebug@@QEAAXPEBD0000H0AEA_N@Z PROC		; xrDebug::backend

; 349  : {

$LN33:
	mov	QWORD PTR [rsp+8], rbx
	mov	QWORD PTR [rsp+16], rbp
	mov	QWORD PTR [rsp+24], rsi
	push	rdi
	mov	eax, 4160				; 00001040H
	call	__chkstk
	sub	rsp, rax

; 356  : 	;

	mov	eax, DWORD PTR ?$S1@?1??backend@xrDebug@@QEAAXPEBD0000H0AEA_N@Z@4IA
	mov	rbx, r9
	mov	rsi, r8
	mov	rbp, rdx
	mov	rdi, rcx
	mov	BYTE PTR ?force_flush_log@@3_NA, 1	; force_flush_log
	test	al, 1
	jne	SHORT $LN10@backend
	or	eax, 1
; File c:\users\nummer\documents\github\olr-3.0\src\xray\xrcore\xrmemory.h

; 107  : 	IC T*		xr_alloc	(u32 count)				{	return  (T*)Memory.mem_alloc(count*sizeof(T));	}

	lea	rcx, OFFSET FLAT:?Memory@@3VxrMemory@@A	; Memory
	mov	edx, 40					; 00000028H
; File c:\users\nummer\documents\github\olr-3.0\src\xray\xrcore\xrdebugnew.cpp

; 356  : 	;

	mov	DWORD PTR ?$S1@?1??backend@xrDebug@@QEAAXPEBD0000H0AEA_N@Z@4IA, eax
; File c:\users\nummer\documents\github\olr-3.0\src\xray\xrcore\xrmemory.h

; 107  : 	IC T*		xr_alloc	(u32 count)				{	return  (T*)Memory.mem_alloc(count*sizeof(T));	}

	call	?mem_alloc@xrMemory@@QEAAPEAX_K@Z	; xrMemory::mem_alloc
; File c:\users\nummer\documents\github\olr-3.0\src\xray\xrcore\xrsyncronize.cpp

; 41   : 	InitializeCriticalSection		( (CRITICAL_SECTION*)pmutex	);

	mov	rcx, rax
; File c:\users\nummer\documents\github\olr-3.0\src\xray\xrcore\xrmemory.h

; 107  : 	IC T*		xr_alloc	(u32 count)				{	return  (T*)Memory.mem_alloc(count*sizeof(T));	}

	mov	QWORD PTR ?CS@?1??backend@xrDebug@@QEAAXPEBD0000H0AEA_N@Z@4VxrCriticalSection@@A, rax
; File c:\users\nummer\documents\github\olr-3.0\src\xray\xrcore\xrsyncronize.cpp

; 41   : 	InitializeCriticalSection		( (CRITICAL_SECTION*)pmutex	);

	call	QWORD PTR __imp_InitializeCriticalSection
; File c:\users\nummer\documents\github\olr-3.0\src\xray\xrcore\xrdebugnew.cpp

; 356  : 	;

	lea	rcx, OFFSET FLAT:??__FCS@?1??backend@xrDebug@@QEAAXPEBD0000H0AEA_N@Z@YAXXZ ; `xrDebug::backend'::`2'::`dynamic atexit destructor for 'CS''
	call	atexit
$LN10@backend:
; File c:\users\nummer\documents\github\olr-3.0\src\xray\xrcore\xrsyncronize.cpp

; 64   : 	EnterCriticalSection			( (CRITICAL_SECTION*)pmutex );

	mov	rcx, QWORD PTR ?CS@?1??backend@xrDebug@@QEAAXPEBD0000H0AEA_N@Z@4VxrCriticalSection@@A
	call	QWORD PTR __imp_EnterCriticalSection
; File c:\users\nummer\documents\github\olr-3.0\src\xray\xrcore\xrdebugnew.cpp

; 363  : 	gather_info			(expression, description, argument0, argument1, file, line, function, assertion_info);

	mov	r9, QWORD PTR argument1$[rsp]
	lea	rax, QWORD PTR assertion_info$[rsp]
	mov	QWORD PTR [rsp+56], rax
	mov	rax, QWORD PTR function$[rsp]
	mov	r8, rbx
	mov	QWORD PTR [rsp+48], rax
	mov	eax, DWORD PTR line$[rsp]
	mov	rdx, rsi
	mov	DWORD PTR [rsp+40], eax
	mov	rax, QWORD PTR file$[rsp]
	mov	rcx, rbp
	mov	QWORD PTR [rsp+32], rax
	mov	BYTE PTR error_after_dialog, 1
	call	?gather_info@@YAXPEBD0000H0PEAD@Z	; gather_info
; File c:\users\nummer\documents\github\olr-3.0\src\xray\xrcore\_std_extensions.h

; 270  : {	return (u32)strlen(S);			}

	lea	rcx, QWORD PTR assertion_info$[rsp]
	or	rax, -1
$LL31@backend:
	inc	rax
	cmp	BYTE PTR [rcx+rax], 0
	jne	SHORT $LL31@backend
; File c:\users\nummer\documents\github\olr-3.0\src\xray\xrcore\xrdebugnew.cpp

; 367  : 	LPSTR				buffer = assertion_info + xr_strlen(assertion_info);

	mov	ecx, eax
	lea	rbx, QWORD PTR assertion_info$[rsp]

; 368  : 	buffer				+= sprintf(buffer, MSG_PRESS_CANCEL,   endline,endline);

	lea	r9, OFFSET FLAT:??_C@_02PCIJFNDE@?$AN?6?$AA@
	add	rbx, rcx
	lea	r8, OFFSET FLAT:??_C@_02PCIJFNDE@?$AN?6?$AA@
	lea	rdx, OFFSET FLAT:??_C@_0CP@NCFNAJGJ@?$CFs?M?$OA?f?l?h?r?e?5?$CC?N?r?l?e?m?$OA?$CC?5?d?k?$PP?5?o?p?e?p?$PL?b?$OA?m?h@
	mov	rcx, rbx
	call	QWORD PTR __imp_sprintf

; 369  : 	buffer				+= sprintf(buffer, MSG_PRESS_RETRY,    endline);

	lea	r8, OFFSET FLAT:??_C@_02PCIJFNDE@?$AN?6?$AA@
	movsxd	rdx, eax
	add	rbx, rdx
	lea	rdx, OFFSET FLAT:??_C@_0DB@GHHJAOIC@?M?$OA?f?l?h?r?e?5?$CC?O?n?b?r?n?p?h?r?$PM?$CC?5?d?k?$PP?5?d?$OA?k?$PM?m?e?i?x@
	mov	rcx, rbx
	call	QWORD PTR __imp_sprintf

; 370  : 	buffer				+= sprintf(buffer, MSG_PRESS_CONTINUE, endline,endline);

	lea	r9, OFFSET FLAT:??_C@_02PCIJFNDE@?$AN?6?$AA@
	lea	r8, OFFSET FLAT:??_C@_02PCIJFNDE@?$AN?6?$AA@
	movsxd	rcx, eax
	lea	rdx, OFFSET FLAT:??_C@_0FG@CBCJHJDL@?M?$OA?f?l?h?r?e?5?$CC?O?p?n?d?n?k?f?h?r?$PM?$CC?5?d?k?$PP?5?d?$OA?k?$PM?m?e?i@
	add	rcx, rbx
	call	QWORD PTR __imp_sprintf

; 371  : #endif // USE_OWN_ERROR_MESSAGE_WINDOW
; 372  : 
; 373  : 	if (handler)

	mov	rax, QWORD PTR [rdi]
	test	rax, rax
	je	SHORT $LN9@backend

; 374  : 		handler			();

	call	rax
$LN9@backend:
; File c:\users\nummer\documents\github\olr-3.0\src\xray\xrcore\xrdebug.h

; 22   : 	on_dialog*		get_on_dialog		()							{ return m_on_dialog;	}

	mov	rax, QWORD PTR [rdi+8]
; File c:\users\nummer\documents\github\olr-3.0\src\xray\xrcore\xrdebugnew.cpp

; 376  : 	if (get_on_dialog())

	test	rax, rax
	je	SHORT $LN8@backend

; 377  : 		get_on_dialog()	(true);

	mov	cl, 1
	call	rax
$LN8@backend:

; 378  : 
; 379  : #ifdef XRCORE_STATIC
; 380  : 	MessageBox			(NULL,assertion_info,"X-Ray error",MB_OK|MB_ICONERROR|MB_SYSTEMMODAL);
; 381  : #else
; 382  : #	ifdef USE_OWN_ERROR_MESSAGE_WINDOW
; 383  : 		ShowWindow(GetTopWindow(NULL), SW_MINIMIZE);

	xor	ecx, ecx
	call	QWORD PTR __imp_GetTopWindow
	mov	edx, 6
	mov	rcx, rax
	call	QWORD PTR __imp_ShowWindow

; 384  : 		ShowCursor(TRUE);

	mov	ecx, 1
	call	QWORD PTR __imp_ShowCursor

; 385  : 		int					result = 
; 386  : 			MessageBox(
; 387  : 				GetTopWindow(NULL),
; 388  : 				assertion_info,
; 389  : 				" ",
; 390  : 				MB_CANCELTRYCONTINUE|MB_ICONERROR|MB_SYSTEMMODAL
; 391  : 			);

	xor	ecx, ecx
	call	QWORD PTR __imp_GetTopWindow
	lea	r8, OFFSET FLAT:??_C@_0BB@LFOOJIBK@?T?$OA?r?$OA?k?$PM?m?$OA?$PP?5?N?x?h?a?j?$OA?$AA@
	lea	rdx, QWORD PTR assertion_info$[rsp]
	mov	rcx, rax
	mov	r9d, 4118				; 00001016H
	call	QWORD PTR __imp_MessageBoxA

; 392  : 
; 393  : 		switch (result) {

	sub	eax, 2
	je	SHORT $LN5@backend

; 396  : 				break;
; 397  : 			}
; 398  : 			case IDTRYAGAIN : {
; 399  : 				error_after_dialog	= false;
; 400  : 				break;
; 401  : 			}
; 402  : 			case IDCONTINUE : {
; 403  : 				error_after_dialog	= false;

	mov	BYTE PTR error_after_dialog, 0
	cmp	eax, 8
	je	SHORT $LN6@backend

; 404  : 				ignore_always	= true;

	mov	rax, QWORD PTR ignore_always$[rsp]
	mov	BYTE PTR [rax], 1

; 405  : 				break;

	jmp	SHORT $LN6@backend
$LN5@backend:

; 394  : 			case IDCANCEL : {
; 395  : 				DEBUG_INVOKE;

	call	QWORD PTR __imp_DebugBreak
$LN6@backend:

; 406  : 			}
; 407  : 			default : NODEFAULT;
; 408  : 		}
; 409  : #	else // USE_OWN_ERROR_MESSAGE_WINDOW
; 410  : #		ifdef USE_BUG_TRAP
; 411  : 			BT_SetUserMessage	(assertion_info);
; 412  : #		endif // USE_BUG_TRAP
; 413  : 		DEBUG_INVOKE;
; 414  : #	endif // USE_OWN_ERROR_MESSAGE_WINDOW
; 415  : #endif
; 416  : 
; 417  : 	if (get_on_dialog())

	mov	rax, QWORD PTR [rdi+8]
	test	rax, rax
	je	SHORT $LN1@backend

; 418  : 		get_on_dialog()	(false);

	xor	ecx, ecx
	call	rax
$LN1@backend:
; File c:\users\nummer\documents\github\olr-3.0\src\xray\xrcore\xrsyncronize.cpp

; 69   : 	LeaveCriticalSection			( (CRITICAL_SECTION*)pmutex );

	mov	rcx, QWORD PTR ?CS@?1??backend@xrDebug@@QEAAXPEBD0000H0AEA_N@Z@4VxrCriticalSection@@A
	call	QWORD PTR __imp_LeaveCriticalSection
; File c:\users\nummer\documents\github\olr-3.0\src\xray\xrcore\xrdebugnew.cpp

; 421  : }

	lea	r11, QWORD PTR [rsp+4160]
	mov	rbx, QWORD PTR [r11+16]
	mov	rbp, QWORD PTR [r11+24]
	mov	rsi, QWORD PTR [r11+32]
	mov	rsp, r11
	pop	rdi
	ret	0
?backend@xrDebug@@QEAAXPEBD0000H0AEA_N@Z ENDP		; xrDebug::backend
_TEXT	ENDS
; Function compile flags: /Ogtpy
; File c:\users\nummer\documents\github\olr-3.0\src\xray\xrcore\xrsyncronize.cpp
;	COMDAT ??__FCS@?1??backend@xrDebug@@QEAAXPEBD0000H0AEA_N@Z@YAXXZ
text$yd	SEGMENT
??__FCS@?1??backend@xrDebug@@QEAAXPEBD0000H0AEA_N@Z@YAXXZ PROC ; `xrDebug::backend'::`2'::`dynamic atexit destructor for 'CS'', COMDAT
	sub	rsp, 40					; 00000028H

; 46   : 	DeleteCriticalSection			( (CRITICAL_SECTION*)pmutex	);

	mov	rcx, QWORD PTR ?CS@?1??backend@xrDebug@@QEAAXPEBD0000H0AEA_N@Z@4VxrCriticalSection@@A
	call	QWORD PTR __imp_DeleteCriticalSection

; 47   : 	xr_free							( pmutex		);

	lea	rcx, OFFSET FLAT:?CS@?1??backend@xrDebug@@QEAAXPEBD0000H0AEA_N@Z@4VxrCriticalSection@@A
	add	rsp, 40					; 00000028H
	jmp	??$xr_free@X@@YAXAEAPEAX@Z		; xr_free<void>
??__FCS@?1??backend@xrDebug@@QEAAXPEBD0000H0AEA_N@Z@YAXXZ ENDP ; `xrDebug::backend'::`2'::`dynamic atexit destructor for 'CS''
text$yd	ENDS
; Function compile flags: /Ogtpy
; File c:\users\nummer\documents\github\olr-3.0\src\xray\xrcore\xrdebugnew.cpp
_TEXT	SEGMENT
this$ = 96
hr$ = 104
expr$ = 112
file$ = 120
line$ = 128
function$ = 136
ignore_always$ = 144
?error@xrDebug@@QEAAXJPEBD0H0AEA_N@Z PROC		; xrDebug::error

; 441  : {

$LN7:
	mov	QWORD PTR [rsp+8], rbx
	mov	QWORD PTR [rsp+16], rsi
	mov	QWORD PTR [rsp+24], rdi
	push	r14
	sub	rsp, 80					; 00000050H
	mov	rdi, r8
	mov	rbx, r9
	mov	rsi, rcx

; 434  : 		FormatMessage	(FORMAT_MESSAGE_FROM_SYSTEM,0,code,0,desc_storage,sizeof(desc_storage)-1,0);

	mov	r8d, edx
	mov	QWORD PTR [rsp+48], 0
	lea	r14, OFFSET FLAT:?desc_storage@?1??error2string@xrDebug@@QEAAPEBDJ@Z@4PADA
	xor	r9d, r9d
	xor	edx, edx
	mov	ecx, 4096				; 00001000H
	mov	DWORD PTR [rsp+40], 1023		; 000003ffH
	mov	QWORD PTR [rsp+32], r14
	call	QWORD PTR __imp_FormatMessageA

; 442  : 	backend		(error2string(hr),expr,0,0,file,line,function,ignore_always);

	mov	rax, QWORD PTR ignore_always$[rsp]
	xor	r9d, r9d
	mov	r8, rdi
	mov	QWORD PTR [rsp+64], rax
	mov	rax, QWORD PTR function$[rsp]
	mov	rdx, r14
	mov	QWORD PTR [rsp+56], rax
	mov	eax, DWORD PTR line$[rsp]
	mov	rcx, rsi
	mov	DWORD PTR [rsp+48], eax
	mov	QWORD PTR [rsp+40], rbx
	mov	QWORD PTR [rsp+32], 0
	call	?backend@xrDebug@@QEAAXPEBD0000H0AEA_N@Z ; xrDebug::backend

; 443  : }

	mov	rbx, QWORD PTR [rsp+96]
	mov	rsi, QWORD PTR [rsp+104]
	mov	rdi, QWORD PTR [rsp+112]
	add	rsp, 80					; 00000050H
	pop	r14
	ret	0
?error@xrDebug@@QEAAXJPEBD0H0AEA_N@Z ENDP		; xrDebug::error
_TEXT	ENDS
; Function compile flags: /Ogtpy
; File c:\users\nummer\documents\github\olr-3.0\src\xray\xrcore\xrdebugnew.cpp
_TEXT	SEGMENT
this$ = 96
hr$ = 104
expr$ = 112
e2$ = 120
file$ = 128
line$ = 136
function$ = 144
ignore_always$ = 152
?error@xrDebug@@QEAAXJPEBD00H0AEA_N@Z PROC		; xrDebug::error

; 446  : {

$LN7:
	mov	QWORD PTR [rsp+8], rbx
	mov	QWORD PTR [rsp+16], rsi
	mov	QWORD PTR [rsp+24], rdi
	push	r14
	sub	rsp, 80					; 00000050H
	mov	rdi, r8
	mov	rbx, r9
	mov	rsi, rcx

; 434  : 		FormatMessage	(FORMAT_MESSAGE_FROM_SYSTEM,0,code,0,desc_storage,sizeof(desc_storage)-1,0);

	mov	r8d, edx
	mov	QWORD PTR [rsp+48], 0
	lea	r14, OFFSET FLAT:?desc_storage@?1??error2string@xrDebug@@QEAAPEBDJ@Z@4PADA
	xor	r9d, r9d
	xor	edx, edx
	mov	ecx, 4096				; 00001000H
	mov	DWORD PTR [rsp+40], 1023		; 000003ffH
	mov	QWORD PTR [rsp+32], r14
	call	QWORD PTR __imp_FormatMessageA

; 447  : 	backend		(error2string(hr),expr,e2,0,file,line,function,ignore_always);

	mov	rax, QWORD PTR ignore_always$[rsp]
	mov	r9, rbx
	mov	r8, rdi
	mov	QWORD PTR [rsp+64], rax
	mov	rax, QWORD PTR function$[rsp]
	mov	rdx, r14
	mov	QWORD PTR [rsp+56], rax
	mov	eax, DWORD PTR line$[rsp]
	mov	rcx, rsi
	mov	DWORD PTR [rsp+48], eax
	mov	rax, QWORD PTR file$[rsp]
	mov	QWORD PTR [rsp+40], rax
	mov	QWORD PTR [rsp+32], 0
	call	?backend@xrDebug@@QEAAXPEBD0000H0AEA_N@Z ; xrDebug::backend

; 448  : }

	mov	rbx, QWORD PTR [rsp+96]
	mov	rsi, QWORD PTR [rsp+104]
	mov	rdi, QWORD PTR [rsp+112]
	add	rsp, 80					; 00000050H
	pop	r14
	ret	0
?error@xrDebug@@QEAAXJPEBD00H0AEA_N@Z ENDP		; xrDebug::error
_TEXT	ENDS
; Function compile flags: /Ogtpy
; File c:\users\nummer\documents\github\olr-3.0\src\xray\xrcore\xrdebugnew.cpp
_TEXT	SEGMENT
this$ = 8
e1$ = 16
e2$ = 24
e3$ = 32
e4$ = 40
file$ = 48
line$ = 56
function$ = 64
ignore_always$ = 72
?fail@xrDebug@@QEAAXPEBD0000H0AEA_N@Z PROC		; xrDebug::fail

; 472  : 	backend		(e1,e2,e3,e4,file,line,function,ignore_always);

	jmp	?backend@xrDebug@@QEAAXPEBD0000H0AEA_N@Z ; xrDebug::backend
?fail@xrDebug@@QEAAXPEBD0000H0AEA_N@Z ENDP		; xrDebug::fail
_TEXT	ENDS
; Function compile flags: /Ogtpy
; File c:\users\nummer\documents\github\olr-3.0\src\xray\xrcore\xrdebugnew.cpp
_TEXT	SEGMENT
this$ = 8
e1$ = 16
file$ = 24
line$ = 32
function$ = 40
?verify_error@xrDebug@@QEAAXPEBD0H0@Z PROC		; xrDebug::verify_error

; 490  : {	Msg("!VERIFY_FAILED: %s[%d] {%s}  %s", file, line, function, e1); }

	mov	eax, r9d
	mov	r9, QWORD PTR function$[rsp]
	mov	r10, r8
	mov	QWORD PTR function$[rsp], rdx
	lea	rcx, OFFSET FLAT:??_C@_0CA@GIMGAEOF@?$CBVERIFY_FAILED?3?5?$CFs?$FL?$CFd?$FN?5?$HL?$CFs?$HN?5?5?$CFs?$AA@
	mov	r8d, eax
	mov	rdx, r10
	jmp	?Msg@@YAXPEBDZZ				; Msg
?verify_error@xrDebug@@QEAAXPEBD0H0@Z ENDP		; xrDebug::verify_error
_TEXT	ENDS
; Function compile flags: /Ogtpy
; File c:\users\nummer\documents\github\olr-3.0\src\xray\xrcore\xrdebugnew.cpp
; File c:\program files (x86)\microsoft visual studio 12.0\vc\include\xstring
; File c:\users\nummer\documents\github\olr-3.0\src\xray\xrcore\xrdebugnew.cpp
; File c:\program files (x86)\microsoft visual studio 12.0\vc\include\xstring
; File c:\program files (x86)\microsoft visual studio 12.0\vc\include\xstddef
; File c:\users\nummer\documents\github\olr-3.0\src\xray\xrcore\xrdebugnew.cpp
_TEXT	SEGMENT
this$ = 8
e1$ = 16
e2$ = 24
file$ = 32
line$ = 40
function$ = 48
?verify_error@xrDebug@@QEAAXPEBDAEBV?$basic_string@DU?$char_traits@D@std@@V?$allocator@D@2@@std@@0H0@Z PROC ; xrDebug::verify_error
; File c:\program files (x86)\microsoft visual studio 12.0\vc\include\xstring

; 520  : 			: this->_Bx._Buf);

	cmp	QWORD PTR [r8+24], 16
; File c:\users\nummer\documents\github\olr-3.0\src\xray\xrcore\xrdebugnew.cpp

; 492  : {	Msg("!VERIFY_FAILED: %s[%d] {%s}  %s %s", file, line, function, e1, e2.c_str()); }

	mov	rax, r9
; File c:\program files (x86)\microsoft visual studio 12.0\vc\include\xstring

; 520  : 			: this->_Bx._Buf);

	jb	SHORT $LN8@verify_err
; File c:\program files (x86)\microsoft visual studio 12.0\vc\include\xstddef

; 95   : 		reinterpret_cast<const volatile char&>(_Val)))));

	mov	r8, QWORD PTR [r8]
$LN8@verify_err:
; File c:\users\nummer\documents\github\olr-3.0\src\xray\xrcore\xrdebugnew.cpp

; 492  : {	Msg("!VERIFY_FAILED: %s[%d] {%s}  %s %s", file, line, function, e1, e2.c_str()); }

	mov	r9, QWORD PTR function$[rsp]
	mov	QWORD PTR function$[rsp], r8
	mov	r8d, DWORD PTR line$[rsp]
	mov	QWORD PTR line$[rsp], rdx
	lea	rcx, OFFSET FLAT:??_C@_0CD@CDOELBKC@?$CBVERIFY_FAILED?3?5?$CFs?$FL?$CFd?$FN?5?$HL?$CFs?$HN?5?5?$CFs?5@
	mov	rdx, rax
	jmp	?Msg@@YAXPEBDZZ				; Msg
?verify_error@xrDebug@@QEAAXPEBDAEBV?$basic_string@DU?$char_traits@D@std@@V?$allocator@D@2@@std@@0H0@Z ENDP ; xrDebug::verify_error
_TEXT	ENDS
; Function compile flags: /Ogtpy
; File c:\users\nummer\documents\github\olr-3.0\src\xray\xrcore\xrdebugnew.cpp
_TEXT	SEGMENT
this$ = 8
e1$ = 16
e2$ = 24
file$ = 32
line$ = 40
function$ = 48
?verify_error@xrDebug@@QEAAXPEBD00H0@Z PROC		; xrDebug::verify_error

; 494  : {	Msg("!VERIFY_FAILED: %s[%d] {%s}  %s %s", file, line, function, e1, e2); }

	mov	rax, r9
	mov	r9, QWORD PTR function$[rsp]
	mov	QWORD PTR function$[rsp], r8
	mov	r8d, DWORD PTR line$[rsp]
	mov	QWORD PTR line$[rsp], rdx
	lea	rcx, OFFSET FLAT:??_C@_0CD@CDOELBKC@?$CBVERIFY_FAILED?3?5?$CFs?$FL?$CFd?$FN?5?$HL?$CFs?$HN?5?5?$CFs?5@
	mov	rdx, rax
	jmp	?Msg@@YAXPEBDZZ				; Msg
?verify_error@xrDebug@@QEAAXPEBD00H0@Z ENDP		; xrDebug::verify_error
_TEXT	ENDS
; Function compile flags: /Ogtpy
; File c:\users\nummer\documents\github\olr-3.0\src\xray\xrcore\xrdebugnew.cpp
_TEXT	SEGMENT
this$ = 80
e1$ = 88
e2$ = 96
e3$ = 104
file$ = 112
line$ = 120
function$ = 128
?verify_error@xrDebug@@QEAAXPEBD000H0@Z PROC		; xrDebug::verify_error

; 496  : {	Msg("!VERIFY_FAILED: %s[%d] {%s}  %s %s %s", file, line, function, e1, e2, e3); }

$LN4:
	sub	rsp, 72					; 00000048H
	mov	QWORD PTR [rsp+48], r9
	mov	r9, QWORD PTR function$[rsp]
	mov	QWORD PTR [rsp+40], r8
	mov	r8d, DWORD PTR line$[rsp]
	mov	QWORD PTR [rsp+32], rdx
	mov	rdx, QWORD PTR file$[rsp]
	lea	rcx, OFFSET FLAT:??_C@_0CG@BKODDBLF@?$CBVERIFY_FAILED?3?5?$CFs?$FL?$CFd?$FN?5?$HL?$CFs?$HN?5?5?$CFs?5@
	call	?Msg@@YAXPEBDZZ				; Msg
	add	rsp, 72					; 00000048H
	ret	0
?verify_error@xrDebug@@QEAAXPEBD000H0@Z ENDP		; xrDebug::verify_error
_TEXT	ENDS
; Function compile flags: /Ogtpy
; File c:\users\nummer\documents\github\olr-3.0\src\xray\xrcore\xrdebugnew.cpp
_TEXT	SEGMENT
this$ = 80
e1$ = 88
e2$ = 96
e3$ = 104
e4$ = 112
file$ = 120
line$ = 128
function$ = 136
?verify_error@xrDebug@@QEAAXPEBD0000H0@Z PROC		; xrDebug::verify_error

; 498  : {	Msg("!VERIFY_FAILED: %s[%d] {%s}  %s %s %s %s", file, line, function, e1, e2, e3, e4); }

$LN4:
	sub	rsp, 72					; 00000048H
	mov	rax, QWORD PTR e4$[rsp]
	lea	rcx, OFFSET FLAT:??_C@_0CJ@KGGNIJJB@?$CBVERIFY_FAILED?3?5?$CFs?$FL?$CFd?$FN?5?$HL?$CFs?$HN?5?5?$CFs?5@
	mov	QWORD PTR [rsp+56], rax
	mov	QWORD PTR [rsp+48], r9
	mov	r9, QWORD PTR function$[rsp]
	mov	QWORD PTR [rsp+40], r8
	mov	r8d, DWORD PTR line$[rsp]
	mov	QWORD PTR [rsp+32], rdx
	mov	rdx, QWORD PTR file$[rsp]
	call	?Msg@@YAXPEBDZZ				; Msg
	add	rsp, 72					; 00000048H
	ret	0
?verify_error@xrDebug@@QEAAXPEBD0000H0@Z ENDP		; xrDebug::verify_error
_TEXT	ENDS
; Function compile flags: /Ogtpy
; File c:\users\nummer\documents\github\olr-3.0\src\xray\xrcore\xrdebugnew.cpp
_TEXT	SEGMENT
this$ = 96
e1$ = 104
e2$ = 112
e3$ = 120
e4$ = 128
e5$ = 136
file$ = 144
line$ = 152
function$ = 160
?verify_error@xrDebug@@QEAAXPEBD00000H0@Z PROC		; xrDebug::verify_error

; 500  : {	Msg("!VERIFY_FAILED: %s[%d] {%s}  %s %s %s %s %s", file, line, function, e1, e2, e3, e4, e5); }

$LN4:
	sub	rsp, 88					; 00000058H
	mov	rax, QWORD PTR e5$[rsp]
	lea	rcx, OFFSET FLAT:??_C@_0CM@LPDFONIG@?$CBVERIFY_FAILED?3?5?$CFs?$FL?$CFd?$FN?5?$HL?$CFs?$HN?5?5?$CFs?5@
	mov	QWORD PTR [rsp+64], rax
	mov	rax, QWORD PTR e4$[rsp]
	mov	QWORD PTR [rsp+56], rax
	mov	QWORD PTR [rsp+48], r9
	mov	r9, QWORD PTR function$[rsp]
	mov	QWORD PTR [rsp+40], r8
	mov	r8d, DWORD PTR line$[rsp]
	mov	QWORD PTR [rsp+32], rdx
	mov	rdx, QWORD PTR file$[rsp]
	call	?Msg@@YAXPEBDZZ				; Msg
	add	rsp, 88					; 00000058H
	ret	0
?verify_error@xrDebug@@QEAAXPEBD00000H0@Z ENDP		; xrDebug::verify_error
_TEXT	ENDS
; Function compile flags: /Ogtpy
; File c:\users\nummer\documents\github\olr-3.0\src\xray\xrcore\xrdebugnew.cpp
; File c:\users\nummer\documents\github\olr-3.0\src\xray\xrcore\memory_usage.cpp
; File c:\users\nummer\documents\github\olr-3.0\src\xray\xrcore\xrdebugnew.cpp
; File c:\users\nummer\documents\github\olr-3.0\src\xray\xrcore\memory_usage.cpp
; File c:\users\nummer\documents\github\olr-3.0\src\xray\xrcore\xrdebugnew.cpp
; File c:\users\nummer\documents\github\olr-3.0\src\xray\xrcore\memory_usage.cpp
; File c:\users\nummer\documents\github\olr-3.0\src\xray\xrcore\xrdebugnew.cpp
; File c:\users\nummer\documents\github\olr-3.0\src\xray\xrcore\memory_usage.cpp
; File c:\users\nummer\documents\github\olr-3.0\src\xray\xrcore\xrdebugnew.cpp
_TEXT	SEGMENT
hinfo$1 = 48
hinfo$2 = 48
size$ = 112
?out_of_memory_handler@@YAH_K@Z PROC			; out_of_memory_handler

; 504  : {

$LN42:
	mov	QWORD PTR [rsp+8], rbx
	mov	QWORD PTR [rsp+16], rbp
	mov	QWORD PTR [rsp+24], rsi
	mov	QWORD PTR [rsp+32], rdi
	push	r12
	push	r14
	push	r15
	sub	rsp, 80					; 00000050H
	mov	r14, rcx

; 505  : 	Memory.mem_compact		();

	lea	rcx, OFFSET FLAT:?Memory@@3VxrMemory@@A	; Memory
	call	?mem_compact@xrMemory@@QEAAXXZ		; xrMemory::mem_compact

; 507  : 	u32						crt_heap		= mem_usage_impl((HANDLE)_get_heap_handle(),0,0);

	call	QWORD PTR __imp__get_heap_handle
; File c:\users\nummer\documents\github\olr-3.0\src\xray\xrcore\memory_usage.cpp

; 127  : 	hinfo._pentry	= NULL;

	xor	ebp, ebp

; 131  : 	while( ( heapstatus = heap_walk( heap_handle, &hinfo ) ) == _HEAPOK )

	lea	rdx, QWORD PTR hinfo$2[rsp]
	mov	rcx, rax
	mov	QWORD PTR hinfo$2[rsp], rbp
; File c:\users\nummer\documents\github\olr-3.0\src\xray\xrcore\xrdebugnew.cpp

; 507  : 	u32						crt_heap		= mem_usage_impl((HANDLE)_get_heap_handle(),0,0);

	mov	rbx, rax
; File c:\users\nummer\documents\github\olr-3.0\src\xray\xrcore\memory_usage.cpp

; 128  : 	size_t	total	= 0;

	mov	esi, ebp

; 131  : 	while( ( heapstatus = heap_walk( heap_handle, &hinfo ) ) == _HEAPOK )

	call	?heap_walk@@YAHPEAXPEAU_heapinfo@@@Z	; heap_walk
	cmp	eax, -2
	jne	SHORT $LN14@out_of_mem
$LL15@out_of_mem:

; 132  : 	{ 
; 133  : 		if (hinfo._useflag == _USEDENTRY)	{

	cmp	DWORD PTR hinfo$2[rsp+16], 1
	jne	SHORT $LN13@out_of_mem

; 134  : 			total		+= hinfo._size;

	add	rsi, QWORD PTR hinfo$2[rsp+8]
$LN13@out_of_mem:

; 131  : 	while( ( heapstatus = heap_walk( heap_handle, &hinfo ) ) == _HEAPOK )

	lea	rdx, QWORD PTR hinfo$2[rsp]
	mov	rcx, rbx
	call	?heap_walk@@YAHPEAXPEAU_heapinfo@@@Z	; heap_walk
	cmp	eax, -2
	je	SHORT $LL15@out_of_mem
$LN14@out_of_mem:

; 135  : 			blocks_used	+= 1;
; 136  : 		} else {
; 137  : 			blocks_free	+= 1;
; 138  : 		}
; 139  : 	}
; 140  : 	if (pBlocksFree)	*pBlocksFree= 1024*(u32)blocks_free;
; 141  : 	if (pBlocksUsed)	*pBlocksUsed= 1024*(u32)blocks_used;
; 142  : 
; 143  : 	switch( heapstatus )

	lea	r15, OFFSET FLAT:??_C@_0BB@CIDGGKDN@bad?5node?5in?5heap?$AA@
	lea	rdi, OFFSET FLAT:??_C@_0BE@JDFKFEDA@bad?5pointer?5to?5heap?$AA@
	lea	r12, OFFSET FLAT:??_C@_0BC@EKDFDBII@bad?5start?5of?5heap?$AA@
	cmp	eax, -6
	je	SHORT $LN5@out_of_mem
	cmp	eax, -4
	je	SHORT $LN3@out_of_mem
	cmp	eax, -3
	jne	SHORT $LN8@out_of_mem

; 151  : 		break;
; 152  : 	case _HEAPBADBEGIN:
; 153  : 		FATAL			("bad start of heap");

	mov	QWORD PTR [rsp+32], r12
	mov	r8d, 153				; 00000099H

; 154  : 		break;

	jmp	SHORT $LN39@out_of_mem
$LN3@out_of_mem:

; 155  : 	case _HEAPBADNODE:
; 156  : 		FATAL			("bad node in heap");

	mov	QWORD PTR [rsp+32], r15
	mov	r8d, 156				; 0000009cH
	jmp	SHORT $LN39@out_of_mem
$LN5@out_of_mem:

; 144  : 	{
; 145  : 	case _HEAPEMPTY:
; 146  : 		break;
; 147  : 	case _HEAPEND:
; 148  : 		break;
; 149  : 	case _HEAPBADPTR:
; 150  : 		FATAL			("bad pointer to heap");

	mov	QWORD PTR [rsp+32], rdi
	mov	r8d, 150				; 00000096H
$LN39@out_of_mem:
	lea	r9, OFFSET FLAT:??_C@_0P@HOOOAGPI@mem_usage_impl?$AA@
	lea	rdx, OFFSET FLAT:??_C@_0BB@HKMNIPC@memory_usage?4cpp?$AA@
	lea	rcx, OFFSET FLAT:?Debug@@3VxrDebug@@A	; Debug
	call	?fatal@xrDebug@@QEAAXPEBDH00ZZ		; xrDebug::fatal
$LN8@out_of_mem:
; File c:\users\nummer\documents\github\olr-3.0\src\xray\xrcore\xrdebugnew.cpp

; 511  : 	u32						process_heap	= mem_usage_impl(GetProcessHeap(),0,0);

	call	QWORD PTR __imp_GetProcessHeap
; File c:\users\nummer\documents\github\olr-3.0\src\xray\xrcore\memory_usage.cpp

; 131  : 	while( ( heapstatus = heap_walk( heap_handle, &hinfo ) ) == _HEAPOK )

	lea	rdx, QWORD PTR hinfo$1[rsp]
	mov	QWORD PTR hinfo$1[rsp], rbp
	mov	rcx, rax
; File c:\users\nummer\documents\github\olr-3.0\src\xray\xrcore\xrdebugnew.cpp

; 511  : 	u32						process_heap	= mem_usage_impl(GetProcessHeap(),0,0);

	mov	rbx, rax
; File c:\users\nummer\documents\github\olr-3.0\src\xray\xrcore\memory_usage.cpp

; 131  : 	while( ( heapstatus = heap_walk( heap_handle, &hinfo ) ) == _HEAPOK )

	call	?heap_walk@@YAHPEAXPEAU_heapinfo@@@Z	; heap_walk
	cmp	eax, -2
	jne	SHORT $LN29@out_of_mem
$LL30@out_of_mem:

; 132  : 	{ 
; 133  : 		if (hinfo._useflag == _USEDENTRY)	{

	cmp	DWORD PTR hinfo$1[rsp+16], 1
	jne	SHORT $LN28@out_of_mem

; 134  : 			total		+= hinfo._size;

	add	rbp, QWORD PTR hinfo$1[rsp+8]
$LN28@out_of_mem:

; 131  : 	while( ( heapstatus = heap_walk( heap_handle, &hinfo ) ) == _HEAPOK )

	lea	rdx, QWORD PTR hinfo$1[rsp]
	mov	rcx, rbx
	call	?heap_walk@@YAHPEAXPEAU_heapinfo@@@Z	; heap_walk
	cmp	eax, -2
	je	SHORT $LL30@out_of_mem
$LN29@out_of_mem:

; 135  : 			blocks_used	+= 1;
; 136  : 		} else {
; 137  : 			blocks_free	+= 1;
; 138  : 		}
; 139  : 	}
; 140  : 	if (pBlocksFree)	*pBlocksFree= 1024*(u32)blocks_free;
; 141  : 	if (pBlocksUsed)	*pBlocksUsed= 1024*(u32)blocks_used;
; 142  : 
; 143  : 	switch( heapstatus )

	cmp	eax, -6
	je	SHORT $LN20@out_of_mem
	cmp	eax, -4
	je	SHORT $LN18@out_of_mem
	cmp	eax, -3
	jne	SHORT $LN23@out_of_mem

; 151  : 		break;
; 152  : 	case _HEAPBADBEGIN:
; 153  : 		FATAL			("bad start of heap");

	mov	QWORD PTR [rsp+32], r12
	mov	r8d, 153				; 00000099H

; 154  : 		break;

	jmp	SHORT $LN40@out_of_mem
$LN18@out_of_mem:

; 155  : 	case _HEAPBADNODE:
; 156  : 		FATAL			("bad node in heap");

	mov	QWORD PTR [rsp+32], r15
	mov	r8d, 156				; 0000009cH
	jmp	SHORT $LN40@out_of_mem
$LN20@out_of_mem:

; 144  : 	{
; 145  : 	case _HEAPEMPTY:
; 146  : 		break;
; 147  : 	case _HEAPEND:
; 148  : 		break;
; 149  : 	case _HEAPBADPTR:
; 150  : 		FATAL			("bad pointer to heap");

	mov	QWORD PTR [rsp+32], rdi
	mov	r8d, 150				; 00000096H
$LN40@out_of_mem:
	lea	r9, OFFSET FLAT:??_C@_0P@HOOOAGPI@mem_usage_impl?$AA@
	lea	rdx, OFFSET FLAT:??_C@_0BB@HKMNIPC@memory_usage?4cpp?$AA@
	lea	rcx, OFFSET FLAT:?Debug@@3VxrDebug@@A	; Debug
	call	?fatal@xrDebug@@QEAAXPEBDH00ZZ		; xrDebug::fatal
$LN23@out_of_mem:
; File c:\users\nummer\documents\github\olr-3.0\src\xray\xrcore\xrdebugnew.cpp

; 512  : 	int						eco_strings		= (int)g_pStringContainer->stat_economy			();

	mov	rcx, QWORD PTR ?g_pStringContainer@@3PEAVstr_container@@EA ; g_pStringContainer
	call	?stat_economy@str_container@@QEAAIXZ	; str_container::stat_economy

; 513  : 	int						eco_smem		= (int)g_pSharedMemoryContainer->stat_economy	();

	mov	rcx, QWORD PTR ?g_pSharedMemoryContainer@@3PEAVsmem_container@@EA ; g_pSharedMemoryContainer
	mov	ebx, eax
	call	?stat_economy@smem_container@@QEAAIXZ	; smem_container::stat_economy

; 514  : 	Msg						("* [x-ray]: crt heap[%d K], process heap[%d K]",crt_heap/1024,process_heap/1024);

	shr	ebp, 10
	shr	esi, 10
	lea	rcx, OFFSET FLAT:??_C@_0CO@JONIMMBM@?$CK?5?$FLx?9ray?$FN?3?5crt?5heap?$FL?$CFd?5K?$FN?0?5proce@
	mov	r8d, ebp
	mov	edx, esi
	mov	edi, eax
	call	?Msg@@YAXPEBDZZ				; Msg

; 515  : 	Msg						("* [x-ray]: economy: strings[%d K], smem[%d K]",eco_strings/1024,eco_smem);

	mov	eax, ebx
	lea	rcx, OFFSET FLAT:??_C@_0CO@IEOAMGIK@?$CK?5?$FLx?9ray?$FN?3?5economy?3?5strings?$FL?$CFd?5K@
	cdq
	mov	r8d, edi
	and	edx, 1023				; 000003ffH
	add	edx, eax
	sar	edx, 10
	call	?Msg@@YAXPEBDZZ				; Msg

; 516  : 	Debug.fatal				(DEBUG_INFO,"Out of memory. Memory request: %d K",size/1024);

	lea	rax, OFFSET FLAT:??_C@_0CE@EPEEKFLF@Out?5of?5memory?4?5Memory?5request?3?5?$CF@
	shr	r14, 10
	lea	r9, OFFSET FLAT:??_C@_0BG@IFJHIFJP@out_of_memory_handler?$AA@
	lea	rdx, OFFSET FLAT:??_C@_0P@NIPFKGHM@xrDebugNew?4cpp?$AA@
	lea	rcx, OFFSET FLAT:?Debug@@3VxrDebug@@A	; Debug
	mov	r8d, 516				; 00000204H
	mov	QWORD PTR [rsp+40], r14
	mov	QWORD PTR [rsp+32], rax
	call	?fatal@xrDebug@@QEAAXPEBDH00ZZ		; xrDebug::fatal

; 517  : 	return					1;
; 518  : }

	lea	r11, QWORD PTR [rsp+80]
	mov	eax, 1
	mov	rbx, QWORD PTR [r11+32]
	mov	rbp, QWORD PTR [r11+40]
	mov	rsi, QWORD PTR [r11+48]
	mov	rdi, QWORD PTR [r11+56]
	mov	rsp, r11
	pop	r15
	pop	r14
	pop	r12
	ret	0
?out_of_memory_handler@@YAH_K@Z ENDP			; out_of_memory_handler
_TEXT	ENDS
; Function compile flags: /Ogtpy
; File c:\users\nummer\documents\github\olr-3.0\src\xray\xrcore\xrdebugnew.cpp
; File c:\program files (x86)\microsoft visual studio 12.0\vc\include\string.h
; File c:\users\nummer\documents\github\olr-3.0\src\xray\xrcore\xrdebugnew.cpp
; File c:\users\nummer\documents\github\olr-3.0\src\xray\xrcore\xrmemory.h
; File c:\users\nummer\documents\github\olr-3.0\src\xray\xrcore\xrdebugnew.cpp
; File c:\users\nummer\documents\github\olr-3.0\src\xray\xrcore\xrmemory.h
; File c:\users\nummer\documents\github\olr-3.0\src\xray\xrcore\xrdebugnew.cpp
; File c:\users\nummer\documents\github\olr-3.0\src\xray\xrcore\xrmemory.h
; File c:\users\nummer\documents\github\olr-3.0\src\xray\xrcore\xrdebugnew.cpp
_TEXT	SEGMENT
szDbgHelpPath$ = 32
nope$1 = 592
len$2 = 600
info$3 = 608
ver_data$4 = 616
?LoadDebugHlp@@YAPEAUHINSTANCE__@@XZ PROC		; LoadDebugHlp

; 619  : {

$LN17:
	push	rbx
	sub	rsp, 576				; 00000240H

; 620  : 	HMODULE hDll = GetModuleHandle ("dbghelp.dll");

	lea	rcx, OFFSET FLAT:??_C@_0M@OOEJBPPK@dbghelp?4dll?$AA@
	call	QWORD PTR __imp_GetModuleHandleA
	mov	rbx, rax

; 621  : 	if (hDll)

	test	rax, rax
	jne	$LN9@LoadDebugH

; 622  : 		return hDll;
; 623  : 
; 624  : 	string_path		szDbgHelpPath;
; 625  : 
; 626  : 	if (GetModuleFileName(NULL, szDbgHelpPath, _MAX_PATH))

	lea	rdx, QWORD PTR szDbgHelpPath$[rsp]
	mov	r8d, 260				; 00000104H
	xor	ecx, ecx
	mov	QWORD PTR [rsp+560], rdi
	call	QWORD PTR __imp_GetModuleFileNameA
	test	eax, eax
	je	$LN15@LoadDebugH
; File c:\program files (x86)\microsoft visual studio 12.0\vc\include\string.h

; 222  :         { return (char*)strchr((const char*)_Str, _Ch); }

	lea	edx, QWORD PTR [rbx+92]
	lea	rcx, QWORD PTR szDbgHelpPath$[rsp]
	call	QWORD PTR __imp_strchr
; File c:\users\nummer\documents\github\olr-3.0\src\xray\xrcore\xrdebugnew.cpp

; 629  : 		if (pSlash)

	test	rax, rax
	je	$LN15@LoadDebugH

; 630  : 		{
; 631  : 			strcpy(pSlash + 1, "DBGHELP.DLL");

	movsdx	xmm0, QWORD PTR ??_C@_0M@IBNEFJCG@DBGHELP?4DLL?$AA@

; 632  : 			// alpet:   , ..         
; 633  : 			DWORD nope;
; 634  : 			DWORD size = GetFileVersionInfoSize(szDbgHelpPath, &nope);

	lea	rdx, QWORD PTR nope$1[rsp]
	movsdx	QWORD PTR [rax+1], xmm0
	mov	ecx, DWORD PTR ??_C@_0M@IBNEFJCG@DBGHELP?4DLL?$AA@+8
	mov	DWORD PTR [rax+9], ecx
	lea	rcx, QWORD PTR szDbgHelpPath$[rsp]
	call	QWORD PTR __imp_GetFileVersionInfoSizeA
	mov	edi, eax

; 635  : 			if (size > 0)

	test	eax, eax
	je	$LN15@LoadDebugH
; File c:\users\nummer\documents\github\olr-3.0\src\xray\xrcore\xrmemory.h

; 110  : 	IC void*	xr_malloc	(size_t size)			{	return	Memory.mem_alloc(size);					}

	lea	rcx, OFFSET FLAT:?Memory@@3VxrMemory@@A	; Memory
; File c:\users\nummer\documents\github\olr-3.0\src\xray\xrcore\xrdebugnew.cpp

; 637  : 				LPVOID ver_data = xr_malloc(size);

	mov	edx, edi
	mov	QWORD PTR [rsp+568], rsi
; File c:\users\nummer\documents\github\olr-3.0\src\xray\xrcore\xrmemory.h

; 110  : 	IC void*	xr_malloc	(size_t size)			{	return	Memory.mem_alloc(size);					}

	call	?mem_alloc@xrMemory@@QEAAPEAX_K@Z	; xrMemory::mem_alloc
; File c:\users\nummer\documents\github\olr-3.0\src\xray\xrcore\xrdebugnew.cpp

; 638  : 				if (GetFileVersionInfo(szDbgHelpPath, NULL, size, ver_data))

	lea	rcx, QWORD PTR szDbgHelpPath$[rsp]
	mov	r8d, edi
	mov	r9, rax
	xor	edx, edx
; File c:\users\nummer\documents\github\olr-3.0\src\xray\xrcore\xrmemory.h

; 110  : 	IC void*	xr_malloc	(size_t size)			{	return	Memory.mem_alloc(size);					}

	mov	rsi, rax
	mov	QWORD PTR ver_data$4[rsp], rax
; File c:\users\nummer\documents\github\olr-3.0\src\xray\xrcore\xrdebugnew.cpp

; 638  : 				if (GetFileVersionInfo(szDbgHelpPath, NULL, size, ver_data))

	call	QWORD PTR __imp_GetFileVersionInfoA
	test	eax, eax
	je	SHORT $LN2@LoadDebugH

; 639  : 				{
; 640  : 					VS_FIXEDFILEINFO *info = NULL;
; 641  : 					UINT len;
; 642  : 					VerQueryValue(ver_data, "\\", (LPVOID*)&info, &len);

	lea	r9, QWORD PTR len$2[rsp]
	lea	r8, QWORD PTR info$3[rsp]
	lea	rdx, OFFSET FLAT:??_C@_01KICIPPFI@?2?$AA@
	mov	rcx, rsi
	mov	QWORD PTR info$3[rsp], rbx
	call	QWORD PTR __imp_VerQueryValueA

; 643  : 					if (info && info->dwFileVersionMS >= 6)

	mov	rax, QWORD PTR info$3[rsp]
	test	rax, rax
	je	SHORT $LN3@LoadDebugH
	cmp	DWORD PTR [rax+8], 6
	jb	SHORT $LN3@LoadDebugH

; 644  : 						hDll = ::LoadLibrary(szDbgHelpPath);

	lea	rcx, QWORD PTR szDbgHelpPath$[rsp]
	call	QWORD PTR __imp_LoadLibraryA
	mov	rbx, rax

; 645  : 					else

	jmp	SHORT $LN2@LoadDebugH
$LN3@LoadDebugH:

; 646  : 						Msg("!#ERROR: dbghelp.dll version is old for this build.");

	lea	rcx, OFFSET FLAT:??_C@_0DE@HNLBHCBO@?$CB?$CDERROR?3?5dbghelp?4dll?5version?5is?5@
	call	?Msg@@YAXPEBDZZ				; Msg
$LN2@LoadDebugH:

; 647  : 				}
; 648  : 
; 649  : 				xr_free(ver_data);

	lea	rcx, QWORD PTR ver_data$4[rsp]
	call	??$xr_free@X@@YAXAEAPEAX@Z		; xr_free<void>
	mov	rsi, QWORD PTR [rsp+568]

; 650  : 			}
; 651  : 
; 652  : 
; 653  : 
; 654  : 		}
; 655  : 	}
; 656  : 
; 657  : 	if (hDll == NULL)

	test	rbx, rbx
	jne	SHORT $LN1@LoadDebugH
$LN15@LoadDebugH:

; 658  : 	{
; 659  : 		// load any version we can
; 660  : 		hDll = ::LoadLibrary("DBGHELP.DLL");

	lea	rcx, OFFSET FLAT:??_C@_0M@IBNEFJCG@DBGHELP?4DLL?$AA@
	call	QWORD PTR __imp_LoadLibraryA
	mov	rbx, rax
$LN1@LoadDebugH:

; 661  : 	}
; 662  : 
; 663  : 	return hDll;

	mov	rdi, QWORD PTR [rsp+560]
	mov	rax, rbx
$LN9@LoadDebugH:

; 664  : }

	add	rsp, 576				; 00000240H
	pop	rbx
	ret	0
?LoadDebugHlp@@YAPEAUHINSTANCE__@@XZ ENDP		; LoadDebugHlp
_TEXT	ENDS
; Function compile flags: /Ogtpy
; File c:\users\nummer\documents\github\olr-3.0\src\xray\xrcore\xrdebugnew.cpp
; File c:\users\nummer\documents\github\olr-3.0\src\xray\xrcore\_std_extensions.h
; File c:\users\nummer\documents\github\olr-3.0\src\xray\xrcore\log.cpp
; File c:\users\nummer\documents\github\olr-3.0\src\xray\xrcore\xrdebugnew.cpp
_TEXT	SEGMENT
ExInfo$1 = 64
szDumpPath$2 = 80
t_stemp$3 = 608
szScratch$4 = 672
temp$5 = 1200
log_file_name$6 = 1728
pExceptionInfo$ = 2304
pDump$7 = 2312
?save_mini_dump@@YAXPEAU_EXCEPTION_POINTERS@@@Z PROC	; save_mini_dump

; 667  : {

$LN45:
	mov	QWORD PTR [rsp+24], rbx
	mov	QWORD PTR [rsp+8], rcx
	push	rsi
	push	rdi
	push	r12
	push	r14
	push	r15
	sub	rsp, 2256				; 000008d0H
	mov	r12, rcx

; 668  : 	// firstly see if dbghelp.dll is around and has the function we need
; 669  : 	// look next to the EXE first, as the one in System32 might be old 
; 670  : 	// (e.g. Windows 2000)
; 671  : 	LPCTSTR szResult = NULL;
; 672  : 	HMODULE hDll = LoadDebugHlp();

	call	?LoadDebugHlp@@YAPEAUHINSTANCE__@@XZ	; LoadDebugHlp

; 673  : 
; 674  : 	if (hDll)

	test	rax, rax
	je	$LN3@save_mini_

; 675  : 	{
; 676  : 		MINIDUMPWRITEDUMP pDump = (MINIDUMPWRITEDUMP)::GetProcAddress( hDll, "MiniDumpWriteDump" );

	lea	rdx, OFFSET FLAT:??_C@_0BC@MNIKNFKD@MiniDumpWriteDump?$AA@
	mov	rcx, rax
	call	QWORD PTR __imp_GetProcAddress
	mov	r15, rax
	mov	QWORD PTR pDump$7[rsp], rax

; 677  : 		if (pDump)

	test	rax, rax
	je	$LN3@save_mini_

; 678  : 		{
; 679  : 			string_path	szDumpPath;
; 680  : 			string_path	szScratch;
; 681  : 			string64	t_stemp;
; 682  : 
; 683  : 			timestamp	(t_stemp);

	lea	rcx, QWORD PTR t_stemp$3[rsp]
	call	?timestamp@@YAPEADAEAY0EA@D@Z		; timestamp

; 684  : 			strcpy		( szDumpPath, Core.ApplicationName);

	xor	r14d, r14d
	mov	edx, r14d
	lea	rax, OFFSET FLAT:?Core@@3VxrCore@@A	; Core
	npad	8
$LL14@save_mini_:
	movzx	ecx, BYTE PTR [rdx+rax]
	mov	BYTE PTR szDumpPath$2[rsp+rdx], cl
	lea	rdx, QWORD PTR [rdx+1]
	test	cl, cl
	jne	SHORT $LL14@save_mini_

; 685  : 			strcat		( szDumpPath, "_"					);

	lea	rcx, QWORD PTR szDumpPath$2[rsp]
	dec	rcx
	npad	8
$LL44@save_mini_:
	lea	rcx, QWORD PTR [rcx+1]
	cmp	BYTE PTR [rcx], r14b
	jne	SHORT $LL44@save_mini_
	movzx	eax, WORD PTR ??_C@_01IDAFKMJL@_?$AA@
	mov	WORD PTR [rcx], ax

; 686  : 			strcat		( szDumpPath, Core.UserName			);

	lea	rdx, QWORD PTR szDumpPath$2[rsp]
	dec	rdx
	npad	5
$LL42@save_mini_:
	lea	rdx, QWORD PTR [rdx+1]
	cmp	BYTE PTR [rdx], r14b
	jne	SHORT $LL42@save_mini_
	lea	r9, OFFSET FLAT:?Core@@3VxrCore@@A+1104
	xor	r8d, r8d
	npad	13
$LL43@save_mini_:
	movzx	ecx, BYTE PTR [r9+r8]
	mov	BYTE PTR [rdx+r8], cl
	lea	r8, QWORD PTR [r8+1]
	test	cl, cl
	jne	SHORT $LL43@save_mini_

; 687  : 			strcat		( szDumpPath, "_"					);

	lea	rcx, QWORD PTR szDumpPath$2[rsp]
	dec	rcx
	npad	7
$LL41@save_mini_:
	lea	rcx, QWORD PTR [rcx+1]
	cmp	BYTE PTR [rcx], r14b
	jne	SHORT $LL41@save_mini_
	mov	WORD PTR [rcx], ax

; 688  : 			strcat		( szDumpPath, t_stemp				);

	lea	rcx, QWORD PTR szDumpPath$2[rsp]
	dec	rcx
$LL39@save_mini_:
	lea	rcx, QWORD PTR [rcx+1]
	cmp	BYTE PTR [rcx], r14b
	jne	SHORT $LL39@save_mini_
	lea	r8, QWORD PTR t_stemp$3[rsp]
	xor	edx, edx
	npad	9
$LL40@save_mini_:
	movzx	eax, BYTE PTR [r8+rdx]
	mov	BYTE PTR [rcx+rdx], al
	lea	rdx, QWORD PTR [rdx+1]
	test	al, al
	jne	SHORT $LL40@save_mini_

; 689  : 			strcat		( szDumpPath, ".mdmp"				);

	lea	rcx, QWORD PTR szDumpPath$2[rsp]
	dec	rcx
	npad	8
$LL38@save_mini_:
	lea	rcx, QWORD PTR [rcx+1]
	cmp	BYTE PTR [rcx], r14b
	jne	SHORT $LL38@save_mini_
	mov	eax, DWORD PTR ??_C@_05MJENMIDH@?4mdmp?$AA@
	mov	DWORD PTR [rcx], eax
	movzx	eax, WORD PTR ??_C@_05MJENMIDH@?4mdmp?$AA@+4
	mov	WORD PTR [rcx+4], ax

; 690  : 
; 691  : 			__try {
; 692  : 				if (FS.path_exist("$logs$"))

	lea	rdx, OFFSET FLAT:??_C@_06DMJLOKKG@$logs$?$AA@
	mov	rbx, QWORD PTR ?xr_FS@@3PEAVCLocatorAPI@@EA ; xr_FS
	mov	rcx, rbx
	call	?path_exist@CLocatorAPI@@QEAA_NPEBD@Z	; CLocatorAPI::path_exist
	test	al, al
	je	SHORT $LN8@save_mini_

; 693  : 					FS.update_path	(szDumpPath,"$logs$",szDumpPath);

	lea	r9, QWORD PTR szDumpPath$2[rsp]
	lea	r8, OFFSET FLAT:??_C@_06DMJLOKKG@$logs$?$AA@
	lea	rdx, QWORD PTR szDumpPath$2[rsp]
	mov	rcx, rbx
	call	?update_path@CLocatorAPI@@QEAAPEBDAEAY0CAI@DPEBD1@Z ; CLocatorAPI::update_path
$LN8@save_mini_:

; 694  : 			}

	jmp	$LN20@save_mini_
$LN18@save_mini_:

; 695  :             __except( EXCEPTION_EXECUTE_HANDLER ) {
; 696  : 				string_path	temp;
; 697  : 				strcpy		(temp,szDumpPath);

	xor	ecx, ecx
	npad	10
$LL15@save_mini_:
	movzx	eax, BYTE PTR szDumpPath$2[rsp+rcx]
	mov	BYTE PTR temp$5[rsp+rcx], al
	lea	rcx, QWORD PTR [rcx+1]
	test	al, al
	jne	SHORT $LL15@save_mini_

; 698  : 				strcpy		(szDumpPath,"logs/");

	mov	eax, DWORD PTR ??_C@_05MIDDFADP@logs?1?$AA@
	mov	DWORD PTR szDumpPath$2[rsp], eax
	movzx	eax, WORD PTR ??_C@_05MIDDFADP@logs?1?$AA@+4
	mov	WORD PTR szDumpPath$2[rsp+4], ax

; 699  : 				strcat		(szDumpPath,temp);

	lea	rcx, QWORD PTR szDumpPath$2[rsp]
	dec	rcx
$LL36@save_mini_:
	lea	rcx, QWORD PTR [rcx+1]
	cmp	BYTE PTR [rcx], 0
	jne	SHORT $LL36@save_mini_
	lea	r8, QWORD PTR temp$5[rsp]
	xor	edx, edx
	npad	11
$LL37@save_mini_:
	movzx	eax, BYTE PTR [r8+rdx]
	mov	BYTE PTR [rcx+rdx], al
	lea	rdx, QWORD PTR [rdx+1]
	test	al, al
	jne	SHORT $LL37@save_mini_
	xor	r14d, r14d
	mov	r12, QWORD PTR pExceptionInfo$[rsp]
	mov	r15, QWORD PTR pDump$7[rsp]
$LN20@save_mini_:
; File c:\users\nummer\documents\github\olr-3.0\src\xray\xrcore\_std_extensions.h

; 270  : {	return (u32)strlen(S);			}

	lea	rax, QWORD PTR szDumpPath$2[rsp]
	or	rsi, -1
	mov	rdi, rsi
	npad	1
$LL35@save_mini_:
	inc	rdi
	cmp	BYTE PTR [rax+rdi], 0
	jne	SHORT $LL35@save_mini_

; 173  : 	strcpy_s(dest,dest_sz,S1);

	lea	r8, QWORD PTR szDumpPath$2[rsp]
	mov	ebx, 520				; 00000208H
	mov	edx, ebx
	lea	rcx, QWORD PTR log_file_name$6[rsp]
	call	QWORD PTR __imp_strcpy_s

; 174  : 	strcat_s(dest,dest_sz-l1,S2);

	sub	ebx, edi
	mov	edx, ebx
	lea	r8, OFFSET FLAT:??_C@_04FPOLKAEB@?4log?$AA@
	lea	rcx, QWORD PTR log_file_name$6[rsp]
	call	QWORD PTR __imp_strcat_s
; File c:\users\nummer\documents\github\olr-3.0\src\xray\xrcore\log.cpp

; 33   : 	if (LogWriter)

	mov	rcx, QWORD PTR ?LogWriter@@3PEAVIWriter@@EA ; LogWriter
	test	rcx, rcx
	je	SHORT $LN25@save_mini_

; 34   : 		LogWriter->flush();

	mov	rax, QWORD PTR [rcx]
	call	QWORD PTR [rax+40]
$LN25@save_mini_:

; 35   : 	cached_log = 0;

	mov	QWORD PTR ?cached_log@@3_KA, r14	; cached_log
; File c:\users\nummer\documents\github\olr-3.0\src\xray\xrcore\xrdebugnew.cpp

; 707  : 			HANDLE hFile = ::CreateFile( szDumpPath, GENERIC_WRITE, FILE_SHARE_WRITE, NULL, CREATE_ALWAYS, FILE_ATTRIBUTE_NORMAL, NULL );

	mov	QWORD PTR [rsp+48], r14
	mov	DWORD PTR [rsp+40], 128			; 00000080H
	mov	DWORD PTR [rsp+32], 2
	xor	r9d, r9d
	mov	edx, 1073741824				; 40000000H
	lea	r8d, QWORD PTR [r9+2]
	lea	rcx, QWORD PTR szDumpPath$2[rsp]
	call	QWORD PTR __imp_CreateFileA
	mov	rdi, rax

; 708  : 			if (INVALID_HANDLE_VALUE==hFile)	

	cmp	rax, -1
	jne	SHORT $LN7@save_mini_

; 709  : 			{
; 710  : 				// try to place into current directory
; 711  : 				MoveMemory	(szDumpPath,szDumpPath+5,strlen(szDumpPath));

	lea	rax, QWORD PTR szDumpPath$2[rsp]
	npad	1
$LL34@save_mini_:
	inc	rsi
	cmp	BYTE PTR [rax+rsi], 0
	jne	SHORT $LL34@save_mini_
	mov	r8, rsi
	lea	rdx, QWORD PTR szDumpPath$2[rsp+5]
	lea	rcx, QWORD PTR szDumpPath$2[rsp]
	call	QWORD PTR __imp_memmove

; 712  : 				hFile		= ::CreateFile( szDumpPath, GENERIC_WRITE, FILE_SHARE_WRITE, NULL, CREATE_ALWAYS, FILE_ATTRIBUTE_NORMAL, NULL );

	mov	QWORD PTR [rsp+48], r14
	mov	DWORD PTR [rsp+40], 128			; 00000080H
	mov	DWORD PTR [rsp+32], 2
	xor	r9d, r9d
	mov	edx, 1073741824				; 40000000H
	lea	r8d, QWORD PTR [r9+2]
	lea	rcx, QWORD PTR szDumpPath$2[rsp]
	call	QWORD PTR __imp_CreateFileA
	mov	rdi, rax
$LN7@save_mini_:

; 713  : 			}
; 714  : 			if (hFile!=INVALID_HANDLE_VALUE)

	cmp	rdi, -1
	je	$LN6@save_mini_

; 715  : 			{
; 716  : 				_MINIDUMP_EXCEPTION_INFORMATION ExInfo;
; 717  : 
; 718  : 				ExInfo.ThreadId				= ::GetCurrentThreadId();

	call	QWORD PTR __imp_GetCurrentThreadId
	mov	DWORD PTR ExInfo$1[rsp], eax

; 719  : 				ExInfo.ExceptionPointers	= pExceptionInfo;

	mov	QWORD PTR ExInfo$1[rsp+4], r12

; 720  : 				ExInfo.ClientPointers		= NULL;

	mov	DWORD PTR ExInfo$1[rsp+12], r14d

; 721  : 
; 722  : 				// write the dump
; 723  : 				MINIDUMP_TYPE	dump_flags	= MINIDUMP_TYPE(MiniDumpNormal | MiniDumpFilterMemory | MiniDumpScanMemory );
; 724  : 
; 725  : 				BOOL bOK = pDump( GetCurrentProcess(), GetCurrentProcessId(), hFile, dump_flags, &ExInfo, NULL, NULL );

	call	QWORD PTR __imp_GetCurrentProcessId
	mov	ebx, eax
	call	QWORD PTR __imp_GetCurrentProcess
	mov	rcx, rax
	mov	QWORD PTR [rsp+48], r14
	mov	QWORD PTR [rsp+40], r14
	lea	rax, QWORD PTR ExInfo$1[rsp]
	mov	QWORD PTR [rsp+32], rax
	mov	r9d, 24
	mov	r8, rdi
	mov	edx, ebx
	call	r15

; 726  : 				if (bOK)

	test	eax, eax
	je	SHORT $LN5@save_mini_

; 727  : 				{
; 728  : 					sprintf( szScratch, "Saved dump file to '%s'", szDumpPath );

	lea	r8, QWORD PTR szDumpPath$2[rsp]
	lea	rdx, OFFSET FLAT:??_C@_0BI@LIBKOBMP@Saved?5dump?5file?5to?5?8?$CFs?8?$AA@
	lea	rcx, QWORD PTR szScratch$4[rsp]
	call	QWORD PTR __imp_sprintf

; 729  : 					szResult = szScratch;
; 730  : //					retval = EXCEPTION_EXECUTE_HANDLER;
; 731  : 				}
; 732  : 				else

	jmp	SHORT $LN4@save_mini_
$LN5@save_mini_:

; 733  : 				{
; 734  : 					sprintf( szScratch, "Failed to save dump file to '%s' (error %d)", szDumpPath, GetLastError() );

	call	QWORD PTR __imp_GetLastError
	mov	r9d, eax
	lea	r8, QWORD PTR szDumpPath$2[rsp]
	lea	rdx, OFFSET FLAT:??_C@_0CM@IDCCJAOB@Failed?5to?5save?5dump?5file?5to?5?8?$CFs?8@
	lea	rcx, QWORD PTR szScratch$4[rsp]
	call	QWORD PTR __imp_sprintf
$LN4@save_mini_:

; 735  : 					szResult = szScratch;
; 736  : 				}
; 737  : 				::CloseHandle(hFile);

	mov	rcx, rdi
	call	QWORD PTR __imp_CloseHandle

; 738  : 			}
; 739  : 			else

	jmp	SHORT $LN3@save_mini_
$LN6@save_mini_:

; 740  : 			{
; 741  : 				sprintf( szScratch, "Failed to create dump file '%s' (error %d)", szDumpPath, GetLastError() );

	call	QWORD PTR __imp_GetLastError
	mov	r9d, eax
	lea	r8, QWORD PTR szDumpPath$2[rsp]
	lea	rdx, OFFSET FLAT:??_C@_0CL@KMCGFKEK@Failed?5to?5create?5dump?5file?5?8?$CFs?8?5@
	lea	rcx, QWORD PTR szScratch$4[rsp]
	call	QWORD PTR __imp_sprintf
$LN3@save_mini_:

; 742  : 				szResult = szScratch;
; 743  : 			}
; 744  : 		}
; 745  : 		else
; 746  : 		{
; 747  : 			szResult = "DBGHELP.DLL too old";
; 748  : 		}
; 749  : 	}
; 750  : 	else
; 751  : 	{
; 752  : 		szResult = "DBGHELP.DLL not found";
; 753  : 	}
; 754  : }

	mov	rbx, QWORD PTR [rsp+2320]
	add	rsp, 2256				; 000008d0H
	pop	r15
	pop	r14
	pop	r12
	pop	rdi
	pop	rsi
	ret	0
?save_mini_dump@@YAXPEAU_EXCEPTION_POINTERS@@@Z ENDP	; save_mini_dump
_TEXT	ENDS
; Function compile flags: /Ogtpy
; File c:\users\nummer\documents\github\olr-3.0\src\xray\xrcore\xrdebugnew.cpp
_TEXT	SEGMENT
buffer$ = 80
error_code$ = 88
message$ = 96
?format_message@@YAXPEADAEBI@Z PROC			; format_message

; 758  : {

$LN9:
	mov	QWORD PTR [rsp+8], rbx
	push	rdi
	sub	rsp, 64					; 00000040H

; 759  :     LPVOID		message;
; 760  :     DWORD		error_code = GetLastError(); 
; 761  : 
; 762  : 	if (!error_code) {
; 763  : 		*buffer	= 0;
; 764  : 		return;
; 765  : 	}
; 766  : 
; 767  :     FormatMessage(
; 768  :         FORMAT_MESSAGE_ALLOCATE_BUFFER | 
; 769  :         FORMAT_MESSAGE_FROM_SYSTEM,
; 770  :         NULL,
; 771  :         error_code,
; 772  :         MAKELANGID(LANG_NEUTRAL, SUBLANG_DEFAULT),
; 773  :         (LPSTR)&message,
; 774  :         0,
; 775  : 		NULL
; 776  : 	);

	xor	eax, eax
	mov	ebx, edx
	mov	rdi, rcx
	mov	QWORD PTR [rsp+48], rax
	mov	DWORD PTR [rsp+40], eax
	lea	rax, QWORD PTR message$[rsp]
	mov	r8d, edx
	mov	r9d, 1024				; 00000400H
	mov	ecx, 4352				; 00001100H
	xor	edx, edx
	mov	QWORD PTR [rsp+32], rax
	call	QWORD PTR __imp_FormatMessageA

; 777  : 
; 778  : 	sprintf		(buffer,"[error][%8d]    : %s",error_code,message);

	mov	r9, QWORD PTR message$[rsp]
	lea	rdx, OFFSET FLAT:??_C@_0BF@LOGNCPDL@?$FLerror?$FN?$FL?$CF8d?$FN?5?5?5?5?3?5?$CFs?$AA@
	mov	r8d, ebx
	mov	rcx, rdi
	call	QWORD PTR __imp_sprintf

; 779  :     LocalFree	(message);

	mov	rcx, QWORD PTR message$[rsp]
	call	QWORD PTR __imp_LocalFree

; 780  : }

	mov	rbx, QWORD PTR [rsp+80]
	add	rsp, 64					; 00000040H
	pop	rdi
	ret	0
?format_message@@YAXPEADAEBI@Z ENDP			; format_message
_TEXT	ENDS
; Function compile flags: /Ogtpy
; File c:\users\nummer\documents\github\olr-3.0\src\xray\xrcore\xrdebugnew.cpp
; File c:\program files (x86)\microsoft visual studio 12.0\vc\include\string.h
; File c:\users\nummer\documents\github\olr-3.0\src\xray\xrcore\xrdebugnew.cpp
; File c:\users\nummer\documents\github\olr-3.0\src\xray\xrcore\log.cpp
; File c:\users\nummer\documents\github\olr-3.0\src\xray\xrcore\xrdebugnew.cpp
_TEXT	SEGMENT
i$1 = 64
error_message$ = 80
save$2 = 336
buffer$3 = 1568
pExceptionInfo$ = 5680
message$4 = 5688
?UnhandledFilter@@YAJPEAU_EXCEPTION_POINTERS@@@Z PROC	; UnhandledFilter

; 783  : {

$LN55:
	mov	QWORD PTR [rsp+8], rbx
	mov	QWORD PTR [rsp+24], rsi
	mov	QWORD PTR [rsp+32], rdi
	push	r15
	mov	eax, 5664				; 00001620H
	call	__chkstk
	sub	rsp, rax
	mov	rsi, rcx

; 760  :     DWORD		error_code = GetLastError(); 

	call	QWORD PTR __imp_GetLastError
	mov	ebx, eax

; 761  : 
; 762  : 	if (!error_code) {

	test	eax, eax
	jne	SHORT $LN19@UnhandledF

; 763  : 		*buffer	= 0;

	mov	BYTE PTR error_message$[rsp], al

; 764  : 		return;

	jmp	SHORT $LN20@UnhandledF
$LN19@UnhandledF:

; 765  : 	}
; 766  : 
; 767  :     FormatMessage(
; 768  :         FORMAT_MESSAGE_ALLOCATE_BUFFER | 
; 769  :         FORMAT_MESSAGE_FROM_SYSTEM,
; 770  :         NULL,
; 771  :         error_code,
; 772  :         MAKELANGID(LANG_NEUTRAL, SUBLANG_DEFAULT),
; 773  :         (LPSTR)&message,
; 774  :         0,
; 775  : 		NULL
; 776  : 	);

	mov	QWORD PTR [rsp+48], 0
	mov	DWORD PTR [rsp+40], 0
	lea	rax, QWORD PTR message$4[rsp]
	mov	QWORD PTR [rsp+32], rax
	mov	r9d, 1024				; 00000400H
	mov	r8d, ebx
	xor	edx, edx
	mov	ecx, 4352				; 00001100H
	call	QWORD PTR __imp_FormatMessageA

; 777  : 
; 778  : 	sprintf		(buffer,"[error][%8d]    : %s",error_code,message);

	mov	r9, QWORD PTR message$4[rsp]
	mov	r8d, ebx
	lea	rdx, OFFSET FLAT:??_C@_0BF@LOGNCPDL@?$FLerror?$FN?$FL?$CF8d?$FN?5?5?5?5?3?5?$CFs?$AA@
	lea	rcx, QWORD PTR error_message$[rsp]
	call	QWORD PTR __imp_sprintf

; 779  :     LocalFree	(message);

	mov	rcx, QWORD PTR message$4[rsp]
	call	QWORD PTR __imp_LocalFree
$LN20@UnhandledF:

; 784  : 	string256				error_message;
; 785  : 	format_message			(error_message,sizeof(error_message));
; 786  : 
; 787  : 	force_flush_log = true;

	mov	BYTE PTR ?force_flush_log@@3_NA, 1	; force_flush_log

; 789  : 	if (!error_after_dialog && !strstr(GetCommandLine(),"-no_call_stack_assert"))

	cmp	BYTE PTR error_after_dialog, 0
	jne	$LN31@UnhandledF
	call	QWORD PTR __imp_GetCommandLineA
; File c:\program files (x86)\microsoft visual studio 12.0\vc\include\string.h

; 228  :         { return (char*)strstr((const char*)_Str, _SubStr); }

	lea	rdx, OFFSET FLAT:??_C@_0BG@BFABOLIM@?9no_call_stack_assert?$AA@
	mov	rcx, rax
	call	QWORD PTR __imp_strstr
; File c:\users\nummer\documents\github\olr-3.0\src\xray\xrcore\xrdebugnew.cpp

; 789  : 	if (!error_after_dialog && !strstr(GetCommandLine(),"-no_call_stack_assert"))

	test	rax, rax
	jne	$LN31@UnhandledF

; 790  : 	__try
; 791  : 	{
; 792  : 		CONTEXT				save = *pExceptionInfo->ContextRecord;

	mov	rax, QWORD PTR [rsi+8]
	lea	rcx, QWORD PTR save$2[rsp]
	mov	ebx, 9
	mov	edx, ebx
	npad	8
$LL50@UnhandledF:
	movups	xmm0, XMMWORD PTR [rax]
	movups	XMMWORD PTR [rcx], xmm0
	movups	xmm1, XMMWORD PTR [rax+16]
	movups	XMMWORD PTR [rcx+16], xmm1
	movups	xmm0, XMMWORD PTR [rax+32]
	movups	XMMWORD PTR [rcx+32], xmm0
	movups	xmm1, XMMWORD PTR [rax+48]
	movups	XMMWORD PTR [rcx+48], xmm1
	movups	xmm0, XMMWORD PTR [rax+64]
	movups	XMMWORD PTR [rcx+64], xmm0
	movups	xmm1, XMMWORD PTR [rax+80]
	movups	XMMWORD PTR [rcx+80], xmm1
	movups	xmm0, XMMWORD PTR [rax+96]
	movups	XMMWORD PTR [rcx+96], xmm0
	lea	rcx, QWORD PTR [rcx+128]
	movups	xmm1, XMMWORD PTR [rax+112]
	movups	XMMWORD PTR [rcx-16], xmm1
	lea	rax, QWORD PTR [rax+128]
	dec	rdx
	jne	SHORT $LL50@UnhandledF
	movups	xmm0, XMMWORD PTR [rax]
	movups	XMMWORD PTR [rcx], xmm0
	movups	xmm1, XMMWORD PTR [rax+16]
	movups	XMMWORD PTR [rcx+16], xmm1
	movups	xmm0, XMMWORD PTR [rax+32]
	movups	XMMWORD PTR [rcx+32], xmm0
	movups	xmm1, XMMWORD PTR [rax+48]
	movups	XMMWORD PTR [rcx+48], xmm1
	movups	xmm0, XMMWORD PTR [rax+64]
	movups	XMMWORD PTR [rcx+64], xmm0

; 793  : 		BuildStackTrace		(pExceptionInfo);

	mov	rcx, rsi
	call	?BuildStackTrace@@YAXPEAU_EXCEPTION_POINTERS@@@Z ; BuildStackTrace

; 794  : 		*pExceptionInfo->ContextRecord = save;

	mov	rax, QWORD PTR [rsi+8]
	lea	rcx, QWORD PTR save$2[rsp]
	npad	5
$LL49@UnhandledF:
	movups	xmm0, XMMWORD PTR [rcx]
	movups	XMMWORD PTR [rax], xmm0
	movups	xmm1, XMMWORD PTR [rcx+16]
	movups	XMMWORD PTR [rax+16], xmm1
	movups	xmm0, XMMWORD PTR [rcx+32]
	movups	XMMWORD PTR [rax+32], xmm0
	movups	xmm1, XMMWORD PTR [rcx+48]
	movups	XMMWORD PTR [rax+48], xmm1
	movups	xmm0, XMMWORD PTR [rcx+64]
	movups	XMMWORD PTR [rax+64], xmm0
	movups	xmm1, XMMWORD PTR [rcx+80]
	movups	XMMWORD PTR [rax+80], xmm1
	movups	xmm0, XMMWORD PTR [rcx+96]
	movups	XMMWORD PTR [rax+96], xmm0
	sub	rax, -128				; ffffffffffffff80H
	movups	xmm1, XMMWORD PTR [rcx+112]
	movups	XMMWORD PTR [rax-16], xmm1
	lea	rcx, QWORD PTR [rcx+128]
	dec	rbx
	jne	SHORT $LL49@UnhandledF
	movups	xmm0, XMMWORD PTR [rcx]
	movups	XMMWORD PTR [rax], xmm0
	movups	xmm1, XMMWORD PTR [rcx+16]
	movups	XMMWORD PTR [rax+16], xmm1
	movups	xmm0, XMMWORD PTR [rcx+32]
	movups	XMMWORD PTR [rax+32], xmm0
	movups	xmm1, XMMWORD PTR [rcx+48]
	movups	XMMWORD PTR [rax+48], xmm1
	movups	xmm0, XMMWORD PTR [rcx+64]
	movups	XMMWORD PTR [rax+64], xmm0

; 795  : 				
; 796  : 		MsgCB			("$#DUMP_CONTEXT");

	lea	rcx, OFFSET FLAT:??_C@_0P@LGHNPNBO@$?$CDDUMP_CONTEXT?$AA@
	call	?MsgCB@@YAXPEBDZZ			; MsgCB

; 797  : 		Msg				("Unhandled exception stack trace:\n");

	lea	rcx, OFFSET FLAT:??_C@_0CC@DHELJALK@Unhandled?5exception?5stack?5trace?3@
	call	?Msg@@YAXPEBDZZ				; Msg

; 798  : 		copy_to_clipboard	("stack trace:\r\n\r\n");

	lea	rcx, OFFSET FLAT:??_C@_0BB@EAFFLADJ@stack?5trace?3?$AN?6?$AN?6?$AA@
	call	?copy_to_clipboard@@YAXPEBD@Z		; copy_to_clipboard

; 799  : 
; 800  : 		string4096			buffer;
; 801  : 		for (int i=0; i<g_stackTraceCount; ++i) 

	xor	edi, edi
	lea	r15, OFFSET FLAT:?g_stackTrace@@3PAY0BAAA@DA ; g_stackTrace
$LN51@UnhandledF:
	mov	DWORD PTR i$1[rsp], edi
	cmp	edi, DWORD PTR ?g_stackTraceCount@@3HA	; g_stackTraceCount
	jge	SHORT $LN7@UnhandledF

; 802  : 		{			
; 803  : 			Msg			("%s",g_stackTrace[i]);

	movsxd	rax, edi
	shl	rax, 12
	lea	rbx, QWORD PTR [rax+r15]
	mov	rdx, rbx
	lea	rcx, OFFSET FLAT:??_C@_02DKCKIIND@?$CFs?$AA@
	call	?Msg@@YAXPEBDZZ				; Msg

; 804  : 			sprintf			(buffer,"%s\r\n",g_stackTrace[i]);

	mov	r8, rbx
	lea	rdx, OFFSET FLAT:??_C@_04LLEBNMDN@?$CFs?$AN?6?$AA@
	lea	rcx, QWORD PTR buffer$3[rsp]
	call	QWORD PTR __imp_sprintf

; 799  : 
; 800  : 		string4096			buffer;
; 801  : 		for (int i=0; i<g_stackTraceCount; ++i) 

	inc	edi
	jmp	SHORT $LN51@UnhandledF
$LN7@UnhandledF:

; 805  : 			update_clipboard(buffer);
; 806  : 		}
; 807  : 
; 808  : 		if (*error_message) 

	cmp	BYTE PTR error_message$[rsp], 0
	je	SHORT $LN26@UnhandledF

; 809  : 		{			
; 810  : 			Msg			("\n%s",error_message);

	lea	rdx, QWORD PTR error_message$[rsp]
	lea	rcx, OFFSET FLAT:??_C@_03ILJCGOLJ@?6?$CFs?$AA@
	call	?Msg@@YAXPEBDZZ				; Msg

; 811  : 			strcat			(error_message,"\r\n");

	lea	rcx, QWORD PTR error_message$[rsp]
	dec	rcx
$LL48@UnhandledF:
	lea	rcx, QWORD PTR [rcx+1]
	cmp	BYTE PTR [rcx], 0
	jne	SHORT $LL48@UnhandledF
	movzx	eax, WORD PTR ??_C@_02PCIJFNDE@?$AN?6?$AA@
	mov	WORD PTR [rcx], ax
	movzx	eax, BYTE PTR ??_C@_02PCIJFNDE@?$AN?6?$AA@+2
	mov	BYTE PTR [rcx+2], al
$LN26@UnhandledF:
$LN18@UnhandledF:
; File c:\users\nummer\documents\github\olr-3.0\src\xray\xrcore\log.cpp

; 33   : 	if (LogWriter)

	mov	rcx, QWORD PTR ?LogWriter@@3PEAVIWriter@@EA ; LogWriter
	test	rcx, rcx
	je	SHORT $LN30@UnhandledF

; 34   : 		LogWriter->flush();

	mov	rax, QWORD PTR [rcx]
	call	QWORD PTR [rax+40]
$LN30@UnhandledF:

; 35   : 	cached_log = 0;

	mov	QWORD PTR ?cached_log@@3_KA, 0		; cached_log
$LN31@UnhandledF:
; File c:\users\nummer\documents\github\olr-3.0\src\xray\xrcore\xrdebugnew.cpp

; 821  : 		save_mini_dump		(pExceptionInfo);

	mov	rcx, rsi
	call	?save_mini_dump@@YAXPEAU_EXCEPTION_POINTERS@@@Z ; save_mini_dump

; 822  : #endif // USE_OWN_MINI_DUMP
; 823  : #ifdef USE_OWN_ERROR_MESSAGE_WINDOW
; 824  : 	if (!error_after_dialog) {

	cmp	BYTE PTR error_after_dialog, 0
	jne	SHORT $LN5@UnhandledF

; 825  : 		if (Debug.get_on_dialog())

	mov	rax, QWORD PTR ?Debug@@3VxrDebug@@A+8
	test	rax, rax
	je	SHORT $LN4@UnhandledF

; 826  : 			Debug.get_on_dialog()	(true);

	mov	cl, 1
	call	rax
$LN4@UnhandledF:

; 827  : 
; 828  : 		MessageBox(NULL, MSG_FATAL_ERROR_OK, "Fatal error", MB_OK | MB_ICONERROR | MB_SYSTEMMODAL);

	mov	r9d, 4112				; 00001010H
	lea	r8, OFFSET FLAT:??_C@_0M@HCPCIMCN@Fatal?5error?$AA@
	lea	rdx, OFFSET FLAT:??_C@_0DJ@KIAABDKE@?M?e?h?q?o?p?$OA?b?h?l?$OA?$PP?5?n?x?h?a?j?$OA?6?6?M?$OA?f?l?h?r?e?5OK?5@
	xor	ecx, ecx
	call	QWORD PTR __imp_MessageBoxA
$LN5@UnhandledF:

; 829  : 	}
; 830  : #endif // USE_OWN_ERROR_MESSAGE_WINDOW
; 831  : 
; 832  : 	if (!previous_filter) {

	mov	rax, QWORD PTR previous_filter
	test	rax, rax
	je	SHORT $LN54@UnhandledF

; 833  : #ifdef USE_OWN_ERROR_MESSAGE_WINDOW
; 834  : 		if (Debug.get_on_dialog())
; 835  : 			Debug.get_on_dialog()	(false);
; 836  : #endif // USE_OWN_ERROR_MESSAGE_WINDOW
; 837  : 
; 838  : 		return				(EXCEPTION_CONTINUE_SEARCH) ;
; 839  : 	}
; 840  : 
; 841  : 	previous_filter			(pExceptionInfo);

	mov	rcx, rsi
	call	rax
$LN54@UnhandledF:

; 842  : 
; 843  : #ifdef USE_OWN_ERROR_MESSAGE_WINDOW
; 844  : 	if (Debug.get_on_dialog())

	mov	rax, QWORD PTR ?Debug@@3VxrDebug@@A+8
	test	rax, rax
	je	SHORT $LN1@UnhandledF

; 845  : 		Debug.get_on_dialog()		(false);

	xor	ecx, ecx
	call	rax
$LN1@UnhandledF:

; 846  : #endif // USE_OWN_ERROR_MESSAGE_WINDOW
; 847  : 
; 848  : 	return					(EXCEPTION_CONTINUE_SEARCH) ;

	xor	eax, eax
$LN12@UnhandledF:

; 849  : }

	lea	r11, QWORD PTR [rsp+5664]
	mov	rbx, QWORD PTR [r11+16]
	mov	rsi, QWORD PTR [r11+32]
	mov	rdi, QWORD PTR [r11+40]
	mov	rsp, r11
	pop	r15
	ret	0
?UnhandledFilter@@YAJPEAU_EXCEPTION_POINTERS@@@Z ENDP	; UnhandledFilter
_TEXT	ENDS
; Function compile flags: /Ogtpy
text$x	SEGMENT
i$1 = 64
error_message$ = 80
save$2 = 336
buffer$3 = 1568
pExceptionInfo$ = 5680
message$4 = 5688
?fin$0@?0??UnhandledFilter@@YAJPEAU_EXCEPTION_POINTERS@@@Z@4HA PROC ; `UnhandledFilter'::`1'::fin$0

; 815  : 	__finally

	push	rbp
	sub	rsp, 64					; 00000040H
	mov	rbp, rdx
$LN15@fin$0:

; 816  : 	{
; 817  : 		FlushLog();

	call	?FlushLog@@YAXXZ			; FlushLog
	npad	1
$LN16@fin$0:
	add	rsp, 64					; 00000040H
	pop	rbp
	ret	0
	int	3
?fin$0@?0??UnhandledFilter@@YAJPEAU_EXCEPTION_POINTERS@@@Z@4HA ENDP ; `UnhandledFilter'::`1'::fin$0
text$x	ENDS
; Function compile flags: /Ogtpy
; File c:\users\nummer\documents\github\olr-3.0\src\xray\xrcore\xrdebugnew.cpp
; File c:\program files (x86)\microsoft visual studio 12.0\vc\include\string.h
; File c:\users\nummer\documents\github\olr-3.0\src\xray\xrcore\xrdebugnew.cpp
; File c:\users\nummer\documents\github\olr-3.0\src\xray\xrcore\_std_extensions.h
; File c:\users\nummer\documents\github\olr-3.0\src\xray\xrcore\xrdebugnew.cpp
_TEXT	SEGMENT
assertion_info$ = 64
?_terminate@@YAXXZ PROC					; _terminate

; 877  : 	{

$LN10:
	mov	eax, 4168				; 00001048H
	call	__chkstk
	sub	rsp, rax

; 878  : 		if (strstr(GetCommandLine(),"-silent_error_mode"))

	call	QWORD PTR __imp_GetCommandLineA
; File c:\program files (x86)\microsoft visual studio 12.0\vc\include\string.h

; 228  :         { return (char*)strstr((const char*)_Str, _SubStr); }

	lea	rdx, OFFSET FLAT:??_C@_0BD@EOOGADKP@?9silent_error_mode?$AA@
	mov	rcx, rax
	call	QWORD PTR __imp_strstr
; File c:\users\nummer\documents\github\olr-3.0\src\xray\xrcore\xrdebugnew.cpp

; 878  : 		if (strstr(GetCommandLine(),"-silent_error_mode"))

	test	rax, rax
	je	SHORT $LN1@terminate

; 879  : 			exit				(-1);

	or	ecx, -1
	call	QWORD PTR __imp_exit
	int	3
$LN1@terminate:

; 880  : 
; 881  : 		string4096				assertion_info;
; 882  : 		
; 883  : 		gather_info				(
; 884  : 			"<no expression>",
; 885  : 			"Unexpected application termination",
; 886  : 			0,
; 887  : 			0,
; 888  : 	#ifdef _ANONYMOUS_BUILD
; 889  : 			"",
; 890  : 			0,
; 891  : 	#else
; 892  : 			__FILE__,
; 893  : 			__LINE__,
; 894  : 	#endif
; 895  : 	#ifndef _EDITOR
; 896  : 			__FUNCTION__,
; 897  : 	#else // _EDITOR
; 898  : 			"",
; 899  : 	#endif // _EDITOR
; 900  : 			assertion_info
; 901  : 		);

	lea	rax, QWORD PTR assertion_info$[rsp]
	lea	rdx, OFFSET FLAT:??_C@_0CD@MNNFJELM@Unexpected?5application?5terminati@
	lea	rcx, OFFSET FLAT:??_C@_0BA@GDNONNGA@?$DMno?5expression?$DO?$AA@
	mov	QWORD PTR [rsp+56], rax
	lea	rax, OFFSET FLAT:??_C@_0L@FDGNGFIG@_terminate?$AA@
	xor	r9d, r9d
	mov	QWORD PTR [rsp+48], rax
	lea	rax, OFFSET FLAT:??_C@_0P@NIPFKGHM@xrDebugNew?4cpp?$AA@
	xor	r8d, r8d
	mov	DWORD PTR [rsp+40], 893			; 0000037dH
	mov	QWORD PTR [rsp+32], rax
	call	?gather_info@@YAXPEBD0000H0PEAD@Z	; gather_info
; File c:\users\nummer\documents\github\olr-3.0\src\xray\xrcore\_std_extensions.h

; 270  : {	return (u32)strlen(S);			}

	lea	rcx, QWORD PTR assertion_info$[rsp]
	or	rax, -1
	npad	2
$LL8@terminate:
	inc	rax
	cmp	BYTE PTR [rcx+rax], 0
	jne	SHORT $LL8@terminate
; File c:\users\nummer\documents\github\olr-3.0\src\xray\xrcore\xrdebugnew.cpp

; 904  : 		LPSTR					buffer = assertion_info + xr_strlen(assertion_info);

	mov	ecx, eax
	lea	rax, QWORD PTR assertion_info$[rsp]

; 905  : 		buffer					+= sprintf(buffer, MSG_OK_TO_ABORT);

	lea	rdx, OFFSET FLAT:??_C@_0CG@EJBDGGN@?M?$OA?f?l?h?r?e?5OK?5?d?k?$PP?5?g?$OA?b?e?p?x?e?m?h?$PP?5?o?p?n?c?p?$OA@
	add	rcx, rax
	call	QWORD PTR __imp_sprintf

; 906  : 
; 907  : 		MessageBox				(
; 908  : 			GetTopWindow(NULL),
; 909  : 			assertion_info,
; 910  : 			"Fatal Error",
; 911  : 			MB_OK|MB_ICONERROR|MB_SYSTEMMODAL
; 912  : 		);

	xor	ecx, ecx
	call	QWORD PTR __imp_GetTopWindow
	lea	r8, OFFSET FLAT:??_C@_0M@HFFOIJBL@Fatal?5Error?$AA@
	lea	rdx, QWORD PTR assertion_info$[rsp]
	mov	rcx, rax
	mov	r9d, 4112				; 00001010H
	call	QWORD PTR __imp_MessageBoxA

; 913  : 		
; 914  : 		exit					(-1);

	or	ecx, -1
	call	QWORD PTR __imp_exit
	int	3
$LN9@terminate:
?_terminate@@YAXXZ ENDP					; _terminate
_TEXT	ENDS
; Function compile flags: /Ogtpy
; File c:\users\nummer\documents\github\olr-3.0\src\xray\xrcore\xrdebugnew.cpp
_TEXT	SEGMENT
reason_string$ = 96
ignore_always$ = 104
?handler_base@@YAXPEBD@Z PROC				; handler_base

; 929  : 	{

	sub	rsp, 88					; 00000058H

; 930  : 		bool							ignore_always = false;
; 931  : 		Debug.backend					(
; 932  : 			ERR_HANDLER_BASE,
; 933  : 			reason_string,
; 934  : 			0,
; 935  : 			0,
; 936  : 			DEBUG_INFO,
; 937  : 			ignore_always
; 938  : 		);

	lea	rax, QWORD PTR ignore_always$[rsp]
	mov	r8, rcx
	lea	rdx, OFFSET FLAT:??_C@_0CB@GMGDKICO@?b?$PL?g?b?$OA?m?5?a?$OA?g?n?b?$PL?i?5?n?a?p?$OA?a?n?r?w?h?j?5?n?x?h?a?j?h@
	mov	QWORD PTR [rsp+64], rax
	lea	rax, OFFSET FLAT:??_C@_0N@EHAENDPC@handler_base?$AA@
	lea	rcx, OFFSET FLAT:?Debug@@3VxrDebug@@A	; Debug
	mov	QWORD PTR [rsp+56], rax
	lea	rax, OFFSET FLAT:??_C@_0P@NIPFKGHM@xrDebugNew?4cpp?$AA@
	mov	DWORD PTR [rsp+48], 936			; 000003a8H
	mov	QWORD PTR [rsp+40], rax
	xor	r9d, r9d
	mov	QWORD PTR [rsp+32], 0
	call	?backend@xrDebug@@QEAAXPEBD0000H0AEA_N@Z ; xrDebug::backend

; 939  : 	}

	add	rsp, 88					; 00000058H
	ret	0
?handler_base@@YAXPEBD@Z ENDP				; handler_base
_TEXT	ENDS
; Function compile flags: /Ogtpy
; File c:\users\nummer\documents\github\olr-3.0\src\xray\xrcore\xrdebugnew.cpp
; File c:\program files (x86)\microsoft visual studio 12.0\vc\include\string.h
; File c:\users\nummer\documents\github\olr-3.0\src\xray\xrcore\xrdebugnew.cpp
; File c:\program files (x86)\microsoft visual studio 12.0\vc\include\string.h
; File c:\users\nummer\documents\github\olr-3.0\src\xray\xrcore\xrdebugnew.cpp
; File c:\program files (x86)\microsoft visual studio 12.0\vc\include\string.h
; File c:\users\nummer\documents\github\olr-3.0\src\xray\xrcore\xrdebugnew.cpp
; File c:\program files (x86)\microsoft visual studio 12.0\vc\include\string.h
; File c:\users\nummer\documents\github\olr-3.0\src\xray\xrcore\xrdebugnew.cpp
_TEXT	SEGMENT
file_$ = 80
function_$ = 4176
expression_$ = 8272
ignore_always$ = 12400
expression$ = 12400
converted_chars$ = 12408
function$ = 12408
file$ = 12416
line$ = 12424
reserved$ = 12432
?invalid_parameter_handler@@YAXPEB_W00I_K@Z PROC	; invalid_parameter_handler

; 948  : 	{

	mov	QWORD PTR [rsp+24], rbx
	push	rbp
	push	rsi
	push	rdi
	mov	eax, 12368				; 00003050H
	call	__chkstk
	sub	rsp, rax

; 949  : 		bool							ignore_always = false;
; 950  : 
; 951  : 		string4096						expression_;
; 952  : 		string4096						function_;
; 953  : 		string4096						file_;
; 954  : 		size_t							converted_chars = 0;
; 955  : //		errno_t							err = 
; 956  : 		if (expression)

	or	rbx, -1
	mov	ebp, r9d
	mov	rdi, r8
	mov	rsi, rdx
	mov	QWORD PTR converted_chars$[rsp], 0
	test	rcx, rcx
	je	SHORT $LN6@invalid_pa

; 957  : 			wcstombs_s	(
; 958  : 				&converted_chars, 
; 959  : 				expression_,
; 960  : 				sizeof(expression_),
; 961  : 				expression,
; 962  : 				(wcslen(expression) + 1)*2*sizeof(char)
; 963  : 			);

	mov	rax, rbx
	npad	10
$LL17@invalid_pa:
	cmp	WORD PTR [rcx+rax*2+2], 0
	lea	rax, QWORD PTR [rax+1]
	jne	SHORT $LL17@invalid_pa
	lea	rax, QWORD PTR [rax*2+2]
	mov	r9, rcx
	lea	rdx, QWORD PTR expression_$[rsp]
	lea	rcx, QWORD PTR converted_chars$[rsp]
	mov	r8d, 4096				; 00001000H
	mov	QWORD PTR [rsp+32], rax
	call	QWORD PTR __imp_wcstombs_s

; 964  : 		else

	jmp	SHORT $LN9@invalid_pa
$LN6@invalid_pa:
; File c:\program files (x86)\microsoft visual studio 12.0\vc\include\string.h

; 111  : __DEFINE_CPP_OVERLOAD_SECURE_FUNC_0_1(errno_t, strcpy_s, _Post_z_ char, _Dest, _In_z_ const char *, _Source)

	lea	r8, OFFSET FLAT:??_C@_00CNPNBAHC@?$AA@
	lea	rcx, QWORD PTR expression_$[rsp]
	mov	edx, 4096				; 00001000H
	call	QWORD PTR __imp_strcpy_s
$LN9@invalid_pa:
; File c:\users\nummer\documents\github\olr-3.0\src\xray\xrcore\xrdebugnew.cpp

; 967  : 		if (function)

	test	rsi, rsi
	je	SHORT $LN4@invalid_pa

; 968  : 			wcstombs_s	(
; 969  : 				&converted_chars, 
; 970  : 				function_,
; 971  : 				sizeof(function_),
; 972  : 				function,
; 973  : 				(wcslen(function) + 1)*2*sizeof(char)
; 974  : 			);

	mov	rax, rbx
	npad	4
$LL16@invalid_pa:
	cmp	WORD PTR [rsi+rax*2+2], 0
	lea	rax, QWORD PTR [rax+1]
	jne	SHORT $LL16@invalid_pa
	lea	rax, QWORD PTR [rax*2+2]
	lea	rdx, QWORD PTR function_$[rsp]
	lea	rcx, QWORD PTR converted_chars$[rsp]
	mov	r9, rsi
	mov	r8d, 4096				; 00001000H
	mov	QWORD PTR [rsp+32], rax
	call	QWORD PTR __imp_wcstombs_s

; 975  : 		else

	jmp	SHORT $LN11@invalid_pa
$LN4@invalid_pa:
; File c:\program files (x86)\microsoft visual studio 12.0\vc\include\string.h

; 111  : __DEFINE_CPP_OVERLOAD_SECURE_FUNC_0_1(errno_t, strcpy_s, _Post_z_ char, _Dest, _In_z_ const char *, _Source)

	lea	r8, OFFSET FLAT:??_C@_0BK@NBNIIJLH@invalid_parameter_handler?$AA@
	lea	rcx, QWORD PTR function_$[rsp]
	mov	edx, 4096				; 00001000H
	call	QWORD PTR __imp_strcpy_s
$LN11@invalid_pa:
; File c:\users\nummer\documents\github\olr-3.0\src\xray\xrcore\xrdebugnew.cpp

; 978  : 		if (file)

	test	rdi, rdi
	je	SHORT $LN2@invalid_pa
	npad	7
$LL15@invalid_pa:

; 979  : 			wcstombs_s	(
; 980  : 				&converted_chars, 
; 981  : 				file_,
; 982  : 				sizeof(file_),
; 983  : 				file,
; 984  : 				(wcslen(file) + 1)*2*sizeof(char)
; 985  : 			);

	cmp	WORD PTR [rdi+rbx*2+2], 0
	lea	rbx, QWORD PTR [rbx+1]
	jne	SHORT $LL15@invalid_pa
	lea	rax, QWORD PTR [rbx*2+2]
	lea	rdx, QWORD PTR file_$[rsp]
	lea	rcx, QWORD PTR converted_chars$[rsp]
	mov	r9, rdi
	mov	r8d, 4096				; 00001000H
	mov	QWORD PTR [rsp+32], rax
	call	QWORD PTR __imp_wcstombs_s

; 986  : 		else {

	jmp	SHORT $LN13@invalid_pa
$LN2@invalid_pa:
; File c:\program files (x86)\microsoft visual studio 12.0\vc\include\string.h

; 111  : __DEFINE_CPP_OVERLOAD_SECURE_FUNC_0_1(errno_t, strcpy_s, _Post_z_ char, _Dest, _In_z_ const char *, _Source)

	lea	r8, OFFSET FLAT:??_C@_0P@NIPFKGHM@xrDebugNew?4cpp?$AA@
	lea	rcx, QWORD PTR file_$[rsp]
	mov	edx, 4096				; 00001000H
; File c:\users\nummer\documents\github\olr-3.0\src\xray\xrcore\xrdebugnew.cpp

; 987  : 			line						= __LINE__;

	mov	ebp, 987				; 000003dbH
; File c:\program files (x86)\microsoft visual studio 12.0\vc\include\string.h

; 111  : __DEFINE_CPP_OVERLOAD_SECURE_FUNC_0_1(errno_t, strcpy_s, _Post_z_ char, _Dest, _In_z_ const char *, _Source)

	call	QWORD PTR __imp_strcpy_s
$LN13@invalid_pa:
; File c:\users\nummer\documents\github\olr-3.0\src\xray\xrcore\xrdebugnew.cpp

; 1000 : 		);

	lea	rax, QWORD PTR ignore_always$[rsp]
	lea	r8, QWORD PTR expression_$[rsp]
	lea	rdx, OFFSET FLAT:??_C@_0CO@LFNJNJHE@?b?$PL?g?b?$OA?m?5?n?a?p?$OA?a?n?r?w?h?j?5?n?x?h?a?j?h?5?8?m?e?b?e?p?m@
	mov	QWORD PTR [rsp+64], rax
	lea	rax, QWORD PTR function_$[rsp]
	lea	rcx, OFFSET FLAT:?Debug@@3VxrDebug@@A	; Debug
	mov	QWORD PTR [rsp+56], rax
	lea	rax, QWORD PTR file_$[rsp]
	mov	DWORD PTR [rsp+48], ebp
	mov	QWORD PTR [rsp+40], rax
	xor	r9d, r9d
	mov	QWORD PTR [rsp+32], 0
	call	?backend@xrDebug@@QEAAXPEBD0000H0AEA_N@Z ; xrDebug::backend

; 1001 : 	}

	mov	rbx, QWORD PTR [rsp+12416]
	add	rsp, 12368				; 00003050H
	pop	rdi
	pop	rsi
	pop	rbp
	ret	0
?invalid_parameter_handler@@YAXPEB_W00I_K@Z ENDP	; invalid_parameter_handler
_TEXT	ENDS
; Function compile flags: /Ogtpy
; File c:\users\nummer\documents\github\olr-3.0\src\xray\xrcore\xrdebugnew.cpp
_TEXT	SEGMENT
ignore_always$1 = 96
?std_out_of_memory_handler@@YAXXZ PROC			; std_out_of_memory_handler

; 1004 : 	{

	sub	rsp, 88					; 00000058H

; 938  : 		);

	lea	rax, QWORD PTR ignore_always$1[rsp]
	lea	r8, OFFSET FLAT:??_C@_0CJ@HGJHMGII@?g?$OA?j?n?m?w?h?k?$OA?q?$PM?5?q?b?n?a?n?d?m?$OA?$PP?5?n?o?e?p?$OA?r?h?b?m?$OA@
	lea	rdx, OFFSET FLAT:??_C@_0CB@GMGDKICO@?b?$PL?g?b?$OA?m?5?a?$OA?g?n?b?$PL?i?5?n?a?p?$OA?a?n?r?w?h?j?5?n?x?h?a?j?h@
	mov	QWORD PTR [rsp+64], rax
	lea	rax, OFFSET FLAT:??_C@_0N@EHAENDPC@handler_base?$AA@
	lea	rcx, OFFSET FLAT:?Debug@@3VxrDebug@@A	; Debug
	mov	QWORD PTR [rsp+56], rax
	lea	rax, OFFSET FLAT:??_C@_0P@NIPFKGHM@xrDebugNew?4cpp?$AA@
	mov	DWORD PTR [rsp+48], 936			; 000003a8H
	mov	QWORD PTR [rsp+40], rax
	xor	r9d, r9d
	mov	QWORD PTR [rsp+32], 0
	call	?backend@xrDebug@@QEAAXPEBD0000H0AEA_N@Z ; xrDebug::backend

; 1005 : 		handler_base					(ERR_OUT_OF_MEMORY);
; 1006 : 	}

	add	rsp, 88					; 00000058H
	ret	0
?std_out_of_memory_handler@@YAXXZ ENDP			; std_out_of_memory_handler
_TEXT	ENDS
; Function compile flags: /Ogtpy
; File c:\users\nummer\documents\github\olr-3.0\src\xray\xrcore\xrdebugnew.cpp
_TEXT	SEGMENT
ignore_always$1 = 96
?pure_call_handler@@YAXXZ PROC				; pure_call_handler

; 1009 : 	{

	sub	rsp, 88					; 00000058H

; 938  : 		);

	lea	rax, QWORD PTR ignore_always$1[rsp]
	lea	r8, OFFSET FLAT:??_C@_0DN@LFCPOJOF@?b?$PL?g?n?b?5?b?h?p?r?s?$OA?k?$PM?m?n?i?5?t?s?m?j?v?h?h?5?m?e?5?n?o?p@
	lea	rdx, OFFSET FLAT:??_C@_0CB@GMGDKICO@?b?$PL?g?b?$OA?m?5?a?$OA?g?n?b?$PL?i?5?n?a?p?$OA?a?n?r?w?h?j?5?n?x?h?a?j?h@
	mov	QWORD PTR [rsp+64], rax
	lea	rax, OFFSET FLAT:??_C@_0N@EHAENDPC@handler_base?$AA@
	lea	rcx, OFFSET FLAT:?Debug@@3VxrDebug@@A	; Debug
	mov	QWORD PTR [rsp+56], rax
	lea	rax, OFFSET FLAT:??_C@_0P@NIPFKGHM@xrDebugNew?4cpp?$AA@
	mov	DWORD PTR [rsp+48], 936			; 000003a8H
	mov	QWORD PTR [rsp+40], rax
	xor	r9d, r9d
	mov	QWORD PTR [rsp+32], 0
	call	?backend@xrDebug@@QEAAXPEBD0000H0AEA_N@Z ; xrDebug::backend

; 1010 : 		handler_base					(ERR_PURE_VFUNC);
; 1011 : 	}

	add	rsp, 88					; 00000058H
	ret	0
?pure_call_handler@@YAXXZ ENDP				; pure_call_handler
_TEXT	ENDS
; Function compile flags: /Ogtpy
; File c:\users\nummer\documents\github\olr-3.0\src\xray\xrcore\xrdebugnew.cpp
_TEXT	SEGMENT
signal$ = 96
ignore_always$1 = 104
?abort_handler@@YAXH@Z PROC				; abort_handler

; 1021 : 	{

	sub	rsp, 88					; 00000058H

; 938  : 		);

	lea	rax, QWORD PTR ignore_always$1[rsp]
	lea	r8, OFFSET FLAT:??_C@_0BE@ONKMEICK@?o?p?h?k?n?f?e?m?h?e?5?o?p?e?p?b?$OA?m?n?$AA@
	lea	rdx, OFFSET FLAT:??_C@_0CB@GMGDKICO@?b?$PL?g?b?$OA?m?5?a?$OA?g?n?b?$PL?i?5?n?a?p?$OA?a?n?r?w?h?j?5?n?x?h?a?j?h@
	mov	QWORD PTR [rsp+64], rax
	lea	rax, OFFSET FLAT:??_C@_0N@EHAENDPC@handler_base?$AA@
	lea	rcx, OFFSET FLAT:?Debug@@3VxrDebug@@A	; Debug
	mov	QWORD PTR [rsp+56], rax
	lea	rax, OFFSET FLAT:??_C@_0P@NIPFKGHM@xrDebugNew?4cpp?$AA@
	mov	DWORD PTR [rsp+48], 936			; 000003a8H
	mov	QWORD PTR [rsp+40], rax
	xor	r9d, r9d
	mov	QWORD PTR [rsp+32], 0
	call	?backend@xrDebug@@QEAAXPEBD0000H0AEA_N@Z ; xrDebug::backend

; 1022 : 		handler_base					(ERR_APP_ABORTING);
; 1023 : 	}

	add	rsp, 88					; 00000058H
	ret	0
?abort_handler@@YAXH@Z ENDP				; abort_handler
_TEXT	ENDS
; Function compile flags: /Ogtpy
; File c:\users\nummer\documents\github\olr-3.0\src\xray\xrcore\xrdebugnew.cpp
_TEXT	SEGMENT
signal$ = 96
ignore_always$1 = 104
?floating_point_handler@@YAXH@Z PROC			; floating_point_handler

; 1026 : 	{

	sub	rsp, 88					; 00000058H

; 938  : 		);

	lea	rax, QWORD PTR ignore_always$1[rsp]
	lea	r8, OFFSET FLAT:??_C@_0CF@IBAKOLNA@?n?x?h?a?j?$OA?5?b?$PL?w?h?q?k?e?m?h?$PP?5?q?5?o?k?$OA?b?$OA?$PO?y?e?i?5?r?n@
	lea	rdx, OFFSET FLAT:??_C@_0CB@GMGDKICO@?b?$PL?g?b?$OA?m?5?a?$OA?g?n?b?$PL?i?5?n?a?p?$OA?a?n?r?w?h?j?5?n?x?h?a?j?h@
	mov	QWORD PTR [rsp+64], rax
	lea	rax, OFFSET FLAT:??_C@_0N@EHAENDPC@handler_base?$AA@
	lea	rcx, OFFSET FLAT:?Debug@@3VxrDebug@@A	; Debug
	mov	QWORD PTR [rsp+56], rax
	lea	rax, OFFSET FLAT:??_C@_0P@NIPFKGHM@xrDebugNew?4cpp?$AA@
	mov	DWORD PTR [rsp+48], 936			; 000003a8H
	mov	QWORD PTR [rsp+40], rax
	xor	r9d, r9d
	mov	QWORD PTR [rsp+32], 0
	call	?backend@xrDebug@@QEAAXPEBD0000H0AEA_N@Z ; xrDebug::backend

; 1027 : 		handler_base					(ERR_FLOAT_POINT);
; 1028 : 	}

	add	rsp, 88					; 00000058H
	ret	0
?floating_point_handler@@YAXH@Z ENDP			; floating_point_handler
_TEXT	ENDS
; Function compile flags: /Ogtpy
; File c:\users\nummer\documents\github\olr-3.0\src\xray\xrcore\xrdebugnew.cpp
_TEXT	SEGMENT
signal$ = 96
ignore_always$1 = 104
?illegal_instruction_handler@@YAXH@Z PROC		; illegal_instruction_handler

; 1031 : 	{

	sub	rsp, 88					; 00000058H

; 938  : 		);

	lea	rax, QWORD PTR ignore_always$1[rsp]
	lea	r8, OFFSET FLAT:??_C@_0BH@LGIEMPPN@?m?e?b?e?p?m?$OA?$PP?5?h?m?q?r?p?s?j?v?h?$PP?5?V?O?$AA@
	lea	rdx, OFFSET FLAT:??_C@_0CB@GMGDKICO@?b?$PL?g?b?$OA?m?5?a?$OA?g?n?b?$PL?i?5?n?a?p?$OA?a?n?r?w?h?j?5?n?x?h?a?j?h@
	mov	QWORD PTR [rsp+64], rax
	lea	rax, OFFSET FLAT:??_C@_0N@EHAENDPC@handler_base?$AA@
	lea	rcx, OFFSET FLAT:?Debug@@3VxrDebug@@A	; Debug
	mov	QWORD PTR [rsp+56], rax
	lea	rax, OFFSET FLAT:??_C@_0P@NIPFKGHM@xrDebugNew?4cpp?$AA@
	mov	DWORD PTR [rsp+48], 936			; 000003a8H
	mov	QWORD PTR [rsp+40], rax
	xor	r9d, r9d
	mov	QWORD PTR [rsp+32], 0
	call	?backend@xrDebug@@QEAAXPEBD0000H0AEA_N@Z ; xrDebug::backend

; 1032 : 		handler_base					(ERR_ILLEGAL_INSTR);
; 1033 : 	}

	add	rsp, 88					; 00000058H
	ret	0
?illegal_instruction_handler@@YAXH@Z ENDP		; illegal_instruction_handler
_TEXT	ENDS
; Function compile flags: /Ogtpy
; File c:\users\nummer\documents\github\olr-3.0\src\xray\xrcore\xrdebugnew.cpp
_TEXT	SEGMENT
signal$ = 96
ignore_always$1 = 104
?termination_handler@@YAXH@Z PROC			; termination_handler

; 1041 : 	{

	sub	rsp, 88					; 00000058H

; 938  : 		);

	lea	rax, QWORD PTR ignore_always$1[rsp]
	lea	r8, OFFSET FLAT:??_C@_0BF@JHKEIGNA@?g?$OA?b?e?p?x?e?m?h?e?5?q?5?j?n?d?n?l?53?$AA@
	lea	rdx, OFFSET FLAT:??_C@_0CB@GMGDKICO@?b?$PL?g?b?$OA?m?5?a?$OA?g?n?b?$PL?i?5?n?a?p?$OA?a?n?r?w?h?j?5?n?x?h?a?j?h@
	mov	QWORD PTR [rsp+64], rax
	lea	rax, OFFSET FLAT:??_C@_0N@EHAENDPC@handler_base?$AA@
	lea	rcx, OFFSET FLAT:?Debug@@3VxrDebug@@A	; Debug
	mov	QWORD PTR [rsp+56], rax
	lea	rax, OFFSET FLAT:??_C@_0P@NIPFKGHM@xrDebugNew?4cpp?$AA@
	mov	DWORD PTR [rsp+48], 936			; 000003a8H
	mov	QWORD PTR [rsp+40], rax
	xor	r9d, r9d
	mov	QWORD PTR [rsp+32], 0
	call	?backend@xrDebug@@QEAAXPEBD0000H0AEA_N@Z ; xrDebug::backend

; 1042 : 		handler_base					(ERR_TERMINATION_3);
; 1043 : 	}

	add	rsp, 88					; 00000058H
	ret	0
?termination_handler@@YAXH@Z ENDP			; termination_handler
_TEXT	ENDS
; Function compile flags: /Ogtpy
; File c:\users\nummer\documents\github\olr-3.0\src\xray\xrcore\xrdebugnew.cpp
_TEXT	SEGMENT
this$ = 48
dedicated$ = 56
?_initialize@xrDebug@@QEAAXAEB_N@Z PROC			; xrDebug::_initialize

; 1046 :     {

$LN6:
	sub	rsp, 40					; 00000028H

; 924  : 		std::set_terminate				(_terminate);

	lea	rcx, OFFSET FLAT:?_terminate@@YAXXZ	; _terminate
	call	QWORD PTR __imp_?set_terminate@@YAP6AXXZP6AXXZ@Z

; 1047 : 		debug_on_thread_spawn			();
; 1048 : 
; 1049 : 		_set_abort_behavior				(0,_WRITE_ABORT_MSG | _CALL_REPORTFAULT);

	mov	edx, 3
	xor	ecx, ecx
	call	QWORD PTR __imp__set_abort_behavior

; 1050 : 		signal							(SIGABRT,			abort_handler);

	lea	rdx, OFFSET FLAT:?abort_handler@@YAXH@Z	; abort_handler
	mov	ecx, 22
	call	QWORD PTR __imp_signal

; 1051 : 		signal							(SIGABRT_COMPAT,	abort_handler);

	lea	rdx, OFFSET FLAT:?abort_handler@@YAXH@Z	; abort_handler
	mov	ecx, 6
	call	QWORD PTR __imp_signal

; 1052 : 		signal							(SIGFPE,			floating_point_handler);

	lea	rdx, OFFSET FLAT:?floating_point_handler@@YAXH@Z ; floating_point_handler
	mov	ecx, 8
	call	QWORD PTR __imp_signal

; 1053 : 		signal							(SIGILL,			illegal_instruction_handler);

	lea	rdx, OFFSET FLAT:?illegal_instruction_handler@@YAXH@Z ; illegal_instruction_handler
	mov	ecx, 4
	call	QWORD PTR __imp_signal

; 1054 : 		signal							(SIGINT,			0);

	xor	edx, edx
	lea	ecx, QWORD PTR [rdx+2]
	call	QWORD PTR __imp_signal

; 1055 : //		signal							(SIGSEGV,			storage_access_handler);
; 1056 : 		signal							(SIGTERM,			termination_handler);

	lea	rdx, OFFSET FLAT:?termination_handler@@YAXH@Z ; termination_handler
	mov	ecx, 15
	call	QWORD PTR __imp_signal

; 1057 : 
; 1058 : 		_set_invalid_parameter_handler	(&invalid_parameter_handler);

	lea	rcx, OFFSET FLAT:?invalid_parameter_handler@@YAXPEB_W00I_K@Z ; invalid_parameter_handler
	call	QWORD PTR __imp__set_invalid_parameter_handler

; 1059 : 
; 1060 : 		_set_new_mode					(1);

	mov	ecx, 1
	call	QWORD PTR __imp_?_set_new_mode@@YAHH@Z

; 1061 : 		_set_new_handler				(&out_of_memory_handler);

	lea	rcx, OFFSET FLAT:?out_of_memory_handler@@YAH_K@Z ; out_of_memory_handler
	call	QWORD PTR __imp_?_set_new_handler@@YAP6AH_K@ZP6AH0@Z@Z

; 1062 : 		std::set_new_handler			(&std_out_of_memory_handler);

	lea	rcx, OFFSET FLAT:?std_out_of_memory_handler@@YAXXZ ; std_out_of_memory_handler
	call	QWORD PTR __imp_?set_new_handler@std@@YAP6AXXZP6AXXZ@Z

; 1063 : 
; 1064 : 		_set_purecall_handler			(&pure_call_handler);

	lea	rcx, OFFSET FLAT:?pure_call_handler@@YAXXZ ; pure_call_handler
	call	QWORD PTR __imp__set_purecall_handler

; 1065 : 
; 1066 : #if 0// should be if we use exceptions
; 1067 : 		std::set_unexpected				(_terminate);
; 1068 : #endif
; 1069 : 
; 1070 : #ifdef USE_BUG_TRAP
; 1071 : 		SetupExceptionHandler			(dedicated);
; 1072 : #endif // USE_BUG_TRAP
; 1073 : 		previous_filter					= ::SetUnhandledExceptionFilter(UnhandledFilter);	// exception handler to all "unhandled" exceptions

	lea	rcx, OFFSET FLAT:?UnhandledFilter@@YAJPEAU_EXCEPTION_POINTERS@@@Z ; UnhandledFilter
	call	QWORD PTR __imp_SetUnhandledExceptionFilter
	mov	QWORD PTR previous_filter, rax

; 1074 : 
; 1075 : #if 0
; 1076 : 		struct foo {static void	recurs	(const u32 &count)
; 1077 : 		{
; 1078 : 			if (!count)
; 1079 : 				return;
; 1080 : 
; 1081 : 			_alloca			(4096);
; 1082 : 			recurs			(count - 1);
; 1083 : 		}};
; 1084 : 		foo::recurs			(u32(-1));
; 1085 : 		std::terminate		();
; 1086 : #endif // 0
; 1087 : 	}

	add	rsp, 40					; 00000028H
	ret	0
?_initialize@xrDebug@@QEAAXAEB_N@Z ENDP			; xrDebug::_initialize
_TEXT	ENDS
; Function compile flags: /Ogtpy
; File c:\program files (x86)\microsoft visual studio 12.0\vc\include\string.h
;	COMDAT ??$strcpy_s@$0BAAA@@@YAHAEAY0BAAA@DPEBD@Z
_TEXT	SEGMENT
_Dest$ = 8
_Source$ = 16
??$strcpy_s@$0BAAA@@@YAHAEAY0BAAA@DPEBD@Z PROC		; strcpy_s<4096>, COMDAT

; 111  : __DEFINE_CPP_OVERLOAD_SECURE_FUNC_0_1(errno_t, strcpy_s, _Post_z_ char, _Dest, _In_z_ const char *, _Source)

	mov	r8, rdx
	mov	edx, 4096				; 00001000H
	rex_jmp	QWORD PTR __imp_strcpy_s
??$strcpy_s@$0BAAA@@@YAHAEAY0BAAA@DPEBD@Z ENDP		; strcpy_s<4096>
_TEXT	ENDS
; Function compile flags: /Ogtpy
; File c:\users\nummer\documents\github\olr-3.0\src\xray\xrcore\xrmemory.h
;	COMDAT ?xr_malloc@@YAPEAX_K@Z
_TEXT	SEGMENT
size$ = 8
?xr_malloc@@YAPEAX_K@Z PROC				; xr_malloc, COMDAT

; 110  : 	IC void*	xr_malloc	(size_t size)			{	return	Memory.mem_alloc(size);					}

	mov	rdx, rcx
	lea	rcx, OFFSET FLAT:?Memory@@3VxrMemory@@A	; Memory
	jmp	?mem_alloc@xrMemory@@QEAAPEAX_K@Z	; xrMemory::mem_alloc
?xr_malloc@@YAPEAX_K@Z ENDP				; xr_malloc
_TEXT	ENDS
; Function compile flags: /Ogtpy
; File c:\program files (x86)\microsoft visual studio 12.0\vc\include\xstring
;	COMDAT ?c_str@?$basic_string@DU?$char_traits@D@std@@V?$allocator@D@2@@std@@QEBAPEBDXZ
_TEXT	SEGMENT
this$ = 8
?c_str@?$basic_string@DU?$char_traits@D@std@@V?$allocator@D@2@@std@@QEBAPEBDXZ PROC ; std::basic_string<char,std::char_traits<char>,std::allocator<char> >::c_str, COMDAT

; 520  : 			: this->_Bx._Buf);

	cmp	QWORD PTR [rcx+24], 16
	jb	SHORT $LN5@c_str

; 1739 : 		return (this->_Myptr());

	mov	rax, QWORD PTR [rcx]

; 1740 : 		}

	ret	0
$LN5@c_str:

; 1739 : 		return (this->_Myptr());

	mov	rax, rcx

; 1740 : 		}

	ret	0
?c_str@?$basic_string@DU?$char_traits@D@std@@V?$allocator@D@2@@std@@QEBAPEBDXZ ENDP ; std::basic_string<char,std::char_traits<char>,std::allocator<char> >::c_str
_TEXT	ENDS
END
