; Listing generated by Microsoft (R) Optimizing Compiler Version 18.00.40629.0 

include listing.inc

INCLUDELIB OLDNAMES

PUBLIC	??_C@_0EC@GKCJHOFE@?$CB?5WARNING?$CB?5xrCore?3str_container?3@ ; `string'
PUBLIC	??_C@_0EC@PEIFBNPE@?$CB?5WARNING?$CB?5xrCore?3str_container?3@ ; `string'
PUBLIC	??_C@_0BG@PEMNBBM@str_container?3?3verify?$AA@	; `string'
PUBLIC	??_C@_0N@LDEKJIFI@xrstring?4cpp?$AA@		; `string'
PUBLIC	??_C@_0DI@MODFLCOP@CorePanic?3?5read?9only?5memory?5corr@ ; `string'
PUBLIC	??_C@_0P@ELJNGOBP@crc?$DN?$DNsv?9?$DOdwCRC?$AA@	; `string'
PUBLIC	??_C@_0EN@LMBPALPM@CorePanic?3?5read?9only?5memory?5corr@ ; `string'
PUBLIC	??_C@_0CF@JABCJEBB@sv?9?$DOdwLength?5?$DN?$DN?5xr_strlen?$CIsv?9?$DOva@ ; `string'
PUBLIC	??_C@_0BC@DNCLKLDJ@x?3?2$str_dump$?4txt?$AA@	; `string'
PUBLIC	??_C@_0CB@NIJMNPED@ref?$FL?$CF4d?$FN?9len?$FL?$CF3d?$FN?9crc?$FL?$CF8X?$FN?5?3?5?$CFs?6@ ; `string'
PUBLIC	?g_pStringContainer@@3PEAVstr_container@@EA	; g_pStringContainer
EXTRN	__imp_itoa:PROC
;	COMDAT ?ignore_always@?9??verify@str_container@@QEAAXXZ@4_NA
_BSS	SEGMENT
?ignore_always@?9??verify@str_container@@QEAAXXZ@4_NA DB 01H DUP (?) ; `str_container::verify'::`10'::ignore_always
_BSS	ENDS
;	COMDAT ?ignore_always@?5??verify@str_container@@QEAAXXZ@4_NA
_BSS	SEGMENT
?ignore_always@?5??verify@str_container@@QEAAXXZ@4_NA DB 01H DUP (?) ; `str_container::verify'::`6'::ignore_always
?g_pStringContainer@@3PEAVstr_container@@EA DQ 01H DUP (?) ; g_pStringContainer
_BSS	ENDS
;	COMDAT ??_C@_0CB@NIJMNPED@ref?$FL?$CF4d?$FN?9len?$FL?$CF3d?$FN?9crc?$FL?$CF8X?$FN?5?3?5?$CFs?6@
CONST	SEGMENT
??_C@_0CB@NIJMNPED@ref?$FL?$CF4d?$FN?9len?$FL?$CF3d?$FN?9crc?$FL?$CF8X?$FN?5?3?5?$CFs?6@ DB 'r'
	DB	'ef[%4d]-len[%3d]-crc[%8X] : %s', 0aH, 00H	; `string'
CONST	ENDS
;	COMDAT ??_C@_0BC@DNCLKLDJ@x?3?2$str_dump$?4txt?$AA@
CONST	SEGMENT
??_C@_0BC@DNCLKLDJ@x?3?2$str_dump$?4txt?$AA@ DB 'x:\$str_dump$.txt', 00H ; `string'
CONST	ENDS
;	COMDAT ??_C@_0CF@JABCJEBB@sv?9?$DOdwLength?5?$DN?$DN?5xr_strlen?$CIsv?9?$DOva@
CONST	SEGMENT
??_C@_0CF@JABCJEBB@sv?9?$DOdwLength?5?$DN?$DN?5xr_strlen?$CIsv?9?$DOva@ DB 's'
	DB	'v->dwLength == xr_strlen(sv->value)', 00H	; `string'
CONST	ENDS
;	COMDAT ??_C@_0EN@LMBPALPM@CorePanic?3?5read?9only?5memory?5corr@
CONST	SEGMENT
??_C@_0EN@LMBPALPM@CorePanic?3?5read?9only?5memory?5corr@ DB 'CorePanic: '
	DB	'read-only memory corruption (shared_strings, internal structu'
	DB	'res)', 00H					; `string'
CONST	ENDS
;	COMDAT ??_C@_0P@ELJNGOBP@crc?$DN?$DNsv?9?$DOdwCRC?$AA@
CONST	SEGMENT
??_C@_0P@ELJNGOBP@crc?$DN?$DNsv?9?$DOdwCRC?$AA@ DB 'crc==sv->dwCRC', 00H ; `string'
CONST	ENDS
;	COMDAT ??_C@_0DI@MODFLCOP@CorePanic?3?5read?9only?5memory?5corr@
CONST	SEGMENT
??_C@_0DI@MODFLCOP@CorePanic?3?5read?9only?5memory?5corr@ DB 'CorePanic: '
	DB	'read-only memory corruption (shared_strings)', 00H ; `string'
CONST	ENDS
;	COMDAT ??_C@_0N@LDEKJIFI@xrstring?4cpp?$AA@
CONST	SEGMENT
??_C@_0N@LDEKJIFI@xrstring?4cpp?$AA@ DB 'xrstring.cpp', 00H ; `string'
CONST	ENDS
;	COMDAT ??_C@_0BG@PEMNBBM@str_container?3?3verify?$AA@
CONST	SEGMENT
??_C@_0BG@PEMNBBM@str_container?3?3verify?$AA@ DB 'str_container::verify', 00H ; `string'
CONST	ENDS
;	COMDAT ??_C@_0EC@PEIFBNPE@?$CB?5WARNING?$CB?5xrCore?3str_container?3@
CONST	SEGMENT
??_C@_0EC@PEIFBNPE@?$CB?5WARNING?$CB?5xrCore?3str_container?3@ DB '! WARN'
	DB	'ING! xrCore:str_container::clean: string crc[%d] corruption', 00H ; `string'
CONST	ENDS
;	COMDAT ??_C@_0EC@GKCJHOFE@?$CB?5WARNING?$CB?5xrCore?3str_container?3@
CONST	SEGMENT
??_C@_0EC@GKCJHOFE@?$CB?5WARNING?$CB?5xrCore?3str_container?3@ DB '! WARN'
	DB	'ING! xrCore:str_container::clean: string len[%d] corruption', 00H ; `string'
PUBLIC	??$_Fn@V?$xalloc@U?$_Tree_node@PEAUstr_value@@PEAX@std@@@@PEAUstr_value@@AEBQEAU2@@_Alloc_construct@std@@SAXU_Wrap_int@1@AEAV?$xalloc@U?$_Tree_node@PEAUstr_value@@PEAX@std@@@@PEAPEAUstr_value@@AEBQEAU4@@Z ; std::_Alloc_construct::_Fn<xalloc<std::_Tree_node<str_value * __ptr64,void * __ptr64> >,str_value * __ptr64,str_value * __ptr64 const & __ptr64>
PUBLIC	??$construct@PEAUstr_value@@AEBQEAU1@@?$allocator_traits@V?$xalloc@U?$_Tree_node@PEAUstr_value@@PEAX@std@@@@@std@@SAXAEAV?$xalloc@U?$_Tree_node@PEAUstr_value@@PEAX@std@@@@PEAPEAUstr_value@@AEBQEAU3@@Z ; std::allocator_traits<xalloc<std::_Tree_node<str_value * __ptr64,void * __ptr64> > >::construct<str_value * __ptr64,str_value * __ptr64 const & __ptr64>
PUBLIC	??$construct@PEAUstr_value@@AEBQEAU1@@?$_Wrap_alloc@V?$xalloc@U?$_Tree_node@PEAUstr_value@@PEAX@std@@@@@std@@QEAAXPEAPEAUstr_value@@AEBQEAU2@@Z ; std::_Wrap_alloc<xalloc<std::_Tree_node<str_value * __ptr64,void * __ptr64> > >::construct<str_value * __ptr64,str_value * __ptr64 const & __ptr64>
PUBLIC	??$_Buynode@AEBQEAUstr_value@@@?$_Tree_buy@PEAUstr_value@@V?$xalloc@PEAUstr_value@@@@@std@@QEAAPEAU?$_Tree_node@PEAUstr_value@@PEAX@1@AEBQEAUstr_value@@@Z ; std::_Tree_buy<str_value * __ptr64,xalloc<str_value * __ptr64> >::_Buynode<str_value * __ptr64 const & __ptr64>
PUBLIC	?max_size@?$xalloc@U?$_Tree_node@PEAUstr_value@@PEAX@std@@@@QEBA_KXZ ; xalloc<std::_Tree_node<str_value * __ptr64,void * __ptr64> >::max_size
PUBLIC	??$_Fn@V?$xalloc@U?$_Tree_node@PEAUstr_value@@PEAX@std@@@@@_Alloc_max_size@std@@SA_KHAEBV?$xalloc@U?$_Tree_node@PEAUstr_value@@PEAX@std@@@@@Z ; std::_Alloc_max_size::_Fn<xalloc<std::_Tree_node<str_value * __ptr64,void * __ptr64> > >
PUBLIC	??$forward@AEAV?$_Tree_const_iterator@V?$_Tree_val@U?$_Tree_simple_types@PEAUstr_value@@@std@@@std@@@std@@@std@@YAAEAV?$_Tree_const_iterator@V?$_Tree_val@U?$_Tree_simple_types@PEAUstr_value@@@std@@@std@@@0@AEAV10@@Z ; std::forward<std::_Tree_const_iterator<std::_Tree_val<std::_Tree_simple_types<str_value * __ptr64> > > & __ptr64>
PUBLIC	??$forward@V?$_Tree_const_iterator@V?$_Tree_val@U?$_Tree_simple_types@PEAUstr_value@@@std@@@std@@@std@@@std@@YA$$QEAV?$_Tree_const_iterator@V?$_Tree_val@U?$_Tree_simple_types@PEAUstr_value@@@std@@@std@@@0@AEAV10@@Z ; std::forward<std::_Tree_const_iterator<std::_Tree_val<std::_Tree_simple_types<str_value * __ptr64> > > >
PUBLIC	??$_Buynode_if_nil@AEBQEAUstr_value@@@?$_Tree@V?$_Tset_traits@PEAUstr_value@@Ustr_value_cmp@@V?$xalloc@PEAUstr_value@@@@$00@std@@@std@@IEAAPEAU?$_Tree_node@PEAUstr_value@@PEAX@1@U_Nil@1@AEBQEAUstr_value@@@Z ; std::_Tree<std::_Tset_traits<str_value * __ptr64,str_value_cmp,xalloc<str_value * __ptr64>,1> >::_Buynode_if_nil<str_value * __ptr64 const & __ptr64>
PUBLIC	?max_size@?$allocator_traits@V?$xalloc@U?$_Tree_node@PEAUstr_value@@PEAX@std@@@@@std@@SA_KAEBV?$xalloc@U?$_Tree_node@PEAUstr_value@@PEAX@std@@@@@Z ; std::allocator_traits<xalloc<std::_Tree_node<str_value * __ptr64,void * __ptr64> > >::max_size
PUBLIC	?max_size@?$_Wrap_alloc@V?$xalloc@U?$_Tree_node@PEAUstr_value@@PEAX@std@@@@@std@@QEBA_KXZ ; std::_Wrap_alloc<xalloc<std::_Tree_node<str_value * __ptr64,void * __ptr64> > >::max_size
PUBLIC	?max_size@?$_Tree@V?$_Tset_traits@PEAUstr_value@@Ustr_value_cmp@@V?$xalloc@PEAUstr_value@@@@$00@std@@@std@@QEBA_KXZ ; std::_Tree<std::_Tset_traits<str_value * __ptr64,str_value_cmp,xalloc<str_value * __ptr64>,1> >::max_size
PUBLIC	??$?0AEAV?$_Tree_const_iterator@V?$_Tree_val@U?$_Tree_simple_types@PEAUstr_value@@@std@@@std@@@std@@_NX@?$pair@V?$_Tree_const_iterator@V?$_Tree_val@U?$_Tree_simple_types@PEAUstr_value@@@std@@@std@@@std@@_N@std@@QEAA@AEAV?$_Tree_const_iterator@V?$_Tree_val@U?$_Tree_simple_types@PEAUstr_value@@@std@@@std@@@1@$$QEA_N@Z ; std::pair<std::_Tree_const_iterator<std::_Tree_val<std::_Tree_simple_types<str_value * __ptr64> > >,bool>::pair<std::_Tree_const_iterator<std::_Tree_val<std::_Tree_simple_types<str_value * __ptr64> > >,bool><std::_Tree_const_iterator<std::_Tree_val<std::_Tree_simple_types<str_value * __ptr64> > > & __ptr64,bool,void>
PUBLIC	??$?0V?$_Tree_const_iterator@V?$_Tree_val@U?$_Tree_simple_types@PEAUstr_value@@@std@@@std@@@std@@_NX@?$pair@V?$_Tree_const_iterator@V?$_Tree_val@U?$_Tree_simple_types@PEAUstr_value@@@std@@@std@@@std@@_N@std@@QEAA@$$QEAV?$_Tree_const_iterator@V?$_Tree_val@U?$_Tree_simple_types@PEAUstr_value@@@std@@@std@@@1@$$QEA_N@Z ; std::pair<std::_Tree_const_iterator<std::_Tree_val<std::_Tree_simple_types<str_value * __ptr64> > >,bool>::pair<std::_Tree_const_iterator<std::_Tree_val<std::_Tree_simple_types<str_value * __ptr64> > >,bool><std::_Tree_const_iterator<std::_Tree_val<std::_Tree_simple_types<str_value * __ptr64> > >,bool,void>
PUBLIC	??$_Insert_at@AEBQEAUstr_value@@U_Nil@std@@@?$_Tree@V?$_Tset_traits@PEAUstr_value@@Ustr_value_cmp@@V?$xalloc@PEAUstr_value@@@@$00@std@@@std@@IEAA?AV?$_Tree_const_iterator@V?$_Tree_val@U?$_Tree_simple_types@PEAUstr_value@@@std@@@std@@@1@_NPEAU?$_Tree_node@PEAUstr_value@@PEAX@1@AEBQEAUstr_value@@U_Nil@1@@Z ; std::_Tree<std::_Tset_traits<str_value * __ptr64,str_value_cmp,xalloc<str_value * __ptr64>,1> >::_Insert_at<str_value * __ptr64 const & __ptr64,std::_Nil>
PUBLIC	??$forward@AEBQEAUstr_value@@@std@@YAAEBQEAUstr_value@@AEBQEAU1@@Z ; std::forward<str_value * __ptr64 const & __ptr64>
PUBLIC	??F?$_Tree_unchecked_const_iterator@V?$_Tree_val@U?$_Tree_simple_types@PEAUstr_value@@@std@@@std@@U_Iterator_base0@2@@std@@QEAAAEAV01@XZ ; std::_Tree_unchecked_const_iterator<std::_Tree_val<std::_Tree_simple_types<str_value * __ptr64> >,std::_Iterator_base0>::operator--
PUBLIC	??F?$_Tree_const_iterator@V?$_Tree_val@U?$_Tree_simple_types@PEAUstr_value@@@std@@@std@@@std@@QEAAAEAV01@XZ ; std::_Tree_const_iterator<std::_Tree_val<std::_Tree_simple_types<str_value * __ptr64> > >::operator--
PUBLIC	?_Destroy_if_not_nil@?$_Tree@V?$_Tset_traits@PEAUstr_value@@Ustr_value_cmp@@V?$xalloc@PEAUstr_value@@@@$00@std@@@std@@IEAAXU_Nil@2@@Z ; std::_Tree<std::_Tset_traits<str_value * __ptr64,str_value_cmp,xalloc<str_value * __ptr64>,1> >::_Destroy_if_not_nil
PUBLIC	??$_Insert_nohint@AEBQEAUstr_value@@U_Nil@std@@@?$_Tree@V?$_Tset_traits@PEAUstr_value@@Ustr_value_cmp@@V?$xalloc@PEAUstr_value@@@@$00@std@@@std@@IEAA?AU?$pair@V?$_Tree_const_iterator@V?$_Tree_val@U?$_Tree_simple_types@PEAUstr_value@@@std@@@std@@@std@@_N@1@_NAEBQEAUstr_value@@U_Nil@1@@Z ; std::_Tree<std::_Tset_traits<str_value * __ptr64,str_value_cmp,xalloc<str_value * __ptr64>,1> >::_Insert_nohint<str_value * __ptr64 const & __ptr64,std::_Nil>
PUBLIC	??$xr_free@Ustr_value@@@@YAXAEAPEAUstr_value@@@Z ; xr_free<str_value>
PUBLIC	?_Kfn@?$_Tset_traits@PEAUstr_value@@Ustr_value_cmp@@V?$xalloc@PEAUstr_value@@@@$00@std@@SAAEBQEAUstr_value@@AEBQEAU3@@Z ; std::_Tset_traits<str_value * __ptr64,str_value_cmp,xalloc<str_value * __ptr64>,1>::_Kfn
PUBLIC	?_Kfn@?$_Tree@V?$_Tset_traits@PEAUstr_value@@Ustr_value_cmp@@V?$xalloc@PEAUstr_value@@@@$00@std@@@std@@IEBAAEBQEAUstr_value@@AEBQEAU3@@Z ; std::_Tree<std::_Tset_traits<str_value * __ptr64,str_value_cmp,xalloc<str_value * __ptr64>,1> >::_Kfn
PUBLIC	?_Lbound@?$_Tree@V?$_Tset_traits@PEAUstr_value@@Ustr_value_cmp@@V?$xalloc@PEAUstr_value@@@@$00@std@@@std@@IEAAPEAU?$_Tree_node@PEAUstr_value@@PEAX@2@AEBQEAUstr_value@@@Z ; std::_Tree<std::_Tset_traits<str_value * __ptr64,str_value_cmp,xalloc<str_value * __ptr64>,1> >::_Lbound
PUBLIC	?_Key@?$_Tree@V?$_Tset_traits@PEAUstr_value@@Ustr_value_cmp@@V?$xalloc@PEAUstr_value@@@@$00@std@@@std@@IEBAAEBQEAUstr_value@@PEAU?$_Tree_node@PEAUstr_value@@PEAX@2@@Z ; std::_Tree<std::_Tset_traits<str_value * __ptr64,str_value_cmp,xalloc<str_value * __ptr64>,1> >::_Key
PUBLIC	?lower_bound@?$_Tree@V?$_Tset_traits@PEAUstr_value@@Ustr_value_cmp@@V?$xalloc@PEAUstr_value@@@@$00@std@@@std@@QEAA?AV?$_Tree_const_iterator@V?$_Tree_val@U?$_Tree_simple_types@PEAUstr_value@@@std@@@std@@@2@AEBQEAUstr_value@@@Z ; std::_Tree<std::_Tset_traits<str_value * __ptr64,str_value_cmp,xalloc<str_value * __ptr64>,1> >::lower_bound
PUBLIC	?insert@?$_Tree@V?$_Tset_traits@PEAUstr_value@@Ustr_value_cmp@@V?$xalloc@PEAUstr_value@@@@$00@std@@@std@@QEAA?AU?$pair@V?$_Tree_const_iterator@V?$_Tree_val@U?$_Tree_simple_types@PEAUstr_value@@@std@@@std@@@std@@_N@2@AEBQEAUstr_value@@@Z ; std::_Tree<std::_Tset_traits<str_value * __ptr64,str_value_cmp,xalloc<str_value * __ptr64>,1> >::insert
PUBLIC	??D?$_Tree_const_iterator@V?$_Tree_val@U?$_Tree_simple_types@PEAUstr_value@@@std@@@std@@@std@@QEBAAEBQEAUstr_value@@XZ ; std::_Tree_const_iterator<std::_Tree_val<std::_Tree_simple_types<str_value * __ptr64> > >::operator*
PUBLIC	?find@?$_Tree@V?$_Tset_traits@PEAUstr_value@@Ustr_value_cmp@@V?$xalloc@PEAUstr_value@@@@$00@std@@@std@@QEAA?AV?$_Tree_const_iterator@V?$_Tree_val@U?$_Tree_simple_types@PEAUstr_value@@@std@@@std@@@2@AEBQEAUstr_value@@@Z ; std::_Tree<std::_Tset_traits<str_value * __ptr64,str_value_cmp,xalloc<str_value * __ptr64>,1> >::find
PUBLIC	?empty@?$_Tree@V?$_Tset_traits@PEAUstr_value@@Ustr_value_cmp@@V?$xalloc@PEAUstr_value@@@@$00@std@@@std@@QEBA_NXZ ; std::_Tree<std::_Tset_traits<str_value * __ptr64,str_value_cmp,xalloc<str_value * __ptr64>,1> >::empty
PUBLIC	?insert@?$multiset@PEAUstr_value@@Ustr_value_cmp@@V?$xalloc@PEAUstr_value@@@@@std@@QEAA?AV?$_Tree_const_iterator@V?$_Tree_val@U?$_Tree_simple_types@PEAUstr_value@@@std@@@std@@@2@AEBQEAUstr_value@@@Z ; std::multiset<str_value * __ptr64,str_value_cmp,xalloc<str_value * __ptr64> >::insert
PUBLIC	?dump@str_container@@QEAAXXZ			; str_container::dump
PUBLIC	?verify@str_container@@QEAAXXZ			; str_container::verify
PUBLIC	?stat_economy@str_container@@QEAAIXZ		; str_container::stat_economy
PUBLIC	?clean@str_container@@QEAAXXZ			; str_container::clean
PUBLIC	??1str_container@@QEAA@XZ			; str_container::~str_container
PUBLIC	?dock@str_container@@QEAAPEAUstr_value@@PEBD@Z	; str_container::dock
_Nil_obj DB	01H DUP (?)
_BSS	ENDS
;	COMDAT pdata
pdata	SEGMENT
$pdata$??$_Buynode@AEBQEAUstr_value@@@?$_Tree_buy@PEAUstr_value@@V?$xalloc@PEAUstr_value@@@@@std@@QEAAPEAU?$_Tree_node@PEAUstr_value@@PEAX@1@AEBQEAUstr_value@@@Z DD imagerel $LN65
	DD	imagerel $LN65+55
	DD	imagerel $unwind$??$_Buynode@AEBQEAUstr_value@@@?$_Tree_buy@PEAUstr_value@@V?$xalloc@PEAUstr_value@@@@@std@@QEAAPEAU?$_Tree_node@PEAUstr_value@@PEAX@1@AEBQEAUstr_value@@@Z
pdata	ENDS
;	COMDAT pdata
pdata	SEGMENT
$pdata$?catch$0@?0???$_Buynode@AEBQEAUstr_value@@@?$_Tree_buy@PEAUstr_value@@V?$xalloc@PEAUstr_value@@@@@std@@QEAAPEAU?$_Tree_node@PEAUstr_value@@PEAX@1@AEBQEAUstr_value@@@Z@4HA DD imagerel ?catch$0@?0???$_Buynode@AEBQEAUstr_value@@@?$_Tree_buy@PEAUstr_value@@V?$xalloc@PEAUstr_value@@@@@std@@QEAAPEAU?$_Tree_node@PEAUstr_value@@PEAX@1@AEBQEAUstr_value@@@Z@4HA
	DD	imagerel ?catch$0@?0???$_Buynode@AEBQEAUstr_value@@@?$_Tree_buy@PEAUstr_value@@V?$xalloc@PEAUstr_value@@@@@std@@QEAAPEAU?$_Tree_node@PEAUstr_value@@PEAX@1@AEBQEAUstr_value@@@Z@4HA+40
	DD	imagerel $unwind$?catch$0@?0???$_Buynode@AEBQEAUstr_value@@@?$_Tree_buy@PEAUstr_value@@V?$xalloc@PEAUstr_value@@@@@std@@QEAAPEAU?$_Tree_node@PEAUstr_value@@PEAX@1@AEBQEAUstr_value@@@Z@4HA
pdata	ENDS
;	COMDAT pdata
pdata	SEGMENT
$pdata$??$_Buynode_if_nil@AEBQEAUstr_value@@@?$_Tree@V?$_Tset_traits@PEAUstr_value@@Ustr_value_cmp@@V?$xalloc@PEAUstr_value@@@@$00@std@@@std@@IEAAPEAU?$_Tree_node@PEAUstr_value@@PEAX@1@U_Nil@1@AEBQEAUstr_value@@@Z DD imagerel $LN6
	DD	imagerel $LN6+17
	DD	imagerel $unwind$??$_Buynode_if_nil@AEBQEAUstr_value@@@?$_Tree@V?$_Tset_traits@PEAUstr_value@@Ustr_value_cmp@@V?$xalloc@PEAUstr_value@@@@$00@std@@@std@@IEAAPEAU?$_Tree_node@PEAUstr_value@@PEAX@1@U_Nil@1@AEBQEAUstr_value@@@Z
pdata	ENDS
;	COMDAT pdata
pdata	SEGMENT
$pdata$??$_Insert_at@AEBQEAUstr_value@@U_Nil@std@@@?$_Tree@V?$_Tset_traits@PEAUstr_value@@Ustr_value_cmp@@V?$xalloc@PEAUstr_value@@@@$00@std@@@std@@IEAA?AV?$_Tree_const_iterator@V?$_Tree_val@U?$_Tree_simple_types@PEAUstr_value@@@std@@@std@@@1@_NPEAU?$_Tree_node@PEAUstr_value@@PEAX@1@AEBQEAUstr_value@@U_Nil@1@@Z DD imagerel $LN386
	DD	imagerel $LN386+711
	DD	imagerel $unwind$??$_Insert_at@AEBQEAUstr_value@@U_Nil@std@@@?$_Tree@V?$_Tset_traits@PEAUstr_value@@Ustr_value_cmp@@V?$xalloc@PEAUstr_value@@@@$00@std@@@std@@IEAA?AV?$_Tree_const_iterator@V?$_Tree_val@U?$_Tree_simple_types@PEAUstr_value@@@std@@@std@@@1@_NPEAU?$_Tree_node@PEAUstr_value@@PEAX@1@AEBQEAUstr_value@@U_Nil@1@@Z
pdata	ENDS
;	COMDAT pdata
pdata	SEGMENT
$pdata$??F?$_Tree_const_iterator@V?$_Tree_val@U?$_Tree_simple_types@PEAUstr_value@@@std@@@std@@@std@@QEAAAEAV01@XZ DD imagerel $LN4
	DD	imagerel $LN4+23
	DD	imagerel $unwind$??F?$_Tree_const_iterator@V?$_Tree_val@U?$_Tree_simple_types@PEAUstr_value@@@std@@@std@@@std@@QEAAAEAV01@XZ
pdata	ENDS
;	COMDAT pdata
pdata	SEGMENT
$pdata$??$_Insert_nohint@AEBQEAUstr_value@@U_Nil@std@@@?$_Tree@V?$_Tset_traits@PEAUstr_value@@Ustr_value_cmp@@V?$xalloc@PEAUstr_value@@@@$00@std@@@std@@IEAA?AU?$pair@V?$_Tree_const_iterator@V?$_Tree_val@U?$_Tree_simple_types@PEAUstr_value@@@std@@@std@@@std@@_N@1@_NAEBQEAUstr_value@@U_Nil@1@@Z DD imagerel $LN180
	DD	imagerel $LN180+179
	DD	imagerel $unwind$??$_Insert_nohint@AEBQEAUstr_value@@U_Nil@std@@@?$_Tree@V?$_Tset_traits@PEAUstr_value@@Ustr_value_cmp@@V?$xalloc@PEAUstr_value@@@@$00@std@@@std@@IEAA?AU?$pair@V?$_Tree_const_iterator@V?$_Tree_val@U?$_Tree_simple_types@PEAUstr_value@@@std@@@std@@@std@@_N@1@_NAEBQEAUstr_value@@U_Nil@1@@Z
pdata	ENDS
;	COMDAT pdata
pdata	SEGMENT
$pdata$?catch$0@?0???$_Insert_nohint@AEBQEAUstr_value@@U_Nil@std@@@?$_Tree@V?$_Tset_traits@PEAUstr_value@@Ustr_value_cmp@@V?$xalloc@PEAUstr_value@@@@$00@std@@@std@@IEAA?AU?$pair@V?$_Tree_const_iterator@V?$_Tree_val@U?$_Tree_simple_types@PEAUstr_value@@@std@@@std@@@std@@_N@1@_NAEBQEAUstr_value@@U_Nil@1@@Z@4HA DD imagerel ?catch$0@?0???$_Insert_nohint@AEBQEAUstr_value@@U_Nil@std@@@?$_Tree@V?$_Tset_traits@PEAUstr_value@@Ustr_value_cmp@@V?$xalloc@PEAUstr_value@@@@$00@std@@@std@@IEAA?AU?$pair@V?$_Tree_const_iterator@V?$_Tree_val@U?$_Tree_simple_types@PEAUstr_value@@@std@@@std@@@std@@_N@1@_NAEBQEAUstr_value@@U_Nil@1@@Z@4HA
	DD	imagerel ?catch$0@?0???$_Insert_nohint@AEBQEAUstr_value@@U_Nil@std@@@?$_Tree@V?$_Tset_traits@PEAUstr_value@@Ustr_value_cmp@@V?$xalloc@PEAUstr_value@@@@$00@std@@@std@@IEAA?AU?$pair@V?$_Tree_const_iterator@V?$_Tree_val@U?$_Tree_simple_types@PEAUstr_value@@@std@@@std@@@std@@_N@1@_NAEBQEAUstr_value@@U_Nil@1@@Z@4HA+23
	DD	imagerel $unwind$?catch$0@?0???$_Insert_nohint@AEBQEAUstr_value@@U_Nil@std@@@?$_Tree@V?$_Tset_traits@PEAUstr_value@@Ustr_value_cmp@@V?$xalloc@PEAUstr_value@@@@$00@std@@@std@@IEAA?AU?$pair@V?$_Tree_const_iterator@V?$_Tree_val@U?$_Tree_simple_types@PEAUstr_value@@@std@@@std@@@std@@_N@1@_NAEBQEAUstr_value@@U_Nil@1@@Z@4HA
pdata	ENDS
;	COMDAT pdata
pdata	SEGMENT
$pdata$??$xr_free@Ustr_value@@@@YAXAEAPEAUstr_value@@@Z DD imagerel $LN35
	DD	imagerel $LN35+162
	DD	imagerel $unwind$??$xr_free@Ustr_value@@@@YAXAEAPEAUstr_value@@@Z
pdata	ENDS
;	COMDAT pdata
pdata	SEGMENT
$pdata$?insert@?$_Tree@V?$_Tset_traits@PEAUstr_value@@Ustr_value_cmp@@V?$xalloc@PEAUstr_value@@@@$00@std@@@std@@QEAA?AU?$pair@V?$_Tree_const_iterator@V?$_Tree_val@U?$_Tree_simple_types@PEAUstr_value@@@std@@@std@@@std@@_N@2@AEBQEAUstr_value@@@Z DD imagerel $LN4
	DD	imagerel $LN4+37
	DD	imagerel $unwind$?insert@?$_Tree@V?$_Tset_traits@PEAUstr_value@@Ustr_value_cmp@@V?$xalloc@PEAUstr_value@@@@$00@std@@@std@@QEAA?AU?$pair@V?$_Tree_const_iterator@V?$_Tree_val@U?$_Tree_simple_types@PEAUstr_value@@@std@@@std@@@std@@_N@2@AEBQEAUstr_value@@@Z
pdata	ENDS
;	COMDAT pdata
pdata	SEGMENT
$pdata$?insert@?$multiset@PEAUstr_value@@Ustr_value_cmp@@V?$xalloc@PEAUstr_value@@@@@std@@QEAA?AV?$_Tree_const_iterator@V?$_Tree_val@U?$_Tree_simple_types@PEAUstr_value@@@std@@@std@@@2@AEBQEAUstr_value@@@Z DD imagerel $LN6
	DD	imagerel $LN6+50
	DD	imagerel $unwind$?insert@?$multiset@PEAUstr_value@@Ustr_value_cmp@@V?$xalloc@PEAUstr_value@@@@@std@@QEAA?AV?$_Tree_const_iterator@V?$_Tree_val@U?$_Tree_simple_types@PEAUstr_value@@@std@@@std@@@2@AEBQEAUstr_value@@@Z
pdata	ENDS
pdata	SEGMENT
$pdata$?dump@str_container@@QEAAXXZ DD imagerel $LN100
	DD	imagerel $LN100+255
	DD	imagerel $unwind$?dump@str_container@@QEAAXXZ
$pdata$?verify@str_container@@QEAAXXZ DD imagerel $LN113
	DD	imagerel $LN113+44
	DD	imagerel $unwind$?verify@str_container@@QEAAXXZ
$pdata$4$?verify@str_container@@QEAAXXZ DD imagerel $LN113+44
	DD	imagerel $LN113+513
	DD	imagerel $chain$4$?verify@str_container@@QEAAXXZ
$pdata$5$?verify@str_container@@QEAAXXZ DD imagerel $LN113+513
	DD	imagerel $LN113+534
	DD	imagerel $chain$5$?verify@str_container@@QEAAXXZ
$pdata$?stat_economy@str_container@@QEAAIXZ DD imagerel $LN92
	DD	imagerel $LN92+185
	DD	imagerel $unwind$?stat_economy@str_container@@QEAAIXZ
$pdata$?clean@str_container@@QEAAXXZ DD imagerel $LN155
	DD	imagerel $LN155+14
	DD	imagerel $unwind$?clean@str_container@@QEAAXXZ
$pdata$0$?clean@str_container@@QEAAXXZ DD imagerel $LN155+14
	DD	imagerel $LN155+42
	DD	imagerel $chain$0$?clean@str_container@@QEAAXXZ
$pdata$5$?clean@str_container@@QEAAXXZ DD imagerel $LN155+42
	DD	imagerel $LN155+452
	DD	imagerel $chain$5$?clean@str_container@@QEAAXXZ
$pdata$6$?clean@str_container@@QEAAXXZ DD imagerel $LN155+452
	DD	imagerel $LN155+465
	DD	imagerel $chain$6$?clean@str_container@@QEAAXXZ
$pdata$7$?clean@str_container@@QEAAXXZ DD imagerel $LN155+465
	DD	imagerel $LN155+538
	DD	imagerel $chain$7$?clean@str_container@@QEAAXXZ
$pdata$??1str_container@@QEAA@XZ DD imagerel $LN66
	DD	imagerel $LN66+88
	DD	imagerel $unwind$??1str_container@@QEAA@XZ
$pdata$?dock@str_container@@QEAAPEAUstr_value@@PEBD@Z DD imagerel $LN183
	DD	imagerel $LN183+480
	DD	imagerel $unwind$?dock@str_container@@QEAAPEAUstr_value@@PEBD@Z
xdata	SEGMENT
$unwind$?dump@str_container@@QEAAXXZ DD 081501H
	DD	0a7415H
	DD	096415H
	DD	083415H
	DD	0e0115215H
$unwind$?verify@str_container@@QEAAXXZ DD 041001H
	DD	0f009f210H
	DD	030067007H
$chain$4$?verify@str_container@@QEAAXXZ DD 0a3021H
	DD	0ee430H
	DD	0fd41dH
	DD	017c418H
	DD	0166410H
	DD	0155408H
	DD	imagerel $LN113
	DD	imagerel $LN113+44
	DD	imagerel $unwind$?verify@str_container@@QEAAXXZ
$chain$5$?verify@str_container@@QEAAXXZ DD 021H
	DD	imagerel $LN113
	DD	imagerel $LN113+44
	DD	imagerel $unwind$?verify@str_container@@QEAAXXZ
$unwind$?stat_economy@str_container@@QEAAIXZ DD 040a01H
	DD	06340aH
	DD	07006320aH
$unwind$?clean@str_container@@QEAAXXZ DD 030801H
	DD	0f0046208H
	DD	0c002H
$chain$0$?clean@str_container@@QEAAXXZ DD 020521H
	DD	0b3405H
	DD	imagerel $LN155
	DD	imagerel $LN155+14
	DD	imagerel $unwind$?clean@str_container@@QEAAXXZ
$chain$5$?clean@str_container@@QEAAXXZ DD 0a1921H
	DD	04e419H
	DD	05d414H
	DD	06740fH
	DD	0d640aH
	DD	0c5405H
	DD	imagerel $LN155+14
	DD	imagerel $LN155+42
	DD	imagerel $chain$0$?clean@str_container@@QEAAXXZ
$chain$6$?clean@str_container@@QEAAXXZ DD 021H
	DD	imagerel $LN155+14
	DD	imagerel $LN155+42
	DD	imagerel $chain$0$?clean@str_container@@QEAAXXZ
$chain$7$?clean@str_container@@QEAAXXZ DD 021H
	DD	imagerel $LN155
	DD	imagerel $LN155+14
	DD	imagerel $unwind$?clean@str_container@@QEAAXXZ
$unwind$??1str_container@@QEAA@XZ DD 040a01H
	DD	07340aH
	DD	07006320aH
$unwind$?dock@str_container@@QEAAPEAUstr_value@@PEBD@Z DD 0f4101H
	DD	08f441H
	DD	09e43cH
	DD	0ad437H
	DD	0b7432H
	DD	0c642dH
	DD	0103428H
	DD	0c004c208H
	DD	05002H
xdata	ENDS
;	COMDAT xdata
xdata	SEGMENT
$unwind$?insert@?$multiset@PEAUstr_value@@Ustr_value_cmp@@V?$xalloc@PEAUstr_value@@@@@std@@QEAA?AV?$_Tree_const_iterator@V?$_Tree_val@U?$_Tree_simple_types@PEAUstr_value@@@std@@@std@@@2@AEBQEAUstr_value@@@Z DD 020601H
	DD	030027206H
xdata	ENDS
;	COMDAT xdata
xdata	SEGMENT
$unwind$?insert@?$_Tree@V?$_Tset_traits@PEAUstr_value@@Ustr_value_cmp@@V?$xalloc@PEAUstr_value@@@@$00@std@@@std@@QEAA?AU?$pair@V?$_Tree_const_iterator@V?$_Tree_val@U?$_Tree_simple_types@PEAUstr_value@@@std@@@std@@@std@@_N@2@AEBQEAUstr_value@@@Z DD 020601H
	DD	030025206H
xdata	ENDS
;	COMDAT xdata
xdata	SEGMENT
$unwind$??$xr_free@Ustr_value@@@@YAXAEAPEAUstr_value@@@Z DD 066901H
	DD	063469H
	DD	07640aH
	DD	07006320aH
xdata	ENDS
;	COMDAT xdata
xdata	SEGMENT
$unwind$?catch$0@?0???$_Insert_nohint@AEBQEAUstr_value@@U_Nil@std@@@?$_Tree@V?$_Tset_traits@PEAUstr_value@@Ustr_value_cmp@@V?$xalloc@PEAUstr_value@@@@$00@std@@@std@@IEAA?AU?$pair@V?$_Tree_const_iterator@V?$_Tree_val@U?$_Tree_simple_types@PEAUstr_value@@@std@@@std@@@std@@_N@1@_NAEBQEAUstr_value@@U_Nil@1@@Z@4HA DD 020a19H
	DD	05006520aH
	DD	imagerel __CxxFrameHandler3
	DD	imagerel $cppxdata$??$_Insert_nohint@AEBQEAUstr_value@@U_Nil@std@@@?$_Tree@V?$_Tset_traits@PEAUstr_value@@Ustr_value_cmp@@V?$xalloc@PEAUstr_value@@@@$00@std@@@std@@IEAA?AU?$pair@V?$_Tree_const_iterator@V?$_Tree_val@U?$_Tree_simple_types@PEAUstr_value@@@std@@@std@@@std@@_N@1@_NAEBQEAUstr_value@@U_Nil@1@@Z
xdata	ENDS
;	COMDAT xdata
xdata	SEGMENT
$ip2state$??$_Insert_nohint@AEBQEAUstr_value@@U_Nil@std@@@?$_Tree@V?$_Tset_traits@PEAUstr_value@@Ustr_value_cmp@@V?$xalloc@PEAUstr_value@@@@$00@std@@@std@@IEAA?AU?$pair@V?$_Tree_const_iterator@V?$_Tree_val@U?$_Tree_simple_types@PEAUstr_value@@@std@@@std@@@std@@_N@1@_NAEBQEAUstr_value@@U_Nil@1@@Z DD imagerel ??$_Insert_nohint@AEBQEAUstr_value@@U_Nil@std@@@?$_Tree@V?$_Tset_traits@PEAUstr_value@@Ustr_value_cmp@@V?$xalloc@PEAUstr_value@@@@$00@std@@@std@@IEAA?AU?$pair@V?$_Tree_const_iterator@V?$_Tree_val@U?$_Tree_simple_types@PEAUstr_value@@@std@@@std@@@std@@_N@1@_NAEBQEAUstr_value@@U_Nil@1@@Z
	DD	0ffffffffH
	DD	imagerel ??$_Insert_nohint@AEBQEAUstr_value@@U_Nil@std@@@?$_Tree@V?$_Tset_traits@PEAUstr_value@@Ustr_value_cmp@@V?$xalloc@PEAUstr_value@@@@$00@std@@@std@@IEAA?AU?$pair@V?$_Tree_const_iterator@V?$_Tree_val@U?$_Tree_simple_types@PEAUstr_value@@@std@@@std@@@std@@_N@1@_NAEBQEAUstr_value@@U_Nil@1@@Z+34
	DD	00H
	DD	imagerel ?catch$0@?0???$_Insert_nohint@AEBQEAUstr_value@@U_Nil@std@@@?$_Tree@V?$_Tset_traits@PEAUstr_value@@Ustr_value_cmp@@V?$xalloc@PEAUstr_value@@@@$00@std@@@std@@IEAA?AU?$pair@V?$_Tree_const_iterator@V?$_Tree_val@U?$_Tree_simple_types@PEAUstr_value@@@std@@@std@@@std@@_N@1@_NAEBQEAUstr_value@@U_Nil@1@@Z@4HA+13
	DD	01H
xdata	ENDS
;	COMDAT xdata
xdata	SEGMENT
$handlerMap$0$??$_Insert_nohint@AEBQEAUstr_value@@U_Nil@std@@@?$_Tree@V?$_Tset_traits@PEAUstr_value@@Ustr_value_cmp@@V?$xalloc@PEAUstr_value@@@@$00@std@@@std@@IEAA?AU?$pair@V?$_Tree_const_iterator@V?$_Tree_val@U?$_Tree_simple_types@PEAUstr_value@@@std@@@std@@@std@@_N@1@_NAEBQEAUstr_value@@U_Nil@1@@Z DD 00H
	DD	00H
	DD	00H
	DD	imagerel ?catch$0@?0???$_Insert_nohint@AEBQEAUstr_value@@U_Nil@std@@@?$_Tree@V?$_Tset_traits@PEAUstr_value@@Ustr_value_cmp@@V?$xalloc@PEAUstr_value@@@@$00@std@@@std@@IEAA?AU?$pair@V?$_Tree_const_iterator@V?$_Tree_val@U?$_Tree_simple_types@PEAUstr_value@@@std@@@std@@@std@@_N@1@_NAEBQEAUstr_value@@U_Nil@1@@Z@4HA
	DD	048H
xdata	ENDS
;	COMDAT xdata
xdata	SEGMENT
$tryMap$??$_Insert_nohint@AEBQEAUstr_value@@U_Nil@std@@@?$_Tree@V?$_Tset_traits@PEAUstr_value@@Ustr_value_cmp@@V?$xalloc@PEAUstr_value@@@@$00@std@@@std@@IEAA?AU?$pair@V?$_Tree_const_iterator@V?$_Tree_val@U?$_Tree_simple_types@PEAUstr_value@@@std@@@std@@@std@@_N@1@_NAEBQEAUstr_value@@U_Nil@1@@Z DD 00H
	DD	00H
	DD	01H
	DD	01H
	DD	imagerel $handlerMap$0$??$_Insert_nohint@AEBQEAUstr_value@@U_Nil@std@@@?$_Tree@V?$_Tset_traits@PEAUstr_value@@Ustr_value_cmp@@V?$xalloc@PEAUstr_value@@@@$00@std@@@std@@IEAA?AU?$pair@V?$_Tree_const_iterator@V?$_Tree_val@U?$_Tree_simple_types@PEAUstr_value@@@std@@@std@@@std@@_N@1@_NAEBQEAUstr_value@@U_Nil@1@@Z
xdata	ENDS
;	COMDAT xdata
xdata	SEGMENT
$stateUnwindMap$??$_Insert_nohint@AEBQEAUstr_value@@U_Nil@std@@@?$_Tree@V?$_Tset_traits@PEAUstr_value@@Ustr_value_cmp@@V?$xalloc@PEAUstr_value@@@@$00@std@@@std@@IEAA?AU?$pair@V?$_Tree_const_iterator@V?$_Tree_val@U?$_Tree_simple_types@PEAUstr_value@@@std@@@std@@@std@@_N@1@_NAEBQEAUstr_value@@U_Nil@1@@Z DD 0ffffffffH
	DD	00H
	DD	0ffffffffH
	DD	00H
xdata	ENDS
;	COMDAT CONST
CONST	SEGMENT
$cppxdata$??$_Insert_nohint@AEBQEAUstr_value@@U_Nil@std@@@?$_Tree@V?$_Tset_traits@PEAUstr_value@@Ustr_value_cmp@@V?$xalloc@PEAUstr_value@@@@$00@std@@@std@@IEAA?AU?$pair@V?$_Tree_const_iterator@V?$_Tree_val@U?$_Tree_simple_types@PEAUstr_value@@@std@@@std@@@std@@_N@1@_NAEBQEAUstr_value@@U_Nil@1@@Z DD 019930522H
	DD	02H
	DD	imagerel $stateUnwindMap$??$_Insert_nohint@AEBQEAUstr_value@@U_Nil@std@@@?$_Tree@V?$_Tset_traits@PEAUstr_value@@Ustr_value_cmp@@V?$xalloc@PEAUstr_value@@@@$00@std@@@std@@IEAA?AU?$pair@V?$_Tree_const_iterator@V?$_Tree_val@U?$_Tree_simple_types@PEAUstr_value@@@std@@@std@@@std@@_N@1@_NAEBQEAUstr_value@@U_Nil@1@@Z
	DD	01H
	DD	imagerel $tryMap$??$_Insert_nohint@AEBQEAUstr_value@@U_Nil@std@@@?$_Tree@V?$_Tset_traits@PEAUstr_value@@Ustr_value_cmp@@V?$xalloc@PEAUstr_value@@@@$00@std@@@std@@IEAA?AU?$pair@V?$_Tree_const_iterator@V?$_Tree_val@U?$_Tree_simple_types@PEAUstr_value@@@std@@@std@@@std@@_N@1@_NAEBQEAUstr_value@@U_Nil@1@@Z
	DD	03H
	DD	imagerel $ip2state$??$_Insert_nohint@AEBQEAUstr_value@@U_Nil@std@@@?$_Tree@V?$_Tset_traits@PEAUstr_value@@Ustr_value_cmp@@V?$xalloc@PEAUstr_value@@@@$00@std@@@std@@IEAA?AU?$pair@V?$_Tree_const_iterator@V?$_Tree_val@U?$_Tree_simple_types@PEAUstr_value@@@std@@@std@@@std@@_N@1@_NAEBQEAUstr_value@@U_Nil@1@@Z
	DD	030H
	DD	00H
	DD	00H
CONST	ENDS
;	COMDAT xdata
xdata	SEGMENT
$unwind$??$_Insert_nohint@AEBQEAUstr_value@@U_Nil@std@@@?$_Tree@V?$_Tset_traits@PEAUstr_value@@Ustr_value_cmp@@V?$xalloc@PEAUstr_value@@@@$00@std@@@std@@IEAA?AU?$pair@V?$_Tree_const_iterator@V?$_Tree_val@U?$_Tree_simple_types@PEAUstr_value@@@std@@@std@@@std@@_N@1@_NAEBQEAUstr_value@@U_Nil@1@@Z DD 061919H
	DD	0b6419H
	DD	0a3414H
	DD	070027206H
	DD	imagerel __CxxFrameHandler3
	DD	imagerel $cppxdata$??$_Insert_nohint@AEBQEAUstr_value@@U_Nil@std@@@?$_Tree@V?$_Tset_traits@PEAUstr_value@@Ustr_value_cmp@@V?$xalloc@PEAUstr_value@@@@$00@std@@@std@@IEAA?AU?$pair@V?$_Tree_const_iterator@V?$_Tree_val@U?$_Tree_simple_types@PEAUstr_value@@@std@@@std@@@std@@_N@1@_NAEBQEAUstr_value@@U_Nil@1@@Z
xdata	ENDS
;	COMDAT xdata
xdata	SEGMENT
$unwind$??F?$_Tree_const_iterator@V?$_Tree_val@U?$_Tree_simple_types@PEAUstr_value@@@std@@@std@@@std@@QEAAAEAV01@XZ DD 020601H
	DD	030023206H
xdata	ENDS
;	COMDAT xdata
xdata	SEGMENT
$unwind$??$_Insert_at@AEBQEAUstr_value@@U_Nil@std@@@?$_Tree@V?$_Tset_traits@PEAUstr_value@@Ustr_value_cmp@@V?$xalloc@PEAUstr_value@@@@$00@std@@@std@@IEAA?AV?$_Tree_const_iterator@V?$_Tree_val@U?$_Tree_simple_types@PEAUstr_value@@@std@@@std@@@1@_NPEAU?$_Tree_node@PEAUstr_value@@PEAX@1@AEBQEAUstr_value@@U_Nil@1@@Z DD 081501H
	DD	087415H
	DD	076415H
	DD	063415H
	DD	0e0113215H
xdata	ENDS
;	COMDAT xdata
xdata	SEGMENT
$unwind$??$_Buynode_if_nil@AEBQEAUstr_value@@@?$_Tree@V?$_Tset_traits@PEAUstr_value@@Ustr_value_cmp@@V?$xalloc@PEAUstr_value@@@@$00@std@@@std@@IEAAPEAU?$_Tree_node@PEAUstr_value@@PEAX@1@U_Nil@1@AEBQEAUstr_value@@@Z DD 010401H
	DD	04204H
xdata	ENDS
;	COMDAT xdata
xdata	SEGMENT
$unwind$?catch$0@?0???$_Buynode@AEBQEAUstr_value@@@?$_Tree_buy@PEAUstr_value@@V?$xalloc@PEAUstr_value@@@@@std@@QEAAPEAU?$_Tree_node@PEAUstr_value@@PEAX@1@AEBQEAUstr_value@@@Z@4HA DD 020a19H
	DD	05006320aH
	DD	imagerel __CxxFrameHandler3
	DD	imagerel $cppxdata$??$_Buynode@AEBQEAUstr_value@@@?$_Tree_buy@PEAUstr_value@@V?$xalloc@PEAUstr_value@@@@@std@@QEAAPEAU?$_Tree_node@PEAUstr_value@@PEAX@1@AEBQEAUstr_value@@@Z
xdata	ENDS
;	COMDAT xdata
xdata	SEGMENT
$ip2state$??$_Buynode@AEBQEAUstr_value@@@?$_Tree_buy@PEAUstr_value@@V?$xalloc@PEAUstr_value@@@@@std@@QEAAPEAU?$_Tree_node@PEAUstr_value@@PEAX@1@AEBQEAUstr_value@@@Z DD imagerel ??$_Buynode@AEBQEAUstr_value@@@?$_Tree_buy@PEAUstr_value@@V?$xalloc@PEAUstr_value@@@@@std@@QEAAPEAU?$_Tree_node@PEAUstr_value@@PEAX@1@AEBQEAUstr_value@@@Z
	DD	0ffffffffH
	DD	imagerel ??$_Buynode@AEBQEAUstr_value@@@?$_Tree_buy@PEAUstr_value@@V?$xalloc@PEAUstr_value@@@@@std@@QEAAPEAU?$_Tree_node@PEAUstr_value@@PEAX@1@AEBQEAUstr_value@@@Z+34
	DD	00H
	DD	imagerel ??$_Buynode@AEBQEAUstr_value@@@?$_Tree_buy@PEAUstr_value@@V?$xalloc@PEAUstr_value@@@@@std@@QEAAPEAU?$_Tree_node@PEAUstr_value@@PEAX@1@AEBQEAUstr_value@@@Z+49
	DD	0ffffffffH
	DD	imagerel ?catch$0@?0???$_Buynode@AEBQEAUstr_value@@@?$_Tree_buy@PEAUstr_value@@V?$xalloc@PEAUstr_value@@@@@std@@QEAAPEAU?$_Tree_node@PEAUstr_value@@PEAX@1@AEBQEAUstr_value@@@Z@4HA
	DD	00H
	DD	imagerel ?catch$0@?0???$_Buynode@AEBQEAUstr_value@@@?$_Tree_buy@PEAUstr_value@@V?$xalloc@PEAUstr_value@@@@@std@@QEAAPEAU?$_Tree_node@PEAUstr_value@@PEAX@1@AEBQEAUstr_value@@@Z@4HA+13
	DD	01H
xdata	ENDS
;	COMDAT xdata
xdata	SEGMENT
$handlerMap$0$??$_Buynode@AEBQEAUstr_value@@@?$_Tree_buy@PEAUstr_value@@V?$xalloc@PEAUstr_value@@@@@std@@QEAAPEAU?$_Tree_node@PEAUstr_value@@PEAX@1@AEBQEAUstr_value@@@Z DD 00H
	DD	00H
	DD	00H
	DD	imagerel ?catch$0@?0???$_Buynode@AEBQEAUstr_value@@@?$_Tree_buy@PEAUstr_value@@V?$xalloc@PEAUstr_value@@@@@std@@QEAAPEAU?$_Tree_node@PEAUstr_value@@PEAX@1@AEBQEAUstr_value@@@Z@4HA
	DD	038H
xdata	ENDS
;	COMDAT xdata
xdata	SEGMENT
$tryMap$??$_Buynode@AEBQEAUstr_value@@@?$_Tree_buy@PEAUstr_value@@V?$xalloc@PEAUstr_value@@@@@std@@QEAAPEAU?$_Tree_node@PEAUstr_value@@PEAX@1@AEBQEAUstr_value@@@Z DD 00H
	DD	00H
	DD	01H
	DD	01H
	DD	imagerel $handlerMap$0$??$_Buynode@AEBQEAUstr_value@@@?$_Tree_buy@PEAUstr_value@@V?$xalloc@PEAUstr_value@@@@@std@@QEAAPEAU?$_Tree_node@PEAUstr_value@@PEAX@1@AEBQEAUstr_value@@@Z
xdata	ENDS
;	COMDAT xdata
xdata	SEGMENT
$stateUnwindMap$??$_Buynode@AEBQEAUstr_value@@@?$_Tree_buy@PEAUstr_value@@V?$xalloc@PEAUstr_value@@@@@std@@QEAAPEAU?$_Tree_node@PEAUstr_value@@PEAX@1@AEBQEAUstr_value@@@Z DD 0ffffffffH
	DD	00H
	DD	0ffffffffH
	DD	00H
xdata	ENDS
;	COMDAT CONST
CONST	SEGMENT
$cppxdata$??$_Buynode@AEBQEAUstr_value@@@?$_Tree_buy@PEAUstr_value@@V?$xalloc@PEAUstr_value@@@@@std@@QEAAPEAU?$_Tree_node@PEAUstr_value@@PEAX@1@AEBQEAUstr_value@@@Z DD 019930522H
	DD	02H
	DD	imagerel $stateUnwindMap$??$_Buynode@AEBQEAUstr_value@@@?$_Tree_buy@PEAUstr_value@@V?$xalloc@PEAUstr_value@@@@@std@@QEAAPEAU?$_Tree_node@PEAUstr_value@@PEAX@1@AEBQEAUstr_value@@@Z
	DD	01H
	DD	imagerel $tryMap$??$_Buynode@AEBQEAUstr_value@@@?$_Tree_buy@PEAUstr_value@@V?$xalloc@PEAUstr_value@@@@@std@@QEAAPEAU?$_Tree_node@PEAUstr_value@@PEAX@1@AEBQEAUstr_value@@@Z
	DD	05H
	DD	imagerel $ip2state$??$_Buynode@AEBQEAUstr_value@@@?$_Tree_buy@PEAUstr_value@@V?$xalloc@PEAUstr_value@@@@@std@@QEAAPEAU?$_Tree_node@PEAUstr_value@@PEAX@1@AEBQEAUstr_value@@@Z
	DD	020H
	DD	00H
	DD	00H
CONST	ENDS
;	COMDAT xdata
xdata	SEGMENT
$unwind$??$_Buynode@AEBQEAUstr_value@@@?$_Tree_buy@PEAUstr_value@@V?$xalloc@PEAUstr_value@@@@@std@@QEAAPEAU?$_Tree_node@PEAUstr_value@@PEAX@1@AEBQEAUstr_value@@@Z DD 020f19H
	DD	030025206H
	DD	imagerel __CxxFrameHandler3
	DD	imagerel $cppxdata$??$_Buynode@AEBQEAUstr_value@@@?$_Tree_buy@PEAUstr_value@@V?$xalloc@PEAUstr_value@@@@@std@@QEAAPEAU?$_Tree_node@PEAUstr_value@@PEAX@1@AEBQEAUstr_value@@@Z
; Function compile flags: /Ogtpy
; File c:\users\nummer\documents\github\olr-3.0\src\xray\xrcore\xrstring.cpp
; File c:\users\nummer\documents\github\olr-3.0\src\xray\xrcore\xrsyncronize.cpp
; File c:\users\nummer\documents\github\olr-3.0\src\xray\xrcore\_std_extensions.h
; File c:\users\nummer\documents\github\olr-3.0\src\xray\xrcore\xrstring.cpp
; File c:\program files (x86)\microsoft visual studio 12.0\vc\include\xtree
; File c:\users\nummer\documents\github\olr-3.0\src\xray\xrcore\xrstring.cpp
; File c:\program files (x86)\microsoft visual studio 12.0\vc\include\xtree
; File c:\users\nummer\documents\github\olr-3.0\src\xray\xrcore\xrstring.h
; File c:\program files (x86)\microsoft visual studio 12.0\vc\include\xtree
; File c:\users\nummer\documents\github\olr-3.0\src\xray\xrcore\xrstring.h
; File c:\program files (x86)\microsoft visual studio 12.0\vc\include\xtree
; File c:\users\nummer\documents\github\olr-3.0\src\xray\xrcore\xrstring.h
; File c:\program files (x86)\microsoft visual studio 12.0\vc\include\xtree
; File c:\users\nummer\documents\github\olr-3.0\src\xray\xrcore\xrstring.cpp
; File c:\program files (x86)\microsoft visual studio 12.0\vc\include\xtree
; File c:\users\nummer\documents\github\olr-3.0\src\xray\xrcore\xrstring.cpp
; File c:\program files (x86)\microsoft visual studio 12.0\vc\include\xtree
; File c:\users\nummer\documents\github\olr-3.0\src\xray\xrcore\xrsyncronize.cpp
; File c:\users\nummer\documents\github\olr-3.0\src\xray\xrcore\xrstring.cpp
_TEXT	SEGMENT
$T1 = 48
this$ = 128
s_len_with_zero$1$ = 136
result$ = 136
value$ = 136
$T2 = 144
$T3 = 144
?dock@str_container@@QEAAPEAUstr_value@@PEBD@Z PROC	; str_container::dock

; 11   : {

$LN183:
	push	rbp
	push	r12
	sub	rsp, 104				; 00000068H
	mov	rbp, rdx
	mov	r12, rcx

; 12   : 	if (0==value)				return 0;

	test	rdx, rdx
	jne	SHORT $LN11@dock
	xor	eax, eax

; 69   : }

	add	rsp, 104				; 00000068H
	pop	r12
	pop	rbp
	ret	0
$LN11@dock:
; File c:\users\nummer\documents\github\olr-3.0\src\xray\xrcore\xrsyncronize.cpp

; 64   : 	EnterCriticalSection			( (CRITICAL_SECTION*)pmutex );

	mov	rcx, QWORD PTR [rcx]
	mov	QWORD PTR [rsp+128], rbx
	mov	QWORD PTR [rsp+96], rsi
	mov	QWORD PTR [rsp+88], rdi
	mov	QWORD PTR [rsp+80], r13
	mov	QWORD PTR [rsp+72], r14
	mov	QWORD PTR [rsp+64], r15
	call	QWORD PTR __imp_EnterCriticalSection
; File c:\users\nummer\documents\github\olr-3.0\src\xray\xrcore\_std_extensions.h

; 270  : {	return (u32)strlen(S);			}

	or	rsi, -1
	npad	5
$LL179@dock:
	inc	rsi
	cmp	BYTE PTR [rsi+rbp], 0
	jne	SHORT $LL179@dock
; File c:\users\nummer\documents\github\olr-3.0\src\xray\xrcore\xrstring.cpp

; 31   : 	sv->dwCRC					= crc32	(value,s_len);

	lea	eax, DWORD PTR [rsi+1]
	mov	edx, esi
	mov	rcx, rbp
	mov	DWORD PTR s_len_with_zero$1$[rsp], eax
	call	?crc32@@YAIPEBXI@Z			; crc32
; File c:\program files (x86)\microsoft visual studio 12.0\vc\include\xtree

; 594  : 		return ((_Nodepref)_Pnode->_Parent);

	mov	r9, QWORD PTR [r12+8]

; 1554 : 		}
; 1555 : 
; 1556 : 	const_iterator find(const key_type& _Keyval) const
; 1557 : 		{	// find an element in nonmutable sequence that matches _Keyval
; 1558 : 		const_iterator _Where = lower_bound(_Keyval);
; 1559 : 		return (_Where == end()
; 1560 : 			|| _DEBUG_LT_PRED(this->_Getcomp(),
; 1561 : 				_Keyval, this->_Key(_Where._Mynode()))
; 1562 : 					? end() : _Where);
; 1563 : 		}
; 1564 : 
; 1565 : 	size_type count(const key_type& _Keyval) const
; 1566 : 		{	// count all elements that match _Keyval
; 1567 : 		_Paircc _Ans = equal_range(_Keyval);
; 1568 : 		size_type _Num = 0;
; 1569 : 		_Distance(_Ans.first, _Ans.second, _Num);
; 1570 : 		return (_Num);
; 1571 : 		}
; 1572 : 
; 1573 : 	iterator lower_bound(const key_type& _Keyval)
; 1574 : 		{	// find leftmost node not less than _Keyval in mutable tree
; 1575 : 		return (iterator(_Lbound(_Keyval), this));
; 1576 : 		}
; 1577 : 
; 1578 : 	const_iterator lower_bound(const key_type& _Keyval) const
; 1579 : 		{	// find leftmost node not less than _Keyval in nonmutable tree
; 1580 : 		return (const_iterator(_Lbound(_Keyval), this));
; 1581 : 		}
; 1582 : 
; 1583 : 	iterator upper_bound(const key_type& _Keyval)
; 1584 : 		{	// find leftmost node greater than _Keyval in mutable tree
; 1585 : 		return (iterator(_Ubound(_Keyval), this));
; 1586 : 		}
; 1587 : 
; 1588 : 	const_iterator upper_bound(const key_type& _Keyval) const
; 1589 : 		{	// find leftmost node greater than _Keyval in nonmutable tree
; 1590 : 		return (const_iterator(_Ubound(_Keyval), this));
; 1591 : 		}
; 1592 : 
; 1593 : 	_Pairii equal_range(const key_type& _Keyval)
; 1594 : 		{	// find range equivalent to _Keyval in mutable tree
; 1595 : 		return (_Eqrange(_Keyval));
; 1596 : 		}
; 1597 : 
; 1598 : 	_Paircc equal_range(const key_type& _Keyval) const
; 1599 : 		{	// find range equivalent to _Keyval in nonmutable tree
; 1600 : 		return (_Eqrange(_Keyval));
; 1601 : 		}
; 1602 : 
; 1603 : 	void swap(_Myt& _Right)
; 1604 : 		{	// exchange contents with _Right
; 1605 : 		if (this == &_Right)
; 1606 : 			;	// same object, do nothing
; 1607 : 		else if (this->_Getal() == _Right._Getal())
; 1608 : 			{	// same allocator, swap control information
; 1609 : 			this->_Swap_all(_Right);
; 1610 : 			this->_Swapcomp(_Right._Getcomp());
; 1611 : 			_Swap_adl(this->_Myhead, _Right._Myhead);
; 1612 : 			_STD swap(this->_Mysize, _Right._Mysize);
; 1613 : 			}
; 1614 : 
; 1615 : 		else if (_Alty::propagate_on_container_swap::value)
; 1616 : 			{	// swap allocators and control information
; 1617 : 			this->_Swap_alloc(_Right);
; 1618 : 			this->_Swapcomp(_Right._Getcomp());
; 1619 : 			_Swap_adl(this->_Myhead, _Right._Myhead);
; 1620 : 			_STD swap(this->_Mysize, _Right._Mysize);
; 1621 : 			}
; 1622 : 
; 1623 : 		else
; 1624 : 			{	// containers are incompatible
; 1625 :  #if _ITERATOR_DEBUG_LEVEL == 2
; 1626 : 			_DEBUG_ERROR("map/set containers incompatible for swap");
; 1627 : 
; 1628 :  #else /* ITERATOR_DEBUG_LEVEL == 2 */
; 1629 : 			_XSTD terminate();
; 1630 :  #endif /* ITERATOR_DEBUG_LEVEL == 2 */
; 1631 : 			}
; 1632 : 		}
; 1633 : 
; 1634 : protected:
; 1635 : 	template<class _Valty>
; 1636 : 		_Nodeptr _Buynode_if_nil(_Nodeptr _Node, _Valty&&)
; 1637 : 		{	// node exists, just return it
; 1638 : 		return (_Node);
; 1639 : 		}
; 1640 : 
; 1641 : 	template<class _Valty>
; 1642 : 		_Nodeptr _Buynode_if_nil(_Nil, _Valty&& _Val)
; 1643 : 		{	// node doesn't exist, make it
; 1644 : 		return (this->_Buynode(_STD forward<_Valty>(_Val)));
; 1645 : 		}
; 1646 : 
; 1647 : 	void _Destroy_if_not_nil(_Nodeptr _Newnode)
; 1648 : 		{	// node exists, destroy it
; 1649 : 		this->_Getal().destroy(
; 1650 : 			_STD addressof(this->_Myval(_Newnode)));
; 1651 : 
; 1652 : 		this->_Getal().deallocate(_Newnode, 1);
; 1653 : 		}
; 1654 : 
; 1655 : 	void _Destroy_if_not_nil(_Nil)
; 1656 : 		{	// node doesn't exist, do nothing
; 1657 : 		}
; 1658 : 
; 1659 : 	template<class _Valty,
; 1660 : 		class _Nodety>
; 1661 : 		iterator _Insert_hint(const_iterator _Where,
; 1662 : 			_Valty&& _Val, _Nodety _Newnode)
; 1663 : 		{	// try to insert node using _Where as a hint
; 1664 : 		const_iterator _Next;
; 1665 : 		bool _Leftish = false;	// assume nearest point is end of sequence
; 1666 : 
; 1667 : 		_TRY_BEGIN
; 1668 : 
; 1669 :  #if _ITERATOR_DEBUG_LEVEL == 2
; 1670 : 		if (_Where._Getcont() != this)
; 1671 : 			_DEBUG_ERROR("map/set insert iterator outside range");
; 1672 :  #endif /* _ITERATOR_DEBUG_LEVEL == 2 */
; 1673 : 
; 1674 : 		if (size() == 0)
; 1675 : 			return (_Insert_at(true, this->_Myhead,
; 1676 : 				_STD forward<_Valty>(_Val), _Newnode));	// empty tree
; 1677 : 		else if (this->_Multi)
; 1678 : 			{	// insert even if duplicate
; 1679 : 			if (_Where == begin())
; 1680 : 				{	// insert at beginning if before first element
; 1681 : 				if (!_DEBUG_LT_PRED(this->_Getcomp(),
; 1682 : 					this->_Key(_Where._Mynode()), this->_Kfn(_Val)))
; 1683 : 					return (_Insert_at(true, _Where._Mynode(),
; 1684 : 						_STD forward<_Valty>(_Val), _Newnode));
; 1685 : 				_Leftish = true;	// nearest point is beginning of sequence
; 1686 : 				}
; 1687 : 			else if (_Where == end())
; 1688 : 				{	// insert at end if after last element
; 1689 : 				if (!_DEBUG_LT_PRED(this->_Getcomp(),
; 1690 : 					this->_Kfn(_Val), this->_Key(_Rmost())))
; 1691 : 					return (_Insert_at(false, _Rmost(),
; 1692 : 						_STD forward<_Valty>(_Val), _Newnode));
; 1693 : 				}
; 1694 : 			else if (!_DEBUG_LT_PRED(this->_Getcomp(),
; 1695 : 				this->_Key(_Where._Mynode()), this->_Kfn(_Val))
; 1696 : 				&& !_DEBUG_LT_PRED(this->_Getcomp(),
; 1697 : 					this->_Kfn(_Val),
; 1698 : 					this->_Key((--(_Next = _Where))._Mynode())))
; 1699 : 				{	// insert before _Where
; 1700 : 				if (this->_Isnil(this->_Right(_Next._Mynode())))
; 1701 : 					return (_Insert_at(false, _Next._Mynode(),
; 1702 : 						_STD forward<_Valty>(_Val), _Newnode));
; 1703 : 				else
; 1704 : 					return (_Insert_at(true, _Where._Mynode(),
; 1705 : 						_STD forward<_Valty>(_Val), _Newnode));
; 1706 : 				}
; 1707 : 			else if (!_DEBUG_LT_PRED(this->_Getcomp(),
; 1708 : 				this->_Kfn(_Val), this->_Key(_Where._Mynode()))
; 1709 : 				&& (++(_Next = _Where) == end()
; 1710 : 					|| !_DEBUG_LT_PRED(this->_Getcomp(),
; 1711 : 						this->_Key(_Next._Mynode()), this->_Kfn(_Val))))
; 1712 : 				{	// insert after _Where
; 1713 : 				if (this->_Isnil(this->_Right(_Where._Mynode())))
; 1714 : 					return (_Insert_at(false, _Where._Mynode(),
; 1715 : 						_STD forward<_Valty>(_Val), _Newnode));
; 1716 : 				else
; 1717 : 					return (_Insert_at(true, _Next._Mynode(),
; 1718 : 						_STD forward<_Valty>(_Val), _Newnode));
; 1719 : 				}
; 1720 : 			else
; 1721 : 				_Leftish = true;	// nearest point is beginning of sequence
; 1722 : 			}
; 1723 : 		else
; 1724 : 			{	// insert only if unique
; 1725 : 			if (_Where == begin())
; 1726 : 				{	// insert at beginning if before first element
; 1727 : 				if (_DEBUG_LT_PRED(this->_Getcomp(),
; 1728 : 					this->_Kfn(_Val), this->_Key(_Where._Mynode())))
; 1729 : 					return (_Insert_at(true, _Where._Mynode(),
; 1730 : 						_STD forward<_Valty>(_Val), _Newnode));
; 1731 : 				}
; 1732 : 			else if (_Where == end())
; 1733 : 				{	// insert at end if after last element
; 1734 : 				if (_DEBUG_LT_PRED(this->_Getcomp(),
; 1735 : 					this->_Key(_Rmost()), this->_Kfn(_Val)))
; 1736 : 					return (_Insert_at(false, _Rmost(),
; 1737 : 						_STD forward<_Valty>(_Val), _Newnode));
; 1738 : 				}
; 1739 : 			else if (_DEBUG_LT_PRED(this->_Getcomp(),
; 1740 : 				this->_Kfn(_Val), this->_Key(_Where._Mynode()))
; 1741 : 				&& _DEBUG_LT_PRED(this->_Getcomp(),
; 1742 : 					this->_Key((--(_Next = _Where))._Mynode()),
; 1743 : 					this->_Kfn(_Val)))
; 1744 : 				{	// insert before _Where
; 1745 : 				if (this->_Isnil(this->_Right(_Next._Mynode())))
; 1746 : 					return (_Insert_at(false, _Next._Mynode(),
; 1747 : 						_STD forward<_Valty>(_Val), _Newnode));
; 1748 : 				else
; 1749 : 					return (_Insert_at(true, _Where._Mynode(),
; 1750 : 						_STD forward<_Valty>(_Val), _Newnode));
; 1751 : 				}
; 1752 : 			else if (_DEBUG_LT_PRED(this->_Getcomp(),
; 1753 : 				this->_Key(_Where._Mynode()), this->_Kfn(_Val))
; 1754 : 				&& (++(_Next = _Where) == end()
; 1755 : 					|| _DEBUG_LT_PRED(this->_Getcomp(),
; 1756 : 						this->_Kfn(_Val), this->_Key(_Next._Mynode()))))
; 1757 : 				{	// insert after _Where
; 1758 : 				if (this->_Isnil(this->_Right(_Where._Mynode())))
; 1759 : 					return (_Insert_at(false, _Where._Mynode(),
; 1760 : 						_STD forward<_Valty>(_Val), _Newnode));
; 1761 : 				else
; 1762 : 					return (_Insert_at(true, _Next._Mynode(),
; 1763 : 						_STD forward<_Valty>(_Val), _Newnode));
; 1764 : 				}
; 1765 : 			}
; 1766 : 		_CATCH_ALL
; 1767 : 		_Destroy_if_not_nil(_Newnode);
; 1768 : 		_RERAISE;
; 1769 : 		_CATCH_END
; 1770 : 
; 1771 : 		return (_Insert_nohint(_Leftish,
; 1772 : 			_STD forward<_Valty>(_Val), _Newnode).first);
; 1773 : 		}
; 1774 : 
; 1775 : 	template<class _Valty,
; 1776 : 		class _Nodety>
; 1777 : 		_Pairib _Insert_nohint(bool _Leftish,
; 1778 : 			_Valty&& _Val, _Nodety _Newnode)
; 1779 : 		{	// try to insert node, on left if _Leftish
; 1780 : 		_TRY_BEGIN
; 1781 : 		_Nodeptr _Trynode = _Root();
; 1782 : 		_Nodeptr _Wherenode = this->_Myhead;
; 1783 : 		bool _Addleft = true;	// add to left of head if tree empty
; 1784 : 
; 1785 : 		while (!this->_Isnil(_Trynode))
; 1786 : 			{	// look for leaf to insert before (_Addleft) or after
; 1787 : 			_Wherenode = _Trynode;
; 1788 : 			if (_Leftish)
; 1789 : 				_Addleft = !_DEBUG_LT_PRED(this->_Getcomp(),
; 1790 : 					this->_Key(_Trynode),
; 1791 : 					this->_Kfn(_Val));	// favor left end
; 1792 : 			else
; 1793 : 				_Addleft = _DEBUG_LT_PRED(this->_Getcomp(),
; 1794 : 					this->_Kfn(_Val),
; 1795 : 					this->_Key(_Trynode));	// favor right end
; 1796 : 			_Trynode = _Addleft ? this->_Left(_Trynode)
; 1797 : 				: this->_Right(_Trynode);
; 1798 : 			}
; 1799 : 
; 1800 : 		if (this->_Multi)
; 1801 : 			return (_Pairib(_Insert_at(_Addleft, _Wherenode,
; 1802 : 				_STD forward<_Valty>(_Val), _Newnode), true));
; 1803 : 		else
; 1804 : 			{	// insert only if unique
; 1805 : 			iterator _Where = iterator(_Wherenode, this);
; 1806 : 			if (!_Addleft)
; 1807 : 				;	// need to test if insert after is okay
; 1808 : 			else if (_Where == begin())
; 1809 : 				return (_Pairib(_Insert_at(true, _Wherenode,
; 1810 : 					_STD forward<_Valty>(_Val), _Newnode), true));
; 1811 : 			else
; 1812 : 				--_Where;	// need to test if insert before is okay
; 1813 : 
; 1814 : 			if (_DEBUG_LT_PRED(this->_Getcomp(),
; 1815 : 				this->_Key(_Where._Mynode()),
; 1816 : 				this->_Kfn(_Val)))
; 1817 : 				return (_Pairib(_Insert_at(_Addleft, _Wherenode,
; 1818 : 					_STD forward<_Valty>(_Val), _Newnode), true));
; 1819 : 			else
; 1820 : 				{	// duplicate, don't insert
; 1821 : 				_Destroy_if_not_nil(_Newnode);
; 1822 : 				return (_Pairib(_Where, false));
; 1823 : 				}
; 1824 : 			}
; 1825 : 		_CATCH_ALL
; 1826 : 		_Destroy_if_not_nil(_Newnode);
; 1827 : 		_RERAISE;
; 1828 : 		_CATCH_END
; 1829 : 		}
; 1830 : 
; 1831 : 	template<class _Valty,
; 1832 : 		class _Nodety>
; 1833 : 		iterator _Insert_at(bool _Addleft, _Nodeptr _Wherenode,
; 1834 : 		_Valty&& _Val, _Nodety _Node)
; 1835 : 		{	// add node with value next to _Wherenode, to left if _Addleft
; 1836 : 		if (max_size() - 1 <= this->_Mysize)
; 1837 : 			{	// tree would get too big, fail
; 1838 : 			_Destroy_if_not_nil(_Node);
; 1839 : 			_Xlength_error("map/set<T> too long");
; 1840 : 			}
; 1841 : 		_Nodeptr _Newnode = _Buynode_if_nil(_Node,
; 1842 : 			_STD forward<_Valty>(_Val));
; 1843 : 
; 1844 : 		++this->_Mysize;
; 1845 : 		_Newnode->_Parent = _Wherenode;
; 1846 : 
; 1847 : 		if (_Wherenode == this->_Myhead)
; 1848 : 			{	// first node in tree, just set head values
; 1849 : 			_Root() = _Newnode;
; 1850 : 			_Lmost() = _Newnode;
; 1851 : 			_Rmost() = _Newnode;
; 1852 : 			}
; 1853 : 		else if (_Addleft)
; 1854 : 			{	// add to left of _Wherenode
; 1855 : 			this->_Left(_Wherenode) = _Newnode;
; 1856 : 			if (_Wherenode == _Lmost())
; 1857 : 				_Lmost() = _Newnode;
; 1858 : 			}
; 1859 : 		else
; 1860 : 			{	// add to right of _Wherenode
; 1861 : 			this->_Right(_Wherenode) = _Newnode;
; 1862 : 			if (_Wherenode == _Rmost())
; 1863 : 				_Rmost() = _Newnode;
; 1864 : 			}
; 1865 : 
; 1866 : 		for (_Nodeptr _Pnode = _Newnode;
; 1867 : 			this->_Color(this->_Parent(_Pnode)) == this->_Red; )
; 1868 : 			if (this->_Parent(_Pnode)
; 1869 : 				== this->_Left(this->_Parent(this->_Parent(_Pnode))))
; 1870 : 				{	// fixup red-red in left subtree
; 1871 : 				_Wherenode =
; 1872 : 					this->_Right(this->_Parent(this->_Parent(_Pnode)));
; 1873 : 				if (this->_Color(_Wherenode) == this->_Red)
; 1874 : 					{	// parent has two red children, blacken both
; 1875 : 					this->_Color(this->_Parent(_Pnode)) = this->_Black;
; 1876 : 					this->_Color(_Wherenode) = this->_Black;
; 1877 : 					this->_Color(this->_Parent(this->_Parent(_Pnode)))
; 1878 : 						= this->_Red;
; 1879 : 					_Pnode = this->_Parent(this->_Parent(_Pnode));
; 1880 : 					}
; 1881 : 				else
; 1882 : 					{	// parent has red and black children
; 1883 : 					if (_Pnode == this->_Right(this->_Parent(_Pnode)))
; 1884 : 						{	// rotate right child to left
; 1885 : 						_Pnode = this->_Parent(_Pnode);
; 1886 : 						_Lrotate(_Pnode);
; 1887 : 						}
; 1888 : 					this->_Color(this->_Parent(_Pnode)) =
; 1889 : 						this->_Black;	// propagate red up
; 1890 : 					this->_Color(this->_Parent(this->_Parent(_Pnode))) =
; 1891 : 						this->_Red;
; 1892 : 					_Rrotate(this->_Parent(this->_Parent(_Pnode)));
; 1893 : 					}
; 1894 : 				}
; 1895 : 			else
; 1896 : 				{	// fixup red-red in right subtree
; 1897 : 				_Wherenode =
; 1898 : 					this->_Left(this->_Parent(this->_Parent(_Pnode)));
; 1899 : 				if (this->_Color(_Wherenode) == this->_Red)
; 1900 : 					{	// parent has two red children, blacken both
; 1901 : 					this->_Color(this->_Parent(_Pnode)) = this->_Black;
; 1902 : 					this->_Color(_Wherenode) = this->_Black;
; 1903 : 					this->_Color(this->_Parent(this->_Parent(_Pnode))) =
; 1904 : 						this->_Red;
; 1905 : 					_Pnode = this->_Parent(this->_Parent(_Pnode));
; 1906 : 					}
; 1907 : 				else
; 1908 : 					{	// parent has red and black children
; 1909 : 					if (_Pnode == this->_Left(this->_Parent(_Pnode)))
; 1910 : 						{	// rotate left child to right
; 1911 : 						_Pnode = this->_Parent(_Pnode);
; 1912 : 						_Rrotate(_Pnode);
; 1913 : 						}
; 1914 : 					this->_Color(this->_Parent(_Pnode)) =
; 1915 : 						this->_Black;	// propagate red up
; 1916 : 					this->_Color(this->_Parent(this->_Parent(_Pnode))) =
; 1917 : 						this->_Red;
; 1918 : 					_Lrotate(this->_Parent(this->_Parent(_Pnode)));
; 1919 : 					}
; 1920 : 				}
; 1921 : 
; 1922 : 		this->_Color(_Root()) = this->_Black;	// root is always black
; 1923 : 		return (iterator(_Newnode, this));
; 1924 : 		}
; 1925 : 
; 1926 : 	template<class _Moveit>
; 1927 : 		void _Copy(const _Myt& _Right,
; 1928 : 			_Moveit _Movefl)
; 1929 : 		{	// copy or move entire tree from _Right
; 1930 : 		_Root() = _Copy_nodes(_Right._Root(), this->_Myhead, _Movefl);
; 1931 : 		this->_Mysize = _Right.size();
; 1932 : 		if (!this->_Isnil(_Root()))
; 1933 : 			{	// nonempty tree, look for new smallest and largest
; 1934 : 			_Lmost() = this->_Min(_Root());
; 1935 : 			_Rmost() = this->_Max(_Root());
; 1936 : 			}
; 1937 : 		else
; 1938 : 			{	// empty tree, just tidy head pointers
; 1939 : 			_Lmost() = this->_Myhead;
; 1940 : 			_Rmost() = this->_Myhead;
; 1941 : 			}
; 1942 : 		}
; 1943 : 
; 1944 : 	template<class _Want_to_move,
; 1945 : 		class _Can_move,
; 1946 : 		class _Is_set,
; 1947 : 		class _Dummy>
; 1948 : 		_Nodeptr _Copy_or_move(_Nodeptr _Rootnode, _Want_to_move,
; 1949 : 			_Can_move, _Is_set, _Dummy)
; 1950 : 		{	// copy to new node -- nonmovable
; 1951 : 		return (this->_Buynode(this->_Myval(_Rootnode)));
; 1952 : 		}
; 1953 : 
; 1954 : 	template<class _Dummy>
; 1955 : 		_Nodeptr _Copy_or_move(_Nodeptr _Rootnode, true_type,
; 1956 : 			true_type, true_type, _Dummy)
; 1957 : 		{	// move to new node -- movable, set
; 1958 : 		return (this->_Buynode(
; 1959 : 			_STD forward<value_type>(this->_Myval(_Rootnode))));
; 1960 : 		}
; 1961 : 
; 1962 : 	template<class _Dummy>
; 1963 : 		_Nodeptr _Copy_or_move(_Nodeptr _Rootnode, true_type,
; 1964 : 			true_type, false_type, _Dummy)
; 1965 : 		{	// move to new node -- movable, map
; 1966 : 		return (this->_Buynode(
; 1967 : 			_STD forward<key_type>(const_cast<key_type&>(
; 1968 : 				this->_Myval(_Rootnode).first)),
; 1969 : 			_STD forward<typename value_type::second_type>(this->_Myval(
; 1970 : 				_Rootnode).second)));
; 1971 : 		}
; 1972 : 
; 1973 : 	template<class _Moveit>
; 1974 : 		_Nodeptr _Copy_nodes(_Nodeptr _Rootnode, _Nodeptr _Wherenode,
; 1975 : 			_Moveit _Movefl)
; 1976 : 		{	// copy entire subtree, recursively
; 1977 : 		_Nodeptr _Newroot = this->_Myhead;	// point at nil node
; 1978 : 
; 1979 : 		if (!this->_Isnil(_Rootnode))
; 1980 : 			{	// copy or move a node, then any subtrees
; 1981 : 			_Nodeptr _Pnode = _Copy_or_move(_Rootnode, _Movefl,
; 1982 : 				typename is_move_constructible<value_type>::type(),
; 1983 : 				typename is_same<key_type, value_type>::type(), 0);
; 1984 : 			_Pnode->_Parent = _Wherenode;
; 1985 : 			_Pnode->_Color = this->_Color(_Rootnode);
; 1986 : 			if (this->_Isnil(_Newroot))
; 1987 : 				_Newroot = _Pnode;	// memorize new root
; 1988 : 
; 1989 : 			_TRY_BEGIN
; 1990 : 			this->_Left(_Pnode) =
; 1991 : 				_Copy_nodes(this->_Left(_Rootnode), _Pnode, _Movefl);
; 1992 : 			this->_Right(_Pnode) =
; 1993 : 				_Copy_nodes(this->_Right(_Rootnode), _Pnode, _Movefl);
; 1994 : 			_CATCH_ALL
; 1995 : 			_Erase(_Newroot);	// subtree copy failed, bail out
; 1996 : 			_RERAISE;
; 1997 : 			_CATCH_END
; 1998 : 			}
; 1999 : 
; 2000 : 		return (_Newroot);	// return newly constructed tree
; 2001 : 		}
; 2002 : 
; 2003 : 	_Paircc _Eqrange(const key_type& _Keyval) const
; 2004 : 		{	// find leftmost node not less than _Keyval
; 2005 : 		_Nodeptr _Pnode = _Root();
; 2006 : 		_Nodeptr _Lonode = this->_Myhead;	// end() if search fails
; 2007 : 		_Nodeptr _Hinode = this->_Myhead;	// end() if search fails
; 2008 : 
; 2009 : 		while (!this->_Isnil(_Pnode))
; 2010 : 			if (_DEBUG_LT_PRED(this->_Getcomp(), this->_Key(_Pnode), _Keyval))
; 2011 : 				_Pnode = this->_Right(_Pnode);	// descend right subtree
; 2012 : 			else
; 2013 : 				{	// _Pnode not less than _Keyval, remember it
; 2014 : 				if (this->_Isnil(_Hinode)
; 2015 : 						&& _DEBUG_LT_PRED(this->_Getcomp(), _Keyval,
; 2016 : 						this->_Key(_Pnode)))
; 2017 : 					_Hinode = _Pnode;	// _Pnode greater, remember it
; 2018 : 				_Lonode = _Pnode;
; 2019 : 				_Pnode = this->_Left(_Pnode);	// descend left subtree
; 2020 : 				}
; 2021 : 
; 2022 : 		_Pnode = this->_Isnil(_Hinode) ? _Root()
; 2023 : 			: this->_Left(_Hinode);	// continue scan for upper bound
; 2024 : 		while (!this->_Isnil(_Pnode))
; 2025 : 			if (_DEBUG_LT_PRED(this->_Getcomp(), _Keyval, this->_Key(_Pnode)))
; 2026 : 				{	// _Pnode greater than _Keyval, remember it
; 2027 : 				_Hinode = _Pnode;
; 2028 : 				_Pnode = this->_Left(_Pnode);	// descend left subtree
; 2029 : 				}
; 2030 : 			else
; 2031 : 				_Pnode = this->_Right(_Pnode);	// descend right subtree
; 2032 : 
; 2033 : 		const_iterator _First = const_iterator(_Lonode, this);
; 2034 : 		const_iterator _Last = const_iterator(_Hinode, this);
; 2035 : 		return (_Paircc(_First, _Last));
; 2036 : 		}
; 2037 : 
; 2038 : 	_Pairii _Eqrange(const key_type& _Keyval)
; 2039 : 		{	// find leftmost node not less than _Keyval
; 2040 : 		_Nodeptr _Pnode = _Root();
; 2041 : 		_Nodeptr _Lonode = this->_Myhead;	// end() if search fails
; 2042 : 		_Nodeptr _Hinode = this->_Myhead;	// end() if search fails
; 2043 : 
; 2044 : 		while (!this->_Isnil(_Pnode))
; 2045 : 			if (_DEBUG_LT_PRED(this->_Getcomp(), this->_Key(_Pnode), _Keyval))
; 2046 : 				_Pnode = this->_Right(_Pnode);	// descend right subtree
; 2047 : 			else
; 2048 : 				{	// _Pnode not less than _Keyval, remember it
; 2049 : 				if (this->_Isnil(_Hinode)
; 2050 : 						&& _DEBUG_LT_PRED(this->_Getcomp(), _Keyval,
; 2051 : 						 this->_Key(_Pnode)))
; 2052 : 					_Hinode = _Pnode;	// _Pnode greater, remember it
; 2053 : 				_Lonode = _Pnode;
; 2054 : 				_Pnode = this->_Left(_Pnode);	// descend left subtree
; 2055 : 				}
; 2056 : 
; 2057 : 		_Pnode = this->_Isnil(_Hinode) ? _Root()
; 2058 : 			: this->_Left(_Hinode);	// continue scan for upper bound
; 2059 : 		while (!this->_Isnil(_Pnode))
; 2060 : 			if (_DEBUG_LT_PRED(this->_Getcomp(), _Keyval, this->_Key(_Pnode)))
; 2061 : 				{	// _Pnode greater than _Keyval, remember it
; 2062 : 				_Hinode = _Pnode;
; 2063 : 				_Pnode = this->_Left(_Pnode);	// descend left subtree
; 2064 : 				}
; 2065 : 			else
; 2066 : 				_Pnode = this->_Right(_Pnode);	// descend right subtree
; 2067 : 
; 2068 : 		iterator _First = iterator(_Lonode, this);
; 2069 : 		iterator _Last = iterator(_Hinode, this);
; 2070 : 		return (_Pairii(_First, _Last));
; 2071 : 		}
; 2072 : 
; 2073 : 	void _Erase(_Nodeptr _Rootnode)
; 2074 : 		{	// free entire subtree, recursively
; 2075 : 		for (_Nodeptr _Pnode = _Rootnode;
; 2076 : 			!this->_Isnil(_Pnode); _Rootnode = _Pnode)
; 2077 : 			{	// free subtrees, then node
; 2078 : 			_Erase(this->_Right(_Pnode));
; 2079 : 			_Pnode = this->_Left(_Pnode);
; 2080 : 			this->_Getal().destroy(
; 2081 : 				_STD addressof(this->_Myval(_Rootnode)));
; 2082 : 
; 2083 : 			this->_Getal().deallocate(_Rootnode, 1);
; 2084 : 			}
; 2085 : 		}
; 2086 : 
; 2087 : 	_Nodeptr _Lbound(const key_type& _Keyval) const
; 2088 : 		{	// find leftmost node not less than _Keyval
; 2089 : 		_Nodeptr _Pnode = _Root();
; 2090 : 		_Nodeptr _Wherenode = this->_Myhead;	// end() if search fails
; 2091 : 
; 2092 : 		while (!this->_Isnil(_Pnode))
; 2093 : 			if (_DEBUG_LT_PRED(this->_Getcomp(), this->_Key(_Pnode), _Keyval))
; 2094 : 				_Pnode = this->_Right(_Pnode);	// descend right subtree
; 2095 : 			else
; 2096 : 				{	// _Pnode not less than _Keyval, remember it
; 2097 : 				_Wherenode = _Pnode;
; 2098 : 				_Pnode = this->_Left(_Pnode);	// descend left subtree
; 2099 : 				}
; 2100 : 
; 2101 : 		return (_Wherenode);	// return best remembered candidate
; 2102 : 		}
; 2103 : 
; 2104 : 	_Nodeptr _Lbound(const key_type& _Keyval)
; 2105 : 		{	// find leftmost node not less than _Keyval
; 2106 : 		_Nodeptr _Pnode = _Root();

	mov	rdx, QWORD PTR [r9+8]
; File c:\users\nummer\documents\github\olr-3.0\src\xray\xrcore\xrstring.cpp

; 31   : 	sv->dwCRC					= crc32	(value,s_len);

	mov	r14d, eax
; File c:\program files (x86)\microsoft visual studio 12.0\vc\include\xtree

; 2107 : 		_Nodeptr _Wherenode = this->_Myhead;	// end() if search fails

	mov	r8, r9

; 2108 : 
; 2109 : 		while (!this->_Isnil(_Pnode))

	cmp	BYTE PTR [rdx+25], 0
	jne	SHORT $LN26@dock
$LL27@dock:
; File c:\users\nummer\documents\github\olr-3.0\src\xray\xrcore\xrstring.h

; 19   : 	IC bool		operator ()	(const str_value* A, const str_value* B) const	{ return A->dwCRC<B->dwCRC;	};

	mov	rcx, QWORD PTR [rdx+32]
	cmp	DWORD PTR [rcx+8], eax
; File c:\program files (x86)\microsoft visual studio 12.0\vc\include\xtree

; 2110 : 			if (_DEBUG_LT_PRED(this->_Getcomp(), this->_Key(_Pnode), _Keyval))

	jae	SHORT $LN25@dock

; 2111 : 				_Pnode = this->_Right(_Pnode);	// descend right subtree

	mov	rdx, QWORD PTR [rdx+16]

; 2112 : 			else

	jmp	SHORT $LN24@dock
$LN25@dock:

; 2113 : 				{	// _Pnode not less than _Keyval, remember it
; 2114 : 				_Wherenode = _Pnode;

	mov	r8, rdx

; 2115 : 				_Pnode = this->_Left(_Pnode);	// descend left subtree

	mov	rdx, QWORD PTR [rdx]
$LN24@dock:

; 2108 : 
; 2109 : 		while (!this->_Isnil(_Pnode))

	cmp	BYTE PTR [rdx+25], 0
	je	SHORT $LL27@dock
$LN26@dock:

; 72   : 			}
; 73   : 		return (*this);
; 74   : 		}
; 75   : 
; 76   : 	_Myiter operator++(int)
; 77   : 		{	// postincrement
; 78   : 		_Myiter _Tmp = *this;
; 79   : 		++*this;
; 80   : 		return (_Tmp);
; 81   : 		}
; 82   : 
; 83   : 	_Myiter& operator--()
; 84   : 		{	// predecrement
; 85   : 		if (_Mytree::_Isnil(_Ptr))
; 86   : 			_Ptr = _Mytree::_Right(_Ptr);	// end() ==> rightmost
; 87   : 		else if (!_Mytree::_Isnil(_Mytree::_Left(_Ptr)))
; 88   : 			_Ptr = _Mytree::_Max(
; 89   : 				_Mytree::_Left(_Ptr));	// ==> largest of left subtree
; 90   : 		else
; 91   : 			{	// climb looking for left subtree
; 92   : 			_Nodeptr _Pnode;
; 93   : 			while (!_Mytree::_Isnil(_Pnode = _Mytree::_Parent(_Ptr))
; 94   : 				&& _Ptr == _Mytree::_Left(_Pnode))
; 95   : 				_Ptr = _Pnode;	// ==> parent while left subtree
; 96   : 			if (_Mytree::_Isnil(_Ptr))
; 97   : 				;	// begin() shouldn't be decremented, don't move
; 98   : 			else
; 99   : 				_Ptr = _Pnode;	// ==> parent if not head
; 100  : 			}
; 101  : 		return (*this);
; 102  : 		}
; 103  : 
; 104  : 	_Myiter operator--(int)
; 105  : 		{	// postdecrement
; 106  : 		_Myiter _Tmp = *this;
; 107  : 		--*this;
; 108  : 		return (_Tmp);
; 109  : 		}
; 110  : 
; 111  : 	bool operator==(const _Myiter& _Right) const
; 112  : 		{	// test for iterator equality
; 113  : 		return (_Ptr == _Right._Ptr);
; 114  : 		}
; 115  : 
; 116  : 	bool operator!=(const _Myiter& _Right) const
; 117  : 		{	// test for iterator inequality
; 118  : 		return (!(*this == _Right));
; 119  : 		}
; 120  : 
; 121  : 	_Nodeptr _Mynode() const
; 122  : 		{	// return node pointer
; 123  : 		return (_Ptr);
; 124  : 		}
; 125  : 
; 126  : 	_Nodeptr _Ptr;	// pointer to node
; 127  : 	};
; 128  : 
; 129  : 	// TEMPLATE CLASS _Tree_unchecked_iterator
; 130  : template<class _Mytree>
; 131  : 	class _Tree_unchecked_iterator
; 132  : 		: public _Tree_unchecked_const_iterator<_Mytree>
; 133  : 	{	// unchecked iterator for mutable tree
; 134  : public:
; 135  : 	typedef _Tree_unchecked_iterator<_Mytree> _Myiter;
; 136  : 	typedef _Tree_unchecked_const_iterator<_Mytree> _Mybase;
; 137  : 	typedef bidirectional_iterator_tag iterator_category;
; 138  : 
; 139  : 	typedef typename _Mytree::_Nodeptr _Nodeptr;
; 140  : 	typedef typename _Mytree::value_type value_type;
; 141  : 	typedef typename _Mytree::difference_type difference_type;
; 142  : 	typedef typename _Mytree::pointer pointer;
; 143  : 	typedef typename _Mytree::reference reference;
; 144  : 
; 145  : 	_Tree_unchecked_iterator()
; 146  : 		{	// construct with null node
; 147  : 		}
; 148  : 
; 149  : 	_Tree_unchecked_iterator(_Nodeptr _Pnode, const _Mytree *_Plist)
; 150  : 		: _Mybase(_Pnode, _Plist)
; 151  : 		{	// construct with node pointer _Pnode
; 152  : 		}
; 153  : 
; 154  : 	reference operator*() const
; 155  : 		{	// return designated value
; 156  : 		return ((reference)**(_Mybase *)this);
; 157  : 		}
; 158  : 
; 159  : 	pointer operator->() const
; 160  : 		{	// return pointer to class object
; 161  : 		return (_STD pointer_traits<pointer>::pointer_to(**this));
; 162  : 		}
; 163  : 
; 164  : 	_Myiter& operator++()
; 165  : 		{	// preincrement
; 166  : 		++(*(_Mybase *)this);
; 167  : 		return (*this);
; 168  : 		}
; 169  : 
; 170  : 	_Myiter operator++(int)
; 171  : 		{	// postincrement
; 172  : 		_Myiter _Tmp = *this;
; 173  : 		++*this;
; 174  : 		return (_Tmp);
; 175  : 		}
; 176  : 
; 177  : 	_Myiter& operator--()
; 178  : 		{	// predecrement
; 179  : 		--(*(_Mybase *)this);
; 180  : 		return (*this);
; 181  : 		}
; 182  : 
; 183  : 	_Myiter operator--(int)
; 184  : 		{	// postdecrement
; 185  : 		_Myiter _Tmp = *this;
; 186  : 		--*this;
; 187  : 		return (_Tmp);
; 188  : 		}
; 189  : 	};
; 190  : 
; 191  : 	// TEMPLATE CLASS _Tree_const_iterator
; 192  : template<class _Mytree>
; 193  : 	class _Tree_const_iterator
; 194  : 		: public _Tree_unchecked_const_iterator<_Mytree, _Iterator_base>
; 195  : 	{	// iterator for nonmutable tree
; 196  : public:
; 197  : 	typedef _Tree_const_iterator<_Mytree> _Myiter;
; 198  : 	typedef _Tree_unchecked_const_iterator<_Mytree, _Iterator_base> _Mybase;
; 199  : 	typedef bidirectional_iterator_tag iterator_category;
; 200  : 
; 201  : 	typedef typename _Mytree::_Nodeptr _Nodeptr;
; 202  : 	typedef typename _Mytree::value_type value_type;
; 203  : 	typedef typename _Mytree::difference_type difference_type;
; 204  : 	typedef typename _Mytree::const_pointer pointer;
; 205  : 	typedef typename _Mytree::const_reference reference;
; 206  : 
; 207  : 	_Tree_const_iterator()
; 208  : 		: _Mybase()
; 209  : 		{	// construct with null node pointer
; 210  : 		}
; 211  : 
; 212  : 	_Tree_const_iterator(_Nodeptr _Pnode, const _Mytree *_Plist)
; 213  : 		: _Mybase(_Pnode, _Plist)
; 214  : 		{	// construct with node pointer _Pnode
; 215  : 		}
; 216  : 
; 217  : 	typedef _Tree_unchecked_const_iterator<_Mytree> _Unchecked_type;
; 218  : 
; 219  : 	_Myiter& _Rechecked(_Unchecked_type _Right)
; 220  : 		{	// reset from unchecked iterator
; 221  : 		this->_Ptr = _Right._Ptr;
; 222  : 		return (*this);
; 223  : 		}
; 224  : 
; 225  : 	_Unchecked_type _Unchecked() const
; 226  : 		{	// make an unchecked iterator
; 227  : 		return (_Unchecked_type(this->_Ptr, (_Mytree *)this->_Getcont()));
; 228  : 		}
; 229  : 
; 230  : 	reference operator*() const
; 231  : 		{	// return designated value
; 232  :  #if _ITERATOR_DEBUG_LEVEL == 2
; 233  : 		if (this->_Getcont() == 0
; 234  : 			|| this->_Ptr == 0
; 235  : 			|| this->_Ptr == ((_Mytree *)this->_Getcont())->_Myhead)
; 236  : 			{	// report error
; 237  : 			_DEBUG_ERROR("map/set iterator not dereferencable");
; 238  : 			_SCL_SECURE_OUT_OF_RANGE;
; 239  : 			}
; 240  : 
; 241  :  #elif _ITERATOR_DEBUG_LEVEL == 1
; 242  : 		_SCL_SECURE_VALIDATE(this->_Getcont() != 0 && this->_Ptr != 0);
; 243  : 		_SCL_SECURE_VALIDATE_RANGE(this->_Ptr !=
; 244  : 			((_Mytree *)this->_Getcont())->_Myhead);
; 245  :  #endif /* _ITERATOR_DEBUG_LEVEL */
; 246  : 
; 247  : 		return (_Mytree::_Myval(this->_Ptr));
; 248  : 		}
; 249  : 
; 250  : 	pointer operator->() const
; 251  : 		{	// return pointer to class object
; 252  : 		return (_STD pointer_traits<pointer>::pointer_to(**this));
; 253  : 		}
; 254  : 
; 255  : 	_Myiter& operator++()
; 256  : 		{	// preincrement
; 257  :  #if _ITERATOR_DEBUG_LEVEL == 2
; 258  : 		if (this->_Getcont() == 0
; 259  : 			|| this->_Ptr == 0
; 260  : 			|| _Mytree::_Isnil(this->_Ptr))
; 261  : 			{	// report error
; 262  : 			_DEBUG_ERROR("map/set iterator not incrementable");
; 263  : 			_SCL_SECURE_OUT_OF_RANGE;
; 264  : 			}
; 265  : 
; 266  :  #elif _ITERATOR_DEBUG_LEVEL == 1
; 267  : 		_SCL_SECURE_VALIDATE(this->_Getcont() != 0 && this->_Ptr != 0);
; 268  : 		_SCL_SECURE_VALIDATE_RANGE(!_Mytree::_Isnil(this->_Ptr));
; 269  :  #endif /* _ITERATOR_DEBUG_LEVEL */
; 270  : 
; 271  : 		++(*(_Mybase *)this);
; 272  : 		return (*this);
; 273  : 		}
; 274  : 
; 275  : 	_Myiter operator++(int)
; 276  : 		{	// postincrement
; 277  : 		_Myiter _Tmp = *this;
; 278  : 		++*this;
; 279  : 		return (_Tmp);
; 280  : 		}
; 281  : 
; 282  : 	_Myiter& operator--()
; 283  : 		{	// predecrement
; 284  :  #if _ITERATOR_DEBUG_LEVEL == 2
; 285  : 		if (this->_Getcont() == 0
; 286  : 			|| this->_Ptr == 0)
; 287  : 			{	// report error
; 288  : 			_DEBUG_ERROR("map/set iterator not decrementable");
; 289  : 			_SCL_SECURE_OUT_OF_RANGE;
; 290  : 			}
; 291  : 
; 292  : 		_Nodeptr _Ptrsav = this->_Ptr;
; 293  : 		--(*(_Mybase *)this);
; 294  : 		if (_Ptrsav == this->_Ptr)
; 295  : 			{	// report error
; 296  : 			_DEBUG_ERROR("map/set iterator not decrementable");
; 297  : 			_SCL_SECURE_OUT_OF_RANGE;
; 298  : 			}
; 299  : 
; 300  :  #elif _ITERATOR_DEBUG_LEVEL == 1
; 301  : 		_SCL_SECURE_VALIDATE(this->_Getcont() != 0 && this->_Ptr != 0);
; 302  : 
; 303  : 		_Nodeptr _Ptrsav = this->_Ptr;
; 304  : 		--(*(_Mybase *)this);
; 305  : 		_SCL_SECURE_VALIDATE(_Ptrsav != this->_Ptr);
; 306  : 
; 307  :  #else /* _ITERATOR_DEBUG_LEVEL == 0 */
; 308  : 		--(*(_Mybase *)this);
; 309  :  #endif /* _ITERATOR_DEBUG_LEVEL */
; 310  : 
; 311  : 		return (*this);
; 312  : 		}
; 313  : 
; 314  : 	_Myiter operator--(int)
; 315  : 		{	// postdecrement
; 316  : 		_Myiter _Tmp = *this;
; 317  : 		--*this;
; 318  : 		return (_Tmp);
; 319  : 		}
; 320  : 
; 321  : 	bool operator==(const _Myiter& _Right) const
; 322  : 		{	// test for iterator equality
; 323  :  #if _ITERATOR_DEBUG_LEVEL == 2
; 324  : 		if (this->_Getcont() == 0
; 325  : 			|| this->_Getcont() != _Right._Getcont())
; 326  : 			{	// report error
; 327  : 			_DEBUG_ERROR("map/set iterators incompatible");
; 328  : 			_SCL_SECURE_INVALID_ARGUMENT;
; 329  : 			}
; 330  : 
; 331  :  #elif _ITERATOR_DEBUG_LEVEL == 1
; 332  : 		_SCL_SECURE_VALIDATE(this->_Getcont() != 0
; 333  : 			&& this->_Getcont() == _Right._Getcont());
; 334  :  #endif /* _ITERATOR_DEBUG_LEVEL */
; 335  : 
; 336  : 		return (this->_Ptr == _Right._Ptr);

	cmp	r8, r9

; 1553 : 					? end() : _Where);

	je	SHORT $LN20@dock
; File c:\users\nummer\documents\github\olr-3.0\src\xray\xrcore\xrstring.h

; 19   : 	IC bool		operator ()	(const str_value* A, const str_value* B) const	{ return A->dwCRC<B->dwCRC;	};

	mov	rax, QWORD PTR [r8+32]
; File c:\program files (x86)\microsoft visual studio 12.0\vc\include\xtree

; 1553 : 					? end() : _Where);

	mov	QWORD PTR $T2[rsp], r8
; File c:\users\nummer\documents\github\olr-3.0\src\xray\xrcore\xrstring.h

; 19   : 	IC bool		operator ()	(const str_value* A, const str_value* B) const	{ return A->dwCRC<B->dwCRC;	};

	cmp	r14d, DWORD PTR [rax+8]
; File c:\program files (x86)\microsoft visual studio 12.0\vc\include\xtree

; 1553 : 					? end() : _Where);

	jae	SHORT $LN181@dock
$LN20@dock:

; 44   : 		{	// construct with node pointer _Pnode

	mov	QWORD PTR $T3[rsp], r9
$LN181@dock:

; 1553 : 					? end() : _Where);

	lea	rbx, QWORD PTR $T3[rsp]

; 72   : 			}
; 73   : 		return (*this);
; 74   : 		}
; 75   : 
; 76   : 	_Myiter operator++(int)
; 77   : 		{	// postincrement
; 78   : 		_Myiter _Tmp = *this;
; 79   : 		++*this;
; 80   : 		return (_Tmp);
; 81   : 		}
; 82   : 
; 83   : 	_Myiter& operator--()
; 84   : 		{	// predecrement
; 85   : 		if (_Mytree::_Isnil(_Ptr))
; 86   : 			_Ptr = _Mytree::_Right(_Ptr);	// end() ==> rightmost
; 87   : 		else if (!_Mytree::_Isnil(_Mytree::_Left(_Ptr)))
; 88   : 			_Ptr = _Mytree::_Max(
; 89   : 				_Mytree::_Left(_Ptr));	// ==> largest of left subtree
; 90   : 		else
; 91   : 			{	// climb looking for left subtree
; 92   : 			_Nodeptr _Pnode;
; 93   : 			while (!_Mytree::_Isnil(_Pnode = _Mytree::_Parent(_Ptr))
; 94   : 				&& _Ptr == _Mytree::_Left(_Pnode))
; 95   : 				_Ptr = _Pnode;	// ==> parent while left subtree
; 96   : 			if (_Mytree::_Isnil(_Ptr))
; 97   : 				;	// begin() shouldn't be decremented, don't move
; 98   : 			else
; 99   : 				_Ptr = _Pnode;	// ==> parent if not head
; 100  : 			}
; 101  : 		return (*this);
; 102  : 		}
; 103  : 
; 104  : 	_Myiter operator--(int)
; 105  : 		{	// postdecrement
; 106  : 		_Myiter _Tmp = *this;
; 107  : 		--*this;
; 108  : 		return (_Tmp);
; 109  : 		}
; 110  : 
; 111  : 	bool operator==(const _Myiter& _Right) const
; 112  : 		{	// test for iterator equality
; 113  : 		return (_Ptr == _Right._Ptr);
; 114  : 		}
; 115  : 
; 116  : 	bool operator!=(const _Myiter& _Right) const
; 117  : 		{	// test for iterator inequality
; 118  : 		return (!(*this == _Right));
; 119  : 		}
; 120  : 
; 121  : 	_Nodeptr _Mynode() const
; 122  : 		{	// return node pointer
; 123  : 		return (_Ptr);
; 124  : 		}
; 125  : 
; 126  : 	_Nodeptr _Ptr;	// pointer to node
; 127  : 	};
; 128  : 
; 129  : 	// TEMPLATE CLASS _Tree_unchecked_iterator
; 130  : template<class _Mytree>
; 131  : 	class _Tree_unchecked_iterator
; 132  : 		: public _Tree_unchecked_const_iterator<_Mytree>
; 133  : 	{	// unchecked iterator for mutable tree
; 134  : public:
; 135  : 	typedef _Tree_unchecked_iterator<_Mytree> _Myiter;
; 136  : 	typedef _Tree_unchecked_const_iterator<_Mytree> _Mybase;
; 137  : 	typedef bidirectional_iterator_tag iterator_category;
; 138  : 
; 139  : 	typedef typename _Mytree::_Nodeptr _Nodeptr;
; 140  : 	typedef typename _Mytree::value_type value_type;
; 141  : 	typedef typename _Mytree::difference_type difference_type;
; 142  : 	typedef typename _Mytree::pointer pointer;
; 143  : 	typedef typename _Mytree::reference reference;
; 144  : 
; 145  : 	_Tree_unchecked_iterator()
; 146  : 		{	// construct with null node
; 147  : 		}
; 148  : 
; 149  : 	_Tree_unchecked_iterator(_Nodeptr _Pnode, const _Mytree *_Plist)
; 150  : 		: _Mybase(_Pnode, _Plist)
; 151  : 		{	// construct with node pointer _Pnode
; 152  : 		}
; 153  : 
; 154  : 	reference operator*() const
; 155  : 		{	// return designated value
; 156  : 		return ((reference)**(_Mybase *)this);
; 157  : 		}
; 158  : 
; 159  : 	pointer operator->() const
; 160  : 		{	// return pointer to class object
; 161  : 		return (_STD pointer_traits<pointer>::pointer_to(**this));
; 162  : 		}
; 163  : 
; 164  : 	_Myiter& operator++()
; 165  : 		{	// preincrement
; 166  : 		++(*(_Mybase *)this);
; 167  : 		return (*this);
; 168  : 		}
; 169  : 
; 170  : 	_Myiter operator++(int)
; 171  : 		{	// postincrement
; 172  : 		_Myiter _Tmp = *this;
; 173  : 		++*this;
; 174  : 		return (_Tmp);
; 175  : 		}
; 176  : 
; 177  : 	_Myiter& operator--()
; 178  : 		{	// predecrement
; 179  : 		--(*(_Mybase *)this);
; 180  : 		return (*this);
; 181  : 		}
; 182  : 
; 183  : 	_Myiter operator--(int)
; 184  : 		{	// postdecrement
; 185  : 		_Myiter _Tmp = *this;
; 186  : 		--*this;
; 187  : 		return (_Tmp);
; 188  : 		}
; 189  : 	};
; 190  : 
; 191  : 	// TEMPLATE CLASS _Tree_const_iterator
; 192  : template<class _Mytree>
; 193  : 	class _Tree_const_iterator
; 194  : 		: public _Tree_unchecked_const_iterator<_Mytree, _Iterator_base>
; 195  : 	{	// iterator for nonmutable tree
; 196  : public:
; 197  : 	typedef _Tree_const_iterator<_Mytree> _Myiter;
; 198  : 	typedef _Tree_unchecked_const_iterator<_Mytree, _Iterator_base> _Mybase;
; 199  : 	typedef bidirectional_iterator_tag iterator_category;
; 200  : 
; 201  : 	typedef typename _Mytree::_Nodeptr _Nodeptr;
; 202  : 	typedef typename _Mytree::value_type value_type;
; 203  : 	typedef typename _Mytree::difference_type difference_type;
; 204  : 	typedef typename _Mytree::const_pointer pointer;
; 205  : 	typedef typename _Mytree::const_reference reference;
; 206  : 
; 207  : 	_Tree_const_iterator()
; 208  : 		: _Mybase()
; 209  : 		{	// construct with null node pointer
; 210  : 		}
; 211  : 
; 212  : 	_Tree_const_iterator(_Nodeptr _Pnode, const _Mytree *_Plist)
; 213  : 		: _Mybase(_Pnode, _Plist)
; 214  : 		{	// construct with node pointer _Pnode
; 215  : 		}
; 216  : 
; 217  : 	typedef _Tree_unchecked_const_iterator<_Mytree> _Unchecked_type;
; 218  : 
; 219  : 	_Myiter& _Rechecked(_Unchecked_type _Right)
; 220  : 		{	// reset from unchecked iterator
; 221  : 		this->_Ptr = _Right._Ptr;
; 222  : 		return (*this);
; 223  : 		}
; 224  : 
; 225  : 	_Unchecked_type _Unchecked() const
; 226  : 		{	// make an unchecked iterator
; 227  : 		return (_Unchecked_type(this->_Ptr, (_Mytree *)this->_Getcont()));
; 228  : 		}
; 229  : 
; 230  : 	reference operator*() const
; 231  : 		{	// return designated value
; 232  :  #if _ITERATOR_DEBUG_LEVEL == 2
; 233  : 		if (this->_Getcont() == 0
; 234  : 			|| this->_Ptr == 0
; 235  : 			|| this->_Ptr == ((_Mytree *)this->_Getcont())->_Myhead)
; 236  : 			{	// report error
; 237  : 			_DEBUG_ERROR("map/set iterator not dereferencable");
; 238  : 			_SCL_SECURE_OUT_OF_RANGE;
; 239  : 			}
; 240  : 
; 241  :  #elif _ITERATOR_DEBUG_LEVEL == 1
; 242  : 		_SCL_SECURE_VALIDATE(this->_Getcont() != 0 && this->_Ptr != 0);
; 243  : 		_SCL_SECURE_VALIDATE_RANGE(this->_Ptr !=
; 244  : 			((_Mytree *)this->_Getcont())->_Myhead);
; 245  :  #endif /* _ITERATOR_DEBUG_LEVEL */
; 246  : 
; 247  : 		return (_Mytree::_Myval(this->_Ptr));
; 248  : 		}
; 249  : 
; 250  : 	pointer operator->() const
; 251  : 		{	// return pointer to class object
; 252  : 		return (_STD pointer_traits<pointer>::pointer_to(**this));
; 253  : 		}
; 254  : 
; 255  : 	_Myiter& operator++()
; 256  : 		{	// preincrement
; 257  :  #if _ITERATOR_DEBUG_LEVEL == 2
; 258  : 		if (this->_Getcont() == 0
; 259  : 			|| this->_Ptr == 0
; 260  : 			|| _Mytree::_Isnil(this->_Ptr))
; 261  : 			{	// report error
; 262  : 			_DEBUG_ERROR("map/set iterator not incrementable");
; 263  : 			_SCL_SECURE_OUT_OF_RANGE;
; 264  : 			}
; 265  : 
; 266  :  #elif _ITERATOR_DEBUG_LEVEL == 1
; 267  : 		_SCL_SECURE_VALIDATE(this->_Getcont() != 0 && this->_Ptr != 0);
; 268  : 		_SCL_SECURE_VALIDATE_RANGE(!_Mytree::_Isnil(this->_Ptr));
; 269  :  #endif /* _ITERATOR_DEBUG_LEVEL */
; 270  : 
; 271  : 		++(*(_Mybase *)this);
; 272  : 		return (*this);
; 273  : 		}
; 274  : 
; 275  : 	_Myiter operator++(int)
; 276  : 		{	// postincrement
; 277  : 		_Myiter _Tmp = *this;
; 278  : 		++*this;
; 279  : 		return (_Tmp);
; 280  : 		}
; 281  : 
; 282  : 	_Myiter& operator--()
; 283  : 		{	// predecrement
; 284  :  #if _ITERATOR_DEBUG_LEVEL == 2
; 285  : 		if (this->_Getcont() == 0
; 286  : 			|| this->_Ptr == 0)
; 287  : 			{	// report error
; 288  : 			_DEBUG_ERROR("map/set iterator not decrementable");
; 289  : 			_SCL_SECURE_OUT_OF_RANGE;
; 290  : 			}
; 291  : 
; 292  : 		_Nodeptr _Ptrsav = this->_Ptr;
; 293  : 		--(*(_Mybase *)this);
; 294  : 		if (_Ptrsav == this->_Ptr)
; 295  : 			{	// report error
; 296  : 			_DEBUG_ERROR("map/set iterator not decrementable");
; 297  : 			_SCL_SECURE_OUT_OF_RANGE;
; 298  : 			}
; 299  : 
; 300  :  #elif _ITERATOR_DEBUG_LEVEL == 1
; 301  : 		_SCL_SECURE_VALIDATE(this->_Getcont() != 0 && this->_Ptr != 0);
; 302  : 
; 303  : 		_Nodeptr _Ptrsav = this->_Ptr;
; 304  : 		--(*(_Mybase *)this);
; 305  : 		_SCL_SECURE_VALIDATE(_Ptrsav != this->_Ptr);
; 306  : 
; 307  :  #else /* _ITERATOR_DEBUG_LEVEL == 0 */
; 308  : 		--(*(_Mybase *)this);
; 309  :  #endif /* _ITERATOR_DEBUG_LEVEL */
; 310  : 
; 311  : 		return (*this);
; 312  : 		}
; 313  : 
; 314  : 	_Myiter operator--(int)
; 315  : 		{	// postdecrement
; 316  : 		_Myiter _Tmp = *this;
; 317  : 		--*this;
; 318  : 		return (_Tmp);
; 319  : 		}
; 320  : 
; 321  : 	bool operator==(const _Myiter& _Right) const
; 322  : 		{	// test for iterator equality
; 323  :  #if _ITERATOR_DEBUG_LEVEL == 2
; 324  : 		if (this->_Getcont() == 0
; 325  : 			|| this->_Getcont() != _Right._Getcont())
; 326  : 			{	// report error
; 327  : 			_DEBUG_ERROR("map/set iterators incompatible");
; 328  : 			_SCL_SECURE_INVALID_ARGUMENT;
; 329  : 			}
; 330  : 
; 331  :  #elif _ITERATOR_DEBUG_LEVEL == 1
; 332  : 		_SCL_SECURE_VALIDATE(this->_Getcont() != 0
; 333  : 			&& this->_Getcont() == _Right._Getcont());
; 334  :  #endif /* _ITERATOR_DEBUG_LEVEL */
; 335  : 
; 336  : 		return (this->_Ptr == _Right._Ptr);

	mov	r15, r9

; 1553 : 					? end() : _Where);

	mov	rbx, QWORD PTR [rbx]

; 72   : 			}
; 73   : 		return (*this);
; 74   : 		}
; 75   : 
; 76   : 	_Myiter operator++(int)
; 77   : 		{	// postincrement
; 78   : 		_Myiter _Tmp = *this;
; 79   : 		++*this;
; 80   : 		return (_Tmp);
; 81   : 		}
; 82   : 
; 83   : 	_Myiter& operator--()
; 84   : 		{	// predecrement
; 85   : 		if (_Mytree::_Isnil(_Ptr))
; 86   : 			_Ptr = _Mytree::_Right(_Ptr);	// end() ==> rightmost
; 87   : 		else if (!_Mytree::_Isnil(_Mytree::_Left(_Ptr)))
; 88   : 			_Ptr = _Mytree::_Max(
; 89   : 				_Mytree::_Left(_Ptr));	// ==> largest of left subtree
; 90   : 		else
; 91   : 			{	// climb looking for left subtree
; 92   : 			_Nodeptr _Pnode;
; 93   : 			while (!_Mytree::_Isnil(_Pnode = _Mytree::_Parent(_Ptr))
; 94   : 				&& _Ptr == _Mytree::_Left(_Pnode))
; 95   : 				_Ptr = _Pnode;	// ==> parent while left subtree
; 96   : 			if (_Mytree::_Isnil(_Ptr))
; 97   : 				;	// begin() shouldn't be decremented, don't move
; 98   : 			else
; 99   : 				_Ptr = _Pnode;	// ==> parent if not head
; 100  : 			}
; 101  : 		return (*this);
; 102  : 		}
; 103  : 
; 104  : 	_Myiter operator--(int)
; 105  : 		{	// postdecrement
; 106  : 		_Myiter _Tmp = *this;
; 107  : 		--*this;
; 108  : 		return (_Tmp);
; 109  : 		}
; 110  : 
; 111  : 	bool operator==(const _Myiter& _Right) const
; 112  : 		{	// test for iterator equality
; 113  : 		return (_Ptr == _Right._Ptr);
; 114  : 		}
; 115  : 
; 116  : 	bool operator!=(const _Myiter& _Right) const
; 117  : 		{	// test for iterator inequality
; 118  : 		return (!(*this == _Right));
; 119  : 		}
; 120  : 
; 121  : 	_Nodeptr _Mynode() const
; 122  : 		{	// return node pointer
; 123  : 		return (_Ptr);
; 124  : 		}
; 125  : 
; 126  : 	_Nodeptr _Ptr;	// pointer to node
; 127  : 	};
; 128  : 
; 129  : 	// TEMPLATE CLASS _Tree_unchecked_iterator
; 130  : template<class _Mytree>
; 131  : 	class _Tree_unchecked_iterator
; 132  : 		: public _Tree_unchecked_const_iterator<_Mytree>
; 133  : 	{	// unchecked iterator for mutable tree
; 134  : public:
; 135  : 	typedef _Tree_unchecked_iterator<_Mytree> _Myiter;
; 136  : 	typedef _Tree_unchecked_const_iterator<_Mytree> _Mybase;
; 137  : 	typedef bidirectional_iterator_tag iterator_category;
; 138  : 
; 139  : 	typedef typename _Mytree::_Nodeptr _Nodeptr;
; 140  : 	typedef typename _Mytree::value_type value_type;
; 141  : 	typedef typename _Mytree::difference_type difference_type;
; 142  : 	typedef typename _Mytree::pointer pointer;
; 143  : 	typedef typename _Mytree::reference reference;
; 144  : 
; 145  : 	_Tree_unchecked_iterator()
; 146  : 		{	// construct with null node
; 147  : 		}
; 148  : 
; 149  : 	_Tree_unchecked_iterator(_Nodeptr _Pnode, const _Mytree *_Plist)
; 150  : 		: _Mybase(_Pnode, _Plist)
; 151  : 		{	// construct with node pointer _Pnode
; 152  : 		}
; 153  : 
; 154  : 	reference operator*() const
; 155  : 		{	// return designated value
; 156  : 		return ((reference)**(_Mybase *)this);
; 157  : 		}
; 158  : 
; 159  : 	pointer operator->() const
; 160  : 		{	// return pointer to class object
; 161  : 		return (_STD pointer_traits<pointer>::pointer_to(**this));
; 162  : 		}
; 163  : 
; 164  : 	_Myiter& operator++()
; 165  : 		{	// preincrement
; 166  : 		++(*(_Mybase *)this);
; 167  : 		return (*this);
; 168  : 		}
; 169  : 
; 170  : 	_Myiter operator++(int)
; 171  : 		{	// postincrement
; 172  : 		_Myiter _Tmp = *this;
; 173  : 		++*this;
; 174  : 		return (_Tmp);
; 175  : 		}
; 176  : 
; 177  : 	_Myiter& operator--()
; 178  : 		{	// predecrement
; 179  : 		--(*(_Mybase *)this);
; 180  : 		return (*this);
; 181  : 		}
; 182  : 
; 183  : 	_Myiter operator--(int)
; 184  : 		{	// postdecrement
; 185  : 		_Myiter _Tmp = *this;
; 186  : 		--*this;
; 187  : 		return (_Tmp);
; 188  : 		}
; 189  : 	};
; 190  : 
; 191  : 	// TEMPLATE CLASS _Tree_const_iterator
; 192  : template<class _Mytree>
; 193  : 	class _Tree_const_iterator
; 194  : 		: public _Tree_unchecked_const_iterator<_Mytree, _Iterator_base>
; 195  : 	{	// iterator for nonmutable tree
; 196  : public:
; 197  : 	typedef _Tree_const_iterator<_Mytree> _Myiter;
; 198  : 	typedef _Tree_unchecked_const_iterator<_Mytree, _Iterator_base> _Mybase;
; 199  : 	typedef bidirectional_iterator_tag iterator_category;
; 200  : 
; 201  : 	typedef typename _Mytree::_Nodeptr _Nodeptr;
; 202  : 	typedef typename _Mytree::value_type value_type;
; 203  : 	typedef typename _Mytree::difference_type difference_type;
; 204  : 	typedef typename _Mytree::const_pointer pointer;
; 205  : 	typedef typename _Mytree::const_reference reference;
; 206  : 
; 207  : 	_Tree_const_iterator()
; 208  : 		: _Mybase()
; 209  : 		{	// construct with null node pointer
; 210  : 		}
; 211  : 
; 212  : 	_Tree_const_iterator(_Nodeptr _Pnode, const _Mytree *_Plist)
; 213  : 		: _Mybase(_Pnode, _Plist)
; 214  : 		{	// construct with node pointer _Pnode
; 215  : 		}
; 216  : 
; 217  : 	typedef _Tree_unchecked_const_iterator<_Mytree> _Unchecked_type;
; 218  : 
; 219  : 	_Myiter& _Rechecked(_Unchecked_type _Right)
; 220  : 		{	// reset from unchecked iterator
; 221  : 		this->_Ptr = _Right._Ptr;
; 222  : 		return (*this);
; 223  : 		}
; 224  : 
; 225  : 	_Unchecked_type _Unchecked() const
; 226  : 		{	// make an unchecked iterator
; 227  : 		return (_Unchecked_type(this->_Ptr, (_Mytree *)this->_Getcont()));
; 228  : 		}
; 229  : 
; 230  : 	reference operator*() const
; 231  : 		{	// return designated value
; 232  :  #if _ITERATOR_DEBUG_LEVEL == 2
; 233  : 		if (this->_Getcont() == 0
; 234  : 			|| this->_Ptr == 0
; 235  : 			|| this->_Ptr == ((_Mytree *)this->_Getcont())->_Myhead)
; 236  : 			{	// report error
; 237  : 			_DEBUG_ERROR("map/set iterator not dereferencable");
; 238  : 			_SCL_SECURE_OUT_OF_RANGE;
; 239  : 			}
; 240  : 
; 241  :  #elif _ITERATOR_DEBUG_LEVEL == 1
; 242  : 		_SCL_SECURE_VALIDATE(this->_Getcont() != 0 && this->_Ptr != 0);
; 243  : 		_SCL_SECURE_VALIDATE_RANGE(this->_Ptr !=
; 244  : 			((_Mytree *)this->_Getcont())->_Myhead);
; 245  :  #endif /* _ITERATOR_DEBUG_LEVEL */
; 246  : 
; 247  : 		return (_Mytree::_Myval(this->_Ptr));
; 248  : 		}
; 249  : 
; 250  : 	pointer operator->() const
; 251  : 		{	// return pointer to class object
; 252  : 		return (_STD pointer_traits<pointer>::pointer_to(**this));
; 253  : 		}
; 254  : 
; 255  : 	_Myiter& operator++()
; 256  : 		{	// preincrement
; 257  :  #if _ITERATOR_DEBUG_LEVEL == 2
; 258  : 		if (this->_Getcont() == 0
; 259  : 			|| this->_Ptr == 0
; 260  : 			|| _Mytree::_Isnil(this->_Ptr))
; 261  : 			{	// report error
; 262  : 			_DEBUG_ERROR("map/set iterator not incrementable");
; 263  : 			_SCL_SECURE_OUT_OF_RANGE;
; 264  : 			}
; 265  : 
; 266  :  #elif _ITERATOR_DEBUG_LEVEL == 1
; 267  : 		_SCL_SECURE_VALIDATE(this->_Getcont() != 0 && this->_Ptr != 0);
; 268  : 		_SCL_SECURE_VALIDATE_RANGE(!_Mytree::_Isnil(this->_Ptr));
; 269  :  #endif /* _ITERATOR_DEBUG_LEVEL */
; 270  : 
; 271  : 		++(*(_Mybase *)this);
; 272  : 		return (*this);
; 273  : 		}
; 274  : 
; 275  : 	_Myiter operator++(int)
; 276  : 		{	// postincrement
; 277  : 		_Myiter _Tmp = *this;
; 278  : 		++*this;
; 279  : 		return (_Tmp);
; 280  : 		}
; 281  : 
; 282  : 	_Myiter& operator--()
; 283  : 		{	// predecrement
; 284  :  #if _ITERATOR_DEBUG_LEVEL == 2
; 285  : 		if (this->_Getcont() == 0
; 286  : 			|| this->_Ptr == 0)
; 287  : 			{	// report error
; 288  : 			_DEBUG_ERROR("map/set iterator not decrementable");
; 289  : 			_SCL_SECURE_OUT_OF_RANGE;
; 290  : 			}
; 291  : 
; 292  : 		_Nodeptr _Ptrsav = this->_Ptr;
; 293  : 		--(*(_Mybase *)this);
; 294  : 		if (_Ptrsav == this->_Ptr)
; 295  : 			{	// report error
; 296  : 			_DEBUG_ERROR("map/set iterator not decrementable");
; 297  : 			_SCL_SECURE_OUT_OF_RANGE;
; 298  : 			}
; 299  : 
; 300  :  #elif _ITERATOR_DEBUG_LEVEL == 1
; 301  : 		_SCL_SECURE_VALIDATE(this->_Getcont() != 0 && this->_Ptr != 0);
; 302  : 
; 303  : 		_Nodeptr _Ptrsav = this->_Ptr;
; 304  : 		--(*(_Mybase *)this);
; 305  : 		_SCL_SECURE_VALIDATE(_Ptrsav != this->_Ptr);
; 306  : 
; 307  :  #else /* _ITERATOR_DEBUG_LEVEL == 0 */
; 308  : 		--(*(_Mybase *)this);
; 309  :  #endif /* _ITERATOR_DEBUG_LEVEL */
; 310  : 
; 311  : 		return (*this);
; 312  : 		}
; 313  : 
; 314  : 	_Myiter operator--(int)
; 315  : 		{	// postdecrement
; 316  : 		_Myiter _Tmp = *this;
; 317  : 		--*this;
; 318  : 		return (_Tmp);
; 319  : 		}
; 320  : 
; 321  : 	bool operator==(const _Myiter& _Right) const
; 322  : 		{	// test for iterator equality
; 323  :  #if _ITERATOR_DEBUG_LEVEL == 2
; 324  : 		if (this->_Getcont() == 0
; 325  : 			|| this->_Getcont() != _Right._Getcont())
; 326  : 			{	// report error
; 327  : 			_DEBUG_ERROR("map/set iterators incompatible");
; 328  : 			_SCL_SECURE_INVALID_ARGUMENT;
; 329  : 			}
; 330  : 
; 331  :  #elif _ITERATOR_DEBUG_LEVEL == 1
; 332  : 		_SCL_SECURE_VALIDATE(this->_Getcont() != 0
; 333  : 			&& this->_Getcont() == _Right._Getcont());
; 334  :  #endif /* _ITERATOR_DEBUG_LEVEL */
; 335  : 
; 336  : 		return (this->_Ptr == _Right._Ptr);

	cmp	rbx, r9
; File c:\users\nummer\documents\github\olr-3.0\src\xray\xrcore\xrstring.cpp

; 35   : 	if (I!=container.end())		{

	je	SHORT $LN178@dock
	npad	1
$LL106@dock:

; 38   : 		for (; I!=container.end() && (*I)->dwCRC == sv->dwCRC; ++I)	{

	mov	rdi, QWORD PTR [rbx+32]
	cmp	DWORD PTR [rdi+8], r14d
	jne	SHORT $LN178@dock

; 39   : 			str_value*	V		= (*I);
; 40   : 			if	(V->dwLength!=sv->dwLength)			continue;

	cmp	DWORD PTR [rdi+4], esi
	jne	SHORT $LN5@dock

; 41   : 			if	(0!=memcmp(V->value,value,s_len))	continue;

	lea	rcx, QWORD PTR [rdi+12]
	mov	r8d, esi
	mov	rdx, rbp
	call	memcmp
	test	eax, eax
	je	$LN156@dock
$LN5@dock:
; File c:\program files (x86)\microsoft visual studio 12.0\vc\include\xtree

; 60   : 		if (_Mytree::_Isnil(_Ptr))

	cmp	BYTE PTR [rbx+25], 0
	jne	SHORT $LN168@dock

; 337  : 		}
; 338  : 
; 339  : 	bool operator!=(const _Myiter& _Right) const
; 340  : 		{	// test for iterator inequality
; 341  : 		return (!(*this == _Right));
; 342  : 		}
; 343  : 	};
; 344  : 
; 345  : template<class _Mytree> inline
; 346  : 	typename _Tree_const_iterator<_Mytree>::_Unchecked_type
; 347  : 		_Unchecked(_Tree_const_iterator<_Mytree> _Iter)
; 348  : 	{	// convert to unchecked
; 349  : 	return (_Iter._Unchecked());
; 350  : 	}
; 351  : 
; 352  : template<class _Mytree> inline
; 353  : 	_Tree_const_iterator<_Mytree>&
; 354  : 		_Rechecked(_Tree_const_iterator<_Mytree>& _Iter,
; 355  : 			typename _Tree_const_iterator<_Mytree>
; 356  : 				::_Unchecked_type _Right)
; 357  : 	{	// convert to checked
; 358  : 	return (_Iter._Rechecked(_Right));
; 359  : 	}
; 360  : 
; 361  : 	// TEMPLATE CLASS _Tree_iterator
; 362  : template<class _Mytree>
; 363  : 	class _Tree_iterator
; 364  : 		: public _Tree_const_iterator<_Mytree>
; 365  : 	{	// iterator for mutable tree
; 366  : public:
; 367  : 	typedef _Tree_iterator<_Mytree> _Myiter;
; 368  : 	typedef _Tree_const_iterator<_Mytree> _Mybase;
; 369  : 	typedef bidirectional_iterator_tag iterator_category;
; 370  : 
; 371  : 	typedef typename _Mytree::_Nodeptr _Nodeptr;
; 372  : 	typedef typename _Mytree::value_type value_type;
; 373  : 	typedef typename _Mytree::difference_type difference_type;
; 374  : 
; 375  : 	typedef typename _Mytree::pointer pointer;
; 376  : 	typedef typename _Mytree::reference reference;
; 377  : 
; 378  : 	_Tree_iterator()
; 379  : 		{	// construct with null node
; 380  : 		}
; 381  : 
; 382  : 	_Tree_iterator(_Nodeptr _Pnode, const _Mytree *_Plist)
; 383  : 		: _Mybase(_Pnode, _Plist)
; 384  : 		{	// construct with node pointer _Pnode
; 385  : 		}
; 386  : 
; 387  : 	typedef _Tree_unchecked_iterator<_Mytree> _Unchecked_type;
; 388  : 
; 389  : 	_Myiter& _Rechecked(_Unchecked_type _Right)
; 390  : 		{	// reset from unchecked iterator
; 391  : 		this->_Ptr = _Right._Ptr;
; 392  : 		return (*this);
; 393  : 		}
; 394  : 
; 395  : 	_Unchecked_type _Unchecked() const
; 396  : 		{	// make an unchecked iterator
; 397  : 		return (_Unchecked_type(this->_Ptr, (_Mytree *)this->_Getcont()));
; 398  : 		}
; 399  : 
; 400  : 	reference operator*() const
; 401  : 		{	// return designated value
; 402  : 		return ((reference)**(_Mybase *)this);
; 403  : 		}
; 404  : 
; 405  : 	pointer operator->() const
; 406  : 		{	// return pointer to class object
; 407  : 		return (_STD pointer_traits<pointer>::pointer_to(**this));
; 408  : 		}
; 409  : 
; 410  : 	_Myiter& operator++()
; 411  : 		{	// preincrement
; 412  : 		++(*(_Mybase *)this);
; 413  : 		return (*this);
; 414  : 		}
; 415  : 
; 416  : 	_Myiter operator++(int)
; 417  : 		{	// postincrement
; 418  : 		_Myiter _Tmp = *this;
; 419  : 		++*this;
; 420  : 		return (_Tmp);
; 421  : 		}
; 422  : 
; 423  : 	_Myiter& operator--()
; 424  : 		{	// predecrement
; 425  : 		--(*(_Mybase *)this);
; 426  : 		return (*this);
; 427  : 		}
; 428  : 
; 429  : 	_Myiter operator--(int)
; 430  : 		{	// postdecrement
; 431  : 		_Myiter _Tmp = *this;
; 432  : 		--*this;
; 433  : 		return (_Tmp);
; 434  : 		}
; 435  : 	};
; 436  : 
; 437  : template<class _Mytree> inline
; 438  : 	typename _Tree_iterator<_Mytree>::_Unchecked_type
; 439  : 		_Unchecked(_Tree_iterator<_Mytree> _Iter)
; 440  : 	{	// convert to unchecked
; 441  : 	return (_Iter._Unchecked());
; 442  : 	}
; 443  : 
; 444  : template<class _Mytree> inline
; 445  : 	_Tree_iterator<_Mytree>&
; 446  : 		_Rechecked(_Tree_iterator<_Mytree>& _Iter,
; 447  : 			typename _Tree_iterator<_Mytree>
; 448  : 				::_Unchecked_type _Right)
; 449  : 	{	// convert to checked
; 450  : 	return (_Iter._Rechecked(_Right));
; 451  : 	}
; 452  : 
; 453  : 		// tree TYPE WRAPPERS
; 454  : template<class _Value_type,
; 455  : 	class _Size_type,
; 456  : 	class _Difference_type,
; 457  : 	class _Pointer,
; 458  : 	class _Const_pointer,
; 459  : 	class _Reference,
; 460  : 	class _Const_reference,
; 461  : 	class _Nodeptr_type>
; 462  : 	struct _Tree_iter_types
; 463  : 	{	// wraps types needed by iterators
; 464  : 	typedef _Value_type value_type;
; 465  : 	typedef _Size_type size_type;
; 466  : 	typedef _Difference_type difference_type;
; 467  : 	typedef _Pointer pointer;
; 468  : 	typedef _Const_pointer const_pointer;
; 469  : 	typedef _Reference reference;
; 470  : 	typedef _Const_reference const_reference;
; 471  : 	typedef _Nodeptr_type _Nodeptr;
; 472  : 	};
; 473  : 
; 474  : template<class _Value_type,
; 475  : 	class _Voidptr>
; 476  : 	struct _Tree_node
; 477  : 		{	// tree node
; 478  : 		_Voidptr _Left;	// left subtree, or smallest element if head
; 479  : 		_Voidptr _Parent;	// parent, or root of tree if head
; 480  : 		_Voidptr _Right;	// right subtree, or largest element if head
; 481  : 		char _Color;	// _Red or _Black, _Black if head
; 482  : 		char _Isnil;	// true only if head (also nil) node
; 483  : 		_Value_type _Myval;	// the stored value, unused if head
; 484  : 
; 485  : 	private:
; 486  : 		_Tree_node& operator=(const _Tree_node&);
; 487  : 		};
; 488  : 
; 489  : template<class _Value_type>
; 490  : 	struct _Tree_node<_Value_type, void *>
; 491  : 		{	// tree node
; 492  : 		typedef _Tree_node<_Value_type, void *> *_Nodeptr;
; 493  : 		_Nodeptr _Left;	// left subtree, or smallest element if head
; 494  : 		_Nodeptr _Parent;	// parent, or root of tree if head
; 495  : 		_Nodeptr _Right;	// right subtree, or largest element if head
; 496  : 		char _Color;	// _Red or _Black, _Black if head
; 497  : 		char _Isnil;	// true only if head (also nil) node
; 498  : 		_Value_type _Myval;	// the stored value, unused if head
; 499  : 
; 500  : 	private:
; 501  : 		_Tree_node& operator=(const _Tree_node&);
; 502  : 		};
; 503  : 
; 504  : template<class _Ty>
; 505  : 	struct _Tree_simple_types
; 506  : 		: public _Simple_types<_Ty>
; 507  : 	{	// wraps types needed by iterators
; 508  : 	typedef _Tree_node<_Ty, void *> _Node;
; 509  : 	typedef _Node *_Nodeptr;
; 510  : 	};
; 511  : 
; 512  : template<class _Ty,
; 513  : 	class _Alloc0>
; 514  : 	struct _Tree_base_types
; 515  : 	{	// types needed for a container base
; 516  : 	typedef _Alloc0 _Alloc;
; 517  : 	typedef _Tree_base_types<_Ty, _Alloc> _Myt;
; 518  : 
; 519  : 	typedef _Wrap_alloc<_Alloc> _Alty0;
; 520  : 	typedef typename _Alty0::template rebind<_Ty>::other _Alty;
; 521  : 
; 522  : 
; 523  : 	typedef typename _Get_voidptr<_Alty, typename _Alty::pointer>::type
; 524  : 		_Voidptr;
; 525  : 	typedef _Tree_node<typename _Alty::value_type,
; 526  : 		_Voidptr> _Node;
; 527  : 
; 528  : 	typedef typename _Alty::template rebind<_Node>::other _Alnod_type;
; 529  : 	typedef typename _Alnod_type::pointer _Nodeptr;
; 530  : 	typedef _Nodeptr& _Nodepref;
; 531  : 
; 532  : 	typedef typename _If<_Is_simple_alloc<_Alty>::value,
; 533  : 		_Tree_simple_types<typename _Alty::value_type>,
; 534  : 		_Tree_iter_types<typename _Alty::value_type,
; 535  : 			typename _Alty::size_type,
; 536  : 			typename _Alty::difference_type,
; 537  : 			typename _Alty::pointer,
; 538  : 			typename _Alty::const_pointer,
; 539  : 			typename _Alty::reference,
; 540  : 			typename _Alty::const_reference,
; 541  : 			_Nodeptr> >::type
; 542  : 		_Val_types;
; 543  : 	};
; 544  : 
; 545  : 		// TEMPLATE CLASS _Tree_val
; 546  : template<class _Val_types>
; 547  : 	class _Tree_val
; 548  : 		: public _Container_base
; 549  : 	{	// base class for tree to hold data
; 550  : public:
; 551  : 	typedef _Tree_val<_Val_types> _Myt;
; 552  : 
; 553  : 	typedef typename _Val_types::_Nodeptr _Nodeptr;
; 554  : 	typedef _Nodeptr& _Nodepref;
; 555  : 
; 556  : 	typedef typename _Val_types::value_type value_type;
; 557  : 	typedef typename _Val_types::size_type size_type;
; 558  : 	typedef typename _Val_types::difference_type difference_type;
; 559  : 	typedef typename _Val_types::pointer pointer;
; 560  : 	typedef typename _Val_types::const_pointer const_pointer;
; 561  : 	typedef typename _Val_types::reference reference;
; 562  : 	typedef typename _Val_types::const_reference const_reference;
; 563  : 
; 564  : 	typedef _Tree_const_iterator<_Myt> const_iterator;
; 565  : 	typedef _Tree_iterator<_Myt> iterator;
; 566  : 
; 567  : 	_Tree_val()
; 568  : 		{	// initialize data
; 569  : 		this->_Myhead = 0;
; 570  : 		this->_Mysize = 0;
; 571  : 		}
; 572  : 
; 573  : 	enum _Redbl
; 574  : 		{	// colors for link to parent
; 575  : 		_Red, _Black};
; 576  : 
; 577  : 	static char& _Color(_Nodeptr _Pnode)
; 578  : 		{	// return reference to color in node
; 579  : 		return ((char&)_Pnode->_Color);
; 580  : 		}
; 581  : 
; 582  : 	static char& _Isnil(_Nodeptr _Pnode)
; 583  : 		{	// return reference to nil flag in node
; 584  : 		return ((char&)_Pnode->_Isnil);

	mov	rax, QWORD PTR [rbx+16]

; 61   : 			;	// end() shouldn't be incremented, don't move
; 62   : 		else if (!_Mytree::_Isnil(_Mytree::_Right(_Ptr)))

	cmp	BYTE PTR [rax+25], 0
	jne	SHORT $LN165@dock

; 63   : 			_Ptr = _Mytree::_Min(
; 64   : 				_Mytree::_Right(_Ptr));	// ==> smallest of right subtree

	mov	rbx, rax

; 337  : 		}
; 338  : 
; 339  : 	bool operator!=(const _Myiter& _Right) const
; 340  : 		{	// test for iterator inequality
; 341  : 		return (!(*this == _Right));
; 342  : 		}
; 343  : 	};
; 344  : 
; 345  : template<class _Mytree> inline
; 346  : 	typename _Tree_const_iterator<_Mytree>::_Unchecked_type
; 347  : 		_Unchecked(_Tree_const_iterator<_Mytree> _Iter)
; 348  : 	{	// convert to unchecked
; 349  : 	return (_Iter._Unchecked());
; 350  : 	}
; 351  : 
; 352  : template<class _Mytree> inline
; 353  : 	_Tree_const_iterator<_Mytree>&
; 354  : 		_Rechecked(_Tree_const_iterator<_Mytree>& _Iter,
; 355  : 			typename _Tree_const_iterator<_Mytree>
; 356  : 				::_Unchecked_type _Right)
; 357  : 	{	// convert to checked
; 358  : 	return (_Iter._Rechecked(_Right));
; 359  : 	}
; 360  : 
; 361  : 	// TEMPLATE CLASS _Tree_iterator
; 362  : template<class _Mytree>
; 363  : 	class _Tree_iterator
; 364  : 		: public _Tree_const_iterator<_Mytree>
; 365  : 	{	// iterator for mutable tree
; 366  : public:
; 367  : 	typedef _Tree_iterator<_Mytree> _Myiter;
; 368  : 	typedef _Tree_const_iterator<_Mytree> _Mybase;
; 369  : 	typedef bidirectional_iterator_tag iterator_category;
; 370  : 
; 371  : 	typedef typename _Mytree::_Nodeptr _Nodeptr;
; 372  : 	typedef typename _Mytree::value_type value_type;
; 373  : 	typedef typename _Mytree::difference_type difference_type;
; 374  : 
; 375  : 	typedef typename _Mytree::pointer pointer;
; 376  : 	typedef typename _Mytree::reference reference;
; 377  : 
; 378  : 	_Tree_iterator()
; 379  : 		{	// construct with null node
; 380  : 		}
; 381  : 
; 382  : 	_Tree_iterator(_Nodeptr _Pnode, const _Mytree *_Plist)
; 383  : 		: _Mybase(_Pnode, _Plist)
; 384  : 		{	// construct with node pointer _Pnode
; 385  : 		}
; 386  : 
; 387  : 	typedef _Tree_unchecked_iterator<_Mytree> _Unchecked_type;
; 388  : 
; 389  : 	_Myiter& _Rechecked(_Unchecked_type _Right)
; 390  : 		{	// reset from unchecked iterator
; 391  : 		this->_Ptr = _Right._Ptr;
; 392  : 		return (*this);
; 393  : 		}
; 394  : 
; 395  : 	_Unchecked_type _Unchecked() const
; 396  : 		{	// make an unchecked iterator
; 397  : 		return (_Unchecked_type(this->_Ptr, (_Mytree *)this->_Getcont()));
; 398  : 		}
; 399  : 
; 400  : 	reference operator*() const
; 401  : 		{	// return designated value
; 402  : 		return ((reference)**(_Mybase *)this);
; 403  : 		}
; 404  : 
; 405  : 	pointer operator->() const
; 406  : 		{	// return pointer to class object
; 407  : 		return (_STD pointer_traits<pointer>::pointer_to(**this));
; 408  : 		}
; 409  : 
; 410  : 	_Myiter& operator++()
; 411  : 		{	// preincrement
; 412  : 		++(*(_Mybase *)this);
; 413  : 		return (*this);
; 414  : 		}
; 415  : 
; 416  : 	_Myiter operator++(int)
; 417  : 		{	// postincrement
; 418  : 		_Myiter _Tmp = *this;
; 419  : 		++*this;
; 420  : 		return (_Tmp);
; 421  : 		}
; 422  : 
; 423  : 	_Myiter& operator--()
; 424  : 		{	// predecrement
; 425  : 		--(*(_Mybase *)this);
; 426  : 		return (*this);
; 427  : 		}
; 428  : 
; 429  : 	_Myiter operator--(int)
; 430  : 		{	// postdecrement
; 431  : 		_Myiter _Tmp = *this;
; 432  : 		--*this;
; 433  : 		return (_Tmp);
; 434  : 		}
; 435  : 	};
; 436  : 
; 437  : template<class _Mytree> inline
; 438  : 	typename _Tree_iterator<_Mytree>::_Unchecked_type
; 439  : 		_Unchecked(_Tree_iterator<_Mytree> _Iter)
; 440  : 	{	// convert to unchecked
; 441  : 	return (_Iter._Unchecked());
; 442  : 	}
; 443  : 
; 444  : template<class _Mytree> inline
; 445  : 	_Tree_iterator<_Mytree>&
; 446  : 		_Rechecked(_Tree_iterator<_Mytree>& _Iter,
; 447  : 			typename _Tree_iterator<_Mytree>
; 448  : 				::_Unchecked_type _Right)
; 449  : 	{	// convert to checked
; 450  : 	return (_Iter._Rechecked(_Right));
; 451  : 	}
; 452  : 
; 453  : 		// tree TYPE WRAPPERS
; 454  : template<class _Value_type,
; 455  : 	class _Size_type,
; 456  : 	class _Difference_type,
; 457  : 	class _Pointer,
; 458  : 	class _Const_pointer,
; 459  : 	class _Reference,
; 460  : 	class _Const_reference,
; 461  : 	class _Nodeptr_type>
; 462  : 	struct _Tree_iter_types
; 463  : 	{	// wraps types needed by iterators
; 464  : 	typedef _Value_type value_type;
; 465  : 	typedef _Size_type size_type;
; 466  : 	typedef _Difference_type difference_type;
; 467  : 	typedef _Pointer pointer;
; 468  : 	typedef _Const_pointer const_pointer;
; 469  : 	typedef _Reference reference;
; 470  : 	typedef _Const_reference const_reference;
; 471  : 	typedef _Nodeptr_type _Nodeptr;
; 472  : 	};
; 473  : 
; 474  : template<class _Value_type,
; 475  : 	class _Voidptr>
; 476  : 	struct _Tree_node
; 477  : 		{	// tree node
; 478  : 		_Voidptr _Left;	// left subtree, or smallest element if head
; 479  : 		_Voidptr _Parent;	// parent, or root of tree if head
; 480  : 		_Voidptr _Right;	// right subtree, or largest element if head
; 481  : 		char _Color;	// _Red or _Black, _Black if head
; 482  : 		char _Isnil;	// true only if head (also nil) node
; 483  : 		_Value_type _Myval;	// the stored value, unused if head
; 484  : 
; 485  : 	private:
; 486  : 		_Tree_node& operator=(const _Tree_node&);
; 487  : 		};
; 488  : 
; 489  : template<class _Value_type>
; 490  : 	struct _Tree_node<_Value_type, void *>
; 491  : 		{	// tree node
; 492  : 		typedef _Tree_node<_Value_type, void *> *_Nodeptr;
; 493  : 		_Nodeptr _Left;	// left subtree, or smallest element if head
; 494  : 		_Nodeptr _Parent;	// parent, or root of tree if head
; 495  : 		_Nodeptr _Right;	// right subtree, or largest element if head
; 496  : 		char _Color;	// _Red or _Black, _Black if head
; 497  : 		char _Isnil;	// true only if head (also nil) node
; 498  : 		_Value_type _Myval;	// the stored value, unused if head
; 499  : 
; 500  : 	private:
; 501  : 		_Tree_node& operator=(const _Tree_node&);
; 502  : 		};
; 503  : 
; 504  : template<class _Ty>
; 505  : 	struct _Tree_simple_types
; 506  : 		: public _Simple_types<_Ty>
; 507  : 	{	// wraps types needed by iterators
; 508  : 	typedef _Tree_node<_Ty, void *> _Node;
; 509  : 	typedef _Node *_Nodeptr;
; 510  : 	};
; 511  : 
; 512  : template<class _Ty,
; 513  : 	class _Alloc0>
; 514  : 	struct _Tree_base_types
; 515  : 	{	// types needed for a container base
; 516  : 	typedef _Alloc0 _Alloc;
; 517  : 	typedef _Tree_base_types<_Ty, _Alloc> _Myt;
; 518  : 
; 519  : 	typedef _Wrap_alloc<_Alloc> _Alty0;
; 520  : 	typedef typename _Alty0::template rebind<_Ty>::other _Alty;
; 521  : 
; 522  : 
; 523  : 	typedef typename _Get_voidptr<_Alty, typename _Alty::pointer>::type
; 524  : 		_Voidptr;
; 525  : 	typedef _Tree_node<typename _Alty::value_type,
; 526  : 		_Voidptr> _Node;
; 527  : 
; 528  : 	typedef typename _Alty::template rebind<_Node>::other _Alnod_type;
; 529  : 	typedef typename _Alnod_type::pointer _Nodeptr;
; 530  : 	typedef _Nodeptr& _Nodepref;
; 531  : 
; 532  : 	typedef typename _If<_Is_simple_alloc<_Alty>::value,
; 533  : 		_Tree_simple_types<typename _Alty::value_type>,
; 534  : 		_Tree_iter_types<typename _Alty::value_type,
; 535  : 			typename _Alty::size_type,
; 536  : 			typename _Alty::difference_type,
; 537  : 			typename _Alty::pointer,
; 538  : 			typename _Alty::const_pointer,
; 539  : 			typename _Alty::reference,
; 540  : 			typename _Alty::const_reference,
; 541  : 			_Nodeptr> >::type
; 542  : 		_Val_types;
; 543  : 	};
; 544  : 
; 545  : 		// TEMPLATE CLASS _Tree_val
; 546  : template<class _Val_types>
; 547  : 	class _Tree_val
; 548  : 		: public _Container_base
; 549  : 	{	// base class for tree to hold data
; 550  : public:
; 551  : 	typedef _Tree_val<_Val_types> _Myt;
; 552  : 
; 553  : 	typedef typename _Val_types::_Nodeptr _Nodeptr;
; 554  : 	typedef _Nodeptr& _Nodepref;
; 555  : 
; 556  : 	typedef typename _Val_types::value_type value_type;
; 557  : 	typedef typename _Val_types::size_type size_type;
; 558  : 	typedef typename _Val_types::difference_type difference_type;
; 559  : 	typedef typename _Val_types::pointer pointer;
; 560  : 	typedef typename _Val_types::const_pointer const_pointer;
; 561  : 	typedef typename _Val_types::reference reference;
; 562  : 	typedef typename _Val_types::const_reference const_reference;
; 563  : 
; 564  : 	typedef _Tree_const_iterator<_Myt> const_iterator;
; 565  : 	typedef _Tree_iterator<_Myt> iterator;
; 566  : 
; 567  : 	_Tree_val()
; 568  : 		{	// initialize data
; 569  : 		this->_Myhead = 0;
; 570  : 		this->_Mysize = 0;
; 571  : 		}
; 572  : 
; 573  : 	enum _Redbl
; 574  : 		{	// colors for link to parent
; 575  : 		_Red, _Black};
; 576  : 
; 577  : 	static char& _Color(_Nodeptr _Pnode)
; 578  : 		{	// return reference to color in node
; 579  : 		return ((char&)_Pnode->_Color);
; 580  : 		}
; 581  : 
; 582  : 	static char& _Isnil(_Nodeptr _Pnode)
; 583  : 		{	// return reference to nil flag in node
; 584  : 		return ((char&)_Pnode->_Isnil);

	mov	rax, QWORD PTR [rax]

; 595  : 		}
; 596  : 
; 597  : 	static _Nodepref _Right(_Nodeptr _Pnode)
; 598  : 		{	// return reference to right pointer in node
; 599  : 		return ((_Nodepref)_Pnode->_Right);
; 600  : 		}
; 601  : 
; 602  : 	static reference _Myval(_Nodeptr _Pnode)
; 603  : 		{	// return reference to value in node
; 604  : 		return ((reference)_Pnode->_Myval);
; 605  : 		}
; 606  : 
; 607  : 	static _Nodeptr _Max(_Nodeptr _Pnode)
; 608  : 		{	// return rightmost node in subtree at _Pnode
; 609  : 		while (!_Isnil(_Right(_Pnode)))
; 610  : 			_Pnode = _Right(_Pnode);
; 611  : 		return (_Pnode);
; 612  : 		}
; 613  : 
; 614  : 	static _Nodeptr _Min(_Nodeptr _Pnode)
; 615  : 		{	// return leftmost node in subtree at _Pnode
; 616  : 		while (!_Isnil(_Left(_Pnode)))

	cmp	BYTE PTR [rax+25], 0
	jne	SHORT $LN168@dock
$LL121@dock:

; 617  : 			_Pnode = _Left(_Pnode);

	mov	rbx, rax

; 337  : 		}
; 338  : 
; 339  : 	bool operator!=(const _Myiter& _Right) const
; 340  : 		{	// test for iterator inequality
; 341  : 		return (!(*this == _Right));
; 342  : 		}
; 343  : 	};
; 344  : 
; 345  : template<class _Mytree> inline
; 346  : 	typename _Tree_const_iterator<_Mytree>::_Unchecked_type
; 347  : 		_Unchecked(_Tree_const_iterator<_Mytree> _Iter)
; 348  : 	{	// convert to unchecked
; 349  : 	return (_Iter._Unchecked());
; 350  : 	}
; 351  : 
; 352  : template<class _Mytree> inline
; 353  : 	_Tree_const_iterator<_Mytree>&
; 354  : 		_Rechecked(_Tree_const_iterator<_Mytree>& _Iter,
; 355  : 			typename _Tree_const_iterator<_Mytree>
; 356  : 				::_Unchecked_type _Right)
; 357  : 	{	// convert to checked
; 358  : 	return (_Iter._Rechecked(_Right));
; 359  : 	}
; 360  : 
; 361  : 	// TEMPLATE CLASS _Tree_iterator
; 362  : template<class _Mytree>
; 363  : 	class _Tree_iterator
; 364  : 		: public _Tree_const_iterator<_Mytree>
; 365  : 	{	// iterator for mutable tree
; 366  : public:
; 367  : 	typedef _Tree_iterator<_Mytree> _Myiter;
; 368  : 	typedef _Tree_const_iterator<_Mytree> _Mybase;
; 369  : 	typedef bidirectional_iterator_tag iterator_category;
; 370  : 
; 371  : 	typedef typename _Mytree::_Nodeptr _Nodeptr;
; 372  : 	typedef typename _Mytree::value_type value_type;
; 373  : 	typedef typename _Mytree::difference_type difference_type;
; 374  : 
; 375  : 	typedef typename _Mytree::pointer pointer;
; 376  : 	typedef typename _Mytree::reference reference;
; 377  : 
; 378  : 	_Tree_iterator()
; 379  : 		{	// construct with null node
; 380  : 		}
; 381  : 
; 382  : 	_Tree_iterator(_Nodeptr _Pnode, const _Mytree *_Plist)
; 383  : 		: _Mybase(_Pnode, _Plist)
; 384  : 		{	// construct with node pointer _Pnode
; 385  : 		}
; 386  : 
; 387  : 	typedef _Tree_unchecked_iterator<_Mytree> _Unchecked_type;
; 388  : 
; 389  : 	_Myiter& _Rechecked(_Unchecked_type _Right)
; 390  : 		{	// reset from unchecked iterator
; 391  : 		this->_Ptr = _Right._Ptr;
; 392  : 		return (*this);
; 393  : 		}
; 394  : 
; 395  : 	_Unchecked_type _Unchecked() const
; 396  : 		{	// make an unchecked iterator
; 397  : 		return (_Unchecked_type(this->_Ptr, (_Mytree *)this->_Getcont()));
; 398  : 		}
; 399  : 
; 400  : 	reference operator*() const
; 401  : 		{	// return designated value
; 402  : 		return ((reference)**(_Mybase *)this);
; 403  : 		}
; 404  : 
; 405  : 	pointer operator->() const
; 406  : 		{	// return pointer to class object
; 407  : 		return (_STD pointer_traits<pointer>::pointer_to(**this));
; 408  : 		}
; 409  : 
; 410  : 	_Myiter& operator++()
; 411  : 		{	// preincrement
; 412  : 		++(*(_Mybase *)this);
; 413  : 		return (*this);
; 414  : 		}
; 415  : 
; 416  : 	_Myiter operator++(int)
; 417  : 		{	// postincrement
; 418  : 		_Myiter _Tmp = *this;
; 419  : 		++*this;
; 420  : 		return (_Tmp);
; 421  : 		}
; 422  : 
; 423  : 	_Myiter& operator--()
; 424  : 		{	// predecrement
; 425  : 		--(*(_Mybase *)this);
; 426  : 		return (*this);
; 427  : 		}
; 428  : 
; 429  : 	_Myiter operator--(int)
; 430  : 		{	// postdecrement
; 431  : 		_Myiter _Tmp = *this;
; 432  : 		--*this;
; 433  : 		return (_Tmp);
; 434  : 		}
; 435  : 	};
; 436  : 
; 437  : template<class _Mytree> inline
; 438  : 	typename _Tree_iterator<_Mytree>::_Unchecked_type
; 439  : 		_Unchecked(_Tree_iterator<_Mytree> _Iter)
; 440  : 	{	// convert to unchecked
; 441  : 	return (_Iter._Unchecked());
; 442  : 	}
; 443  : 
; 444  : template<class _Mytree> inline
; 445  : 	_Tree_iterator<_Mytree>&
; 446  : 		_Rechecked(_Tree_iterator<_Mytree>& _Iter,
; 447  : 			typename _Tree_iterator<_Mytree>
; 448  : 				::_Unchecked_type _Right)
; 449  : 	{	// convert to checked
; 450  : 	return (_Iter._Rechecked(_Right));
; 451  : 	}
; 452  : 
; 453  : 		// tree TYPE WRAPPERS
; 454  : template<class _Value_type,
; 455  : 	class _Size_type,
; 456  : 	class _Difference_type,
; 457  : 	class _Pointer,
; 458  : 	class _Const_pointer,
; 459  : 	class _Reference,
; 460  : 	class _Const_reference,
; 461  : 	class _Nodeptr_type>
; 462  : 	struct _Tree_iter_types
; 463  : 	{	// wraps types needed by iterators
; 464  : 	typedef _Value_type value_type;
; 465  : 	typedef _Size_type size_type;
; 466  : 	typedef _Difference_type difference_type;
; 467  : 	typedef _Pointer pointer;
; 468  : 	typedef _Const_pointer const_pointer;
; 469  : 	typedef _Reference reference;
; 470  : 	typedef _Const_reference const_reference;
; 471  : 	typedef _Nodeptr_type _Nodeptr;
; 472  : 	};
; 473  : 
; 474  : template<class _Value_type,
; 475  : 	class _Voidptr>
; 476  : 	struct _Tree_node
; 477  : 		{	// tree node
; 478  : 		_Voidptr _Left;	// left subtree, or smallest element if head
; 479  : 		_Voidptr _Parent;	// parent, or root of tree if head
; 480  : 		_Voidptr _Right;	// right subtree, or largest element if head
; 481  : 		char _Color;	// _Red or _Black, _Black if head
; 482  : 		char _Isnil;	// true only if head (also nil) node
; 483  : 		_Value_type _Myval;	// the stored value, unused if head
; 484  : 
; 485  : 	private:
; 486  : 		_Tree_node& operator=(const _Tree_node&);
; 487  : 		};
; 488  : 
; 489  : template<class _Value_type>
; 490  : 	struct _Tree_node<_Value_type, void *>
; 491  : 		{	// tree node
; 492  : 		typedef _Tree_node<_Value_type, void *> *_Nodeptr;
; 493  : 		_Nodeptr _Left;	// left subtree, or smallest element if head
; 494  : 		_Nodeptr _Parent;	// parent, or root of tree if head
; 495  : 		_Nodeptr _Right;	// right subtree, or largest element if head
; 496  : 		char _Color;	// _Red or _Black, _Black if head
; 497  : 		char _Isnil;	// true only if head (also nil) node
; 498  : 		_Value_type _Myval;	// the stored value, unused if head
; 499  : 
; 500  : 	private:
; 501  : 		_Tree_node& operator=(const _Tree_node&);
; 502  : 		};
; 503  : 
; 504  : template<class _Ty>
; 505  : 	struct _Tree_simple_types
; 506  : 		: public _Simple_types<_Ty>
; 507  : 	{	// wraps types needed by iterators
; 508  : 	typedef _Tree_node<_Ty, void *> _Node;
; 509  : 	typedef _Node *_Nodeptr;
; 510  : 	};
; 511  : 
; 512  : template<class _Ty,
; 513  : 	class _Alloc0>
; 514  : 	struct _Tree_base_types
; 515  : 	{	// types needed for a container base
; 516  : 	typedef _Alloc0 _Alloc;
; 517  : 	typedef _Tree_base_types<_Ty, _Alloc> _Myt;
; 518  : 
; 519  : 	typedef _Wrap_alloc<_Alloc> _Alty0;
; 520  : 	typedef typename _Alty0::template rebind<_Ty>::other _Alty;
; 521  : 
; 522  : 
; 523  : 	typedef typename _Get_voidptr<_Alty, typename _Alty::pointer>::type
; 524  : 		_Voidptr;
; 525  : 	typedef _Tree_node<typename _Alty::value_type,
; 526  : 		_Voidptr> _Node;
; 527  : 
; 528  : 	typedef typename _Alty::template rebind<_Node>::other _Alnod_type;
; 529  : 	typedef typename _Alnod_type::pointer _Nodeptr;
; 530  : 	typedef _Nodeptr& _Nodepref;
; 531  : 
; 532  : 	typedef typename _If<_Is_simple_alloc<_Alty>::value,
; 533  : 		_Tree_simple_types<typename _Alty::value_type>,
; 534  : 		_Tree_iter_types<typename _Alty::value_type,
; 535  : 			typename _Alty::size_type,
; 536  : 			typename _Alty::difference_type,
; 537  : 			typename _Alty::pointer,
; 538  : 			typename _Alty::const_pointer,
; 539  : 			typename _Alty::reference,
; 540  : 			typename _Alty::const_reference,
; 541  : 			_Nodeptr> >::type
; 542  : 		_Val_types;
; 543  : 	};
; 544  : 
; 545  : 		// TEMPLATE CLASS _Tree_val
; 546  : template<class _Val_types>
; 547  : 	class _Tree_val
; 548  : 		: public _Container_base
; 549  : 	{	// base class for tree to hold data
; 550  : public:
; 551  : 	typedef _Tree_val<_Val_types> _Myt;
; 552  : 
; 553  : 	typedef typename _Val_types::_Nodeptr _Nodeptr;
; 554  : 	typedef _Nodeptr& _Nodepref;
; 555  : 
; 556  : 	typedef typename _Val_types::value_type value_type;
; 557  : 	typedef typename _Val_types::size_type size_type;
; 558  : 	typedef typename _Val_types::difference_type difference_type;
; 559  : 	typedef typename _Val_types::pointer pointer;
; 560  : 	typedef typename _Val_types::const_pointer const_pointer;
; 561  : 	typedef typename _Val_types::reference reference;
; 562  : 	typedef typename _Val_types::const_reference const_reference;
; 563  : 
; 564  : 	typedef _Tree_const_iterator<_Myt> const_iterator;
; 565  : 	typedef _Tree_iterator<_Myt> iterator;
; 566  : 
; 567  : 	_Tree_val()
; 568  : 		{	// initialize data
; 569  : 		this->_Myhead = 0;
; 570  : 		this->_Mysize = 0;
; 571  : 		}
; 572  : 
; 573  : 	enum _Redbl
; 574  : 		{	// colors for link to parent
; 575  : 		_Red, _Black};
; 576  : 
; 577  : 	static char& _Color(_Nodeptr _Pnode)
; 578  : 		{	// return reference to color in node
; 579  : 		return ((char&)_Pnode->_Color);
; 580  : 		}
; 581  : 
; 582  : 	static char& _Isnil(_Nodeptr _Pnode)
; 583  : 		{	// return reference to nil flag in node
; 584  : 		return ((char&)_Pnode->_Isnil);

	mov	rax, QWORD PTR [rax]

; 595  : 		}
; 596  : 
; 597  : 	static _Nodepref _Right(_Nodeptr _Pnode)
; 598  : 		{	// return reference to right pointer in node
; 599  : 		return ((_Nodepref)_Pnode->_Right);
; 600  : 		}
; 601  : 
; 602  : 	static reference _Myval(_Nodeptr _Pnode)
; 603  : 		{	// return reference to value in node
; 604  : 		return ((reference)_Pnode->_Myval);
; 605  : 		}
; 606  : 
; 607  : 	static _Nodeptr _Max(_Nodeptr _Pnode)
; 608  : 		{	// return rightmost node in subtree at _Pnode
; 609  : 		while (!_Isnil(_Right(_Pnode)))
; 610  : 			_Pnode = _Right(_Pnode);
; 611  : 		return (_Pnode);
; 612  : 		}
; 613  : 
; 614  : 	static _Nodeptr _Min(_Nodeptr _Pnode)
; 615  : 		{	// return leftmost node in subtree at _Pnode
; 616  : 		while (!_Isnil(_Left(_Pnode)))

	cmp	BYTE PTR [rax+25], 0
	je	SHORT $LL121@dock

; 65   : 		else

	jmp	SHORT $LN168@dock
$LN165@dock:

; 66   : 			{	// climb looking for right subtree
; 67   : 			_Nodeptr _Pnode;
; 68   : 			while (!_Mytree::_Isnil(_Pnode = _Mytree::_Parent(_Ptr))
; 69   : 				&& _Ptr == _Mytree::_Right(_Pnode))

	mov	rax, QWORD PTR [rbx+8]
	cmp	BYTE PTR [rax+25], 0
	jne	SHORT $LN180@dock
	npad	6
$LL105@dock:
	cmp	rbx, QWORD PTR [rax+16]
	jne	SHORT $LN180@dock

; 70   : 				_Ptr = _Pnode;	// ==> parent while right subtree

	mov	rbx, rax
	mov	rax, QWORD PTR [rax+8]
	cmp	BYTE PTR [rax+25], 0
	je	SHORT $LL105@dock
$LN180@dock:

; 71   : 			_Ptr = _Pnode;	// ==> parent (head if end())

	mov	rbx, rax
$LN168@dock:

; 72   : 			}
; 73   : 		return (*this);
; 74   : 		}
; 75   : 
; 76   : 	_Myiter operator++(int)
; 77   : 		{	// postincrement
; 78   : 		_Myiter _Tmp = *this;
; 79   : 		++*this;
; 80   : 		return (_Tmp);
; 81   : 		}
; 82   : 
; 83   : 	_Myiter& operator--()
; 84   : 		{	// predecrement
; 85   : 		if (_Mytree::_Isnil(_Ptr))
; 86   : 			_Ptr = _Mytree::_Right(_Ptr);	// end() ==> rightmost
; 87   : 		else if (!_Mytree::_Isnil(_Mytree::_Left(_Ptr)))
; 88   : 			_Ptr = _Mytree::_Max(
; 89   : 				_Mytree::_Left(_Ptr));	// ==> largest of left subtree
; 90   : 		else
; 91   : 			{	// climb looking for left subtree
; 92   : 			_Nodeptr _Pnode;
; 93   : 			while (!_Mytree::_Isnil(_Pnode = _Mytree::_Parent(_Ptr))
; 94   : 				&& _Ptr == _Mytree::_Left(_Pnode))
; 95   : 				_Ptr = _Pnode;	// ==> parent while left subtree
; 96   : 			if (_Mytree::_Isnil(_Ptr))
; 97   : 				;	// begin() shouldn't be decremented, don't move
; 98   : 			else
; 99   : 				_Ptr = _Pnode;	// ==> parent if not head
; 100  : 			}
; 101  : 		return (*this);
; 102  : 		}
; 103  : 
; 104  : 	_Myiter operator--(int)
; 105  : 		{	// postdecrement
; 106  : 		_Myiter _Tmp = *this;
; 107  : 		--*this;
; 108  : 		return (_Tmp);
; 109  : 		}
; 110  : 
; 111  : 	bool operator==(const _Myiter& _Right) const
; 112  : 		{	// test for iterator equality
; 113  : 		return (_Ptr == _Right._Ptr);
; 114  : 		}
; 115  : 
; 116  : 	bool operator!=(const _Myiter& _Right) const
; 117  : 		{	// test for iterator inequality
; 118  : 		return (!(*this == _Right));
; 119  : 		}
; 120  : 
; 121  : 	_Nodeptr _Mynode() const
; 122  : 		{	// return node pointer
; 123  : 		return (_Ptr);
; 124  : 		}
; 125  : 
; 126  : 	_Nodeptr _Ptr;	// pointer to node
; 127  : 	};
; 128  : 
; 129  : 	// TEMPLATE CLASS _Tree_unchecked_iterator
; 130  : template<class _Mytree>
; 131  : 	class _Tree_unchecked_iterator
; 132  : 		: public _Tree_unchecked_const_iterator<_Mytree>
; 133  : 	{	// unchecked iterator for mutable tree
; 134  : public:
; 135  : 	typedef _Tree_unchecked_iterator<_Mytree> _Myiter;
; 136  : 	typedef _Tree_unchecked_const_iterator<_Mytree> _Mybase;
; 137  : 	typedef bidirectional_iterator_tag iterator_category;
; 138  : 
; 139  : 	typedef typename _Mytree::_Nodeptr _Nodeptr;
; 140  : 	typedef typename _Mytree::value_type value_type;
; 141  : 	typedef typename _Mytree::difference_type difference_type;
; 142  : 	typedef typename _Mytree::pointer pointer;
; 143  : 	typedef typename _Mytree::reference reference;
; 144  : 
; 145  : 	_Tree_unchecked_iterator()
; 146  : 		{	// construct with null node
; 147  : 		}
; 148  : 
; 149  : 	_Tree_unchecked_iterator(_Nodeptr _Pnode, const _Mytree *_Plist)
; 150  : 		: _Mybase(_Pnode, _Plist)
; 151  : 		{	// construct with node pointer _Pnode
; 152  : 		}
; 153  : 
; 154  : 	reference operator*() const
; 155  : 		{	// return designated value
; 156  : 		return ((reference)**(_Mybase *)this);
; 157  : 		}
; 158  : 
; 159  : 	pointer operator->() const
; 160  : 		{	// return pointer to class object
; 161  : 		return (_STD pointer_traits<pointer>::pointer_to(**this));
; 162  : 		}
; 163  : 
; 164  : 	_Myiter& operator++()
; 165  : 		{	// preincrement
; 166  : 		++(*(_Mybase *)this);
; 167  : 		return (*this);
; 168  : 		}
; 169  : 
; 170  : 	_Myiter operator++(int)
; 171  : 		{	// postincrement
; 172  : 		_Myiter _Tmp = *this;
; 173  : 		++*this;
; 174  : 		return (_Tmp);
; 175  : 		}
; 176  : 
; 177  : 	_Myiter& operator--()
; 178  : 		{	// predecrement
; 179  : 		--(*(_Mybase *)this);
; 180  : 		return (*this);
; 181  : 		}
; 182  : 
; 183  : 	_Myiter operator--(int)
; 184  : 		{	// postdecrement
; 185  : 		_Myiter _Tmp = *this;
; 186  : 		--*this;
; 187  : 		return (_Tmp);
; 188  : 		}
; 189  : 	};
; 190  : 
; 191  : 	// TEMPLATE CLASS _Tree_const_iterator
; 192  : template<class _Mytree>
; 193  : 	class _Tree_const_iterator
; 194  : 		: public _Tree_unchecked_const_iterator<_Mytree, _Iterator_base>
; 195  : 	{	// iterator for nonmutable tree
; 196  : public:
; 197  : 	typedef _Tree_const_iterator<_Mytree> _Myiter;
; 198  : 	typedef _Tree_unchecked_const_iterator<_Mytree, _Iterator_base> _Mybase;
; 199  : 	typedef bidirectional_iterator_tag iterator_category;
; 200  : 
; 201  : 	typedef typename _Mytree::_Nodeptr _Nodeptr;
; 202  : 	typedef typename _Mytree::value_type value_type;
; 203  : 	typedef typename _Mytree::difference_type difference_type;
; 204  : 	typedef typename _Mytree::const_pointer pointer;
; 205  : 	typedef typename _Mytree::const_reference reference;
; 206  : 
; 207  : 	_Tree_const_iterator()
; 208  : 		: _Mybase()
; 209  : 		{	// construct with null node pointer
; 210  : 		}
; 211  : 
; 212  : 	_Tree_const_iterator(_Nodeptr _Pnode, const _Mytree *_Plist)
; 213  : 		: _Mybase(_Pnode, _Plist)
; 214  : 		{	// construct with node pointer _Pnode
; 215  : 		}
; 216  : 
; 217  : 	typedef _Tree_unchecked_const_iterator<_Mytree> _Unchecked_type;
; 218  : 
; 219  : 	_Myiter& _Rechecked(_Unchecked_type _Right)
; 220  : 		{	// reset from unchecked iterator
; 221  : 		this->_Ptr = _Right._Ptr;
; 222  : 		return (*this);
; 223  : 		}
; 224  : 
; 225  : 	_Unchecked_type _Unchecked() const
; 226  : 		{	// make an unchecked iterator
; 227  : 		return (_Unchecked_type(this->_Ptr, (_Mytree *)this->_Getcont()));
; 228  : 		}
; 229  : 
; 230  : 	reference operator*() const
; 231  : 		{	// return designated value
; 232  :  #if _ITERATOR_DEBUG_LEVEL == 2
; 233  : 		if (this->_Getcont() == 0
; 234  : 			|| this->_Ptr == 0
; 235  : 			|| this->_Ptr == ((_Mytree *)this->_Getcont())->_Myhead)
; 236  : 			{	// report error
; 237  : 			_DEBUG_ERROR("map/set iterator not dereferencable");
; 238  : 			_SCL_SECURE_OUT_OF_RANGE;
; 239  : 			}
; 240  : 
; 241  :  #elif _ITERATOR_DEBUG_LEVEL == 1
; 242  : 		_SCL_SECURE_VALIDATE(this->_Getcont() != 0 && this->_Ptr != 0);
; 243  : 		_SCL_SECURE_VALIDATE_RANGE(this->_Ptr !=
; 244  : 			((_Mytree *)this->_Getcont())->_Myhead);
; 245  :  #endif /* _ITERATOR_DEBUG_LEVEL */
; 246  : 
; 247  : 		return (_Mytree::_Myval(this->_Ptr));
; 248  : 		}
; 249  : 
; 250  : 	pointer operator->() const
; 251  : 		{	// return pointer to class object
; 252  : 		return (_STD pointer_traits<pointer>::pointer_to(**this));
; 253  : 		}
; 254  : 
; 255  : 	_Myiter& operator++()
; 256  : 		{	// preincrement
; 257  :  #if _ITERATOR_DEBUG_LEVEL == 2
; 258  : 		if (this->_Getcont() == 0
; 259  : 			|| this->_Ptr == 0
; 260  : 			|| _Mytree::_Isnil(this->_Ptr))
; 261  : 			{	// report error
; 262  : 			_DEBUG_ERROR("map/set iterator not incrementable");
; 263  : 			_SCL_SECURE_OUT_OF_RANGE;
; 264  : 			}
; 265  : 
; 266  :  #elif _ITERATOR_DEBUG_LEVEL == 1
; 267  : 		_SCL_SECURE_VALIDATE(this->_Getcont() != 0 && this->_Ptr != 0);
; 268  : 		_SCL_SECURE_VALIDATE_RANGE(!_Mytree::_Isnil(this->_Ptr));
; 269  :  #endif /* _ITERATOR_DEBUG_LEVEL */
; 270  : 
; 271  : 		++(*(_Mybase *)this);
; 272  : 		return (*this);
; 273  : 		}
; 274  : 
; 275  : 	_Myiter operator++(int)
; 276  : 		{	// postincrement
; 277  : 		_Myiter _Tmp = *this;
; 278  : 		++*this;
; 279  : 		return (_Tmp);
; 280  : 		}
; 281  : 
; 282  : 	_Myiter& operator--()
; 283  : 		{	// predecrement
; 284  :  #if _ITERATOR_DEBUG_LEVEL == 2
; 285  : 		if (this->_Getcont() == 0
; 286  : 			|| this->_Ptr == 0)
; 287  : 			{	// report error
; 288  : 			_DEBUG_ERROR("map/set iterator not decrementable");
; 289  : 			_SCL_SECURE_OUT_OF_RANGE;
; 290  : 			}
; 291  : 
; 292  : 		_Nodeptr _Ptrsav = this->_Ptr;
; 293  : 		--(*(_Mybase *)this);
; 294  : 		if (_Ptrsav == this->_Ptr)
; 295  : 			{	// report error
; 296  : 			_DEBUG_ERROR("map/set iterator not decrementable");
; 297  : 			_SCL_SECURE_OUT_OF_RANGE;
; 298  : 			}
; 299  : 
; 300  :  #elif _ITERATOR_DEBUG_LEVEL == 1
; 301  : 		_SCL_SECURE_VALIDATE(this->_Getcont() != 0 && this->_Ptr != 0);
; 302  : 
; 303  : 		_Nodeptr _Ptrsav = this->_Ptr;
; 304  : 		--(*(_Mybase *)this);
; 305  : 		_SCL_SECURE_VALIDATE(_Ptrsav != this->_Ptr);
; 306  : 
; 307  :  #else /* _ITERATOR_DEBUG_LEVEL == 0 */
; 308  : 		--(*(_Mybase *)this);
; 309  :  #endif /* _ITERATOR_DEBUG_LEVEL */
; 310  : 
; 311  : 		return (*this);
; 312  : 		}
; 313  : 
; 314  : 	_Myiter operator--(int)
; 315  : 		{	// postdecrement
; 316  : 		_Myiter _Tmp = *this;
; 317  : 		--*this;
; 318  : 		return (_Tmp);
; 319  : 		}
; 320  : 
; 321  : 	bool operator==(const _Myiter& _Right) const
; 322  : 		{	// test for iterator equality
; 323  :  #if _ITERATOR_DEBUG_LEVEL == 2
; 324  : 		if (this->_Getcont() == 0
; 325  : 			|| this->_Getcont() != _Right._Getcont())
; 326  : 			{	// report error
; 327  : 			_DEBUG_ERROR("map/set iterators incompatible");
; 328  : 			_SCL_SECURE_INVALID_ARGUMENT;
; 329  : 			}
; 330  : 
; 331  :  #elif _ITERATOR_DEBUG_LEVEL == 1
; 332  : 		_SCL_SECURE_VALIDATE(this->_Getcont() != 0
; 333  : 			&& this->_Getcont() == _Right._Getcont());
; 334  :  #endif /* _ITERATOR_DEBUG_LEVEL */
; 335  : 
; 336  : 		return (this->_Ptr == _Right._Ptr);

	cmp	rbx, r15
; File c:\users\nummer\documents\github\olr-3.0\src\xray\xrcore\xrstring.cpp

; 38   : 		for (; I!=container.end() && (*I)->dwCRC == sv->dwCRC; ++I)	{

	jne	SHORT $LL106@dock
$LN178@dock:

; 42   : 			result				= V;				// found
; 43   : 			break;
; 44   : 		}
; 45   : 	}
; 46   : 
; 47   : 	// it may be the case, string is not fount or has "non-exact" match
; 48   : 	if (0==result)				{
; 49   : 		// Insert string
; 50   : //		DUMP_PHASE;
; 51   : 
; 52   : 		result					= (str_value*)Memory.mem_alloc(HEADER+s_len_with_zero
; 53   : #ifdef DEBUG_MEMORY_NAME
; 54   : 			, "storage: sstring"
; 55   : #endif // DEBUG_MEMORY_NAME
; 56   : 			);

	mov	ebx, DWORD PTR s_len_with_zero$1$[rsp]
	lea	rcx, OFFSET FLAT:?Memory@@3VxrMemory@@A	; Memory
	lea	edx, DWORD PTR [rbx+12]
	call	?mem_alloc@xrMemory@@QEAAPEAX_K@Z	; xrMemory::mem_alloc

; 57   : 
; 58   : //		DUMP_PHASE;
; 59   : 
; 60   : 		result->dwReference		= 0;
; 61   : 		result->dwLength		= sv->dwLength;
; 62   : 		result->dwCRC			= sv->dwCRC;
; 63   : 		CopyMemory				(result->value,value,s_len_with_zero);

	mov	r8d, ebx
	mov	rdx, rbp
	mov	DWORD PTR [rax], 0
	mov	DWORD PTR [rax+4], esi
	lea	rcx, QWORD PTR [rax+12]
	mov	rdi, rax
	mov	QWORD PTR result$[rsp], rax
	mov	DWORD PTR [rax+8], r14d
	call	memcpy
; File c:\program files (x86)\microsoft visual studio 12.0\vc\include\xtree

; 1303 : 			_Val, _Nil_obj));

	movzx	edx, BYTE PTR _Nil_obj
	lea	r9, QWORD PTR result$[rsp]
	mov	BYTE PTR [rsp+32], dl
	lea	rcx, QWORD PTR [r12+8]
	lea	rdx, QWORD PTR $T1[rsp]
	call	??$_Insert_nohint@AEBQEAUstr_value@@U_Nil@std@@@?$_Tree@V?$_Tset_traits@PEAUstr_value@@Ustr_value_cmp@@V?$xalloc@PEAUstr_value@@@@$00@std@@@std@@IEAA?AU?$pair@V?$_Tree_const_iterator@V?$_Tree_val@U?$_Tree_simple_types@PEAUstr_value@@@std@@@std@@@std@@_N@1@_NAEBQEAUstr_value@@U_Nil@1@@Z ; std::_Tree<std::_Tset_traits<str_value * __ptr64,str_value_cmp,xalloc<str_value * __ptr64>,1> >::_Insert_nohint<str_value * __ptr64 const & __ptr64,std::_Nil>
$LN156@dock:
; File c:\users\nummer\documents\github\olr-3.0\src\xray\xrcore\xrsyncronize.cpp

; 69   : 	LeaveCriticalSection			( (CRITICAL_SECTION*)pmutex );

	mov	rcx, QWORD PTR [r12]
	call	QWORD PTR __imp_LeaveCriticalSection
	mov	r15, QWORD PTR [rsp+64]
	mov	r14, QWORD PTR [rsp+72]
	mov	r13, QWORD PTR [rsp+80]
	mov	rsi, QWORD PTR [rsp+96]
	mov	rbx, QWORD PTR [rsp+128]
; File c:\users\nummer\documents\github\olr-3.0\src\xray\xrcore\xrstring.cpp

; 68   : 	return	result;

	mov	rax, rdi
	mov	rdi, QWORD PTR [rsp+88]

; 69   : }

	add	rsp, 104				; 00000068H
	pop	r12
	pop	rbp
	ret	0
?dock@str_container@@QEAAPEAUstr_value@@PEBD@Z ENDP	; str_container::dock
_TEXT	ENDS
; Function compile flags: /Ogtpy
; File c:\users\nummer\documents\github\olr-3.0\src\xray\xrcore\xrstring.cpp
; File c:\program files (x86)\microsoft visual studio 12.0\vc\include\xtree
; File c:\program files (x86)\microsoft visual studio 12.0\vc\include\xmemory0
; File c:\users\nummer\documents\github\olr-3.0\src\xray\xrcore\_stl_extensions.h
; File c:\program files (x86)\microsoft visual studio 12.0\vc\include\xmemory0
; File c:\users\nummer\documents\github\olr-3.0\src\xray\xrcore\_stl_extensions.h
; File c:\users\nummer\documents\github\olr-3.0\src\xray\xrcore\xrsyncronize.cpp
; File c:\users\nummer\documents\github\olr-3.0\src\xray\xrcore\xrstring.cpp
; File c:\users\nummer\documents\github\olr-3.0\src\xray\xrcore\xrsyncronize.cpp
; File c:\users\nummer\documents\github\olr-3.0\src\xray\xrcore\xrstring.cpp
_TEXT	SEGMENT
p$1 = 48
$T2 = 48
this$ = 48
??1str_container@@QEAA@XZ PROC				; str_container::~str_container

; 156  : {

$LN66:
	mov	QWORD PTR [rsp+16], rbx
	push	rdi
	sub	rsp, 32					; 00000020H
	mov	rdi, rcx

; 157  : 	clean	();

	call	?clean@str_container@@QEAAXXZ		; str_container::clean
; File c:\program files (x86)\microsoft visual studio 12.0\vc\include\xtree

; 44   : 		{	// construct with node pointer _Pnode

	mov	r8, QWORD PTR [rdi+8]

; 45   : 		this->_Adopt(_Plist);
; 46   : 		}
; 47   : 
; 48   : 	reference operator*() const
; 49   : 		{	// return designated value
; 50   : 		return (_Mytree::_Myval(_Ptr));
; 51   : 		}
; 52   : 
; 53   : 	pointer operator->() const
; 54   : 		{	// return pointer to class object
; 55   : 		return (_STD pointer_traits<pointer>::pointer_to(**this));
; 56   : 		}
; 57   : 
; 58   : 	_Myiter& operator++()
; 59   : 		{	// preincrement
; 60   : 		if (_Mytree::_Isnil(_Ptr))
; 61   : 			;	// end() shouldn't be incremented, don't move
; 62   : 		else if (!_Mytree::_Isnil(_Mytree::_Right(_Ptr)))
; 63   : 			_Ptr = _Mytree::_Min(
; 64   : 				_Mytree::_Right(_Ptr));	// ==> smallest of right subtree
; 65   : 		else
; 66   : 			{	// climb looking for right subtree
; 67   : 			_Nodeptr _Pnode;
; 68   : 			while (!_Mytree::_Isnil(_Pnode = _Mytree::_Parent(_Ptr))
; 69   : 				&& _Ptr == _Mytree::_Right(_Pnode))
; 70   : 				_Ptr = _Pnode;	// ==> parent while right subtree
; 71   : 			_Ptr = _Pnode;	// ==> parent (head if end())
; 72   : 			}
; 73   : 		return (*this);
; 74   : 		}
; 75   : 
; 76   : 	_Myiter operator++(int)
; 77   : 		{	// postincrement
; 78   : 		_Myiter _Tmp = *this;
; 79   : 		++*this;
; 80   : 		return (_Tmp);
; 81   : 		}
; 82   : 
; 83   : 	_Myiter& operator--()
; 84   : 		{	// predecrement
; 85   : 		if (_Mytree::_Isnil(_Ptr))
; 86   : 			_Ptr = _Mytree::_Right(_Ptr);	// end() ==> rightmost
; 87   : 		else if (!_Mytree::_Isnil(_Mytree::_Left(_Ptr)))
; 88   : 			_Ptr = _Mytree::_Max(
; 89   : 				_Mytree::_Left(_Ptr));	// ==> largest of left subtree
; 90   : 		else
; 91   : 			{	// climb looking for left subtree
; 92   : 			_Nodeptr _Pnode;
; 93   : 			while (!_Mytree::_Isnil(_Pnode = _Mytree::_Parent(_Ptr))
; 94   : 				&& _Ptr == _Mytree::_Left(_Pnode))
; 95   : 				_Ptr = _Pnode;	// ==> parent while left subtree
; 96   : 			if (_Mytree::_Isnil(_Ptr))
; 97   : 				;	// begin() shouldn't be decremented, don't move
; 98   : 			else
; 99   : 				_Ptr = _Pnode;	// ==> parent if not head
; 100  : 			}
; 101  : 		return (*this);
; 102  : 		}
; 103  : 
; 104  : 	_Myiter operator--(int)
; 105  : 		{	// postdecrement
; 106  : 		_Myiter _Tmp = *this;
; 107  : 		--*this;
; 108  : 		return (_Tmp);
; 109  : 		}
; 110  : 
; 111  : 	bool operator==(const _Myiter& _Right) const
; 112  : 		{	// test for iterator equality
; 113  : 		return (_Ptr == _Right._Ptr);
; 114  : 		}
; 115  : 
; 116  : 	bool operator!=(const _Myiter& _Right) const
; 117  : 		{	// test for iterator inequality
; 118  : 		return (!(*this == _Right));
; 119  : 		}
; 120  : 
; 121  : 	_Nodeptr _Mynode() const
; 122  : 		{	// return node pointer
; 123  : 		return (_Ptr);
; 124  : 		}
; 125  : 
; 126  : 	_Nodeptr _Ptr;	// pointer to node
; 127  : 	};
; 128  : 
; 129  : 	// TEMPLATE CLASS _Tree_unchecked_iterator
; 130  : template<class _Mytree>
; 131  : 	class _Tree_unchecked_iterator
; 132  : 		: public _Tree_unchecked_const_iterator<_Mytree>
; 133  : 	{	// unchecked iterator for mutable tree
; 134  : public:
; 135  : 	typedef _Tree_unchecked_iterator<_Mytree> _Myiter;
; 136  : 	typedef _Tree_unchecked_const_iterator<_Mytree> _Mybase;
; 137  : 	typedef bidirectional_iterator_tag iterator_category;
; 138  : 
; 139  : 	typedef typename _Mytree::_Nodeptr _Nodeptr;
; 140  : 	typedef typename _Mytree::value_type value_type;
; 141  : 	typedef typename _Mytree::difference_type difference_type;
; 142  : 	typedef typename _Mytree::pointer pointer;
; 143  : 	typedef typename _Mytree::reference reference;
; 144  : 
; 145  : 	_Tree_unchecked_iterator()
; 146  : 		{	// construct with null node
; 147  : 		}
; 148  : 
; 149  : 	_Tree_unchecked_iterator(_Nodeptr _Pnode, const _Mytree *_Plist)
; 150  : 		: _Mybase(_Pnode, _Plist)
; 151  : 		{	// construct with node pointer _Pnode
; 152  : 		}
; 153  : 
; 154  : 	reference operator*() const
; 155  : 		{	// return designated value
; 156  : 		return ((reference)**(_Mybase *)this);
; 157  : 		}
; 158  : 
; 159  : 	pointer operator->() const
; 160  : 		{	// return pointer to class object
; 161  : 		return (_STD pointer_traits<pointer>::pointer_to(**this));
; 162  : 		}
; 163  : 
; 164  : 	_Myiter& operator++()
; 165  : 		{	// preincrement
; 166  : 		++(*(_Mybase *)this);
; 167  : 		return (*this);
; 168  : 		}
; 169  : 
; 170  : 	_Myiter operator++(int)
; 171  : 		{	// postincrement
; 172  : 		_Myiter _Tmp = *this;
; 173  : 		++*this;
; 174  : 		return (_Tmp);
; 175  : 		}
; 176  : 
; 177  : 	_Myiter& operator--()
; 178  : 		{	// predecrement
; 179  : 		--(*(_Mybase *)this);
; 180  : 		return (*this);
; 181  : 		}
; 182  : 
; 183  : 	_Myiter operator--(int)
; 184  : 		{	// postdecrement
; 185  : 		_Myiter _Tmp = *this;
; 186  : 		--*this;
; 187  : 		return (_Tmp);
; 188  : 		}
; 189  : 	};
; 190  : 
; 191  : 	// TEMPLATE CLASS _Tree_const_iterator
; 192  : template<class _Mytree>
; 193  : 	class _Tree_const_iterator
; 194  : 		: public _Tree_unchecked_const_iterator<_Mytree, _Iterator_base>
; 195  : 	{	// iterator for nonmutable tree
; 196  : public:
; 197  : 	typedef _Tree_const_iterator<_Mytree> _Myiter;
; 198  : 	typedef _Tree_unchecked_const_iterator<_Mytree, _Iterator_base> _Mybase;
; 199  : 	typedef bidirectional_iterator_tag iterator_category;
; 200  : 
; 201  : 	typedef typename _Mytree::_Nodeptr _Nodeptr;
; 202  : 	typedef typename _Mytree::value_type value_type;
; 203  : 	typedef typename _Mytree::difference_type difference_type;
; 204  : 	typedef typename _Mytree::const_pointer pointer;
; 205  : 	typedef typename _Mytree::const_reference reference;
; 206  : 
; 207  : 	_Tree_const_iterator()
; 208  : 		: _Mybase()
; 209  : 		{	// construct with null node pointer
; 210  : 		}
; 211  : 
; 212  : 	_Tree_const_iterator(_Nodeptr _Pnode, const _Mytree *_Plist)
; 213  : 		: _Mybase(_Pnode, _Plist)
; 214  : 		{	// construct with node pointer _Pnode
; 215  : 		}
; 216  : 
; 217  : 	typedef _Tree_unchecked_const_iterator<_Mytree> _Unchecked_type;
; 218  : 
; 219  : 	_Myiter& _Rechecked(_Unchecked_type _Right)
; 220  : 		{	// reset from unchecked iterator
; 221  : 		this->_Ptr = _Right._Ptr;
; 222  : 		return (*this);
; 223  : 		}
; 224  : 
; 225  : 	_Unchecked_type _Unchecked() const
; 226  : 		{	// make an unchecked iterator
; 227  : 		return (_Unchecked_type(this->_Ptr, (_Mytree *)this->_Getcont()));
; 228  : 		}
; 229  : 
; 230  : 	reference operator*() const
; 231  : 		{	// return designated value
; 232  :  #if _ITERATOR_DEBUG_LEVEL == 2
; 233  : 		if (this->_Getcont() == 0
; 234  : 			|| this->_Ptr == 0
; 235  : 			|| this->_Ptr == ((_Mytree *)this->_Getcont())->_Myhead)
; 236  : 			{	// report error
; 237  : 			_DEBUG_ERROR("map/set iterator not dereferencable");
; 238  : 			_SCL_SECURE_OUT_OF_RANGE;
; 239  : 			}
; 240  : 
; 241  :  #elif _ITERATOR_DEBUG_LEVEL == 1
; 242  : 		_SCL_SECURE_VALIDATE(this->_Getcont() != 0 && this->_Ptr != 0);
; 243  : 		_SCL_SECURE_VALIDATE_RANGE(this->_Ptr !=
; 244  : 			((_Mytree *)this->_Getcont())->_Myhead);
; 245  :  #endif /* _ITERATOR_DEBUG_LEVEL */
; 246  : 
; 247  : 		return (_Mytree::_Myval(this->_Ptr));
; 248  : 		}
; 249  : 
; 250  : 	pointer operator->() const
; 251  : 		{	// return pointer to class object
; 252  : 		return (_STD pointer_traits<pointer>::pointer_to(**this));
; 253  : 		}
; 254  : 
; 255  : 	_Myiter& operator++()
; 256  : 		{	// preincrement
; 257  :  #if _ITERATOR_DEBUG_LEVEL == 2
; 258  : 		if (this->_Getcont() == 0
; 259  : 			|| this->_Ptr == 0
; 260  : 			|| _Mytree::_Isnil(this->_Ptr))
; 261  : 			{	// report error
; 262  : 			_DEBUG_ERROR("map/set iterator not incrementable");
; 263  : 			_SCL_SECURE_OUT_OF_RANGE;
; 264  : 			}
; 265  : 
; 266  :  #elif _ITERATOR_DEBUG_LEVEL == 1
; 267  : 		_SCL_SECURE_VALIDATE(this->_Getcont() != 0 && this->_Ptr != 0);
; 268  : 		_SCL_SECURE_VALIDATE_RANGE(!_Mytree::_Isnil(this->_Ptr));
; 269  :  #endif /* _ITERATOR_DEBUG_LEVEL */
; 270  : 
; 271  : 		++(*(_Mybase *)this);
; 272  : 		return (*this);
; 273  : 		}
; 274  : 
; 275  : 	_Myiter operator++(int)
; 276  : 		{	// postincrement
; 277  : 		_Myiter _Tmp = *this;
; 278  : 		++*this;
; 279  : 		return (_Tmp);
; 280  : 		}
; 281  : 
; 282  : 	_Myiter& operator--()
; 283  : 		{	// predecrement
; 284  :  #if _ITERATOR_DEBUG_LEVEL == 2
; 285  : 		if (this->_Getcont() == 0
; 286  : 			|| this->_Ptr == 0)
; 287  : 			{	// report error
; 288  : 			_DEBUG_ERROR("map/set iterator not decrementable");
; 289  : 			_SCL_SECURE_OUT_OF_RANGE;
; 290  : 			}
; 291  : 
; 292  : 		_Nodeptr _Ptrsav = this->_Ptr;
; 293  : 		--(*(_Mybase *)this);
; 294  : 		if (_Ptrsav == this->_Ptr)
; 295  : 			{	// report error
; 296  : 			_DEBUG_ERROR("map/set iterator not decrementable");
; 297  : 			_SCL_SECURE_OUT_OF_RANGE;
; 298  : 			}
; 299  : 
; 300  :  #elif _ITERATOR_DEBUG_LEVEL == 1
; 301  : 		_SCL_SECURE_VALIDATE(this->_Getcont() != 0 && this->_Ptr != 0);
; 302  : 
; 303  : 		_Nodeptr _Ptrsav = this->_Ptr;
; 304  : 		--(*(_Mybase *)this);
; 305  : 		_SCL_SECURE_VALIDATE(_Ptrsav != this->_Ptr);
; 306  : 
; 307  :  #else /* _ITERATOR_DEBUG_LEVEL == 0 */
; 308  : 		--(*(_Mybase *)this);
; 309  :  #endif /* _ITERATOR_DEBUG_LEVEL */
; 310  : 
; 311  : 		return (*this);
; 312  : 		}
; 313  : 
; 314  : 	_Myiter operator--(int)
; 315  : 		{	// postdecrement
; 316  : 		_Myiter _Tmp = *this;
; 317  : 		--*this;
; 318  : 		return (_Tmp);
; 319  : 		}
; 320  : 
; 321  : 	bool operator==(const _Myiter& _Right) const
; 322  : 		{	// test for iterator equality
; 323  :  #if _ITERATOR_DEBUG_LEVEL == 2
; 324  : 		if (this->_Getcont() == 0
; 325  : 			|| this->_Getcont() != _Right._Getcont())
; 326  : 			{	// report error
; 327  : 			_DEBUG_ERROR("map/set iterators incompatible");
; 328  : 			_SCL_SECURE_INVALID_ARGUMENT;
; 329  : 			}
; 330  : 
; 331  :  #elif _ITERATOR_DEBUG_LEVEL == 1
; 332  : 		_SCL_SECURE_VALIDATE(this->_Getcont() != 0
; 333  : 			&& this->_Getcont() == _Right._Getcont());
; 334  :  #endif /* _ITERATOR_DEBUG_LEVEL */
; 335  : 
; 336  : 		return (this->_Ptr == _Right._Ptr);
; 337  : 		}
; 338  : 
; 339  : 	bool operator!=(const _Myiter& _Right) const
; 340  : 		{	// test for iterator inequality
; 341  : 		return (!(*this == _Right));
; 342  : 		}
; 343  : 	};
; 344  : 
; 345  : template<class _Mytree> inline
; 346  : 	typename _Tree_const_iterator<_Mytree>::_Unchecked_type
; 347  : 		_Unchecked(_Tree_const_iterator<_Mytree> _Iter)
; 348  : 	{	// convert to unchecked
; 349  : 	return (_Iter._Unchecked());
; 350  : 	}
; 351  : 
; 352  : template<class _Mytree> inline
; 353  : 	_Tree_const_iterator<_Mytree>&
; 354  : 		_Rechecked(_Tree_const_iterator<_Mytree>& _Iter,
; 355  : 			typename _Tree_const_iterator<_Mytree>
; 356  : 				::_Unchecked_type _Right)
; 357  : 	{	// convert to checked
; 358  : 	return (_Iter._Rechecked(_Right));
; 359  : 	}
; 360  : 
; 361  : 	// TEMPLATE CLASS _Tree_iterator
; 362  : template<class _Mytree>
; 363  : 	class _Tree_iterator
; 364  : 		: public _Tree_const_iterator<_Mytree>
; 365  : 	{	// iterator for mutable tree
; 366  : public:
; 367  : 	typedef _Tree_iterator<_Mytree> _Myiter;
; 368  : 	typedef _Tree_const_iterator<_Mytree> _Mybase;
; 369  : 	typedef bidirectional_iterator_tag iterator_category;
; 370  : 
; 371  : 	typedef typename _Mytree::_Nodeptr _Nodeptr;
; 372  : 	typedef typename _Mytree::value_type value_type;
; 373  : 	typedef typename _Mytree::difference_type difference_type;
; 374  : 
; 375  : 	typedef typename _Mytree::pointer pointer;
; 376  : 	typedef typename _Mytree::reference reference;
; 377  : 
; 378  : 	_Tree_iterator()
; 379  : 		{	// construct with null node
; 380  : 		}
; 381  : 
; 382  : 	_Tree_iterator(_Nodeptr _Pnode, const _Mytree *_Plist)
; 383  : 		: _Mybase(_Pnode, _Plist)
; 384  : 		{	// construct with node pointer _Pnode
; 385  : 		}
; 386  : 
; 387  : 	typedef _Tree_unchecked_iterator<_Mytree> _Unchecked_type;
; 388  : 
; 389  : 	_Myiter& _Rechecked(_Unchecked_type _Right)
; 390  : 		{	// reset from unchecked iterator
; 391  : 		this->_Ptr = _Right._Ptr;
; 392  : 		return (*this);
; 393  : 		}
; 394  : 
; 395  : 	_Unchecked_type _Unchecked() const
; 396  : 		{	// make an unchecked iterator
; 397  : 		return (_Unchecked_type(this->_Ptr, (_Mytree *)this->_Getcont()));
; 398  : 		}
; 399  : 
; 400  : 	reference operator*() const
; 401  : 		{	// return designated value
; 402  : 		return ((reference)**(_Mybase *)this);
; 403  : 		}
; 404  : 
; 405  : 	pointer operator->() const
; 406  : 		{	// return pointer to class object
; 407  : 		return (_STD pointer_traits<pointer>::pointer_to(**this));
; 408  : 		}
; 409  : 
; 410  : 	_Myiter& operator++()
; 411  : 		{	// preincrement
; 412  : 		++(*(_Mybase *)this);
; 413  : 		return (*this);
; 414  : 		}
; 415  : 
; 416  : 	_Myiter operator++(int)
; 417  : 		{	// postincrement
; 418  : 		_Myiter _Tmp = *this;
; 419  : 		++*this;
; 420  : 		return (_Tmp);
; 421  : 		}
; 422  : 
; 423  : 	_Myiter& operator--()
; 424  : 		{	// predecrement
; 425  : 		--(*(_Mybase *)this);
; 426  : 		return (*this);
; 427  : 		}
; 428  : 
; 429  : 	_Myiter operator--(int)
; 430  : 		{	// postdecrement
; 431  : 		_Myiter _Tmp = *this;
; 432  : 		--*this;
; 433  : 		return (_Tmp);
; 434  : 		}
; 435  : 	};
; 436  : 
; 437  : template<class _Mytree> inline
; 438  : 	typename _Tree_iterator<_Mytree>::_Unchecked_type
; 439  : 		_Unchecked(_Tree_iterator<_Mytree> _Iter)
; 440  : 	{	// convert to unchecked
; 441  : 	return (_Iter._Unchecked());
; 442  : 	}
; 443  : 
; 444  : template<class _Mytree> inline
; 445  : 	_Tree_iterator<_Mytree>&
; 446  : 		_Rechecked(_Tree_iterator<_Mytree>& _Iter,
; 447  : 			typename _Tree_iterator<_Mytree>
; 448  : 				::_Unchecked_type _Right)
; 449  : 	{	// convert to checked
; 450  : 	return (_Iter._Rechecked(_Right));
; 451  : 	}
; 452  : 
; 453  : 		// tree TYPE WRAPPERS
; 454  : template<class _Value_type,
; 455  : 	class _Size_type,
; 456  : 	class _Difference_type,
; 457  : 	class _Pointer,
; 458  : 	class _Const_pointer,
; 459  : 	class _Reference,
; 460  : 	class _Const_reference,
; 461  : 	class _Nodeptr_type>
; 462  : 	struct _Tree_iter_types
; 463  : 	{	// wraps types needed by iterators
; 464  : 	typedef _Value_type value_type;
; 465  : 	typedef _Size_type size_type;
; 466  : 	typedef _Difference_type difference_type;
; 467  : 	typedef _Pointer pointer;
; 468  : 	typedef _Const_pointer const_pointer;
; 469  : 	typedef _Reference reference;
; 470  : 	typedef _Const_reference const_reference;
; 471  : 	typedef _Nodeptr_type _Nodeptr;
; 472  : 	};
; 473  : 
; 474  : template<class _Value_type,
; 475  : 	class _Voidptr>
; 476  : 	struct _Tree_node
; 477  : 		{	// tree node
; 478  : 		_Voidptr _Left;	// left subtree, or smallest element if head
; 479  : 		_Voidptr _Parent;	// parent, or root of tree if head
; 480  : 		_Voidptr _Right;	// right subtree, or largest element if head
; 481  : 		char _Color;	// _Red or _Black, _Black if head
; 482  : 		char _Isnil;	// true only if head (also nil) node
; 483  : 		_Value_type _Myval;	// the stored value, unused if head
; 484  : 
; 485  : 	private:
; 486  : 		_Tree_node& operator=(const _Tree_node&);
; 487  : 		};
; 488  : 
; 489  : template<class _Value_type>
; 490  : 	struct _Tree_node<_Value_type, void *>
; 491  : 		{	// tree node
; 492  : 		typedef _Tree_node<_Value_type, void *> *_Nodeptr;
; 493  : 		_Nodeptr _Left;	// left subtree, or smallest element if head
; 494  : 		_Nodeptr _Parent;	// parent, or root of tree if head
; 495  : 		_Nodeptr _Right;	// right subtree, or largest element if head
; 496  : 		char _Color;	// _Red or _Black, _Black if head
; 497  : 		char _Isnil;	// true only if head (also nil) node
; 498  : 		_Value_type _Myval;	// the stored value, unused if head
; 499  : 
; 500  : 	private:
; 501  : 		_Tree_node& operator=(const _Tree_node&);
; 502  : 		};
; 503  : 
; 504  : template<class _Ty>
; 505  : 	struct _Tree_simple_types
; 506  : 		: public _Simple_types<_Ty>
; 507  : 	{	// wraps types needed by iterators
; 508  : 	typedef _Tree_node<_Ty, void *> _Node;
; 509  : 	typedef _Node *_Nodeptr;
; 510  : 	};
; 511  : 
; 512  : template<class _Ty,
; 513  : 	class _Alloc0>
; 514  : 	struct _Tree_base_types
; 515  : 	{	// types needed for a container base
; 516  : 	typedef _Alloc0 _Alloc;
; 517  : 	typedef _Tree_base_types<_Ty, _Alloc> _Myt;
; 518  : 
; 519  : 	typedef _Wrap_alloc<_Alloc> _Alty0;
; 520  : 	typedef typename _Alty0::template rebind<_Ty>::other _Alty;
; 521  : 
; 522  : 
; 523  : 	typedef typename _Get_voidptr<_Alty, typename _Alty::pointer>::type
; 524  : 		_Voidptr;
; 525  : 	typedef _Tree_node<typename _Alty::value_type,
; 526  : 		_Voidptr> _Node;
; 527  : 
; 528  : 	typedef typename _Alty::template rebind<_Node>::other _Alnod_type;
; 529  : 	typedef typename _Alnod_type::pointer _Nodeptr;
; 530  : 	typedef _Nodeptr& _Nodepref;
; 531  : 
; 532  : 	typedef typename _If<_Is_simple_alloc<_Alty>::value,
; 533  : 		_Tree_simple_types<typename _Alty::value_type>,
; 534  : 		_Tree_iter_types<typename _Alty::value_type,
; 535  : 			typename _Alty::size_type,
; 536  : 			typename _Alty::difference_type,
; 537  : 			typename _Alty::pointer,
; 538  : 			typename _Alty::const_pointer,
; 539  : 			typename _Alty::reference,
; 540  : 			typename _Alty::const_reference,
; 541  : 			_Nodeptr> >::type
; 542  : 		_Val_types;
; 543  : 	};
; 544  : 
; 545  : 		// TEMPLATE CLASS _Tree_val
; 546  : template<class _Val_types>
; 547  : 	class _Tree_val
; 548  : 		: public _Container_base
; 549  : 	{	// base class for tree to hold data
; 550  : public:
; 551  : 	typedef _Tree_val<_Val_types> _Myt;
; 552  : 
; 553  : 	typedef typename _Val_types::_Nodeptr _Nodeptr;
; 554  : 	typedef _Nodeptr& _Nodepref;
; 555  : 
; 556  : 	typedef typename _Val_types::value_type value_type;
; 557  : 	typedef typename _Val_types::size_type size_type;
; 558  : 	typedef typename _Val_types::difference_type difference_type;
; 559  : 	typedef typename _Val_types::pointer pointer;
; 560  : 	typedef typename _Val_types::const_pointer const_pointer;
; 561  : 	typedef typename _Val_types::reference reference;
; 562  : 	typedef typename _Val_types::const_reference const_reference;
; 563  : 
; 564  : 	typedef _Tree_const_iterator<_Myt> const_iterator;
; 565  : 	typedef _Tree_iterator<_Myt> iterator;
; 566  : 
; 567  : 	_Tree_val()
; 568  : 		{	// initialize data
; 569  : 		this->_Myhead = 0;
; 570  : 		this->_Mysize = 0;
; 571  : 		}
; 572  : 
; 573  : 	enum _Redbl
; 574  : 		{	// colors for link to parent
; 575  : 		_Red, _Black};
; 576  : 
; 577  : 	static char& _Color(_Nodeptr _Pnode)
; 578  : 		{	// return reference to color in node
; 579  : 		return ((char&)_Pnode->_Color);
; 580  : 		}
; 581  : 
; 582  : 	static char& _Isnil(_Nodeptr _Pnode)
; 583  : 		{	// return reference to nil flag in node
; 584  : 		return ((char&)_Pnode->_Isnil);
; 585  : 		}
; 586  : 
; 587  : 	static _Nodepref _Left(_Nodeptr _Pnode)
; 588  : 		{	// return reference to left pointer in node
; 589  : 		return ((_Nodepref)_Pnode->_Left);
; 590  : 		}
; 591  : 
; 592  : 	static _Nodepref _Parent(_Nodeptr _Pnode)
; 593  : 		{	// return reference to parent pointer in node
; 594  : 		return ((_Nodepref)_Pnode->_Parent);
; 595  : 		}
; 596  : 
; 597  : 	static _Nodepref _Right(_Nodeptr _Pnode)
; 598  : 		{	// return reference to right pointer in node
; 599  : 		return ((_Nodepref)_Pnode->_Right);
; 600  : 		}
; 601  : 
; 602  : 	static reference _Myval(_Nodeptr _Pnode)
; 603  : 		{	// return reference to value in node
; 604  : 		return ((reference)_Pnode->_Myval);
; 605  : 		}
; 606  : 
; 607  : 	static _Nodeptr _Max(_Nodeptr _Pnode)
; 608  : 		{	// return rightmost node in subtree at _Pnode
; 609  : 		while (!_Isnil(_Right(_Pnode)))
; 610  : 			_Pnode = _Right(_Pnode);
; 611  : 		return (_Pnode);
; 612  : 		}
; 613  : 
; 614  : 	static _Nodeptr _Min(_Nodeptr _Pnode)
; 615  : 		{	// return leftmost node in subtree at _Pnode
; 616  : 		while (!_Isnil(_Left(_Pnode)))
; 617  : 			_Pnode = _Left(_Pnode);
; 618  : 		return (_Pnode);
; 619  : 		}
; 620  : 
; 621  : 	_Nodeptr _Myhead;	// pointer to head node
; 622  : 	size_type _Mysize;	// number of elements
; 623  : 	};
; 624  : 
; 625  : 		// TEMPLATE CLASS _Tree_alloc
; 626  : template<bool _Al_has_storage,
; 627  : 	class _Alloc_types>
; 628  : 	class _Tree_alloc
; 629  : 		: public _Tree_val<typename _Alloc_types::_Val_types>
; 630  : 	{	// base class for tree to hold allocator with storage
; 631  : public:
; 632  : 	typename _Alloc_types::_Alnod_type _Alnod;	// allocator object
; 633  : 
; 634  : 	typedef _Tree_alloc<_Al_has_storage, _Alloc_types> _Myt;
; 635  : 	typedef typename _Alloc_types::_Alloc _Alloc;
; 636  : 	typedef typename _Alloc_types::_Alnod_type _Alty;
; 637  : 	typedef typename _Alloc_types::_Node _Node;
; 638  : 	typedef typename _Alloc_types::_Nodeptr _Nodeptr;
; 639  : 
; 640  :  #if _ITERATOR_DEBUG_LEVEL == 0
; 641  : 	_Tree_alloc(const _Alloc& _Al = _Alloc())
; 642  : 		: _Alnod(_Al)
; 643  : 		{	// construct head node, allocator from _Al
; 644  : 		this->_Myhead = _Buyheadnode();
; 645  : 		}
; 646  : 
; 647  : 	~_Tree_alloc() _NOEXCEPT
; 648  : 		{	// destroy head node
; 649  : 		_Freeheadnode(this->_Myhead);
; 650  : 		}
; 651  : 
; 652  : 	void _Change_alloc(const _Alty& _Al)
; 653  : 		{	// replace old allocator
; 654  : 		this->_Alnod = _Al;
; 655  : 		}
; 656  : 
; 657  : 	void _Swap_alloc(_Myt& _Right)
; 658  : 		{	// swap allocators
; 659  : 		_Swap_adl(this->_Alnod, _Right._Alnod);
; 660  : 		}
; 661  : 
; 662  :  #else /* _ITERATOR_DEBUG_LEVEL == 0 */
; 663  : 	_Tree_alloc(const _Alloc& _Al = _Alloc())
; 664  : 		: _Alnod(_Al)
; 665  : 		{	// construct allocators from _Al
; 666  : 		this->_Myhead = _Buyheadnode();
; 667  : 		_TRY_BEGIN
; 668  : 		_Alloc_proxy();
; 669  : 		_CATCH_ALL
; 670  : 		_Freeheadnode(this->_Myhead);
; 671  : 		_RERAISE;
; 672  : 		_CATCH_END
; 673  : 		}
; 674  : 
; 675  : 	~_Tree_alloc() _NOEXCEPT
; 676  : 		{	// destroy proxy
; 677  : 		_Freeheadnode(this->_Myhead);
; 678  : 		_Free_proxy();
; 679  : 		}
; 680  : 
; 681  : 	void _Change_alloc(const _Alty& _Al)
; 682  : 		{	// replace old allocator
; 683  : 		_Free_proxy();
; 684  : 		this->_Alnod = _Al;
; 685  : 		_Alloc_proxy();
; 686  : 		}
; 687  : 
; 688  : 	void _Swap_alloc(_Myt& _Right)
; 689  : 		{	// swap allocators
; 690  : 		_Swap_adl(this->_Alnod, _Right._Alnod);
; 691  : 		_Swap_adl(this->_Myproxy, _Right._Myproxy);
; 692  : 		}
; 693  : 
; 694  : 	void _Alloc_proxy()
; 695  : 		{	// construct proxy from _Alnod
; 696  : 		typename _Alty::template rebind<_Container_proxy>::other
; 697  : 			_Alproxy(this->_Alnod);
; 698  : 		this->_Myproxy = _Alproxy.allocate(1);
; 699  : 		_Alproxy.construct(this->_Myproxy, _Container_proxy());
; 700  : 		this->_Myproxy->_Mycont = this;
; 701  : 		}
; 702  : 
; 703  : 	void _Free_proxy()
; 704  : 		{	// destroy proxy
; 705  : 		typename _Alty::template rebind<_Container_proxy>::other
; 706  : 			_Alproxy(this->_Alnod);
; 707  : 		this->_Orphan_all();
; 708  : 		_Alproxy.destroy(this->_Myproxy);
; 709  : 		_Alproxy.deallocate(this->_Myproxy, 1);
; 710  : 		this->_Myproxy = 0;
; 711  : 		}
; 712  :  #endif /* _ITERATOR_DEBUG_LEVEL == 0 */
; 713  : 
; 714  : 	_Nodeptr _Buyheadnode()
; 715  : 		{	// get head node using current allocator
; 716  : 		_Nodeptr _Pnode = this->_Alnod.allocate(1);
; 717  : 
; 718  : 		_TRY_BEGIN
; 719  : 		this->_Alnod.construct(
; 720  : 			_STD addressof(this->_Left(_Pnode)), _Pnode);
; 721  : 		this->_Alnod.construct(
; 722  : 			_STD addressof(this->_Parent(_Pnode)), _Pnode);
; 723  : 		this->_Alnod.construct(
; 724  : 			_STD addressof(this->_Right(_Pnode)), _Pnode);
; 725  : 		_CATCH_ALL
; 726  : 		this->_Alnod.deallocate(_Pnode, 1);
; 727  : 		_RERAISE;
; 728  : 		_CATCH_END
; 729  : 
; 730  : 		this->_Color(_Pnode) = this->_Black;
; 731  : 		this->_Isnil(_Pnode) = true;
; 732  : 		return (_Pnode);
; 733  : 		}
; 734  : 
; 735  : 	void _Freeheadnode(_Nodeptr _Pnode)
; 736  : 		{	// free head node using current allocator
; 737  : 		this->_Alnod.destroy(
; 738  : 			_STD addressof(this->_Left(_Pnode)));
; 739  : 		this->_Alnod.destroy(
; 740  : 			_STD addressof(this->_Parent(_Pnode)));
; 741  : 		this->_Alnod.destroy(
; 742  : 			_STD addressof(this->_Right(_Pnode)));
; 743  : 		this->_Alnod.deallocate(_Pnode, 1);
; 744  : 		}
; 745  : 
; 746  : 	_Alty& _Getal()
; 747  : 		{	// get reference to allocator
; 748  : 		return (this->_Alnod);
; 749  : 		}
; 750  : 
; 751  : 	const _Alty& _Getal() const
; 752  : 		{	// get reference to allocator
; 753  : 		return (this->_Alnod);
; 754  : 		}
; 755  : 	};
; 756  : 
; 757  : 		// TEMPLATE CLASS _Tree_alloc
; 758  : template<class _Alloc_types>
; 759  : 	class _Tree_alloc<false, _Alloc_types>
; 760  : 		: public _Tree_val<typename _Alloc_types::_Val_types>
; 761  : 	{	// base class for tree to hold allocator with no storage
; 762  : public:
; 763  : 	typedef _Tree_alloc<false, _Alloc_types> _Myt;
; 764  : 	typedef _Tree_val<typename _Alloc_types::_Val_types> _Mybase;
; 765  : 	typedef typename _Alloc_types::_Alloc _Alloc;
; 766  : 	typedef typename _Alloc_types::_Alnod_type _Alty;
; 767  : 	typedef typename _Alloc_types::_Node _Node;
; 768  : 	typedef typename _Alloc_types::_Nodeptr _Nodeptr;
; 769  : 
; 770  :  #if _ITERATOR_DEBUG_LEVEL == 0
; 771  : 	_Tree_alloc(const _Alloc& = _Alloc())
; 772  : 		{	// construct head node, allocator from _Al
; 773  : 		this->_Myhead = _Buyheadnode();
; 774  : 		}
; 775  : 
; 776  : 	~_Tree_alloc() _NOEXCEPT
; 777  : 		{	// destroy head node
; 778  : 		_Freeheadnode(this->_Myhead);
; 779  : 		}
; 780  : 
; 781  : 	void _Change_alloc(const _Alty&)
; 782  : 		{	// replace old allocator
; 783  : 		}
; 784  : 
; 785  : 	void _Swap_alloc(_Myt&)
; 786  : 		{	// swap allocators
; 787  : 		}
; 788  : 
; 789  :  #else /* _ITERATOR_DEBUG_LEVEL == 0 */
; 790  : 	_Tree_alloc(const _Alloc& = _Alloc())
; 791  : 		{	// construct allocators from _Al
; 792  : 		this->_Myhead = _Buyheadnode();
; 793  : 		_TRY_BEGIN
; 794  : 		_Alloc_proxy();
; 795  : 		_CATCH_ALL
; 796  : 		_Freeheadnode(this->_Myhead);
; 797  : 		_RERAISE;
; 798  : 		_CATCH_END
; 799  : 		}
; 800  : 
; 801  : 	~_Tree_alloc() _NOEXCEPT
; 802  : 		{	// destroy proxy
; 803  : 		_Freeheadnode(this->_Myhead);
; 804  : 		_Free_proxy();
; 805  : 		}
; 806  : 
; 807  : 	void _Change_alloc(const _Alty&)
; 808  : 		{	// replace old allocator
; 809  : 		}
; 810  : 
; 811  : 	void _Swap_alloc(_Myt&)
; 812  : 		{	// swap allocators
; 813  : 		}
; 814  : 
; 815  : 	void _Alloc_proxy()
; 816  : 		{	// construct proxy from _Alnod
; 817  : 		typename _Alty::template rebind<_Container_proxy>::other
; 818  : 			_Alproxy(_Getal());
; 819  : 		this->_Myproxy = _Alproxy.allocate(1);
; 820  : 		_Alproxy.construct(this->_Myproxy, _Container_proxy());
; 821  : 		this->_Myproxy->_Mycont = this;
; 822  : 		}
; 823  : 
; 824  : 	void _Free_proxy()
; 825  : 		{	// destroy proxy
; 826  : 		typename _Alty::template rebind<_Container_proxy>::other
; 827  : 			_Alproxy(_Getal());
; 828  : 		this->_Orphan_all();
; 829  : 		_Alproxy.destroy(this->_Myproxy);
; 830  : 		_Alproxy.deallocate(this->_Myproxy, 1);
; 831  : 		this->_Myproxy = 0;
; 832  : 		}
; 833  :  #endif /* _ITERATOR_DEBUG_LEVEL == 0 */
; 834  : 
; 835  : 	_Nodeptr _Buyheadnode()
; 836  : 		{	// get head node using current allocator
; 837  : 		_Nodeptr _Pnode = this->_Getal().allocate(1);
; 838  : 
; 839  : 		_TRY_BEGIN
; 840  : 		this->_Getal().construct(
; 841  : 			_STD addressof(this->_Left(_Pnode)), _Pnode);
; 842  : 		this->_Getal().construct(
; 843  : 			_STD addressof(this->_Parent(_Pnode)), _Pnode);
; 844  : 		this->_Getal().construct(
; 845  : 			_STD addressof(this->_Right(_Pnode)), _Pnode);
; 846  : 		_CATCH_ALL
; 847  : 		this->_Getal().deallocate(_Pnode, 1);
; 848  : 		_RERAISE;
; 849  : 		_CATCH_END
; 850  : 
; 851  : 		this->_Color(_Pnode) = this->_Black;
; 852  : 		this->_Isnil(_Pnode) = true;
; 853  : 		return (_Pnode);
; 854  : 		}
; 855  : 
; 856  : 	void _Freeheadnode(_Nodeptr _Pnode)
; 857  : 		{	// free head node using current allocator
; 858  : 		this->_Getal().destroy(
; 859  : 			_STD addressof(this->_Left(_Pnode)));
; 860  : 		this->_Getal().destroy(
; 861  : 			_STD addressof(this->_Parent(_Pnode)));
; 862  : 		this->_Getal().destroy(
; 863  : 			_STD addressof(this->_Right(_Pnode)));
; 864  : 		this->_Getal().deallocate(_Pnode, 1);
; 865  : 		}
; 866  : 
; 867  : 	_Alty _Getal() const
; 868  : 		{	// get allocator
; 869  : 		return (_Alty());
; 870  : 		}
; 871  : 	};
; 872  : 
; 873  : 		// TEMPLATE CLASS _Tree_buy
; 874  : template<class _Ty,
; 875  : 	class _Alloc>
; 876  : 	class _Tree_buy
; 877  : 		: public _Tree_alloc<!is_empty<_Alloc>::value,
; 878  : 			_Tree_base_types<_Ty, _Alloc> >
; 879  : 	{	// base class for tree to hold buynode/freenode functions
; 880  : public:
; 881  : 	typedef _Tree_alloc<!is_empty<_Alloc>::value,
; 882  : 		_Tree_base_types<_Ty, _Alloc> > _Mybase;
; 883  : 	typedef typename _Mybase::_Alty _Alty;
; 884  : 	typedef typename _Mybase::_Nodeptr _Nodeptr;
; 885  : 	typedef typename _Mybase::value_type value_type;
; 886  : 
; 887  : 	_Tree_buy(const _Alloc& _Al = _Alloc())
; 888  : 		: _Mybase(_Al)
; 889  : 		{	// construct from allocator
; 890  : 		}
; 891  : 
; 892  : 	_Nodeptr _Buynode0()
; 893  : 		{	// allocate a non-value node
; 894  : 		_Nodeptr _Pnode = this->_Getal().allocate(1);
; 895  : 
; 896  : 		_TRY_BEGIN
; 897  : 		this->_Getal().construct(
; 898  : 			_STD addressof(this->_Left(_Pnode)), this->_Myhead);
; 899  : 		this->_Getal().construct(
; 900  : 			_STD addressof(this->_Parent(_Pnode)), this->_Myhead);
; 901  : 		this->_Getal().construct(
; 902  : 			_STD addressof(this->_Right(_Pnode)), this->_Myhead);
; 903  : 		_CATCH_ALL
; 904  : 		this->_Getal().deallocate(_Pnode, 1);
; 905  : 		_RERAISE;
; 906  : 		_CATCH_END
; 907  : 
; 908  : 		return (_Pnode);
; 909  : 		}
; 910  : 
; 911  : 	void _Freenode0(_Nodeptr _Pnode)
; 912  : 		{	// free non-value node using current allocator
; 913  : 		this->_Getal().destroy(
; 914  : 			_STD addressof(this->_Left(_Pnode)));
; 915  : 		this->_Getal().destroy(
; 916  : 			_STD addressof(this->_Parent(_Pnode)));
; 917  : 		this->_Getal().destroy(
; 918  : 			_STD addressof(this->_Right(_Pnode)));
; 919  : 		this->_Getal().deallocate(_Pnode, 1);
; 920  : 		}
; 921  : 
; 922  : 	template<class... _Valty>
; 923  : 		_Nodeptr _Buynode(_Valty&&... _Val)
; 924  : 		{	// allocate a node with defaults and set links and value
; 925  : 		_Nodeptr _Pnode = _Buynode0();
; 926  : 
; 927  : 		this->_Color(_Pnode) = this->_Red;
; 928  : 		this->_Isnil(_Pnode) = false;
; 929  : 
; 930  : 		_TRY_BEGIN
; 931  : 		this->_Getal().construct(
; 932  : 			_STD addressof(this->_Myval(_Pnode)),
; 933  : 				_STD forward<_Valty>(_Val)...);
; 934  : 		_CATCH_ALL
; 935  : 		_Freenode0(_Pnode);
; 936  : 		_RERAISE;
; 937  : 		_CATCH_END
; 938  : 
; 939  : 		return (_Pnode);
; 940  : 		}
; 941  : 
; 942  : 	};
; 943  : 
; 944  : 		// TEMPLATE CLASS _Tree_comp
; 945  : template<bool _Pr_has_storage,
; 946  : 	class _Traits>
; 947  : 	class _Tree_comp
; 948  : 		: public _Tree_buy<typename _Traits::value_type,
; 949  : 			typename _Traits::allocator_type>
; 950  : 	{	// base class for _Tree to hold ordering predicate with storage
; 951  : public:
; 952  : 	typedef _Tree_comp<_Pr_has_storage, _Traits> _Myt;
; 953  : 	typedef _Tree_buy<typename _Traits::value_type,
; 954  : 		typename _Traits::allocator_type> _Mybase;
; 955  : 
; 956  : 	typedef typename _Traits::allocator_type allocator_type;
; 957  : 	typedef typename _Traits::key_compare key_compare;
; 958  : 
; 959  : 	_Tree_comp(const key_compare& _Parg, const allocator_type& _Al)
; 960  : 		: _Mybase(_Al), comp(_Parg)
; 961  : 		{	// construct ordering predicate
; 962  : 		}
; 963  : 
; 964  : 	key_compare& _Getcomp()
; 965  : 		{	// get reference to ordering predicate
; 966  : 		return (comp);
; 967  : 		}
; 968  : 
; 969  : 	const key_compare& _Getcomp() const
; 970  : 		{	// get reference to ordering predicate
; 971  : 		return (comp);
; 972  : 		}
; 973  : 
; 974  : 	void _Setcomp(const key_compare& _Right)
; 975  : 		{	// copy ordering predicate
; 976  : 		comp = _Right;
; 977  : 		}
; 978  : 
; 979  : 	void _Swapcomp(key_compare& _Right)
; 980  : 		{	// swap ordering predicate
; 981  : 		_Swap_adl(comp, _Right);
; 982  : 		}
; 983  : 
; 984  : 	key_compare comp;
; 985  : 	};
; 986  : 
; 987  : template<class _Traits>
; 988  : 	class _Tree_comp<false, _Traits>
; 989  : 		: public _Tree_buy<typename _Traits::value_type,
; 990  : 			typename _Traits::allocator_type>
; 991  : 	{	// base class for _Tree to hold ordering predicate with no storage
; 992  : public:
; 993  : 	typedef _Tree_comp<false, _Traits> _Myt;
; 994  : 	typedef _Tree_buy<typename _Traits::value_type,
; 995  : 		typename _Traits::allocator_type> _Mybase;
; 996  : 
; 997  : 	typedef typename _Traits::allocator_type allocator_type;
; 998  : 	typedef typename _Traits::key_compare key_compare;
; 999  : 
; 1000 : 	_Tree_comp(const key_compare&, const allocator_type& _Al)
; 1001 : 		: _Mybase(_Al)
; 1002 : 		{	// construct ordering predicate
; 1003 : 		}
; 1004 : 
; 1005 : 	key_compare _Getcomp() const
; 1006 : 		{	// get ordering predicate
; 1007 : 		return (key_compare());
; 1008 : 		}
; 1009 : 
; 1010 : 	void _Setcomp(const key_compare&)
; 1011 : 		{	// copy ordering predicate
; 1012 : 		}
; 1013 : 
; 1014 : 	void _Swapcomp(const key_compare&)
; 1015 : 		{	// swap ordering predicate
; 1016 : 		}
; 1017 : 	};
; 1018 : 
; 1019 : 		// TEMPLATE CLASS _Tree
; 1020 : template<class _Traits>
; 1021 : 	class _Tree
; 1022 : 		: public _Tree_comp<
; 1023 : 			!is_empty<typename _Traits::key_compare>::value, _Traits>
; 1024 : 	{	// ordered red-black tree for [multi_]{map set}
; 1025 : public:
; 1026 : 	typedef _Tree<_Traits> _Myt;
; 1027 : 	typedef _Tree_comp<
; 1028 : 		!is_empty<typename _Traits::key_compare>::value, _Traits> _Mybase;
; 1029 : 
; 1030 : 	typedef typename _Traits::key_type key_type;
; 1031 : 	typedef typename _Traits::value_compare value_compare;
; 1032 : 	enum
; 1033 : 		{	// get multi parameter
; 1034 : 		_Multi = _Traits::_Multi};
; 1035 : 
; 1036 : 	typedef typename _Mybase::_Node _Node;
; 1037 : 	typedef typename _Mybase::_Nodeptr _Nodeptr;
; 1038 : 	typedef typename _Mybase::_Alty _Alty;
; 1039 : 
; 1040 : 	typedef typename _Mybase::key_compare key_compare;
; 1041 : 	typedef typename _Mybase::allocator_type allocator_type;
; 1042 : 
; 1043 : 	typedef typename _Mybase::value_type value_type;
; 1044 : 	typedef typename _Mybase::size_type size_type;
; 1045 : 	typedef typename _Mybase::difference_type difference_type;
; 1046 : 	typedef typename _Mybase::pointer pointer;
; 1047 : 	typedef typename _Mybase::const_pointer const_pointer;
; 1048 : 	typedef typename _Mybase::reference reference;
; 1049 : 	typedef typename _Mybase::const_reference const_reference;
; 1050 : 
; 1051 : 	typedef typename _Mybase::const_iterator const_iterator;
; 1052 : 	typedef typename _If<is_same<key_type, value_type>::value,
; 1053 : 		typename _Mybase::const_iterator,
; 1054 : 		typename _Mybase::iterator>::type iterator;
; 1055 : 
; 1056 : 	typedef _STD reverse_iterator<iterator> reverse_iterator;
; 1057 : 	typedef _STD reverse_iterator<const_iterator> const_reverse_iterator;
; 1058 : 
; 1059 : 	typedef pair<iterator, bool> _Pairib;
; 1060 : 	typedef pair<iterator, iterator> _Pairii;
; 1061 : 	typedef pair<const_iterator, const_iterator> _Paircc;
; 1062 : 
; 1063 : 	_Tree(const key_compare& _Parg,
; 1064 : 		const allocator_type& _Al)
; 1065 : 		: _Mybase(_Parg, _Al)
; 1066 : 		{	// construct empty tree
; 1067 : 		}
; 1068 : 
; 1069 : 	_Tree(const value_type *_First, const value_type *_Last,
; 1070 : 		const key_compare& _Parg, const allocator_type& _Al)
; 1071 : 		: _Mybase(_Parg, _Al)
; 1072 : 		{	// construct tree from [_First, _Last) array
; 1073 : 		_TRY_BEGIN
; 1074 : 		insert(_First, _Last);
; 1075 : 		_CATCH_ALL
; 1076 : 		_Tidy();
; 1077 : 		_RERAISE;
; 1078 : 		_CATCH_END
; 1079 : 		}
; 1080 : 
; 1081 : 	_Tree(const _Myt& _Right, const allocator_type& _Al)
; 1082 : 		: _Mybase(_Right.key_comp(), _Al)
; 1083 : 		{	// construct tree by copying _Right, allocator
; 1084 : 		_TRY_BEGIN
; 1085 : 		_Copy(_Right, false_type());
; 1086 : 		_CATCH_ALL
; 1087 : 		_Tidy();
; 1088 : 		_RERAISE;
; 1089 : 		_CATCH_END
; 1090 : 		}
; 1091 : 
; 1092 : 	_Tree(_Myt&& _Right)
; 1093 : 		: _Mybase(_Right.key_comp(), _Right._Getal())
; 1094 : 		{	// construct tree by moving _Right
; 1095 : 		_Assign_rv(_STD forward<_Myt>(_Right), true_type());
; 1096 : 		}
; 1097 : 
; 1098 : 	_Tree(_Myt&& _Right, const allocator_type& _Al)
; 1099 : 		: _Mybase(_Right.key_comp(), _Al)
; 1100 : 		{	// construct tree by moving _Right, allocator
; 1101 : 		_Assign_rv(_STD forward<_Myt>(_Right));
; 1102 : 		}
; 1103 : 
; 1104 : 	_Myt& operator=(_Myt&& _Right)
; 1105 : 		{	// assign by moving _Right
; 1106 : 		if (this != &_Right)
; 1107 : 			{	// different, move it
; 1108 : 			clear();
; 1109 : 			if (_Alty::propagate_on_container_move_assignment::value
; 1110 : 				&& this->_Getal() != _Right._Getal())
; 1111 : 				this->_Change_alloc(_Right._Getal());
; 1112 : 
; 1113 : 			_Assign_rv(_STD forward<_Myt>(_Right));
; 1114 : 			}
; 1115 : 		return (*this);
; 1116 : 		}
; 1117 : 
; 1118 : 	void _Assign_rv(_Myt&& _Right, true_type)
; 1119 : 		{	// move from _Right, stealing its contents
; 1120 : 		this->_Swap_all(_Right);
; 1121 : 		this->_Swapcomp(_Right._Getcomp());
; 1122 : 		_Swap_adl(this->_Myhead, _Right._Myhead);
; 1123 : 		_STD swap(this->_Mysize, _Right._Mysize);
; 1124 : 		}
; 1125 : 
; 1126 : 	void _Assign_rv(_Myt&& _Right, false_type)
; 1127 : 		{	// move from _Right, possibly moving its contents
; 1128 : 		if (get_allocator() == _Right.get_allocator())
; 1129 : 			_Assign_rv(_STD forward<_Myt>(_Right), true_type());
; 1130 : 		else
; 1131 : 			_Copy(_Right, true_type());
; 1132 : 		}
; 1133 : 
; 1134 : 	void _Assign_rv(_Myt&& _Right)
; 1135 : 		{	// assign by moving _Right
; 1136 : 		_Assign_rv(_STD forward<_Myt>(_Right),
; 1137 : 			typename _Alty::propagate_on_container_move_assignment());
; 1138 : 		}
; 1139 : 
; 1140 : 
; 1141 : 	_Pairib insert(value_type&& _Val)
; 1142 : 		{	// try to insert node with value _Val, favoring right side
; 1143 : 		return (_Insert_nohint(false,
; 1144 : 			_STD forward<value_type>(_Val), _Nil_obj));
; 1145 : 		}
; 1146 : 
; 1147 : 	iterator insert(const_iterator _Where, value_type&& _Val)
; 1148 : 		{	// try to insert node with value _Val using _Where as a hint
; 1149 : 		return (_Insert_hint(_Where,
; 1150 : 			_STD forward<value_type>(_Val), _Nil_obj));
; 1151 : 		}
; 1152 : 
; 1153 : 	template<class _Valty>
; 1154 : 		typename enable_if<is_convertible<_Valty, value_type>::value,
; 1155 : 			_Pairib>::type
; 1156 : 		insert(_Valty&& _Val)
; 1157 : 		{	// try to insert node with value _Val, favoring right side
; 1158 : 		_Nodeptr _Newnode = this->_Buynode(_STD forward<_Valty>(_Val));
; 1159 : 		return (_Insert_nohint(false,
; 1160 : 			this->_Myval(_Newnode), _Newnode));
; 1161 : 		}
; 1162 : 
; 1163 : 	template<class _Valty>
; 1164 : 		typename enable_if<is_convertible<_Valty, value_type>::value,
; 1165 : 			iterator>::type
; 1166 : 		insert(const_iterator _Where, _Valty&& _Val)
; 1167 : 		{	// try to insert node with value _Val using _Where as a hint
; 1168 : 		_Nodeptr _Newnode = this->_Buynode(_STD forward<_Valty>(_Val));
; 1169 : 		return (_Insert_hint(_Where,
; 1170 : 			this->_Myval(_Newnode), _Newnode));
; 1171 : 		}
; 1172 : 
; 1173 : 	template<class... _Valty>
; 1174 : 		_Pairib emplace(_Valty&&... _Val)
; 1175 : 		{	// try to insert value_type(_Val...), favoring right side
; 1176 : 		_Nodeptr _Newnode = this->_Buynode(_STD forward<_Valty>(_Val)...);
; 1177 : 		return (_Insert_nohint(false,
; 1178 : 			this->_Myval(_Newnode), _Newnode));
; 1179 : 		}
; 1180 : 
; 1181 : 	template<class... _Valty>
; 1182 : 		iterator emplace_hint(const_iterator _Where, _Valty&&... _Val)
; 1183 : 		{	// insert value_type(_Val...) at _Where
; 1184 : 		_Nodeptr _Newnode = this->_Buynode(_STD forward<_Valty>(_Val)...);
; 1185 : 		return (_Insert_hint(_Where,
; 1186 : 			this->_Myval(_Newnode), _Newnode));
; 1187 : 		}
; 1188 : 
; 1189 : 
; 1190 : 	~_Tree() _NOEXCEPT
; 1191 : 		{	// destroy tree
; 1192 : 		_Tidy();
; 1193 : 		}
; 1194 : 
; 1195 : 	_Myt& operator=(const _Myt& _Right)
; 1196 : 		{	// replace contents from _Right
; 1197 : 		if (this != &_Right)
; 1198 : 			{	// different, assign it
; 1199 : 			clear();
; 1200 : 			if (this->_Getal() != _Right._Getal()
; 1201 : 				&& _Alty::propagate_on_container_copy_assignment::value)
; 1202 : 				this->_Change_alloc(_Right._Getal());
; 1203 : 
; 1204 : 			this->_Setcomp(_Right._Getcomp());
; 1205 : 			_Copy(_Right, false_type());
; 1206 : 			}
; 1207 : 		return (*this);
; 1208 : 		}
; 1209 : 
; 1210 : 	iterator begin() _NOEXCEPT
; 1211 : 		{	// return iterator for beginning of mutable sequence
; 1212 : 		return (iterator(_Lmost(), this));
; 1213 : 		}
; 1214 : 
; 1215 : 	const_iterator begin() const _NOEXCEPT
; 1216 : 		{	// return iterator for beginning of nonmutable sequence
; 1217 : 		return (const_iterator(_Lmost(), this));
; 1218 : 		}
; 1219 : 
; 1220 : 	iterator end() _NOEXCEPT
; 1221 : 		{	// return iterator for end of mutable sequence
; 1222 : 		return (iterator(this->_Myhead, this));
; 1223 : 		}
; 1224 : 
; 1225 : 	const_iterator end() const _NOEXCEPT
; 1226 : 		{	// return iterator for end of nonmutable sequence
; 1227 : 		return (const_iterator(this->_Myhead, this));
; 1228 : 		}
; 1229 : 
; 1230 : 	reverse_iterator rbegin() _NOEXCEPT
; 1231 : 		{	// return iterator for beginning of reversed mutable sequence
; 1232 : 		return (reverse_iterator(end()));
; 1233 : 		}
; 1234 : 
; 1235 : 	const_reverse_iterator rbegin() const _NOEXCEPT
; 1236 : 		{	// return iterator for beginning of reversed nonmutable sequence
; 1237 : 		return (const_reverse_iterator(end()));
; 1238 : 		}
; 1239 : 
; 1240 : 	reverse_iterator rend() _NOEXCEPT
; 1241 : 		{	// return iterator for end of reversed mutable sequence
; 1242 : 		return (reverse_iterator(begin()));
; 1243 : 		}
; 1244 : 
; 1245 : 	const_reverse_iterator rend() const _NOEXCEPT
; 1246 : 		{	// return iterator for end of reversed nonmutable sequence
; 1247 : 		return (const_reverse_iterator(begin()));
; 1248 : 		}
; 1249 : 
; 1250 : 	const_iterator cbegin() const _NOEXCEPT
; 1251 : 		{	// return iterator for beginning of nonmutable sequence
; 1252 : 		return (((const _Myt *)this)->begin());
; 1253 : 		}
; 1254 : 
; 1255 : 	const_iterator cend() const _NOEXCEPT
; 1256 : 		{	// return iterator for end of nonmutable sequence
; 1257 : 		return (((const _Myt *)this)->end());
; 1258 : 		}
; 1259 : 
; 1260 : 	const_reverse_iterator crbegin() const _NOEXCEPT
; 1261 : 		{	// return iterator for beginning of reversed nonmutable sequence
; 1262 : 		return (((const _Myt *)this)->rbegin());
; 1263 : 		}
; 1264 : 
; 1265 : 	const_reverse_iterator crend() const _NOEXCEPT
; 1266 : 		{	// return iterator for end of reversed nonmutable sequence
; 1267 : 		return (((const _Myt *)this)->rend());
; 1268 : 		}
; 1269 : 
; 1270 : 	size_type size() const _NOEXCEPT
; 1271 : 		{	// return length of sequence
; 1272 : 		return (this->_Mysize);
; 1273 : 		}
; 1274 : 
; 1275 : 	size_type max_size() const _NOEXCEPT
; 1276 : 		{	// return maximum possible length of sequence
; 1277 : 		return (this->_Getal().max_size());
; 1278 : 		}
; 1279 : 
; 1280 : 	bool empty() const _NOEXCEPT
; 1281 : 		{	// return true only if sequence is empty
; 1282 : 		return (size() == 0);
; 1283 : 		}
; 1284 : 
; 1285 : 	allocator_type get_allocator() const _NOEXCEPT
; 1286 : 		{	// return allocator object for values
; 1287 : 		return (this->_Getal());
; 1288 : 		}
; 1289 : 
; 1290 : 	key_compare key_comp() const
; 1291 : 		{	// return object for comparing keys
; 1292 : 		return (this->_Getcomp());
; 1293 : 		}
; 1294 : 
; 1295 : 	value_compare value_comp() const
; 1296 : 		{	// return object for comparing values
; 1297 : 		return (value_compare(key_comp()));
; 1298 : 		}
; 1299 : 
; 1300 : 	_Pairib insert(const value_type& _Val)
; 1301 : 		{	// try to insert node with value _Val, favoring right side
; 1302 : 		return (_Insert_nohint(false,
; 1303 : 			_Val, _Nil_obj));
; 1304 : 		}
; 1305 : 
; 1306 : 	iterator insert(const_iterator _Where,
; 1307 : 		const value_type& _Val)
; 1308 : 		{	// try to insert node with value _Val using _Where as a hint
; 1309 : 		return (_Insert_hint(_Where,
; 1310 : 			_Val, _Nil_obj));
; 1311 : 		}
; 1312 : 
; 1313 : 	template<class _Iter>
; 1314 : 		void insert(_Iter _First, _Iter _Last)
; 1315 : 		{	// insert [_First, _Last) one at a time
; 1316 : 		_DEBUG_RANGE(_First, _Last);
; 1317 : 		for (; _First != _Last; ++_First)
; 1318 : 
; 1319 : 			emplace_hint(end(), *_First);
; 1320 : 		}
; 1321 : 
; 1322 : 	void insert(_XSTD initializer_list<value_type> _Ilist)
; 1323 : 		{	// insert initializer_list
; 1324 : 		insert(_Ilist.begin(), _Ilist.end());
; 1325 : 		}
; 1326 : 
; 1327 : 	iterator erase(const_iterator _Where)
; 1328 : 		{	// erase element at _Where
; 1329 :  #if _ITERATOR_DEBUG_LEVEL == 2
; 1330 : 		if (_Where._Getcont() != this || this->_Isnil(_Where._Mynode()))
; 1331 : 			_DEBUG_ERROR("map/set erase iterator outside range");
; 1332 : 		_Nodeptr _Erasednode = _Where._Mynode();	// node to erase
; 1333 : 		++_Where;	// save successor iterator for return
; 1334 : 		_Orphan_ptr(*this, _Erasednode);
; 1335 : 
; 1336 :  #else /* _ITERATOR_DEBUG_LEVEL == 2 */
; 1337 : 		_Nodeptr _Erasednode = _Where._Mynode();	// node to erase
; 1338 : 		++_Where;	// save successor iterator for return
; 1339 :  #endif /* _ITERATOR_DEBUG_LEVEL == 2 */
; 1340 : 
; 1341 : 		_Nodeptr _Fixnode;	// the node to recolor as needed
; 1342 : 		_Nodeptr _Fixnodeparent;	// parent of _Fixnode (which may be nil)
; 1343 : 		_Nodeptr _Pnode = _Erasednode;
; 1344 : 
; 1345 : 		if (this->_Isnil(this->_Left(_Pnode)))
; 1346 : 			_Fixnode = this->_Right(_Pnode);	// stitch up right subtree
; 1347 : 		else if (this->_Isnil(this->_Right(_Pnode)))
; 1348 : 			_Fixnode = this->_Left(_Pnode);	// stitch up left subtree
; 1349 : 		else
; 1350 : 			{	// two subtrees, must lift successor node to replace erased
; 1351 : 			_Pnode = _Where._Mynode();	// _Pnode is successor node
; 1352 : 			_Fixnode = this->_Right(_Pnode);	// _Fixnode is only subtree
; 1353 : 			}
; 1354 : 
; 1355 : 		if (_Pnode == _Erasednode)
; 1356 : 			{	// at most one subtree, relink it
; 1357 : 			_Fixnodeparent = this->_Parent(_Erasednode);
; 1358 : 			if (!this->_Isnil(_Fixnode))
; 1359 : 				this->_Parent(_Fixnode) = _Fixnodeparent;	// link up
; 1360 : 
; 1361 : 			if (_Root() == _Erasednode)
; 1362 : 				_Root() = _Fixnode;	// link down from root
; 1363 : 			else if (this->_Left(_Fixnodeparent) == _Erasednode)
; 1364 : 				this->_Left(_Fixnodeparent) = _Fixnode;	// link down to left
; 1365 : 			else
; 1366 : 				this->_Right(_Fixnodeparent) =
; 1367 : 					_Fixnode;	// link down to right
; 1368 : 
; 1369 : 			if (_Lmost() == _Erasednode)
; 1370 : 				_Lmost() = this->_Isnil(_Fixnode)
; 1371 : 					? _Fixnodeparent	// smallest is parent of erased node
; 1372 : 					: this->_Min(_Fixnode);	// smallest in relinked subtree
; 1373 : 
; 1374 : 			if (_Rmost() == _Erasednode)
; 1375 : 				_Rmost() = this->_Isnil(_Fixnode)
; 1376 : 					? _Fixnodeparent	// largest is parent of erased node
; 1377 : 					: this->_Max(_Fixnode);	// largest in relinked subtree
; 1378 : 			}
; 1379 : 		else
; 1380 : 			{	// erased has two subtrees, _Pnode is successor to erased
; 1381 : 			this->_Parent(this->_Left(_Erasednode)) =
; 1382 : 				_Pnode;	// link left up
; 1383 : 			this->_Left(_Pnode) =
; 1384 : 				this->_Left(_Erasednode);	// link successor down
; 1385 : 
; 1386 : 			if (_Pnode == this->_Right(_Erasednode))
; 1387 : 				_Fixnodeparent = _Pnode;	// successor is next to erased
; 1388 : 			else
; 1389 : 				{	// successor further down, link in place of erased
; 1390 : 				_Fixnodeparent =
; 1391 : 					this->_Parent(_Pnode);	// parent is successor's
; 1392 : 				if (!this->_Isnil(_Fixnode))
; 1393 : 					this->_Parent(_Fixnode) = _Fixnodeparent;	// link fix up
; 1394 : 				this->_Left(_Fixnodeparent) = _Fixnode;	// link fix down
; 1395 : 				this->_Right(_Pnode) =
; 1396 : 					this->_Right(_Erasednode);	// link next down
; 1397 : 				this->_Parent(this->_Right(_Erasednode)) =
; 1398 : 					_Pnode;	// right up
; 1399 : 				}
; 1400 : 
; 1401 : 			if (_Root() == _Erasednode)
; 1402 : 				_Root() = _Pnode;	// link down from root
; 1403 : 			else if (this->_Left(this->_Parent(_Erasednode)) == _Erasednode)
; 1404 : 				this->_Left(this->_Parent(_Erasednode)) =
; 1405 : 					_Pnode;	// link down to left
; 1406 : 			else
; 1407 : 				this->_Right(this->_Parent(_Erasednode)) =
; 1408 : 					_Pnode;	// link down to right
; 1409 : 
; 1410 : 			this->_Parent(_Pnode) =
; 1411 : 				this->_Parent(_Erasednode);	// link successor up
; 1412 : 			_STD swap(this->_Color(_Pnode),
; 1413 : 				this->_Color(_Erasednode));	// recolor it
; 1414 : 			}
; 1415 : 
; 1416 : 		if (this->_Color(_Erasednode) == this->_Black)
; 1417 : 			{	// erasing black link, must recolor/rebalance tree
; 1418 : 			for (; _Fixnode != _Root()
; 1419 : 				&& this->_Color(_Fixnode) == this->_Black;
; 1420 : 				_Fixnodeparent = this->_Parent(_Fixnode))
; 1421 : 				if (_Fixnode == this->_Left(_Fixnodeparent))
; 1422 : 					{	// fixup left subtree
; 1423 : 					_Pnode = this->_Right(_Fixnodeparent);
; 1424 : 					if (this->_Color(_Pnode) == this->_Red)
; 1425 : 						{	// rotate red up from right subtree
; 1426 : 						this->_Color(_Pnode) = this->_Black;
; 1427 : 						this->_Color(_Fixnodeparent) = this->_Red;
; 1428 : 						_Lrotate(_Fixnodeparent);
; 1429 : 						_Pnode = this->_Right(_Fixnodeparent);
; 1430 : 						}
; 1431 : 
; 1432 : 					if (this->_Isnil(_Pnode))
; 1433 : 						_Fixnode = _Fixnodeparent;	// shouldn't happen
; 1434 : 					else if (this->_Color(this->_Left(_Pnode)) == this->_Black
; 1435 : 						&& this->_Color(this->_Right(_Pnode)) == this->_Black)
; 1436 : 						{	// redden right subtree with black children
; 1437 : 						this->_Color(_Pnode) = this->_Red;
; 1438 : 						_Fixnode = _Fixnodeparent;
; 1439 : 						}
; 1440 : 					else
; 1441 : 						{	// must rearrange right subtree
; 1442 : 						if (this->_Color(this->_Right(_Pnode))
; 1443 : 							== this->_Black)
; 1444 : 							{	// rotate red up from left sub-subtree
; 1445 : 							this->_Color(this->_Left(_Pnode)) = this->_Black;
; 1446 : 							this->_Color(_Pnode) = this->_Red;
; 1447 : 							_Rrotate(_Pnode);
; 1448 : 							_Pnode = this->_Right(_Fixnodeparent);
; 1449 : 							}
; 1450 : 
; 1451 : 						this->_Color(_Pnode) = this->_Color(_Fixnodeparent);
; 1452 : 						this->_Color(_Fixnodeparent) = this->_Black;
; 1453 : 						this->_Color(this->_Right(_Pnode)) = this->_Black;
; 1454 : 						_Lrotate(_Fixnodeparent);
; 1455 : 						break;	// tree now recolored/rebalanced
; 1456 : 						}
; 1457 : 					}
; 1458 : 				else
; 1459 : 					{	// fixup right subtree
; 1460 : 					_Pnode = this->_Left(_Fixnodeparent);
; 1461 : 					if (this->_Color(_Pnode) == this->_Red)
; 1462 : 						{	// rotate red up from left subtree
; 1463 : 						this->_Color(_Pnode) = this->_Black;
; 1464 : 						this->_Color(_Fixnodeparent) = this->_Red;
; 1465 : 						_Rrotate(_Fixnodeparent);
; 1466 : 						_Pnode = this->_Left(_Fixnodeparent);
; 1467 : 						}
; 1468 : 
; 1469 : 					if (this->_Isnil(_Pnode))
; 1470 : 						_Fixnode = _Fixnodeparent;	// shouldn't happen
; 1471 : 					else if (this->_Color(this->_Right(_Pnode)) ==
; 1472 : 						this->_Black
; 1473 : 						&& this->_Color(this->_Left(_Pnode)) == this->_Black)
; 1474 : 						{	// redden left subtree with black children
; 1475 : 						this->_Color(_Pnode) = this->_Red;
; 1476 : 						_Fixnode = _Fixnodeparent;
; 1477 : 						}
; 1478 : 					else
; 1479 : 						{	// must rearrange left subtree
; 1480 : 						if (this->_Color(this->_Left(_Pnode)) == this->_Black)
; 1481 : 							{	// rotate red up from right sub-subtree
; 1482 : 							this->_Color(this->_Right(_Pnode)) = this->_Black;
; 1483 : 							this->_Color(_Pnode) = this->_Red;
; 1484 : 							_Lrotate(_Pnode);
; 1485 : 							_Pnode = this->_Left(_Fixnodeparent);
; 1486 : 							}
; 1487 : 
; 1488 : 						this->_Color(_Pnode) = this->_Color(_Fixnodeparent);
; 1489 : 						this->_Color(_Fixnodeparent) = this->_Black;
; 1490 : 						this->_Color(this->_Left(_Pnode)) = this->_Black;
; 1491 : 						_Rrotate(_Fixnodeparent);
; 1492 : 						break;	// tree now recolored/rebalanced
; 1493 : 						}
; 1494 : 					}
; 1495 : 
; 1496 : 			this->_Color(_Fixnode) = this->_Black;	// stopping node is black
; 1497 : 			}
; 1498 : 
; 1499 : 		this->_Getal().destroy(
; 1500 : 			_STD addressof(this->_Myval(_Erasednode)));	// delete erased node
; 1501 : 
; 1502 : 		this->_Getal().deallocate(_Erasednode, 1);
; 1503 : 
; 1504 : 		if (0 < this->_Mysize)
; 1505 : 			--this->_Mysize;
; 1506 : 
; 1507 : 		return (iterator(_Where._Ptr, this));	// return successor iterator
; 1508 : 		}
; 1509 : 
; 1510 : 	iterator erase(const_iterator _First, const_iterator _Last)
; 1511 : 		{	// erase [_First, _Last)
; 1512 : 		if (_First == begin() && _Last == end())
; 1513 : 			{	// erase all
; 1514 : 			clear();
; 1515 : 			return (begin());
; 1516 : 			}
; 1517 : 		else
; 1518 : 			{	// partial erase, one at a time
; 1519 : 			while (_First != _Last)
; 1520 : 				erase(_First++);
; 1521 : 			return (iterator(_First._Ptr, this));
; 1522 : 			}
; 1523 : 		}
; 1524 : 
; 1525 : 	size_type erase(const key_type& _Keyval)
; 1526 : 		{	// erase and count all that match _Keyval
; 1527 : 		_Pairii _Where = equal_range(_Keyval);
; 1528 : 		size_type _Num = 0;
; 1529 : 		_Distance(_Where.first, _Where.second, _Num);
; 1530 : 		erase(_Where.first, _Where.second);
; 1531 : 		return (_Num);
; 1532 : 		}
; 1533 : 
; 1534 : 	void clear() _NOEXCEPT
; 1535 : 		{	// erase all
; 1536 :  #if _ITERATOR_DEBUG_LEVEL == 2
; 1537 : 		this->_Orphan_ptr(*this, 0);
; 1538 :  #endif /* _ITERATOR_DEBUG_LEVEL == 2 */
; 1539 : 
; 1540 : 		_Erase(_Root());
; 1541 : 		_Root() = this->_Myhead;
; 1542 : 		_Lmost() = this->_Myhead;
; 1543 : 		_Rmost() = this->_Myhead;
; 1544 : 		this->_Mysize = 0;
; 1545 : 		}
; 1546 : 
; 1547 : 	iterator find(const key_type& _Keyval)
; 1548 : 		{	// find an element in mutable sequence that matches _Keyval
; 1549 : 		iterator _Where = lower_bound(_Keyval);
; 1550 : 		return (_Where == end()
; 1551 : 			|| _DEBUG_LT_PRED(this->_Getcomp(),
; 1552 : 				_Keyval, this->_Key(_Where._Mynode()))
; 1553 : 					? end() : _Where);
; 1554 : 		}
; 1555 : 
; 1556 : 	const_iterator find(const key_type& _Keyval) const
; 1557 : 		{	// find an element in nonmutable sequence that matches _Keyval
; 1558 : 		const_iterator _Where = lower_bound(_Keyval);
; 1559 : 		return (_Where == end()
; 1560 : 			|| _DEBUG_LT_PRED(this->_Getcomp(),
; 1561 : 				_Keyval, this->_Key(_Where._Mynode()))
; 1562 : 					? end() : _Where);
; 1563 : 		}
; 1564 : 
; 1565 : 	size_type count(const key_type& _Keyval) const
; 1566 : 		{	// count all elements that match _Keyval
; 1567 : 		_Paircc _Ans = equal_range(_Keyval);
; 1568 : 		size_type _Num = 0;
; 1569 : 		_Distance(_Ans.first, _Ans.second, _Num);
; 1570 : 		return (_Num);
; 1571 : 		}
; 1572 : 
; 1573 : 	iterator lower_bound(const key_type& _Keyval)
; 1574 : 		{	// find leftmost node not less than _Keyval in mutable tree
; 1575 : 		return (iterator(_Lbound(_Keyval), this));
; 1576 : 		}
; 1577 : 
; 1578 : 	const_iterator lower_bound(const key_type& _Keyval) const
; 1579 : 		{	// find leftmost node not less than _Keyval in nonmutable tree
; 1580 : 		return (const_iterator(_Lbound(_Keyval), this));
; 1581 : 		}
; 1582 : 
; 1583 : 	iterator upper_bound(const key_type& _Keyval)
; 1584 : 		{	// find leftmost node greater than _Keyval in mutable tree
; 1585 : 		return (iterator(_Ubound(_Keyval), this));
; 1586 : 		}
; 1587 : 
; 1588 : 	const_iterator upper_bound(const key_type& _Keyval) const
; 1589 : 		{	// find leftmost node greater than _Keyval in nonmutable tree
; 1590 : 		return (const_iterator(_Ubound(_Keyval), this));
; 1591 : 		}
; 1592 : 
; 1593 : 	_Pairii equal_range(const key_type& _Keyval)
; 1594 : 		{	// find range equivalent to _Keyval in mutable tree
; 1595 : 		return (_Eqrange(_Keyval));
; 1596 : 		}
; 1597 : 
; 1598 : 	_Paircc equal_range(const key_type& _Keyval) const
; 1599 : 		{	// find range equivalent to _Keyval in nonmutable tree
; 1600 : 		return (_Eqrange(_Keyval));
; 1601 : 		}
; 1602 : 
; 1603 : 	void swap(_Myt& _Right)
; 1604 : 		{	// exchange contents with _Right
; 1605 : 		if (this == &_Right)
; 1606 : 			;	// same object, do nothing
; 1607 : 		else if (this->_Getal() == _Right._Getal())
; 1608 : 			{	// same allocator, swap control information
; 1609 : 			this->_Swap_all(_Right);
; 1610 : 			this->_Swapcomp(_Right._Getcomp());
; 1611 : 			_Swap_adl(this->_Myhead, _Right._Myhead);
; 1612 : 			_STD swap(this->_Mysize, _Right._Mysize);
; 1613 : 			}
; 1614 : 
; 1615 : 		else if (_Alty::propagate_on_container_swap::value)
; 1616 : 			{	// swap allocators and control information
; 1617 : 			this->_Swap_alloc(_Right);
; 1618 : 			this->_Swapcomp(_Right._Getcomp());
; 1619 : 			_Swap_adl(this->_Myhead, _Right._Myhead);
; 1620 : 			_STD swap(this->_Mysize, _Right._Mysize);
; 1621 : 			}
; 1622 : 
; 1623 : 		else
; 1624 : 			{	// containers are incompatible
; 1625 :  #if _ITERATOR_DEBUG_LEVEL == 2
; 1626 : 			_DEBUG_ERROR("map/set containers incompatible for swap");
; 1627 : 
; 1628 :  #else /* ITERATOR_DEBUG_LEVEL == 2 */
; 1629 : 			_XSTD terminate();
; 1630 :  #endif /* ITERATOR_DEBUG_LEVEL == 2 */
; 1631 : 			}
; 1632 : 		}
; 1633 : 
; 1634 : protected:
; 1635 : 	template<class _Valty>
; 1636 : 		_Nodeptr _Buynode_if_nil(_Nodeptr _Node, _Valty&&)
; 1637 : 		{	// node exists, just return it
; 1638 : 		return (_Node);
; 1639 : 		}
; 1640 : 
; 1641 : 	template<class _Valty>
; 1642 : 		_Nodeptr _Buynode_if_nil(_Nil, _Valty&& _Val)
; 1643 : 		{	// node doesn't exist, make it
; 1644 : 		return (this->_Buynode(_STD forward<_Valty>(_Val)));
; 1645 : 		}
; 1646 : 
; 1647 : 	void _Destroy_if_not_nil(_Nodeptr _Newnode)
; 1648 : 		{	// node exists, destroy it
; 1649 : 		this->_Getal().destroy(
; 1650 : 			_STD addressof(this->_Myval(_Newnode)));
; 1651 : 
; 1652 : 		this->_Getal().deallocate(_Newnode, 1);
; 1653 : 		}
; 1654 : 
; 1655 : 	void _Destroy_if_not_nil(_Nil)
; 1656 : 		{	// node doesn't exist, do nothing
; 1657 : 		}
; 1658 : 
; 1659 : 	template<class _Valty,
; 1660 : 		class _Nodety>
; 1661 : 		iterator _Insert_hint(const_iterator _Where,
; 1662 : 			_Valty&& _Val, _Nodety _Newnode)
; 1663 : 		{	// try to insert node using _Where as a hint
; 1664 : 		const_iterator _Next;
; 1665 : 		bool _Leftish = false;	// assume nearest point is end of sequence
; 1666 : 
; 1667 : 		_TRY_BEGIN
; 1668 : 
; 1669 :  #if _ITERATOR_DEBUG_LEVEL == 2
; 1670 : 		if (_Where._Getcont() != this)
; 1671 : 			_DEBUG_ERROR("map/set insert iterator outside range");
; 1672 :  #endif /* _ITERATOR_DEBUG_LEVEL == 2 */
; 1673 : 
; 1674 : 		if (size() == 0)
; 1675 : 			return (_Insert_at(true, this->_Myhead,
; 1676 : 				_STD forward<_Valty>(_Val), _Newnode));	// empty tree
; 1677 : 		else if (this->_Multi)
; 1678 : 			{	// insert even if duplicate
; 1679 : 			if (_Where == begin())
; 1680 : 				{	// insert at beginning if before first element
; 1681 : 				if (!_DEBUG_LT_PRED(this->_Getcomp(),
; 1682 : 					this->_Key(_Where._Mynode()), this->_Kfn(_Val)))
; 1683 : 					return (_Insert_at(true, _Where._Mynode(),
; 1684 : 						_STD forward<_Valty>(_Val), _Newnode));
; 1685 : 				_Leftish = true;	// nearest point is beginning of sequence
; 1686 : 				}
; 1687 : 			else if (_Where == end())
; 1688 : 				{	// insert at end if after last element
; 1689 : 				if (!_DEBUG_LT_PRED(this->_Getcomp(),
; 1690 : 					this->_Kfn(_Val), this->_Key(_Rmost())))
; 1691 : 					return (_Insert_at(false, _Rmost(),
; 1692 : 						_STD forward<_Valty>(_Val), _Newnode));
; 1693 : 				}
; 1694 : 			else if (!_DEBUG_LT_PRED(this->_Getcomp(),
; 1695 : 				this->_Key(_Where._Mynode()), this->_Kfn(_Val))
; 1696 : 				&& !_DEBUG_LT_PRED(this->_Getcomp(),
; 1697 : 					this->_Kfn(_Val),
; 1698 : 					this->_Key((--(_Next = _Where))._Mynode())))
; 1699 : 				{	// insert before _Where
; 1700 : 				if (this->_Isnil(this->_Right(_Next._Mynode())))
; 1701 : 					return (_Insert_at(false, _Next._Mynode(),
; 1702 : 						_STD forward<_Valty>(_Val), _Newnode));
; 1703 : 				else
; 1704 : 					return (_Insert_at(true, _Where._Mynode(),
; 1705 : 						_STD forward<_Valty>(_Val), _Newnode));
; 1706 : 				}
; 1707 : 			else if (!_DEBUG_LT_PRED(this->_Getcomp(),
; 1708 : 				this->_Kfn(_Val), this->_Key(_Where._Mynode()))
; 1709 : 				&& (++(_Next = _Where) == end()
; 1710 : 					|| !_DEBUG_LT_PRED(this->_Getcomp(),
; 1711 : 						this->_Key(_Next._Mynode()), this->_Kfn(_Val))))
; 1712 : 				{	// insert after _Where
; 1713 : 				if (this->_Isnil(this->_Right(_Where._Mynode())))
; 1714 : 					return (_Insert_at(false, _Where._Mynode(),
; 1715 : 						_STD forward<_Valty>(_Val), _Newnode));
; 1716 : 				else
; 1717 : 					return (_Insert_at(true, _Next._Mynode(),
; 1718 : 						_STD forward<_Valty>(_Val), _Newnode));
; 1719 : 				}
; 1720 : 			else
; 1721 : 				_Leftish = true;	// nearest point is beginning of sequence
; 1722 : 			}
; 1723 : 		else
; 1724 : 			{	// insert only if unique
; 1725 : 			if (_Where == begin())
; 1726 : 				{	// insert at beginning if before first element
; 1727 : 				if (_DEBUG_LT_PRED(this->_Getcomp(),
; 1728 : 					this->_Kfn(_Val), this->_Key(_Where._Mynode())))
; 1729 : 					return (_Insert_at(true, _Where._Mynode(),
; 1730 : 						_STD forward<_Valty>(_Val), _Newnode));
; 1731 : 				}
; 1732 : 			else if (_Where == end())
; 1733 : 				{	// insert at end if after last element
; 1734 : 				if (_DEBUG_LT_PRED(this->_Getcomp(),
; 1735 : 					this->_Key(_Rmost()), this->_Kfn(_Val)))
; 1736 : 					return (_Insert_at(false, _Rmost(),
; 1737 : 						_STD forward<_Valty>(_Val), _Newnode));
; 1738 : 				}
; 1739 : 			else if (_DEBUG_LT_PRED(this->_Getcomp(),
; 1740 : 				this->_Kfn(_Val), this->_Key(_Where._Mynode()))
; 1741 : 				&& _DEBUG_LT_PRED(this->_Getcomp(),
; 1742 : 					this->_Key((--(_Next = _Where))._Mynode()),
; 1743 : 					this->_Kfn(_Val)))
; 1744 : 				{	// insert before _Where
; 1745 : 				if (this->_Isnil(this->_Right(_Next._Mynode())))
; 1746 : 					return (_Insert_at(false, _Next._Mynode(),
; 1747 : 						_STD forward<_Valty>(_Val), _Newnode));
; 1748 : 				else
; 1749 : 					return (_Insert_at(true, _Where._Mynode(),
; 1750 : 						_STD forward<_Valty>(_Val), _Newnode));
; 1751 : 				}
; 1752 : 			else if (_DEBUG_LT_PRED(this->_Getcomp(),
; 1753 : 				this->_Key(_Where._Mynode()), this->_Kfn(_Val))
; 1754 : 				&& (++(_Next = _Where) == end()
; 1755 : 					|| _DEBUG_LT_PRED(this->_Getcomp(),
; 1756 : 						this->_Kfn(_Val), this->_Key(_Next._Mynode()))))
; 1757 : 				{	// insert after _Where
; 1758 : 				if (this->_Isnil(this->_Right(_Where._Mynode())))
; 1759 : 					return (_Insert_at(false, _Where._Mynode(),
; 1760 : 						_STD forward<_Valty>(_Val), _Newnode));
; 1761 : 				else
; 1762 : 					return (_Insert_at(true, _Next._Mynode(),
; 1763 : 						_STD forward<_Valty>(_Val), _Newnode));
; 1764 : 				}
; 1765 : 			}
; 1766 : 		_CATCH_ALL
; 1767 : 		_Destroy_if_not_nil(_Newnode);
; 1768 : 		_RERAISE;
; 1769 : 		_CATCH_END
; 1770 : 
; 1771 : 		return (_Insert_nohint(_Leftish,
; 1772 : 			_STD forward<_Valty>(_Val), _Newnode).first);
; 1773 : 		}
; 1774 : 
; 1775 : 	template<class _Valty,
; 1776 : 		class _Nodety>
; 1777 : 		_Pairib _Insert_nohint(bool _Leftish,
; 1778 : 			_Valty&& _Val, _Nodety _Newnode)
; 1779 : 		{	// try to insert node, on left if _Leftish
; 1780 : 		_TRY_BEGIN
; 1781 : 		_Nodeptr _Trynode = _Root();
; 1782 : 		_Nodeptr _Wherenode = this->_Myhead;
; 1783 : 		bool _Addleft = true;	// add to left of head if tree empty
; 1784 : 
; 1785 : 		while (!this->_Isnil(_Trynode))
; 1786 : 			{	// look for leaf to insert before (_Addleft) or after
; 1787 : 			_Wherenode = _Trynode;
; 1788 : 			if (_Leftish)
; 1789 : 				_Addleft = !_DEBUG_LT_PRED(this->_Getcomp(),
; 1790 : 					this->_Key(_Trynode),
; 1791 : 					this->_Kfn(_Val));	// favor left end
; 1792 : 			else
; 1793 : 				_Addleft = _DEBUG_LT_PRED(this->_Getcomp(),
; 1794 : 					this->_Kfn(_Val),
; 1795 : 					this->_Key(_Trynode));	// favor right end
; 1796 : 			_Trynode = _Addleft ? this->_Left(_Trynode)
; 1797 : 				: this->_Right(_Trynode);
; 1798 : 			}
; 1799 : 
; 1800 : 		if (this->_Multi)
; 1801 : 			return (_Pairib(_Insert_at(_Addleft, _Wherenode,
; 1802 : 				_STD forward<_Valty>(_Val), _Newnode), true));
; 1803 : 		else
; 1804 : 			{	// insert only if unique
; 1805 : 			iterator _Where = iterator(_Wherenode, this);
; 1806 : 			if (!_Addleft)
; 1807 : 				;	// need to test if insert after is okay
; 1808 : 			else if (_Where == begin())
; 1809 : 				return (_Pairib(_Insert_at(true, _Wherenode,
; 1810 : 					_STD forward<_Valty>(_Val), _Newnode), true));
; 1811 : 			else
; 1812 : 				--_Where;	// need to test if insert before is okay
; 1813 : 
; 1814 : 			if (_DEBUG_LT_PRED(this->_Getcomp(),
; 1815 : 				this->_Key(_Where._Mynode()),
; 1816 : 				this->_Kfn(_Val)))
; 1817 : 				return (_Pairib(_Insert_at(_Addleft, _Wherenode,
; 1818 : 					_STD forward<_Valty>(_Val), _Newnode), true));
; 1819 : 			else
; 1820 : 				{	// duplicate, don't insert
; 1821 : 				_Destroy_if_not_nil(_Newnode);
; 1822 : 				return (_Pairib(_Where, false));
; 1823 : 				}
; 1824 : 			}
; 1825 : 		_CATCH_ALL
; 1826 : 		_Destroy_if_not_nil(_Newnode);
; 1827 : 		_RERAISE;
; 1828 : 		_CATCH_END
; 1829 : 		}
; 1830 : 
; 1831 : 	template<class _Valty,
; 1832 : 		class _Nodety>
; 1833 : 		iterator _Insert_at(bool _Addleft, _Nodeptr _Wherenode,
; 1834 : 		_Valty&& _Val, _Nodety _Node)
; 1835 : 		{	// add node with value next to _Wherenode, to left if _Addleft
; 1836 : 		if (max_size() - 1 <= this->_Mysize)
; 1837 : 			{	// tree would get too big, fail
; 1838 : 			_Destroy_if_not_nil(_Node);
; 1839 : 			_Xlength_error("map/set<T> too long");
; 1840 : 			}
; 1841 : 		_Nodeptr _Newnode = _Buynode_if_nil(_Node,
; 1842 : 			_STD forward<_Valty>(_Val));
; 1843 : 
; 1844 : 		++this->_Mysize;
; 1845 : 		_Newnode->_Parent = _Wherenode;
; 1846 : 
; 1847 : 		if (_Wherenode == this->_Myhead)
; 1848 : 			{	// first node in tree, just set head values
; 1849 : 			_Root() = _Newnode;
; 1850 : 			_Lmost() = _Newnode;
; 1851 : 			_Rmost() = _Newnode;
; 1852 : 			}
; 1853 : 		else if (_Addleft)
; 1854 : 			{	// add to left of _Wherenode
; 1855 : 			this->_Left(_Wherenode) = _Newnode;
; 1856 : 			if (_Wherenode == _Lmost())
; 1857 : 				_Lmost() = _Newnode;
; 1858 : 			}
; 1859 : 		else
; 1860 : 			{	// add to right of _Wherenode
; 1861 : 			this->_Right(_Wherenode) = _Newnode;
; 1862 : 			if (_Wherenode == _Rmost())
; 1863 : 				_Rmost() = _Newnode;
; 1864 : 			}
; 1865 : 
; 1866 : 		for (_Nodeptr _Pnode = _Newnode;
; 1867 : 			this->_Color(this->_Parent(_Pnode)) == this->_Red; )
; 1868 : 			if (this->_Parent(_Pnode)
; 1869 : 				== this->_Left(this->_Parent(this->_Parent(_Pnode))))
; 1870 : 				{	// fixup red-red in left subtree
; 1871 : 				_Wherenode =
; 1872 : 					this->_Right(this->_Parent(this->_Parent(_Pnode)));
; 1873 : 				if (this->_Color(_Wherenode) == this->_Red)
; 1874 : 					{	// parent has two red children, blacken both
; 1875 : 					this->_Color(this->_Parent(_Pnode)) = this->_Black;
; 1876 : 					this->_Color(_Wherenode) = this->_Black;
; 1877 : 					this->_Color(this->_Parent(this->_Parent(_Pnode)))
; 1878 : 						= this->_Red;
; 1879 : 					_Pnode = this->_Parent(this->_Parent(_Pnode));
; 1880 : 					}
; 1881 : 				else
; 1882 : 					{	// parent has red and black children
; 1883 : 					if (_Pnode == this->_Right(this->_Parent(_Pnode)))
; 1884 : 						{	// rotate right child to left
; 1885 : 						_Pnode = this->_Parent(_Pnode);
; 1886 : 						_Lrotate(_Pnode);
; 1887 : 						}
; 1888 : 					this->_Color(this->_Parent(_Pnode)) =
; 1889 : 						this->_Black;	// propagate red up
; 1890 : 					this->_Color(this->_Parent(this->_Parent(_Pnode))) =
; 1891 : 						this->_Red;
; 1892 : 					_Rrotate(this->_Parent(this->_Parent(_Pnode)));
; 1893 : 					}
; 1894 : 				}
; 1895 : 			else
; 1896 : 				{	// fixup red-red in right subtree
; 1897 : 				_Wherenode =
; 1898 : 					this->_Left(this->_Parent(this->_Parent(_Pnode)));
; 1899 : 				if (this->_Color(_Wherenode) == this->_Red)
; 1900 : 					{	// parent has two red children, blacken both
; 1901 : 					this->_Color(this->_Parent(_Pnode)) = this->_Black;
; 1902 : 					this->_Color(_Wherenode) = this->_Black;
; 1903 : 					this->_Color(this->_Parent(this->_Parent(_Pnode))) =
; 1904 : 						this->_Red;
; 1905 : 					_Pnode = this->_Parent(this->_Parent(_Pnode));
; 1906 : 					}
; 1907 : 				else
; 1908 : 					{	// parent has red and black children
; 1909 : 					if (_Pnode == this->_Left(this->_Parent(_Pnode)))
; 1910 : 						{	// rotate left child to right
; 1911 : 						_Pnode = this->_Parent(_Pnode);
; 1912 : 						_Rrotate(_Pnode);
; 1913 : 						}
; 1914 : 					this->_Color(this->_Parent(_Pnode)) =
; 1915 : 						this->_Black;	// propagate red up
; 1916 : 					this->_Color(this->_Parent(this->_Parent(_Pnode))) =
; 1917 : 						this->_Red;
; 1918 : 					_Lrotate(this->_Parent(this->_Parent(_Pnode)));
; 1919 : 					}
; 1920 : 				}
; 1921 : 
; 1922 : 		this->_Color(_Root()) = this->_Black;	// root is always black
; 1923 : 		return (iterator(_Newnode, this));
; 1924 : 		}
; 1925 : 
; 1926 : 	template<class _Moveit>
; 1927 : 		void _Copy(const _Myt& _Right,
; 1928 : 			_Moveit _Movefl)
; 1929 : 		{	// copy or move entire tree from _Right
; 1930 : 		_Root() = _Copy_nodes(_Right._Root(), this->_Myhead, _Movefl);
; 1931 : 		this->_Mysize = _Right.size();
; 1932 : 		if (!this->_Isnil(_Root()))
; 1933 : 			{	// nonempty tree, look for new smallest and largest
; 1934 : 			_Lmost() = this->_Min(_Root());
; 1935 : 			_Rmost() = this->_Max(_Root());
; 1936 : 			}
; 1937 : 		else
; 1938 : 			{	// empty tree, just tidy head pointers
; 1939 : 			_Lmost() = this->_Myhead;
; 1940 : 			_Rmost() = this->_Myhead;
; 1941 : 			}
; 1942 : 		}
; 1943 : 
; 1944 : 	template<class _Want_to_move,
; 1945 : 		class _Can_move,
; 1946 : 		class _Is_set,
; 1947 : 		class _Dummy>
; 1948 : 		_Nodeptr _Copy_or_move(_Nodeptr _Rootnode, _Want_to_move,
; 1949 : 			_Can_move, _Is_set, _Dummy)
; 1950 : 		{	// copy to new node -- nonmovable
; 1951 : 		return (this->_Buynode(this->_Myval(_Rootnode)));
; 1952 : 		}
; 1953 : 
; 1954 : 	template<class _Dummy>
; 1955 : 		_Nodeptr _Copy_or_move(_Nodeptr _Rootnode, true_type,
; 1956 : 			true_type, true_type, _Dummy)
; 1957 : 		{	// move to new node -- movable, set
; 1958 : 		return (this->_Buynode(
; 1959 : 			_STD forward<value_type>(this->_Myval(_Rootnode))));
; 1960 : 		}
; 1961 : 
; 1962 : 	template<class _Dummy>
; 1963 : 		_Nodeptr _Copy_or_move(_Nodeptr _Rootnode, true_type,
; 1964 : 			true_type, false_type, _Dummy)
; 1965 : 		{	// move to new node -- movable, map
; 1966 : 		return (this->_Buynode(
; 1967 : 			_STD forward<key_type>(const_cast<key_type&>(
; 1968 : 				this->_Myval(_Rootnode).first)),
; 1969 : 			_STD forward<typename value_type::second_type>(this->_Myval(
; 1970 : 				_Rootnode).second)));
; 1971 : 		}
; 1972 : 
; 1973 : 	template<class _Moveit>
; 1974 : 		_Nodeptr _Copy_nodes(_Nodeptr _Rootnode, _Nodeptr _Wherenode,
; 1975 : 			_Moveit _Movefl)
; 1976 : 		{	// copy entire subtree, recursively
; 1977 : 		_Nodeptr _Newroot = this->_Myhead;	// point at nil node
; 1978 : 
; 1979 : 		if (!this->_Isnil(_Rootnode))
; 1980 : 			{	// copy or move a node, then any subtrees
; 1981 : 			_Nodeptr _Pnode = _Copy_or_move(_Rootnode, _Movefl,
; 1982 : 				typename is_move_constructible<value_type>::type(),
; 1983 : 				typename is_same<key_type, value_type>::type(), 0);
; 1984 : 			_Pnode->_Parent = _Wherenode;
; 1985 : 			_Pnode->_Color = this->_Color(_Rootnode);
; 1986 : 			if (this->_Isnil(_Newroot))
; 1987 : 				_Newroot = _Pnode;	// memorize new root
; 1988 : 
; 1989 : 			_TRY_BEGIN
; 1990 : 			this->_Left(_Pnode) =
; 1991 : 				_Copy_nodes(this->_Left(_Rootnode), _Pnode, _Movefl);
; 1992 : 			this->_Right(_Pnode) =
; 1993 : 				_Copy_nodes(this->_Right(_Rootnode), _Pnode, _Movefl);
; 1994 : 			_CATCH_ALL
; 1995 : 			_Erase(_Newroot);	// subtree copy failed, bail out
; 1996 : 			_RERAISE;
; 1997 : 			_CATCH_END
; 1998 : 			}
; 1999 : 
; 2000 : 		return (_Newroot);	// return newly constructed tree
; 2001 : 		}
; 2002 : 
; 2003 : 	_Paircc _Eqrange(const key_type& _Keyval) const
; 2004 : 		{	// find leftmost node not less than _Keyval
; 2005 : 		_Nodeptr _Pnode = _Root();
; 2006 : 		_Nodeptr _Lonode = this->_Myhead;	// end() if search fails
; 2007 : 		_Nodeptr _Hinode = this->_Myhead;	// end() if search fails
; 2008 : 
; 2009 : 		while (!this->_Isnil(_Pnode))
; 2010 : 			if (_DEBUG_LT_PRED(this->_Getcomp(), this->_Key(_Pnode), _Keyval))
; 2011 : 				_Pnode = this->_Right(_Pnode);	// descend right subtree
; 2012 : 			else
; 2013 : 				{	// _Pnode not less than _Keyval, remember it
; 2014 : 				if (this->_Isnil(_Hinode)
; 2015 : 						&& _DEBUG_LT_PRED(this->_Getcomp(), _Keyval,
; 2016 : 						this->_Key(_Pnode)))
; 2017 : 					_Hinode = _Pnode;	// _Pnode greater, remember it
; 2018 : 				_Lonode = _Pnode;
; 2019 : 				_Pnode = this->_Left(_Pnode);	// descend left subtree
; 2020 : 				}
; 2021 : 
; 2022 : 		_Pnode = this->_Isnil(_Hinode) ? _Root()
; 2023 : 			: this->_Left(_Hinode);	// continue scan for upper bound
; 2024 : 		while (!this->_Isnil(_Pnode))
; 2025 : 			if (_DEBUG_LT_PRED(this->_Getcomp(), _Keyval, this->_Key(_Pnode)))
; 2026 : 				{	// _Pnode greater than _Keyval, remember it
; 2027 : 				_Hinode = _Pnode;
; 2028 : 				_Pnode = this->_Left(_Pnode);	// descend left subtree
; 2029 : 				}
; 2030 : 			else
; 2031 : 				_Pnode = this->_Right(_Pnode);	// descend right subtree
; 2032 : 
; 2033 : 		const_iterator _First = const_iterator(_Lonode, this);
; 2034 : 		const_iterator _Last = const_iterator(_Hinode, this);
; 2035 : 		return (_Paircc(_First, _Last));
; 2036 : 		}
; 2037 : 
; 2038 : 	_Pairii _Eqrange(const key_type& _Keyval)
; 2039 : 		{	// find leftmost node not less than _Keyval
; 2040 : 		_Nodeptr _Pnode = _Root();
; 2041 : 		_Nodeptr _Lonode = this->_Myhead;	// end() if search fails
; 2042 : 		_Nodeptr _Hinode = this->_Myhead;	// end() if search fails
; 2043 : 
; 2044 : 		while (!this->_Isnil(_Pnode))
; 2045 : 			if (_DEBUG_LT_PRED(this->_Getcomp(), this->_Key(_Pnode), _Keyval))
; 2046 : 				_Pnode = this->_Right(_Pnode);	// descend right subtree
; 2047 : 			else
; 2048 : 				{	// _Pnode not less than _Keyval, remember it
; 2049 : 				if (this->_Isnil(_Hinode)
; 2050 : 						&& _DEBUG_LT_PRED(this->_Getcomp(), _Keyval,
; 2051 : 						 this->_Key(_Pnode)))
; 2052 : 					_Hinode = _Pnode;	// _Pnode greater, remember it
; 2053 : 				_Lonode = _Pnode;
; 2054 : 				_Pnode = this->_Left(_Pnode);	// descend left subtree
; 2055 : 				}
; 2056 : 
; 2057 : 		_Pnode = this->_Isnil(_Hinode) ? _Root()
; 2058 : 			: this->_Left(_Hinode);	// continue scan for upper bound
; 2059 : 		while (!this->_Isnil(_Pnode))
; 2060 : 			if (_DEBUG_LT_PRED(this->_Getcomp(), _Keyval, this->_Key(_Pnode)))
; 2061 : 				{	// _Pnode greater than _Keyval, remember it
; 2062 : 				_Hinode = _Pnode;
; 2063 : 				_Pnode = this->_Left(_Pnode);	// descend left subtree
; 2064 : 				}
; 2065 : 			else
; 2066 : 				_Pnode = this->_Right(_Pnode);	// descend right subtree
; 2067 : 
; 2068 : 		iterator _First = iterator(_Lonode, this);
; 2069 : 		iterator _Last = iterator(_Hinode, this);
; 2070 : 		return (_Pairii(_First, _Last));
; 2071 : 		}
; 2072 : 
; 2073 : 	void _Erase(_Nodeptr _Rootnode)
; 2074 : 		{	// free entire subtree, recursively
; 2075 : 		for (_Nodeptr _Pnode = _Rootnode;
; 2076 : 			!this->_Isnil(_Pnode); _Rootnode = _Pnode)
; 2077 : 			{	// free subtrees, then node
; 2078 : 			_Erase(this->_Right(_Pnode));
; 2079 : 			_Pnode = this->_Left(_Pnode);
; 2080 : 			this->_Getal().destroy(
; 2081 : 				_STD addressof(this->_Myval(_Rootnode)));
; 2082 : 
; 2083 : 			this->_Getal().deallocate(_Rootnode, 1);
; 2084 : 			}
; 2085 : 		}
; 2086 : 
; 2087 : 	_Nodeptr _Lbound(const key_type& _Keyval) const
; 2088 : 		{	// find leftmost node not less than _Keyval
; 2089 : 		_Nodeptr _Pnode = _Root();
; 2090 : 		_Nodeptr _Wherenode = this->_Myhead;	// end() if search fails
; 2091 : 
; 2092 : 		while (!this->_Isnil(_Pnode))
; 2093 : 			if (_DEBUG_LT_PRED(this->_Getcomp(), this->_Key(_Pnode), _Keyval))
; 2094 : 				_Pnode = this->_Right(_Pnode);	// descend right subtree
; 2095 : 			else
; 2096 : 				{	// _Pnode not less than _Keyval, remember it
; 2097 : 				_Wherenode = _Pnode;
; 2098 : 				_Pnode = this->_Left(_Pnode);	// descend left subtree
; 2099 : 				}
; 2100 : 
; 2101 : 		return (_Wherenode);	// return best remembered candidate
; 2102 : 		}
; 2103 : 
; 2104 : 	_Nodeptr _Lbound(const key_type& _Keyval)
; 2105 : 		{	// find leftmost node not less than _Keyval
; 2106 : 		_Nodeptr _Pnode = _Root();
; 2107 : 		_Nodeptr _Wherenode = this->_Myhead;	// end() if search fails
; 2108 : 
; 2109 : 		while (!this->_Isnil(_Pnode))
; 2110 : 			if (_DEBUG_LT_PRED(this->_Getcomp(), this->_Key(_Pnode), _Keyval))
; 2111 : 				_Pnode = this->_Right(_Pnode);	// descend right subtree
; 2112 : 			else
; 2113 : 				{	// _Pnode not less than _Keyval, remember it
; 2114 : 				_Wherenode = _Pnode;
; 2115 : 				_Pnode = this->_Left(_Pnode);	// descend left subtree
; 2116 : 				}
; 2117 : 
; 2118 : 		return (_Wherenode);	// return best remembered candidate
; 2119 : 		}
; 2120 : 
; 2121 : 	_Nodeptr& _Lmost() const
; 2122 : 		{	// return leftmost node in nonmutable tree
; 2123 : 		return (this->_Left(this->_Myhead));
; 2124 : 		}
; 2125 : 
; 2126 : 	void _Lrotate(_Nodeptr _Wherenode)
; 2127 : 		{	// promote right node to root of subtree
; 2128 : 		_Nodeptr _Pnode = this->_Right(_Wherenode);
; 2129 : 		this->_Right(_Wherenode) = this->_Left(_Pnode);
; 2130 : 
; 2131 : 		if (!this->_Isnil(this->_Left(_Pnode)))
; 2132 : 			this->_Parent(this->_Left(_Pnode)) = _Wherenode;
; 2133 : 		this->_Parent(_Pnode) = this->_Parent(_Wherenode);
; 2134 : 
; 2135 : 		if (_Wherenode == _Root())
; 2136 : 			_Root() = _Pnode;
; 2137 : 		else if (_Wherenode == this->_Left(this->_Parent(_Wherenode)))
; 2138 : 			this->_Left(this->_Parent(_Wherenode)) = _Pnode;
; 2139 : 		else
; 2140 : 			this->_Right(this->_Parent(_Wherenode)) = _Pnode;
; 2141 : 
; 2142 : 		this->_Left(_Pnode) = _Wherenode;
; 2143 : 		this->_Parent(_Wherenode) = _Pnode;
; 2144 : 		}
; 2145 : 
; 2146 : 	_Nodeptr& _Rmost() const
; 2147 : 		{	// return rightmost node in nonmutable tree
; 2148 : 		return (this->_Right(this->_Myhead));
; 2149 : 		}
; 2150 : 
; 2151 : 	_Nodeptr& _Root() const
; 2152 : 		{	// return root of nonmutable tree
; 2153 : 		return (this->_Parent(this->_Myhead));
; 2154 : 		}
; 2155 : 
; 2156 : 	void _Rrotate(_Nodeptr _Wherenode)
; 2157 : 		{	// promote left node to root of subtree
; 2158 : 		_Nodeptr _Pnode = this->_Left(_Wherenode);
; 2159 : 		this->_Left(_Wherenode) = this->_Right(_Pnode);
; 2160 : 
; 2161 : 		if (!this->_Isnil(this->_Right(_Pnode)))
; 2162 : 			this->_Parent(this->_Right(_Pnode)) = _Wherenode;
; 2163 : 		this->_Parent(_Pnode) = this->_Parent(_Wherenode);
; 2164 : 
; 2165 : 		if (_Wherenode == _Root())
; 2166 : 			_Root() = _Pnode;
; 2167 : 		else if (_Wherenode == this->_Right(this->_Parent(_Wherenode)))
; 2168 : 			this->_Right(this->_Parent(_Wherenode)) = _Pnode;
; 2169 : 		else
; 2170 : 			this->_Left(this->_Parent(_Wherenode)) = _Pnode;
; 2171 : 
; 2172 : 		this->_Right(_Pnode) = _Wherenode;
; 2173 : 		this->_Parent(_Wherenode) = _Pnode;
; 2174 : 		}
; 2175 : 
; 2176 : 	_Nodeptr _Ubound(const key_type& _Keyval) const
; 2177 : 		{	// find leftmost node greater than _Keyval
; 2178 : 		_Nodeptr _Pnode = _Root();
; 2179 : 		_Nodeptr _Wherenode = this->_Myhead;	// end() if search fails
; 2180 : 
; 2181 : 		while (!this->_Isnil(_Pnode))
; 2182 : 			if (_DEBUG_LT_PRED(this->_Getcomp(), _Keyval, this->_Key(_Pnode)))
; 2183 : 				{	// _Pnode greater than _Keyval, remember it
; 2184 : 				_Wherenode = _Pnode;
; 2185 : 				_Pnode = this->_Left(_Pnode);	// descend left subtree
; 2186 : 				}
; 2187 : 			else
; 2188 : 				_Pnode = this->_Right(_Pnode);	// descend right subtree
; 2189 : 
; 2190 : 		return (_Wherenode);	// return best remembered candidate
; 2191 : 		}
; 2192 : 
; 2193 : 	_Nodeptr _Ubound(const key_type& _Keyval)
; 2194 : 		{	// find leftmost node greater than _Keyval
; 2195 : 		_Nodeptr _Pnode = _Root();
; 2196 : 		_Nodeptr _Wherenode = this->_Myhead;	// end() if search fails
; 2197 : 
; 2198 : 		while (!this->_Isnil(_Pnode))
; 2199 : 			if (_DEBUG_LT_PRED(this->_Getcomp(), _Keyval, this->_Key(_Pnode)))
; 2200 : 				{	// _Pnode greater than _Keyval, remember it
; 2201 : 				_Wherenode = _Pnode;
; 2202 : 				_Pnode = this->_Left(_Pnode);	// descend left subtree
; 2203 : 				}
; 2204 : 			else
; 2205 : 				_Pnode = this->_Right(_Pnode);	// descend right subtree
; 2206 : 
; 2207 : 		return (_Wherenode);	// return best remembered candidate
; 2208 : 		}
; 2209 : 
; 2210 :  #if _ITERATOR_DEBUG_LEVEL == 2
; 2211 : 	void _Orphan_ptr(_Myt& _Cont, _Nodeptr _Ptr) const
; 2212 : 		{	// orphan iterators with specified node pointers
; 2213 : 		_Lockit _Lock(_LOCK_DEBUG);
; 2214 : 		const_iterator **_Pnext = (const_iterator **)_Cont._Getpfirst();
; 2215 : 		if (_Pnext != 0)
; 2216 : 			while (*_Pnext != 0)
; 2217 : 				if ((*_Pnext)->_Ptr == this->_Myhead
; 2218 : 					|| _Ptr != 0 && (*_Pnext)->_Ptr != _Ptr)
; 2219 : 					_Pnext = (const_iterator **)(*_Pnext)->_Getpnext();
; 2220 : 				else
; 2221 : 					{	// orphan the iterator
; 2222 : 					(*_Pnext)->_Clrcont();
; 2223 : 					*_Pnext = *(const_iterator **)(*_Pnext)->_Getpnext();
; 2224 : 					}
; 2225 : 		}
; 2226 :  #endif /* _ITERATOR_DEBUG_LEVEL == 2 */
; 2227 : 
; 2228 : 	void _Tidy()
; 2229 : 		{	// free all storage
; 2230 : 		erase(begin(), end());

	mov	r9, r8
	mov	r8, QWORD PTR [r8]
	lea	rdx, QWORD PTR $T2[rsp]
	lea	rcx, QWORD PTR [rdi+8]
	call	?erase@?$_Tree@V?$_Tset_traits@PEAUstr_value@@Ustr_value_cmp@@V?$xalloc@PEAUstr_value@@@@$00@std@@@std@@QEAA?AV?$_Tree_const_iterator@V?$_Tree_val@U?$_Tree_simple_types@PEAUstr_value@@@std@@@std@@@2@V32@0@Z ; std::_Tree<std::_Tset_traits<str_value * __ptr64,str_value_cmp,xalloc<str_value * __ptr64>,1> >::erase
; File c:\program files (x86)\microsoft visual studio 12.0\vc\include\xmemory0

; 858  : 		_Mybase::deallocate(_Ptr, _Count);

	mov	rax, QWORD PTR [rdi+8]
; File c:\users\nummer\documents\github\olr-3.0\src\xray\xrcore\_stl_extensions.h

; 82   : 							void					deallocate		(pointer p, size_type n) const			{	xr_free	(p);				}

	lea	rcx, QWORD PTR p$1[rsp]
; File c:\program files (x86)\microsoft visual studio 12.0\vc\include\xmemory0

; 858  : 		_Mybase::deallocate(_Ptr, _Count);

	mov	QWORD PTR p$1[rsp], rax
; File c:\users\nummer\documents\github\olr-3.0\src\xray\xrcore\_stl_extensions.h

; 82   : 							void					deallocate		(pointer p, size_type n) const			{	xr_free	(p);				}

	call	??$xr_free@U?$_Tree_node@PEAUstr_value@@PEAX@std@@@@YAXAEAPEAU?$_Tree_node@PEAUstr_value@@PEAX@std@@@Z ; xr_free<std::_Tree_node<str_value * __ptr64,void * __ptr64> >
; File c:\users\nummer\documents\github\olr-3.0\src\xray\xrcore\xrsyncronize.cpp

; 46   : 	DeleteCriticalSection			( (CRITICAL_SECTION*)pmutex	);

	mov	rcx, QWORD PTR [rdi]
	call	QWORD PTR __imp_DeleteCriticalSection

; 47   : 	xr_free							( pmutex		);

	mov	rcx, rdi
; File c:\users\nummer\documents\github\olr-3.0\src\xray\xrcore\xrstring.cpp

; 159  : }

	mov	rbx, QWORD PTR [rsp+56]
	add	rsp, 32					; 00000020H
	pop	rdi
; File c:\users\nummer\documents\github\olr-3.0\src\xray\xrcore\xrsyncronize.cpp

; 47   : 	xr_free							( pmutex		);

	jmp	??$xr_free@X@@YAXAEAPEAX@Z		; xr_free<void>
??1str_container@@QEAA@XZ ENDP				; str_container::~str_container
_TEXT	ENDS
; Function compile flags: /Ogtpy
; File c:\users\nummer\documents\github\olr-3.0\src\xray\xrcore\xrstring.cpp
; File c:\users\nummer\documents\github\olr-3.0\src\xray\xrcore\xrsyncronize.cpp
; File c:\program files (x86)\microsoft visual studio 12.0\vc\include\xtree
; File c:\users\nummer\documents\github\olr-3.0\src\xray\xrcore\xrstring.cpp
; File c:\program files (x86)\microsoft visual studio 12.0\vc\include\xtree
; File c:\users\nummer\documents\github\olr-3.0\src\xray\xrcore\xrstring.cpp
; File c:\program files (x86)\microsoft visual studio 12.0\vc\include\xtree
; File c:\users\nummer\documents\github\olr-3.0\src\xray\xrcore\xrstring.cpp
; File c:\users\nummer\documents\github\olr-3.0\src\xray\xrcore\_std_extensions.h
; File c:\users\nummer\documents\github\olr-3.0\src\xray\xrcore\xrstring.cpp
; File c:\users\nummer\documents\github\olr-3.0\src\xray\xrcore\crc32.cpp
; File c:\users\nummer\documents\github\olr-3.0\src\xray\xrcore\xrstring.cpp
; File c:\users\nummer\documents\github\olr-3.0\src\xray\xrcore\xrmemory_subst_msvc.cpp
; File c:\users\nummer\documents\github\olr-3.0\src\xray\xrcore\xrmemory_align.cpp
; File c:\users\nummer\documents\github\olr-3.0\src\xray\xrcore\xrmemory_subst_msvc.cpp
; File c:\users\nummer\documents\github\olr-3.0\src\xray\xrcore\xrsyncronize.cpp
; File c:\users\nummer\documents\github\olr-3.0\src\xray\xrcore\xrmemory_pool.h
; File c:\users\nummer\documents\github\olr-3.0\src\xray\xrcore\xrsyncronize.cpp
; File c:\users\nummer\documents\github\olr-3.0\src\xray\xrcore\xrmemory_pool.h
; File c:\users\nummer\documents\github\olr-3.0\src\xray\xrcore\xrsyncronize.cpp
; File c:\users\nummer\documents\github\olr-3.0\src\xray\xrcore\xrstring.cpp
; File c:\program files (x86)\microsoft visual studio 12.0\vc\include\xtree
; File c:\users\nummer\documents\github\olr-3.0\src\xray\xrcore\xrstring.cpp
; File c:\program files (x86)\microsoft visual studio 12.0\vc\include\xtree
; File c:\users\nummer\documents\github\olr-3.0\src\xray\xrcore\xrstring.cpp
; File c:\program files (x86)\microsoft visual studio 12.0\vc\include\xtree
; File c:\users\nummer\documents\github\olr-3.0\src\xray\xrcore\xrsyncronize.cpp
; File c:\users\nummer\documents\github\olr-3.0\src\xray\xrcore\xrstring.cpp
; File c:\users\nummer\documents\github\olr-3.0\src\xray\xrcore\xrsyncronize.cpp
; File c:\users\nummer\documents\github\olr-3.0\src\xray\xrcore\xrstring.cpp
_TEXT	SEGMENT
$T1 = 80
this$ = 80
?clean@str_container@@QEAAXXZ PROC			; str_container::clean

; 72   : {

$LN155:
	push	r12
	push	r15
	sub	rsp, 56					; 00000038H
	mov	r12, rcx
; File c:\users\nummer\documents\github\olr-3.0\src\xray\xrcore\xrsyncronize.cpp

; 64   : 	EnterCriticalSection			( (CRITICAL_SECTION*)pmutex );

	mov	rcx, QWORD PTR [rcx]
	mov	QWORD PTR [rsp+88], rbx
	call	QWORD PTR __imp_EnterCriticalSection
; File c:\program files (x86)\microsoft visual studio 12.0\vc\include\xtree

; 589  : 		return ((_Nodepref)_Pnode->_Left);

	mov	rax, QWORD PTR [r12+8]

; 44   : 		{	// construct with node pointer _Pnode

	mov	rbx, QWORD PTR [rax]

; 336  : 		return (this->_Ptr == _Right._Ptr);

	cmp	rbx, rax
; File c:\users\nummer\documents\github\olr-3.0\src\xray\xrcore\xrstring.cpp

; 74   : 	for (auto it = container.begin(); it != container.end(); )	

	je	$LN7@clean
	mov	QWORD PTR [rsp+96], rbp
	mov	QWORD PTR [rsp+104], rsi
	mov	QWORD PTR [rsp+48], rdi
	mov	QWORD PTR [rsp+40], r13
	mov	QWORD PTR [rsp+32], r14
	lea	r13, OFFSET FLAT:__ImageBase
	npad	6
$LL8@clean:
; File c:\program files (x86)\microsoft visual studio 12.0\vc\include\xtree

; 60   : 		if (_Mytree::_Isnil(_Ptr))

	cmp	BYTE PTR [rbx+25], 0
; File c:\users\nummer\documents\github\olr-3.0\src\xray\xrcore\xrstring.cpp

; 76   : 		auto	sv		= *it;

	mov	r14, QWORD PTR [rbx+32]
; File c:\program files (x86)\microsoft visual studio 12.0\vc\include\xtree

; 277  : 		_Myiter _Tmp = *this;

	mov	rdi, rbx

; 60   : 		if (_Mytree::_Isnil(_Ptr))

	jne	SHORT $LN47@clean

; 337  : 		}
; 338  : 
; 339  : 	bool operator!=(const _Myiter& _Right) const
; 340  : 		{	// test for iterator inequality
; 341  : 		return (!(*this == _Right));
; 342  : 		}
; 343  : 	};
; 344  : 
; 345  : template<class _Mytree> inline
; 346  : 	typename _Tree_const_iterator<_Mytree>::_Unchecked_type
; 347  : 		_Unchecked(_Tree_const_iterator<_Mytree> _Iter)
; 348  : 	{	// convert to unchecked
; 349  : 	return (_Iter._Unchecked());
; 350  : 	}
; 351  : 
; 352  : template<class _Mytree> inline
; 353  : 	_Tree_const_iterator<_Mytree>&
; 354  : 		_Rechecked(_Tree_const_iterator<_Mytree>& _Iter,
; 355  : 			typename _Tree_const_iterator<_Mytree>
; 356  : 				::_Unchecked_type _Right)
; 357  : 	{	// convert to checked
; 358  : 	return (_Iter._Rechecked(_Right));
; 359  : 	}
; 360  : 
; 361  : 	// TEMPLATE CLASS _Tree_iterator
; 362  : template<class _Mytree>
; 363  : 	class _Tree_iterator
; 364  : 		: public _Tree_const_iterator<_Mytree>
; 365  : 	{	// iterator for mutable tree
; 366  : public:
; 367  : 	typedef _Tree_iterator<_Mytree> _Myiter;
; 368  : 	typedef _Tree_const_iterator<_Mytree> _Mybase;
; 369  : 	typedef bidirectional_iterator_tag iterator_category;
; 370  : 
; 371  : 	typedef typename _Mytree::_Nodeptr _Nodeptr;
; 372  : 	typedef typename _Mytree::value_type value_type;
; 373  : 	typedef typename _Mytree::difference_type difference_type;
; 374  : 
; 375  : 	typedef typename _Mytree::pointer pointer;
; 376  : 	typedef typename _Mytree::reference reference;
; 377  : 
; 378  : 	_Tree_iterator()
; 379  : 		{	// construct with null node
; 380  : 		}
; 381  : 
; 382  : 	_Tree_iterator(_Nodeptr _Pnode, const _Mytree *_Plist)
; 383  : 		: _Mybase(_Pnode, _Plist)
; 384  : 		{	// construct with node pointer _Pnode
; 385  : 		}
; 386  : 
; 387  : 	typedef _Tree_unchecked_iterator<_Mytree> _Unchecked_type;
; 388  : 
; 389  : 	_Myiter& _Rechecked(_Unchecked_type _Right)
; 390  : 		{	// reset from unchecked iterator
; 391  : 		this->_Ptr = _Right._Ptr;
; 392  : 		return (*this);
; 393  : 		}
; 394  : 
; 395  : 	_Unchecked_type _Unchecked() const
; 396  : 		{	// make an unchecked iterator
; 397  : 		return (_Unchecked_type(this->_Ptr, (_Mytree *)this->_Getcont()));
; 398  : 		}
; 399  : 
; 400  : 	reference operator*() const
; 401  : 		{	// return designated value
; 402  : 		return ((reference)**(_Mybase *)this);
; 403  : 		}
; 404  : 
; 405  : 	pointer operator->() const
; 406  : 		{	// return pointer to class object
; 407  : 		return (_STD pointer_traits<pointer>::pointer_to(**this));
; 408  : 		}
; 409  : 
; 410  : 	_Myiter& operator++()
; 411  : 		{	// preincrement
; 412  : 		++(*(_Mybase *)this);
; 413  : 		return (*this);
; 414  : 		}
; 415  : 
; 416  : 	_Myiter operator++(int)
; 417  : 		{	// postincrement
; 418  : 		_Myiter _Tmp = *this;
; 419  : 		++*this;
; 420  : 		return (_Tmp);
; 421  : 		}
; 422  : 
; 423  : 	_Myiter& operator--()
; 424  : 		{	// predecrement
; 425  : 		--(*(_Mybase *)this);
; 426  : 		return (*this);
; 427  : 		}
; 428  : 
; 429  : 	_Myiter operator--(int)
; 430  : 		{	// postdecrement
; 431  : 		_Myiter _Tmp = *this;
; 432  : 		--*this;
; 433  : 		return (_Tmp);
; 434  : 		}
; 435  : 	};
; 436  : 
; 437  : template<class _Mytree> inline
; 438  : 	typename _Tree_iterator<_Mytree>::_Unchecked_type
; 439  : 		_Unchecked(_Tree_iterator<_Mytree> _Iter)
; 440  : 	{	// convert to unchecked
; 441  : 	return (_Iter._Unchecked());
; 442  : 	}
; 443  : 
; 444  : template<class _Mytree> inline
; 445  : 	_Tree_iterator<_Mytree>&
; 446  : 		_Rechecked(_Tree_iterator<_Mytree>& _Iter,
; 447  : 			typename _Tree_iterator<_Mytree>
; 448  : 				::_Unchecked_type _Right)
; 449  : 	{	// convert to checked
; 450  : 	return (_Iter._Rechecked(_Right));
; 451  : 	}
; 452  : 
; 453  : 		// tree TYPE WRAPPERS
; 454  : template<class _Value_type,
; 455  : 	class _Size_type,
; 456  : 	class _Difference_type,
; 457  : 	class _Pointer,
; 458  : 	class _Const_pointer,
; 459  : 	class _Reference,
; 460  : 	class _Const_reference,
; 461  : 	class _Nodeptr_type>
; 462  : 	struct _Tree_iter_types
; 463  : 	{	// wraps types needed by iterators
; 464  : 	typedef _Value_type value_type;
; 465  : 	typedef _Size_type size_type;
; 466  : 	typedef _Difference_type difference_type;
; 467  : 	typedef _Pointer pointer;
; 468  : 	typedef _Const_pointer const_pointer;
; 469  : 	typedef _Reference reference;
; 470  : 	typedef _Const_reference const_reference;
; 471  : 	typedef _Nodeptr_type _Nodeptr;
; 472  : 	};
; 473  : 
; 474  : template<class _Value_type,
; 475  : 	class _Voidptr>
; 476  : 	struct _Tree_node
; 477  : 		{	// tree node
; 478  : 		_Voidptr _Left;	// left subtree, or smallest element if head
; 479  : 		_Voidptr _Parent;	// parent, or root of tree if head
; 480  : 		_Voidptr _Right;	// right subtree, or largest element if head
; 481  : 		char _Color;	// _Red or _Black, _Black if head
; 482  : 		char _Isnil;	// true only if head (also nil) node
; 483  : 		_Value_type _Myval;	// the stored value, unused if head
; 484  : 
; 485  : 	private:
; 486  : 		_Tree_node& operator=(const _Tree_node&);
; 487  : 		};
; 488  : 
; 489  : template<class _Value_type>
; 490  : 	struct _Tree_node<_Value_type, void *>
; 491  : 		{	// tree node
; 492  : 		typedef _Tree_node<_Value_type, void *> *_Nodeptr;
; 493  : 		_Nodeptr _Left;	// left subtree, or smallest element if head
; 494  : 		_Nodeptr _Parent;	// parent, or root of tree if head
; 495  : 		_Nodeptr _Right;	// right subtree, or largest element if head
; 496  : 		char _Color;	// _Red or _Black, _Black if head
; 497  : 		char _Isnil;	// true only if head (also nil) node
; 498  : 		_Value_type _Myval;	// the stored value, unused if head
; 499  : 
; 500  : 	private:
; 501  : 		_Tree_node& operator=(const _Tree_node&);
; 502  : 		};
; 503  : 
; 504  : template<class _Ty>
; 505  : 	struct _Tree_simple_types
; 506  : 		: public _Simple_types<_Ty>
; 507  : 	{	// wraps types needed by iterators
; 508  : 	typedef _Tree_node<_Ty, void *> _Node;
; 509  : 	typedef _Node *_Nodeptr;
; 510  : 	};
; 511  : 
; 512  : template<class _Ty,
; 513  : 	class _Alloc0>
; 514  : 	struct _Tree_base_types
; 515  : 	{	// types needed for a container base
; 516  : 	typedef _Alloc0 _Alloc;
; 517  : 	typedef _Tree_base_types<_Ty, _Alloc> _Myt;
; 518  : 
; 519  : 	typedef _Wrap_alloc<_Alloc> _Alty0;
; 520  : 	typedef typename _Alty0::template rebind<_Ty>::other _Alty;
; 521  : 
; 522  : 
; 523  : 	typedef typename _Get_voidptr<_Alty, typename _Alty::pointer>::type
; 524  : 		_Voidptr;
; 525  : 	typedef _Tree_node<typename _Alty::value_type,
; 526  : 		_Voidptr> _Node;
; 527  : 
; 528  : 	typedef typename _Alty::template rebind<_Node>::other _Alnod_type;
; 529  : 	typedef typename _Alnod_type::pointer _Nodeptr;
; 530  : 	typedef _Nodeptr& _Nodepref;
; 531  : 
; 532  : 	typedef typename _If<_Is_simple_alloc<_Alty>::value,
; 533  : 		_Tree_simple_types<typename _Alty::value_type>,
; 534  : 		_Tree_iter_types<typename _Alty::value_type,
; 535  : 			typename _Alty::size_type,
; 536  : 			typename _Alty::difference_type,
; 537  : 			typename _Alty::pointer,
; 538  : 			typename _Alty::const_pointer,
; 539  : 			typename _Alty::reference,
; 540  : 			typename _Alty::const_reference,
; 541  : 			_Nodeptr> >::type
; 542  : 		_Val_types;
; 543  : 	};
; 544  : 
; 545  : 		// TEMPLATE CLASS _Tree_val
; 546  : template<class _Val_types>
; 547  : 	class _Tree_val
; 548  : 		: public _Container_base
; 549  : 	{	// base class for tree to hold data
; 550  : public:
; 551  : 	typedef _Tree_val<_Val_types> _Myt;
; 552  : 
; 553  : 	typedef typename _Val_types::_Nodeptr _Nodeptr;
; 554  : 	typedef _Nodeptr& _Nodepref;
; 555  : 
; 556  : 	typedef typename _Val_types::value_type value_type;
; 557  : 	typedef typename _Val_types::size_type size_type;
; 558  : 	typedef typename _Val_types::difference_type difference_type;
; 559  : 	typedef typename _Val_types::pointer pointer;
; 560  : 	typedef typename _Val_types::const_pointer const_pointer;
; 561  : 	typedef typename _Val_types::reference reference;
; 562  : 	typedef typename _Val_types::const_reference const_reference;
; 563  : 
; 564  : 	typedef _Tree_const_iterator<_Myt> const_iterator;
; 565  : 	typedef _Tree_iterator<_Myt> iterator;
; 566  : 
; 567  : 	_Tree_val()
; 568  : 		{	// initialize data
; 569  : 		this->_Myhead = 0;
; 570  : 		this->_Mysize = 0;
; 571  : 		}
; 572  : 
; 573  : 	enum _Redbl
; 574  : 		{	// colors for link to parent
; 575  : 		_Red, _Black};
; 576  : 
; 577  : 	static char& _Color(_Nodeptr _Pnode)
; 578  : 		{	// return reference to color in node
; 579  : 		return ((char&)_Pnode->_Color);
; 580  : 		}
; 581  : 
; 582  : 	static char& _Isnil(_Nodeptr _Pnode)
; 583  : 		{	// return reference to nil flag in node
; 584  : 		return ((char&)_Pnode->_Isnil);

	mov	rax, QWORD PTR [rbx+16]

; 61   : 			;	// end() shouldn't be incremented, don't move
; 62   : 		else if (!_Mytree::_Isnil(_Mytree::_Right(_Ptr)))

	cmp	BYTE PTR [rax+25], 0
	jne	SHORT $LN138@clean

; 63   : 			_Ptr = _Mytree::_Min(
; 64   : 				_Mytree::_Right(_Ptr));	// ==> smallest of right subtree

	mov	rbx, rax

; 337  : 		}
; 338  : 
; 339  : 	bool operator!=(const _Myiter& _Right) const
; 340  : 		{	// test for iterator inequality
; 341  : 		return (!(*this == _Right));
; 342  : 		}
; 343  : 	};
; 344  : 
; 345  : template<class _Mytree> inline
; 346  : 	typename _Tree_const_iterator<_Mytree>::_Unchecked_type
; 347  : 		_Unchecked(_Tree_const_iterator<_Mytree> _Iter)
; 348  : 	{	// convert to unchecked
; 349  : 	return (_Iter._Unchecked());
; 350  : 	}
; 351  : 
; 352  : template<class _Mytree> inline
; 353  : 	_Tree_const_iterator<_Mytree>&
; 354  : 		_Rechecked(_Tree_const_iterator<_Mytree>& _Iter,
; 355  : 			typename _Tree_const_iterator<_Mytree>
; 356  : 				::_Unchecked_type _Right)
; 357  : 	{	// convert to checked
; 358  : 	return (_Iter._Rechecked(_Right));
; 359  : 	}
; 360  : 
; 361  : 	// TEMPLATE CLASS _Tree_iterator
; 362  : template<class _Mytree>
; 363  : 	class _Tree_iterator
; 364  : 		: public _Tree_const_iterator<_Mytree>
; 365  : 	{	// iterator for mutable tree
; 366  : public:
; 367  : 	typedef _Tree_iterator<_Mytree> _Myiter;
; 368  : 	typedef _Tree_const_iterator<_Mytree> _Mybase;
; 369  : 	typedef bidirectional_iterator_tag iterator_category;
; 370  : 
; 371  : 	typedef typename _Mytree::_Nodeptr _Nodeptr;
; 372  : 	typedef typename _Mytree::value_type value_type;
; 373  : 	typedef typename _Mytree::difference_type difference_type;
; 374  : 
; 375  : 	typedef typename _Mytree::pointer pointer;
; 376  : 	typedef typename _Mytree::reference reference;
; 377  : 
; 378  : 	_Tree_iterator()
; 379  : 		{	// construct with null node
; 380  : 		}
; 381  : 
; 382  : 	_Tree_iterator(_Nodeptr _Pnode, const _Mytree *_Plist)
; 383  : 		: _Mybase(_Pnode, _Plist)
; 384  : 		{	// construct with node pointer _Pnode
; 385  : 		}
; 386  : 
; 387  : 	typedef _Tree_unchecked_iterator<_Mytree> _Unchecked_type;
; 388  : 
; 389  : 	_Myiter& _Rechecked(_Unchecked_type _Right)
; 390  : 		{	// reset from unchecked iterator
; 391  : 		this->_Ptr = _Right._Ptr;
; 392  : 		return (*this);
; 393  : 		}
; 394  : 
; 395  : 	_Unchecked_type _Unchecked() const
; 396  : 		{	// make an unchecked iterator
; 397  : 		return (_Unchecked_type(this->_Ptr, (_Mytree *)this->_Getcont()));
; 398  : 		}
; 399  : 
; 400  : 	reference operator*() const
; 401  : 		{	// return designated value
; 402  : 		return ((reference)**(_Mybase *)this);
; 403  : 		}
; 404  : 
; 405  : 	pointer operator->() const
; 406  : 		{	// return pointer to class object
; 407  : 		return (_STD pointer_traits<pointer>::pointer_to(**this));
; 408  : 		}
; 409  : 
; 410  : 	_Myiter& operator++()
; 411  : 		{	// preincrement
; 412  : 		++(*(_Mybase *)this);
; 413  : 		return (*this);
; 414  : 		}
; 415  : 
; 416  : 	_Myiter operator++(int)
; 417  : 		{	// postincrement
; 418  : 		_Myiter _Tmp = *this;
; 419  : 		++*this;
; 420  : 		return (_Tmp);
; 421  : 		}
; 422  : 
; 423  : 	_Myiter& operator--()
; 424  : 		{	// predecrement
; 425  : 		--(*(_Mybase *)this);
; 426  : 		return (*this);
; 427  : 		}
; 428  : 
; 429  : 	_Myiter operator--(int)
; 430  : 		{	// postdecrement
; 431  : 		_Myiter _Tmp = *this;
; 432  : 		--*this;
; 433  : 		return (_Tmp);
; 434  : 		}
; 435  : 	};
; 436  : 
; 437  : template<class _Mytree> inline
; 438  : 	typename _Tree_iterator<_Mytree>::_Unchecked_type
; 439  : 		_Unchecked(_Tree_iterator<_Mytree> _Iter)
; 440  : 	{	// convert to unchecked
; 441  : 	return (_Iter._Unchecked());
; 442  : 	}
; 443  : 
; 444  : template<class _Mytree> inline
; 445  : 	_Tree_iterator<_Mytree>&
; 446  : 		_Rechecked(_Tree_iterator<_Mytree>& _Iter,
; 447  : 			typename _Tree_iterator<_Mytree>
; 448  : 				::_Unchecked_type _Right)
; 449  : 	{	// convert to checked
; 450  : 	return (_Iter._Rechecked(_Right));
; 451  : 	}
; 452  : 
; 453  : 		// tree TYPE WRAPPERS
; 454  : template<class _Value_type,
; 455  : 	class _Size_type,
; 456  : 	class _Difference_type,
; 457  : 	class _Pointer,
; 458  : 	class _Const_pointer,
; 459  : 	class _Reference,
; 460  : 	class _Const_reference,
; 461  : 	class _Nodeptr_type>
; 462  : 	struct _Tree_iter_types
; 463  : 	{	// wraps types needed by iterators
; 464  : 	typedef _Value_type value_type;
; 465  : 	typedef _Size_type size_type;
; 466  : 	typedef _Difference_type difference_type;
; 467  : 	typedef _Pointer pointer;
; 468  : 	typedef _Const_pointer const_pointer;
; 469  : 	typedef _Reference reference;
; 470  : 	typedef _Const_reference const_reference;
; 471  : 	typedef _Nodeptr_type _Nodeptr;
; 472  : 	};
; 473  : 
; 474  : template<class _Value_type,
; 475  : 	class _Voidptr>
; 476  : 	struct _Tree_node
; 477  : 		{	// tree node
; 478  : 		_Voidptr _Left;	// left subtree, or smallest element if head
; 479  : 		_Voidptr _Parent;	// parent, or root of tree if head
; 480  : 		_Voidptr _Right;	// right subtree, or largest element if head
; 481  : 		char _Color;	// _Red or _Black, _Black if head
; 482  : 		char _Isnil;	// true only if head (also nil) node
; 483  : 		_Value_type _Myval;	// the stored value, unused if head
; 484  : 
; 485  : 	private:
; 486  : 		_Tree_node& operator=(const _Tree_node&);
; 487  : 		};
; 488  : 
; 489  : template<class _Value_type>
; 490  : 	struct _Tree_node<_Value_type, void *>
; 491  : 		{	// tree node
; 492  : 		typedef _Tree_node<_Value_type, void *> *_Nodeptr;
; 493  : 		_Nodeptr _Left;	// left subtree, or smallest element if head
; 494  : 		_Nodeptr _Parent;	// parent, or root of tree if head
; 495  : 		_Nodeptr _Right;	// right subtree, or largest element if head
; 496  : 		char _Color;	// _Red or _Black, _Black if head
; 497  : 		char _Isnil;	// true only if head (also nil) node
; 498  : 		_Value_type _Myval;	// the stored value, unused if head
; 499  : 
; 500  : 	private:
; 501  : 		_Tree_node& operator=(const _Tree_node&);
; 502  : 		};
; 503  : 
; 504  : template<class _Ty>
; 505  : 	struct _Tree_simple_types
; 506  : 		: public _Simple_types<_Ty>
; 507  : 	{	// wraps types needed by iterators
; 508  : 	typedef _Tree_node<_Ty, void *> _Node;
; 509  : 	typedef _Node *_Nodeptr;
; 510  : 	};
; 511  : 
; 512  : template<class _Ty,
; 513  : 	class _Alloc0>
; 514  : 	struct _Tree_base_types
; 515  : 	{	// types needed for a container base
; 516  : 	typedef _Alloc0 _Alloc;
; 517  : 	typedef _Tree_base_types<_Ty, _Alloc> _Myt;
; 518  : 
; 519  : 	typedef _Wrap_alloc<_Alloc> _Alty0;
; 520  : 	typedef typename _Alty0::template rebind<_Ty>::other _Alty;
; 521  : 
; 522  : 
; 523  : 	typedef typename _Get_voidptr<_Alty, typename _Alty::pointer>::type
; 524  : 		_Voidptr;
; 525  : 	typedef _Tree_node<typename _Alty::value_type,
; 526  : 		_Voidptr> _Node;
; 527  : 
; 528  : 	typedef typename _Alty::template rebind<_Node>::other _Alnod_type;
; 529  : 	typedef typename _Alnod_type::pointer _Nodeptr;
; 530  : 	typedef _Nodeptr& _Nodepref;
; 531  : 
; 532  : 	typedef typename _If<_Is_simple_alloc<_Alty>::value,
; 533  : 		_Tree_simple_types<typename _Alty::value_type>,
; 534  : 		_Tree_iter_types<typename _Alty::value_type,
; 535  : 			typename _Alty::size_type,
; 536  : 			typename _Alty::difference_type,
; 537  : 			typename _Alty::pointer,
; 538  : 			typename _Alty::const_pointer,
; 539  : 			typename _Alty::reference,
; 540  : 			typename _Alty::const_reference,
; 541  : 			_Nodeptr> >::type
; 542  : 		_Val_types;
; 543  : 	};
; 544  : 
; 545  : 		// TEMPLATE CLASS _Tree_val
; 546  : template<class _Val_types>
; 547  : 	class _Tree_val
; 548  : 		: public _Container_base
; 549  : 	{	// base class for tree to hold data
; 550  : public:
; 551  : 	typedef _Tree_val<_Val_types> _Myt;
; 552  : 
; 553  : 	typedef typename _Val_types::_Nodeptr _Nodeptr;
; 554  : 	typedef _Nodeptr& _Nodepref;
; 555  : 
; 556  : 	typedef typename _Val_types::value_type value_type;
; 557  : 	typedef typename _Val_types::size_type size_type;
; 558  : 	typedef typename _Val_types::difference_type difference_type;
; 559  : 	typedef typename _Val_types::pointer pointer;
; 560  : 	typedef typename _Val_types::const_pointer const_pointer;
; 561  : 	typedef typename _Val_types::reference reference;
; 562  : 	typedef typename _Val_types::const_reference const_reference;
; 563  : 
; 564  : 	typedef _Tree_const_iterator<_Myt> const_iterator;
; 565  : 	typedef _Tree_iterator<_Myt> iterator;
; 566  : 
; 567  : 	_Tree_val()
; 568  : 		{	// initialize data
; 569  : 		this->_Myhead = 0;
; 570  : 		this->_Mysize = 0;
; 571  : 		}
; 572  : 
; 573  : 	enum _Redbl
; 574  : 		{	// colors for link to parent
; 575  : 		_Red, _Black};
; 576  : 
; 577  : 	static char& _Color(_Nodeptr _Pnode)
; 578  : 		{	// return reference to color in node
; 579  : 		return ((char&)_Pnode->_Color);
; 580  : 		}
; 581  : 
; 582  : 	static char& _Isnil(_Nodeptr _Pnode)
; 583  : 		{	// return reference to nil flag in node
; 584  : 		return ((char&)_Pnode->_Isnil);

	mov	rax, QWORD PTR [rax]

; 600  : 		}
; 601  : 
; 602  : 	static reference _Myval(_Nodeptr _Pnode)
; 603  : 		{	// return reference to value in node
; 604  : 		return ((reference)_Pnode->_Myval);
; 605  : 		}
; 606  : 
; 607  : 	static _Nodeptr _Max(_Nodeptr _Pnode)
; 608  : 		{	// return rightmost node in subtree at _Pnode
; 609  : 		while (!_Isnil(_Right(_Pnode)))
; 610  : 			_Pnode = _Right(_Pnode);
; 611  : 		return (_Pnode);
; 612  : 		}
; 613  : 
; 614  : 	static _Nodeptr _Min(_Nodeptr _Pnode)
; 615  : 		{	// return leftmost node in subtree at _Pnode
; 616  : 		while (!_Isnil(_Left(_Pnode)))

	cmp	BYTE PTR [rax+25], 0
	jne	SHORT $LN47@clean
$LL62@clean:

; 617  : 			_Pnode = _Left(_Pnode);

	mov	rbx, rax

; 337  : 		}
; 338  : 
; 339  : 	bool operator!=(const _Myiter& _Right) const
; 340  : 		{	// test for iterator inequality
; 341  : 		return (!(*this == _Right));
; 342  : 		}
; 343  : 	};
; 344  : 
; 345  : template<class _Mytree> inline
; 346  : 	typename _Tree_const_iterator<_Mytree>::_Unchecked_type
; 347  : 		_Unchecked(_Tree_const_iterator<_Mytree> _Iter)
; 348  : 	{	// convert to unchecked
; 349  : 	return (_Iter._Unchecked());
; 350  : 	}
; 351  : 
; 352  : template<class _Mytree> inline
; 353  : 	_Tree_const_iterator<_Mytree>&
; 354  : 		_Rechecked(_Tree_const_iterator<_Mytree>& _Iter,
; 355  : 			typename _Tree_const_iterator<_Mytree>
; 356  : 				::_Unchecked_type _Right)
; 357  : 	{	// convert to checked
; 358  : 	return (_Iter._Rechecked(_Right));
; 359  : 	}
; 360  : 
; 361  : 	// TEMPLATE CLASS _Tree_iterator
; 362  : template<class _Mytree>
; 363  : 	class _Tree_iterator
; 364  : 		: public _Tree_const_iterator<_Mytree>
; 365  : 	{	// iterator for mutable tree
; 366  : public:
; 367  : 	typedef _Tree_iterator<_Mytree> _Myiter;
; 368  : 	typedef _Tree_const_iterator<_Mytree> _Mybase;
; 369  : 	typedef bidirectional_iterator_tag iterator_category;
; 370  : 
; 371  : 	typedef typename _Mytree::_Nodeptr _Nodeptr;
; 372  : 	typedef typename _Mytree::value_type value_type;
; 373  : 	typedef typename _Mytree::difference_type difference_type;
; 374  : 
; 375  : 	typedef typename _Mytree::pointer pointer;
; 376  : 	typedef typename _Mytree::reference reference;
; 377  : 
; 378  : 	_Tree_iterator()
; 379  : 		{	// construct with null node
; 380  : 		}
; 381  : 
; 382  : 	_Tree_iterator(_Nodeptr _Pnode, const _Mytree *_Plist)
; 383  : 		: _Mybase(_Pnode, _Plist)
; 384  : 		{	// construct with node pointer _Pnode
; 385  : 		}
; 386  : 
; 387  : 	typedef _Tree_unchecked_iterator<_Mytree> _Unchecked_type;
; 388  : 
; 389  : 	_Myiter& _Rechecked(_Unchecked_type _Right)
; 390  : 		{	// reset from unchecked iterator
; 391  : 		this->_Ptr = _Right._Ptr;
; 392  : 		return (*this);
; 393  : 		}
; 394  : 
; 395  : 	_Unchecked_type _Unchecked() const
; 396  : 		{	// make an unchecked iterator
; 397  : 		return (_Unchecked_type(this->_Ptr, (_Mytree *)this->_Getcont()));
; 398  : 		}
; 399  : 
; 400  : 	reference operator*() const
; 401  : 		{	// return designated value
; 402  : 		return ((reference)**(_Mybase *)this);
; 403  : 		}
; 404  : 
; 405  : 	pointer operator->() const
; 406  : 		{	// return pointer to class object
; 407  : 		return (_STD pointer_traits<pointer>::pointer_to(**this));
; 408  : 		}
; 409  : 
; 410  : 	_Myiter& operator++()
; 411  : 		{	// preincrement
; 412  : 		++(*(_Mybase *)this);
; 413  : 		return (*this);
; 414  : 		}
; 415  : 
; 416  : 	_Myiter operator++(int)
; 417  : 		{	// postincrement
; 418  : 		_Myiter _Tmp = *this;
; 419  : 		++*this;
; 420  : 		return (_Tmp);
; 421  : 		}
; 422  : 
; 423  : 	_Myiter& operator--()
; 424  : 		{	// predecrement
; 425  : 		--(*(_Mybase *)this);
; 426  : 		return (*this);
; 427  : 		}
; 428  : 
; 429  : 	_Myiter operator--(int)
; 430  : 		{	// postdecrement
; 431  : 		_Myiter _Tmp = *this;
; 432  : 		--*this;
; 433  : 		return (_Tmp);
; 434  : 		}
; 435  : 	};
; 436  : 
; 437  : template<class _Mytree> inline
; 438  : 	typename _Tree_iterator<_Mytree>::_Unchecked_type
; 439  : 		_Unchecked(_Tree_iterator<_Mytree> _Iter)
; 440  : 	{	// convert to unchecked
; 441  : 	return (_Iter._Unchecked());
; 442  : 	}
; 443  : 
; 444  : template<class _Mytree> inline
; 445  : 	_Tree_iterator<_Mytree>&
; 446  : 		_Rechecked(_Tree_iterator<_Mytree>& _Iter,
; 447  : 			typename _Tree_iterator<_Mytree>
; 448  : 				::_Unchecked_type _Right)
; 449  : 	{	// convert to checked
; 450  : 	return (_Iter._Rechecked(_Right));
; 451  : 	}
; 452  : 
; 453  : 		// tree TYPE WRAPPERS
; 454  : template<class _Value_type,
; 455  : 	class _Size_type,
; 456  : 	class _Difference_type,
; 457  : 	class _Pointer,
; 458  : 	class _Const_pointer,
; 459  : 	class _Reference,
; 460  : 	class _Const_reference,
; 461  : 	class _Nodeptr_type>
; 462  : 	struct _Tree_iter_types
; 463  : 	{	// wraps types needed by iterators
; 464  : 	typedef _Value_type value_type;
; 465  : 	typedef _Size_type size_type;
; 466  : 	typedef _Difference_type difference_type;
; 467  : 	typedef _Pointer pointer;
; 468  : 	typedef _Const_pointer const_pointer;
; 469  : 	typedef _Reference reference;
; 470  : 	typedef _Const_reference const_reference;
; 471  : 	typedef _Nodeptr_type _Nodeptr;
; 472  : 	};
; 473  : 
; 474  : template<class _Value_type,
; 475  : 	class _Voidptr>
; 476  : 	struct _Tree_node
; 477  : 		{	// tree node
; 478  : 		_Voidptr _Left;	// left subtree, or smallest element if head
; 479  : 		_Voidptr _Parent;	// parent, or root of tree if head
; 480  : 		_Voidptr _Right;	// right subtree, or largest element if head
; 481  : 		char _Color;	// _Red or _Black, _Black if head
; 482  : 		char _Isnil;	// true only if head (also nil) node
; 483  : 		_Value_type _Myval;	// the stored value, unused if head
; 484  : 
; 485  : 	private:
; 486  : 		_Tree_node& operator=(const _Tree_node&);
; 487  : 		};
; 488  : 
; 489  : template<class _Value_type>
; 490  : 	struct _Tree_node<_Value_type, void *>
; 491  : 		{	// tree node
; 492  : 		typedef _Tree_node<_Value_type, void *> *_Nodeptr;
; 493  : 		_Nodeptr _Left;	// left subtree, or smallest element if head
; 494  : 		_Nodeptr _Parent;	// parent, or root of tree if head
; 495  : 		_Nodeptr _Right;	// right subtree, or largest element if head
; 496  : 		char _Color;	// _Red or _Black, _Black if head
; 497  : 		char _Isnil;	// true only if head (also nil) node
; 498  : 		_Value_type _Myval;	// the stored value, unused if head
; 499  : 
; 500  : 	private:
; 501  : 		_Tree_node& operator=(const _Tree_node&);
; 502  : 		};
; 503  : 
; 504  : template<class _Ty>
; 505  : 	struct _Tree_simple_types
; 506  : 		: public _Simple_types<_Ty>
; 507  : 	{	// wraps types needed by iterators
; 508  : 	typedef _Tree_node<_Ty, void *> _Node;
; 509  : 	typedef _Node *_Nodeptr;
; 510  : 	};
; 511  : 
; 512  : template<class _Ty,
; 513  : 	class _Alloc0>
; 514  : 	struct _Tree_base_types
; 515  : 	{	// types needed for a container base
; 516  : 	typedef _Alloc0 _Alloc;
; 517  : 	typedef _Tree_base_types<_Ty, _Alloc> _Myt;
; 518  : 
; 519  : 	typedef _Wrap_alloc<_Alloc> _Alty0;
; 520  : 	typedef typename _Alty0::template rebind<_Ty>::other _Alty;
; 521  : 
; 522  : 
; 523  : 	typedef typename _Get_voidptr<_Alty, typename _Alty::pointer>::type
; 524  : 		_Voidptr;
; 525  : 	typedef _Tree_node<typename _Alty::value_type,
; 526  : 		_Voidptr> _Node;
; 527  : 
; 528  : 	typedef typename _Alty::template rebind<_Node>::other _Alnod_type;
; 529  : 	typedef typename _Alnod_type::pointer _Nodeptr;
; 530  : 	typedef _Nodeptr& _Nodepref;
; 531  : 
; 532  : 	typedef typename _If<_Is_simple_alloc<_Alty>::value,
; 533  : 		_Tree_simple_types<typename _Alty::value_type>,
; 534  : 		_Tree_iter_types<typename _Alty::value_type,
; 535  : 			typename _Alty::size_type,
; 536  : 			typename _Alty::difference_type,
; 537  : 			typename _Alty::pointer,
; 538  : 			typename _Alty::const_pointer,
; 539  : 			typename _Alty::reference,
; 540  : 			typename _Alty::const_reference,
; 541  : 			_Nodeptr> >::type
; 542  : 		_Val_types;
; 543  : 	};
; 544  : 
; 545  : 		// TEMPLATE CLASS _Tree_val
; 546  : template<class _Val_types>
; 547  : 	class _Tree_val
; 548  : 		: public _Container_base
; 549  : 	{	// base class for tree to hold data
; 550  : public:
; 551  : 	typedef _Tree_val<_Val_types> _Myt;
; 552  : 
; 553  : 	typedef typename _Val_types::_Nodeptr _Nodeptr;
; 554  : 	typedef _Nodeptr& _Nodepref;
; 555  : 
; 556  : 	typedef typename _Val_types::value_type value_type;
; 557  : 	typedef typename _Val_types::size_type size_type;
; 558  : 	typedef typename _Val_types::difference_type difference_type;
; 559  : 	typedef typename _Val_types::pointer pointer;
; 560  : 	typedef typename _Val_types::const_pointer const_pointer;
; 561  : 	typedef typename _Val_types::reference reference;
; 562  : 	typedef typename _Val_types::const_reference const_reference;
; 563  : 
; 564  : 	typedef _Tree_const_iterator<_Myt> const_iterator;
; 565  : 	typedef _Tree_iterator<_Myt> iterator;
; 566  : 
; 567  : 	_Tree_val()
; 568  : 		{	// initialize data
; 569  : 		this->_Myhead = 0;
; 570  : 		this->_Mysize = 0;
; 571  : 		}
; 572  : 
; 573  : 	enum _Redbl
; 574  : 		{	// colors for link to parent
; 575  : 		_Red, _Black};
; 576  : 
; 577  : 	static char& _Color(_Nodeptr _Pnode)
; 578  : 		{	// return reference to color in node
; 579  : 		return ((char&)_Pnode->_Color);
; 580  : 		}
; 581  : 
; 582  : 	static char& _Isnil(_Nodeptr _Pnode)
; 583  : 		{	// return reference to nil flag in node
; 584  : 		return ((char&)_Pnode->_Isnil);

	mov	rax, QWORD PTR [rax]

; 600  : 		}
; 601  : 
; 602  : 	static reference _Myval(_Nodeptr _Pnode)
; 603  : 		{	// return reference to value in node
; 604  : 		return ((reference)_Pnode->_Myval);
; 605  : 		}
; 606  : 
; 607  : 	static _Nodeptr _Max(_Nodeptr _Pnode)
; 608  : 		{	// return rightmost node in subtree at _Pnode
; 609  : 		while (!_Isnil(_Right(_Pnode)))
; 610  : 			_Pnode = _Right(_Pnode);
; 611  : 		return (_Pnode);
; 612  : 		}
; 613  : 
; 614  : 	static _Nodeptr _Min(_Nodeptr _Pnode)
; 615  : 		{	// return leftmost node in subtree at _Pnode
; 616  : 		while (!_Isnil(_Left(_Pnode)))

	cmp	BYTE PTR [rax+25], 0
	je	SHORT $LL62@clean

; 65   : 		else

	jmp	SHORT $LN47@clean
$LN138@clean:

; 66   : 			{	// climb looking for right subtree
; 67   : 			_Nodeptr _Pnode;
; 68   : 			while (!_Mytree::_Isnil(_Pnode = _Mytree::_Parent(_Ptr))
; 69   : 				&& _Ptr == _Mytree::_Right(_Pnode))

	mov	rax, QWORD PTR [rbx+8]
	cmp	BYTE PTR [rax+25], 0
	jne	SHORT $LN153@clean
	npad	5
$LL46@clean:
	cmp	rbx, QWORD PTR [rax+16]
	jne	SHORT $LN153@clean

; 70   : 				_Ptr = _Pnode;	// ==> parent while right subtree

	mov	rbx, rax
	mov	rax, QWORD PTR [rax+8]
	cmp	BYTE PTR [rax+25], 0
	je	SHORT $LL46@clean
$LN153@clean:

; 71   : 			_Ptr = _Pnode;	// ==> parent (head if end())

	mov	rbx, rax
$LN47@clean:
; File c:\users\nummer\documents\github\olr-3.0\src\xray\xrcore\xrstring.cpp

; 79   : 		if (!sv->dwReference)	

	cmp	DWORD PTR [r14], 0
	jne	$LN6@clean

; 81   : 			auto	len_flag = (sv->dwLength == xr_strlen(sv->value) );

	mov	ebp, DWORD PTR [r14+4]
	lea	rsi, QWORD PTR [r14+12]
; File c:\users\nummer\documents\github\olr-3.0\src\xray\xrcore\_std_extensions.h

; 270  : {	return (u32)strlen(S);			}

	or	rax, -1
	npad	4
$LL152@clean:
	inc	rax
	cmp	BYTE PTR [rsi+rax], 0
	jne	SHORT $LL152@clean
; File c:\users\nummer\documents\github\olr-3.0\src\xray\xrcore\xrstring.cpp

; 81   : 			auto	len_flag = (sv->dwLength == xr_strlen(sv->value) );

	cmp	ebp, eax

; 82   : 			if (!len_flag)

	je	SHORT $LN5@clean

; 83   : 			{
; 84   : 				Msg("! WARNING! xrCore:str_container::clean: string len[%d] corruption", sv->dwLength);

	lea	rcx, OFFSET FLAT:??_C@_0EC@GKCJHOFE@?$CB?5WARNING?$CB?5xrCore?3str_container?3@
	mov	edx, ebp
	call	?Msg@@YAXPEBDZZ				; Msg

; 85   : 			}
; 86   : 			else

	jmp	$LN110@clean
$LN5@clean:
; File c:\users\nummer\documents\github\olr-3.0\src\xray\xrcore\crc32.cpp

; 44   : 	if (!crc32_ready)	

	cmp	DWORD PTR crc32_ready, 0
	jne	SHORT $LN81@clean

; 45   : 	{
; 46   : 		crc32_init	();

	call	?crc32_init@@YAXXZ			; crc32_init

; 47   : 		crc32_ready	= TRUE;

	mov	DWORD PTR crc32_ready, 1
$LN81@clean:

; 48   : 	}
; 49   : 
; 50   : 	// Pass a text string to this function and it will return the CRC. 
; 51   : 
; 52   : 	// Once the lookup table has been filled in by the two functions above, 
; 53   : 	// this function creates all CRCs using only the lookup table. 
; 54   : 
; 55   : 	// Be sure to use unsigned variables, 
; 56   : 	// because negative values introduce high bits 
; 57   : 	// where zero bits are required. 
; 58   : 
; 59   : 	// Start out with all bits set high. 
; 60   : 	u32		ulCRC		= 0xffffffff; 

	or	edx, -1					; ffffffffH

; 61   : 	u8*		buffer		= (u8*)P;
; 62   : 
; 63   : 	// Perform the algorithm on each character 
; 64   : 	// in the string, using the lookup table values. 
; 65   : 	while(len--) 

	test	ebp, ebp
	je	SHORT $LN142@clean
	npad	1
$LL80@clean:

; 66   : 		ulCRC = (ulCRC >> 8) ^ crc32_table[(ulCRC & 0xFF) ^ *buffer++]; 

	movzx	eax, BYTE PTR [rsi]
	movzx	ecx, dl
	lea	rsi, QWORD PTR [rsi+1]
	xor	rcx, rax
	mov	eax, edx
	mov	edx, DWORD PTR crc32_table[r13+rcx*4]
	shr	eax, 8
	xor	edx, eax
	dec	ebp
	jne	SHORT $LL80@clean
$LN142@clean:
; File c:\users\nummer\documents\github\olr-3.0\src\xray\xrcore\xrstring.cpp

; 88   : 				auto	crc_flag = (sv->dwCRC == crc32(sv->value,sv->dwLength) );

	mov	eax, DWORD PTR [r14+8]
	not	edx
	cmp	eax, edx

; 89   : 				if (!crc_flag)

	je	SHORT $LN3@clean

; 90   : 				{
; 91   : 					Msg("! WARNING! xrCore:str_container::clean: string crc[%d] corruption", sv->dwCRC);

	lea	rcx, OFFSET FLAT:??_C@_0EC@PEIFBNPE@?$CB?5WARNING?$CB?5xrCore?3str_container?3@
	mov	edx, eax
	call	?Msg@@YAXPEBDZZ				; Msg

; 92   : 				}
; 93   : 				else

	jmp	SHORT $LN110@clean
$LN3@clean:
; File c:\users\nummer\documents\github\olr-3.0\src\xray\xrcore\xrmemory_subst_msvc.cpp

; 130  : 	stat_calls++;

	inc	DWORD PTR ?Memory@@3VxrMemory@@A

; 25   : ICF	u32		get_header			(void* P)	{	return	(u32)*acc_header(P);				}

	movzx	eax, BYTE PTR [r14-1]

; 24   : ICF	u8*		acc_header			(void* P)	{	u8*		_P		= (u8*)P;	return	_P-1;	}

	dec	r14

; 131  : #ifdef USE_MEMORY_MONITOR
; 132  : 	memory_monitor::monitor_free(P);
; 133  : #endif // USE_MEMORY_MONITOR
; 134  : 
; 135  : #ifdef PURE_ALLOC
; 136  : 	if (g_use_pure_alloc) {
; 137  : 		free					(P);
; 138  : 		return;
; 139  : 	}
; 140  : #endif // PURE_ALLOC
; 141  : 
; 142  : #ifdef DEBUG_MEMORY_MANAGER
; 143  : 	if(g_globalCheckAddr==P)
; 144  : 		__asm int 3;
; 145  : #endif // DEBUG_MEMORY_MANAGER
; 146  : 
; 147  : #ifdef DEBUG_MEMORY_MANAGER
; 148  : 	if (mem_initialized)		debug_cs.Enter		();
; 149  : #endif // DEBUG_MEMORY_MANAGER
; 150  : 	if		(debug_mode)		dbg_unregister	(P);
; 151  : 	u32	pool					= get_header	(P);
; 152  : 	void* _real					= (void*)(((u8*)P)-1);
; 153  : 	if (mem_generic==pool)		

	cmp	eax, 55					; 00000037H
	jne	SHORT $LN89@clean
; File c:\users\nummer\documents\github\olr-3.0\src\xray\xrcore\xrmemory_align.cpp

; 293  : 	if (memblock == NULL)

	test	r14, r14
	je	SHORT $LN110@clean

; 294  : 		return;
; 295  : 
; 296  : 	ptr = (uintptr_t)memblock;
; 297  : 
; 298  : 	/* ptr points to the pointer to starting of the memory block */
; 299  : 	ptr = (ptr & ~(PTR_SZ -1)) - PTR_SZ;

	and	r14, -8

; 300  : 
; 301  : 	/* ptr is the pointer to the start of memory block*/
; 302  : 	ptr = *((uintptr_t *)ptr);
; 303  : 	free((void *)ptr);

	mov	rcx, QWORD PTR [r14-8]
	call	QWORD PTR __imp_free
; File c:\users\nummer\documents\github\olr-3.0\src\xray\xrcore\xrmemory_subst_msvc.cpp

; 157  : 	} else {

	jmp	SHORT $LN110@clean
$LN89@clean:

; 158  : 		// pooled
; 159  : 		VERIFY2					(pool<mem_pools_count,"Memory corruption");
; 160  : 		mem_pools[pool].destroy	(_real);

	lea	rcx, QWORD PTR [rax+rax*4]
	lea	rsi, QWORD PTR ?mem_pools@@3PAVMEMPOOL@@A[r13]
	lea	rsi, QWORD PTR [rsi+rcx*8]
; File c:\users\nummer\documents\github\olr-3.0\src\xray\xrcore\xrsyncronize.cpp

; 64   : 	EnterCriticalSection			( (CRITICAL_SECTION*)pmutex );

	mov	rcx, QWORD PTR [rsi]
	call	QWORD PTR __imp_EnterCriticalSection
; File c:\users\nummer\documents\github\olr-3.0\src\xray\xrcore\xrmemory_pool.h

; 46   : 		*access(P)		= list;

	mov	rax, QWORD PTR [rsi+32]
	mov	QWORD PTR [r14], rax
; File c:\users\nummer\documents\github\olr-3.0\src\xray\xrcore\xrsyncronize.cpp

; 69   : 	LeaveCriticalSection			( (CRITICAL_SECTION*)pmutex );

	mov	rcx, QWORD PTR [rsi]
; File c:\users\nummer\documents\github\olr-3.0\src\xray\xrcore\xrmemory_pool.h

; 47   : 		list			= (u8*)P;

	mov	QWORD PTR [rsi+32], r14
; File c:\users\nummer\documents\github\olr-3.0\src\xray\xrcore\xrsyncronize.cpp

; 69   : 	LeaveCriticalSection			( (CRITICAL_SECTION*)pmutex );

	call	QWORD PTR __imp_LeaveCriticalSection
$LN110@clean:
; File c:\users\nummer\documents\github\olr-3.0\src\xray\xrcore\xrstring.cpp

; 98   : 			container.erase(curr); //        ,   .

	lea	rdx, QWORD PTR $T1[rsp]
	lea	rcx, QWORD PTR [r12+8]
	mov	r8, rdi
	call	?erase@?$_Tree@V?$_Tset_traits@PEAUstr_value@@Ustr_value_cmp@@V?$xalloc@PEAUstr_value@@@@$00@std@@@std@@QEAA?AV?$_Tree_const_iterator@V?$_Tree_val@U?$_Tree_simple_types@PEAUstr_value@@@std@@@std@@@2@V32@@Z ; std::_Tree<std::_Tset_traits<str_value * __ptr64,str_value_cmp,xalloc<str_value * __ptr64>,1> >::erase
$LN6@clean:
; File c:\program files (x86)\microsoft visual studio 12.0\vc\include\xtree

; 336  : 		return (this->_Ptr == _Right._Ptr);

	cmp	rbx, QWORD PTR [r12+8]
; File c:\users\nummer\documents\github\olr-3.0\src\xray\xrcore\xrstring.cpp

; 74   : 	for (auto it = container.begin(); it != container.end(); )	

	jne	$LL8@clean
	mov	r14, QWORD PTR [rsp+32]
	mov	r13, QWORD PTR [rsp+40]
	mov	rdi, QWORD PTR [rsp+48]
	mov	rsi, QWORD PTR [rsp+104]
	mov	rbp, QWORD PTR [rsp+96]
$LN7@clean:
; File c:\program files (x86)\microsoft visual studio 12.0\vc\include\xtree

; 1282 : 		return (size() == 0);

	cmp	QWORD PTR [r12+16], 0
	mov	rbx, QWORD PTR [rsp+88]
; File c:\users\nummer\documents\github\olr-3.0\src\xray\xrcore\xrstring.cpp

; 102  : 	if (container.empty() )

	jne	SHORT $LN116@clean
; File c:\program files (x86)\microsoft visual studio 12.0\vc\include\xtree

; 1540 : 		_Erase(_Root());

	mov	rdx, QWORD PTR [r12+8]
	lea	rcx, QWORD PTR [r12+8]
	mov	rdx, QWORD PTR [rdx+8]
	call	?_Erase@?$_Tree@V?$_Tset_traits@PEAUstr_value@@Ustr_value_cmp@@V?$xalloc@PEAUstr_value@@@@$00@std@@@std@@IEAAXPEAU?$_Tree_node@PEAUstr_value@@PEAX@2@@Z ; std::_Tree<std::_Tset_traits<str_value * __ptr64,str_value_cmp,xalloc<str_value * __ptr64>,1> >::_Erase

; 590  : 		}
; 591  : 
; 592  : 	static _Nodepref _Parent(_Nodeptr _Pnode)
; 593  : 		{	// return reference to parent pointer in node
; 594  : 		return ((_Nodepref)_Pnode->_Parent);

	mov	rax, QWORD PTR [r12+8]

; 1541 : 		_Root() = this->_Myhead;

	mov	QWORD PTR [rax+8], rax

; 589  : 		return ((_Nodepref)_Pnode->_Left);

	mov	rax, QWORD PTR [r12+8]

; 1542 : 		_Lmost() = this->_Myhead;

	mov	QWORD PTR [rax], rax

; 595  : 		}
; 596  : 
; 597  : 	static _Nodepref _Right(_Nodeptr _Pnode)
; 598  : 		{	// return reference to right pointer in node
; 599  : 		return ((_Nodepref)_Pnode->_Right);

	mov	rax, QWORD PTR [r12+8]

; 1543 : 		_Rmost() = this->_Myhead;

	mov	QWORD PTR [rax+16], rax

; 1544 : 		this->_Mysize = 0;

	mov	QWORD PTR [r12+16], 0
$LN116@clean:
; File c:\users\nummer\documents\github\olr-3.0\src\xray\xrcore\xrsyncronize.cpp

; 69   : 	LeaveCriticalSection			( (CRITICAL_SECTION*)pmutex );

	mov	rcx, QWORD PTR [r12]
; File c:\users\nummer\documents\github\olr-3.0\src\xray\xrcore\xrstring.cpp

; 107  : }

	add	rsp, 56					; 00000038H
	pop	r15
	pop	r12
; File c:\users\nummer\documents\github\olr-3.0\src\xray\xrcore\xrsyncronize.cpp

; 69   : 	LeaveCriticalSection			( (CRITICAL_SECTION*)pmutex );

	rex_jmp	QWORD PTR __imp_LeaveCriticalSection
?clean@str_container@@QEAAXXZ ENDP			; str_container::clean
_TEXT	ENDS
; Function compile flags: /Ogtpy
; File c:\users\nummer\documents\github\olr-3.0\src\xray\xrcore\xrstring.cpp
; File c:\users\nummer\documents\github\olr-3.0\src\xray\xrcore\xrsyncronize.cpp
; File c:\program files (x86)\microsoft visual studio 12.0\vc\include\xtree
; File c:\users\nummer\documents\github\olr-3.0\src\xray\xrcore\xrstring.cpp
; File c:\program files (x86)\microsoft visual studio 12.0\vc\include\xtree
; File c:\users\nummer\documents\github\olr-3.0\src\xray\xrcore\xrstring.cpp
; File c:\program files (x86)\microsoft visual studio 12.0\vc\include\xtree
; File c:\users\nummer\documents\github\olr-3.0\src\xray\xrcore\xrstring.cpp
; File c:\users\nummer\documents\github\olr-3.0\src\xray\xrcore\xrsyncronize.cpp
; File c:\users\nummer\documents\github\olr-3.0\src\xray\xrcore\xrstring.cpp
_TEXT	SEGMENT
this$ = 48
?stat_economy@str_container@@QEAAIXZ PROC		; str_container::stat_economy

; 137  : {

$LN92:
	mov	QWORD PTR [rsp+8], rbx
	push	rdi
	sub	rsp, 32					; 00000020H
	mov	rdi, rcx
; File c:\users\nummer\documents\github\olr-3.0\src\xray\xrcore\xrsyncronize.cpp

; 64   : 	EnterCriticalSection			( (CRITICAL_SECTION*)pmutex );

	mov	rcx, QWORD PTR [rcx]
	call	QWORD PTR __imp_EnterCriticalSection
; File c:\program files (x86)\microsoft visual studio 12.0\vc\include\xtree

; 589  : 		return ((_Nodepref)_Pnode->_Left);

	mov	rdx, QWORD PTR [rdi+8]
; File c:\users\nummer\documents\github\olr-3.0\src\xray\xrcore\xrstring.cpp

; 143  : 	counter			-= sizeof(cdb::allocator_type);

	mov	ebx, -25
; File c:\program files (x86)\microsoft visual studio 12.0\vc\include\xtree

; 44   : 		{	// construct with node pointer _Pnode

	mov	rax, QWORD PTR [rdx]

; 72   : 			}
; 73   : 		return (*this);
; 74   : 		}
; 75   : 
; 76   : 	_Myiter operator++(int)
; 77   : 		{	// postincrement
; 78   : 		_Myiter _Tmp = *this;
; 79   : 		++*this;
; 80   : 		return (_Tmp);
; 81   : 		}
; 82   : 
; 83   : 	_Myiter& operator--()
; 84   : 		{	// predecrement
; 85   : 		if (_Mytree::_Isnil(_Ptr))
; 86   : 			_Ptr = _Mytree::_Right(_Ptr);	// end() ==> rightmost
; 87   : 		else if (!_Mytree::_Isnil(_Mytree::_Left(_Ptr)))
; 88   : 			_Ptr = _Mytree::_Max(
; 89   : 				_Mytree::_Left(_Ptr));	// ==> largest of left subtree
; 90   : 		else
; 91   : 			{	// climb looking for left subtree
; 92   : 			_Nodeptr _Pnode;
; 93   : 			while (!_Mytree::_Isnil(_Pnode = _Mytree::_Parent(_Ptr))
; 94   : 				&& _Ptr == _Mytree::_Left(_Pnode))
; 95   : 				_Ptr = _Pnode;	// ==> parent while left subtree
; 96   : 			if (_Mytree::_Isnil(_Ptr))
; 97   : 				;	// begin() shouldn't be decremented, don't move
; 98   : 			else
; 99   : 				_Ptr = _Pnode;	// ==> parent if not head
; 100  : 			}
; 101  : 		return (*this);
; 102  : 		}
; 103  : 
; 104  : 	_Myiter operator--(int)
; 105  : 		{	// postdecrement
; 106  : 		_Myiter _Tmp = *this;
; 107  : 		--*this;
; 108  : 		return (_Tmp);
; 109  : 		}
; 110  : 
; 111  : 	bool operator==(const _Myiter& _Right) const
; 112  : 		{	// test for iterator equality
; 113  : 		return (_Ptr == _Right._Ptr);
; 114  : 		}
; 115  : 
; 116  : 	bool operator!=(const _Myiter& _Right) const
; 117  : 		{	// test for iterator inequality
; 118  : 		return (!(*this == _Right));
; 119  : 		}
; 120  : 
; 121  : 	_Nodeptr _Mynode() const
; 122  : 		{	// return node pointer
; 123  : 		return (_Ptr);
; 124  : 		}
; 125  : 
; 126  : 	_Nodeptr _Ptr;	// pointer to node
; 127  : 	};
; 128  : 
; 129  : 	// TEMPLATE CLASS _Tree_unchecked_iterator
; 130  : template<class _Mytree>
; 131  : 	class _Tree_unchecked_iterator
; 132  : 		: public _Tree_unchecked_const_iterator<_Mytree>
; 133  : 	{	// unchecked iterator for mutable tree
; 134  : public:
; 135  : 	typedef _Tree_unchecked_iterator<_Mytree> _Myiter;
; 136  : 	typedef _Tree_unchecked_const_iterator<_Mytree> _Mybase;
; 137  : 	typedef bidirectional_iterator_tag iterator_category;
; 138  : 
; 139  : 	typedef typename _Mytree::_Nodeptr _Nodeptr;
; 140  : 	typedef typename _Mytree::value_type value_type;
; 141  : 	typedef typename _Mytree::difference_type difference_type;
; 142  : 	typedef typename _Mytree::pointer pointer;
; 143  : 	typedef typename _Mytree::reference reference;
; 144  : 
; 145  : 	_Tree_unchecked_iterator()
; 146  : 		{	// construct with null node
; 147  : 		}
; 148  : 
; 149  : 	_Tree_unchecked_iterator(_Nodeptr _Pnode, const _Mytree *_Plist)
; 150  : 		: _Mybase(_Pnode, _Plist)
; 151  : 		{	// construct with node pointer _Pnode
; 152  : 		}
; 153  : 
; 154  : 	reference operator*() const
; 155  : 		{	// return designated value
; 156  : 		return ((reference)**(_Mybase *)this);
; 157  : 		}
; 158  : 
; 159  : 	pointer operator->() const
; 160  : 		{	// return pointer to class object
; 161  : 		return (_STD pointer_traits<pointer>::pointer_to(**this));
; 162  : 		}
; 163  : 
; 164  : 	_Myiter& operator++()
; 165  : 		{	// preincrement
; 166  : 		++(*(_Mybase *)this);
; 167  : 		return (*this);
; 168  : 		}
; 169  : 
; 170  : 	_Myiter operator++(int)
; 171  : 		{	// postincrement
; 172  : 		_Myiter _Tmp = *this;
; 173  : 		++*this;
; 174  : 		return (_Tmp);
; 175  : 		}
; 176  : 
; 177  : 	_Myiter& operator--()
; 178  : 		{	// predecrement
; 179  : 		--(*(_Mybase *)this);
; 180  : 		return (*this);
; 181  : 		}
; 182  : 
; 183  : 	_Myiter operator--(int)
; 184  : 		{	// postdecrement
; 185  : 		_Myiter _Tmp = *this;
; 186  : 		--*this;
; 187  : 		return (_Tmp);
; 188  : 		}
; 189  : 	};
; 190  : 
; 191  : 	// TEMPLATE CLASS _Tree_const_iterator
; 192  : template<class _Mytree>
; 193  : 	class _Tree_const_iterator
; 194  : 		: public _Tree_unchecked_const_iterator<_Mytree, _Iterator_base>
; 195  : 	{	// iterator for nonmutable tree
; 196  : public:
; 197  : 	typedef _Tree_const_iterator<_Mytree> _Myiter;
; 198  : 	typedef _Tree_unchecked_const_iterator<_Mytree, _Iterator_base> _Mybase;
; 199  : 	typedef bidirectional_iterator_tag iterator_category;
; 200  : 
; 201  : 	typedef typename _Mytree::_Nodeptr _Nodeptr;
; 202  : 	typedef typename _Mytree::value_type value_type;
; 203  : 	typedef typename _Mytree::difference_type difference_type;
; 204  : 	typedef typename _Mytree::const_pointer pointer;
; 205  : 	typedef typename _Mytree::const_reference reference;
; 206  : 
; 207  : 	_Tree_const_iterator()
; 208  : 		: _Mybase()
; 209  : 		{	// construct with null node pointer
; 210  : 		}
; 211  : 
; 212  : 	_Tree_const_iterator(_Nodeptr _Pnode, const _Mytree *_Plist)
; 213  : 		: _Mybase(_Pnode, _Plist)
; 214  : 		{	// construct with node pointer _Pnode
; 215  : 		}
; 216  : 
; 217  : 	typedef _Tree_unchecked_const_iterator<_Mytree> _Unchecked_type;
; 218  : 
; 219  : 	_Myiter& _Rechecked(_Unchecked_type _Right)
; 220  : 		{	// reset from unchecked iterator
; 221  : 		this->_Ptr = _Right._Ptr;
; 222  : 		return (*this);
; 223  : 		}
; 224  : 
; 225  : 	_Unchecked_type _Unchecked() const
; 226  : 		{	// make an unchecked iterator
; 227  : 		return (_Unchecked_type(this->_Ptr, (_Mytree *)this->_Getcont()));
; 228  : 		}
; 229  : 
; 230  : 	reference operator*() const
; 231  : 		{	// return designated value
; 232  :  #if _ITERATOR_DEBUG_LEVEL == 2
; 233  : 		if (this->_Getcont() == 0
; 234  : 			|| this->_Ptr == 0
; 235  : 			|| this->_Ptr == ((_Mytree *)this->_Getcont())->_Myhead)
; 236  : 			{	// report error
; 237  : 			_DEBUG_ERROR("map/set iterator not dereferencable");
; 238  : 			_SCL_SECURE_OUT_OF_RANGE;
; 239  : 			}
; 240  : 
; 241  :  #elif _ITERATOR_DEBUG_LEVEL == 1
; 242  : 		_SCL_SECURE_VALIDATE(this->_Getcont() != 0 && this->_Ptr != 0);
; 243  : 		_SCL_SECURE_VALIDATE_RANGE(this->_Ptr !=
; 244  : 			((_Mytree *)this->_Getcont())->_Myhead);
; 245  :  #endif /* _ITERATOR_DEBUG_LEVEL */
; 246  : 
; 247  : 		return (_Mytree::_Myval(this->_Ptr));
; 248  : 		}
; 249  : 
; 250  : 	pointer operator->() const
; 251  : 		{	// return pointer to class object
; 252  : 		return (_STD pointer_traits<pointer>::pointer_to(**this));
; 253  : 		}
; 254  : 
; 255  : 	_Myiter& operator++()
; 256  : 		{	// preincrement
; 257  :  #if _ITERATOR_DEBUG_LEVEL == 2
; 258  : 		if (this->_Getcont() == 0
; 259  : 			|| this->_Ptr == 0
; 260  : 			|| _Mytree::_Isnil(this->_Ptr))
; 261  : 			{	// report error
; 262  : 			_DEBUG_ERROR("map/set iterator not incrementable");
; 263  : 			_SCL_SECURE_OUT_OF_RANGE;
; 264  : 			}
; 265  : 
; 266  :  #elif _ITERATOR_DEBUG_LEVEL == 1
; 267  : 		_SCL_SECURE_VALIDATE(this->_Getcont() != 0 && this->_Ptr != 0);
; 268  : 		_SCL_SECURE_VALIDATE_RANGE(!_Mytree::_Isnil(this->_Ptr));
; 269  :  #endif /* _ITERATOR_DEBUG_LEVEL */
; 270  : 
; 271  : 		++(*(_Mybase *)this);
; 272  : 		return (*this);
; 273  : 		}
; 274  : 
; 275  : 	_Myiter operator++(int)
; 276  : 		{	// postincrement
; 277  : 		_Myiter _Tmp = *this;
; 278  : 		++*this;
; 279  : 		return (_Tmp);
; 280  : 		}
; 281  : 
; 282  : 	_Myiter& operator--()
; 283  : 		{	// predecrement
; 284  :  #if _ITERATOR_DEBUG_LEVEL == 2
; 285  : 		if (this->_Getcont() == 0
; 286  : 			|| this->_Ptr == 0)
; 287  : 			{	// report error
; 288  : 			_DEBUG_ERROR("map/set iterator not decrementable");
; 289  : 			_SCL_SECURE_OUT_OF_RANGE;
; 290  : 			}
; 291  : 
; 292  : 		_Nodeptr _Ptrsav = this->_Ptr;
; 293  : 		--(*(_Mybase *)this);
; 294  : 		if (_Ptrsav == this->_Ptr)
; 295  : 			{	// report error
; 296  : 			_DEBUG_ERROR("map/set iterator not decrementable");
; 297  : 			_SCL_SECURE_OUT_OF_RANGE;
; 298  : 			}
; 299  : 
; 300  :  #elif _ITERATOR_DEBUG_LEVEL == 1
; 301  : 		_SCL_SECURE_VALIDATE(this->_Getcont() != 0 && this->_Ptr != 0);
; 302  : 
; 303  : 		_Nodeptr _Ptrsav = this->_Ptr;
; 304  : 		--(*(_Mybase *)this);
; 305  : 		_SCL_SECURE_VALIDATE(_Ptrsav != this->_Ptr);
; 306  : 
; 307  :  #else /* _ITERATOR_DEBUG_LEVEL == 0 */
; 308  : 		--(*(_Mybase *)this);
; 309  :  #endif /* _ITERATOR_DEBUG_LEVEL */
; 310  : 
; 311  : 		return (*this);
; 312  : 		}
; 313  : 
; 314  : 	_Myiter operator--(int)
; 315  : 		{	// postdecrement
; 316  : 		_Myiter _Tmp = *this;
; 317  : 		--*this;
; 318  : 		return (_Tmp);
; 319  : 		}
; 320  : 
; 321  : 	bool operator==(const _Myiter& _Right) const
; 322  : 		{	// test for iterator equality
; 323  :  #if _ITERATOR_DEBUG_LEVEL == 2
; 324  : 		if (this->_Getcont() == 0
; 325  : 			|| this->_Getcont() != _Right._Getcont())
; 326  : 			{	// report error
; 327  : 			_DEBUG_ERROR("map/set iterators incompatible");
; 328  : 			_SCL_SECURE_INVALID_ARGUMENT;
; 329  : 			}
; 330  : 
; 331  :  #elif _ITERATOR_DEBUG_LEVEL == 1
; 332  : 		_SCL_SECURE_VALIDATE(this->_Getcont() != 0
; 333  : 			&& this->_Getcont() == _Right._Getcont());
; 334  :  #endif /* _ITERATOR_DEBUG_LEVEL */
; 335  : 
; 336  : 		return (this->_Ptr == _Right._Ptr);

	cmp	rax, rdx
; File c:\users\nummer\documents\github\olr-3.0\src\xray\xrcore\xrstring.cpp

; 145  : 	for (; it!=end; it++)	{

	je	SHORT $LN1@stat_econo
	npad	9
$LL34@stat_econo:

; 146  : 		counter		-= HEADER;
; 147  : 		counter		-= node_size;
; 148  : 		counter		+= int((int((*it)->dwReference) - 1)*int((*it)->dwLength + 1));

	mov	r8, QWORD PTR [rax+32]
	add	ebx, -32				; ffffffffffffffe0H
	mov	r9d, DWORD PTR [r8+4]
	mov	ecx, DWORD PTR [r8]
	inc	r9d
	dec	ecx
	imul	r9d, ecx
	add	ebx, r9d
; File c:\program files (x86)\microsoft visual studio 12.0\vc\include\xtree

; 60   : 		if (_Mytree::_Isnil(_Ptr))

	cmp	BYTE PTR [rax+25], 0
	jne	SHORT $LN83@stat_econo

; 337  : 		}
; 338  : 
; 339  : 	bool operator!=(const _Myiter& _Right) const
; 340  : 		{	// test for iterator inequality
; 341  : 		return (!(*this == _Right));
; 342  : 		}
; 343  : 	};
; 344  : 
; 345  : template<class _Mytree> inline
; 346  : 	typename _Tree_const_iterator<_Mytree>::_Unchecked_type
; 347  : 		_Unchecked(_Tree_const_iterator<_Mytree> _Iter)
; 348  : 	{	// convert to unchecked
; 349  : 	return (_Iter._Unchecked());
; 350  : 	}
; 351  : 
; 352  : template<class _Mytree> inline
; 353  : 	_Tree_const_iterator<_Mytree>&
; 354  : 		_Rechecked(_Tree_const_iterator<_Mytree>& _Iter,
; 355  : 			typename _Tree_const_iterator<_Mytree>
; 356  : 				::_Unchecked_type _Right)
; 357  : 	{	// convert to checked
; 358  : 	return (_Iter._Rechecked(_Right));
; 359  : 	}
; 360  : 
; 361  : 	// TEMPLATE CLASS _Tree_iterator
; 362  : template<class _Mytree>
; 363  : 	class _Tree_iterator
; 364  : 		: public _Tree_const_iterator<_Mytree>
; 365  : 	{	// iterator for mutable tree
; 366  : public:
; 367  : 	typedef _Tree_iterator<_Mytree> _Myiter;
; 368  : 	typedef _Tree_const_iterator<_Mytree> _Mybase;
; 369  : 	typedef bidirectional_iterator_tag iterator_category;
; 370  : 
; 371  : 	typedef typename _Mytree::_Nodeptr _Nodeptr;
; 372  : 	typedef typename _Mytree::value_type value_type;
; 373  : 	typedef typename _Mytree::difference_type difference_type;
; 374  : 
; 375  : 	typedef typename _Mytree::pointer pointer;
; 376  : 	typedef typename _Mytree::reference reference;
; 377  : 
; 378  : 	_Tree_iterator()
; 379  : 		{	// construct with null node
; 380  : 		}
; 381  : 
; 382  : 	_Tree_iterator(_Nodeptr _Pnode, const _Mytree *_Plist)
; 383  : 		: _Mybase(_Pnode, _Plist)
; 384  : 		{	// construct with node pointer _Pnode
; 385  : 		}
; 386  : 
; 387  : 	typedef _Tree_unchecked_iterator<_Mytree> _Unchecked_type;
; 388  : 
; 389  : 	_Myiter& _Rechecked(_Unchecked_type _Right)
; 390  : 		{	// reset from unchecked iterator
; 391  : 		this->_Ptr = _Right._Ptr;
; 392  : 		return (*this);
; 393  : 		}
; 394  : 
; 395  : 	_Unchecked_type _Unchecked() const
; 396  : 		{	// make an unchecked iterator
; 397  : 		return (_Unchecked_type(this->_Ptr, (_Mytree *)this->_Getcont()));
; 398  : 		}
; 399  : 
; 400  : 	reference operator*() const
; 401  : 		{	// return designated value
; 402  : 		return ((reference)**(_Mybase *)this);
; 403  : 		}
; 404  : 
; 405  : 	pointer operator->() const
; 406  : 		{	// return pointer to class object
; 407  : 		return (_STD pointer_traits<pointer>::pointer_to(**this));
; 408  : 		}
; 409  : 
; 410  : 	_Myiter& operator++()
; 411  : 		{	// preincrement
; 412  : 		++(*(_Mybase *)this);
; 413  : 		return (*this);
; 414  : 		}
; 415  : 
; 416  : 	_Myiter operator++(int)
; 417  : 		{	// postincrement
; 418  : 		_Myiter _Tmp = *this;
; 419  : 		++*this;
; 420  : 		return (_Tmp);
; 421  : 		}
; 422  : 
; 423  : 	_Myiter& operator--()
; 424  : 		{	// predecrement
; 425  : 		--(*(_Mybase *)this);
; 426  : 		return (*this);
; 427  : 		}
; 428  : 
; 429  : 	_Myiter operator--(int)
; 430  : 		{	// postdecrement
; 431  : 		_Myiter _Tmp = *this;
; 432  : 		--*this;
; 433  : 		return (_Tmp);
; 434  : 		}
; 435  : 	};
; 436  : 
; 437  : template<class _Mytree> inline
; 438  : 	typename _Tree_iterator<_Mytree>::_Unchecked_type
; 439  : 		_Unchecked(_Tree_iterator<_Mytree> _Iter)
; 440  : 	{	// convert to unchecked
; 441  : 	return (_Iter._Unchecked());
; 442  : 	}
; 443  : 
; 444  : template<class _Mytree> inline
; 445  : 	_Tree_iterator<_Mytree>&
; 446  : 		_Rechecked(_Tree_iterator<_Mytree>& _Iter,
; 447  : 			typename _Tree_iterator<_Mytree>
; 448  : 				::_Unchecked_type _Right)
; 449  : 	{	// convert to checked
; 450  : 	return (_Iter._Rechecked(_Right));
; 451  : 	}
; 452  : 
; 453  : 		// tree TYPE WRAPPERS
; 454  : template<class _Value_type,
; 455  : 	class _Size_type,
; 456  : 	class _Difference_type,
; 457  : 	class _Pointer,
; 458  : 	class _Const_pointer,
; 459  : 	class _Reference,
; 460  : 	class _Const_reference,
; 461  : 	class _Nodeptr_type>
; 462  : 	struct _Tree_iter_types
; 463  : 	{	// wraps types needed by iterators
; 464  : 	typedef _Value_type value_type;
; 465  : 	typedef _Size_type size_type;
; 466  : 	typedef _Difference_type difference_type;
; 467  : 	typedef _Pointer pointer;
; 468  : 	typedef _Const_pointer const_pointer;
; 469  : 	typedef _Reference reference;
; 470  : 	typedef _Const_reference const_reference;
; 471  : 	typedef _Nodeptr_type _Nodeptr;
; 472  : 	};
; 473  : 
; 474  : template<class _Value_type,
; 475  : 	class _Voidptr>
; 476  : 	struct _Tree_node
; 477  : 		{	// tree node
; 478  : 		_Voidptr _Left;	// left subtree, or smallest element if head
; 479  : 		_Voidptr _Parent;	// parent, or root of tree if head
; 480  : 		_Voidptr _Right;	// right subtree, or largest element if head
; 481  : 		char _Color;	// _Red or _Black, _Black if head
; 482  : 		char _Isnil;	// true only if head (also nil) node
; 483  : 		_Value_type _Myval;	// the stored value, unused if head
; 484  : 
; 485  : 	private:
; 486  : 		_Tree_node& operator=(const _Tree_node&);
; 487  : 		};
; 488  : 
; 489  : template<class _Value_type>
; 490  : 	struct _Tree_node<_Value_type, void *>
; 491  : 		{	// tree node
; 492  : 		typedef _Tree_node<_Value_type, void *> *_Nodeptr;
; 493  : 		_Nodeptr _Left;	// left subtree, or smallest element if head
; 494  : 		_Nodeptr _Parent;	// parent, or root of tree if head
; 495  : 		_Nodeptr _Right;	// right subtree, or largest element if head
; 496  : 		char _Color;	// _Red or _Black, _Black if head
; 497  : 		char _Isnil;	// true only if head (also nil) node
; 498  : 		_Value_type _Myval;	// the stored value, unused if head
; 499  : 
; 500  : 	private:
; 501  : 		_Tree_node& operator=(const _Tree_node&);
; 502  : 		};
; 503  : 
; 504  : template<class _Ty>
; 505  : 	struct _Tree_simple_types
; 506  : 		: public _Simple_types<_Ty>
; 507  : 	{	// wraps types needed by iterators
; 508  : 	typedef _Tree_node<_Ty, void *> _Node;
; 509  : 	typedef _Node *_Nodeptr;
; 510  : 	};
; 511  : 
; 512  : template<class _Ty,
; 513  : 	class _Alloc0>
; 514  : 	struct _Tree_base_types
; 515  : 	{	// types needed for a container base
; 516  : 	typedef _Alloc0 _Alloc;
; 517  : 	typedef _Tree_base_types<_Ty, _Alloc> _Myt;
; 518  : 
; 519  : 	typedef _Wrap_alloc<_Alloc> _Alty0;
; 520  : 	typedef typename _Alty0::template rebind<_Ty>::other _Alty;
; 521  : 
; 522  : 
; 523  : 	typedef typename _Get_voidptr<_Alty, typename _Alty::pointer>::type
; 524  : 		_Voidptr;
; 525  : 	typedef _Tree_node<typename _Alty::value_type,
; 526  : 		_Voidptr> _Node;
; 527  : 
; 528  : 	typedef typename _Alty::template rebind<_Node>::other _Alnod_type;
; 529  : 	typedef typename _Alnod_type::pointer _Nodeptr;
; 530  : 	typedef _Nodeptr& _Nodepref;
; 531  : 
; 532  : 	typedef typename _If<_Is_simple_alloc<_Alty>::value,
; 533  : 		_Tree_simple_types<typename _Alty::value_type>,
; 534  : 		_Tree_iter_types<typename _Alty::value_type,
; 535  : 			typename _Alty::size_type,
; 536  : 			typename _Alty::difference_type,
; 537  : 			typename _Alty::pointer,
; 538  : 			typename _Alty::const_pointer,
; 539  : 			typename _Alty::reference,
; 540  : 			typename _Alty::const_reference,
; 541  : 			_Nodeptr> >::type
; 542  : 		_Val_types;
; 543  : 	};
; 544  : 
; 545  : 		// TEMPLATE CLASS _Tree_val
; 546  : template<class _Val_types>
; 547  : 	class _Tree_val
; 548  : 		: public _Container_base
; 549  : 	{	// base class for tree to hold data
; 550  : public:
; 551  : 	typedef _Tree_val<_Val_types> _Myt;
; 552  : 
; 553  : 	typedef typename _Val_types::_Nodeptr _Nodeptr;
; 554  : 	typedef _Nodeptr& _Nodepref;
; 555  : 
; 556  : 	typedef typename _Val_types::value_type value_type;
; 557  : 	typedef typename _Val_types::size_type size_type;
; 558  : 	typedef typename _Val_types::difference_type difference_type;
; 559  : 	typedef typename _Val_types::pointer pointer;
; 560  : 	typedef typename _Val_types::const_pointer const_pointer;
; 561  : 	typedef typename _Val_types::reference reference;
; 562  : 	typedef typename _Val_types::const_reference const_reference;
; 563  : 
; 564  : 	typedef _Tree_const_iterator<_Myt> const_iterator;
; 565  : 	typedef _Tree_iterator<_Myt> iterator;
; 566  : 
; 567  : 	_Tree_val()
; 568  : 		{	// initialize data
; 569  : 		this->_Myhead = 0;
; 570  : 		this->_Mysize = 0;
; 571  : 		}
; 572  : 
; 573  : 	enum _Redbl
; 574  : 		{	// colors for link to parent
; 575  : 		_Red, _Black};
; 576  : 
; 577  : 	static char& _Color(_Nodeptr _Pnode)
; 578  : 		{	// return reference to color in node
; 579  : 		return ((char&)_Pnode->_Color);
; 580  : 		}
; 581  : 
; 582  : 	static char& _Isnil(_Nodeptr _Pnode)
; 583  : 		{	// return reference to nil flag in node
; 584  : 		return ((char&)_Pnode->_Isnil);

	mov	rcx, QWORD PTR [rax+16]

; 61   : 			;	// end() shouldn't be incremented, don't move
; 62   : 		else if (!_Mytree::_Isnil(_Mytree::_Right(_Ptr)))

	cmp	BYTE PTR [rcx+25], 0
	jne	SHORT $LN80@stat_econo

; 63   : 			_Ptr = _Mytree::_Min(
; 64   : 				_Mytree::_Right(_Ptr));	// ==> smallest of right subtree

	mov	rax, rcx

; 337  : 		}
; 338  : 
; 339  : 	bool operator!=(const _Myiter& _Right) const
; 340  : 		{	// test for iterator inequality
; 341  : 		return (!(*this == _Right));
; 342  : 		}
; 343  : 	};
; 344  : 
; 345  : template<class _Mytree> inline
; 346  : 	typename _Tree_const_iterator<_Mytree>::_Unchecked_type
; 347  : 		_Unchecked(_Tree_const_iterator<_Mytree> _Iter)
; 348  : 	{	// convert to unchecked
; 349  : 	return (_Iter._Unchecked());
; 350  : 	}
; 351  : 
; 352  : template<class _Mytree> inline
; 353  : 	_Tree_const_iterator<_Mytree>&
; 354  : 		_Rechecked(_Tree_const_iterator<_Mytree>& _Iter,
; 355  : 			typename _Tree_const_iterator<_Mytree>
; 356  : 				::_Unchecked_type _Right)
; 357  : 	{	// convert to checked
; 358  : 	return (_Iter._Rechecked(_Right));
; 359  : 	}
; 360  : 
; 361  : 	// TEMPLATE CLASS _Tree_iterator
; 362  : template<class _Mytree>
; 363  : 	class _Tree_iterator
; 364  : 		: public _Tree_const_iterator<_Mytree>
; 365  : 	{	// iterator for mutable tree
; 366  : public:
; 367  : 	typedef _Tree_iterator<_Mytree> _Myiter;
; 368  : 	typedef _Tree_const_iterator<_Mytree> _Mybase;
; 369  : 	typedef bidirectional_iterator_tag iterator_category;
; 370  : 
; 371  : 	typedef typename _Mytree::_Nodeptr _Nodeptr;
; 372  : 	typedef typename _Mytree::value_type value_type;
; 373  : 	typedef typename _Mytree::difference_type difference_type;
; 374  : 
; 375  : 	typedef typename _Mytree::pointer pointer;
; 376  : 	typedef typename _Mytree::reference reference;
; 377  : 
; 378  : 	_Tree_iterator()
; 379  : 		{	// construct with null node
; 380  : 		}
; 381  : 
; 382  : 	_Tree_iterator(_Nodeptr _Pnode, const _Mytree *_Plist)
; 383  : 		: _Mybase(_Pnode, _Plist)
; 384  : 		{	// construct with node pointer _Pnode
; 385  : 		}
; 386  : 
; 387  : 	typedef _Tree_unchecked_iterator<_Mytree> _Unchecked_type;
; 388  : 
; 389  : 	_Myiter& _Rechecked(_Unchecked_type _Right)
; 390  : 		{	// reset from unchecked iterator
; 391  : 		this->_Ptr = _Right._Ptr;
; 392  : 		return (*this);
; 393  : 		}
; 394  : 
; 395  : 	_Unchecked_type _Unchecked() const
; 396  : 		{	// make an unchecked iterator
; 397  : 		return (_Unchecked_type(this->_Ptr, (_Mytree *)this->_Getcont()));
; 398  : 		}
; 399  : 
; 400  : 	reference operator*() const
; 401  : 		{	// return designated value
; 402  : 		return ((reference)**(_Mybase *)this);
; 403  : 		}
; 404  : 
; 405  : 	pointer operator->() const
; 406  : 		{	// return pointer to class object
; 407  : 		return (_STD pointer_traits<pointer>::pointer_to(**this));
; 408  : 		}
; 409  : 
; 410  : 	_Myiter& operator++()
; 411  : 		{	// preincrement
; 412  : 		++(*(_Mybase *)this);
; 413  : 		return (*this);
; 414  : 		}
; 415  : 
; 416  : 	_Myiter operator++(int)
; 417  : 		{	// postincrement
; 418  : 		_Myiter _Tmp = *this;
; 419  : 		++*this;
; 420  : 		return (_Tmp);
; 421  : 		}
; 422  : 
; 423  : 	_Myiter& operator--()
; 424  : 		{	// predecrement
; 425  : 		--(*(_Mybase *)this);
; 426  : 		return (*this);
; 427  : 		}
; 428  : 
; 429  : 	_Myiter operator--(int)
; 430  : 		{	// postdecrement
; 431  : 		_Myiter _Tmp = *this;
; 432  : 		--*this;
; 433  : 		return (_Tmp);
; 434  : 		}
; 435  : 	};
; 436  : 
; 437  : template<class _Mytree> inline
; 438  : 	typename _Tree_iterator<_Mytree>::_Unchecked_type
; 439  : 		_Unchecked(_Tree_iterator<_Mytree> _Iter)
; 440  : 	{	// convert to unchecked
; 441  : 	return (_Iter._Unchecked());
; 442  : 	}
; 443  : 
; 444  : template<class _Mytree> inline
; 445  : 	_Tree_iterator<_Mytree>&
; 446  : 		_Rechecked(_Tree_iterator<_Mytree>& _Iter,
; 447  : 			typename _Tree_iterator<_Mytree>
; 448  : 				::_Unchecked_type _Right)
; 449  : 	{	// convert to checked
; 450  : 	return (_Iter._Rechecked(_Right));
; 451  : 	}
; 452  : 
; 453  : 		// tree TYPE WRAPPERS
; 454  : template<class _Value_type,
; 455  : 	class _Size_type,
; 456  : 	class _Difference_type,
; 457  : 	class _Pointer,
; 458  : 	class _Const_pointer,
; 459  : 	class _Reference,
; 460  : 	class _Const_reference,
; 461  : 	class _Nodeptr_type>
; 462  : 	struct _Tree_iter_types
; 463  : 	{	// wraps types needed by iterators
; 464  : 	typedef _Value_type value_type;
; 465  : 	typedef _Size_type size_type;
; 466  : 	typedef _Difference_type difference_type;
; 467  : 	typedef _Pointer pointer;
; 468  : 	typedef _Const_pointer const_pointer;
; 469  : 	typedef _Reference reference;
; 470  : 	typedef _Const_reference const_reference;
; 471  : 	typedef _Nodeptr_type _Nodeptr;
; 472  : 	};
; 473  : 
; 474  : template<class _Value_type,
; 475  : 	class _Voidptr>
; 476  : 	struct _Tree_node
; 477  : 		{	// tree node
; 478  : 		_Voidptr _Left;	// left subtree, or smallest element if head
; 479  : 		_Voidptr _Parent;	// parent, or root of tree if head
; 480  : 		_Voidptr _Right;	// right subtree, or largest element if head
; 481  : 		char _Color;	// _Red or _Black, _Black if head
; 482  : 		char _Isnil;	// true only if head (also nil) node
; 483  : 		_Value_type _Myval;	// the stored value, unused if head
; 484  : 
; 485  : 	private:
; 486  : 		_Tree_node& operator=(const _Tree_node&);
; 487  : 		};
; 488  : 
; 489  : template<class _Value_type>
; 490  : 	struct _Tree_node<_Value_type, void *>
; 491  : 		{	// tree node
; 492  : 		typedef _Tree_node<_Value_type, void *> *_Nodeptr;
; 493  : 		_Nodeptr _Left;	// left subtree, or smallest element if head
; 494  : 		_Nodeptr _Parent;	// parent, or root of tree if head
; 495  : 		_Nodeptr _Right;	// right subtree, or largest element if head
; 496  : 		char _Color;	// _Red or _Black, _Black if head
; 497  : 		char _Isnil;	// true only if head (also nil) node
; 498  : 		_Value_type _Myval;	// the stored value, unused if head
; 499  : 
; 500  : 	private:
; 501  : 		_Tree_node& operator=(const _Tree_node&);
; 502  : 		};
; 503  : 
; 504  : template<class _Ty>
; 505  : 	struct _Tree_simple_types
; 506  : 		: public _Simple_types<_Ty>
; 507  : 	{	// wraps types needed by iterators
; 508  : 	typedef _Tree_node<_Ty, void *> _Node;
; 509  : 	typedef _Node *_Nodeptr;
; 510  : 	};
; 511  : 
; 512  : template<class _Ty,
; 513  : 	class _Alloc0>
; 514  : 	struct _Tree_base_types
; 515  : 	{	// types needed for a container base
; 516  : 	typedef _Alloc0 _Alloc;
; 517  : 	typedef _Tree_base_types<_Ty, _Alloc> _Myt;
; 518  : 
; 519  : 	typedef _Wrap_alloc<_Alloc> _Alty0;
; 520  : 	typedef typename _Alty0::template rebind<_Ty>::other _Alty;
; 521  : 
; 522  : 
; 523  : 	typedef typename _Get_voidptr<_Alty, typename _Alty::pointer>::type
; 524  : 		_Voidptr;
; 525  : 	typedef _Tree_node<typename _Alty::value_type,
; 526  : 		_Voidptr> _Node;
; 527  : 
; 528  : 	typedef typename _Alty::template rebind<_Node>::other _Alnod_type;
; 529  : 	typedef typename _Alnod_type::pointer _Nodeptr;
; 530  : 	typedef _Nodeptr& _Nodepref;
; 531  : 
; 532  : 	typedef typename _If<_Is_simple_alloc<_Alty>::value,
; 533  : 		_Tree_simple_types<typename _Alty::value_type>,
; 534  : 		_Tree_iter_types<typename _Alty::value_type,
; 535  : 			typename _Alty::size_type,
; 536  : 			typename _Alty::difference_type,
; 537  : 			typename _Alty::pointer,
; 538  : 			typename _Alty::const_pointer,
; 539  : 			typename _Alty::reference,
; 540  : 			typename _Alty::const_reference,
; 541  : 			_Nodeptr> >::type
; 542  : 		_Val_types;
; 543  : 	};
; 544  : 
; 545  : 		// TEMPLATE CLASS _Tree_val
; 546  : template<class _Val_types>
; 547  : 	class _Tree_val
; 548  : 		: public _Container_base
; 549  : 	{	// base class for tree to hold data
; 550  : public:
; 551  : 	typedef _Tree_val<_Val_types> _Myt;
; 552  : 
; 553  : 	typedef typename _Val_types::_Nodeptr _Nodeptr;
; 554  : 	typedef _Nodeptr& _Nodepref;
; 555  : 
; 556  : 	typedef typename _Val_types::value_type value_type;
; 557  : 	typedef typename _Val_types::size_type size_type;
; 558  : 	typedef typename _Val_types::difference_type difference_type;
; 559  : 	typedef typename _Val_types::pointer pointer;
; 560  : 	typedef typename _Val_types::const_pointer const_pointer;
; 561  : 	typedef typename _Val_types::reference reference;
; 562  : 	typedef typename _Val_types::const_reference const_reference;
; 563  : 
; 564  : 	typedef _Tree_const_iterator<_Myt> const_iterator;
; 565  : 	typedef _Tree_iterator<_Myt> iterator;
; 566  : 
; 567  : 	_Tree_val()
; 568  : 		{	// initialize data
; 569  : 		this->_Myhead = 0;
; 570  : 		this->_Mysize = 0;
; 571  : 		}
; 572  : 
; 573  : 	enum _Redbl
; 574  : 		{	// colors for link to parent
; 575  : 		_Red, _Black};
; 576  : 
; 577  : 	static char& _Color(_Nodeptr _Pnode)
; 578  : 		{	// return reference to color in node
; 579  : 		return ((char&)_Pnode->_Color);
; 580  : 		}
; 581  : 
; 582  : 	static char& _Isnil(_Nodeptr _Pnode)
; 583  : 		{	// return reference to nil flag in node
; 584  : 		return ((char&)_Pnode->_Isnil);

	mov	rcx, QWORD PTR [rcx]

; 590  : 		}
; 591  : 
; 592  : 	static _Nodepref _Parent(_Nodeptr _Pnode)
; 593  : 		{	// return reference to parent pointer in node
; 594  : 		return ((_Nodepref)_Pnode->_Parent);
; 595  : 		}
; 596  : 
; 597  : 	static _Nodepref _Right(_Nodeptr _Pnode)
; 598  : 		{	// return reference to right pointer in node
; 599  : 		return ((_Nodepref)_Pnode->_Right);
; 600  : 		}
; 601  : 
; 602  : 	static reference _Myval(_Nodeptr _Pnode)
; 603  : 		{	// return reference to value in node
; 604  : 		return ((reference)_Pnode->_Myval);
; 605  : 		}
; 606  : 
; 607  : 	static _Nodeptr _Max(_Nodeptr _Pnode)
; 608  : 		{	// return rightmost node in subtree at _Pnode
; 609  : 		while (!_Isnil(_Right(_Pnode)))
; 610  : 			_Pnode = _Right(_Pnode);
; 611  : 		return (_Pnode);
; 612  : 		}
; 613  : 
; 614  : 	static _Nodeptr _Min(_Nodeptr _Pnode)
; 615  : 		{	// return leftmost node in subtree at _Pnode
; 616  : 		while (!_Isnil(_Left(_Pnode)))

	cmp	BYTE PTR [rcx+25], 0
	jne	SHORT $LN83@stat_econo
	npad	10
$LL49@stat_econo:

; 617  : 			_Pnode = _Left(_Pnode);

	mov	rax, rcx

; 337  : 		}
; 338  : 
; 339  : 	bool operator!=(const _Myiter& _Right) const
; 340  : 		{	// test for iterator inequality
; 341  : 		return (!(*this == _Right));
; 342  : 		}
; 343  : 	};
; 344  : 
; 345  : template<class _Mytree> inline
; 346  : 	typename _Tree_const_iterator<_Mytree>::_Unchecked_type
; 347  : 		_Unchecked(_Tree_const_iterator<_Mytree> _Iter)
; 348  : 	{	// convert to unchecked
; 349  : 	return (_Iter._Unchecked());
; 350  : 	}
; 351  : 
; 352  : template<class _Mytree> inline
; 353  : 	_Tree_const_iterator<_Mytree>&
; 354  : 		_Rechecked(_Tree_const_iterator<_Mytree>& _Iter,
; 355  : 			typename _Tree_const_iterator<_Mytree>
; 356  : 				::_Unchecked_type _Right)
; 357  : 	{	// convert to checked
; 358  : 	return (_Iter._Rechecked(_Right));
; 359  : 	}
; 360  : 
; 361  : 	// TEMPLATE CLASS _Tree_iterator
; 362  : template<class _Mytree>
; 363  : 	class _Tree_iterator
; 364  : 		: public _Tree_const_iterator<_Mytree>
; 365  : 	{	// iterator for mutable tree
; 366  : public:
; 367  : 	typedef _Tree_iterator<_Mytree> _Myiter;
; 368  : 	typedef _Tree_const_iterator<_Mytree> _Mybase;
; 369  : 	typedef bidirectional_iterator_tag iterator_category;
; 370  : 
; 371  : 	typedef typename _Mytree::_Nodeptr _Nodeptr;
; 372  : 	typedef typename _Mytree::value_type value_type;
; 373  : 	typedef typename _Mytree::difference_type difference_type;
; 374  : 
; 375  : 	typedef typename _Mytree::pointer pointer;
; 376  : 	typedef typename _Mytree::reference reference;
; 377  : 
; 378  : 	_Tree_iterator()
; 379  : 		{	// construct with null node
; 380  : 		}
; 381  : 
; 382  : 	_Tree_iterator(_Nodeptr _Pnode, const _Mytree *_Plist)
; 383  : 		: _Mybase(_Pnode, _Plist)
; 384  : 		{	// construct with node pointer _Pnode
; 385  : 		}
; 386  : 
; 387  : 	typedef _Tree_unchecked_iterator<_Mytree> _Unchecked_type;
; 388  : 
; 389  : 	_Myiter& _Rechecked(_Unchecked_type _Right)
; 390  : 		{	// reset from unchecked iterator
; 391  : 		this->_Ptr = _Right._Ptr;
; 392  : 		return (*this);
; 393  : 		}
; 394  : 
; 395  : 	_Unchecked_type _Unchecked() const
; 396  : 		{	// make an unchecked iterator
; 397  : 		return (_Unchecked_type(this->_Ptr, (_Mytree *)this->_Getcont()));
; 398  : 		}
; 399  : 
; 400  : 	reference operator*() const
; 401  : 		{	// return designated value
; 402  : 		return ((reference)**(_Mybase *)this);
; 403  : 		}
; 404  : 
; 405  : 	pointer operator->() const
; 406  : 		{	// return pointer to class object
; 407  : 		return (_STD pointer_traits<pointer>::pointer_to(**this));
; 408  : 		}
; 409  : 
; 410  : 	_Myiter& operator++()
; 411  : 		{	// preincrement
; 412  : 		++(*(_Mybase *)this);
; 413  : 		return (*this);
; 414  : 		}
; 415  : 
; 416  : 	_Myiter operator++(int)
; 417  : 		{	// postincrement
; 418  : 		_Myiter _Tmp = *this;
; 419  : 		++*this;
; 420  : 		return (_Tmp);
; 421  : 		}
; 422  : 
; 423  : 	_Myiter& operator--()
; 424  : 		{	// predecrement
; 425  : 		--(*(_Mybase *)this);
; 426  : 		return (*this);
; 427  : 		}
; 428  : 
; 429  : 	_Myiter operator--(int)
; 430  : 		{	// postdecrement
; 431  : 		_Myiter _Tmp = *this;
; 432  : 		--*this;
; 433  : 		return (_Tmp);
; 434  : 		}
; 435  : 	};
; 436  : 
; 437  : template<class _Mytree> inline
; 438  : 	typename _Tree_iterator<_Mytree>::_Unchecked_type
; 439  : 		_Unchecked(_Tree_iterator<_Mytree> _Iter)
; 440  : 	{	// convert to unchecked
; 441  : 	return (_Iter._Unchecked());
; 442  : 	}
; 443  : 
; 444  : template<class _Mytree> inline
; 445  : 	_Tree_iterator<_Mytree>&
; 446  : 		_Rechecked(_Tree_iterator<_Mytree>& _Iter,
; 447  : 			typename _Tree_iterator<_Mytree>
; 448  : 				::_Unchecked_type _Right)
; 449  : 	{	// convert to checked
; 450  : 	return (_Iter._Rechecked(_Right));
; 451  : 	}
; 452  : 
; 453  : 		// tree TYPE WRAPPERS
; 454  : template<class _Value_type,
; 455  : 	class _Size_type,
; 456  : 	class _Difference_type,
; 457  : 	class _Pointer,
; 458  : 	class _Const_pointer,
; 459  : 	class _Reference,
; 460  : 	class _Const_reference,
; 461  : 	class _Nodeptr_type>
; 462  : 	struct _Tree_iter_types
; 463  : 	{	// wraps types needed by iterators
; 464  : 	typedef _Value_type value_type;
; 465  : 	typedef _Size_type size_type;
; 466  : 	typedef _Difference_type difference_type;
; 467  : 	typedef _Pointer pointer;
; 468  : 	typedef _Const_pointer const_pointer;
; 469  : 	typedef _Reference reference;
; 470  : 	typedef _Const_reference const_reference;
; 471  : 	typedef _Nodeptr_type _Nodeptr;
; 472  : 	};
; 473  : 
; 474  : template<class _Value_type,
; 475  : 	class _Voidptr>
; 476  : 	struct _Tree_node
; 477  : 		{	// tree node
; 478  : 		_Voidptr _Left;	// left subtree, or smallest element if head
; 479  : 		_Voidptr _Parent;	// parent, or root of tree if head
; 480  : 		_Voidptr _Right;	// right subtree, or largest element if head
; 481  : 		char _Color;	// _Red or _Black, _Black if head
; 482  : 		char _Isnil;	// true only if head (also nil) node
; 483  : 		_Value_type _Myval;	// the stored value, unused if head
; 484  : 
; 485  : 	private:
; 486  : 		_Tree_node& operator=(const _Tree_node&);
; 487  : 		};
; 488  : 
; 489  : template<class _Value_type>
; 490  : 	struct _Tree_node<_Value_type, void *>
; 491  : 		{	// tree node
; 492  : 		typedef _Tree_node<_Value_type, void *> *_Nodeptr;
; 493  : 		_Nodeptr _Left;	// left subtree, or smallest element if head
; 494  : 		_Nodeptr _Parent;	// parent, or root of tree if head
; 495  : 		_Nodeptr _Right;	// right subtree, or largest element if head
; 496  : 		char _Color;	// _Red or _Black, _Black if head
; 497  : 		char _Isnil;	// true only if head (also nil) node
; 498  : 		_Value_type _Myval;	// the stored value, unused if head
; 499  : 
; 500  : 	private:
; 501  : 		_Tree_node& operator=(const _Tree_node&);
; 502  : 		};
; 503  : 
; 504  : template<class _Ty>
; 505  : 	struct _Tree_simple_types
; 506  : 		: public _Simple_types<_Ty>
; 507  : 	{	// wraps types needed by iterators
; 508  : 	typedef _Tree_node<_Ty, void *> _Node;
; 509  : 	typedef _Node *_Nodeptr;
; 510  : 	};
; 511  : 
; 512  : template<class _Ty,
; 513  : 	class _Alloc0>
; 514  : 	struct _Tree_base_types
; 515  : 	{	// types needed for a container base
; 516  : 	typedef _Alloc0 _Alloc;
; 517  : 	typedef _Tree_base_types<_Ty, _Alloc> _Myt;
; 518  : 
; 519  : 	typedef _Wrap_alloc<_Alloc> _Alty0;
; 520  : 	typedef typename _Alty0::template rebind<_Ty>::other _Alty;
; 521  : 
; 522  : 
; 523  : 	typedef typename _Get_voidptr<_Alty, typename _Alty::pointer>::type
; 524  : 		_Voidptr;
; 525  : 	typedef _Tree_node<typename _Alty::value_type,
; 526  : 		_Voidptr> _Node;
; 527  : 
; 528  : 	typedef typename _Alty::template rebind<_Node>::other _Alnod_type;
; 529  : 	typedef typename _Alnod_type::pointer _Nodeptr;
; 530  : 	typedef _Nodeptr& _Nodepref;
; 531  : 
; 532  : 	typedef typename _If<_Is_simple_alloc<_Alty>::value,
; 533  : 		_Tree_simple_types<typename _Alty::value_type>,
; 534  : 		_Tree_iter_types<typename _Alty::value_type,
; 535  : 			typename _Alty::size_type,
; 536  : 			typename _Alty::difference_type,
; 537  : 			typename _Alty::pointer,
; 538  : 			typename _Alty::const_pointer,
; 539  : 			typename _Alty::reference,
; 540  : 			typename _Alty::const_reference,
; 541  : 			_Nodeptr> >::type
; 542  : 		_Val_types;
; 543  : 	};
; 544  : 
; 545  : 		// TEMPLATE CLASS _Tree_val
; 546  : template<class _Val_types>
; 547  : 	class _Tree_val
; 548  : 		: public _Container_base
; 549  : 	{	// base class for tree to hold data
; 550  : public:
; 551  : 	typedef _Tree_val<_Val_types> _Myt;
; 552  : 
; 553  : 	typedef typename _Val_types::_Nodeptr _Nodeptr;
; 554  : 	typedef _Nodeptr& _Nodepref;
; 555  : 
; 556  : 	typedef typename _Val_types::value_type value_type;
; 557  : 	typedef typename _Val_types::size_type size_type;
; 558  : 	typedef typename _Val_types::difference_type difference_type;
; 559  : 	typedef typename _Val_types::pointer pointer;
; 560  : 	typedef typename _Val_types::const_pointer const_pointer;
; 561  : 	typedef typename _Val_types::reference reference;
; 562  : 	typedef typename _Val_types::const_reference const_reference;
; 563  : 
; 564  : 	typedef _Tree_const_iterator<_Myt> const_iterator;
; 565  : 	typedef _Tree_iterator<_Myt> iterator;
; 566  : 
; 567  : 	_Tree_val()
; 568  : 		{	// initialize data
; 569  : 		this->_Myhead = 0;
; 570  : 		this->_Mysize = 0;
; 571  : 		}
; 572  : 
; 573  : 	enum _Redbl
; 574  : 		{	// colors for link to parent
; 575  : 		_Red, _Black};
; 576  : 
; 577  : 	static char& _Color(_Nodeptr _Pnode)
; 578  : 		{	// return reference to color in node
; 579  : 		return ((char&)_Pnode->_Color);
; 580  : 		}
; 581  : 
; 582  : 	static char& _Isnil(_Nodeptr _Pnode)
; 583  : 		{	// return reference to nil flag in node
; 584  : 		return ((char&)_Pnode->_Isnil);

	mov	rcx, QWORD PTR [rcx]

; 590  : 		}
; 591  : 
; 592  : 	static _Nodepref _Parent(_Nodeptr _Pnode)
; 593  : 		{	// return reference to parent pointer in node
; 594  : 		return ((_Nodepref)_Pnode->_Parent);
; 595  : 		}
; 596  : 
; 597  : 	static _Nodepref _Right(_Nodeptr _Pnode)
; 598  : 		{	// return reference to right pointer in node
; 599  : 		return ((_Nodepref)_Pnode->_Right);
; 600  : 		}
; 601  : 
; 602  : 	static reference _Myval(_Nodeptr _Pnode)
; 603  : 		{	// return reference to value in node
; 604  : 		return ((reference)_Pnode->_Myval);
; 605  : 		}
; 606  : 
; 607  : 	static _Nodeptr _Max(_Nodeptr _Pnode)
; 608  : 		{	// return rightmost node in subtree at _Pnode
; 609  : 		while (!_Isnil(_Right(_Pnode)))
; 610  : 			_Pnode = _Right(_Pnode);
; 611  : 		return (_Pnode);
; 612  : 		}
; 613  : 
; 614  : 	static _Nodeptr _Min(_Nodeptr _Pnode)
; 615  : 		{	// return leftmost node in subtree at _Pnode
; 616  : 		while (!_Isnil(_Left(_Pnode)))

	cmp	BYTE PTR [rcx+25], 0
	je	SHORT $LL49@stat_econo

; 65   : 		else

	jmp	SHORT $LN83@stat_econo
$LN80@stat_econo:

; 66   : 			{	// climb looking for right subtree
; 67   : 			_Nodeptr _Pnode;
; 68   : 			while (!_Mytree::_Isnil(_Pnode = _Mytree::_Parent(_Ptr))
; 69   : 				&& _Ptr == _Mytree::_Right(_Pnode))

	mov	rcx, QWORD PTR [rax+8]
	cmp	BYTE PTR [rcx+25], 0
	jne	SHORT $LN90@stat_econo
$LL33@stat_econo:
	cmp	rax, QWORD PTR [rcx+16]
	jne	SHORT $LN90@stat_econo

; 70   : 				_Ptr = _Pnode;	// ==> parent while right subtree

	mov	rax, rcx
	mov	rcx, QWORD PTR [rcx+8]
	cmp	BYTE PTR [rcx+25], 0
	je	SHORT $LL33@stat_econo
$LN90@stat_econo:

; 71   : 			_Ptr = _Pnode;	// ==> parent (head if end())

	mov	rax, rcx
$LN83@stat_econo:

; 72   : 			}
; 73   : 		return (*this);
; 74   : 		}
; 75   : 
; 76   : 	_Myiter operator++(int)
; 77   : 		{	// postincrement
; 78   : 		_Myiter _Tmp = *this;
; 79   : 		++*this;
; 80   : 		return (_Tmp);
; 81   : 		}
; 82   : 
; 83   : 	_Myiter& operator--()
; 84   : 		{	// predecrement
; 85   : 		if (_Mytree::_Isnil(_Ptr))
; 86   : 			_Ptr = _Mytree::_Right(_Ptr);	// end() ==> rightmost
; 87   : 		else if (!_Mytree::_Isnil(_Mytree::_Left(_Ptr)))
; 88   : 			_Ptr = _Mytree::_Max(
; 89   : 				_Mytree::_Left(_Ptr));	// ==> largest of left subtree
; 90   : 		else
; 91   : 			{	// climb looking for left subtree
; 92   : 			_Nodeptr _Pnode;
; 93   : 			while (!_Mytree::_Isnil(_Pnode = _Mytree::_Parent(_Ptr))
; 94   : 				&& _Ptr == _Mytree::_Left(_Pnode))
; 95   : 				_Ptr = _Pnode;	// ==> parent while left subtree
; 96   : 			if (_Mytree::_Isnil(_Ptr))
; 97   : 				;	// begin() shouldn't be decremented, don't move
; 98   : 			else
; 99   : 				_Ptr = _Pnode;	// ==> parent if not head
; 100  : 			}
; 101  : 		return (*this);
; 102  : 		}
; 103  : 
; 104  : 	_Myiter operator--(int)
; 105  : 		{	// postdecrement
; 106  : 		_Myiter _Tmp = *this;
; 107  : 		--*this;
; 108  : 		return (_Tmp);
; 109  : 		}
; 110  : 
; 111  : 	bool operator==(const _Myiter& _Right) const
; 112  : 		{	// test for iterator equality
; 113  : 		return (_Ptr == _Right._Ptr);
; 114  : 		}
; 115  : 
; 116  : 	bool operator!=(const _Myiter& _Right) const
; 117  : 		{	// test for iterator inequality
; 118  : 		return (!(*this == _Right));
; 119  : 		}
; 120  : 
; 121  : 	_Nodeptr _Mynode() const
; 122  : 		{	// return node pointer
; 123  : 		return (_Ptr);
; 124  : 		}
; 125  : 
; 126  : 	_Nodeptr _Ptr;	// pointer to node
; 127  : 	};
; 128  : 
; 129  : 	// TEMPLATE CLASS _Tree_unchecked_iterator
; 130  : template<class _Mytree>
; 131  : 	class _Tree_unchecked_iterator
; 132  : 		: public _Tree_unchecked_const_iterator<_Mytree>
; 133  : 	{	// unchecked iterator for mutable tree
; 134  : public:
; 135  : 	typedef _Tree_unchecked_iterator<_Mytree> _Myiter;
; 136  : 	typedef _Tree_unchecked_const_iterator<_Mytree> _Mybase;
; 137  : 	typedef bidirectional_iterator_tag iterator_category;
; 138  : 
; 139  : 	typedef typename _Mytree::_Nodeptr _Nodeptr;
; 140  : 	typedef typename _Mytree::value_type value_type;
; 141  : 	typedef typename _Mytree::difference_type difference_type;
; 142  : 	typedef typename _Mytree::pointer pointer;
; 143  : 	typedef typename _Mytree::reference reference;
; 144  : 
; 145  : 	_Tree_unchecked_iterator()
; 146  : 		{	// construct with null node
; 147  : 		}
; 148  : 
; 149  : 	_Tree_unchecked_iterator(_Nodeptr _Pnode, const _Mytree *_Plist)
; 150  : 		: _Mybase(_Pnode, _Plist)
; 151  : 		{	// construct with node pointer _Pnode
; 152  : 		}
; 153  : 
; 154  : 	reference operator*() const
; 155  : 		{	// return designated value
; 156  : 		return ((reference)**(_Mybase *)this);
; 157  : 		}
; 158  : 
; 159  : 	pointer operator->() const
; 160  : 		{	// return pointer to class object
; 161  : 		return (_STD pointer_traits<pointer>::pointer_to(**this));
; 162  : 		}
; 163  : 
; 164  : 	_Myiter& operator++()
; 165  : 		{	// preincrement
; 166  : 		++(*(_Mybase *)this);
; 167  : 		return (*this);
; 168  : 		}
; 169  : 
; 170  : 	_Myiter operator++(int)
; 171  : 		{	// postincrement
; 172  : 		_Myiter _Tmp = *this;
; 173  : 		++*this;
; 174  : 		return (_Tmp);
; 175  : 		}
; 176  : 
; 177  : 	_Myiter& operator--()
; 178  : 		{	// predecrement
; 179  : 		--(*(_Mybase *)this);
; 180  : 		return (*this);
; 181  : 		}
; 182  : 
; 183  : 	_Myiter operator--(int)
; 184  : 		{	// postdecrement
; 185  : 		_Myiter _Tmp = *this;
; 186  : 		--*this;
; 187  : 		return (_Tmp);
; 188  : 		}
; 189  : 	};
; 190  : 
; 191  : 	// TEMPLATE CLASS _Tree_const_iterator
; 192  : template<class _Mytree>
; 193  : 	class _Tree_const_iterator
; 194  : 		: public _Tree_unchecked_const_iterator<_Mytree, _Iterator_base>
; 195  : 	{	// iterator for nonmutable tree
; 196  : public:
; 197  : 	typedef _Tree_const_iterator<_Mytree> _Myiter;
; 198  : 	typedef _Tree_unchecked_const_iterator<_Mytree, _Iterator_base> _Mybase;
; 199  : 	typedef bidirectional_iterator_tag iterator_category;
; 200  : 
; 201  : 	typedef typename _Mytree::_Nodeptr _Nodeptr;
; 202  : 	typedef typename _Mytree::value_type value_type;
; 203  : 	typedef typename _Mytree::difference_type difference_type;
; 204  : 	typedef typename _Mytree::const_pointer pointer;
; 205  : 	typedef typename _Mytree::const_reference reference;
; 206  : 
; 207  : 	_Tree_const_iterator()
; 208  : 		: _Mybase()
; 209  : 		{	// construct with null node pointer
; 210  : 		}
; 211  : 
; 212  : 	_Tree_const_iterator(_Nodeptr _Pnode, const _Mytree *_Plist)
; 213  : 		: _Mybase(_Pnode, _Plist)
; 214  : 		{	// construct with node pointer _Pnode
; 215  : 		}
; 216  : 
; 217  : 	typedef _Tree_unchecked_const_iterator<_Mytree> _Unchecked_type;
; 218  : 
; 219  : 	_Myiter& _Rechecked(_Unchecked_type _Right)
; 220  : 		{	// reset from unchecked iterator
; 221  : 		this->_Ptr = _Right._Ptr;
; 222  : 		return (*this);
; 223  : 		}
; 224  : 
; 225  : 	_Unchecked_type _Unchecked() const
; 226  : 		{	// make an unchecked iterator
; 227  : 		return (_Unchecked_type(this->_Ptr, (_Mytree *)this->_Getcont()));
; 228  : 		}
; 229  : 
; 230  : 	reference operator*() const
; 231  : 		{	// return designated value
; 232  :  #if _ITERATOR_DEBUG_LEVEL == 2
; 233  : 		if (this->_Getcont() == 0
; 234  : 			|| this->_Ptr == 0
; 235  : 			|| this->_Ptr == ((_Mytree *)this->_Getcont())->_Myhead)
; 236  : 			{	// report error
; 237  : 			_DEBUG_ERROR("map/set iterator not dereferencable");
; 238  : 			_SCL_SECURE_OUT_OF_RANGE;
; 239  : 			}
; 240  : 
; 241  :  #elif _ITERATOR_DEBUG_LEVEL == 1
; 242  : 		_SCL_SECURE_VALIDATE(this->_Getcont() != 0 && this->_Ptr != 0);
; 243  : 		_SCL_SECURE_VALIDATE_RANGE(this->_Ptr !=
; 244  : 			((_Mytree *)this->_Getcont())->_Myhead);
; 245  :  #endif /* _ITERATOR_DEBUG_LEVEL */
; 246  : 
; 247  : 		return (_Mytree::_Myval(this->_Ptr));
; 248  : 		}
; 249  : 
; 250  : 	pointer operator->() const
; 251  : 		{	// return pointer to class object
; 252  : 		return (_STD pointer_traits<pointer>::pointer_to(**this));
; 253  : 		}
; 254  : 
; 255  : 	_Myiter& operator++()
; 256  : 		{	// preincrement
; 257  :  #if _ITERATOR_DEBUG_LEVEL == 2
; 258  : 		if (this->_Getcont() == 0
; 259  : 			|| this->_Ptr == 0
; 260  : 			|| _Mytree::_Isnil(this->_Ptr))
; 261  : 			{	// report error
; 262  : 			_DEBUG_ERROR("map/set iterator not incrementable");
; 263  : 			_SCL_SECURE_OUT_OF_RANGE;
; 264  : 			}
; 265  : 
; 266  :  #elif _ITERATOR_DEBUG_LEVEL == 1
; 267  : 		_SCL_SECURE_VALIDATE(this->_Getcont() != 0 && this->_Ptr != 0);
; 268  : 		_SCL_SECURE_VALIDATE_RANGE(!_Mytree::_Isnil(this->_Ptr));
; 269  :  #endif /* _ITERATOR_DEBUG_LEVEL */
; 270  : 
; 271  : 		++(*(_Mybase *)this);
; 272  : 		return (*this);
; 273  : 		}
; 274  : 
; 275  : 	_Myiter operator++(int)
; 276  : 		{	// postincrement
; 277  : 		_Myiter _Tmp = *this;
; 278  : 		++*this;
; 279  : 		return (_Tmp);
; 280  : 		}
; 281  : 
; 282  : 	_Myiter& operator--()
; 283  : 		{	// predecrement
; 284  :  #if _ITERATOR_DEBUG_LEVEL == 2
; 285  : 		if (this->_Getcont() == 0
; 286  : 			|| this->_Ptr == 0)
; 287  : 			{	// report error
; 288  : 			_DEBUG_ERROR("map/set iterator not decrementable");
; 289  : 			_SCL_SECURE_OUT_OF_RANGE;
; 290  : 			}
; 291  : 
; 292  : 		_Nodeptr _Ptrsav = this->_Ptr;
; 293  : 		--(*(_Mybase *)this);
; 294  : 		if (_Ptrsav == this->_Ptr)
; 295  : 			{	// report error
; 296  : 			_DEBUG_ERROR("map/set iterator not decrementable");
; 297  : 			_SCL_SECURE_OUT_OF_RANGE;
; 298  : 			}
; 299  : 
; 300  :  #elif _ITERATOR_DEBUG_LEVEL == 1
; 301  : 		_SCL_SECURE_VALIDATE(this->_Getcont() != 0 && this->_Ptr != 0);
; 302  : 
; 303  : 		_Nodeptr _Ptrsav = this->_Ptr;
; 304  : 		--(*(_Mybase *)this);
; 305  : 		_SCL_SECURE_VALIDATE(_Ptrsav != this->_Ptr);
; 306  : 
; 307  :  #else /* _ITERATOR_DEBUG_LEVEL == 0 */
; 308  : 		--(*(_Mybase *)this);
; 309  :  #endif /* _ITERATOR_DEBUG_LEVEL */
; 310  : 
; 311  : 		return (*this);
; 312  : 		}
; 313  : 
; 314  : 	_Myiter operator--(int)
; 315  : 		{	// postdecrement
; 316  : 		_Myiter _Tmp = *this;
; 317  : 		--*this;
; 318  : 		return (_Tmp);
; 319  : 		}
; 320  : 
; 321  : 	bool operator==(const _Myiter& _Right) const
; 322  : 		{	// test for iterator equality
; 323  :  #if _ITERATOR_DEBUG_LEVEL == 2
; 324  : 		if (this->_Getcont() == 0
; 325  : 			|| this->_Getcont() != _Right._Getcont())
; 326  : 			{	// report error
; 327  : 			_DEBUG_ERROR("map/set iterators incompatible");
; 328  : 			_SCL_SECURE_INVALID_ARGUMENT;
; 329  : 			}
; 330  : 
; 331  :  #elif _ITERATOR_DEBUG_LEVEL == 1
; 332  : 		_SCL_SECURE_VALIDATE(this->_Getcont() != 0
; 333  : 			&& this->_Getcont() == _Right._Getcont());
; 334  :  #endif /* _ITERATOR_DEBUG_LEVEL */
; 335  : 
; 336  : 		return (this->_Ptr == _Right._Ptr);

	cmp	rax, rdx
; File c:\users\nummer\documents\github\olr-3.0\src\xray\xrcore\xrstring.cpp

; 145  : 	for (; it!=end; it++)	{

	jne	SHORT $LL34@stat_econo
$LN1@stat_econo:
; File c:\users\nummer\documents\github\olr-3.0\src\xray\xrcore\xrsyncronize.cpp

; 69   : 	LeaveCriticalSection			( (CRITICAL_SECTION*)pmutex );

	mov	rcx, QWORD PTR [rdi]
	call	QWORD PTR __imp_LeaveCriticalSection
; File c:\users\nummer\documents\github\olr-3.0\src\xray\xrcore\xrstring.cpp

; 152  : 	return			u32(counter);

	mov	eax, ebx

; 153  : }

	mov	rbx, QWORD PTR [rsp+48]
	add	rsp, 32					; 00000020H
	pop	rdi
	ret	0
?stat_economy@str_container@@QEAAIXZ ENDP		; str_container::stat_economy
_TEXT	ENDS
; Function compile flags: /Ogtpy
; File c:\users\nummer\documents\github\olr-3.0\src\xray\xrcore\xrstring.cpp
; File c:\users\nummer\documents\github\olr-3.0\src\xray\xrcore\xrsyncronize.cpp
; File c:\program files (x86)\microsoft visual studio 12.0\vc\include\xtree
; File c:\users\nummer\documents\github\olr-3.0\src\xray\xrcore\xrstring.cpp
; File c:\users\nummer\documents\github\olr-3.0\src\xray\xrcore\crc32.cpp
; File c:\users\nummer\documents\github\olr-3.0\src\xray\xrcore\xrstring.cpp
; File c:\users\nummer\documents\github\olr-3.0\src\xray\xrcore\crc32.cpp
; File c:\users\nummer\documents\github\olr-3.0\src\xray\xrcore\xrstring.cpp
; File c:\users\nummer\documents\github\olr-3.0\src\xray\xrcore\xrdebugnew.cpp
; File c:\users\nummer\documents\github\olr-3.0\src\xray\xrcore\xrstring.cpp
; File c:\users\nummer\documents\github\olr-3.0\src\xray\xrcore\_std_extensions.h
; File c:\users\nummer\documents\github\olr-3.0\src\xray\xrcore\xrstring.cpp
; File c:\users\nummer\documents\github\olr-3.0\src\xray\xrcore\xrdebugnew.cpp
; File c:\program files (x86)\microsoft visual studio 12.0\vc\include\xtree
; File c:\users\nummer\documents\github\olr-3.0\src\xray\xrcore\xrstring.cpp
; File c:\users\nummer\documents\github\olr-3.0\src\xray\xrcore\xrsyncronize.cpp
; File c:\users\nummer\documents\github\olr-3.0\src\xray\xrcore\xrstring.cpp
; File c:\users\nummer\documents\github\olr-3.0\src\xray\xrcore\xrsyncronize.cpp
; File c:\users\nummer\documents\github\olr-3.0\src\xray\xrcore\xrstring.cpp
_TEXT	SEGMENT
crc_str$1 = 80
this$ = 160
?verify@str_container@@QEAAXXZ PROC			; str_container::verify

; 110  : {

$LN113:
	mov	QWORD PTR [rsp+8], rcx
	push	rbx
	push	rdi
	push	r15
	sub	rsp, 128				; 00000080H
	mov	r15, rcx
; File c:\users\nummer\documents\github\olr-3.0\src\xray\xrcore\xrsyncronize.cpp

; 64   : 	EnterCriticalSection			( (CRITICAL_SECTION*)pmutex );

	mov	rcx, QWORD PTR [rcx]
	call	QWORD PTR __imp_EnterCriticalSection
; File c:\program files (x86)\microsoft visual studio 12.0\vc\include\xtree

; 589  : 		return ((_Nodepref)_Pnode->_Left);

	mov	rdi, QWORD PTR [r15+8]

; 44   : 		{	// construct with node pointer _Pnode

	mov	rbx, QWORD PTR [rdi]

; 72   : 			}
; 73   : 		return (*this);
; 74   : 		}
; 75   : 
; 76   : 	_Myiter operator++(int)
; 77   : 		{	// postincrement
; 78   : 		_Myiter _Tmp = *this;
; 79   : 		++*this;
; 80   : 		return (_Tmp);
; 81   : 		}
; 82   : 
; 83   : 	_Myiter& operator--()
; 84   : 		{	// predecrement
; 85   : 		if (_Mytree::_Isnil(_Ptr))
; 86   : 			_Ptr = _Mytree::_Right(_Ptr);	// end() ==> rightmost
; 87   : 		else if (!_Mytree::_Isnil(_Mytree::_Left(_Ptr)))
; 88   : 			_Ptr = _Mytree::_Max(
; 89   : 				_Mytree::_Left(_Ptr));	// ==> largest of left subtree
; 90   : 		else
; 91   : 			{	// climb looking for left subtree
; 92   : 			_Nodeptr _Pnode;
; 93   : 			while (!_Mytree::_Isnil(_Pnode = _Mytree::_Parent(_Ptr))
; 94   : 				&& _Ptr == _Mytree::_Left(_Pnode))
; 95   : 				_Ptr = _Pnode;	// ==> parent while left subtree
; 96   : 			if (_Mytree::_Isnil(_Ptr))
; 97   : 				;	// begin() shouldn't be decremented, don't move
; 98   : 			else
; 99   : 				_Ptr = _Pnode;	// ==> parent if not head
; 100  : 			}
; 101  : 		return (*this);
; 102  : 		}
; 103  : 
; 104  : 	_Myiter operator--(int)
; 105  : 		{	// postdecrement
; 106  : 		_Myiter _Tmp = *this;
; 107  : 		--*this;
; 108  : 		return (_Tmp);
; 109  : 		}
; 110  : 
; 111  : 	bool operator==(const _Myiter& _Right) const
; 112  : 		{	// test for iterator equality
; 113  : 		return (_Ptr == _Right._Ptr);
; 114  : 		}
; 115  : 
; 116  : 	bool operator!=(const _Myiter& _Right) const
; 117  : 		{	// test for iterator inequality
; 118  : 		return (!(*this == _Right));
; 119  : 		}
; 120  : 
; 121  : 	_Nodeptr _Mynode() const
; 122  : 		{	// return node pointer
; 123  : 		return (_Ptr);
; 124  : 		}
; 125  : 
; 126  : 	_Nodeptr _Ptr;	// pointer to node
; 127  : 	};
; 128  : 
; 129  : 	// TEMPLATE CLASS _Tree_unchecked_iterator
; 130  : template<class _Mytree>
; 131  : 	class _Tree_unchecked_iterator
; 132  : 		: public _Tree_unchecked_const_iterator<_Mytree>
; 133  : 	{	// unchecked iterator for mutable tree
; 134  : public:
; 135  : 	typedef _Tree_unchecked_iterator<_Mytree> _Myiter;
; 136  : 	typedef _Tree_unchecked_const_iterator<_Mytree> _Mybase;
; 137  : 	typedef bidirectional_iterator_tag iterator_category;
; 138  : 
; 139  : 	typedef typename _Mytree::_Nodeptr _Nodeptr;
; 140  : 	typedef typename _Mytree::value_type value_type;
; 141  : 	typedef typename _Mytree::difference_type difference_type;
; 142  : 	typedef typename _Mytree::pointer pointer;
; 143  : 	typedef typename _Mytree::reference reference;
; 144  : 
; 145  : 	_Tree_unchecked_iterator()
; 146  : 		{	// construct with null node
; 147  : 		}
; 148  : 
; 149  : 	_Tree_unchecked_iterator(_Nodeptr _Pnode, const _Mytree *_Plist)
; 150  : 		: _Mybase(_Pnode, _Plist)
; 151  : 		{	// construct with node pointer _Pnode
; 152  : 		}
; 153  : 
; 154  : 	reference operator*() const
; 155  : 		{	// return designated value
; 156  : 		return ((reference)**(_Mybase *)this);
; 157  : 		}
; 158  : 
; 159  : 	pointer operator->() const
; 160  : 		{	// return pointer to class object
; 161  : 		return (_STD pointer_traits<pointer>::pointer_to(**this));
; 162  : 		}
; 163  : 
; 164  : 	_Myiter& operator++()
; 165  : 		{	// preincrement
; 166  : 		++(*(_Mybase *)this);
; 167  : 		return (*this);
; 168  : 		}
; 169  : 
; 170  : 	_Myiter operator++(int)
; 171  : 		{	// postincrement
; 172  : 		_Myiter _Tmp = *this;
; 173  : 		++*this;
; 174  : 		return (_Tmp);
; 175  : 		}
; 176  : 
; 177  : 	_Myiter& operator--()
; 178  : 		{	// predecrement
; 179  : 		--(*(_Mybase *)this);
; 180  : 		return (*this);
; 181  : 		}
; 182  : 
; 183  : 	_Myiter operator--(int)
; 184  : 		{	// postdecrement
; 185  : 		_Myiter _Tmp = *this;
; 186  : 		--*this;
; 187  : 		return (_Tmp);
; 188  : 		}
; 189  : 	};
; 190  : 
; 191  : 	// TEMPLATE CLASS _Tree_const_iterator
; 192  : template<class _Mytree>
; 193  : 	class _Tree_const_iterator
; 194  : 		: public _Tree_unchecked_const_iterator<_Mytree, _Iterator_base>
; 195  : 	{	// iterator for nonmutable tree
; 196  : public:
; 197  : 	typedef _Tree_const_iterator<_Mytree> _Myiter;
; 198  : 	typedef _Tree_unchecked_const_iterator<_Mytree, _Iterator_base> _Mybase;
; 199  : 	typedef bidirectional_iterator_tag iterator_category;
; 200  : 
; 201  : 	typedef typename _Mytree::_Nodeptr _Nodeptr;
; 202  : 	typedef typename _Mytree::value_type value_type;
; 203  : 	typedef typename _Mytree::difference_type difference_type;
; 204  : 	typedef typename _Mytree::const_pointer pointer;
; 205  : 	typedef typename _Mytree::const_reference reference;
; 206  : 
; 207  : 	_Tree_const_iterator()
; 208  : 		: _Mybase()
; 209  : 		{	// construct with null node pointer
; 210  : 		}
; 211  : 
; 212  : 	_Tree_const_iterator(_Nodeptr _Pnode, const _Mytree *_Plist)
; 213  : 		: _Mybase(_Pnode, _Plist)
; 214  : 		{	// construct with node pointer _Pnode
; 215  : 		}
; 216  : 
; 217  : 	typedef _Tree_unchecked_const_iterator<_Mytree> _Unchecked_type;
; 218  : 
; 219  : 	_Myiter& _Rechecked(_Unchecked_type _Right)
; 220  : 		{	// reset from unchecked iterator
; 221  : 		this->_Ptr = _Right._Ptr;
; 222  : 		return (*this);
; 223  : 		}
; 224  : 
; 225  : 	_Unchecked_type _Unchecked() const
; 226  : 		{	// make an unchecked iterator
; 227  : 		return (_Unchecked_type(this->_Ptr, (_Mytree *)this->_Getcont()));
; 228  : 		}
; 229  : 
; 230  : 	reference operator*() const
; 231  : 		{	// return designated value
; 232  :  #if _ITERATOR_DEBUG_LEVEL == 2
; 233  : 		if (this->_Getcont() == 0
; 234  : 			|| this->_Ptr == 0
; 235  : 			|| this->_Ptr == ((_Mytree *)this->_Getcont())->_Myhead)
; 236  : 			{	// report error
; 237  : 			_DEBUG_ERROR("map/set iterator not dereferencable");
; 238  : 			_SCL_SECURE_OUT_OF_RANGE;
; 239  : 			}
; 240  : 
; 241  :  #elif _ITERATOR_DEBUG_LEVEL == 1
; 242  : 		_SCL_SECURE_VALIDATE(this->_Getcont() != 0 && this->_Ptr != 0);
; 243  : 		_SCL_SECURE_VALIDATE_RANGE(this->_Ptr !=
; 244  : 			((_Mytree *)this->_Getcont())->_Myhead);
; 245  :  #endif /* _ITERATOR_DEBUG_LEVEL */
; 246  : 
; 247  : 		return (_Mytree::_Myval(this->_Ptr));
; 248  : 		}
; 249  : 
; 250  : 	pointer operator->() const
; 251  : 		{	// return pointer to class object
; 252  : 		return (_STD pointer_traits<pointer>::pointer_to(**this));
; 253  : 		}
; 254  : 
; 255  : 	_Myiter& operator++()
; 256  : 		{	// preincrement
; 257  :  #if _ITERATOR_DEBUG_LEVEL == 2
; 258  : 		if (this->_Getcont() == 0
; 259  : 			|| this->_Ptr == 0
; 260  : 			|| _Mytree::_Isnil(this->_Ptr))
; 261  : 			{	// report error
; 262  : 			_DEBUG_ERROR("map/set iterator not incrementable");
; 263  : 			_SCL_SECURE_OUT_OF_RANGE;
; 264  : 			}
; 265  : 
; 266  :  #elif _ITERATOR_DEBUG_LEVEL == 1
; 267  : 		_SCL_SECURE_VALIDATE(this->_Getcont() != 0 && this->_Ptr != 0);
; 268  : 		_SCL_SECURE_VALIDATE_RANGE(!_Mytree::_Isnil(this->_Ptr));
; 269  :  #endif /* _ITERATOR_DEBUG_LEVEL */
; 270  : 
; 271  : 		++(*(_Mybase *)this);
; 272  : 		return (*this);
; 273  : 		}
; 274  : 
; 275  : 	_Myiter operator++(int)
; 276  : 		{	// postincrement
; 277  : 		_Myiter _Tmp = *this;
; 278  : 		++*this;
; 279  : 		return (_Tmp);
; 280  : 		}
; 281  : 
; 282  : 	_Myiter& operator--()
; 283  : 		{	// predecrement
; 284  :  #if _ITERATOR_DEBUG_LEVEL == 2
; 285  : 		if (this->_Getcont() == 0
; 286  : 			|| this->_Ptr == 0)
; 287  : 			{	// report error
; 288  : 			_DEBUG_ERROR("map/set iterator not decrementable");
; 289  : 			_SCL_SECURE_OUT_OF_RANGE;
; 290  : 			}
; 291  : 
; 292  : 		_Nodeptr _Ptrsav = this->_Ptr;
; 293  : 		--(*(_Mybase *)this);
; 294  : 		if (_Ptrsav == this->_Ptr)
; 295  : 			{	// report error
; 296  : 			_DEBUG_ERROR("map/set iterator not decrementable");
; 297  : 			_SCL_SECURE_OUT_OF_RANGE;
; 298  : 			}
; 299  : 
; 300  :  #elif _ITERATOR_DEBUG_LEVEL == 1
; 301  : 		_SCL_SECURE_VALIDATE(this->_Getcont() != 0 && this->_Ptr != 0);
; 302  : 
; 303  : 		_Nodeptr _Ptrsav = this->_Ptr;
; 304  : 		--(*(_Mybase *)this);
; 305  : 		_SCL_SECURE_VALIDATE(_Ptrsav != this->_Ptr);
; 306  : 
; 307  :  #else /* _ITERATOR_DEBUG_LEVEL == 0 */
; 308  : 		--(*(_Mybase *)this);
; 309  :  #endif /* _ITERATOR_DEBUG_LEVEL */
; 310  : 
; 311  : 		return (*this);
; 312  : 		}
; 313  : 
; 314  : 	_Myiter operator--(int)
; 315  : 		{	// postdecrement
; 316  : 		_Myiter _Tmp = *this;
; 317  : 		--*this;
; 318  : 		return (_Tmp);
; 319  : 		}
; 320  : 
; 321  : 	bool operator==(const _Myiter& _Right) const
; 322  : 		{	// test for iterator equality
; 323  :  #if _ITERATOR_DEBUG_LEVEL == 2
; 324  : 		if (this->_Getcont() == 0
; 325  : 			|| this->_Getcont() != _Right._Getcont())
; 326  : 			{	// report error
; 327  : 			_DEBUG_ERROR("map/set iterators incompatible");
; 328  : 			_SCL_SECURE_INVALID_ARGUMENT;
; 329  : 			}
; 330  : 
; 331  :  #elif _ITERATOR_DEBUG_LEVEL == 1
; 332  : 		_SCL_SECURE_VALIDATE(this->_Getcont() != 0
; 333  : 			&& this->_Getcont() == _Right._Getcont());
; 334  :  #endif /* _ITERATOR_DEBUG_LEVEL */
; 335  : 
; 336  : 		return (this->_Ptr == _Right._Ptr);

	cmp	rbx, rdi
; File c:\users\nummer\documents\github\olr-3.0\src\xray\xrcore\xrstring.cpp

; 114  : 	for (; it!=end; ++it)	{

	je	$LN9@verify
	mov	QWORD PTR [rsp+168], rbp
	mov	QWORD PTR [rsp+176], rsi
	mov	QWORD PTR [rsp+184], r12
	mov	QWORD PTR [rsp+120], r13
	lea	r12, OFFSET FLAT:crc32_table
	lea	r15, OFFSET FLAT:??_C@_0BG@PEMNBBM@str_container?3?3verify?$AA@
	mov	QWORD PTR [rsp+112], r14
	xor	r13d, r13d
	npad	1
$LL40@verify:
; File c:\users\nummer\documents\github\olr-3.0\src\xray\xrcore\crc32.cpp

; 44   : 	if (!crc32_ready)	

	cmp	DWORD PTR crc32_ready, r13d
; File c:\users\nummer\documents\github\olr-3.0\src\xray\xrcore\xrstring.cpp

; 115  : 		str_value*	sv		= *it;

	mov	r14, QWORD PTR [rbx+32]

; 116  : 		u32			crc		= crc32	(sv->value,sv->dwLength);

	mov	esi, DWORD PTR [r14+4]
; File c:\users\nummer\documents\github\olr-3.0\src\xray\xrcore\crc32.cpp

; 44   : 	if (!crc32_ready)	

	jne	SHORT $LN80@verify

; 45   : 	{
; 46   : 		crc32_init	();

	call	?crc32_init@@YAXXZ			; crc32_init

; 47   : 		crc32_ready	= TRUE;

	mov	DWORD PTR crc32_ready, 1
$LN80@verify:

; 48   : 	}
; 49   : 
; 50   : 	// Pass a text string to this function and it will return the CRC. 
; 51   : 
; 52   : 	// Once the lookup table has been filled in by the two functions above, 
; 53   : 	// this function creates all CRCs using only the lookup table. 
; 54   : 
; 55   : 	// Be sure to use unsigned variables, 
; 56   : 	// because negative values introduce high bits 
; 57   : 	// where zero bits are required. 
; 58   : 
; 59   : 	// Start out with all bits set high. 
; 60   : 	u32		ulCRC		= 0xffffffff; 

	or	edx, -1					; ffffffffH

; 61   : 	u8*		buffer		= (u8*)P;

	lea	r8, QWORD PTR [r14+12]

; 62   : 
; 63   : 	// Perform the algorithm on each character 
; 64   : 	// in the string, using the lookup table values. 
; 65   : 	while(len--) 

	test	esi, esi
	je	SHORT $LN95@verify
	npad	5
$LL79@verify:

; 66   : 		ulCRC = (ulCRC >> 8) ^ crc32_table[(ulCRC & 0xFF) ^ *buffer++]; 

	movzx	eax, BYTE PTR [r8]
	movzx	ecx, dl
	lea	r8, QWORD PTR [r8+1]
	xor	rcx, rax
	mov	eax, edx
	mov	edx, DWORD PTR [r12+rcx*4]
	shr	eax, 8
	xor	edx, eax
	dec	esi
	jne	SHORT $LL79@verify
$LN95@verify:
; File c:\users\nummer\documents\github\olr-3.0\src\xray\xrcore\xrstring.cpp

; 118  : 		R_ASSERT3	(crc==sv->dwCRC, "CorePanic: read-only memory corruption (shared_strings)", itoa(sv->dwCRC,crc_str,16));

	cmp	BYTE PTR ?ignore_always@?5??verify@str_container@@QEAAXXZ@4_NA, r13b
	jne	SHORT $LN111@verify
	mov	ecx, DWORD PTR [r14+8]
	not	edx
	cmp	edx, ecx
	je	SHORT $LN111@verify
	lea	rdx, QWORD PTR crc_str$1[rsp]
	mov	r8d, 16
	call	QWORD PTR __imp_itoa
; File c:\users\nummer\documents\github\olr-3.0\src\xray\xrcore\xrdebugnew.cpp

; 467  : 	backend		(e1,e2,e3,0,file,line,function,ignore_always);

	lea	rcx, OFFSET FLAT:?ignore_always@?5??verify@str_container@@QEAAXXZ@4_NA
	lea	rsi, OFFSET FLAT:??_C@_0N@LDEKJIFI@xrstring?4cpp?$AA@
	mov	QWORD PTR [rsp+64], rcx
	mov	QWORD PTR [rsp+56], r15
	mov	DWORD PTR [rsp+48], 118			; 00000076H
	lea	rcx, OFFSET FLAT:?Debug@@3VxrDebug@@A	; Debug
	lea	r8, OFFSET FLAT:??_C@_0DI@MODFLCOP@CorePanic?3?5read?9only?5memory?5corr@
	lea	rdx, OFFSET FLAT:??_C@_0P@ELJNGOBP@crc?$DN?$DNsv?9?$DOdwCRC?$AA@
	mov	r9, rax
	mov	QWORD PTR [rsp+40], rsi
	mov	QWORD PTR [rsp+32], r13
	call	?backend@xrDebug@@QEAAXPEBD0000H0AEA_N@Z ; xrDebug::backend
	jmp	SHORT $LN7@verify
$LN111@verify:
	lea	rsi, OFFSET FLAT:??_C@_0N@LDEKJIFI@xrstring?4cpp?$AA@
$LN7@verify:
; File c:\users\nummer\documents\github\olr-3.0\src\xray\xrcore\xrstring.cpp

; 119  : 		R_ASSERT3	(sv->dwLength == xr_strlen(sv->value), "CorePanic: read-only memory corruption (shared_strings, internal structures)", sv->value);

	cmp	BYTE PTR ?ignore_always@?9??verify@str_container@@QEAAXXZ@4_NA, r13b
	jne	SHORT $LN3@verify
; File c:\users\nummer\documents\github\olr-3.0\src\xray\xrcore\_std_extensions.h

; 270  : {	return (u32)strlen(S);			}

	or	rax, -1
	npad	2
$LL108@verify:
	inc	rax
	cmp	BYTE PTR [rax+r14+12], r13b
	jne	SHORT $LL108@verify
; File c:\users\nummer\documents\github\olr-3.0\src\xray\xrcore\xrstring.cpp

; 119  : 		R_ASSERT3	(sv->dwLength == xr_strlen(sv->value), "CorePanic: read-only memory corruption (shared_strings, internal structures)", sv->value);

	cmp	DWORD PTR [r14+4], eax
	je	SHORT $LN3@verify
; File c:\users\nummer\documents\github\olr-3.0\src\xray\xrcore\xrdebugnew.cpp

; 467  : 	backend		(e1,e2,e3,0,file,line,function,ignore_always);

	lea	rax, OFFSET FLAT:?ignore_always@?9??verify@str_container@@QEAAXXZ@4_NA
	lea	r9, QWORD PTR [r14+12]
	lea	r8, OFFSET FLAT:??_C@_0EN@LMBPALPM@CorePanic?3?5read?9only?5memory?5corr@
	mov	QWORD PTR [rsp+64], rax
	mov	QWORD PTR [rsp+56], r15
	mov	DWORD PTR [rsp+48], 119			; 00000077H
	lea	rdx, OFFSET FLAT:??_C@_0CF@JABCJEBB@sv?9?$DOdwLength?5?$DN?$DN?5xr_strlen?$CIsv?9?$DOva@
	lea	rcx, OFFSET FLAT:?Debug@@3VxrDebug@@A	; Debug
	mov	QWORD PTR [rsp+40], rsi
	mov	QWORD PTR [rsp+32], r13
	call	?backend@xrDebug@@QEAAXPEBD0000H0AEA_N@Z ; xrDebug::backend
$LN3@verify:
; File c:\program files (x86)\microsoft visual studio 12.0\vc\include\xtree

; 60   : 		if (_Mytree::_Isnil(_Ptr))

	cmp	BYTE PTR [rbx+25], r13b
	jne	SHORT $LN99@verify

; 337  : 		}
; 338  : 
; 339  : 	bool operator!=(const _Myiter& _Right) const
; 340  : 		{	// test for iterator inequality
; 341  : 		return (!(*this == _Right));
; 342  : 		}
; 343  : 	};
; 344  : 
; 345  : template<class _Mytree> inline
; 346  : 	typename _Tree_const_iterator<_Mytree>::_Unchecked_type
; 347  : 		_Unchecked(_Tree_const_iterator<_Mytree> _Iter)
; 348  : 	{	// convert to unchecked
; 349  : 	return (_Iter._Unchecked());
; 350  : 	}
; 351  : 
; 352  : template<class _Mytree> inline
; 353  : 	_Tree_const_iterator<_Mytree>&
; 354  : 		_Rechecked(_Tree_const_iterator<_Mytree>& _Iter,
; 355  : 			typename _Tree_const_iterator<_Mytree>
; 356  : 				::_Unchecked_type _Right)
; 357  : 	{	// convert to checked
; 358  : 	return (_Iter._Rechecked(_Right));
; 359  : 	}
; 360  : 
; 361  : 	// TEMPLATE CLASS _Tree_iterator
; 362  : template<class _Mytree>
; 363  : 	class _Tree_iterator
; 364  : 		: public _Tree_const_iterator<_Mytree>
; 365  : 	{	// iterator for mutable tree
; 366  : public:
; 367  : 	typedef _Tree_iterator<_Mytree> _Myiter;
; 368  : 	typedef _Tree_const_iterator<_Mytree> _Mybase;
; 369  : 	typedef bidirectional_iterator_tag iterator_category;
; 370  : 
; 371  : 	typedef typename _Mytree::_Nodeptr _Nodeptr;
; 372  : 	typedef typename _Mytree::value_type value_type;
; 373  : 	typedef typename _Mytree::difference_type difference_type;
; 374  : 
; 375  : 	typedef typename _Mytree::pointer pointer;
; 376  : 	typedef typename _Mytree::reference reference;
; 377  : 
; 378  : 	_Tree_iterator()
; 379  : 		{	// construct with null node
; 380  : 		}
; 381  : 
; 382  : 	_Tree_iterator(_Nodeptr _Pnode, const _Mytree *_Plist)
; 383  : 		: _Mybase(_Pnode, _Plist)
; 384  : 		{	// construct with node pointer _Pnode
; 385  : 		}
; 386  : 
; 387  : 	typedef _Tree_unchecked_iterator<_Mytree> _Unchecked_type;
; 388  : 
; 389  : 	_Myiter& _Rechecked(_Unchecked_type _Right)
; 390  : 		{	// reset from unchecked iterator
; 391  : 		this->_Ptr = _Right._Ptr;
; 392  : 		return (*this);
; 393  : 		}
; 394  : 
; 395  : 	_Unchecked_type _Unchecked() const
; 396  : 		{	// make an unchecked iterator
; 397  : 		return (_Unchecked_type(this->_Ptr, (_Mytree *)this->_Getcont()));
; 398  : 		}
; 399  : 
; 400  : 	reference operator*() const
; 401  : 		{	// return designated value
; 402  : 		return ((reference)**(_Mybase *)this);
; 403  : 		}
; 404  : 
; 405  : 	pointer operator->() const
; 406  : 		{	// return pointer to class object
; 407  : 		return (_STD pointer_traits<pointer>::pointer_to(**this));
; 408  : 		}
; 409  : 
; 410  : 	_Myiter& operator++()
; 411  : 		{	// preincrement
; 412  : 		++(*(_Mybase *)this);
; 413  : 		return (*this);
; 414  : 		}
; 415  : 
; 416  : 	_Myiter operator++(int)
; 417  : 		{	// postincrement
; 418  : 		_Myiter _Tmp = *this;
; 419  : 		++*this;
; 420  : 		return (_Tmp);
; 421  : 		}
; 422  : 
; 423  : 	_Myiter& operator--()
; 424  : 		{	// predecrement
; 425  : 		--(*(_Mybase *)this);
; 426  : 		return (*this);
; 427  : 		}
; 428  : 
; 429  : 	_Myiter operator--(int)
; 430  : 		{	// postdecrement
; 431  : 		_Myiter _Tmp = *this;
; 432  : 		--*this;
; 433  : 		return (_Tmp);
; 434  : 		}
; 435  : 	};
; 436  : 
; 437  : template<class _Mytree> inline
; 438  : 	typename _Tree_iterator<_Mytree>::_Unchecked_type
; 439  : 		_Unchecked(_Tree_iterator<_Mytree> _Iter)
; 440  : 	{	// convert to unchecked
; 441  : 	return (_Iter._Unchecked());
; 442  : 	}
; 443  : 
; 444  : template<class _Mytree> inline
; 445  : 	_Tree_iterator<_Mytree>&
; 446  : 		_Rechecked(_Tree_iterator<_Mytree>& _Iter,
; 447  : 			typename _Tree_iterator<_Mytree>
; 448  : 				::_Unchecked_type _Right)
; 449  : 	{	// convert to checked
; 450  : 	return (_Iter._Rechecked(_Right));
; 451  : 	}
; 452  : 
; 453  : 		// tree TYPE WRAPPERS
; 454  : template<class _Value_type,
; 455  : 	class _Size_type,
; 456  : 	class _Difference_type,
; 457  : 	class _Pointer,
; 458  : 	class _Const_pointer,
; 459  : 	class _Reference,
; 460  : 	class _Const_reference,
; 461  : 	class _Nodeptr_type>
; 462  : 	struct _Tree_iter_types
; 463  : 	{	// wraps types needed by iterators
; 464  : 	typedef _Value_type value_type;
; 465  : 	typedef _Size_type size_type;
; 466  : 	typedef _Difference_type difference_type;
; 467  : 	typedef _Pointer pointer;
; 468  : 	typedef _Const_pointer const_pointer;
; 469  : 	typedef _Reference reference;
; 470  : 	typedef _Const_reference const_reference;
; 471  : 	typedef _Nodeptr_type _Nodeptr;
; 472  : 	};
; 473  : 
; 474  : template<class _Value_type,
; 475  : 	class _Voidptr>
; 476  : 	struct _Tree_node
; 477  : 		{	// tree node
; 478  : 		_Voidptr _Left;	// left subtree, or smallest element if head
; 479  : 		_Voidptr _Parent;	// parent, or root of tree if head
; 480  : 		_Voidptr _Right;	// right subtree, or largest element if head
; 481  : 		char _Color;	// _Red or _Black, _Black if head
; 482  : 		char _Isnil;	// true only if head (also nil) node
; 483  : 		_Value_type _Myval;	// the stored value, unused if head
; 484  : 
; 485  : 	private:
; 486  : 		_Tree_node& operator=(const _Tree_node&);
; 487  : 		};
; 488  : 
; 489  : template<class _Value_type>
; 490  : 	struct _Tree_node<_Value_type, void *>
; 491  : 		{	// tree node
; 492  : 		typedef _Tree_node<_Value_type, void *> *_Nodeptr;
; 493  : 		_Nodeptr _Left;	// left subtree, or smallest element if head
; 494  : 		_Nodeptr _Parent;	// parent, or root of tree if head
; 495  : 		_Nodeptr _Right;	// right subtree, or largest element if head
; 496  : 		char _Color;	// _Red or _Black, _Black if head
; 497  : 		char _Isnil;	// true only if head (also nil) node
; 498  : 		_Value_type _Myval;	// the stored value, unused if head
; 499  : 
; 500  : 	private:
; 501  : 		_Tree_node& operator=(const _Tree_node&);
; 502  : 		};
; 503  : 
; 504  : template<class _Ty>
; 505  : 	struct _Tree_simple_types
; 506  : 		: public _Simple_types<_Ty>
; 507  : 	{	// wraps types needed by iterators
; 508  : 	typedef _Tree_node<_Ty, void *> _Node;
; 509  : 	typedef _Node *_Nodeptr;
; 510  : 	};
; 511  : 
; 512  : template<class _Ty,
; 513  : 	class _Alloc0>
; 514  : 	struct _Tree_base_types
; 515  : 	{	// types needed for a container base
; 516  : 	typedef _Alloc0 _Alloc;
; 517  : 	typedef _Tree_base_types<_Ty, _Alloc> _Myt;
; 518  : 
; 519  : 	typedef _Wrap_alloc<_Alloc> _Alty0;
; 520  : 	typedef typename _Alty0::template rebind<_Ty>::other _Alty;
; 521  : 
; 522  : 
; 523  : 	typedef typename _Get_voidptr<_Alty, typename _Alty::pointer>::type
; 524  : 		_Voidptr;
; 525  : 	typedef _Tree_node<typename _Alty::value_type,
; 526  : 		_Voidptr> _Node;
; 527  : 
; 528  : 	typedef typename _Alty::template rebind<_Node>::other _Alnod_type;
; 529  : 	typedef typename _Alnod_type::pointer _Nodeptr;
; 530  : 	typedef _Nodeptr& _Nodepref;
; 531  : 
; 532  : 	typedef typename _If<_Is_simple_alloc<_Alty>::value,
; 533  : 		_Tree_simple_types<typename _Alty::value_type>,
; 534  : 		_Tree_iter_types<typename _Alty::value_type,
; 535  : 			typename _Alty::size_type,
; 536  : 			typename _Alty::difference_type,
; 537  : 			typename _Alty::pointer,
; 538  : 			typename _Alty::const_pointer,
; 539  : 			typename _Alty::reference,
; 540  : 			typename _Alty::const_reference,
; 541  : 			_Nodeptr> >::type
; 542  : 		_Val_types;
; 543  : 	};
; 544  : 
; 545  : 		// TEMPLATE CLASS _Tree_val
; 546  : template<class _Val_types>
; 547  : 	class _Tree_val
; 548  : 		: public _Container_base
; 549  : 	{	// base class for tree to hold data
; 550  : public:
; 551  : 	typedef _Tree_val<_Val_types> _Myt;
; 552  : 
; 553  : 	typedef typename _Val_types::_Nodeptr _Nodeptr;
; 554  : 	typedef _Nodeptr& _Nodepref;
; 555  : 
; 556  : 	typedef typename _Val_types::value_type value_type;
; 557  : 	typedef typename _Val_types::size_type size_type;
; 558  : 	typedef typename _Val_types::difference_type difference_type;
; 559  : 	typedef typename _Val_types::pointer pointer;
; 560  : 	typedef typename _Val_types::const_pointer const_pointer;
; 561  : 	typedef typename _Val_types::reference reference;
; 562  : 	typedef typename _Val_types::const_reference const_reference;
; 563  : 
; 564  : 	typedef _Tree_const_iterator<_Myt> const_iterator;
; 565  : 	typedef _Tree_iterator<_Myt> iterator;
; 566  : 
; 567  : 	_Tree_val()
; 568  : 		{	// initialize data
; 569  : 		this->_Myhead = 0;
; 570  : 		this->_Mysize = 0;
; 571  : 		}
; 572  : 
; 573  : 	enum _Redbl
; 574  : 		{	// colors for link to parent
; 575  : 		_Red, _Black};
; 576  : 
; 577  : 	static char& _Color(_Nodeptr _Pnode)
; 578  : 		{	// return reference to color in node
; 579  : 		return ((char&)_Pnode->_Color);
; 580  : 		}
; 581  : 
; 582  : 	static char& _Isnil(_Nodeptr _Pnode)
; 583  : 		{	// return reference to nil flag in node
; 584  : 		return ((char&)_Pnode->_Isnil);

	mov	rax, QWORD PTR [rbx+16]

; 61   : 			;	// end() shouldn't be incremented, don't move
; 62   : 		else if (!_Mytree::_Isnil(_Mytree::_Right(_Ptr)))

	cmp	BYTE PTR [rax+25], r13b
	jne	SHORT $LN94@verify

; 63   : 			_Ptr = _Mytree::_Min(
; 64   : 				_Mytree::_Right(_Ptr));	// ==> smallest of right subtree

	mov	rbx, rax

; 337  : 		}
; 338  : 
; 339  : 	bool operator!=(const _Myiter& _Right) const
; 340  : 		{	// test for iterator inequality
; 341  : 		return (!(*this == _Right));
; 342  : 		}
; 343  : 	};
; 344  : 
; 345  : template<class _Mytree> inline
; 346  : 	typename _Tree_const_iterator<_Mytree>::_Unchecked_type
; 347  : 		_Unchecked(_Tree_const_iterator<_Mytree> _Iter)
; 348  : 	{	// convert to unchecked
; 349  : 	return (_Iter._Unchecked());
; 350  : 	}
; 351  : 
; 352  : template<class _Mytree> inline
; 353  : 	_Tree_const_iterator<_Mytree>&
; 354  : 		_Rechecked(_Tree_const_iterator<_Mytree>& _Iter,
; 355  : 			typename _Tree_const_iterator<_Mytree>
; 356  : 				::_Unchecked_type _Right)
; 357  : 	{	// convert to checked
; 358  : 	return (_Iter._Rechecked(_Right));
; 359  : 	}
; 360  : 
; 361  : 	// TEMPLATE CLASS _Tree_iterator
; 362  : template<class _Mytree>
; 363  : 	class _Tree_iterator
; 364  : 		: public _Tree_const_iterator<_Mytree>
; 365  : 	{	// iterator for mutable tree
; 366  : public:
; 367  : 	typedef _Tree_iterator<_Mytree> _Myiter;
; 368  : 	typedef _Tree_const_iterator<_Mytree> _Mybase;
; 369  : 	typedef bidirectional_iterator_tag iterator_category;
; 370  : 
; 371  : 	typedef typename _Mytree::_Nodeptr _Nodeptr;
; 372  : 	typedef typename _Mytree::value_type value_type;
; 373  : 	typedef typename _Mytree::difference_type difference_type;
; 374  : 
; 375  : 	typedef typename _Mytree::pointer pointer;
; 376  : 	typedef typename _Mytree::reference reference;
; 377  : 
; 378  : 	_Tree_iterator()
; 379  : 		{	// construct with null node
; 380  : 		}
; 381  : 
; 382  : 	_Tree_iterator(_Nodeptr _Pnode, const _Mytree *_Plist)
; 383  : 		: _Mybase(_Pnode, _Plist)
; 384  : 		{	// construct with node pointer _Pnode
; 385  : 		}
; 386  : 
; 387  : 	typedef _Tree_unchecked_iterator<_Mytree> _Unchecked_type;
; 388  : 
; 389  : 	_Myiter& _Rechecked(_Unchecked_type _Right)
; 390  : 		{	// reset from unchecked iterator
; 391  : 		this->_Ptr = _Right._Ptr;
; 392  : 		return (*this);
; 393  : 		}
; 394  : 
; 395  : 	_Unchecked_type _Unchecked() const
; 396  : 		{	// make an unchecked iterator
; 397  : 		return (_Unchecked_type(this->_Ptr, (_Mytree *)this->_Getcont()));
; 398  : 		}
; 399  : 
; 400  : 	reference operator*() const
; 401  : 		{	// return designated value
; 402  : 		return ((reference)**(_Mybase *)this);
; 403  : 		}
; 404  : 
; 405  : 	pointer operator->() const
; 406  : 		{	// return pointer to class object
; 407  : 		return (_STD pointer_traits<pointer>::pointer_to(**this));
; 408  : 		}
; 409  : 
; 410  : 	_Myiter& operator++()
; 411  : 		{	// preincrement
; 412  : 		++(*(_Mybase *)this);
; 413  : 		return (*this);
; 414  : 		}
; 415  : 
; 416  : 	_Myiter operator++(int)
; 417  : 		{	// postincrement
; 418  : 		_Myiter _Tmp = *this;
; 419  : 		++*this;
; 420  : 		return (_Tmp);
; 421  : 		}
; 422  : 
; 423  : 	_Myiter& operator--()
; 424  : 		{	// predecrement
; 425  : 		--(*(_Mybase *)this);
; 426  : 		return (*this);
; 427  : 		}
; 428  : 
; 429  : 	_Myiter operator--(int)
; 430  : 		{	// postdecrement
; 431  : 		_Myiter _Tmp = *this;
; 432  : 		--*this;
; 433  : 		return (_Tmp);
; 434  : 		}
; 435  : 	};
; 436  : 
; 437  : template<class _Mytree> inline
; 438  : 	typename _Tree_iterator<_Mytree>::_Unchecked_type
; 439  : 		_Unchecked(_Tree_iterator<_Mytree> _Iter)
; 440  : 	{	// convert to unchecked
; 441  : 	return (_Iter._Unchecked());
; 442  : 	}
; 443  : 
; 444  : template<class _Mytree> inline
; 445  : 	_Tree_iterator<_Mytree>&
; 446  : 		_Rechecked(_Tree_iterator<_Mytree>& _Iter,
; 447  : 			typename _Tree_iterator<_Mytree>
; 448  : 				::_Unchecked_type _Right)
; 449  : 	{	// convert to checked
; 450  : 	return (_Iter._Rechecked(_Right));
; 451  : 	}
; 452  : 
; 453  : 		// tree TYPE WRAPPERS
; 454  : template<class _Value_type,
; 455  : 	class _Size_type,
; 456  : 	class _Difference_type,
; 457  : 	class _Pointer,
; 458  : 	class _Const_pointer,
; 459  : 	class _Reference,
; 460  : 	class _Const_reference,
; 461  : 	class _Nodeptr_type>
; 462  : 	struct _Tree_iter_types
; 463  : 	{	// wraps types needed by iterators
; 464  : 	typedef _Value_type value_type;
; 465  : 	typedef _Size_type size_type;
; 466  : 	typedef _Difference_type difference_type;
; 467  : 	typedef _Pointer pointer;
; 468  : 	typedef _Const_pointer const_pointer;
; 469  : 	typedef _Reference reference;
; 470  : 	typedef _Const_reference const_reference;
; 471  : 	typedef _Nodeptr_type _Nodeptr;
; 472  : 	};
; 473  : 
; 474  : template<class _Value_type,
; 475  : 	class _Voidptr>
; 476  : 	struct _Tree_node
; 477  : 		{	// tree node
; 478  : 		_Voidptr _Left;	// left subtree, or smallest element if head
; 479  : 		_Voidptr _Parent;	// parent, or root of tree if head
; 480  : 		_Voidptr _Right;	// right subtree, or largest element if head
; 481  : 		char _Color;	// _Red or _Black, _Black if head
; 482  : 		char _Isnil;	// true only if head (also nil) node
; 483  : 		_Value_type _Myval;	// the stored value, unused if head
; 484  : 
; 485  : 	private:
; 486  : 		_Tree_node& operator=(const _Tree_node&);
; 487  : 		};
; 488  : 
; 489  : template<class _Value_type>
; 490  : 	struct _Tree_node<_Value_type, void *>
; 491  : 		{	// tree node
; 492  : 		typedef _Tree_node<_Value_type, void *> *_Nodeptr;
; 493  : 		_Nodeptr _Left;	// left subtree, or smallest element if head
; 494  : 		_Nodeptr _Parent;	// parent, or root of tree if head
; 495  : 		_Nodeptr _Right;	// right subtree, or largest element if head
; 496  : 		char _Color;	// _Red or _Black, _Black if head
; 497  : 		char _Isnil;	// true only if head (also nil) node
; 498  : 		_Value_type _Myval;	// the stored value, unused if head
; 499  : 
; 500  : 	private:
; 501  : 		_Tree_node& operator=(const _Tree_node&);
; 502  : 		};
; 503  : 
; 504  : template<class _Ty>
; 505  : 	struct _Tree_simple_types
; 506  : 		: public _Simple_types<_Ty>
; 507  : 	{	// wraps types needed by iterators
; 508  : 	typedef _Tree_node<_Ty, void *> _Node;
; 509  : 	typedef _Node *_Nodeptr;
; 510  : 	};
; 511  : 
; 512  : template<class _Ty,
; 513  : 	class _Alloc0>
; 514  : 	struct _Tree_base_types
; 515  : 	{	// types needed for a container base
; 516  : 	typedef _Alloc0 _Alloc;
; 517  : 	typedef _Tree_base_types<_Ty, _Alloc> _Myt;
; 518  : 
; 519  : 	typedef _Wrap_alloc<_Alloc> _Alty0;
; 520  : 	typedef typename _Alty0::template rebind<_Ty>::other _Alty;
; 521  : 
; 522  : 
; 523  : 	typedef typename _Get_voidptr<_Alty, typename _Alty::pointer>::type
; 524  : 		_Voidptr;
; 525  : 	typedef _Tree_node<typename _Alty::value_type,
; 526  : 		_Voidptr> _Node;
; 527  : 
; 528  : 	typedef typename _Alty::template rebind<_Node>::other _Alnod_type;
; 529  : 	typedef typename _Alnod_type::pointer _Nodeptr;
; 530  : 	typedef _Nodeptr& _Nodepref;
; 531  : 
; 532  : 	typedef typename _If<_Is_simple_alloc<_Alty>::value,
; 533  : 		_Tree_simple_types<typename _Alty::value_type>,
; 534  : 		_Tree_iter_types<typename _Alty::value_type,
; 535  : 			typename _Alty::size_type,
; 536  : 			typename _Alty::difference_type,
; 537  : 			typename _Alty::pointer,
; 538  : 			typename _Alty::const_pointer,
; 539  : 			typename _Alty::reference,
; 540  : 			typename _Alty::const_reference,
; 541  : 			_Nodeptr> >::type
; 542  : 		_Val_types;
; 543  : 	};
; 544  : 
; 545  : 		// TEMPLATE CLASS _Tree_val
; 546  : template<class _Val_types>
; 547  : 	class _Tree_val
; 548  : 		: public _Container_base
; 549  : 	{	// base class for tree to hold data
; 550  : public:
; 551  : 	typedef _Tree_val<_Val_types> _Myt;
; 552  : 
; 553  : 	typedef typename _Val_types::_Nodeptr _Nodeptr;
; 554  : 	typedef _Nodeptr& _Nodepref;
; 555  : 
; 556  : 	typedef typename _Val_types::value_type value_type;
; 557  : 	typedef typename _Val_types::size_type size_type;
; 558  : 	typedef typename _Val_types::difference_type difference_type;
; 559  : 	typedef typename _Val_types::pointer pointer;
; 560  : 	typedef typename _Val_types::const_pointer const_pointer;
; 561  : 	typedef typename _Val_types::reference reference;
; 562  : 	typedef typename _Val_types::const_reference const_reference;
; 563  : 
; 564  : 	typedef _Tree_const_iterator<_Myt> const_iterator;
; 565  : 	typedef _Tree_iterator<_Myt> iterator;
; 566  : 
; 567  : 	_Tree_val()
; 568  : 		{	// initialize data
; 569  : 		this->_Myhead = 0;
; 570  : 		this->_Mysize = 0;
; 571  : 		}
; 572  : 
; 573  : 	enum _Redbl
; 574  : 		{	// colors for link to parent
; 575  : 		_Red, _Black};
; 576  : 
; 577  : 	static char& _Color(_Nodeptr _Pnode)
; 578  : 		{	// return reference to color in node
; 579  : 		return ((char&)_Pnode->_Color);
; 580  : 		}
; 581  : 
; 582  : 	static char& _Isnil(_Nodeptr _Pnode)
; 583  : 		{	// return reference to nil flag in node
; 584  : 		return ((char&)_Pnode->_Isnil);

	mov	rax, QWORD PTR [rax]

; 590  : 		}
; 591  : 
; 592  : 	static _Nodepref _Parent(_Nodeptr _Pnode)
; 593  : 		{	// return reference to parent pointer in node
; 594  : 		return ((_Nodepref)_Pnode->_Parent);
; 595  : 		}
; 596  : 
; 597  : 	static _Nodepref _Right(_Nodeptr _Pnode)
; 598  : 		{	// return reference to right pointer in node
; 599  : 		return ((_Nodepref)_Pnode->_Right);
; 600  : 		}
; 601  : 
; 602  : 	static reference _Myval(_Nodeptr _Pnode)
; 603  : 		{	// return reference to value in node
; 604  : 		return ((reference)_Pnode->_Myval);
; 605  : 		}
; 606  : 
; 607  : 	static _Nodeptr _Max(_Nodeptr _Pnode)
; 608  : 		{	// return rightmost node in subtree at _Pnode
; 609  : 		while (!_Isnil(_Right(_Pnode)))
; 610  : 			_Pnode = _Right(_Pnode);
; 611  : 		return (_Pnode);
; 612  : 		}
; 613  : 
; 614  : 	static _Nodeptr _Min(_Nodeptr _Pnode)
; 615  : 		{	// return leftmost node in subtree at _Pnode
; 616  : 		while (!_Isnil(_Left(_Pnode)))

	cmp	BYTE PTR [rax+25], r13b
	jne	SHORT $LN99@verify
	npad	3
$LL55@verify:

; 617  : 			_Pnode = _Left(_Pnode);

	mov	rbx, rax

; 337  : 		}
; 338  : 
; 339  : 	bool operator!=(const _Myiter& _Right) const
; 340  : 		{	// test for iterator inequality
; 341  : 		return (!(*this == _Right));
; 342  : 		}
; 343  : 	};
; 344  : 
; 345  : template<class _Mytree> inline
; 346  : 	typename _Tree_const_iterator<_Mytree>::_Unchecked_type
; 347  : 		_Unchecked(_Tree_const_iterator<_Mytree> _Iter)
; 348  : 	{	// convert to unchecked
; 349  : 	return (_Iter._Unchecked());
; 350  : 	}
; 351  : 
; 352  : template<class _Mytree> inline
; 353  : 	_Tree_const_iterator<_Mytree>&
; 354  : 		_Rechecked(_Tree_const_iterator<_Mytree>& _Iter,
; 355  : 			typename _Tree_const_iterator<_Mytree>
; 356  : 				::_Unchecked_type _Right)
; 357  : 	{	// convert to checked
; 358  : 	return (_Iter._Rechecked(_Right));
; 359  : 	}
; 360  : 
; 361  : 	// TEMPLATE CLASS _Tree_iterator
; 362  : template<class _Mytree>
; 363  : 	class _Tree_iterator
; 364  : 		: public _Tree_const_iterator<_Mytree>
; 365  : 	{	// iterator for mutable tree
; 366  : public:
; 367  : 	typedef _Tree_iterator<_Mytree> _Myiter;
; 368  : 	typedef _Tree_const_iterator<_Mytree> _Mybase;
; 369  : 	typedef bidirectional_iterator_tag iterator_category;
; 370  : 
; 371  : 	typedef typename _Mytree::_Nodeptr _Nodeptr;
; 372  : 	typedef typename _Mytree::value_type value_type;
; 373  : 	typedef typename _Mytree::difference_type difference_type;
; 374  : 
; 375  : 	typedef typename _Mytree::pointer pointer;
; 376  : 	typedef typename _Mytree::reference reference;
; 377  : 
; 378  : 	_Tree_iterator()
; 379  : 		{	// construct with null node
; 380  : 		}
; 381  : 
; 382  : 	_Tree_iterator(_Nodeptr _Pnode, const _Mytree *_Plist)
; 383  : 		: _Mybase(_Pnode, _Plist)
; 384  : 		{	// construct with node pointer _Pnode
; 385  : 		}
; 386  : 
; 387  : 	typedef _Tree_unchecked_iterator<_Mytree> _Unchecked_type;
; 388  : 
; 389  : 	_Myiter& _Rechecked(_Unchecked_type _Right)
; 390  : 		{	// reset from unchecked iterator
; 391  : 		this->_Ptr = _Right._Ptr;
; 392  : 		return (*this);
; 393  : 		}
; 394  : 
; 395  : 	_Unchecked_type _Unchecked() const
; 396  : 		{	// make an unchecked iterator
; 397  : 		return (_Unchecked_type(this->_Ptr, (_Mytree *)this->_Getcont()));
; 398  : 		}
; 399  : 
; 400  : 	reference operator*() const
; 401  : 		{	// return designated value
; 402  : 		return ((reference)**(_Mybase *)this);
; 403  : 		}
; 404  : 
; 405  : 	pointer operator->() const
; 406  : 		{	// return pointer to class object
; 407  : 		return (_STD pointer_traits<pointer>::pointer_to(**this));
; 408  : 		}
; 409  : 
; 410  : 	_Myiter& operator++()
; 411  : 		{	// preincrement
; 412  : 		++(*(_Mybase *)this);
; 413  : 		return (*this);
; 414  : 		}
; 415  : 
; 416  : 	_Myiter operator++(int)
; 417  : 		{	// postincrement
; 418  : 		_Myiter _Tmp = *this;
; 419  : 		++*this;
; 420  : 		return (_Tmp);
; 421  : 		}
; 422  : 
; 423  : 	_Myiter& operator--()
; 424  : 		{	// predecrement
; 425  : 		--(*(_Mybase *)this);
; 426  : 		return (*this);
; 427  : 		}
; 428  : 
; 429  : 	_Myiter operator--(int)
; 430  : 		{	// postdecrement
; 431  : 		_Myiter _Tmp = *this;
; 432  : 		--*this;
; 433  : 		return (_Tmp);
; 434  : 		}
; 435  : 	};
; 436  : 
; 437  : template<class _Mytree> inline
; 438  : 	typename _Tree_iterator<_Mytree>::_Unchecked_type
; 439  : 		_Unchecked(_Tree_iterator<_Mytree> _Iter)
; 440  : 	{	// convert to unchecked
; 441  : 	return (_Iter._Unchecked());
; 442  : 	}
; 443  : 
; 444  : template<class _Mytree> inline
; 445  : 	_Tree_iterator<_Mytree>&
; 446  : 		_Rechecked(_Tree_iterator<_Mytree>& _Iter,
; 447  : 			typename _Tree_iterator<_Mytree>
; 448  : 				::_Unchecked_type _Right)
; 449  : 	{	// convert to checked
; 450  : 	return (_Iter._Rechecked(_Right));
; 451  : 	}
; 452  : 
; 453  : 		// tree TYPE WRAPPERS
; 454  : template<class _Value_type,
; 455  : 	class _Size_type,
; 456  : 	class _Difference_type,
; 457  : 	class _Pointer,
; 458  : 	class _Const_pointer,
; 459  : 	class _Reference,
; 460  : 	class _Const_reference,
; 461  : 	class _Nodeptr_type>
; 462  : 	struct _Tree_iter_types
; 463  : 	{	// wraps types needed by iterators
; 464  : 	typedef _Value_type value_type;
; 465  : 	typedef _Size_type size_type;
; 466  : 	typedef _Difference_type difference_type;
; 467  : 	typedef _Pointer pointer;
; 468  : 	typedef _Const_pointer const_pointer;
; 469  : 	typedef _Reference reference;
; 470  : 	typedef _Const_reference const_reference;
; 471  : 	typedef _Nodeptr_type _Nodeptr;
; 472  : 	};
; 473  : 
; 474  : template<class _Value_type,
; 475  : 	class _Voidptr>
; 476  : 	struct _Tree_node
; 477  : 		{	// tree node
; 478  : 		_Voidptr _Left;	// left subtree, or smallest element if head
; 479  : 		_Voidptr _Parent;	// parent, or root of tree if head
; 480  : 		_Voidptr _Right;	// right subtree, or largest element if head
; 481  : 		char _Color;	// _Red or _Black, _Black if head
; 482  : 		char _Isnil;	// true only if head (also nil) node
; 483  : 		_Value_type _Myval;	// the stored value, unused if head
; 484  : 
; 485  : 	private:
; 486  : 		_Tree_node& operator=(const _Tree_node&);
; 487  : 		};
; 488  : 
; 489  : template<class _Value_type>
; 490  : 	struct _Tree_node<_Value_type, void *>
; 491  : 		{	// tree node
; 492  : 		typedef _Tree_node<_Value_type, void *> *_Nodeptr;
; 493  : 		_Nodeptr _Left;	// left subtree, or smallest element if head
; 494  : 		_Nodeptr _Parent;	// parent, or root of tree if head
; 495  : 		_Nodeptr _Right;	// right subtree, or largest element if head
; 496  : 		char _Color;	// _Red or _Black, _Black if head
; 497  : 		char _Isnil;	// true only if head (also nil) node
; 498  : 		_Value_type _Myval;	// the stored value, unused if head
; 499  : 
; 500  : 	private:
; 501  : 		_Tree_node& operator=(const _Tree_node&);
; 502  : 		};
; 503  : 
; 504  : template<class _Ty>
; 505  : 	struct _Tree_simple_types
; 506  : 		: public _Simple_types<_Ty>
; 507  : 	{	// wraps types needed by iterators
; 508  : 	typedef _Tree_node<_Ty, void *> _Node;
; 509  : 	typedef _Node *_Nodeptr;
; 510  : 	};
; 511  : 
; 512  : template<class _Ty,
; 513  : 	class _Alloc0>
; 514  : 	struct _Tree_base_types
; 515  : 	{	// types needed for a container base
; 516  : 	typedef _Alloc0 _Alloc;
; 517  : 	typedef _Tree_base_types<_Ty, _Alloc> _Myt;
; 518  : 
; 519  : 	typedef _Wrap_alloc<_Alloc> _Alty0;
; 520  : 	typedef typename _Alty0::template rebind<_Ty>::other _Alty;
; 521  : 
; 522  : 
; 523  : 	typedef typename _Get_voidptr<_Alty, typename _Alty::pointer>::type
; 524  : 		_Voidptr;
; 525  : 	typedef _Tree_node<typename _Alty::value_type,
; 526  : 		_Voidptr> _Node;
; 527  : 
; 528  : 	typedef typename _Alty::template rebind<_Node>::other _Alnod_type;
; 529  : 	typedef typename _Alnod_type::pointer _Nodeptr;
; 530  : 	typedef _Nodeptr& _Nodepref;
; 531  : 
; 532  : 	typedef typename _If<_Is_simple_alloc<_Alty>::value,
; 533  : 		_Tree_simple_types<typename _Alty::value_type>,
; 534  : 		_Tree_iter_types<typename _Alty::value_type,
; 535  : 			typename _Alty::size_type,
; 536  : 			typename _Alty::difference_type,
; 537  : 			typename _Alty::pointer,
; 538  : 			typename _Alty::const_pointer,
; 539  : 			typename _Alty::reference,
; 540  : 			typename _Alty::const_reference,
; 541  : 			_Nodeptr> >::type
; 542  : 		_Val_types;
; 543  : 	};
; 544  : 
; 545  : 		// TEMPLATE CLASS _Tree_val
; 546  : template<class _Val_types>
; 547  : 	class _Tree_val
; 548  : 		: public _Container_base
; 549  : 	{	// base class for tree to hold data
; 550  : public:
; 551  : 	typedef _Tree_val<_Val_types> _Myt;
; 552  : 
; 553  : 	typedef typename _Val_types::_Nodeptr _Nodeptr;
; 554  : 	typedef _Nodeptr& _Nodepref;
; 555  : 
; 556  : 	typedef typename _Val_types::value_type value_type;
; 557  : 	typedef typename _Val_types::size_type size_type;
; 558  : 	typedef typename _Val_types::difference_type difference_type;
; 559  : 	typedef typename _Val_types::pointer pointer;
; 560  : 	typedef typename _Val_types::const_pointer const_pointer;
; 561  : 	typedef typename _Val_types::reference reference;
; 562  : 	typedef typename _Val_types::const_reference const_reference;
; 563  : 
; 564  : 	typedef _Tree_const_iterator<_Myt> const_iterator;
; 565  : 	typedef _Tree_iterator<_Myt> iterator;
; 566  : 
; 567  : 	_Tree_val()
; 568  : 		{	// initialize data
; 569  : 		this->_Myhead = 0;
; 570  : 		this->_Mysize = 0;
; 571  : 		}
; 572  : 
; 573  : 	enum _Redbl
; 574  : 		{	// colors for link to parent
; 575  : 		_Red, _Black};
; 576  : 
; 577  : 	static char& _Color(_Nodeptr _Pnode)
; 578  : 		{	// return reference to color in node
; 579  : 		return ((char&)_Pnode->_Color);
; 580  : 		}
; 581  : 
; 582  : 	static char& _Isnil(_Nodeptr _Pnode)
; 583  : 		{	// return reference to nil flag in node
; 584  : 		return ((char&)_Pnode->_Isnil);

	mov	rax, QWORD PTR [rax]

; 590  : 		}
; 591  : 
; 592  : 	static _Nodepref _Parent(_Nodeptr _Pnode)
; 593  : 		{	// return reference to parent pointer in node
; 594  : 		return ((_Nodepref)_Pnode->_Parent);
; 595  : 		}
; 596  : 
; 597  : 	static _Nodepref _Right(_Nodeptr _Pnode)
; 598  : 		{	// return reference to right pointer in node
; 599  : 		return ((_Nodepref)_Pnode->_Right);
; 600  : 		}
; 601  : 
; 602  : 	static reference _Myval(_Nodeptr _Pnode)
; 603  : 		{	// return reference to value in node
; 604  : 		return ((reference)_Pnode->_Myval);
; 605  : 		}
; 606  : 
; 607  : 	static _Nodeptr _Max(_Nodeptr _Pnode)
; 608  : 		{	// return rightmost node in subtree at _Pnode
; 609  : 		while (!_Isnil(_Right(_Pnode)))
; 610  : 			_Pnode = _Right(_Pnode);
; 611  : 		return (_Pnode);
; 612  : 		}
; 613  : 
; 614  : 	static _Nodeptr _Min(_Nodeptr _Pnode)
; 615  : 		{	// return leftmost node in subtree at _Pnode
; 616  : 		while (!_Isnil(_Left(_Pnode)))

	cmp	BYTE PTR [rax+25], r13b
	je	SHORT $LL55@verify

; 65   : 		else

	jmp	SHORT $LN99@verify
$LN94@verify:

; 66   : 			{	// climb looking for right subtree
; 67   : 			_Nodeptr _Pnode;
; 68   : 			while (!_Mytree::_Isnil(_Pnode = _Mytree::_Parent(_Ptr))
; 69   : 				&& _Ptr == _Mytree::_Right(_Pnode))

	mov	rax, QWORD PTR [rbx+8]
	cmp	BYTE PTR [rax+25], r13b
	jne	SHORT $LN109@verify
$LL39@verify:
	cmp	rbx, QWORD PTR [rax+16]
	jne	SHORT $LN109@verify

; 70   : 				_Ptr = _Pnode;	// ==> parent while right subtree

	mov	rbx, rax
	mov	rax, QWORD PTR [rax+8]
	cmp	BYTE PTR [rax+25], r13b
	je	SHORT $LL39@verify
$LN109@verify:

; 71   : 			_Ptr = _Pnode;	// ==> parent (head if end())

	mov	rbx, rax
$LN99@verify:

; 72   : 			}
; 73   : 		return (*this);
; 74   : 		}
; 75   : 
; 76   : 	_Myiter operator++(int)
; 77   : 		{	// postincrement
; 78   : 		_Myiter _Tmp = *this;
; 79   : 		++*this;
; 80   : 		return (_Tmp);
; 81   : 		}
; 82   : 
; 83   : 	_Myiter& operator--()
; 84   : 		{	// predecrement
; 85   : 		if (_Mytree::_Isnil(_Ptr))
; 86   : 			_Ptr = _Mytree::_Right(_Ptr);	// end() ==> rightmost
; 87   : 		else if (!_Mytree::_Isnil(_Mytree::_Left(_Ptr)))
; 88   : 			_Ptr = _Mytree::_Max(
; 89   : 				_Mytree::_Left(_Ptr));	// ==> largest of left subtree
; 90   : 		else
; 91   : 			{	// climb looking for left subtree
; 92   : 			_Nodeptr _Pnode;
; 93   : 			while (!_Mytree::_Isnil(_Pnode = _Mytree::_Parent(_Ptr))
; 94   : 				&& _Ptr == _Mytree::_Left(_Pnode))
; 95   : 				_Ptr = _Pnode;	// ==> parent while left subtree
; 96   : 			if (_Mytree::_Isnil(_Ptr))
; 97   : 				;	// begin() shouldn't be decremented, don't move
; 98   : 			else
; 99   : 				_Ptr = _Pnode;	// ==> parent if not head
; 100  : 			}
; 101  : 		return (*this);
; 102  : 		}
; 103  : 
; 104  : 	_Myiter operator--(int)
; 105  : 		{	// postdecrement
; 106  : 		_Myiter _Tmp = *this;
; 107  : 		--*this;
; 108  : 		return (_Tmp);
; 109  : 		}
; 110  : 
; 111  : 	bool operator==(const _Myiter& _Right) const
; 112  : 		{	// test for iterator equality
; 113  : 		return (_Ptr == _Right._Ptr);
; 114  : 		}
; 115  : 
; 116  : 	bool operator!=(const _Myiter& _Right) const
; 117  : 		{	// test for iterator inequality
; 118  : 		return (!(*this == _Right));
; 119  : 		}
; 120  : 
; 121  : 	_Nodeptr _Mynode() const
; 122  : 		{	// return node pointer
; 123  : 		return (_Ptr);
; 124  : 		}
; 125  : 
; 126  : 	_Nodeptr _Ptr;	// pointer to node
; 127  : 	};
; 128  : 
; 129  : 	// TEMPLATE CLASS _Tree_unchecked_iterator
; 130  : template<class _Mytree>
; 131  : 	class _Tree_unchecked_iterator
; 132  : 		: public _Tree_unchecked_const_iterator<_Mytree>
; 133  : 	{	// unchecked iterator for mutable tree
; 134  : public:
; 135  : 	typedef _Tree_unchecked_iterator<_Mytree> _Myiter;
; 136  : 	typedef _Tree_unchecked_const_iterator<_Mytree> _Mybase;
; 137  : 	typedef bidirectional_iterator_tag iterator_category;
; 138  : 
; 139  : 	typedef typename _Mytree::_Nodeptr _Nodeptr;
; 140  : 	typedef typename _Mytree::value_type value_type;
; 141  : 	typedef typename _Mytree::difference_type difference_type;
; 142  : 	typedef typename _Mytree::pointer pointer;
; 143  : 	typedef typename _Mytree::reference reference;
; 144  : 
; 145  : 	_Tree_unchecked_iterator()
; 146  : 		{	// construct with null node
; 147  : 		}
; 148  : 
; 149  : 	_Tree_unchecked_iterator(_Nodeptr _Pnode, const _Mytree *_Plist)
; 150  : 		: _Mybase(_Pnode, _Plist)
; 151  : 		{	// construct with node pointer _Pnode
; 152  : 		}
; 153  : 
; 154  : 	reference operator*() const
; 155  : 		{	// return designated value
; 156  : 		return ((reference)**(_Mybase *)this);
; 157  : 		}
; 158  : 
; 159  : 	pointer operator->() const
; 160  : 		{	// return pointer to class object
; 161  : 		return (_STD pointer_traits<pointer>::pointer_to(**this));
; 162  : 		}
; 163  : 
; 164  : 	_Myiter& operator++()
; 165  : 		{	// preincrement
; 166  : 		++(*(_Mybase *)this);
; 167  : 		return (*this);
; 168  : 		}
; 169  : 
; 170  : 	_Myiter operator++(int)
; 171  : 		{	// postincrement
; 172  : 		_Myiter _Tmp = *this;
; 173  : 		++*this;
; 174  : 		return (_Tmp);
; 175  : 		}
; 176  : 
; 177  : 	_Myiter& operator--()
; 178  : 		{	// predecrement
; 179  : 		--(*(_Mybase *)this);
; 180  : 		return (*this);
; 181  : 		}
; 182  : 
; 183  : 	_Myiter operator--(int)
; 184  : 		{	// postdecrement
; 185  : 		_Myiter _Tmp = *this;
; 186  : 		--*this;
; 187  : 		return (_Tmp);
; 188  : 		}
; 189  : 	};
; 190  : 
; 191  : 	// TEMPLATE CLASS _Tree_const_iterator
; 192  : template<class _Mytree>
; 193  : 	class _Tree_const_iterator
; 194  : 		: public _Tree_unchecked_const_iterator<_Mytree, _Iterator_base>
; 195  : 	{	// iterator for nonmutable tree
; 196  : public:
; 197  : 	typedef _Tree_const_iterator<_Mytree> _Myiter;
; 198  : 	typedef _Tree_unchecked_const_iterator<_Mytree, _Iterator_base> _Mybase;
; 199  : 	typedef bidirectional_iterator_tag iterator_category;
; 200  : 
; 201  : 	typedef typename _Mytree::_Nodeptr _Nodeptr;
; 202  : 	typedef typename _Mytree::value_type value_type;
; 203  : 	typedef typename _Mytree::difference_type difference_type;
; 204  : 	typedef typename _Mytree::const_pointer pointer;
; 205  : 	typedef typename _Mytree::const_reference reference;
; 206  : 
; 207  : 	_Tree_const_iterator()
; 208  : 		: _Mybase()
; 209  : 		{	// construct with null node pointer
; 210  : 		}
; 211  : 
; 212  : 	_Tree_const_iterator(_Nodeptr _Pnode, const _Mytree *_Plist)
; 213  : 		: _Mybase(_Pnode, _Plist)
; 214  : 		{	// construct with node pointer _Pnode
; 215  : 		}
; 216  : 
; 217  : 	typedef _Tree_unchecked_const_iterator<_Mytree> _Unchecked_type;
; 218  : 
; 219  : 	_Myiter& _Rechecked(_Unchecked_type _Right)
; 220  : 		{	// reset from unchecked iterator
; 221  : 		this->_Ptr = _Right._Ptr;
; 222  : 		return (*this);
; 223  : 		}
; 224  : 
; 225  : 	_Unchecked_type _Unchecked() const
; 226  : 		{	// make an unchecked iterator
; 227  : 		return (_Unchecked_type(this->_Ptr, (_Mytree *)this->_Getcont()));
; 228  : 		}
; 229  : 
; 230  : 	reference operator*() const
; 231  : 		{	// return designated value
; 232  :  #if _ITERATOR_DEBUG_LEVEL == 2
; 233  : 		if (this->_Getcont() == 0
; 234  : 			|| this->_Ptr == 0
; 235  : 			|| this->_Ptr == ((_Mytree *)this->_Getcont())->_Myhead)
; 236  : 			{	// report error
; 237  : 			_DEBUG_ERROR("map/set iterator not dereferencable");
; 238  : 			_SCL_SECURE_OUT_OF_RANGE;
; 239  : 			}
; 240  : 
; 241  :  #elif _ITERATOR_DEBUG_LEVEL == 1
; 242  : 		_SCL_SECURE_VALIDATE(this->_Getcont() != 0 && this->_Ptr != 0);
; 243  : 		_SCL_SECURE_VALIDATE_RANGE(this->_Ptr !=
; 244  : 			((_Mytree *)this->_Getcont())->_Myhead);
; 245  :  #endif /* _ITERATOR_DEBUG_LEVEL */
; 246  : 
; 247  : 		return (_Mytree::_Myval(this->_Ptr));
; 248  : 		}
; 249  : 
; 250  : 	pointer operator->() const
; 251  : 		{	// return pointer to class object
; 252  : 		return (_STD pointer_traits<pointer>::pointer_to(**this));
; 253  : 		}
; 254  : 
; 255  : 	_Myiter& operator++()
; 256  : 		{	// preincrement
; 257  :  #if _ITERATOR_DEBUG_LEVEL == 2
; 258  : 		if (this->_Getcont() == 0
; 259  : 			|| this->_Ptr == 0
; 260  : 			|| _Mytree::_Isnil(this->_Ptr))
; 261  : 			{	// report error
; 262  : 			_DEBUG_ERROR("map/set iterator not incrementable");
; 263  : 			_SCL_SECURE_OUT_OF_RANGE;
; 264  : 			}
; 265  : 
; 266  :  #elif _ITERATOR_DEBUG_LEVEL == 1
; 267  : 		_SCL_SECURE_VALIDATE(this->_Getcont() != 0 && this->_Ptr != 0);
; 268  : 		_SCL_SECURE_VALIDATE_RANGE(!_Mytree::_Isnil(this->_Ptr));
; 269  :  #endif /* _ITERATOR_DEBUG_LEVEL */
; 270  : 
; 271  : 		++(*(_Mybase *)this);
; 272  : 		return (*this);
; 273  : 		}
; 274  : 
; 275  : 	_Myiter operator++(int)
; 276  : 		{	// postincrement
; 277  : 		_Myiter _Tmp = *this;
; 278  : 		++*this;
; 279  : 		return (_Tmp);
; 280  : 		}
; 281  : 
; 282  : 	_Myiter& operator--()
; 283  : 		{	// predecrement
; 284  :  #if _ITERATOR_DEBUG_LEVEL == 2
; 285  : 		if (this->_Getcont() == 0
; 286  : 			|| this->_Ptr == 0)
; 287  : 			{	// report error
; 288  : 			_DEBUG_ERROR("map/set iterator not decrementable");
; 289  : 			_SCL_SECURE_OUT_OF_RANGE;
; 290  : 			}
; 291  : 
; 292  : 		_Nodeptr _Ptrsav = this->_Ptr;
; 293  : 		--(*(_Mybase *)this);
; 294  : 		if (_Ptrsav == this->_Ptr)
; 295  : 			{	// report error
; 296  : 			_DEBUG_ERROR("map/set iterator not decrementable");
; 297  : 			_SCL_SECURE_OUT_OF_RANGE;
; 298  : 			}
; 299  : 
; 300  :  #elif _ITERATOR_DEBUG_LEVEL == 1
; 301  : 		_SCL_SECURE_VALIDATE(this->_Getcont() != 0 && this->_Ptr != 0);
; 302  : 
; 303  : 		_Nodeptr _Ptrsav = this->_Ptr;
; 304  : 		--(*(_Mybase *)this);
; 305  : 		_SCL_SECURE_VALIDATE(_Ptrsav != this->_Ptr);
; 306  : 
; 307  :  #else /* _ITERATOR_DEBUG_LEVEL == 0 */
; 308  : 		--(*(_Mybase *)this);
; 309  :  #endif /* _ITERATOR_DEBUG_LEVEL */
; 310  : 
; 311  : 		return (*this);
; 312  : 		}
; 313  : 
; 314  : 	_Myiter operator--(int)
; 315  : 		{	// postdecrement
; 316  : 		_Myiter _Tmp = *this;
; 317  : 		--*this;
; 318  : 		return (_Tmp);
; 319  : 		}
; 320  : 
; 321  : 	bool operator==(const _Myiter& _Right) const
; 322  : 		{	// test for iterator equality
; 323  :  #if _ITERATOR_DEBUG_LEVEL == 2
; 324  : 		if (this->_Getcont() == 0
; 325  : 			|| this->_Getcont() != _Right._Getcont())
; 326  : 			{	// report error
; 327  : 			_DEBUG_ERROR("map/set iterators incompatible");
; 328  : 			_SCL_SECURE_INVALID_ARGUMENT;
; 329  : 			}
; 330  : 
; 331  :  #elif _ITERATOR_DEBUG_LEVEL == 1
; 332  : 		_SCL_SECURE_VALIDATE(this->_Getcont() != 0
; 333  : 			&& this->_Getcont() == _Right._Getcont());
; 334  :  #endif /* _ITERATOR_DEBUG_LEVEL */
; 335  : 
; 336  : 		return (this->_Ptr == _Right._Ptr);

	cmp	rbx, rdi
; File c:\users\nummer\documents\github\olr-3.0\src\xray\xrcore\xrstring.cpp

; 114  : 	for (; it!=end; ++it)	{

	jne	$LL40@verify
	mov	r15, QWORD PTR this$[rsp]
	mov	r14, QWORD PTR [rsp+112]
	mov	r13, QWORD PTR [rsp+120]
	mov	r12, QWORD PTR [rsp+184]
	mov	rsi, QWORD PTR [rsp+176]
	mov	rbp, QWORD PTR [rsp+168]
$LN9@verify:
; File c:\users\nummer\documents\github\olr-3.0\src\xray\xrcore\xrsyncronize.cpp

; 69   : 	LeaveCriticalSection			( (CRITICAL_SECTION*)pmutex );

	mov	rcx, QWORD PTR [r15]
; File c:\users\nummer\documents\github\olr-3.0\src\xray\xrcore\xrstring.cpp

; 122  : }

	add	rsp, 128				; 00000080H
	pop	r15
	pop	rdi
	pop	rbx
; File c:\users\nummer\documents\github\olr-3.0\src\xray\xrcore\xrsyncronize.cpp

; 69   : 	LeaveCriticalSection			( (CRITICAL_SECTION*)pmutex );

	rex_jmp	QWORD PTR __imp_LeaveCriticalSection
?verify@str_container@@QEAAXXZ ENDP			; str_container::verify
_TEXT	ENDS
; Function compile flags: /Ogtpy
; File c:\users\nummer\documents\github\olr-3.0\src\xray\xrcore\xrstring.cpp
; File c:\users\nummer\documents\github\olr-3.0\src\xray\xrcore\xrsyncronize.cpp
; File c:\program files (x86)\microsoft visual studio 12.0\vc\include\xtree
; File c:\users\nummer\documents\github\olr-3.0\src\xray\xrcore\xrstring.cpp
; File c:\program files (x86)\microsoft visual studio 12.0\vc\include\xtree
; File c:\users\nummer\documents\github\olr-3.0\src\xray\xrcore\xrstring.cpp
; File c:\program files (x86)\microsoft visual studio 12.0\vc\include\xtree
; File c:\users\nummer\documents\github\olr-3.0\src\xray\xrcore\xrstring.cpp
; File c:\program files (x86)\microsoft visual studio 12.0\vc\include\xtree
; File c:\users\nummer\documents\github\olr-3.0\src\xray\xrcore\xrstring.cpp
; File c:\users\nummer\documents\github\olr-3.0\src\xray\xrcore\xrsyncronize.cpp
; File c:\users\nummer\documents\github\olr-3.0\src\xray\xrcore\xrstring.cpp
; File c:\users\nummer\documents\github\olr-3.0\src\xray\xrcore\xrsyncronize.cpp
; File c:\users\nummer\documents\github\olr-3.0\src\xray\xrcore\xrstring.cpp
_TEXT	SEGMENT
this$ = 64
?dump@str_container@@QEAAXXZ PROC			; str_container::dump

; 125  : {

$LN100:
	mov	QWORD PTR [rsp+8], rbx
	mov	QWORD PTR [rsp+16], rsi
	mov	QWORD PTR [rsp+24], rdi
	push	r14
	sub	rsp, 48					; 00000030H
	mov	r14, rcx
; File c:\users\nummer\documents\github\olr-3.0\src\xray\xrcore\xrsyncronize.cpp

; 64   : 	EnterCriticalSection			( (CRITICAL_SECTION*)pmutex );

	mov	rcx, QWORD PTR [rcx]
	call	QWORD PTR __imp_EnterCriticalSection
; File c:\program files (x86)\microsoft visual studio 12.0\vc\include\xtree

; 589  : 		return ((_Nodepref)_Pnode->_Left);

	mov	rdi, QWORD PTR [r14+8]
; File c:\users\nummer\documents\github\olr-3.0\src\xray\xrcore\xrstring.cpp

; 129  : 	FILE* F		= fopen("x:\\$str_dump$.txt","w");

	lea	rdx, OFFSET FLAT:??_C@_01NOFIACDB@w?$AA@
; File c:\program files (x86)\microsoft visual studio 12.0\vc\include\xtree

; 44   : 		{	// construct with node pointer _Pnode

	mov	rbx, QWORD PTR [rdi]
; File c:\users\nummer\documents\github\olr-3.0\src\xray\xrcore\xrstring.cpp

; 129  : 	FILE* F		= fopen("x:\\$str_dump$.txt","w");

	lea	rcx, OFFSET FLAT:??_C@_0BC@DNCLKLDJ@x?3?2$str_dump$?4txt?$AA@
	call	QWORD PTR __imp_fopen
	mov	rsi, rax
; File c:\program files (x86)\microsoft visual studio 12.0\vc\include\xtree

; 336  : 		return (this->_Ptr == _Right._Ptr);

	cmp	rbx, rdi
; File c:\users\nummer\documents\github\olr-3.0\src\xray\xrcore\xrstring.cpp

; 130  : 	for (; it!=end; it++)

	je	$LN1@dump
	npad	8
$LL34@dump:

; 131  : 		fprintf		(F,"ref[%4d]-len[%3d]-crc[%8X] : %s\n",(*it)->dwReference,(*it)->dwLength,(*it)->dwCRC,(*it)->value);

	mov	rdx, QWORD PTR [rbx+32]
	mov	r9d, DWORD PTR [rdx+4]
	mov	r8d, DWORD PTR [rdx]
	lea	rcx, QWORD PTR [rdx+12]
	mov	QWORD PTR [rsp+40], rcx
	mov	ecx, DWORD PTR [rdx+8]
	lea	rdx, OFFSET FLAT:??_C@_0CB@NIJMNPED@ref?$FL?$CF4d?$FN?9len?$FL?$CF3d?$FN?9crc?$FL?$CF8X?$FN?5?3?5?$CFs?6@
	mov	DWORD PTR [rsp+32], ecx
	mov	rcx, rsi
	call	QWORD PTR __imp_fprintf
; File c:\program files (x86)\microsoft visual studio 12.0\vc\include\xtree

; 60   : 		if (_Mytree::_Isnil(_Ptr))

	cmp	BYTE PTR [rbx+25], 0
	jne	SHORT $LN91@dump

; 337  : 		}
; 338  : 
; 339  : 	bool operator!=(const _Myiter& _Right) const
; 340  : 		{	// test for iterator inequality
; 341  : 		return (!(*this == _Right));
; 342  : 		}
; 343  : 	};
; 344  : 
; 345  : template<class _Mytree> inline
; 346  : 	typename _Tree_const_iterator<_Mytree>::_Unchecked_type
; 347  : 		_Unchecked(_Tree_const_iterator<_Mytree> _Iter)
; 348  : 	{	// convert to unchecked
; 349  : 	return (_Iter._Unchecked());
; 350  : 	}
; 351  : 
; 352  : template<class _Mytree> inline
; 353  : 	_Tree_const_iterator<_Mytree>&
; 354  : 		_Rechecked(_Tree_const_iterator<_Mytree>& _Iter,
; 355  : 			typename _Tree_const_iterator<_Mytree>
; 356  : 				::_Unchecked_type _Right)
; 357  : 	{	// convert to checked
; 358  : 	return (_Iter._Rechecked(_Right));
; 359  : 	}
; 360  : 
; 361  : 	// TEMPLATE CLASS _Tree_iterator
; 362  : template<class _Mytree>
; 363  : 	class _Tree_iterator
; 364  : 		: public _Tree_const_iterator<_Mytree>
; 365  : 	{	// iterator for mutable tree
; 366  : public:
; 367  : 	typedef _Tree_iterator<_Mytree> _Myiter;
; 368  : 	typedef _Tree_const_iterator<_Mytree> _Mybase;
; 369  : 	typedef bidirectional_iterator_tag iterator_category;
; 370  : 
; 371  : 	typedef typename _Mytree::_Nodeptr _Nodeptr;
; 372  : 	typedef typename _Mytree::value_type value_type;
; 373  : 	typedef typename _Mytree::difference_type difference_type;
; 374  : 
; 375  : 	typedef typename _Mytree::pointer pointer;
; 376  : 	typedef typename _Mytree::reference reference;
; 377  : 
; 378  : 	_Tree_iterator()
; 379  : 		{	// construct with null node
; 380  : 		}
; 381  : 
; 382  : 	_Tree_iterator(_Nodeptr _Pnode, const _Mytree *_Plist)
; 383  : 		: _Mybase(_Pnode, _Plist)
; 384  : 		{	// construct with node pointer _Pnode
; 385  : 		}
; 386  : 
; 387  : 	typedef _Tree_unchecked_iterator<_Mytree> _Unchecked_type;
; 388  : 
; 389  : 	_Myiter& _Rechecked(_Unchecked_type _Right)
; 390  : 		{	// reset from unchecked iterator
; 391  : 		this->_Ptr = _Right._Ptr;
; 392  : 		return (*this);
; 393  : 		}
; 394  : 
; 395  : 	_Unchecked_type _Unchecked() const
; 396  : 		{	// make an unchecked iterator
; 397  : 		return (_Unchecked_type(this->_Ptr, (_Mytree *)this->_Getcont()));
; 398  : 		}
; 399  : 
; 400  : 	reference operator*() const
; 401  : 		{	// return designated value
; 402  : 		return ((reference)**(_Mybase *)this);
; 403  : 		}
; 404  : 
; 405  : 	pointer operator->() const
; 406  : 		{	// return pointer to class object
; 407  : 		return (_STD pointer_traits<pointer>::pointer_to(**this));
; 408  : 		}
; 409  : 
; 410  : 	_Myiter& operator++()
; 411  : 		{	// preincrement
; 412  : 		++(*(_Mybase *)this);
; 413  : 		return (*this);
; 414  : 		}
; 415  : 
; 416  : 	_Myiter operator++(int)
; 417  : 		{	// postincrement
; 418  : 		_Myiter _Tmp = *this;
; 419  : 		++*this;
; 420  : 		return (_Tmp);
; 421  : 		}
; 422  : 
; 423  : 	_Myiter& operator--()
; 424  : 		{	// predecrement
; 425  : 		--(*(_Mybase *)this);
; 426  : 		return (*this);
; 427  : 		}
; 428  : 
; 429  : 	_Myiter operator--(int)
; 430  : 		{	// postdecrement
; 431  : 		_Myiter _Tmp = *this;
; 432  : 		--*this;
; 433  : 		return (_Tmp);
; 434  : 		}
; 435  : 	};
; 436  : 
; 437  : template<class _Mytree> inline
; 438  : 	typename _Tree_iterator<_Mytree>::_Unchecked_type
; 439  : 		_Unchecked(_Tree_iterator<_Mytree> _Iter)
; 440  : 	{	// convert to unchecked
; 441  : 	return (_Iter._Unchecked());
; 442  : 	}
; 443  : 
; 444  : template<class _Mytree> inline
; 445  : 	_Tree_iterator<_Mytree>&
; 446  : 		_Rechecked(_Tree_iterator<_Mytree>& _Iter,
; 447  : 			typename _Tree_iterator<_Mytree>
; 448  : 				::_Unchecked_type _Right)
; 449  : 	{	// convert to checked
; 450  : 	return (_Iter._Rechecked(_Right));
; 451  : 	}
; 452  : 
; 453  : 		// tree TYPE WRAPPERS
; 454  : template<class _Value_type,
; 455  : 	class _Size_type,
; 456  : 	class _Difference_type,
; 457  : 	class _Pointer,
; 458  : 	class _Const_pointer,
; 459  : 	class _Reference,
; 460  : 	class _Const_reference,
; 461  : 	class _Nodeptr_type>
; 462  : 	struct _Tree_iter_types
; 463  : 	{	// wraps types needed by iterators
; 464  : 	typedef _Value_type value_type;
; 465  : 	typedef _Size_type size_type;
; 466  : 	typedef _Difference_type difference_type;
; 467  : 	typedef _Pointer pointer;
; 468  : 	typedef _Const_pointer const_pointer;
; 469  : 	typedef _Reference reference;
; 470  : 	typedef _Const_reference const_reference;
; 471  : 	typedef _Nodeptr_type _Nodeptr;
; 472  : 	};
; 473  : 
; 474  : template<class _Value_type,
; 475  : 	class _Voidptr>
; 476  : 	struct _Tree_node
; 477  : 		{	// tree node
; 478  : 		_Voidptr _Left;	// left subtree, or smallest element if head
; 479  : 		_Voidptr _Parent;	// parent, or root of tree if head
; 480  : 		_Voidptr _Right;	// right subtree, or largest element if head
; 481  : 		char _Color;	// _Red or _Black, _Black if head
; 482  : 		char _Isnil;	// true only if head (also nil) node
; 483  : 		_Value_type _Myval;	// the stored value, unused if head
; 484  : 
; 485  : 	private:
; 486  : 		_Tree_node& operator=(const _Tree_node&);
; 487  : 		};
; 488  : 
; 489  : template<class _Value_type>
; 490  : 	struct _Tree_node<_Value_type, void *>
; 491  : 		{	// tree node
; 492  : 		typedef _Tree_node<_Value_type, void *> *_Nodeptr;
; 493  : 		_Nodeptr _Left;	// left subtree, or smallest element if head
; 494  : 		_Nodeptr _Parent;	// parent, or root of tree if head
; 495  : 		_Nodeptr _Right;	// right subtree, or largest element if head
; 496  : 		char _Color;	// _Red or _Black, _Black if head
; 497  : 		char _Isnil;	// true only if head (also nil) node
; 498  : 		_Value_type _Myval;	// the stored value, unused if head
; 499  : 
; 500  : 	private:
; 501  : 		_Tree_node& operator=(const _Tree_node&);
; 502  : 		};
; 503  : 
; 504  : template<class _Ty>
; 505  : 	struct _Tree_simple_types
; 506  : 		: public _Simple_types<_Ty>
; 507  : 	{	// wraps types needed by iterators
; 508  : 	typedef _Tree_node<_Ty, void *> _Node;
; 509  : 	typedef _Node *_Nodeptr;
; 510  : 	};
; 511  : 
; 512  : template<class _Ty,
; 513  : 	class _Alloc0>
; 514  : 	struct _Tree_base_types
; 515  : 	{	// types needed for a container base
; 516  : 	typedef _Alloc0 _Alloc;
; 517  : 	typedef _Tree_base_types<_Ty, _Alloc> _Myt;
; 518  : 
; 519  : 	typedef _Wrap_alloc<_Alloc> _Alty0;
; 520  : 	typedef typename _Alty0::template rebind<_Ty>::other _Alty;
; 521  : 
; 522  : 
; 523  : 	typedef typename _Get_voidptr<_Alty, typename _Alty::pointer>::type
; 524  : 		_Voidptr;
; 525  : 	typedef _Tree_node<typename _Alty::value_type,
; 526  : 		_Voidptr> _Node;
; 527  : 
; 528  : 	typedef typename _Alty::template rebind<_Node>::other _Alnod_type;
; 529  : 	typedef typename _Alnod_type::pointer _Nodeptr;
; 530  : 	typedef _Nodeptr& _Nodepref;
; 531  : 
; 532  : 	typedef typename _If<_Is_simple_alloc<_Alty>::value,
; 533  : 		_Tree_simple_types<typename _Alty::value_type>,
; 534  : 		_Tree_iter_types<typename _Alty::value_type,
; 535  : 			typename _Alty::size_type,
; 536  : 			typename _Alty::difference_type,
; 537  : 			typename _Alty::pointer,
; 538  : 			typename _Alty::const_pointer,
; 539  : 			typename _Alty::reference,
; 540  : 			typename _Alty::const_reference,
; 541  : 			_Nodeptr> >::type
; 542  : 		_Val_types;
; 543  : 	};
; 544  : 
; 545  : 		// TEMPLATE CLASS _Tree_val
; 546  : template<class _Val_types>
; 547  : 	class _Tree_val
; 548  : 		: public _Container_base
; 549  : 	{	// base class for tree to hold data
; 550  : public:
; 551  : 	typedef _Tree_val<_Val_types> _Myt;
; 552  : 
; 553  : 	typedef typename _Val_types::_Nodeptr _Nodeptr;
; 554  : 	typedef _Nodeptr& _Nodepref;
; 555  : 
; 556  : 	typedef typename _Val_types::value_type value_type;
; 557  : 	typedef typename _Val_types::size_type size_type;
; 558  : 	typedef typename _Val_types::difference_type difference_type;
; 559  : 	typedef typename _Val_types::pointer pointer;
; 560  : 	typedef typename _Val_types::const_pointer const_pointer;
; 561  : 	typedef typename _Val_types::reference reference;
; 562  : 	typedef typename _Val_types::const_reference const_reference;
; 563  : 
; 564  : 	typedef _Tree_const_iterator<_Myt> const_iterator;
; 565  : 	typedef _Tree_iterator<_Myt> iterator;
; 566  : 
; 567  : 	_Tree_val()
; 568  : 		{	// initialize data
; 569  : 		this->_Myhead = 0;
; 570  : 		this->_Mysize = 0;
; 571  : 		}
; 572  : 
; 573  : 	enum _Redbl
; 574  : 		{	// colors for link to parent
; 575  : 		_Red, _Black};
; 576  : 
; 577  : 	static char& _Color(_Nodeptr _Pnode)
; 578  : 		{	// return reference to color in node
; 579  : 		return ((char&)_Pnode->_Color);
; 580  : 		}
; 581  : 
; 582  : 	static char& _Isnil(_Nodeptr _Pnode)
; 583  : 		{	// return reference to nil flag in node
; 584  : 		return ((char&)_Pnode->_Isnil);

	mov	rax, QWORD PTR [rbx+16]

; 61   : 			;	// end() shouldn't be incremented, don't move
; 62   : 		else if (!_Mytree::_Isnil(_Mytree::_Right(_Ptr)))

	cmp	BYTE PTR [rax+25], 0
	jne	SHORT $LN88@dump

; 63   : 			_Ptr = _Mytree::_Min(
; 64   : 				_Mytree::_Right(_Ptr));	// ==> smallest of right subtree

	mov	rbx, rax

; 337  : 		}
; 338  : 
; 339  : 	bool operator!=(const _Myiter& _Right) const
; 340  : 		{	// test for iterator inequality
; 341  : 		return (!(*this == _Right));
; 342  : 		}
; 343  : 	};
; 344  : 
; 345  : template<class _Mytree> inline
; 346  : 	typename _Tree_const_iterator<_Mytree>::_Unchecked_type
; 347  : 		_Unchecked(_Tree_const_iterator<_Mytree> _Iter)
; 348  : 	{	// convert to unchecked
; 349  : 	return (_Iter._Unchecked());
; 350  : 	}
; 351  : 
; 352  : template<class _Mytree> inline
; 353  : 	_Tree_const_iterator<_Mytree>&
; 354  : 		_Rechecked(_Tree_const_iterator<_Mytree>& _Iter,
; 355  : 			typename _Tree_const_iterator<_Mytree>
; 356  : 				::_Unchecked_type _Right)
; 357  : 	{	// convert to checked
; 358  : 	return (_Iter._Rechecked(_Right));
; 359  : 	}
; 360  : 
; 361  : 	// TEMPLATE CLASS _Tree_iterator
; 362  : template<class _Mytree>
; 363  : 	class _Tree_iterator
; 364  : 		: public _Tree_const_iterator<_Mytree>
; 365  : 	{	// iterator for mutable tree
; 366  : public:
; 367  : 	typedef _Tree_iterator<_Mytree> _Myiter;
; 368  : 	typedef _Tree_const_iterator<_Mytree> _Mybase;
; 369  : 	typedef bidirectional_iterator_tag iterator_category;
; 370  : 
; 371  : 	typedef typename _Mytree::_Nodeptr _Nodeptr;
; 372  : 	typedef typename _Mytree::value_type value_type;
; 373  : 	typedef typename _Mytree::difference_type difference_type;
; 374  : 
; 375  : 	typedef typename _Mytree::pointer pointer;
; 376  : 	typedef typename _Mytree::reference reference;
; 377  : 
; 378  : 	_Tree_iterator()
; 379  : 		{	// construct with null node
; 380  : 		}
; 381  : 
; 382  : 	_Tree_iterator(_Nodeptr _Pnode, const _Mytree *_Plist)
; 383  : 		: _Mybase(_Pnode, _Plist)
; 384  : 		{	// construct with node pointer _Pnode
; 385  : 		}
; 386  : 
; 387  : 	typedef _Tree_unchecked_iterator<_Mytree> _Unchecked_type;
; 388  : 
; 389  : 	_Myiter& _Rechecked(_Unchecked_type _Right)
; 390  : 		{	// reset from unchecked iterator
; 391  : 		this->_Ptr = _Right._Ptr;
; 392  : 		return (*this);
; 393  : 		}
; 394  : 
; 395  : 	_Unchecked_type _Unchecked() const
; 396  : 		{	// make an unchecked iterator
; 397  : 		return (_Unchecked_type(this->_Ptr, (_Mytree *)this->_Getcont()));
; 398  : 		}
; 399  : 
; 400  : 	reference operator*() const
; 401  : 		{	// return designated value
; 402  : 		return ((reference)**(_Mybase *)this);
; 403  : 		}
; 404  : 
; 405  : 	pointer operator->() const
; 406  : 		{	// return pointer to class object
; 407  : 		return (_STD pointer_traits<pointer>::pointer_to(**this));
; 408  : 		}
; 409  : 
; 410  : 	_Myiter& operator++()
; 411  : 		{	// preincrement
; 412  : 		++(*(_Mybase *)this);
; 413  : 		return (*this);
; 414  : 		}
; 415  : 
; 416  : 	_Myiter operator++(int)
; 417  : 		{	// postincrement
; 418  : 		_Myiter _Tmp = *this;
; 419  : 		++*this;
; 420  : 		return (_Tmp);
; 421  : 		}
; 422  : 
; 423  : 	_Myiter& operator--()
; 424  : 		{	// predecrement
; 425  : 		--(*(_Mybase *)this);
; 426  : 		return (*this);
; 427  : 		}
; 428  : 
; 429  : 	_Myiter operator--(int)
; 430  : 		{	// postdecrement
; 431  : 		_Myiter _Tmp = *this;
; 432  : 		--*this;
; 433  : 		return (_Tmp);
; 434  : 		}
; 435  : 	};
; 436  : 
; 437  : template<class _Mytree> inline
; 438  : 	typename _Tree_iterator<_Mytree>::_Unchecked_type
; 439  : 		_Unchecked(_Tree_iterator<_Mytree> _Iter)
; 440  : 	{	// convert to unchecked
; 441  : 	return (_Iter._Unchecked());
; 442  : 	}
; 443  : 
; 444  : template<class _Mytree> inline
; 445  : 	_Tree_iterator<_Mytree>&
; 446  : 		_Rechecked(_Tree_iterator<_Mytree>& _Iter,
; 447  : 			typename _Tree_iterator<_Mytree>
; 448  : 				::_Unchecked_type _Right)
; 449  : 	{	// convert to checked
; 450  : 	return (_Iter._Rechecked(_Right));
; 451  : 	}
; 452  : 
; 453  : 		// tree TYPE WRAPPERS
; 454  : template<class _Value_type,
; 455  : 	class _Size_type,
; 456  : 	class _Difference_type,
; 457  : 	class _Pointer,
; 458  : 	class _Const_pointer,
; 459  : 	class _Reference,
; 460  : 	class _Const_reference,
; 461  : 	class _Nodeptr_type>
; 462  : 	struct _Tree_iter_types
; 463  : 	{	// wraps types needed by iterators
; 464  : 	typedef _Value_type value_type;
; 465  : 	typedef _Size_type size_type;
; 466  : 	typedef _Difference_type difference_type;
; 467  : 	typedef _Pointer pointer;
; 468  : 	typedef _Const_pointer const_pointer;
; 469  : 	typedef _Reference reference;
; 470  : 	typedef _Const_reference const_reference;
; 471  : 	typedef _Nodeptr_type _Nodeptr;
; 472  : 	};
; 473  : 
; 474  : template<class _Value_type,
; 475  : 	class _Voidptr>
; 476  : 	struct _Tree_node
; 477  : 		{	// tree node
; 478  : 		_Voidptr _Left;	// left subtree, or smallest element if head
; 479  : 		_Voidptr _Parent;	// parent, or root of tree if head
; 480  : 		_Voidptr _Right;	// right subtree, or largest element if head
; 481  : 		char _Color;	// _Red or _Black, _Black if head
; 482  : 		char _Isnil;	// true only if head (also nil) node
; 483  : 		_Value_type _Myval;	// the stored value, unused if head
; 484  : 
; 485  : 	private:
; 486  : 		_Tree_node& operator=(const _Tree_node&);
; 487  : 		};
; 488  : 
; 489  : template<class _Value_type>
; 490  : 	struct _Tree_node<_Value_type, void *>
; 491  : 		{	// tree node
; 492  : 		typedef _Tree_node<_Value_type, void *> *_Nodeptr;
; 493  : 		_Nodeptr _Left;	// left subtree, or smallest element if head
; 494  : 		_Nodeptr _Parent;	// parent, or root of tree if head
; 495  : 		_Nodeptr _Right;	// right subtree, or largest element if head
; 496  : 		char _Color;	// _Red or _Black, _Black if head
; 497  : 		char _Isnil;	// true only if head (also nil) node
; 498  : 		_Value_type _Myval;	// the stored value, unused if head
; 499  : 
; 500  : 	private:
; 501  : 		_Tree_node& operator=(const _Tree_node&);
; 502  : 		};
; 503  : 
; 504  : template<class _Ty>
; 505  : 	struct _Tree_simple_types
; 506  : 		: public _Simple_types<_Ty>
; 507  : 	{	// wraps types needed by iterators
; 508  : 	typedef _Tree_node<_Ty, void *> _Node;
; 509  : 	typedef _Node *_Nodeptr;
; 510  : 	};
; 511  : 
; 512  : template<class _Ty,
; 513  : 	class _Alloc0>
; 514  : 	struct _Tree_base_types
; 515  : 	{	// types needed for a container base
; 516  : 	typedef _Alloc0 _Alloc;
; 517  : 	typedef _Tree_base_types<_Ty, _Alloc> _Myt;
; 518  : 
; 519  : 	typedef _Wrap_alloc<_Alloc> _Alty0;
; 520  : 	typedef typename _Alty0::template rebind<_Ty>::other _Alty;
; 521  : 
; 522  : 
; 523  : 	typedef typename _Get_voidptr<_Alty, typename _Alty::pointer>::type
; 524  : 		_Voidptr;
; 525  : 	typedef _Tree_node<typename _Alty::value_type,
; 526  : 		_Voidptr> _Node;
; 527  : 
; 528  : 	typedef typename _Alty::template rebind<_Node>::other _Alnod_type;
; 529  : 	typedef typename _Alnod_type::pointer _Nodeptr;
; 530  : 	typedef _Nodeptr& _Nodepref;
; 531  : 
; 532  : 	typedef typename _If<_Is_simple_alloc<_Alty>::value,
; 533  : 		_Tree_simple_types<typename _Alty::value_type>,
; 534  : 		_Tree_iter_types<typename _Alty::value_type,
; 535  : 			typename _Alty::size_type,
; 536  : 			typename _Alty::difference_type,
; 537  : 			typename _Alty::pointer,
; 538  : 			typename _Alty::const_pointer,
; 539  : 			typename _Alty::reference,
; 540  : 			typename _Alty::const_reference,
; 541  : 			_Nodeptr> >::type
; 542  : 		_Val_types;
; 543  : 	};
; 544  : 
; 545  : 		// TEMPLATE CLASS _Tree_val
; 546  : template<class _Val_types>
; 547  : 	class _Tree_val
; 548  : 		: public _Container_base
; 549  : 	{	// base class for tree to hold data
; 550  : public:
; 551  : 	typedef _Tree_val<_Val_types> _Myt;
; 552  : 
; 553  : 	typedef typename _Val_types::_Nodeptr _Nodeptr;
; 554  : 	typedef _Nodeptr& _Nodepref;
; 555  : 
; 556  : 	typedef typename _Val_types::value_type value_type;
; 557  : 	typedef typename _Val_types::size_type size_type;
; 558  : 	typedef typename _Val_types::difference_type difference_type;
; 559  : 	typedef typename _Val_types::pointer pointer;
; 560  : 	typedef typename _Val_types::const_pointer const_pointer;
; 561  : 	typedef typename _Val_types::reference reference;
; 562  : 	typedef typename _Val_types::const_reference const_reference;
; 563  : 
; 564  : 	typedef _Tree_const_iterator<_Myt> const_iterator;
; 565  : 	typedef _Tree_iterator<_Myt> iterator;
; 566  : 
; 567  : 	_Tree_val()
; 568  : 		{	// initialize data
; 569  : 		this->_Myhead = 0;
; 570  : 		this->_Mysize = 0;
; 571  : 		}
; 572  : 
; 573  : 	enum _Redbl
; 574  : 		{	// colors for link to parent
; 575  : 		_Red, _Black};
; 576  : 
; 577  : 	static char& _Color(_Nodeptr _Pnode)
; 578  : 		{	// return reference to color in node
; 579  : 		return ((char&)_Pnode->_Color);
; 580  : 		}
; 581  : 
; 582  : 	static char& _Isnil(_Nodeptr _Pnode)
; 583  : 		{	// return reference to nil flag in node
; 584  : 		return ((char&)_Pnode->_Isnil);

	mov	rax, QWORD PTR [rax]

; 590  : 		}
; 591  : 
; 592  : 	static _Nodepref _Parent(_Nodeptr _Pnode)
; 593  : 		{	// return reference to parent pointer in node
; 594  : 		return ((_Nodepref)_Pnode->_Parent);
; 595  : 		}
; 596  : 
; 597  : 	static _Nodepref _Right(_Nodeptr _Pnode)
; 598  : 		{	// return reference to right pointer in node
; 599  : 		return ((_Nodepref)_Pnode->_Right);
; 600  : 		}
; 601  : 
; 602  : 	static reference _Myval(_Nodeptr _Pnode)
; 603  : 		{	// return reference to value in node
; 604  : 		return ((reference)_Pnode->_Myval);
; 605  : 		}
; 606  : 
; 607  : 	static _Nodeptr _Max(_Nodeptr _Pnode)
; 608  : 		{	// return rightmost node in subtree at _Pnode
; 609  : 		while (!_Isnil(_Right(_Pnode)))
; 610  : 			_Pnode = _Right(_Pnode);
; 611  : 		return (_Pnode);
; 612  : 		}
; 613  : 
; 614  : 	static _Nodeptr _Min(_Nodeptr _Pnode)
; 615  : 		{	// return leftmost node in subtree at _Pnode
; 616  : 		while (!_Isnil(_Left(_Pnode)))

	cmp	BYTE PTR [rax+25], 0
	jne	SHORT $LN91@dump
	npad	9
$LL49@dump:

; 617  : 			_Pnode = _Left(_Pnode);

	mov	rbx, rax

; 337  : 		}
; 338  : 
; 339  : 	bool operator!=(const _Myiter& _Right) const
; 340  : 		{	// test for iterator inequality
; 341  : 		return (!(*this == _Right));
; 342  : 		}
; 343  : 	};
; 344  : 
; 345  : template<class _Mytree> inline
; 346  : 	typename _Tree_const_iterator<_Mytree>::_Unchecked_type
; 347  : 		_Unchecked(_Tree_const_iterator<_Mytree> _Iter)
; 348  : 	{	// convert to unchecked
; 349  : 	return (_Iter._Unchecked());
; 350  : 	}
; 351  : 
; 352  : template<class _Mytree> inline
; 353  : 	_Tree_const_iterator<_Mytree>&
; 354  : 		_Rechecked(_Tree_const_iterator<_Mytree>& _Iter,
; 355  : 			typename _Tree_const_iterator<_Mytree>
; 356  : 				::_Unchecked_type _Right)
; 357  : 	{	// convert to checked
; 358  : 	return (_Iter._Rechecked(_Right));
; 359  : 	}
; 360  : 
; 361  : 	// TEMPLATE CLASS _Tree_iterator
; 362  : template<class _Mytree>
; 363  : 	class _Tree_iterator
; 364  : 		: public _Tree_const_iterator<_Mytree>
; 365  : 	{	// iterator for mutable tree
; 366  : public:
; 367  : 	typedef _Tree_iterator<_Mytree> _Myiter;
; 368  : 	typedef _Tree_const_iterator<_Mytree> _Mybase;
; 369  : 	typedef bidirectional_iterator_tag iterator_category;
; 370  : 
; 371  : 	typedef typename _Mytree::_Nodeptr _Nodeptr;
; 372  : 	typedef typename _Mytree::value_type value_type;
; 373  : 	typedef typename _Mytree::difference_type difference_type;
; 374  : 
; 375  : 	typedef typename _Mytree::pointer pointer;
; 376  : 	typedef typename _Mytree::reference reference;
; 377  : 
; 378  : 	_Tree_iterator()
; 379  : 		{	// construct with null node
; 380  : 		}
; 381  : 
; 382  : 	_Tree_iterator(_Nodeptr _Pnode, const _Mytree *_Plist)
; 383  : 		: _Mybase(_Pnode, _Plist)
; 384  : 		{	// construct with node pointer _Pnode
; 385  : 		}
; 386  : 
; 387  : 	typedef _Tree_unchecked_iterator<_Mytree> _Unchecked_type;
; 388  : 
; 389  : 	_Myiter& _Rechecked(_Unchecked_type _Right)
; 390  : 		{	// reset from unchecked iterator
; 391  : 		this->_Ptr = _Right._Ptr;
; 392  : 		return (*this);
; 393  : 		}
; 394  : 
; 395  : 	_Unchecked_type _Unchecked() const
; 396  : 		{	// make an unchecked iterator
; 397  : 		return (_Unchecked_type(this->_Ptr, (_Mytree *)this->_Getcont()));
; 398  : 		}
; 399  : 
; 400  : 	reference operator*() const
; 401  : 		{	// return designated value
; 402  : 		return ((reference)**(_Mybase *)this);
; 403  : 		}
; 404  : 
; 405  : 	pointer operator->() const
; 406  : 		{	// return pointer to class object
; 407  : 		return (_STD pointer_traits<pointer>::pointer_to(**this));
; 408  : 		}
; 409  : 
; 410  : 	_Myiter& operator++()
; 411  : 		{	// preincrement
; 412  : 		++(*(_Mybase *)this);
; 413  : 		return (*this);
; 414  : 		}
; 415  : 
; 416  : 	_Myiter operator++(int)
; 417  : 		{	// postincrement
; 418  : 		_Myiter _Tmp = *this;
; 419  : 		++*this;
; 420  : 		return (_Tmp);
; 421  : 		}
; 422  : 
; 423  : 	_Myiter& operator--()
; 424  : 		{	// predecrement
; 425  : 		--(*(_Mybase *)this);
; 426  : 		return (*this);
; 427  : 		}
; 428  : 
; 429  : 	_Myiter operator--(int)
; 430  : 		{	// postdecrement
; 431  : 		_Myiter _Tmp = *this;
; 432  : 		--*this;
; 433  : 		return (_Tmp);
; 434  : 		}
; 435  : 	};
; 436  : 
; 437  : template<class _Mytree> inline
; 438  : 	typename _Tree_iterator<_Mytree>::_Unchecked_type
; 439  : 		_Unchecked(_Tree_iterator<_Mytree> _Iter)
; 440  : 	{	// convert to unchecked
; 441  : 	return (_Iter._Unchecked());
; 442  : 	}
; 443  : 
; 444  : template<class _Mytree> inline
; 445  : 	_Tree_iterator<_Mytree>&
; 446  : 		_Rechecked(_Tree_iterator<_Mytree>& _Iter,
; 447  : 			typename _Tree_iterator<_Mytree>
; 448  : 				::_Unchecked_type _Right)
; 449  : 	{	// convert to checked
; 450  : 	return (_Iter._Rechecked(_Right));
; 451  : 	}
; 452  : 
; 453  : 		// tree TYPE WRAPPERS
; 454  : template<class _Value_type,
; 455  : 	class _Size_type,
; 456  : 	class _Difference_type,
; 457  : 	class _Pointer,
; 458  : 	class _Const_pointer,
; 459  : 	class _Reference,
; 460  : 	class _Const_reference,
; 461  : 	class _Nodeptr_type>
; 462  : 	struct _Tree_iter_types
; 463  : 	{	// wraps types needed by iterators
; 464  : 	typedef _Value_type value_type;
; 465  : 	typedef _Size_type size_type;
; 466  : 	typedef _Difference_type difference_type;
; 467  : 	typedef _Pointer pointer;
; 468  : 	typedef _Const_pointer const_pointer;
; 469  : 	typedef _Reference reference;
; 470  : 	typedef _Const_reference const_reference;
; 471  : 	typedef _Nodeptr_type _Nodeptr;
; 472  : 	};
; 473  : 
; 474  : template<class _Value_type,
; 475  : 	class _Voidptr>
; 476  : 	struct _Tree_node
; 477  : 		{	// tree node
; 478  : 		_Voidptr _Left;	// left subtree, or smallest element if head
; 479  : 		_Voidptr _Parent;	// parent, or root of tree if head
; 480  : 		_Voidptr _Right;	// right subtree, or largest element if head
; 481  : 		char _Color;	// _Red or _Black, _Black if head
; 482  : 		char _Isnil;	// true only if head (also nil) node
; 483  : 		_Value_type _Myval;	// the stored value, unused if head
; 484  : 
; 485  : 	private:
; 486  : 		_Tree_node& operator=(const _Tree_node&);
; 487  : 		};
; 488  : 
; 489  : template<class _Value_type>
; 490  : 	struct _Tree_node<_Value_type, void *>
; 491  : 		{	// tree node
; 492  : 		typedef _Tree_node<_Value_type, void *> *_Nodeptr;
; 493  : 		_Nodeptr _Left;	// left subtree, or smallest element if head
; 494  : 		_Nodeptr _Parent;	// parent, or root of tree if head
; 495  : 		_Nodeptr _Right;	// right subtree, or largest element if head
; 496  : 		char _Color;	// _Red or _Black, _Black if head
; 497  : 		char _Isnil;	// true only if head (also nil) node
; 498  : 		_Value_type _Myval;	// the stored value, unused if head
; 499  : 
; 500  : 	private:
; 501  : 		_Tree_node& operator=(const _Tree_node&);
; 502  : 		};
; 503  : 
; 504  : template<class _Ty>
; 505  : 	struct _Tree_simple_types
; 506  : 		: public _Simple_types<_Ty>
; 507  : 	{	// wraps types needed by iterators
; 508  : 	typedef _Tree_node<_Ty, void *> _Node;
; 509  : 	typedef _Node *_Nodeptr;
; 510  : 	};
; 511  : 
; 512  : template<class _Ty,
; 513  : 	class _Alloc0>
; 514  : 	struct _Tree_base_types
; 515  : 	{	// types needed for a container base
; 516  : 	typedef _Alloc0 _Alloc;
; 517  : 	typedef _Tree_base_types<_Ty, _Alloc> _Myt;
; 518  : 
; 519  : 	typedef _Wrap_alloc<_Alloc> _Alty0;
; 520  : 	typedef typename _Alty0::template rebind<_Ty>::other _Alty;
; 521  : 
; 522  : 
; 523  : 	typedef typename _Get_voidptr<_Alty, typename _Alty::pointer>::type
; 524  : 		_Voidptr;
; 525  : 	typedef _Tree_node<typename _Alty::value_type,
; 526  : 		_Voidptr> _Node;
; 527  : 
; 528  : 	typedef typename _Alty::template rebind<_Node>::other _Alnod_type;
; 529  : 	typedef typename _Alnod_type::pointer _Nodeptr;
; 530  : 	typedef _Nodeptr& _Nodepref;
; 531  : 
; 532  : 	typedef typename _If<_Is_simple_alloc<_Alty>::value,
; 533  : 		_Tree_simple_types<typename _Alty::value_type>,
; 534  : 		_Tree_iter_types<typename _Alty::value_type,
; 535  : 			typename _Alty::size_type,
; 536  : 			typename _Alty::difference_type,
; 537  : 			typename _Alty::pointer,
; 538  : 			typename _Alty::const_pointer,
; 539  : 			typename _Alty::reference,
; 540  : 			typename _Alty::const_reference,
; 541  : 			_Nodeptr> >::type
; 542  : 		_Val_types;
; 543  : 	};
; 544  : 
; 545  : 		// TEMPLATE CLASS _Tree_val
; 546  : template<class _Val_types>
; 547  : 	class _Tree_val
; 548  : 		: public _Container_base
; 549  : 	{	// base class for tree to hold data
; 550  : public:
; 551  : 	typedef _Tree_val<_Val_types> _Myt;
; 552  : 
; 553  : 	typedef typename _Val_types::_Nodeptr _Nodeptr;
; 554  : 	typedef _Nodeptr& _Nodepref;
; 555  : 
; 556  : 	typedef typename _Val_types::value_type value_type;
; 557  : 	typedef typename _Val_types::size_type size_type;
; 558  : 	typedef typename _Val_types::difference_type difference_type;
; 559  : 	typedef typename _Val_types::pointer pointer;
; 560  : 	typedef typename _Val_types::const_pointer const_pointer;
; 561  : 	typedef typename _Val_types::reference reference;
; 562  : 	typedef typename _Val_types::const_reference const_reference;
; 563  : 
; 564  : 	typedef _Tree_const_iterator<_Myt> const_iterator;
; 565  : 	typedef _Tree_iterator<_Myt> iterator;
; 566  : 
; 567  : 	_Tree_val()
; 568  : 		{	// initialize data
; 569  : 		this->_Myhead = 0;
; 570  : 		this->_Mysize = 0;
; 571  : 		}
; 572  : 
; 573  : 	enum _Redbl
; 574  : 		{	// colors for link to parent
; 575  : 		_Red, _Black};
; 576  : 
; 577  : 	static char& _Color(_Nodeptr _Pnode)
; 578  : 		{	// return reference to color in node
; 579  : 		return ((char&)_Pnode->_Color);
; 580  : 		}
; 581  : 
; 582  : 	static char& _Isnil(_Nodeptr _Pnode)
; 583  : 		{	// return reference to nil flag in node
; 584  : 		return ((char&)_Pnode->_Isnil);

	mov	rax, QWORD PTR [rax]

; 590  : 		}
; 591  : 
; 592  : 	static _Nodepref _Parent(_Nodeptr _Pnode)
; 593  : 		{	// return reference to parent pointer in node
; 594  : 		return ((_Nodepref)_Pnode->_Parent);
; 595  : 		}
; 596  : 
; 597  : 	static _Nodepref _Right(_Nodeptr _Pnode)
; 598  : 		{	// return reference to right pointer in node
; 599  : 		return ((_Nodepref)_Pnode->_Right);
; 600  : 		}
; 601  : 
; 602  : 	static reference _Myval(_Nodeptr _Pnode)
; 603  : 		{	// return reference to value in node
; 604  : 		return ((reference)_Pnode->_Myval);
; 605  : 		}
; 606  : 
; 607  : 	static _Nodeptr _Max(_Nodeptr _Pnode)
; 608  : 		{	// return rightmost node in subtree at _Pnode
; 609  : 		while (!_Isnil(_Right(_Pnode)))
; 610  : 			_Pnode = _Right(_Pnode);
; 611  : 		return (_Pnode);
; 612  : 		}
; 613  : 
; 614  : 	static _Nodeptr _Min(_Nodeptr _Pnode)
; 615  : 		{	// return leftmost node in subtree at _Pnode
; 616  : 		while (!_Isnil(_Left(_Pnode)))

	cmp	BYTE PTR [rax+25], 0
	je	SHORT $LL49@dump

; 65   : 		else

	jmp	SHORT $LN91@dump
$LN88@dump:

; 66   : 			{	// climb looking for right subtree
; 67   : 			_Nodeptr _Pnode;
; 68   : 			while (!_Mytree::_Isnil(_Pnode = _Mytree::_Parent(_Ptr))
; 69   : 				&& _Ptr == _Mytree::_Right(_Pnode))

	mov	rax, QWORD PTR [rbx+8]
	cmp	BYTE PTR [rax+25], 0
	jne	SHORT $LN98@dump
$LL33@dump:
	cmp	rbx, QWORD PTR [rax+16]
	jne	SHORT $LN98@dump

; 70   : 				_Ptr = _Pnode;	// ==> parent while right subtree

	mov	rbx, rax
	mov	rax, QWORD PTR [rax+8]
	cmp	BYTE PTR [rax+25], 0
	je	SHORT $LL33@dump
$LN98@dump:

; 71   : 			_Ptr = _Pnode;	// ==> parent (head if end())

	mov	rbx, rax
$LN91@dump:

; 336  : 		return (this->_Ptr == _Right._Ptr);

	cmp	rbx, rdi
; File c:\users\nummer\documents\github\olr-3.0\src\xray\xrcore\xrstring.cpp

; 130  : 	for (; it!=end; it++)

	jne	$LL34@dump
$LN1@dump:

; 132  : 	fclose		(F);

	mov	rcx, rsi
	call	QWORD PTR __imp_fclose
; File c:\users\nummer\documents\github\olr-3.0\src\xray\xrcore\xrsyncronize.cpp

; 69   : 	LeaveCriticalSection			( (CRITICAL_SECTION*)pmutex );

	mov	rcx, QWORD PTR [r14]
; File c:\users\nummer\documents\github\olr-3.0\src\xray\xrcore\xrstring.cpp

; 134  : }

	mov	rbx, QWORD PTR [rsp+64]
	mov	rsi, QWORD PTR [rsp+72]
	mov	rdi, QWORD PTR [rsp+80]
	add	rsp, 48					; 00000030H
	pop	r14
; File c:\users\nummer\documents\github\olr-3.0\src\xray\xrcore\xrsyncronize.cpp

; 69   : 	LeaveCriticalSection			( (CRITICAL_SECTION*)pmutex );

	rex_jmp	QWORD PTR __imp_LeaveCriticalSection
?dump@str_container@@QEAAXXZ ENDP			; str_container::dump
_TEXT	ENDS
; Function compile flags: /Ogtpy
; File c:\program files (x86)\microsoft visual studio 12.0\vc\include\set
; File c:\program files (x86)\microsoft visual studio 12.0\vc\include\xtree
; File c:\program files (x86)\microsoft visual studio 12.0\vc\include\set
; File c:\program files (x86)\microsoft visual studio 12.0\vc\include\xtree
; File c:\program files (x86)\microsoft visual studio 12.0\vc\include\set
;	COMDAT ?insert@?$multiset@PEAUstr_value@@Ustr_value_cmp@@V?$xalloc@PEAUstr_value@@@@@std@@QEAA?AV?$_Tree_const_iterator@V?$_Tree_val@U?$_Tree_simple_types@PEAUstr_value@@@std@@@std@@@2@AEBQEAUstr_value@@@Z
_TEXT	SEGMENT
$T1 = 48
this$ = 80
__$ReturnUdt$ = 88
_Val$ = 96
?insert@?$multiset@PEAUstr_value@@Ustr_value_cmp@@V?$xalloc@PEAUstr_value@@@@@std@@QEAA?AV?$_Tree_const_iterator@V?$_Tree_val@U?$_Tree_simple_types@PEAUstr_value@@@std@@@std@@@2@AEBQEAUstr_value@@@Z PROC ; std::multiset<str_value * __ptr64,str_value_cmp,xalloc<str_value * __ptr64> >::insert, COMDAT

; 382  : 		{	// insert a key value

$LN6:
	push	rbx
	sub	rsp, 64					; 00000040H
; File c:\program files (x86)\microsoft visual studio 12.0\vc\include\xtree

; 1303 : 			_Val, _Nil_obj));

	movzx	eax, BYTE PTR _Nil_obj
; File c:\program files (x86)\microsoft visual studio 12.0\vc\include\set

; 382  : 		{	// insert a key value

	mov	rbx, rdx
; File c:\program files (x86)\microsoft visual studio 12.0\vc\include\xtree

; 1303 : 			_Val, _Nil_obj));

	lea	rdx, QWORD PTR $T1[rsp]
	mov	r9, r8
	mov	BYTE PTR [rsp+32], al
	call	??$_Insert_nohint@AEBQEAUstr_value@@U_Nil@std@@@?$_Tree@V?$_Tset_traits@PEAUstr_value@@Ustr_value_cmp@@V?$xalloc@PEAUstr_value@@@@$00@std@@@std@@IEAA?AU?$pair@V?$_Tree_const_iterator@V?$_Tree_val@U?$_Tree_simple_types@PEAUstr_value@@@std@@@std@@@std@@_N@1@_NAEBQEAUstr_value@@U_Nil@1@@Z ; std::_Tree<std::_Tset_traits<str_value * __ptr64,str_value_cmp,xalloc<str_value * __ptr64>,1> >::_Insert_nohint<str_value * __ptr64 const & __ptr64,std::_Nil>
; File c:\program files (x86)\microsoft visual studio 12.0\vc\include\set

; 383  : 		return (_Mybase::insert(_Val).first);

	mov	rax, QWORD PTR $T1[rsp]
	mov	QWORD PTR [rbx], rax
	mov	rax, rbx

; 384  : 		}

	add	rsp, 64					; 00000040H
	pop	rbx
	ret	0
?insert@?$multiset@PEAUstr_value@@Ustr_value_cmp@@V?$xalloc@PEAUstr_value@@@@@std@@QEAA?AV?$_Tree_const_iterator@V?$_Tree_val@U?$_Tree_simple_types@PEAUstr_value@@@std@@@std@@@2@AEBQEAUstr_value@@@Z ENDP ; std::multiset<str_value * __ptr64,str_value_cmp,xalloc<str_value * __ptr64> >::insert
_TEXT	ENDS
; Function compile flags: /Ogtpy
; File c:\program files (x86)\microsoft visual studio 12.0\vc\include\xtree
;	COMDAT ?empty@?$_Tree@V?$_Tset_traits@PEAUstr_value@@Ustr_value_cmp@@V?$xalloc@PEAUstr_value@@@@$00@std@@@std@@QEBA_NXZ
_TEXT	SEGMENT
this$ = 8
?empty@?$_Tree@V?$_Tset_traits@PEAUstr_value@@Ustr_value_cmp@@V?$xalloc@PEAUstr_value@@@@$00@std@@@std@@QEBA_NXZ PROC ; std::_Tree<std::_Tset_traits<str_value * __ptr64,str_value_cmp,xalloc<str_value * __ptr64>,1> >::empty, COMDAT

; 1282 : 		return (size() == 0);

	xor	eax, eax
	cmp	QWORD PTR [rcx+8], rax
	sete	al

; 1283 : 		}

	ret	0
?empty@?$_Tree@V?$_Tset_traits@PEAUstr_value@@Ustr_value_cmp@@V?$xalloc@PEAUstr_value@@@@$00@std@@@std@@QEBA_NXZ ENDP ; std::_Tree<std::_Tset_traits<str_value * __ptr64,str_value_cmp,xalloc<str_value * __ptr64>,1> >::empty
_TEXT	ENDS
; Function compile flags: /Ogtpy
; File c:\program files (x86)\microsoft visual studio 12.0\vc\include\xtree
; File c:\users\nummer\documents\github\olr-3.0\src\xray\xrcore\xrstring.h
; File c:\program files (x86)\microsoft visual studio 12.0\vc\include\xtree
; File c:\users\nummer\documents\github\olr-3.0\src\xray\xrcore\xrstring.h
; File c:\program files (x86)\microsoft visual studio 12.0\vc\include\xtree
; File c:\users\nummer\documents\github\olr-3.0\src\xray\xrcore\xrstring.h
; File c:\program files (x86)\microsoft visual studio 12.0\vc\include\xtree
;	COMDAT ?find@?$_Tree@V?$_Tset_traits@PEAUstr_value@@Ustr_value_cmp@@V?$xalloc@PEAUstr_value@@@@$00@std@@@std@@QEAA?AV?$_Tree_const_iterator@V?$_Tree_val@U?$_Tree_simple_types@PEAUstr_value@@@std@@@std@@@2@AEBQEAUstr_value@@@Z
_TEXT	SEGMENT
$T1 = 8
$T2 = 8
this$ = 8
__$ReturnUdt$ = 16
_Keyval$ = 24
?find@?$_Tree@V?$_Tset_traits@PEAUstr_value@@Ustr_value_cmp@@V?$xalloc@PEAUstr_value@@@@$00@std@@@std@@QEAA?AV?$_Tree_const_iterator@V?$_Tree_val@U?$_Tree_simple_types@PEAUstr_value@@@std@@@std@@@2@AEBQEAUstr_value@@@Z PROC ; std::_Tree<std::_Tset_traits<str_value * __ptr64,str_value_cmp,xalloc<str_value * __ptr64>,1> >::find, COMDAT

; 337  : 		}
; 338  : 
; 339  : 	bool operator!=(const _Myiter& _Right) const
; 340  : 		{	// test for iterator inequality
; 341  : 		return (!(*this == _Right));
; 342  : 		}
; 343  : 	};
; 344  : 
; 345  : template<class _Mytree> inline
; 346  : 	typename _Tree_const_iterator<_Mytree>::_Unchecked_type
; 347  : 		_Unchecked(_Tree_const_iterator<_Mytree> _Iter)
; 348  : 	{	// convert to unchecked
; 349  : 	return (_Iter._Unchecked());
; 350  : 	}
; 351  : 
; 352  : template<class _Mytree> inline
; 353  : 	_Tree_const_iterator<_Mytree>&
; 354  : 		_Rechecked(_Tree_const_iterator<_Mytree>& _Iter,
; 355  : 			typename _Tree_const_iterator<_Mytree>
; 356  : 				::_Unchecked_type _Right)
; 357  : 	{	// convert to checked
; 358  : 	return (_Iter._Rechecked(_Right));
; 359  : 	}
; 360  : 
; 361  : 	// TEMPLATE CLASS _Tree_iterator
; 362  : template<class _Mytree>
; 363  : 	class _Tree_iterator
; 364  : 		: public _Tree_const_iterator<_Mytree>
; 365  : 	{	// iterator for mutable tree
; 366  : public:
; 367  : 	typedef _Tree_iterator<_Mytree> _Myiter;
; 368  : 	typedef _Tree_const_iterator<_Mytree> _Mybase;
; 369  : 	typedef bidirectional_iterator_tag iterator_category;
; 370  : 
; 371  : 	typedef typename _Mytree::_Nodeptr _Nodeptr;
; 372  : 	typedef typename _Mytree::value_type value_type;
; 373  : 	typedef typename _Mytree::difference_type difference_type;
; 374  : 
; 375  : 	typedef typename _Mytree::pointer pointer;
; 376  : 	typedef typename _Mytree::reference reference;
; 377  : 
; 378  : 	_Tree_iterator()
; 379  : 		{	// construct with null node
; 380  : 		}
; 381  : 
; 382  : 	_Tree_iterator(_Nodeptr _Pnode, const _Mytree *_Plist)
; 383  : 		: _Mybase(_Pnode, _Plist)
; 384  : 		{	// construct with node pointer _Pnode
; 385  : 		}
; 386  : 
; 387  : 	typedef _Tree_unchecked_iterator<_Mytree> _Unchecked_type;
; 388  : 
; 389  : 	_Myiter& _Rechecked(_Unchecked_type _Right)
; 390  : 		{	// reset from unchecked iterator
; 391  : 		this->_Ptr = _Right._Ptr;
; 392  : 		return (*this);
; 393  : 		}
; 394  : 
; 395  : 	_Unchecked_type _Unchecked() const
; 396  : 		{	// make an unchecked iterator
; 397  : 		return (_Unchecked_type(this->_Ptr, (_Mytree *)this->_Getcont()));
; 398  : 		}
; 399  : 
; 400  : 	reference operator*() const
; 401  : 		{	// return designated value
; 402  : 		return ((reference)**(_Mybase *)this);
; 403  : 		}
; 404  : 
; 405  : 	pointer operator->() const
; 406  : 		{	// return pointer to class object
; 407  : 		return (_STD pointer_traits<pointer>::pointer_to(**this));
; 408  : 		}
; 409  : 
; 410  : 	_Myiter& operator++()
; 411  : 		{	// preincrement
; 412  : 		++(*(_Mybase *)this);
; 413  : 		return (*this);
; 414  : 		}
; 415  : 
; 416  : 	_Myiter operator++(int)
; 417  : 		{	// postincrement
; 418  : 		_Myiter _Tmp = *this;
; 419  : 		++*this;
; 420  : 		return (_Tmp);
; 421  : 		}
; 422  : 
; 423  : 	_Myiter& operator--()
; 424  : 		{	// predecrement
; 425  : 		--(*(_Mybase *)this);
; 426  : 		return (*this);
; 427  : 		}
; 428  : 
; 429  : 	_Myiter operator--(int)
; 430  : 		{	// postdecrement
; 431  : 		_Myiter _Tmp = *this;
; 432  : 		--*this;
; 433  : 		return (_Tmp);
; 434  : 		}
; 435  : 	};
; 436  : 
; 437  : template<class _Mytree> inline
; 438  : 	typename _Tree_iterator<_Mytree>::_Unchecked_type
; 439  : 		_Unchecked(_Tree_iterator<_Mytree> _Iter)
; 440  : 	{	// convert to unchecked
; 441  : 	return (_Iter._Unchecked());
; 442  : 	}
; 443  : 
; 444  : template<class _Mytree> inline
; 445  : 	_Tree_iterator<_Mytree>&
; 446  : 		_Rechecked(_Tree_iterator<_Mytree>& _Iter,
; 447  : 			typename _Tree_iterator<_Mytree>
; 448  : 				::_Unchecked_type _Right)
; 449  : 	{	// convert to checked
; 450  : 	return (_Iter._Rechecked(_Right));
; 451  : 	}
; 452  : 
; 453  : 		// tree TYPE WRAPPERS
; 454  : template<class _Value_type,
; 455  : 	class _Size_type,
; 456  : 	class _Difference_type,
; 457  : 	class _Pointer,
; 458  : 	class _Const_pointer,
; 459  : 	class _Reference,
; 460  : 	class _Const_reference,
; 461  : 	class _Nodeptr_type>
; 462  : 	struct _Tree_iter_types
; 463  : 	{	// wraps types needed by iterators
; 464  : 	typedef _Value_type value_type;
; 465  : 	typedef _Size_type size_type;
; 466  : 	typedef _Difference_type difference_type;
; 467  : 	typedef _Pointer pointer;
; 468  : 	typedef _Const_pointer const_pointer;
; 469  : 	typedef _Reference reference;
; 470  : 	typedef _Const_reference const_reference;
; 471  : 	typedef _Nodeptr_type _Nodeptr;
; 472  : 	};
; 473  : 
; 474  : template<class _Value_type,
; 475  : 	class _Voidptr>
; 476  : 	struct _Tree_node
; 477  : 		{	// tree node
; 478  : 		_Voidptr _Left;	// left subtree, or smallest element if head
; 479  : 		_Voidptr _Parent;	// parent, or root of tree if head
; 480  : 		_Voidptr _Right;	// right subtree, or largest element if head
; 481  : 		char _Color;	// _Red or _Black, _Black if head
; 482  : 		char _Isnil;	// true only if head (also nil) node
; 483  : 		_Value_type _Myval;	// the stored value, unused if head
; 484  : 
; 485  : 	private:
; 486  : 		_Tree_node& operator=(const _Tree_node&);
; 487  : 		};
; 488  : 
; 489  : template<class _Value_type>
; 490  : 	struct _Tree_node<_Value_type, void *>
; 491  : 		{	// tree node
; 492  : 		typedef _Tree_node<_Value_type, void *> *_Nodeptr;
; 493  : 		_Nodeptr _Left;	// left subtree, or smallest element if head
; 494  : 		_Nodeptr _Parent;	// parent, or root of tree if head
; 495  : 		_Nodeptr _Right;	// right subtree, or largest element if head
; 496  : 		char _Color;	// _Red or _Black, _Black if head
; 497  : 		char _Isnil;	// true only if head (also nil) node
; 498  : 		_Value_type _Myval;	// the stored value, unused if head
; 499  : 
; 500  : 	private:
; 501  : 		_Tree_node& operator=(const _Tree_node&);
; 502  : 		};
; 503  : 
; 504  : template<class _Ty>
; 505  : 	struct _Tree_simple_types
; 506  : 		: public _Simple_types<_Ty>
; 507  : 	{	// wraps types needed by iterators
; 508  : 	typedef _Tree_node<_Ty, void *> _Node;
; 509  : 	typedef _Node *_Nodeptr;
; 510  : 	};
; 511  : 
; 512  : template<class _Ty,
; 513  : 	class _Alloc0>
; 514  : 	struct _Tree_base_types
; 515  : 	{	// types needed for a container base
; 516  : 	typedef _Alloc0 _Alloc;
; 517  : 	typedef _Tree_base_types<_Ty, _Alloc> _Myt;
; 518  : 
; 519  : 	typedef _Wrap_alloc<_Alloc> _Alty0;
; 520  : 	typedef typename _Alty0::template rebind<_Ty>::other _Alty;
; 521  : 
; 522  : 
; 523  : 	typedef typename _Get_voidptr<_Alty, typename _Alty::pointer>::type
; 524  : 		_Voidptr;
; 525  : 	typedef _Tree_node<typename _Alty::value_type,
; 526  : 		_Voidptr> _Node;
; 527  : 
; 528  : 	typedef typename _Alty::template rebind<_Node>::other _Alnod_type;
; 529  : 	typedef typename _Alnod_type::pointer _Nodeptr;
; 530  : 	typedef _Nodeptr& _Nodepref;
; 531  : 
; 532  : 	typedef typename _If<_Is_simple_alloc<_Alty>::value,
; 533  : 		_Tree_simple_types<typename _Alty::value_type>,
; 534  : 		_Tree_iter_types<typename _Alty::value_type,
; 535  : 			typename _Alty::size_type,
; 536  : 			typename _Alty::difference_type,
; 537  : 			typename _Alty::pointer,
; 538  : 			typename _Alty::const_pointer,
; 539  : 			typename _Alty::reference,
; 540  : 			typename _Alty::const_reference,
; 541  : 			_Nodeptr> >::type
; 542  : 		_Val_types;
; 543  : 	};
; 544  : 
; 545  : 		// TEMPLATE CLASS _Tree_val
; 546  : template<class _Val_types>
; 547  : 	class _Tree_val
; 548  : 		: public _Container_base
; 549  : 	{	// base class for tree to hold data
; 550  : public:
; 551  : 	typedef _Tree_val<_Val_types> _Myt;
; 552  : 
; 553  : 	typedef typename _Val_types::_Nodeptr _Nodeptr;
; 554  : 	typedef _Nodeptr& _Nodepref;
; 555  : 
; 556  : 	typedef typename _Val_types::value_type value_type;
; 557  : 	typedef typename _Val_types::size_type size_type;
; 558  : 	typedef typename _Val_types::difference_type difference_type;
; 559  : 	typedef typename _Val_types::pointer pointer;
; 560  : 	typedef typename _Val_types::const_pointer const_pointer;
; 561  : 	typedef typename _Val_types::reference reference;
; 562  : 	typedef typename _Val_types::const_reference const_reference;
; 563  : 
; 564  : 	typedef _Tree_const_iterator<_Myt> const_iterator;
; 565  : 	typedef _Tree_iterator<_Myt> iterator;
; 566  : 
; 567  : 	_Tree_val()
; 568  : 		{	// initialize data
; 569  : 		this->_Myhead = 0;
; 570  : 		this->_Mysize = 0;
; 571  : 		}
; 572  : 
; 573  : 	enum _Redbl
; 574  : 		{	// colors for link to parent
; 575  : 		_Red, _Black};
; 576  : 
; 577  : 	static char& _Color(_Nodeptr _Pnode)
; 578  : 		{	// return reference to color in node
; 579  : 		return ((char&)_Pnode->_Color);
; 580  : 		}
; 581  : 
; 582  : 	static char& _Isnil(_Nodeptr _Pnode)
; 583  : 		{	// return reference to nil flag in node
; 584  : 		return ((char&)_Pnode->_Isnil);
; 585  : 		}
; 586  : 
; 587  : 	static _Nodepref _Left(_Nodeptr _Pnode)
; 588  : 		{	// return reference to left pointer in node
; 589  : 		return ((_Nodepref)_Pnode->_Left);
; 590  : 		}
; 591  : 
; 592  : 	static _Nodepref _Parent(_Nodeptr _Pnode)
; 593  : 		{	// return reference to parent pointer in node
; 594  : 		return ((_Nodepref)_Pnode->_Parent);

	mov	r11, QWORD PTR [rcx]

; 1555 : 
; 1556 : 	const_iterator find(const key_type& _Keyval) const
; 1557 : 		{	// find an element in nonmutable sequence that matches _Keyval
; 1558 : 		const_iterator _Where = lower_bound(_Keyval);
; 1559 : 		return (_Where == end()
; 1560 : 			|| _DEBUG_LT_PRED(this->_Getcomp(),
; 1561 : 				_Keyval, this->_Key(_Where._Mynode()))
; 1562 : 					? end() : _Where);
; 1563 : 		}
; 1564 : 
; 1565 : 	size_type count(const key_type& _Keyval) const
; 1566 : 		{	// count all elements that match _Keyval
; 1567 : 		_Paircc _Ans = equal_range(_Keyval);
; 1568 : 		size_type _Num = 0;
; 1569 : 		_Distance(_Ans.first, _Ans.second, _Num);
; 1570 : 		return (_Num);
; 1571 : 		}
; 1572 : 
; 1573 : 	iterator lower_bound(const key_type& _Keyval)
; 1574 : 		{	// find leftmost node not less than _Keyval in mutable tree
; 1575 : 		return (iterator(_Lbound(_Keyval), this));
; 1576 : 		}
; 1577 : 
; 1578 : 	const_iterator lower_bound(const key_type& _Keyval) const
; 1579 : 		{	// find leftmost node not less than _Keyval in nonmutable tree
; 1580 : 		return (const_iterator(_Lbound(_Keyval), this));
; 1581 : 		}
; 1582 : 
; 1583 : 	iterator upper_bound(const key_type& _Keyval)
; 1584 : 		{	// find leftmost node greater than _Keyval in mutable tree
; 1585 : 		return (iterator(_Ubound(_Keyval), this));
; 1586 : 		}
; 1587 : 
; 1588 : 	const_iterator upper_bound(const key_type& _Keyval) const
; 1589 : 		{	// find leftmost node greater than _Keyval in nonmutable tree
; 1590 : 		return (const_iterator(_Ubound(_Keyval), this));
; 1591 : 		}
; 1592 : 
; 1593 : 	_Pairii equal_range(const key_type& _Keyval)
; 1594 : 		{	// find range equivalent to _Keyval in mutable tree
; 1595 : 		return (_Eqrange(_Keyval));
; 1596 : 		}
; 1597 : 
; 1598 : 	_Paircc equal_range(const key_type& _Keyval) const
; 1599 : 		{	// find range equivalent to _Keyval in nonmutable tree
; 1600 : 		return (_Eqrange(_Keyval));
; 1601 : 		}
; 1602 : 
; 1603 : 	void swap(_Myt& _Right)
; 1604 : 		{	// exchange contents with _Right
; 1605 : 		if (this == &_Right)
; 1606 : 			;	// same object, do nothing
; 1607 : 		else if (this->_Getal() == _Right._Getal())
; 1608 : 			{	// same allocator, swap control information
; 1609 : 			this->_Swap_all(_Right);
; 1610 : 			this->_Swapcomp(_Right._Getcomp());
; 1611 : 			_Swap_adl(this->_Myhead, _Right._Myhead);
; 1612 : 			_STD swap(this->_Mysize, _Right._Mysize);
; 1613 : 			}
; 1614 : 
; 1615 : 		else if (_Alty::propagate_on_container_swap::value)
; 1616 : 			{	// swap allocators and control information
; 1617 : 			this->_Swap_alloc(_Right);
; 1618 : 			this->_Swapcomp(_Right._Getcomp());
; 1619 : 			_Swap_adl(this->_Myhead, _Right._Myhead);
; 1620 : 			_STD swap(this->_Mysize, _Right._Mysize);
; 1621 : 			}
; 1622 : 
; 1623 : 		else
; 1624 : 			{	// containers are incompatible
; 1625 :  #if _ITERATOR_DEBUG_LEVEL == 2
; 1626 : 			_DEBUG_ERROR("map/set containers incompatible for swap");
; 1627 : 
; 1628 :  #else /* ITERATOR_DEBUG_LEVEL == 2 */
; 1629 : 			_XSTD terminate();
; 1630 :  #endif /* ITERATOR_DEBUG_LEVEL == 2 */
; 1631 : 			}
; 1632 : 		}
; 1633 : 
; 1634 : protected:
; 1635 : 	template<class _Valty>
; 1636 : 		_Nodeptr _Buynode_if_nil(_Nodeptr _Node, _Valty&&)
; 1637 : 		{	// node exists, just return it
; 1638 : 		return (_Node);
; 1639 : 		}
; 1640 : 
; 1641 : 	template<class _Valty>
; 1642 : 		_Nodeptr _Buynode_if_nil(_Nil, _Valty&& _Val)
; 1643 : 		{	// node doesn't exist, make it
; 1644 : 		return (this->_Buynode(_STD forward<_Valty>(_Val)));
; 1645 : 		}
; 1646 : 
; 1647 : 	void _Destroy_if_not_nil(_Nodeptr _Newnode)
; 1648 : 		{	// node exists, destroy it
; 1649 : 		this->_Getal().destroy(
; 1650 : 			_STD addressof(this->_Myval(_Newnode)));
; 1651 : 
; 1652 : 		this->_Getal().deallocate(_Newnode, 1);
; 1653 : 		}
; 1654 : 
; 1655 : 	void _Destroy_if_not_nil(_Nil)
; 1656 : 		{	// node doesn't exist, do nothing
; 1657 : 		}
; 1658 : 
; 1659 : 	template<class _Valty,
; 1660 : 		class _Nodety>
; 1661 : 		iterator _Insert_hint(const_iterator _Where,
; 1662 : 			_Valty&& _Val, _Nodety _Newnode)
; 1663 : 		{	// try to insert node using _Where as a hint
; 1664 : 		const_iterator _Next;
; 1665 : 		bool _Leftish = false;	// assume nearest point is end of sequence
; 1666 : 
; 1667 : 		_TRY_BEGIN
; 1668 : 
; 1669 :  #if _ITERATOR_DEBUG_LEVEL == 2
; 1670 : 		if (_Where._Getcont() != this)
; 1671 : 			_DEBUG_ERROR("map/set insert iterator outside range");
; 1672 :  #endif /* _ITERATOR_DEBUG_LEVEL == 2 */
; 1673 : 
; 1674 : 		if (size() == 0)
; 1675 : 			return (_Insert_at(true, this->_Myhead,
; 1676 : 				_STD forward<_Valty>(_Val), _Newnode));	// empty tree
; 1677 : 		else if (this->_Multi)
; 1678 : 			{	// insert even if duplicate
; 1679 : 			if (_Where == begin())
; 1680 : 				{	// insert at beginning if before first element
; 1681 : 				if (!_DEBUG_LT_PRED(this->_Getcomp(),
; 1682 : 					this->_Key(_Where._Mynode()), this->_Kfn(_Val)))
; 1683 : 					return (_Insert_at(true, _Where._Mynode(),
; 1684 : 						_STD forward<_Valty>(_Val), _Newnode));
; 1685 : 				_Leftish = true;	// nearest point is beginning of sequence
; 1686 : 				}
; 1687 : 			else if (_Where == end())
; 1688 : 				{	// insert at end if after last element
; 1689 : 				if (!_DEBUG_LT_PRED(this->_Getcomp(),
; 1690 : 					this->_Kfn(_Val), this->_Key(_Rmost())))
; 1691 : 					return (_Insert_at(false, _Rmost(),
; 1692 : 						_STD forward<_Valty>(_Val), _Newnode));
; 1693 : 				}
; 1694 : 			else if (!_DEBUG_LT_PRED(this->_Getcomp(),
; 1695 : 				this->_Key(_Where._Mynode()), this->_Kfn(_Val))
; 1696 : 				&& !_DEBUG_LT_PRED(this->_Getcomp(),
; 1697 : 					this->_Kfn(_Val),
; 1698 : 					this->_Key((--(_Next = _Where))._Mynode())))
; 1699 : 				{	// insert before _Where
; 1700 : 				if (this->_Isnil(this->_Right(_Next._Mynode())))
; 1701 : 					return (_Insert_at(false, _Next._Mynode(),
; 1702 : 						_STD forward<_Valty>(_Val), _Newnode));
; 1703 : 				else
; 1704 : 					return (_Insert_at(true, _Where._Mynode(),
; 1705 : 						_STD forward<_Valty>(_Val), _Newnode));
; 1706 : 				}
; 1707 : 			else if (!_DEBUG_LT_PRED(this->_Getcomp(),
; 1708 : 				this->_Kfn(_Val), this->_Key(_Where._Mynode()))
; 1709 : 				&& (++(_Next = _Where) == end()
; 1710 : 					|| !_DEBUG_LT_PRED(this->_Getcomp(),
; 1711 : 						this->_Key(_Next._Mynode()), this->_Kfn(_Val))))
; 1712 : 				{	// insert after _Where
; 1713 : 				if (this->_Isnil(this->_Right(_Where._Mynode())))
; 1714 : 					return (_Insert_at(false, _Where._Mynode(),
; 1715 : 						_STD forward<_Valty>(_Val), _Newnode));
; 1716 : 				else
; 1717 : 					return (_Insert_at(true, _Next._Mynode(),
; 1718 : 						_STD forward<_Valty>(_Val), _Newnode));
; 1719 : 				}
; 1720 : 			else
; 1721 : 				_Leftish = true;	// nearest point is beginning of sequence
; 1722 : 			}
; 1723 : 		else
; 1724 : 			{	// insert only if unique
; 1725 : 			if (_Where == begin())
; 1726 : 				{	// insert at beginning if before first element
; 1727 : 				if (_DEBUG_LT_PRED(this->_Getcomp(),
; 1728 : 					this->_Kfn(_Val), this->_Key(_Where._Mynode())))
; 1729 : 					return (_Insert_at(true, _Where._Mynode(),
; 1730 : 						_STD forward<_Valty>(_Val), _Newnode));
; 1731 : 				}
; 1732 : 			else if (_Where == end())
; 1733 : 				{	// insert at end if after last element
; 1734 : 				if (_DEBUG_LT_PRED(this->_Getcomp(),
; 1735 : 					this->_Key(_Rmost()), this->_Kfn(_Val)))
; 1736 : 					return (_Insert_at(false, _Rmost(),
; 1737 : 						_STD forward<_Valty>(_Val), _Newnode));
; 1738 : 				}
; 1739 : 			else if (_DEBUG_LT_PRED(this->_Getcomp(),
; 1740 : 				this->_Kfn(_Val), this->_Key(_Where._Mynode()))
; 1741 : 				&& _DEBUG_LT_PRED(this->_Getcomp(),
; 1742 : 					this->_Key((--(_Next = _Where))._Mynode()),
; 1743 : 					this->_Kfn(_Val)))
; 1744 : 				{	// insert before _Where
; 1745 : 				if (this->_Isnil(this->_Right(_Next._Mynode())))
; 1746 : 					return (_Insert_at(false, _Next._Mynode(),
; 1747 : 						_STD forward<_Valty>(_Val), _Newnode));
; 1748 : 				else
; 1749 : 					return (_Insert_at(true, _Where._Mynode(),
; 1750 : 						_STD forward<_Valty>(_Val), _Newnode));
; 1751 : 				}
; 1752 : 			else if (_DEBUG_LT_PRED(this->_Getcomp(),
; 1753 : 				this->_Key(_Where._Mynode()), this->_Kfn(_Val))
; 1754 : 				&& (++(_Next = _Where) == end()
; 1755 : 					|| _DEBUG_LT_PRED(this->_Getcomp(),
; 1756 : 						this->_Kfn(_Val), this->_Key(_Next._Mynode()))))
; 1757 : 				{	// insert after _Where
; 1758 : 				if (this->_Isnil(this->_Right(_Where._Mynode())))
; 1759 : 					return (_Insert_at(false, _Where._Mynode(),
; 1760 : 						_STD forward<_Valty>(_Val), _Newnode));
; 1761 : 				else
; 1762 : 					return (_Insert_at(true, _Next._Mynode(),
; 1763 : 						_STD forward<_Valty>(_Val), _Newnode));
; 1764 : 				}
; 1765 : 			}
; 1766 : 		_CATCH_ALL
; 1767 : 		_Destroy_if_not_nil(_Newnode);
; 1768 : 		_RERAISE;
; 1769 : 		_CATCH_END
; 1770 : 
; 1771 : 		return (_Insert_nohint(_Leftish,
; 1772 : 			_STD forward<_Valty>(_Val), _Newnode).first);
; 1773 : 		}
; 1774 : 
; 1775 : 	template<class _Valty,
; 1776 : 		class _Nodety>
; 1777 : 		_Pairib _Insert_nohint(bool _Leftish,
; 1778 : 			_Valty&& _Val, _Nodety _Newnode)
; 1779 : 		{	// try to insert node, on left if _Leftish
; 1780 : 		_TRY_BEGIN
; 1781 : 		_Nodeptr _Trynode = _Root();
; 1782 : 		_Nodeptr _Wherenode = this->_Myhead;
; 1783 : 		bool _Addleft = true;	// add to left of head if tree empty
; 1784 : 
; 1785 : 		while (!this->_Isnil(_Trynode))
; 1786 : 			{	// look for leaf to insert before (_Addleft) or after
; 1787 : 			_Wherenode = _Trynode;
; 1788 : 			if (_Leftish)
; 1789 : 				_Addleft = !_DEBUG_LT_PRED(this->_Getcomp(),
; 1790 : 					this->_Key(_Trynode),
; 1791 : 					this->_Kfn(_Val));	// favor left end
; 1792 : 			else
; 1793 : 				_Addleft = _DEBUG_LT_PRED(this->_Getcomp(),
; 1794 : 					this->_Kfn(_Val),
; 1795 : 					this->_Key(_Trynode));	// favor right end
; 1796 : 			_Trynode = _Addleft ? this->_Left(_Trynode)
; 1797 : 				: this->_Right(_Trynode);
; 1798 : 			}
; 1799 : 
; 1800 : 		if (this->_Multi)
; 1801 : 			return (_Pairib(_Insert_at(_Addleft, _Wherenode,
; 1802 : 				_STD forward<_Valty>(_Val), _Newnode), true));
; 1803 : 		else
; 1804 : 			{	// insert only if unique
; 1805 : 			iterator _Where = iterator(_Wherenode, this);
; 1806 : 			if (!_Addleft)
; 1807 : 				;	// need to test if insert after is okay
; 1808 : 			else if (_Where == begin())
; 1809 : 				return (_Pairib(_Insert_at(true, _Wherenode,
; 1810 : 					_STD forward<_Valty>(_Val), _Newnode), true));
; 1811 : 			else
; 1812 : 				--_Where;	// need to test if insert before is okay
; 1813 : 
; 1814 : 			if (_DEBUG_LT_PRED(this->_Getcomp(),
; 1815 : 				this->_Key(_Where._Mynode()),
; 1816 : 				this->_Kfn(_Val)))
; 1817 : 				return (_Pairib(_Insert_at(_Addleft, _Wherenode,
; 1818 : 					_STD forward<_Valty>(_Val), _Newnode), true));
; 1819 : 			else
; 1820 : 				{	// duplicate, don't insert
; 1821 : 				_Destroy_if_not_nil(_Newnode);
; 1822 : 				return (_Pairib(_Where, false));
; 1823 : 				}
; 1824 : 			}
; 1825 : 		_CATCH_ALL
; 1826 : 		_Destroy_if_not_nil(_Newnode);
; 1827 : 		_RERAISE;
; 1828 : 		_CATCH_END
; 1829 : 		}
; 1830 : 
; 1831 : 	template<class _Valty,
; 1832 : 		class _Nodety>
; 1833 : 		iterator _Insert_at(bool _Addleft, _Nodeptr _Wherenode,
; 1834 : 		_Valty&& _Val, _Nodety _Node)
; 1835 : 		{	// add node with value next to _Wherenode, to left if _Addleft
; 1836 : 		if (max_size() - 1 <= this->_Mysize)
; 1837 : 			{	// tree would get too big, fail
; 1838 : 			_Destroy_if_not_nil(_Node);
; 1839 : 			_Xlength_error("map/set<T> too long");
; 1840 : 			}
; 1841 : 		_Nodeptr _Newnode = _Buynode_if_nil(_Node,
; 1842 : 			_STD forward<_Valty>(_Val));
; 1843 : 
; 1844 : 		++this->_Mysize;
; 1845 : 		_Newnode->_Parent = _Wherenode;
; 1846 : 
; 1847 : 		if (_Wherenode == this->_Myhead)
; 1848 : 			{	// first node in tree, just set head values
; 1849 : 			_Root() = _Newnode;
; 1850 : 			_Lmost() = _Newnode;
; 1851 : 			_Rmost() = _Newnode;
; 1852 : 			}
; 1853 : 		else if (_Addleft)
; 1854 : 			{	// add to left of _Wherenode
; 1855 : 			this->_Left(_Wherenode) = _Newnode;
; 1856 : 			if (_Wherenode == _Lmost())
; 1857 : 				_Lmost() = _Newnode;
; 1858 : 			}
; 1859 : 		else
; 1860 : 			{	// add to right of _Wherenode
; 1861 : 			this->_Right(_Wherenode) = _Newnode;
; 1862 : 			if (_Wherenode == _Rmost())
; 1863 : 				_Rmost() = _Newnode;
; 1864 : 			}
; 1865 : 
; 1866 : 		for (_Nodeptr _Pnode = _Newnode;
; 1867 : 			this->_Color(this->_Parent(_Pnode)) == this->_Red; )
; 1868 : 			if (this->_Parent(_Pnode)
; 1869 : 				== this->_Left(this->_Parent(this->_Parent(_Pnode))))
; 1870 : 				{	// fixup red-red in left subtree
; 1871 : 				_Wherenode =
; 1872 : 					this->_Right(this->_Parent(this->_Parent(_Pnode)));
; 1873 : 				if (this->_Color(_Wherenode) == this->_Red)
; 1874 : 					{	// parent has two red children, blacken both
; 1875 : 					this->_Color(this->_Parent(_Pnode)) = this->_Black;
; 1876 : 					this->_Color(_Wherenode) = this->_Black;
; 1877 : 					this->_Color(this->_Parent(this->_Parent(_Pnode)))
; 1878 : 						= this->_Red;
; 1879 : 					_Pnode = this->_Parent(this->_Parent(_Pnode));
; 1880 : 					}
; 1881 : 				else
; 1882 : 					{	// parent has red and black children
; 1883 : 					if (_Pnode == this->_Right(this->_Parent(_Pnode)))
; 1884 : 						{	// rotate right child to left
; 1885 : 						_Pnode = this->_Parent(_Pnode);
; 1886 : 						_Lrotate(_Pnode);
; 1887 : 						}
; 1888 : 					this->_Color(this->_Parent(_Pnode)) =
; 1889 : 						this->_Black;	// propagate red up
; 1890 : 					this->_Color(this->_Parent(this->_Parent(_Pnode))) =
; 1891 : 						this->_Red;
; 1892 : 					_Rrotate(this->_Parent(this->_Parent(_Pnode)));
; 1893 : 					}
; 1894 : 				}
; 1895 : 			else
; 1896 : 				{	// fixup red-red in right subtree
; 1897 : 				_Wherenode =
; 1898 : 					this->_Left(this->_Parent(this->_Parent(_Pnode)));
; 1899 : 				if (this->_Color(_Wherenode) == this->_Red)
; 1900 : 					{	// parent has two red children, blacken both
; 1901 : 					this->_Color(this->_Parent(_Pnode)) = this->_Black;
; 1902 : 					this->_Color(_Wherenode) = this->_Black;
; 1903 : 					this->_Color(this->_Parent(this->_Parent(_Pnode))) =
; 1904 : 						this->_Red;
; 1905 : 					_Pnode = this->_Parent(this->_Parent(_Pnode));
; 1906 : 					}
; 1907 : 				else
; 1908 : 					{	// parent has red and black children
; 1909 : 					if (_Pnode == this->_Left(this->_Parent(_Pnode)))
; 1910 : 						{	// rotate left child to right
; 1911 : 						_Pnode = this->_Parent(_Pnode);
; 1912 : 						_Rrotate(_Pnode);
; 1913 : 						}
; 1914 : 					this->_Color(this->_Parent(_Pnode)) =
; 1915 : 						this->_Black;	// propagate red up
; 1916 : 					this->_Color(this->_Parent(this->_Parent(_Pnode))) =
; 1917 : 						this->_Red;
; 1918 : 					_Lrotate(this->_Parent(this->_Parent(_Pnode)));
; 1919 : 					}
; 1920 : 				}
; 1921 : 
; 1922 : 		this->_Color(_Root()) = this->_Black;	// root is always black
; 1923 : 		return (iterator(_Newnode, this));
; 1924 : 		}
; 1925 : 
; 1926 : 	template<class _Moveit>
; 1927 : 		void _Copy(const _Myt& _Right,
; 1928 : 			_Moveit _Movefl)
; 1929 : 		{	// copy or move entire tree from _Right
; 1930 : 		_Root() = _Copy_nodes(_Right._Root(), this->_Myhead, _Movefl);
; 1931 : 		this->_Mysize = _Right.size();
; 1932 : 		if (!this->_Isnil(_Root()))
; 1933 : 			{	// nonempty tree, look for new smallest and largest
; 1934 : 			_Lmost() = this->_Min(_Root());
; 1935 : 			_Rmost() = this->_Max(_Root());
; 1936 : 			}
; 1937 : 		else
; 1938 : 			{	// empty tree, just tidy head pointers
; 1939 : 			_Lmost() = this->_Myhead;
; 1940 : 			_Rmost() = this->_Myhead;
; 1941 : 			}
; 1942 : 		}
; 1943 : 
; 1944 : 	template<class _Want_to_move,
; 1945 : 		class _Can_move,
; 1946 : 		class _Is_set,
; 1947 : 		class _Dummy>
; 1948 : 		_Nodeptr _Copy_or_move(_Nodeptr _Rootnode, _Want_to_move,
; 1949 : 			_Can_move, _Is_set, _Dummy)
; 1950 : 		{	// copy to new node -- nonmovable
; 1951 : 		return (this->_Buynode(this->_Myval(_Rootnode)));
; 1952 : 		}
; 1953 : 
; 1954 : 	template<class _Dummy>
; 1955 : 		_Nodeptr _Copy_or_move(_Nodeptr _Rootnode, true_type,
; 1956 : 			true_type, true_type, _Dummy)
; 1957 : 		{	// move to new node -- movable, set
; 1958 : 		return (this->_Buynode(
; 1959 : 			_STD forward<value_type>(this->_Myval(_Rootnode))));
; 1960 : 		}
; 1961 : 
; 1962 : 	template<class _Dummy>
; 1963 : 		_Nodeptr _Copy_or_move(_Nodeptr _Rootnode, true_type,
; 1964 : 			true_type, false_type, _Dummy)
; 1965 : 		{	// move to new node -- movable, map
; 1966 : 		return (this->_Buynode(
; 1967 : 			_STD forward<key_type>(const_cast<key_type&>(
; 1968 : 				this->_Myval(_Rootnode).first)),
; 1969 : 			_STD forward<typename value_type::second_type>(this->_Myval(
; 1970 : 				_Rootnode).second)));
; 1971 : 		}
; 1972 : 
; 1973 : 	template<class _Moveit>
; 1974 : 		_Nodeptr _Copy_nodes(_Nodeptr _Rootnode, _Nodeptr _Wherenode,
; 1975 : 			_Moveit _Movefl)
; 1976 : 		{	// copy entire subtree, recursively
; 1977 : 		_Nodeptr _Newroot = this->_Myhead;	// point at nil node
; 1978 : 
; 1979 : 		if (!this->_Isnil(_Rootnode))
; 1980 : 			{	// copy or move a node, then any subtrees
; 1981 : 			_Nodeptr _Pnode = _Copy_or_move(_Rootnode, _Movefl,
; 1982 : 				typename is_move_constructible<value_type>::type(),
; 1983 : 				typename is_same<key_type, value_type>::type(), 0);
; 1984 : 			_Pnode->_Parent = _Wherenode;
; 1985 : 			_Pnode->_Color = this->_Color(_Rootnode);
; 1986 : 			if (this->_Isnil(_Newroot))
; 1987 : 				_Newroot = _Pnode;	// memorize new root
; 1988 : 
; 1989 : 			_TRY_BEGIN
; 1990 : 			this->_Left(_Pnode) =
; 1991 : 				_Copy_nodes(this->_Left(_Rootnode), _Pnode, _Movefl);
; 1992 : 			this->_Right(_Pnode) =
; 1993 : 				_Copy_nodes(this->_Right(_Rootnode), _Pnode, _Movefl);
; 1994 : 			_CATCH_ALL
; 1995 : 			_Erase(_Newroot);	// subtree copy failed, bail out
; 1996 : 			_RERAISE;
; 1997 : 			_CATCH_END
; 1998 : 			}
; 1999 : 
; 2000 : 		return (_Newroot);	// return newly constructed tree
; 2001 : 		}
; 2002 : 
; 2003 : 	_Paircc _Eqrange(const key_type& _Keyval) const
; 2004 : 		{	// find leftmost node not less than _Keyval
; 2005 : 		_Nodeptr _Pnode = _Root();
; 2006 : 		_Nodeptr _Lonode = this->_Myhead;	// end() if search fails
; 2007 : 		_Nodeptr _Hinode = this->_Myhead;	// end() if search fails
; 2008 : 
; 2009 : 		while (!this->_Isnil(_Pnode))
; 2010 : 			if (_DEBUG_LT_PRED(this->_Getcomp(), this->_Key(_Pnode), _Keyval))
; 2011 : 				_Pnode = this->_Right(_Pnode);	// descend right subtree
; 2012 : 			else
; 2013 : 				{	// _Pnode not less than _Keyval, remember it
; 2014 : 				if (this->_Isnil(_Hinode)
; 2015 : 						&& _DEBUG_LT_PRED(this->_Getcomp(), _Keyval,
; 2016 : 						this->_Key(_Pnode)))
; 2017 : 					_Hinode = _Pnode;	// _Pnode greater, remember it
; 2018 : 				_Lonode = _Pnode;
; 2019 : 				_Pnode = this->_Left(_Pnode);	// descend left subtree
; 2020 : 				}
; 2021 : 
; 2022 : 		_Pnode = this->_Isnil(_Hinode) ? _Root()
; 2023 : 			: this->_Left(_Hinode);	// continue scan for upper bound
; 2024 : 		while (!this->_Isnil(_Pnode))
; 2025 : 			if (_DEBUG_LT_PRED(this->_Getcomp(), _Keyval, this->_Key(_Pnode)))
; 2026 : 				{	// _Pnode greater than _Keyval, remember it
; 2027 : 				_Hinode = _Pnode;
; 2028 : 				_Pnode = this->_Left(_Pnode);	// descend left subtree
; 2029 : 				}
; 2030 : 			else
; 2031 : 				_Pnode = this->_Right(_Pnode);	// descend right subtree
; 2032 : 
; 2033 : 		const_iterator _First = const_iterator(_Lonode, this);
; 2034 : 		const_iterator _Last = const_iterator(_Hinode, this);
; 2035 : 		return (_Paircc(_First, _Last));
; 2036 : 		}
; 2037 : 
; 2038 : 	_Pairii _Eqrange(const key_type& _Keyval)
; 2039 : 		{	// find leftmost node not less than _Keyval
; 2040 : 		_Nodeptr _Pnode = _Root();
; 2041 : 		_Nodeptr _Lonode = this->_Myhead;	// end() if search fails
; 2042 : 		_Nodeptr _Hinode = this->_Myhead;	// end() if search fails
; 2043 : 
; 2044 : 		while (!this->_Isnil(_Pnode))
; 2045 : 			if (_DEBUG_LT_PRED(this->_Getcomp(), this->_Key(_Pnode), _Keyval))
; 2046 : 				_Pnode = this->_Right(_Pnode);	// descend right subtree
; 2047 : 			else
; 2048 : 				{	// _Pnode not less than _Keyval, remember it
; 2049 : 				if (this->_Isnil(_Hinode)
; 2050 : 						&& _DEBUG_LT_PRED(this->_Getcomp(), _Keyval,
; 2051 : 						 this->_Key(_Pnode)))
; 2052 : 					_Hinode = _Pnode;	// _Pnode greater, remember it
; 2053 : 				_Lonode = _Pnode;
; 2054 : 				_Pnode = this->_Left(_Pnode);	// descend left subtree
; 2055 : 				}
; 2056 : 
; 2057 : 		_Pnode = this->_Isnil(_Hinode) ? _Root()
; 2058 : 			: this->_Left(_Hinode);	// continue scan for upper bound
; 2059 : 		while (!this->_Isnil(_Pnode))
; 2060 : 			if (_DEBUG_LT_PRED(this->_Getcomp(), _Keyval, this->_Key(_Pnode)))
; 2061 : 				{	// _Pnode greater than _Keyval, remember it
; 2062 : 				_Hinode = _Pnode;
; 2063 : 				_Pnode = this->_Left(_Pnode);	// descend left subtree
; 2064 : 				}
; 2065 : 			else
; 2066 : 				_Pnode = this->_Right(_Pnode);	// descend right subtree
; 2067 : 
; 2068 : 		iterator _First = iterator(_Lonode, this);
; 2069 : 		iterator _Last = iterator(_Hinode, this);
; 2070 : 		return (_Pairii(_First, _Last));
; 2071 : 		}
; 2072 : 
; 2073 : 	void _Erase(_Nodeptr _Rootnode)
; 2074 : 		{	// free entire subtree, recursively
; 2075 : 		for (_Nodeptr _Pnode = _Rootnode;
; 2076 : 			!this->_Isnil(_Pnode); _Rootnode = _Pnode)
; 2077 : 			{	// free subtrees, then node
; 2078 : 			_Erase(this->_Right(_Pnode));
; 2079 : 			_Pnode = this->_Left(_Pnode);
; 2080 : 			this->_Getal().destroy(
; 2081 : 				_STD addressof(this->_Myval(_Rootnode)));
; 2082 : 
; 2083 : 			this->_Getal().deallocate(_Rootnode, 1);
; 2084 : 			}
; 2085 : 		}
; 2086 : 
; 2087 : 	_Nodeptr _Lbound(const key_type& _Keyval) const
; 2088 : 		{	// find leftmost node not less than _Keyval
; 2089 : 		_Nodeptr _Pnode = _Root();
; 2090 : 		_Nodeptr _Wherenode = this->_Myhead;	// end() if search fails
; 2091 : 
; 2092 : 		while (!this->_Isnil(_Pnode))
; 2093 : 			if (_DEBUG_LT_PRED(this->_Getcomp(), this->_Key(_Pnode), _Keyval))
; 2094 : 				_Pnode = this->_Right(_Pnode);	// descend right subtree
; 2095 : 			else
; 2096 : 				{	// _Pnode not less than _Keyval, remember it
; 2097 : 				_Wherenode = _Pnode;
; 2098 : 				_Pnode = this->_Left(_Pnode);	// descend left subtree
; 2099 : 				}
; 2100 : 
; 2101 : 		return (_Wherenode);	// return best remembered candidate
; 2102 : 		}
; 2103 : 
; 2104 : 	_Nodeptr _Lbound(const key_type& _Keyval)
; 2105 : 		{	// find leftmost node not less than _Keyval
; 2106 : 		_Nodeptr _Pnode = _Root();
; 2107 : 		_Nodeptr _Wherenode = this->_Myhead;	// end() if search fails

	mov	r9, r11
	mov	rax, QWORD PTR [r11+8]

; 2108 : 
; 2109 : 		while (!this->_Isnil(_Pnode))

	cmp	BYTE PTR [rax+25], 0
	jne	SHORT $LN9@find
; File c:\users\nummer\documents\github\olr-3.0\src\xray\xrcore\xrstring.h

; 19   : 	IC bool		operator ()	(const str_value* A, const str_value* B) const	{ return A->dwCRC<B->dwCRC;	};

	mov	rcx, QWORD PTR [r8]
	mov	r10d, DWORD PTR [rcx+8]
	npad	9
$LL10@find:
	mov	rcx, QWORD PTR [rax+32]
	cmp	DWORD PTR [rcx+8], r10d
; File c:\program files (x86)\microsoft visual studio 12.0\vc\include\xtree

; 2110 : 			if (_DEBUG_LT_PRED(this->_Getcomp(), this->_Key(_Pnode), _Keyval))

	jae	SHORT $LN8@find

; 2111 : 				_Pnode = this->_Right(_Pnode);	// descend right subtree

	mov	rax, QWORD PTR [rax+16]

; 2112 : 			else

	jmp	SHORT $LN7@find
$LN8@find:

; 2113 : 				{	// _Pnode not less than _Keyval, remember it
; 2114 : 				_Wherenode = _Pnode;

	mov	r9, rax

; 2115 : 				_Pnode = this->_Left(_Pnode);	// descend left subtree

	mov	rax, QWORD PTR [rax]
$LN7@find:

; 2108 : 
; 2109 : 		while (!this->_Isnil(_Pnode))

	cmp	BYTE PTR [rax+25], 0
	je	SHORT $LL10@find
$LN9@find:

; 45   : 		this->_Adopt(_Plist);
; 46   : 		}
; 47   : 
; 48   : 	reference operator*() const
; 49   : 		{	// return designated value
; 50   : 		return (_Mytree::_Myval(_Ptr));
; 51   : 		}
; 52   : 
; 53   : 	pointer operator->() const
; 54   : 		{	// return pointer to class object
; 55   : 		return (_STD pointer_traits<pointer>::pointer_to(**this));
; 56   : 		}
; 57   : 
; 58   : 	_Myiter& operator++()
; 59   : 		{	// preincrement
; 60   : 		if (_Mytree::_Isnil(_Ptr))
; 61   : 			;	// end() shouldn't be incremented, don't move
; 62   : 		else if (!_Mytree::_Isnil(_Mytree::_Right(_Ptr)))
; 63   : 			_Ptr = _Mytree::_Min(
; 64   : 				_Mytree::_Right(_Ptr));	// ==> smallest of right subtree
; 65   : 		else
; 66   : 			{	// climb looking for right subtree
; 67   : 			_Nodeptr _Pnode;
; 68   : 			while (!_Mytree::_Isnil(_Pnode = _Mytree::_Parent(_Ptr))
; 69   : 				&& _Ptr == _Mytree::_Right(_Pnode))
; 70   : 				_Ptr = _Pnode;	// ==> parent while right subtree
; 71   : 			_Ptr = _Pnode;	// ==> parent (head if end())
; 72   : 			}
; 73   : 		return (*this);
; 74   : 		}
; 75   : 
; 76   : 	_Myiter operator++(int)
; 77   : 		{	// postincrement
; 78   : 		_Myiter _Tmp = *this;
; 79   : 		++*this;
; 80   : 		return (_Tmp);
; 81   : 		}
; 82   : 
; 83   : 	_Myiter& operator--()
; 84   : 		{	// predecrement
; 85   : 		if (_Mytree::_Isnil(_Ptr))
; 86   : 			_Ptr = _Mytree::_Right(_Ptr);	// end() ==> rightmost
; 87   : 		else if (!_Mytree::_Isnil(_Mytree::_Left(_Ptr)))
; 88   : 			_Ptr = _Mytree::_Max(
; 89   : 				_Mytree::_Left(_Ptr));	// ==> largest of left subtree
; 90   : 		else
; 91   : 			{	// climb looking for left subtree
; 92   : 			_Nodeptr _Pnode;
; 93   : 			while (!_Mytree::_Isnil(_Pnode = _Mytree::_Parent(_Ptr))
; 94   : 				&& _Ptr == _Mytree::_Left(_Pnode))
; 95   : 				_Ptr = _Pnode;	// ==> parent while left subtree
; 96   : 			if (_Mytree::_Isnil(_Ptr))
; 97   : 				;	// begin() shouldn't be decremented, don't move
; 98   : 			else
; 99   : 				_Ptr = _Pnode;	// ==> parent if not head
; 100  : 			}
; 101  : 		return (*this);
; 102  : 		}
; 103  : 
; 104  : 	_Myiter operator--(int)
; 105  : 		{	// postdecrement
; 106  : 		_Myiter _Tmp = *this;
; 107  : 		--*this;
; 108  : 		return (_Tmp);
; 109  : 		}
; 110  : 
; 111  : 	bool operator==(const _Myiter& _Right) const
; 112  : 		{	// test for iterator equality
; 113  : 		return (_Ptr == _Right._Ptr);
; 114  : 		}
; 115  : 
; 116  : 	bool operator!=(const _Myiter& _Right) const
; 117  : 		{	// test for iterator inequality
; 118  : 		return (!(*this == _Right));
; 119  : 		}
; 120  : 
; 121  : 	_Nodeptr _Mynode() const
; 122  : 		{	// return node pointer
; 123  : 		return (_Ptr);
; 124  : 		}
; 125  : 
; 126  : 	_Nodeptr _Ptr;	// pointer to node
; 127  : 	};
; 128  : 
; 129  : 	// TEMPLATE CLASS _Tree_unchecked_iterator
; 130  : template<class _Mytree>
; 131  : 	class _Tree_unchecked_iterator
; 132  : 		: public _Tree_unchecked_const_iterator<_Mytree>
; 133  : 	{	// unchecked iterator for mutable tree
; 134  : public:
; 135  : 	typedef _Tree_unchecked_iterator<_Mytree> _Myiter;
; 136  : 	typedef _Tree_unchecked_const_iterator<_Mytree> _Mybase;
; 137  : 	typedef bidirectional_iterator_tag iterator_category;
; 138  : 
; 139  : 	typedef typename _Mytree::_Nodeptr _Nodeptr;
; 140  : 	typedef typename _Mytree::value_type value_type;
; 141  : 	typedef typename _Mytree::difference_type difference_type;
; 142  : 	typedef typename _Mytree::pointer pointer;
; 143  : 	typedef typename _Mytree::reference reference;
; 144  : 
; 145  : 	_Tree_unchecked_iterator()
; 146  : 		{	// construct with null node
; 147  : 		}
; 148  : 
; 149  : 	_Tree_unchecked_iterator(_Nodeptr _Pnode, const _Mytree *_Plist)
; 150  : 		: _Mybase(_Pnode, _Plist)
; 151  : 		{	// construct with node pointer _Pnode
; 152  : 		}
; 153  : 
; 154  : 	reference operator*() const
; 155  : 		{	// return designated value
; 156  : 		return ((reference)**(_Mybase *)this);
; 157  : 		}
; 158  : 
; 159  : 	pointer operator->() const
; 160  : 		{	// return pointer to class object
; 161  : 		return (_STD pointer_traits<pointer>::pointer_to(**this));
; 162  : 		}
; 163  : 
; 164  : 	_Myiter& operator++()
; 165  : 		{	// preincrement
; 166  : 		++(*(_Mybase *)this);
; 167  : 		return (*this);
; 168  : 		}
; 169  : 
; 170  : 	_Myiter operator++(int)
; 171  : 		{	// postincrement
; 172  : 		_Myiter _Tmp = *this;
; 173  : 		++*this;
; 174  : 		return (_Tmp);
; 175  : 		}
; 176  : 
; 177  : 	_Myiter& operator--()
; 178  : 		{	// predecrement
; 179  : 		--(*(_Mybase *)this);
; 180  : 		return (*this);
; 181  : 		}
; 182  : 
; 183  : 	_Myiter operator--(int)
; 184  : 		{	// postdecrement
; 185  : 		_Myiter _Tmp = *this;
; 186  : 		--*this;
; 187  : 		return (_Tmp);
; 188  : 		}
; 189  : 	};
; 190  : 
; 191  : 	// TEMPLATE CLASS _Tree_const_iterator
; 192  : template<class _Mytree>
; 193  : 	class _Tree_const_iterator
; 194  : 		: public _Tree_unchecked_const_iterator<_Mytree, _Iterator_base>
; 195  : 	{	// iterator for nonmutable tree
; 196  : public:
; 197  : 	typedef _Tree_const_iterator<_Mytree> _Myiter;
; 198  : 	typedef _Tree_unchecked_const_iterator<_Mytree, _Iterator_base> _Mybase;
; 199  : 	typedef bidirectional_iterator_tag iterator_category;
; 200  : 
; 201  : 	typedef typename _Mytree::_Nodeptr _Nodeptr;
; 202  : 	typedef typename _Mytree::value_type value_type;
; 203  : 	typedef typename _Mytree::difference_type difference_type;
; 204  : 	typedef typename _Mytree::const_pointer pointer;
; 205  : 	typedef typename _Mytree::const_reference reference;
; 206  : 
; 207  : 	_Tree_const_iterator()
; 208  : 		: _Mybase()
; 209  : 		{	// construct with null node pointer
; 210  : 		}
; 211  : 
; 212  : 	_Tree_const_iterator(_Nodeptr _Pnode, const _Mytree *_Plist)
; 213  : 		: _Mybase(_Pnode, _Plist)
; 214  : 		{	// construct with node pointer _Pnode
; 215  : 		}
; 216  : 
; 217  : 	typedef _Tree_unchecked_const_iterator<_Mytree> _Unchecked_type;
; 218  : 
; 219  : 	_Myiter& _Rechecked(_Unchecked_type _Right)
; 220  : 		{	// reset from unchecked iterator
; 221  : 		this->_Ptr = _Right._Ptr;
; 222  : 		return (*this);
; 223  : 		}
; 224  : 
; 225  : 	_Unchecked_type _Unchecked() const
; 226  : 		{	// make an unchecked iterator
; 227  : 		return (_Unchecked_type(this->_Ptr, (_Mytree *)this->_Getcont()));
; 228  : 		}
; 229  : 
; 230  : 	reference operator*() const
; 231  : 		{	// return designated value
; 232  :  #if _ITERATOR_DEBUG_LEVEL == 2
; 233  : 		if (this->_Getcont() == 0
; 234  : 			|| this->_Ptr == 0
; 235  : 			|| this->_Ptr == ((_Mytree *)this->_Getcont())->_Myhead)
; 236  : 			{	// report error
; 237  : 			_DEBUG_ERROR("map/set iterator not dereferencable");
; 238  : 			_SCL_SECURE_OUT_OF_RANGE;
; 239  : 			}
; 240  : 
; 241  :  #elif _ITERATOR_DEBUG_LEVEL == 1
; 242  : 		_SCL_SECURE_VALIDATE(this->_Getcont() != 0 && this->_Ptr != 0);
; 243  : 		_SCL_SECURE_VALIDATE_RANGE(this->_Ptr !=
; 244  : 			((_Mytree *)this->_Getcont())->_Myhead);
; 245  :  #endif /* _ITERATOR_DEBUG_LEVEL */
; 246  : 
; 247  : 		return (_Mytree::_Myval(this->_Ptr));
; 248  : 		}
; 249  : 
; 250  : 	pointer operator->() const
; 251  : 		{	// return pointer to class object
; 252  : 		return (_STD pointer_traits<pointer>::pointer_to(**this));
; 253  : 		}
; 254  : 
; 255  : 	_Myiter& operator++()
; 256  : 		{	// preincrement
; 257  :  #if _ITERATOR_DEBUG_LEVEL == 2
; 258  : 		if (this->_Getcont() == 0
; 259  : 			|| this->_Ptr == 0
; 260  : 			|| _Mytree::_Isnil(this->_Ptr))
; 261  : 			{	// report error
; 262  : 			_DEBUG_ERROR("map/set iterator not incrementable");
; 263  : 			_SCL_SECURE_OUT_OF_RANGE;
; 264  : 			}
; 265  : 
; 266  :  #elif _ITERATOR_DEBUG_LEVEL == 1
; 267  : 		_SCL_SECURE_VALIDATE(this->_Getcont() != 0 && this->_Ptr != 0);
; 268  : 		_SCL_SECURE_VALIDATE_RANGE(!_Mytree::_Isnil(this->_Ptr));
; 269  :  #endif /* _ITERATOR_DEBUG_LEVEL */
; 270  : 
; 271  : 		++(*(_Mybase *)this);
; 272  : 		return (*this);
; 273  : 		}
; 274  : 
; 275  : 	_Myiter operator++(int)
; 276  : 		{	// postincrement
; 277  : 		_Myiter _Tmp = *this;
; 278  : 		++*this;
; 279  : 		return (_Tmp);
; 280  : 		}
; 281  : 
; 282  : 	_Myiter& operator--()
; 283  : 		{	// predecrement
; 284  :  #if _ITERATOR_DEBUG_LEVEL == 2
; 285  : 		if (this->_Getcont() == 0
; 286  : 			|| this->_Ptr == 0)
; 287  : 			{	// report error
; 288  : 			_DEBUG_ERROR("map/set iterator not decrementable");
; 289  : 			_SCL_SECURE_OUT_OF_RANGE;
; 290  : 			}
; 291  : 
; 292  : 		_Nodeptr _Ptrsav = this->_Ptr;
; 293  : 		--(*(_Mybase *)this);
; 294  : 		if (_Ptrsav == this->_Ptr)
; 295  : 			{	// report error
; 296  : 			_DEBUG_ERROR("map/set iterator not decrementable");
; 297  : 			_SCL_SECURE_OUT_OF_RANGE;
; 298  : 			}
; 299  : 
; 300  :  #elif _ITERATOR_DEBUG_LEVEL == 1
; 301  : 		_SCL_SECURE_VALIDATE(this->_Getcont() != 0 && this->_Ptr != 0);
; 302  : 
; 303  : 		_Nodeptr _Ptrsav = this->_Ptr;
; 304  : 		--(*(_Mybase *)this);
; 305  : 		_SCL_SECURE_VALIDATE(_Ptrsav != this->_Ptr);
; 306  : 
; 307  :  #else /* _ITERATOR_DEBUG_LEVEL == 0 */
; 308  : 		--(*(_Mybase *)this);
; 309  :  #endif /* _ITERATOR_DEBUG_LEVEL */
; 310  : 
; 311  : 		return (*this);
; 312  : 		}
; 313  : 
; 314  : 	_Myiter operator--(int)
; 315  : 		{	// postdecrement
; 316  : 		_Myiter _Tmp = *this;
; 317  : 		--*this;
; 318  : 		return (_Tmp);
; 319  : 		}
; 320  : 
; 321  : 	bool operator==(const _Myiter& _Right) const
; 322  : 		{	// test for iterator equality
; 323  :  #if _ITERATOR_DEBUG_LEVEL == 2
; 324  : 		if (this->_Getcont() == 0
; 325  : 			|| this->_Getcont() != _Right._Getcont())
; 326  : 			{	// report error
; 327  : 			_DEBUG_ERROR("map/set iterators incompatible");
; 328  : 			_SCL_SECURE_INVALID_ARGUMENT;
; 329  : 			}
; 330  : 
; 331  :  #elif _ITERATOR_DEBUG_LEVEL == 1
; 332  : 		_SCL_SECURE_VALIDATE(this->_Getcont() != 0
; 333  : 			&& this->_Getcont() == _Right._Getcont());
; 334  :  #endif /* _ITERATOR_DEBUG_LEVEL */
; 335  : 
; 336  : 		return (this->_Ptr == _Right._Ptr);

	cmp	r9, r11

; 1553 : 					? end() : _Where);

	je	SHORT $LN3@find
; File c:\users\nummer\documents\github\olr-3.0\src\xray\xrcore\xrstring.h

; 19   : 	IC bool		operator ()	(const str_value* A, const str_value* B) const	{ return A->dwCRC<B->dwCRC;	};

	mov	rax, QWORD PTR [r9+32]
	mov	rcx, QWORD PTR [r8]
; File c:\program files (x86)\microsoft visual studio 12.0\vc\include\xtree

; 1553 : 					? end() : _Where);

	mov	QWORD PTR $T1[rsp], r9
; File c:\users\nummer\documents\github\olr-3.0\src\xray\xrcore\xrstring.h

; 19   : 	IC bool		operator ()	(const str_value* A, const str_value* B) const	{ return A->dwCRC<B->dwCRC;	};

	mov	eax, DWORD PTR [rax+8]
	cmp	DWORD PTR [rcx+8], eax
; File c:\program files (x86)\microsoft visual studio 12.0\vc\include\xtree

; 1553 : 					? end() : _Where);

	jae	SHORT $LN76@find
$LN3@find:

; 44   : 		{	// construct with node pointer _Pnode

	mov	QWORD PTR $T2[rsp], r11
$LN76@find:

; 1553 : 					? end() : _Where);

	lea	rax, QWORD PTR $T2[rsp]
	mov	rax, QWORD PTR [rax]
	mov	QWORD PTR [rdx], rax
	mov	rax, rdx

; 1554 : 		}

	ret	0
?find@?$_Tree@V?$_Tset_traits@PEAUstr_value@@Ustr_value_cmp@@V?$xalloc@PEAUstr_value@@@@$00@std@@@std@@QEAA?AV?$_Tree_const_iterator@V?$_Tree_val@U?$_Tree_simple_types@PEAUstr_value@@@std@@@std@@@2@AEBQEAUstr_value@@@Z ENDP ; std::_Tree<std::_Tset_traits<str_value * __ptr64,str_value_cmp,xalloc<str_value * __ptr64>,1> >::find
_TEXT	ENDS
; Function compile flags: /Ogtpy
; File c:\program files (x86)\microsoft visual studio 12.0\vc\include\xtree
;	COMDAT ??D?$_Tree_const_iterator@V?$_Tree_val@U?$_Tree_simple_types@PEAUstr_value@@@std@@@std@@@std@@QEBAAEBQEAUstr_value@@XZ
_TEXT	SEGMENT
this$ = 8
??D?$_Tree_const_iterator@V?$_Tree_val@U?$_Tree_simple_types@PEAUstr_value@@@std@@@std@@@std@@QEBAAEBQEAUstr_value@@XZ PROC ; std::_Tree_const_iterator<std::_Tree_val<std::_Tree_simple_types<str_value * __ptr64> > >::operator*, COMDAT

; 249  : 
; 250  : 	pointer operator->() const
; 251  : 		{	// return pointer to class object
; 252  : 		return (_STD pointer_traits<pointer>::pointer_to(**this));
; 253  : 		}
; 254  : 
; 255  : 	_Myiter& operator++()
; 256  : 		{	// preincrement
; 257  :  #if _ITERATOR_DEBUG_LEVEL == 2
; 258  : 		if (this->_Getcont() == 0
; 259  : 			|| this->_Ptr == 0
; 260  : 			|| _Mytree::_Isnil(this->_Ptr))
; 261  : 			{	// report error
; 262  : 			_DEBUG_ERROR("map/set iterator not incrementable");
; 263  : 			_SCL_SECURE_OUT_OF_RANGE;
; 264  : 			}
; 265  : 
; 266  :  #elif _ITERATOR_DEBUG_LEVEL == 1
; 267  : 		_SCL_SECURE_VALIDATE(this->_Getcont() != 0 && this->_Ptr != 0);
; 268  : 		_SCL_SECURE_VALIDATE_RANGE(!_Mytree::_Isnil(this->_Ptr));
; 269  :  #endif /* _ITERATOR_DEBUG_LEVEL */
; 270  : 
; 271  : 		++(*(_Mybase *)this);
; 272  : 		return (*this);
; 273  : 		}
; 274  : 
; 275  : 	_Myiter operator++(int)
; 276  : 		{	// postincrement
; 277  : 		_Myiter _Tmp = *this;
; 278  : 		++*this;
; 279  : 		return (_Tmp);
; 280  : 		}
; 281  : 
; 282  : 	_Myiter& operator--()
; 283  : 		{	// predecrement
; 284  :  #if _ITERATOR_DEBUG_LEVEL == 2
; 285  : 		if (this->_Getcont() == 0
; 286  : 			|| this->_Ptr == 0)
; 287  : 			{	// report error
; 288  : 			_DEBUG_ERROR("map/set iterator not decrementable");
; 289  : 			_SCL_SECURE_OUT_OF_RANGE;
; 290  : 			}
; 291  : 
; 292  : 		_Nodeptr _Ptrsav = this->_Ptr;
; 293  : 		--(*(_Mybase *)this);
; 294  : 		if (_Ptrsav == this->_Ptr)
; 295  : 			{	// report error
; 296  : 			_DEBUG_ERROR("map/set iterator not decrementable");
; 297  : 			_SCL_SECURE_OUT_OF_RANGE;
; 298  : 			}
; 299  : 
; 300  :  #elif _ITERATOR_DEBUG_LEVEL == 1
; 301  : 		_SCL_SECURE_VALIDATE(this->_Getcont() != 0 && this->_Ptr != 0);
; 302  : 
; 303  : 		_Nodeptr _Ptrsav = this->_Ptr;
; 304  : 		--(*(_Mybase *)this);
; 305  : 		_SCL_SECURE_VALIDATE(_Ptrsav != this->_Ptr);
; 306  : 
; 307  :  #else /* _ITERATOR_DEBUG_LEVEL == 0 */
; 308  : 		--(*(_Mybase *)this);
; 309  :  #endif /* _ITERATOR_DEBUG_LEVEL */
; 310  : 
; 311  : 		return (*this);
; 312  : 		}
; 313  : 
; 314  : 	_Myiter operator--(int)
; 315  : 		{	// postdecrement
; 316  : 		_Myiter _Tmp = *this;
; 317  : 		--*this;
; 318  : 		return (_Tmp);
; 319  : 		}
; 320  : 
; 321  : 	bool operator==(const _Myiter& _Right) const
; 322  : 		{	// test for iterator equality
; 323  :  #if _ITERATOR_DEBUG_LEVEL == 2
; 324  : 		if (this->_Getcont() == 0
; 325  : 			|| this->_Getcont() != _Right._Getcont())
; 326  : 			{	// report error
; 327  : 			_DEBUG_ERROR("map/set iterators incompatible");
; 328  : 			_SCL_SECURE_INVALID_ARGUMENT;
; 329  : 			}
; 330  : 
; 331  :  #elif _ITERATOR_DEBUG_LEVEL == 1
; 332  : 		_SCL_SECURE_VALIDATE(this->_Getcont() != 0
; 333  : 			&& this->_Getcont() == _Right._Getcont());
; 334  :  #endif /* _ITERATOR_DEBUG_LEVEL */
; 335  : 
; 336  : 		return (this->_Ptr == _Right._Ptr);
; 337  : 		}
; 338  : 
; 339  : 	bool operator!=(const _Myiter& _Right) const
; 340  : 		{	// test for iterator inequality
; 341  : 		return (!(*this == _Right));
; 342  : 		}
; 343  : 	};
; 344  : 
; 345  : template<class _Mytree> inline
; 346  : 	typename _Tree_const_iterator<_Mytree>::_Unchecked_type
; 347  : 		_Unchecked(_Tree_const_iterator<_Mytree> _Iter)
; 348  : 	{	// convert to unchecked
; 349  : 	return (_Iter._Unchecked());
; 350  : 	}
; 351  : 
; 352  : template<class _Mytree> inline
; 353  : 	_Tree_const_iterator<_Mytree>&
; 354  : 		_Rechecked(_Tree_const_iterator<_Mytree>& _Iter,
; 355  : 			typename _Tree_const_iterator<_Mytree>
; 356  : 				::_Unchecked_type _Right)
; 357  : 	{	// convert to checked
; 358  : 	return (_Iter._Rechecked(_Right));
; 359  : 	}
; 360  : 
; 361  : 	// TEMPLATE CLASS _Tree_iterator
; 362  : template<class _Mytree>
; 363  : 	class _Tree_iterator
; 364  : 		: public _Tree_const_iterator<_Mytree>
; 365  : 	{	// iterator for mutable tree
; 366  : public:
; 367  : 	typedef _Tree_iterator<_Mytree> _Myiter;
; 368  : 	typedef _Tree_const_iterator<_Mytree> _Mybase;
; 369  : 	typedef bidirectional_iterator_tag iterator_category;
; 370  : 
; 371  : 	typedef typename _Mytree::_Nodeptr _Nodeptr;
; 372  : 	typedef typename _Mytree::value_type value_type;
; 373  : 	typedef typename _Mytree::difference_type difference_type;
; 374  : 
; 375  : 	typedef typename _Mytree::pointer pointer;
; 376  : 	typedef typename _Mytree::reference reference;
; 377  : 
; 378  : 	_Tree_iterator()
; 379  : 		{	// construct with null node
; 380  : 		}
; 381  : 
; 382  : 	_Tree_iterator(_Nodeptr _Pnode, const _Mytree *_Plist)
; 383  : 		: _Mybase(_Pnode, _Plist)
; 384  : 		{	// construct with node pointer _Pnode
; 385  : 		}
; 386  : 
; 387  : 	typedef _Tree_unchecked_iterator<_Mytree> _Unchecked_type;
; 388  : 
; 389  : 	_Myiter& _Rechecked(_Unchecked_type _Right)
; 390  : 		{	// reset from unchecked iterator
; 391  : 		this->_Ptr = _Right._Ptr;
; 392  : 		return (*this);
; 393  : 		}
; 394  : 
; 395  : 	_Unchecked_type _Unchecked() const
; 396  : 		{	// make an unchecked iterator
; 397  : 		return (_Unchecked_type(this->_Ptr, (_Mytree *)this->_Getcont()));
; 398  : 		}
; 399  : 
; 400  : 	reference operator*() const
; 401  : 		{	// return designated value
; 402  : 		return ((reference)**(_Mybase *)this);
; 403  : 		}
; 404  : 
; 405  : 	pointer operator->() const
; 406  : 		{	// return pointer to class object
; 407  : 		return (_STD pointer_traits<pointer>::pointer_to(**this));
; 408  : 		}
; 409  : 
; 410  : 	_Myiter& operator++()
; 411  : 		{	// preincrement
; 412  : 		++(*(_Mybase *)this);
; 413  : 		return (*this);
; 414  : 		}
; 415  : 
; 416  : 	_Myiter operator++(int)
; 417  : 		{	// postincrement
; 418  : 		_Myiter _Tmp = *this;
; 419  : 		++*this;
; 420  : 		return (_Tmp);
; 421  : 		}
; 422  : 
; 423  : 	_Myiter& operator--()
; 424  : 		{	// predecrement
; 425  : 		--(*(_Mybase *)this);
; 426  : 		return (*this);
; 427  : 		}
; 428  : 
; 429  : 	_Myiter operator--(int)
; 430  : 		{	// postdecrement
; 431  : 		_Myiter _Tmp = *this;
; 432  : 		--*this;
; 433  : 		return (_Tmp);
; 434  : 		}
; 435  : 	};
; 436  : 
; 437  : template<class _Mytree> inline
; 438  : 	typename _Tree_iterator<_Mytree>::_Unchecked_type
; 439  : 		_Unchecked(_Tree_iterator<_Mytree> _Iter)
; 440  : 	{	// convert to unchecked
; 441  : 	return (_Iter._Unchecked());
; 442  : 	}
; 443  : 
; 444  : template<class _Mytree> inline
; 445  : 	_Tree_iterator<_Mytree>&
; 446  : 		_Rechecked(_Tree_iterator<_Mytree>& _Iter,
; 447  : 			typename _Tree_iterator<_Mytree>
; 448  : 				::_Unchecked_type _Right)
; 449  : 	{	// convert to checked
; 450  : 	return (_Iter._Rechecked(_Right));
; 451  : 	}
; 452  : 
; 453  : 		// tree TYPE WRAPPERS
; 454  : template<class _Value_type,
; 455  : 	class _Size_type,
; 456  : 	class _Difference_type,
; 457  : 	class _Pointer,
; 458  : 	class _Const_pointer,
; 459  : 	class _Reference,
; 460  : 	class _Const_reference,
; 461  : 	class _Nodeptr_type>
; 462  : 	struct _Tree_iter_types
; 463  : 	{	// wraps types needed by iterators
; 464  : 	typedef _Value_type value_type;
; 465  : 	typedef _Size_type size_type;
; 466  : 	typedef _Difference_type difference_type;
; 467  : 	typedef _Pointer pointer;
; 468  : 	typedef _Const_pointer const_pointer;
; 469  : 	typedef _Reference reference;
; 470  : 	typedef _Const_reference const_reference;
; 471  : 	typedef _Nodeptr_type _Nodeptr;
; 472  : 	};
; 473  : 
; 474  : template<class _Value_type,
; 475  : 	class _Voidptr>
; 476  : 	struct _Tree_node
; 477  : 		{	// tree node
; 478  : 		_Voidptr _Left;	// left subtree, or smallest element if head
; 479  : 		_Voidptr _Parent;	// parent, or root of tree if head
; 480  : 		_Voidptr _Right;	// right subtree, or largest element if head
; 481  : 		char _Color;	// _Red or _Black, _Black if head
; 482  : 		char _Isnil;	// true only if head (also nil) node
; 483  : 		_Value_type _Myval;	// the stored value, unused if head
; 484  : 
; 485  : 	private:
; 486  : 		_Tree_node& operator=(const _Tree_node&);
; 487  : 		};
; 488  : 
; 489  : template<class _Value_type>
; 490  : 	struct _Tree_node<_Value_type, void *>
; 491  : 		{	// tree node
; 492  : 		typedef _Tree_node<_Value_type, void *> *_Nodeptr;
; 493  : 		_Nodeptr _Left;	// left subtree, or smallest element if head
; 494  : 		_Nodeptr _Parent;	// parent, or root of tree if head
; 495  : 		_Nodeptr _Right;	// right subtree, or largest element if head
; 496  : 		char _Color;	// _Red or _Black, _Black if head
; 497  : 		char _Isnil;	// true only if head (also nil) node
; 498  : 		_Value_type _Myval;	// the stored value, unused if head
; 499  : 
; 500  : 	private:
; 501  : 		_Tree_node& operator=(const _Tree_node&);
; 502  : 		};
; 503  : 
; 504  : template<class _Ty>
; 505  : 	struct _Tree_simple_types
; 506  : 		: public _Simple_types<_Ty>
; 507  : 	{	// wraps types needed by iterators
; 508  : 	typedef _Tree_node<_Ty, void *> _Node;
; 509  : 	typedef _Node *_Nodeptr;
; 510  : 	};
; 511  : 
; 512  : template<class _Ty,
; 513  : 	class _Alloc0>
; 514  : 	struct _Tree_base_types
; 515  : 	{	// types needed for a container base
; 516  : 	typedef _Alloc0 _Alloc;
; 517  : 	typedef _Tree_base_types<_Ty, _Alloc> _Myt;
; 518  : 
; 519  : 	typedef _Wrap_alloc<_Alloc> _Alty0;
; 520  : 	typedef typename _Alty0::template rebind<_Ty>::other _Alty;
; 521  : 
; 522  : 
; 523  : 	typedef typename _Get_voidptr<_Alty, typename _Alty::pointer>::type
; 524  : 		_Voidptr;
; 525  : 	typedef _Tree_node<typename _Alty::value_type,
; 526  : 		_Voidptr> _Node;
; 527  : 
; 528  : 	typedef typename _Alty::template rebind<_Node>::other _Alnod_type;
; 529  : 	typedef typename _Alnod_type::pointer _Nodeptr;
; 530  : 	typedef _Nodeptr& _Nodepref;
; 531  : 
; 532  : 	typedef typename _If<_Is_simple_alloc<_Alty>::value,
; 533  : 		_Tree_simple_types<typename _Alty::value_type>,
; 534  : 		_Tree_iter_types<typename _Alty::value_type,
; 535  : 			typename _Alty::size_type,
; 536  : 			typename _Alty::difference_type,
; 537  : 			typename _Alty::pointer,
; 538  : 			typename _Alty::const_pointer,
; 539  : 			typename _Alty::reference,
; 540  : 			typename _Alty::const_reference,
; 541  : 			_Nodeptr> >::type
; 542  : 		_Val_types;
; 543  : 	};
; 544  : 
; 545  : 		// TEMPLATE CLASS _Tree_val
; 546  : template<class _Val_types>
; 547  : 	class _Tree_val
; 548  : 		: public _Container_base
; 549  : 	{	// base class for tree to hold data
; 550  : public:
; 551  : 	typedef _Tree_val<_Val_types> _Myt;
; 552  : 
; 553  : 	typedef typename _Val_types::_Nodeptr _Nodeptr;
; 554  : 	typedef _Nodeptr& _Nodepref;
; 555  : 
; 556  : 	typedef typename _Val_types::value_type value_type;
; 557  : 	typedef typename _Val_types::size_type size_type;
; 558  : 	typedef typename _Val_types::difference_type difference_type;
; 559  : 	typedef typename _Val_types::pointer pointer;
; 560  : 	typedef typename _Val_types::const_pointer const_pointer;
; 561  : 	typedef typename _Val_types::reference reference;
; 562  : 	typedef typename _Val_types::const_reference const_reference;
; 563  : 
; 564  : 	typedef _Tree_const_iterator<_Myt> const_iterator;
; 565  : 	typedef _Tree_iterator<_Myt> iterator;
; 566  : 
; 567  : 	_Tree_val()
; 568  : 		{	// initialize data
; 569  : 		this->_Myhead = 0;
; 570  : 		this->_Mysize = 0;
; 571  : 		}
; 572  : 
; 573  : 	enum _Redbl
; 574  : 		{	// colors for link to parent
; 575  : 		_Red, _Black};
; 576  : 
; 577  : 	static char& _Color(_Nodeptr _Pnode)
; 578  : 		{	// return reference to color in node
; 579  : 		return ((char&)_Pnode->_Color);
; 580  : 		}
; 581  : 
; 582  : 	static char& _Isnil(_Nodeptr _Pnode)
; 583  : 		{	// return reference to nil flag in node
; 584  : 		return ((char&)_Pnode->_Isnil);
; 585  : 		}
; 586  : 
; 587  : 	static _Nodepref _Left(_Nodeptr _Pnode)
; 588  : 		{	// return reference to left pointer in node
; 589  : 		return ((_Nodepref)_Pnode->_Left);
; 590  : 		}
; 591  : 
; 592  : 	static _Nodepref _Parent(_Nodeptr _Pnode)
; 593  : 		{	// return reference to parent pointer in node
; 594  : 		return ((_Nodepref)_Pnode->_Parent);
; 595  : 		}
; 596  : 
; 597  : 	static _Nodepref _Right(_Nodeptr _Pnode)
; 598  : 		{	// return reference to right pointer in node
; 599  : 		return ((_Nodepref)_Pnode->_Right);
; 600  : 		}
; 601  : 
; 602  : 	static reference _Myval(_Nodeptr _Pnode)
; 603  : 		{	// return reference to value in node
; 604  : 		return ((reference)_Pnode->_Myval);

	mov	rax, QWORD PTR [rcx]
	add	rax, 32					; 00000020H

; 232  :  #if _ITERATOR_DEBUG_LEVEL == 2
; 233  : 		if (this->_Getcont() == 0
; 234  : 			|| this->_Ptr == 0
; 235  : 			|| this->_Ptr == ((_Mytree *)this->_Getcont())->_Myhead)
; 236  : 			{	// report error
; 237  : 			_DEBUG_ERROR("map/set iterator not dereferencable");
; 238  : 			_SCL_SECURE_OUT_OF_RANGE;
; 239  : 			}
; 240  : 
; 241  :  #elif _ITERATOR_DEBUG_LEVEL == 1
; 242  : 		_SCL_SECURE_VALIDATE(this->_Getcont() != 0 && this->_Ptr != 0);
; 243  : 		_SCL_SECURE_VALIDATE_RANGE(this->_Ptr !=
; 244  : 			((_Mytree *)this->_Getcont())->_Myhead);
; 245  :  #endif /* _ITERATOR_DEBUG_LEVEL */
; 246  : 
; 247  : 		return (_Mytree::_Myval(this->_Ptr));
; 248  : 		}

	ret	0
??D?$_Tree_const_iterator@V?$_Tree_val@U?$_Tree_simple_types@PEAUstr_value@@@std@@@std@@@std@@QEBAAEBQEAUstr_value@@XZ ENDP ; std::_Tree_const_iterator<std::_Tree_val<std::_Tree_simple_types<str_value * __ptr64> > >::operator*
_TEXT	ENDS
; Function compile flags: /Ogtpy
; File c:\program files (x86)\microsoft visual studio 12.0\vc\include\xtree
;	COMDAT ?insert@?$_Tree@V?$_Tset_traits@PEAUstr_value@@Ustr_value_cmp@@V?$xalloc@PEAUstr_value@@@@$00@std@@@std@@QEAA?AU?$pair@V?$_Tree_const_iterator@V?$_Tree_val@U?$_Tree_simple_types@PEAUstr_value@@@std@@@std@@@std@@_N@2@AEBQEAUstr_value@@@Z
_TEXT	SEGMENT
this$ = 64
__$ReturnUdt$ = 72
_Val$ = 80
?insert@?$_Tree@V?$_Tset_traits@PEAUstr_value@@Ustr_value_cmp@@V?$xalloc@PEAUstr_value@@@@$00@std@@@std@@QEAA?AU?$pair@V?$_Tree_const_iterator@V?$_Tree_val@U?$_Tree_simple_types@PEAUstr_value@@@std@@@std@@@std@@_N@2@AEBQEAUstr_value@@@Z PROC ; std::_Tree<std::_Tset_traits<str_value * __ptr64,str_value_cmp,xalloc<str_value * __ptr64>,1> >::insert, COMDAT

; 1301 : 		{	// try to insert node with value _Val, favoring right side

$LN4:
	push	rbx
	sub	rsp, 48					; 00000030H

; 1302 : 		return (_Insert_nohint(false,
; 1303 : 			_Val, _Nil_obj));

	movzx	eax, BYTE PTR _Nil_obj
	mov	r9, r8
	mov	rbx, rdx
	mov	BYTE PTR [rsp+32], al
	call	??$_Insert_nohint@AEBQEAUstr_value@@U_Nil@std@@@?$_Tree@V?$_Tset_traits@PEAUstr_value@@Ustr_value_cmp@@V?$xalloc@PEAUstr_value@@@@$00@std@@@std@@IEAA?AU?$pair@V?$_Tree_const_iterator@V?$_Tree_val@U?$_Tree_simple_types@PEAUstr_value@@@std@@@std@@@std@@_N@1@_NAEBQEAUstr_value@@U_Nil@1@@Z ; std::_Tree<std::_Tset_traits<str_value * __ptr64,str_value_cmp,xalloc<str_value * __ptr64>,1> >::_Insert_nohint<str_value * __ptr64 const & __ptr64,std::_Nil>
	mov	rax, rbx

; 1304 : 		}

	add	rsp, 48					; 00000030H
	pop	rbx
	ret	0
?insert@?$_Tree@V?$_Tset_traits@PEAUstr_value@@Ustr_value_cmp@@V?$xalloc@PEAUstr_value@@@@$00@std@@@std@@QEAA?AU?$pair@V?$_Tree_const_iterator@V?$_Tree_val@U?$_Tree_simple_types@PEAUstr_value@@@std@@@std@@@std@@_N@2@AEBQEAUstr_value@@@Z ENDP ; std::_Tree<std::_Tset_traits<str_value * __ptr64,str_value_cmp,xalloc<str_value * __ptr64>,1> >::insert
_TEXT	ENDS
; Function compile flags: /Ogtpy
; File c:\program files (x86)\microsoft visual studio 12.0\vc\include\xtree
; File c:\users\nummer\documents\github\olr-3.0\src\xray\xrcore\xrstring.h
; File c:\program files (x86)\microsoft visual studio 12.0\vc\include\xtree
;	COMDAT ?lower_bound@?$_Tree@V?$_Tset_traits@PEAUstr_value@@Ustr_value_cmp@@V?$xalloc@PEAUstr_value@@@@$00@std@@@std@@QEAA?AV?$_Tree_const_iterator@V?$_Tree_val@U?$_Tree_simple_types@PEAUstr_value@@@std@@@std@@@2@AEBQEAUstr_value@@@Z
_TEXT	SEGMENT
this$ = 8
__$ReturnUdt$ = 16
_Keyval$ = 24
?lower_bound@?$_Tree@V?$_Tset_traits@PEAUstr_value@@Ustr_value_cmp@@V?$xalloc@PEAUstr_value@@@@$00@std@@@std@@QEAA?AV?$_Tree_const_iterator@V?$_Tree_val@U?$_Tree_simple_types@PEAUstr_value@@@std@@@std@@@2@AEBQEAUstr_value@@@Z PROC ; std::_Tree<std::_Tset_traits<str_value * __ptr64,str_value_cmp,xalloc<str_value * __ptr64>,1> >::lower_bound, COMDAT

; 45   : 		this->_Adopt(_Plist);
; 46   : 		}
; 47   : 
; 48   : 	reference operator*() const
; 49   : 		{	// return designated value
; 50   : 		return (_Mytree::_Myval(_Ptr));
; 51   : 		}
; 52   : 
; 53   : 	pointer operator->() const
; 54   : 		{	// return pointer to class object
; 55   : 		return (_STD pointer_traits<pointer>::pointer_to(**this));
; 56   : 		}
; 57   : 
; 58   : 	_Myiter& operator++()
; 59   : 		{	// preincrement
; 60   : 		if (_Mytree::_Isnil(_Ptr))
; 61   : 			;	// end() shouldn't be incremented, don't move
; 62   : 		else if (!_Mytree::_Isnil(_Mytree::_Right(_Ptr)))
; 63   : 			_Ptr = _Mytree::_Min(
; 64   : 				_Mytree::_Right(_Ptr));	// ==> smallest of right subtree
; 65   : 		else
; 66   : 			{	// climb looking for right subtree
; 67   : 			_Nodeptr _Pnode;
; 68   : 			while (!_Mytree::_Isnil(_Pnode = _Mytree::_Parent(_Ptr))
; 69   : 				&& _Ptr == _Mytree::_Right(_Pnode))
; 70   : 				_Ptr = _Pnode;	// ==> parent while right subtree
; 71   : 			_Ptr = _Pnode;	// ==> parent (head if end())
; 72   : 			}
; 73   : 		return (*this);
; 74   : 		}
; 75   : 
; 76   : 	_Myiter operator++(int)
; 77   : 		{	// postincrement
; 78   : 		_Myiter _Tmp = *this;
; 79   : 		++*this;
; 80   : 		return (_Tmp);
; 81   : 		}
; 82   : 
; 83   : 	_Myiter& operator--()
; 84   : 		{	// predecrement
; 85   : 		if (_Mytree::_Isnil(_Ptr))
; 86   : 			_Ptr = _Mytree::_Right(_Ptr);	// end() ==> rightmost
; 87   : 		else if (!_Mytree::_Isnil(_Mytree::_Left(_Ptr)))
; 88   : 			_Ptr = _Mytree::_Max(
; 89   : 				_Mytree::_Left(_Ptr));	// ==> largest of left subtree
; 90   : 		else
; 91   : 			{	// climb looking for left subtree
; 92   : 			_Nodeptr _Pnode;
; 93   : 			while (!_Mytree::_Isnil(_Pnode = _Mytree::_Parent(_Ptr))
; 94   : 				&& _Ptr == _Mytree::_Left(_Pnode))
; 95   : 				_Ptr = _Pnode;	// ==> parent while left subtree
; 96   : 			if (_Mytree::_Isnil(_Ptr))
; 97   : 				;	// begin() shouldn't be decremented, don't move
; 98   : 			else
; 99   : 				_Ptr = _Pnode;	// ==> parent if not head
; 100  : 			}
; 101  : 		return (*this);
; 102  : 		}
; 103  : 
; 104  : 	_Myiter operator--(int)
; 105  : 		{	// postdecrement
; 106  : 		_Myiter _Tmp = *this;
; 107  : 		--*this;
; 108  : 		return (_Tmp);
; 109  : 		}
; 110  : 
; 111  : 	bool operator==(const _Myiter& _Right) const
; 112  : 		{	// test for iterator equality
; 113  : 		return (_Ptr == _Right._Ptr);
; 114  : 		}
; 115  : 
; 116  : 	bool operator!=(const _Myiter& _Right) const
; 117  : 		{	// test for iterator inequality
; 118  : 		return (!(*this == _Right));
; 119  : 		}
; 120  : 
; 121  : 	_Nodeptr _Mynode() const
; 122  : 		{	// return node pointer
; 123  : 		return (_Ptr);
; 124  : 		}
; 125  : 
; 126  : 	_Nodeptr _Ptr;	// pointer to node
; 127  : 	};
; 128  : 
; 129  : 	// TEMPLATE CLASS _Tree_unchecked_iterator
; 130  : template<class _Mytree>
; 131  : 	class _Tree_unchecked_iterator
; 132  : 		: public _Tree_unchecked_const_iterator<_Mytree>
; 133  : 	{	// unchecked iterator for mutable tree
; 134  : public:
; 135  : 	typedef _Tree_unchecked_iterator<_Mytree> _Myiter;
; 136  : 	typedef _Tree_unchecked_const_iterator<_Mytree> _Mybase;
; 137  : 	typedef bidirectional_iterator_tag iterator_category;
; 138  : 
; 139  : 	typedef typename _Mytree::_Nodeptr _Nodeptr;
; 140  : 	typedef typename _Mytree::value_type value_type;
; 141  : 	typedef typename _Mytree::difference_type difference_type;
; 142  : 	typedef typename _Mytree::pointer pointer;
; 143  : 	typedef typename _Mytree::reference reference;
; 144  : 
; 145  : 	_Tree_unchecked_iterator()
; 146  : 		{	// construct with null node
; 147  : 		}
; 148  : 
; 149  : 	_Tree_unchecked_iterator(_Nodeptr _Pnode, const _Mytree *_Plist)
; 150  : 		: _Mybase(_Pnode, _Plist)
; 151  : 		{	// construct with node pointer _Pnode
; 152  : 		}
; 153  : 
; 154  : 	reference operator*() const
; 155  : 		{	// return designated value
; 156  : 		return ((reference)**(_Mybase *)this);
; 157  : 		}
; 158  : 
; 159  : 	pointer operator->() const
; 160  : 		{	// return pointer to class object
; 161  : 		return (_STD pointer_traits<pointer>::pointer_to(**this));
; 162  : 		}
; 163  : 
; 164  : 	_Myiter& operator++()
; 165  : 		{	// preincrement
; 166  : 		++(*(_Mybase *)this);
; 167  : 		return (*this);
; 168  : 		}
; 169  : 
; 170  : 	_Myiter operator++(int)
; 171  : 		{	// postincrement
; 172  : 		_Myiter _Tmp = *this;
; 173  : 		++*this;
; 174  : 		return (_Tmp);
; 175  : 		}
; 176  : 
; 177  : 	_Myiter& operator--()
; 178  : 		{	// predecrement
; 179  : 		--(*(_Mybase *)this);
; 180  : 		return (*this);
; 181  : 		}
; 182  : 
; 183  : 	_Myiter operator--(int)
; 184  : 		{	// postdecrement
; 185  : 		_Myiter _Tmp = *this;
; 186  : 		--*this;
; 187  : 		return (_Tmp);
; 188  : 		}
; 189  : 	};
; 190  : 
; 191  : 	// TEMPLATE CLASS _Tree_const_iterator
; 192  : template<class _Mytree>
; 193  : 	class _Tree_const_iterator
; 194  : 		: public _Tree_unchecked_const_iterator<_Mytree, _Iterator_base>
; 195  : 	{	// iterator for nonmutable tree
; 196  : public:
; 197  : 	typedef _Tree_const_iterator<_Mytree> _Myiter;
; 198  : 	typedef _Tree_unchecked_const_iterator<_Mytree, _Iterator_base> _Mybase;
; 199  : 	typedef bidirectional_iterator_tag iterator_category;
; 200  : 
; 201  : 	typedef typename _Mytree::_Nodeptr _Nodeptr;
; 202  : 	typedef typename _Mytree::value_type value_type;
; 203  : 	typedef typename _Mytree::difference_type difference_type;
; 204  : 	typedef typename _Mytree::const_pointer pointer;
; 205  : 	typedef typename _Mytree::const_reference reference;
; 206  : 
; 207  : 	_Tree_const_iterator()
; 208  : 		: _Mybase()
; 209  : 		{	// construct with null node pointer
; 210  : 		}
; 211  : 
; 212  : 	_Tree_const_iterator(_Nodeptr _Pnode, const _Mytree *_Plist)
; 213  : 		: _Mybase(_Pnode, _Plist)
; 214  : 		{	// construct with node pointer _Pnode
; 215  : 		}
; 216  : 
; 217  : 	typedef _Tree_unchecked_const_iterator<_Mytree> _Unchecked_type;
; 218  : 
; 219  : 	_Myiter& _Rechecked(_Unchecked_type _Right)
; 220  : 		{	// reset from unchecked iterator
; 221  : 		this->_Ptr = _Right._Ptr;
; 222  : 		return (*this);
; 223  : 		}
; 224  : 
; 225  : 	_Unchecked_type _Unchecked() const
; 226  : 		{	// make an unchecked iterator
; 227  : 		return (_Unchecked_type(this->_Ptr, (_Mytree *)this->_Getcont()));
; 228  : 		}
; 229  : 
; 230  : 	reference operator*() const
; 231  : 		{	// return designated value
; 232  :  #if _ITERATOR_DEBUG_LEVEL == 2
; 233  : 		if (this->_Getcont() == 0
; 234  : 			|| this->_Ptr == 0
; 235  : 			|| this->_Ptr == ((_Mytree *)this->_Getcont())->_Myhead)
; 236  : 			{	// report error
; 237  : 			_DEBUG_ERROR("map/set iterator not dereferencable");
; 238  : 			_SCL_SECURE_OUT_OF_RANGE;
; 239  : 			}
; 240  : 
; 241  :  #elif _ITERATOR_DEBUG_LEVEL == 1
; 242  : 		_SCL_SECURE_VALIDATE(this->_Getcont() != 0 && this->_Ptr != 0);
; 243  : 		_SCL_SECURE_VALIDATE_RANGE(this->_Ptr !=
; 244  : 			((_Mytree *)this->_Getcont())->_Myhead);
; 245  :  #endif /* _ITERATOR_DEBUG_LEVEL */
; 246  : 
; 247  : 		return (_Mytree::_Myval(this->_Ptr));
; 248  : 		}
; 249  : 
; 250  : 	pointer operator->() const
; 251  : 		{	// return pointer to class object
; 252  : 		return (_STD pointer_traits<pointer>::pointer_to(**this));
; 253  : 		}
; 254  : 
; 255  : 	_Myiter& operator++()
; 256  : 		{	// preincrement
; 257  :  #if _ITERATOR_DEBUG_LEVEL == 2
; 258  : 		if (this->_Getcont() == 0
; 259  : 			|| this->_Ptr == 0
; 260  : 			|| _Mytree::_Isnil(this->_Ptr))
; 261  : 			{	// report error
; 262  : 			_DEBUG_ERROR("map/set iterator not incrementable");
; 263  : 			_SCL_SECURE_OUT_OF_RANGE;
; 264  : 			}
; 265  : 
; 266  :  #elif _ITERATOR_DEBUG_LEVEL == 1
; 267  : 		_SCL_SECURE_VALIDATE(this->_Getcont() != 0 && this->_Ptr != 0);
; 268  : 		_SCL_SECURE_VALIDATE_RANGE(!_Mytree::_Isnil(this->_Ptr));
; 269  :  #endif /* _ITERATOR_DEBUG_LEVEL */
; 270  : 
; 271  : 		++(*(_Mybase *)this);
; 272  : 		return (*this);
; 273  : 		}
; 274  : 
; 275  : 	_Myiter operator++(int)
; 276  : 		{	// postincrement
; 277  : 		_Myiter _Tmp = *this;
; 278  : 		++*this;
; 279  : 		return (_Tmp);
; 280  : 		}
; 281  : 
; 282  : 	_Myiter& operator--()
; 283  : 		{	// predecrement
; 284  :  #if _ITERATOR_DEBUG_LEVEL == 2
; 285  : 		if (this->_Getcont() == 0
; 286  : 			|| this->_Ptr == 0)
; 287  : 			{	// report error
; 288  : 			_DEBUG_ERROR("map/set iterator not decrementable");
; 289  : 			_SCL_SECURE_OUT_OF_RANGE;
; 290  : 			}
; 291  : 
; 292  : 		_Nodeptr _Ptrsav = this->_Ptr;
; 293  : 		--(*(_Mybase *)this);
; 294  : 		if (_Ptrsav == this->_Ptr)
; 295  : 			{	// report error
; 296  : 			_DEBUG_ERROR("map/set iterator not decrementable");
; 297  : 			_SCL_SECURE_OUT_OF_RANGE;
; 298  : 			}
; 299  : 
; 300  :  #elif _ITERATOR_DEBUG_LEVEL == 1
; 301  : 		_SCL_SECURE_VALIDATE(this->_Getcont() != 0 && this->_Ptr != 0);
; 302  : 
; 303  : 		_Nodeptr _Ptrsav = this->_Ptr;
; 304  : 		--(*(_Mybase *)this);
; 305  : 		_SCL_SECURE_VALIDATE(_Ptrsav != this->_Ptr);
; 306  : 
; 307  :  #else /* _ITERATOR_DEBUG_LEVEL == 0 */
; 308  : 		--(*(_Mybase *)this);
; 309  :  #endif /* _ITERATOR_DEBUG_LEVEL */
; 310  : 
; 311  : 		return (*this);
; 312  : 		}
; 313  : 
; 314  : 	_Myiter operator--(int)
; 315  : 		{	// postdecrement
; 316  : 		_Myiter _Tmp = *this;
; 317  : 		--*this;
; 318  : 		return (_Tmp);
; 319  : 		}
; 320  : 
; 321  : 	bool operator==(const _Myiter& _Right) const
; 322  : 		{	// test for iterator equality
; 323  :  #if _ITERATOR_DEBUG_LEVEL == 2
; 324  : 		if (this->_Getcont() == 0
; 325  : 			|| this->_Getcont() != _Right._Getcont())
; 326  : 			{	// report error
; 327  : 			_DEBUG_ERROR("map/set iterators incompatible");
; 328  : 			_SCL_SECURE_INVALID_ARGUMENT;
; 329  : 			}
; 330  : 
; 331  :  #elif _ITERATOR_DEBUG_LEVEL == 1
; 332  : 		_SCL_SECURE_VALIDATE(this->_Getcont() != 0
; 333  : 			&& this->_Getcont() == _Right._Getcont());
; 334  :  #endif /* _ITERATOR_DEBUG_LEVEL */
; 335  : 
; 336  : 		return (this->_Ptr == _Right._Ptr);
; 337  : 		}
; 338  : 
; 339  : 	bool operator!=(const _Myiter& _Right) const
; 340  : 		{	// test for iterator inequality
; 341  : 		return (!(*this == _Right));
; 342  : 		}
; 343  : 	};
; 344  : 
; 345  : template<class _Mytree> inline
; 346  : 	typename _Tree_const_iterator<_Mytree>::_Unchecked_type
; 347  : 		_Unchecked(_Tree_const_iterator<_Mytree> _Iter)
; 348  : 	{	// convert to unchecked
; 349  : 	return (_Iter._Unchecked());
; 350  : 	}
; 351  : 
; 352  : template<class _Mytree> inline
; 353  : 	_Tree_const_iterator<_Mytree>&
; 354  : 		_Rechecked(_Tree_const_iterator<_Mytree>& _Iter,
; 355  : 			typename _Tree_const_iterator<_Mytree>
; 356  : 				::_Unchecked_type _Right)
; 357  : 	{	// convert to checked
; 358  : 	return (_Iter._Rechecked(_Right));
; 359  : 	}
; 360  : 
; 361  : 	// TEMPLATE CLASS _Tree_iterator
; 362  : template<class _Mytree>
; 363  : 	class _Tree_iterator
; 364  : 		: public _Tree_const_iterator<_Mytree>
; 365  : 	{	// iterator for mutable tree
; 366  : public:
; 367  : 	typedef _Tree_iterator<_Mytree> _Myiter;
; 368  : 	typedef _Tree_const_iterator<_Mytree> _Mybase;
; 369  : 	typedef bidirectional_iterator_tag iterator_category;
; 370  : 
; 371  : 	typedef typename _Mytree::_Nodeptr _Nodeptr;
; 372  : 	typedef typename _Mytree::value_type value_type;
; 373  : 	typedef typename _Mytree::difference_type difference_type;
; 374  : 
; 375  : 	typedef typename _Mytree::pointer pointer;
; 376  : 	typedef typename _Mytree::reference reference;
; 377  : 
; 378  : 	_Tree_iterator()
; 379  : 		{	// construct with null node
; 380  : 		}
; 381  : 
; 382  : 	_Tree_iterator(_Nodeptr _Pnode, const _Mytree *_Plist)
; 383  : 		: _Mybase(_Pnode, _Plist)
; 384  : 		{	// construct with node pointer _Pnode
; 385  : 		}
; 386  : 
; 387  : 	typedef _Tree_unchecked_iterator<_Mytree> _Unchecked_type;
; 388  : 
; 389  : 	_Myiter& _Rechecked(_Unchecked_type _Right)
; 390  : 		{	// reset from unchecked iterator
; 391  : 		this->_Ptr = _Right._Ptr;
; 392  : 		return (*this);
; 393  : 		}
; 394  : 
; 395  : 	_Unchecked_type _Unchecked() const
; 396  : 		{	// make an unchecked iterator
; 397  : 		return (_Unchecked_type(this->_Ptr, (_Mytree *)this->_Getcont()));
; 398  : 		}
; 399  : 
; 400  : 	reference operator*() const
; 401  : 		{	// return designated value
; 402  : 		return ((reference)**(_Mybase *)this);
; 403  : 		}
; 404  : 
; 405  : 	pointer operator->() const
; 406  : 		{	// return pointer to class object
; 407  : 		return (_STD pointer_traits<pointer>::pointer_to(**this));
; 408  : 		}
; 409  : 
; 410  : 	_Myiter& operator++()
; 411  : 		{	// preincrement
; 412  : 		++(*(_Mybase *)this);
; 413  : 		return (*this);
; 414  : 		}
; 415  : 
; 416  : 	_Myiter operator++(int)
; 417  : 		{	// postincrement
; 418  : 		_Myiter _Tmp = *this;
; 419  : 		++*this;
; 420  : 		return (_Tmp);
; 421  : 		}
; 422  : 
; 423  : 	_Myiter& operator--()
; 424  : 		{	// predecrement
; 425  : 		--(*(_Mybase *)this);
; 426  : 		return (*this);
; 427  : 		}
; 428  : 
; 429  : 	_Myiter operator--(int)
; 430  : 		{	// postdecrement
; 431  : 		_Myiter _Tmp = *this;
; 432  : 		--*this;
; 433  : 		return (_Tmp);
; 434  : 		}
; 435  : 	};
; 436  : 
; 437  : template<class _Mytree> inline
; 438  : 	typename _Tree_iterator<_Mytree>::_Unchecked_type
; 439  : 		_Unchecked(_Tree_iterator<_Mytree> _Iter)
; 440  : 	{	// convert to unchecked
; 441  : 	return (_Iter._Unchecked());
; 442  : 	}
; 443  : 
; 444  : template<class _Mytree> inline
; 445  : 	_Tree_iterator<_Mytree>&
; 446  : 		_Rechecked(_Tree_iterator<_Mytree>& _Iter,
; 447  : 			typename _Tree_iterator<_Mytree>
; 448  : 				::_Unchecked_type _Right)
; 449  : 	{	// convert to checked
; 450  : 	return (_Iter._Rechecked(_Right));
; 451  : 	}
; 452  : 
; 453  : 		// tree TYPE WRAPPERS
; 454  : template<class _Value_type,
; 455  : 	class _Size_type,
; 456  : 	class _Difference_type,
; 457  : 	class _Pointer,
; 458  : 	class _Const_pointer,
; 459  : 	class _Reference,
; 460  : 	class _Const_reference,
; 461  : 	class _Nodeptr_type>
; 462  : 	struct _Tree_iter_types
; 463  : 	{	// wraps types needed by iterators
; 464  : 	typedef _Value_type value_type;
; 465  : 	typedef _Size_type size_type;
; 466  : 	typedef _Difference_type difference_type;
; 467  : 	typedef _Pointer pointer;
; 468  : 	typedef _Const_pointer const_pointer;
; 469  : 	typedef _Reference reference;
; 470  : 	typedef _Const_reference const_reference;
; 471  : 	typedef _Nodeptr_type _Nodeptr;
; 472  : 	};
; 473  : 
; 474  : template<class _Value_type,
; 475  : 	class _Voidptr>
; 476  : 	struct _Tree_node
; 477  : 		{	// tree node
; 478  : 		_Voidptr _Left;	// left subtree, or smallest element if head
; 479  : 		_Voidptr _Parent;	// parent, or root of tree if head
; 480  : 		_Voidptr _Right;	// right subtree, or largest element if head
; 481  : 		char _Color;	// _Red or _Black, _Black if head
; 482  : 		char _Isnil;	// true only if head (also nil) node
; 483  : 		_Value_type _Myval;	// the stored value, unused if head
; 484  : 
; 485  : 	private:
; 486  : 		_Tree_node& operator=(const _Tree_node&);
; 487  : 		};
; 488  : 
; 489  : template<class _Value_type>
; 490  : 	struct _Tree_node<_Value_type, void *>
; 491  : 		{	// tree node
; 492  : 		typedef _Tree_node<_Value_type, void *> *_Nodeptr;
; 493  : 		_Nodeptr _Left;	// left subtree, or smallest element if head
; 494  : 		_Nodeptr _Parent;	// parent, or root of tree if head
; 495  : 		_Nodeptr _Right;	// right subtree, or largest element if head
; 496  : 		char _Color;	// _Red or _Black, _Black if head
; 497  : 		char _Isnil;	// true only if head (also nil) node
; 498  : 		_Value_type _Myval;	// the stored value, unused if head
; 499  : 
; 500  : 	private:
; 501  : 		_Tree_node& operator=(const _Tree_node&);
; 502  : 		};
; 503  : 
; 504  : template<class _Ty>
; 505  : 	struct _Tree_simple_types
; 506  : 		: public _Simple_types<_Ty>
; 507  : 	{	// wraps types needed by iterators
; 508  : 	typedef _Tree_node<_Ty, void *> _Node;
; 509  : 	typedef _Node *_Nodeptr;
; 510  : 	};
; 511  : 
; 512  : template<class _Ty,
; 513  : 	class _Alloc0>
; 514  : 	struct _Tree_base_types
; 515  : 	{	// types needed for a container base
; 516  : 	typedef _Alloc0 _Alloc;
; 517  : 	typedef _Tree_base_types<_Ty, _Alloc> _Myt;
; 518  : 
; 519  : 	typedef _Wrap_alloc<_Alloc> _Alty0;
; 520  : 	typedef typename _Alty0::template rebind<_Ty>::other _Alty;
; 521  : 
; 522  : 
; 523  : 	typedef typename _Get_voidptr<_Alty, typename _Alty::pointer>::type
; 524  : 		_Voidptr;
; 525  : 	typedef _Tree_node<typename _Alty::value_type,
; 526  : 		_Voidptr> _Node;
; 527  : 
; 528  : 	typedef typename _Alty::template rebind<_Node>::other _Alnod_type;
; 529  : 	typedef typename _Alnod_type::pointer _Nodeptr;
; 530  : 	typedef _Nodeptr& _Nodepref;
; 531  : 
; 532  : 	typedef typename _If<_Is_simple_alloc<_Alty>::value,
; 533  : 		_Tree_simple_types<typename _Alty::value_type>,
; 534  : 		_Tree_iter_types<typename _Alty::value_type,
; 535  : 			typename _Alty::size_type,
; 536  : 			typename _Alty::difference_type,
; 537  : 			typename _Alty::pointer,
; 538  : 			typename _Alty::const_pointer,
; 539  : 			typename _Alty::reference,
; 540  : 			typename _Alty::const_reference,
; 541  : 			_Nodeptr> >::type
; 542  : 		_Val_types;
; 543  : 	};
; 544  : 
; 545  : 		// TEMPLATE CLASS _Tree_val
; 546  : template<class _Val_types>
; 547  : 	class _Tree_val
; 548  : 		: public _Container_base
; 549  : 	{	// base class for tree to hold data
; 550  : public:
; 551  : 	typedef _Tree_val<_Val_types> _Myt;
; 552  : 
; 553  : 	typedef typename _Val_types::_Nodeptr _Nodeptr;
; 554  : 	typedef _Nodeptr& _Nodepref;
; 555  : 
; 556  : 	typedef typename _Val_types::value_type value_type;
; 557  : 	typedef typename _Val_types::size_type size_type;
; 558  : 	typedef typename _Val_types::difference_type difference_type;
; 559  : 	typedef typename _Val_types::pointer pointer;
; 560  : 	typedef typename _Val_types::const_pointer const_pointer;
; 561  : 	typedef typename _Val_types::reference reference;
; 562  : 	typedef typename _Val_types::const_reference const_reference;
; 563  : 
; 564  : 	typedef _Tree_const_iterator<_Myt> const_iterator;
; 565  : 	typedef _Tree_iterator<_Myt> iterator;
; 566  : 
; 567  : 	_Tree_val()
; 568  : 		{	// initialize data
; 569  : 		this->_Myhead = 0;
; 570  : 		this->_Mysize = 0;
; 571  : 		}
; 572  : 
; 573  : 	enum _Redbl
; 574  : 		{	// colors for link to parent
; 575  : 		_Red, _Black};
; 576  : 
; 577  : 	static char& _Color(_Nodeptr _Pnode)
; 578  : 		{	// return reference to color in node
; 579  : 		return ((char&)_Pnode->_Color);
; 580  : 		}
; 581  : 
; 582  : 	static char& _Isnil(_Nodeptr _Pnode)
; 583  : 		{	// return reference to nil flag in node
; 584  : 		return ((char&)_Pnode->_Isnil);
; 585  : 		}
; 586  : 
; 587  : 	static _Nodepref _Left(_Nodeptr _Pnode)
; 588  : 		{	// return reference to left pointer in node
; 589  : 		return ((_Nodepref)_Pnode->_Left);
; 590  : 		}
; 591  : 
; 592  : 	static _Nodepref _Parent(_Nodeptr _Pnode)
; 593  : 		{	// return reference to parent pointer in node
; 594  : 		return ((_Nodepref)_Pnode->_Parent);

	mov	r9, QWORD PTR [rcx]

; 1577 : 
; 1578 : 	const_iterator lower_bound(const key_type& _Keyval) const
; 1579 : 		{	// find leftmost node not less than _Keyval in nonmutable tree
; 1580 : 		return (const_iterator(_Lbound(_Keyval), this));
; 1581 : 		}
; 1582 : 
; 1583 : 	iterator upper_bound(const key_type& _Keyval)
; 1584 : 		{	// find leftmost node greater than _Keyval in mutable tree
; 1585 : 		return (iterator(_Ubound(_Keyval), this));
; 1586 : 		}
; 1587 : 
; 1588 : 	const_iterator upper_bound(const key_type& _Keyval) const
; 1589 : 		{	// find leftmost node greater than _Keyval in nonmutable tree
; 1590 : 		return (const_iterator(_Ubound(_Keyval), this));
; 1591 : 		}
; 1592 : 
; 1593 : 	_Pairii equal_range(const key_type& _Keyval)
; 1594 : 		{	// find range equivalent to _Keyval in mutable tree
; 1595 : 		return (_Eqrange(_Keyval));
; 1596 : 		}
; 1597 : 
; 1598 : 	_Paircc equal_range(const key_type& _Keyval) const
; 1599 : 		{	// find range equivalent to _Keyval in nonmutable tree
; 1600 : 		return (_Eqrange(_Keyval));
; 1601 : 		}
; 1602 : 
; 1603 : 	void swap(_Myt& _Right)
; 1604 : 		{	// exchange contents with _Right
; 1605 : 		if (this == &_Right)
; 1606 : 			;	// same object, do nothing
; 1607 : 		else if (this->_Getal() == _Right._Getal())
; 1608 : 			{	// same allocator, swap control information
; 1609 : 			this->_Swap_all(_Right);
; 1610 : 			this->_Swapcomp(_Right._Getcomp());
; 1611 : 			_Swap_adl(this->_Myhead, _Right._Myhead);
; 1612 : 			_STD swap(this->_Mysize, _Right._Mysize);
; 1613 : 			}
; 1614 : 
; 1615 : 		else if (_Alty::propagate_on_container_swap::value)
; 1616 : 			{	// swap allocators and control information
; 1617 : 			this->_Swap_alloc(_Right);
; 1618 : 			this->_Swapcomp(_Right._Getcomp());
; 1619 : 			_Swap_adl(this->_Myhead, _Right._Myhead);
; 1620 : 			_STD swap(this->_Mysize, _Right._Mysize);
; 1621 : 			}
; 1622 : 
; 1623 : 		else
; 1624 : 			{	// containers are incompatible
; 1625 :  #if _ITERATOR_DEBUG_LEVEL == 2
; 1626 : 			_DEBUG_ERROR("map/set containers incompatible for swap");
; 1627 : 
; 1628 :  #else /* ITERATOR_DEBUG_LEVEL == 2 */
; 1629 : 			_XSTD terminate();
; 1630 :  #endif /* ITERATOR_DEBUG_LEVEL == 2 */
; 1631 : 			}
; 1632 : 		}
; 1633 : 
; 1634 : protected:
; 1635 : 	template<class _Valty>
; 1636 : 		_Nodeptr _Buynode_if_nil(_Nodeptr _Node, _Valty&&)
; 1637 : 		{	// node exists, just return it
; 1638 : 		return (_Node);
; 1639 : 		}
; 1640 : 
; 1641 : 	template<class _Valty>
; 1642 : 		_Nodeptr _Buynode_if_nil(_Nil, _Valty&& _Val)
; 1643 : 		{	// node doesn't exist, make it
; 1644 : 		return (this->_Buynode(_STD forward<_Valty>(_Val)));
; 1645 : 		}
; 1646 : 
; 1647 : 	void _Destroy_if_not_nil(_Nodeptr _Newnode)
; 1648 : 		{	// node exists, destroy it
; 1649 : 		this->_Getal().destroy(
; 1650 : 			_STD addressof(this->_Myval(_Newnode)));
; 1651 : 
; 1652 : 		this->_Getal().deallocate(_Newnode, 1);
; 1653 : 		}
; 1654 : 
; 1655 : 	void _Destroy_if_not_nil(_Nil)
; 1656 : 		{	// node doesn't exist, do nothing
; 1657 : 		}
; 1658 : 
; 1659 : 	template<class _Valty,
; 1660 : 		class _Nodety>
; 1661 : 		iterator _Insert_hint(const_iterator _Where,
; 1662 : 			_Valty&& _Val, _Nodety _Newnode)
; 1663 : 		{	// try to insert node using _Where as a hint
; 1664 : 		const_iterator _Next;
; 1665 : 		bool _Leftish = false;	// assume nearest point is end of sequence
; 1666 : 
; 1667 : 		_TRY_BEGIN
; 1668 : 
; 1669 :  #if _ITERATOR_DEBUG_LEVEL == 2
; 1670 : 		if (_Where._Getcont() != this)
; 1671 : 			_DEBUG_ERROR("map/set insert iterator outside range");
; 1672 :  #endif /* _ITERATOR_DEBUG_LEVEL == 2 */
; 1673 : 
; 1674 : 		if (size() == 0)
; 1675 : 			return (_Insert_at(true, this->_Myhead,
; 1676 : 				_STD forward<_Valty>(_Val), _Newnode));	// empty tree
; 1677 : 		else if (this->_Multi)
; 1678 : 			{	// insert even if duplicate
; 1679 : 			if (_Where == begin())
; 1680 : 				{	// insert at beginning if before first element
; 1681 : 				if (!_DEBUG_LT_PRED(this->_Getcomp(),
; 1682 : 					this->_Key(_Where._Mynode()), this->_Kfn(_Val)))
; 1683 : 					return (_Insert_at(true, _Where._Mynode(),
; 1684 : 						_STD forward<_Valty>(_Val), _Newnode));
; 1685 : 				_Leftish = true;	// nearest point is beginning of sequence
; 1686 : 				}
; 1687 : 			else if (_Where == end())
; 1688 : 				{	// insert at end if after last element
; 1689 : 				if (!_DEBUG_LT_PRED(this->_Getcomp(),
; 1690 : 					this->_Kfn(_Val), this->_Key(_Rmost())))
; 1691 : 					return (_Insert_at(false, _Rmost(),
; 1692 : 						_STD forward<_Valty>(_Val), _Newnode));
; 1693 : 				}
; 1694 : 			else if (!_DEBUG_LT_PRED(this->_Getcomp(),
; 1695 : 				this->_Key(_Where._Mynode()), this->_Kfn(_Val))
; 1696 : 				&& !_DEBUG_LT_PRED(this->_Getcomp(),
; 1697 : 					this->_Kfn(_Val),
; 1698 : 					this->_Key((--(_Next = _Where))._Mynode())))
; 1699 : 				{	// insert before _Where
; 1700 : 				if (this->_Isnil(this->_Right(_Next._Mynode())))
; 1701 : 					return (_Insert_at(false, _Next._Mynode(),
; 1702 : 						_STD forward<_Valty>(_Val), _Newnode));
; 1703 : 				else
; 1704 : 					return (_Insert_at(true, _Where._Mynode(),
; 1705 : 						_STD forward<_Valty>(_Val), _Newnode));
; 1706 : 				}
; 1707 : 			else if (!_DEBUG_LT_PRED(this->_Getcomp(),
; 1708 : 				this->_Kfn(_Val), this->_Key(_Where._Mynode()))
; 1709 : 				&& (++(_Next = _Where) == end()
; 1710 : 					|| !_DEBUG_LT_PRED(this->_Getcomp(),
; 1711 : 						this->_Key(_Next._Mynode()), this->_Kfn(_Val))))
; 1712 : 				{	// insert after _Where
; 1713 : 				if (this->_Isnil(this->_Right(_Where._Mynode())))
; 1714 : 					return (_Insert_at(false, _Where._Mynode(),
; 1715 : 						_STD forward<_Valty>(_Val), _Newnode));
; 1716 : 				else
; 1717 : 					return (_Insert_at(true, _Next._Mynode(),
; 1718 : 						_STD forward<_Valty>(_Val), _Newnode));
; 1719 : 				}
; 1720 : 			else
; 1721 : 				_Leftish = true;	// nearest point is beginning of sequence
; 1722 : 			}
; 1723 : 		else
; 1724 : 			{	// insert only if unique
; 1725 : 			if (_Where == begin())
; 1726 : 				{	// insert at beginning if before first element
; 1727 : 				if (_DEBUG_LT_PRED(this->_Getcomp(),
; 1728 : 					this->_Kfn(_Val), this->_Key(_Where._Mynode())))
; 1729 : 					return (_Insert_at(true, _Where._Mynode(),
; 1730 : 						_STD forward<_Valty>(_Val), _Newnode));
; 1731 : 				}
; 1732 : 			else if (_Where == end())
; 1733 : 				{	// insert at end if after last element
; 1734 : 				if (_DEBUG_LT_PRED(this->_Getcomp(),
; 1735 : 					this->_Key(_Rmost()), this->_Kfn(_Val)))
; 1736 : 					return (_Insert_at(false, _Rmost(),
; 1737 : 						_STD forward<_Valty>(_Val), _Newnode));
; 1738 : 				}
; 1739 : 			else if (_DEBUG_LT_PRED(this->_Getcomp(),
; 1740 : 				this->_Kfn(_Val), this->_Key(_Where._Mynode()))
; 1741 : 				&& _DEBUG_LT_PRED(this->_Getcomp(),
; 1742 : 					this->_Key((--(_Next = _Where))._Mynode()),
; 1743 : 					this->_Kfn(_Val)))
; 1744 : 				{	// insert before _Where
; 1745 : 				if (this->_Isnil(this->_Right(_Next._Mynode())))
; 1746 : 					return (_Insert_at(false, _Next._Mynode(),
; 1747 : 						_STD forward<_Valty>(_Val), _Newnode));
; 1748 : 				else
; 1749 : 					return (_Insert_at(true, _Where._Mynode(),
; 1750 : 						_STD forward<_Valty>(_Val), _Newnode));
; 1751 : 				}
; 1752 : 			else if (_DEBUG_LT_PRED(this->_Getcomp(),
; 1753 : 				this->_Key(_Where._Mynode()), this->_Kfn(_Val))
; 1754 : 				&& (++(_Next = _Where) == end()
; 1755 : 					|| _DEBUG_LT_PRED(this->_Getcomp(),
; 1756 : 						this->_Kfn(_Val), this->_Key(_Next._Mynode()))))
; 1757 : 				{	// insert after _Where
; 1758 : 				if (this->_Isnil(this->_Right(_Where._Mynode())))
; 1759 : 					return (_Insert_at(false, _Where._Mynode(),
; 1760 : 						_STD forward<_Valty>(_Val), _Newnode));
; 1761 : 				else
; 1762 : 					return (_Insert_at(true, _Next._Mynode(),
; 1763 : 						_STD forward<_Valty>(_Val), _Newnode));
; 1764 : 				}
; 1765 : 			}
; 1766 : 		_CATCH_ALL
; 1767 : 		_Destroy_if_not_nil(_Newnode);
; 1768 : 		_RERAISE;
; 1769 : 		_CATCH_END
; 1770 : 
; 1771 : 		return (_Insert_nohint(_Leftish,
; 1772 : 			_STD forward<_Valty>(_Val), _Newnode).first);
; 1773 : 		}
; 1774 : 
; 1775 : 	template<class _Valty,
; 1776 : 		class _Nodety>
; 1777 : 		_Pairib _Insert_nohint(bool _Leftish,
; 1778 : 			_Valty&& _Val, _Nodety _Newnode)
; 1779 : 		{	// try to insert node, on left if _Leftish
; 1780 : 		_TRY_BEGIN
; 1781 : 		_Nodeptr _Trynode = _Root();
; 1782 : 		_Nodeptr _Wherenode = this->_Myhead;
; 1783 : 		bool _Addleft = true;	// add to left of head if tree empty
; 1784 : 
; 1785 : 		while (!this->_Isnil(_Trynode))
; 1786 : 			{	// look for leaf to insert before (_Addleft) or after
; 1787 : 			_Wherenode = _Trynode;
; 1788 : 			if (_Leftish)
; 1789 : 				_Addleft = !_DEBUG_LT_PRED(this->_Getcomp(),
; 1790 : 					this->_Key(_Trynode),
; 1791 : 					this->_Kfn(_Val));	// favor left end
; 1792 : 			else
; 1793 : 				_Addleft = _DEBUG_LT_PRED(this->_Getcomp(),
; 1794 : 					this->_Kfn(_Val),
; 1795 : 					this->_Key(_Trynode));	// favor right end
; 1796 : 			_Trynode = _Addleft ? this->_Left(_Trynode)
; 1797 : 				: this->_Right(_Trynode);
; 1798 : 			}
; 1799 : 
; 1800 : 		if (this->_Multi)
; 1801 : 			return (_Pairib(_Insert_at(_Addleft, _Wherenode,
; 1802 : 				_STD forward<_Valty>(_Val), _Newnode), true));
; 1803 : 		else
; 1804 : 			{	// insert only if unique
; 1805 : 			iterator _Where = iterator(_Wherenode, this);
; 1806 : 			if (!_Addleft)
; 1807 : 				;	// need to test if insert after is okay
; 1808 : 			else if (_Where == begin())
; 1809 : 				return (_Pairib(_Insert_at(true, _Wherenode,
; 1810 : 					_STD forward<_Valty>(_Val), _Newnode), true));
; 1811 : 			else
; 1812 : 				--_Where;	// need to test if insert before is okay
; 1813 : 
; 1814 : 			if (_DEBUG_LT_PRED(this->_Getcomp(),
; 1815 : 				this->_Key(_Where._Mynode()),
; 1816 : 				this->_Kfn(_Val)))
; 1817 : 				return (_Pairib(_Insert_at(_Addleft, _Wherenode,
; 1818 : 					_STD forward<_Valty>(_Val), _Newnode), true));
; 1819 : 			else
; 1820 : 				{	// duplicate, don't insert
; 1821 : 				_Destroy_if_not_nil(_Newnode);
; 1822 : 				return (_Pairib(_Where, false));
; 1823 : 				}
; 1824 : 			}
; 1825 : 		_CATCH_ALL
; 1826 : 		_Destroy_if_not_nil(_Newnode);
; 1827 : 		_RERAISE;
; 1828 : 		_CATCH_END
; 1829 : 		}
; 1830 : 
; 1831 : 	template<class _Valty,
; 1832 : 		class _Nodety>
; 1833 : 		iterator _Insert_at(bool _Addleft, _Nodeptr _Wherenode,
; 1834 : 		_Valty&& _Val, _Nodety _Node)
; 1835 : 		{	// add node with value next to _Wherenode, to left if _Addleft
; 1836 : 		if (max_size() - 1 <= this->_Mysize)
; 1837 : 			{	// tree would get too big, fail
; 1838 : 			_Destroy_if_not_nil(_Node);
; 1839 : 			_Xlength_error("map/set<T> too long");
; 1840 : 			}
; 1841 : 		_Nodeptr _Newnode = _Buynode_if_nil(_Node,
; 1842 : 			_STD forward<_Valty>(_Val));
; 1843 : 
; 1844 : 		++this->_Mysize;
; 1845 : 		_Newnode->_Parent = _Wherenode;
; 1846 : 
; 1847 : 		if (_Wherenode == this->_Myhead)
; 1848 : 			{	// first node in tree, just set head values
; 1849 : 			_Root() = _Newnode;
; 1850 : 			_Lmost() = _Newnode;
; 1851 : 			_Rmost() = _Newnode;
; 1852 : 			}
; 1853 : 		else if (_Addleft)
; 1854 : 			{	// add to left of _Wherenode
; 1855 : 			this->_Left(_Wherenode) = _Newnode;
; 1856 : 			if (_Wherenode == _Lmost())
; 1857 : 				_Lmost() = _Newnode;
; 1858 : 			}
; 1859 : 		else
; 1860 : 			{	// add to right of _Wherenode
; 1861 : 			this->_Right(_Wherenode) = _Newnode;
; 1862 : 			if (_Wherenode == _Rmost())
; 1863 : 				_Rmost() = _Newnode;
; 1864 : 			}
; 1865 : 
; 1866 : 		for (_Nodeptr _Pnode = _Newnode;
; 1867 : 			this->_Color(this->_Parent(_Pnode)) == this->_Red; )
; 1868 : 			if (this->_Parent(_Pnode)
; 1869 : 				== this->_Left(this->_Parent(this->_Parent(_Pnode))))
; 1870 : 				{	// fixup red-red in left subtree
; 1871 : 				_Wherenode =
; 1872 : 					this->_Right(this->_Parent(this->_Parent(_Pnode)));
; 1873 : 				if (this->_Color(_Wherenode) == this->_Red)
; 1874 : 					{	// parent has two red children, blacken both
; 1875 : 					this->_Color(this->_Parent(_Pnode)) = this->_Black;
; 1876 : 					this->_Color(_Wherenode) = this->_Black;
; 1877 : 					this->_Color(this->_Parent(this->_Parent(_Pnode)))
; 1878 : 						= this->_Red;
; 1879 : 					_Pnode = this->_Parent(this->_Parent(_Pnode));
; 1880 : 					}
; 1881 : 				else
; 1882 : 					{	// parent has red and black children
; 1883 : 					if (_Pnode == this->_Right(this->_Parent(_Pnode)))
; 1884 : 						{	// rotate right child to left
; 1885 : 						_Pnode = this->_Parent(_Pnode);
; 1886 : 						_Lrotate(_Pnode);
; 1887 : 						}
; 1888 : 					this->_Color(this->_Parent(_Pnode)) =
; 1889 : 						this->_Black;	// propagate red up
; 1890 : 					this->_Color(this->_Parent(this->_Parent(_Pnode))) =
; 1891 : 						this->_Red;
; 1892 : 					_Rrotate(this->_Parent(this->_Parent(_Pnode)));
; 1893 : 					}
; 1894 : 				}
; 1895 : 			else
; 1896 : 				{	// fixup red-red in right subtree
; 1897 : 				_Wherenode =
; 1898 : 					this->_Left(this->_Parent(this->_Parent(_Pnode)));
; 1899 : 				if (this->_Color(_Wherenode) == this->_Red)
; 1900 : 					{	// parent has two red children, blacken both
; 1901 : 					this->_Color(this->_Parent(_Pnode)) = this->_Black;
; 1902 : 					this->_Color(_Wherenode) = this->_Black;
; 1903 : 					this->_Color(this->_Parent(this->_Parent(_Pnode))) =
; 1904 : 						this->_Red;
; 1905 : 					_Pnode = this->_Parent(this->_Parent(_Pnode));
; 1906 : 					}
; 1907 : 				else
; 1908 : 					{	// parent has red and black children
; 1909 : 					if (_Pnode == this->_Left(this->_Parent(_Pnode)))
; 1910 : 						{	// rotate left child to right
; 1911 : 						_Pnode = this->_Parent(_Pnode);
; 1912 : 						_Rrotate(_Pnode);
; 1913 : 						}
; 1914 : 					this->_Color(this->_Parent(_Pnode)) =
; 1915 : 						this->_Black;	// propagate red up
; 1916 : 					this->_Color(this->_Parent(this->_Parent(_Pnode))) =
; 1917 : 						this->_Red;
; 1918 : 					_Lrotate(this->_Parent(this->_Parent(_Pnode)));
; 1919 : 					}
; 1920 : 				}
; 1921 : 
; 1922 : 		this->_Color(_Root()) = this->_Black;	// root is always black
; 1923 : 		return (iterator(_Newnode, this));
; 1924 : 		}
; 1925 : 
; 1926 : 	template<class _Moveit>
; 1927 : 		void _Copy(const _Myt& _Right,
; 1928 : 			_Moveit _Movefl)
; 1929 : 		{	// copy or move entire tree from _Right
; 1930 : 		_Root() = _Copy_nodes(_Right._Root(), this->_Myhead, _Movefl);
; 1931 : 		this->_Mysize = _Right.size();
; 1932 : 		if (!this->_Isnil(_Root()))
; 1933 : 			{	// nonempty tree, look for new smallest and largest
; 1934 : 			_Lmost() = this->_Min(_Root());
; 1935 : 			_Rmost() = this->_Max(_Root());
; 1936 : 			}
; 1937 : 		else
; 1938 : 			{	// empty tree, just tidy head pointers
; 1939 : 			_Lmost() = this->_Myhead;
; 1940 : 			_Rmost() = this->_Myhead;
; 1941 : 			}
; 1942 : 		}
; 1943 : 
; 1944 : 	template<class _Want_to_move,
; 1945 : 		class _Can_move,
; 1946 : 		class _Is_set,
; 1947 : 		class _Dummy>
; 1948 : 		_Nodeptr _Copy_or_move(_Nodeptr _Rootnode, _Want_to_move,
; 1949 : 			_Can_move, _Is_set, _Dummy)
; 1950 : 		{	// copy to new node -- nonmovable
; 1951 : 		return (this->_Buynode(this->_Myval(_Rootnode)));
; 1952 : 		}
; 1953 : 
; 1954 : 	template<class _Dummy>
; 1955 : 		_Nodeptr _Copy_or_move(_Nodeptr _Rootnode, true_type,
; 1956 : 			true_type, true_type, _Dummy)
; 1957 : 		{	// move to new node -- movable, set
; 1958 : 		return (this->_Buynode(
; 1959 : 			_STD forward<value_type>(this->_Myval(_Rootnode))));
; 1960 : 		}
; 1961 : 
; 1962 : 	template<class _Dummy>
; 1963 : 		_Nodeptr _Copy_or_move(_Nodeptr _Rootnode, true_type,
; 1964 : 			true_type, false_type, _Dummy)
; 1965 : 		{	// move to new node -- movable, map
; 1966 : 		return (this->_Buynode(
; 1967 : 			_STD forward<key_type>(const_cast<key_type&>(
; 1968 : 				this->_Myval(_Rootnode).first)),
; 1969 : 			_STD forward<typename value_type::second_type>(this->_Myval(
; 1970 : 				_Rootnode).second)));
; 1971 : 		}
; 1972 : 
; 1973 : 	template<class _Moveit>
; 1974 : 		_Nodeptr _Copy_nodes(_Nodeptr _Rootnode, _Nodeptr _Wherenode,
; 1975 : 			_Moveit _Movefl)
; 1976 : 		{	// copy entire subtree, recursively
; 1977 : 		_Nodeptr _Newroot = this->_Myhead;	// point at nil node
; 1978 : 
; 1979 : 		if (!this->_Isnil(_Rootnode))
; 1980 : 			{	// copy or move a node, then any subtrees
; 1981 : 			_Nodeptr _Pnode = _Copy_or_move(_Rootnode, _Movefl,
; 1982 : 				typename is_move_constructible<value_type>::type(),
; 1983 : 				typename is_same<key_type, value_type>::type(), 0);
; 1984 : 			_Pnode->_Parent = _Wherenode;
; 1985 : 			_Pnode->_Color = this->_Color(_Rootnode);
; 1986 : 			if (this->_Isnil(_Newroot))
; 1987 : 				_Newroot = _Pnode;	// memorize new root
; 1988 : 
; 1989 : 			_TRY_BEGIN
; 1990 : 			this->_Left(_Pnode) =
; 1991 : 				_Copy_nodes(this->_Left(_Rootnode), _Pnode, _Movefl);
; 1992 : 			this->_Right(_Pnode) =
; 1993 : 				_Copy_nodes(this->_Right(_Rootnode), _Pnode, _Movefl);
; 1994 : 			_CATCH_ALL
; 1995 : 			_Erase(_Newroot);	// subtree copy failed, bail out
; 1996 : 			_RERAISE;
; 1997 : 			_CATCH_END
; 1998 : 			}
; 1999 : 
; 2000 : 		return (_Newroot);	// return newly constructed tree
; 2001 : 		}
; 2002 : 
; 2003 : 	_Paircc _Eqrange(const key_type& _Keyval) const
; 2004 : 		{	// find leftmost node not less than _Keyval
; 2005 : 		_Nodeptr _Pnode = _Root();
; 2006 : 		_Nodeptr _Lonode = this->_Myhead;	// end() if search fails
; 2007 : 		_Nodeptr _Hinode = this->_Myhead;	// end() if search fails
; 2008 : 
; 2009 : 		while (!this->_Isnil(_Pnode))
; 2010 : 			if (_DEBUG_LT_PRED(this->_Getcomp(), this->_Key(_Pnode), _Keyval))
; 2011 : 				_Pnode = this->_Right(_Pnode);	// descend right subtree
; 2012 : 			else
; 2013 : 				{	// _Pnode not less than _Keyval, remember it
; 2014 : 				if (this->_Isnil(_Hinode)
; 2015 : 						&& _DEBUG_LT_PRED(this->_Getcomp(), _Keyval,
; 2016 : 						this->_Key(_Pnode)))
; 2017 : 					_Hinode = _Pnode;	// _Pnode greater, remember it
; 2018 : 				_Lonode = _Pnode;
; 2019 : 				_Pnode = this->_Left(_Pnode);	// descend left subtree
; 2020 : 				}
; 2021 : 
; 2022 : 		_Pnode = this->_Isnil(_Hinode) ? _Root()
; 2023 : 			: this->_Left(_Hinode);	// continue scan for upper bound
; 2024 : 		while (!this->_Isnil(_Pnode))
; 2025 : 			if (_DEBUG_LT_PRED(this->_Getcomp(), _Keyval, this->_Key(_Pnode)))
; 2026 : 				{	// _Pnode greater than _Keyval, remember it
; 2027 : 				_Hinode = _Pnode;
; 2028 : 				_Pnode = this->_Left(_Pnode);	// descend left subtree
; 2029 : 				}
; 2030 : 			else
; 2031 : 				_Pnode = this->_Right(_Pnode);	// descend right subtree
; 2032 : 
; 2033 : 		const_iterator _First = const_iterator(_Lonode, this);
; 2034 : 		const_iterator _Last = const_iterator(_Hinode, this);
; 2035 : 		return (_Paircc(_First, _Last));
; 2036 : 		}
; 2037 : 
; 2038 : 	_Pairii _Eqrange(const key_type& _Keyval)
; 2039 : 		{	// find leftmost node not less than _Keyval
; 2040 : 		_Nodeptr _Pnode = _Root();
; 2041 : 		_Nodeptr _Lonode = this->_Myhead;	// end() if search fails
; 2042 : 		_Nodeptr _Hinode = this->_Myhead;	// end() if search fails
; 2043 : 
; 2044 : 		while (!this->_Isnil(_Pnode))
; 2045 : 			if (_DEBUG_LT_PRED(this->_Getcomp(), this->_Key(_Pnode), _Keyval))
; 2046 : 				_Pnode = this->_Right(_Pnode);	// descend right subtree
; 2047 : 			else
; 2048 : 				{	// _Pnode not less than _Keyval, remember it
; 2049 : 				if (this->_Isnil(_Hinode)
; 2050 : 						&& _DEBUG_LT_PRED(this->_Getcomp(), _Keyval,
; 2051 : 						 this->_Key(_Pnode)))
; 2052 : 					_Hinode = _Pnode;	// _Pnode greater, remember it
; 2053 : 				_Lonode = _Pnode;
; 2054 : 				_Pnode = this->_Left(_Pnode);	// descend left subtree
; 2055 : 				}
; 2056 : 
; 2057 : 		_Pnode = this->_Isnil(_Hinode) ? _Root()
; 2058 : 			: this->_Left(_Hinode);	// continue scan for upper bound
; 2059 : 		while (!this->_Isnil(_Pnode))
; 2060 : 			if (_DEBUG_LT_PRED(this->_Getcomp(), _Keyval, this->_Key(_Pnode)))
; 2061 : 				{	// _Pnode greater than _Keyval, remember it
; 2062 : 				_Hinode = _Pnode;
; 2063 : 				_Pnode = this->_Left(_Pnode);	// descend left subtree
; 2064 : 				}
; 2065 : 			else
; 2066 : 				_Pnode = this->_Right(_Pnode);	// descend right subtree
; 2067 : 
; 2068 : 		iterator _First = iterator(_Lonode, this);
; 2069 : 		iterator _Last = iterator(_Hinode, this);
; 2070 : 		return (_Pairii(_First, _Last));
; 2071 : 		}
; 2072 : 
; 2073 : 	void _Erase(_Nodeptr _Rootnode)
; 2074 : 		{	// free entire subtree, recursively
; 2075 : 		for (_Nodeptr _Pnode = _Rootnode;
; 2076 : 			!this->_Isnil(_Pnode); _Rootnode = _Pnode)
; 2077 : 			{	// free subtrees, then node
; 2078 : 			_Erase(this->_Right(_Pnode));
; 2079 : 			_Pnode = this->_Left(_Pnode);
; 2080 : 			this->_Getal().destroy(
; 2081 : 				_STD addressof(this->_Myval(_Rootnode)));
; 2082 : 
; 2083 : 			this->_Getal().deallocate(_Rootnode, 1);
; 2084 : 			}
; 2085 : 		}
; 2086 : 
; 2087 : 	_Nodeptr _Lbound(const key_type& _Keyval) const
; 2088 : 		{	// find leftmost node not less than _Keyval
; 2089 : 		_Nodeptr _Pnode = _Root();
; 2090 : 		_Nodeptr _Wherenode = this->_Myhead;	// end() if search fails
; 2091 : 
; 2092 : 		while (!this->_Isnil(_Pnode))
; 2093 : 			if (_DEBUG_LT_PRED(this->_Getcomp(), this->_Key(_Pnode), _Keyval))
; 2094 : 				_Pnode = this->_Right(_Pnode);	// descend right subtree
; 2095 : 			else
; 2096 : 				{	// _Pnode not less than _Keyval, remember it
; 2097 : 				_Wherenode = _Pnode;
; 2098 : 				_Pnode = this->_Left(_Pnode);	// descend left subtree
; 2099 : 				}
; 2100 : 
; 2101 : 		return (_Wherenode);	// return best remembered candidate
; 2102 : 		}
; 2103 : 
; 2104 : 	_Nodeptr _Lbound(const key_type& _Keyval)
; 2105 : 		{	// find leftmost node not less than _Keyval
; 2106 : 		_Nodeptr _Pnode = _Root();

	mov	rax, QWORD PTR [r9+8]

; 2107 : 		_Nodeptr _Wherenode = this->_Myhead;	// end() if search fails
; 2108 : 
; 2109 : 		while (!this->_Isnil(_Pnode))

	cmp	BYTE PTR [rax+25], 0
	jne	SHORT $LN40@lower_boun
; File c:\users\nummer\documents\github\olr-3.0\src\xray\xrcore\xrstring.h

; 19   : 	IC bool		operator ()	(const str_value* A, const str_value* B) const	{ return A->dwCRC<B->dwCRC;	};

	mov	rcx, QWORD PTR [r8]
	mov	r8d, DWORD PTR [rcx+8]
$LL6@lower_boun:
	mov	rcx, QWORD PTR [rax+32]
	cmp	DWORD PTR [rcx+8], r8d
; File c:\program files (x86)\microsoft visual studio 12.0\vc\include\xtree

; 2110 : 			if (_DEBUG_LT_PRED(this->_Getcomp(), this->_Key(_Pnode), _Keyval))

	jae	SHORT $LN4@lower_boun

; 2111 : 				_Pnode = this->_Right(_Pnode);	// descend right subtree

	mov	rax, QWORD PTR [rax+16]

; 2112 : 			else

	jmp	SHORT $LN3@lower_boun
$LN4@lower_boun:

; 2113 : 				{	// _Pnode not less than _Keyval, remember it
; 2114 : 				_Wherenode = _Pnode;

	mov	r9, rax

; 2115 : 				_Pnode = this->_Left(_Pnode);	// descend left subtree

	mov	rax, QWORD PTR [rax]
$LN3@lower_boun:

; 2107 : 		_Nodeptr _Wherenode = this->_Myhead;	// end() if search fails
; 2108 : 
; 2109 : 		while (!this->_Isnil(_Pnode))

	cmp	BYTE PTR [rax+25], 0
	je	SHORT $LL6@lower_boun
$LN40@lower_boun:

; 1575 : 		return (iterator(_Lbound(_Keyval), this));

	mov	rax, rdx

; 44   : 		{	// construct with node pointer _Pnode

	mov	QWORD PTR [rdx], r9

; 1576 : 		}

	ret	0
?lower_bound@?$_Tree@V?$_Tset_traits@PEAUstr_value@@Ustr_value_cmp@@V?$xalloc@PEAUstr_value@@@@$00@std@@@std@@QEAA?AV?$_Tree_const_iterator@V?$_Tree_val@U?$_Tree_simple_types@PEAUstr_value@@@std@@@std@@@2@AEBQEAUstr_value@@@Z ENDP ; std::_Tree<std::_Tset_traits<str_value * __ptr64,str_value_cmp,xalloc<str_value * __ptr64>,1> >::lower_bound
_TEXT	ENDS
; Function compile flags: /Ogtpy
; File c:\program files (x86)\microsoft visual studio 12.0\vc\include\xtree
;	COMDAT ?_Key@?$_Tree@V?$_Tset_traits@PEAUstr_value@@Ustr_value_cmp@@V?$xalloc@PEAUstr_value@@@@$00@std@@@std@@IEBAAEBQEAUstr_value@@PEAU?$_Tree_node@PEAUstr_value@@PEAX@2@@Z
_TEXT	SEGMENT
this$dead$ = 8
_Pnode$ = 16
?_Key@?$_Tree@V?$_Tset_traits@PEAUstr_value@@Ustr_value_cmp@@V?$xalloc@PEAUstr_value@@@@$00@std@@@std@@IEBAAEBQEAUstr_value@@PEAU?$_Tree_node@PEAUstr_value@@PEAX@2@@Z PROC ; std::_Tree<std::_Tset_traits<str_value * __ptr64,str_value_cmp,xalloc<str_value * __ptr64>,1> >::_Key, COMDAT

; 604  : 		return ((reference)_Pnode->_Myval);

	lea	rax, QWORD PTR [rdx+32]

; 2240 : 		return ((const key_type&)this->_Kfn(this->_Myval(_Pnode)));
; 2241 : 		}

	ret	0
?_Key@?$_Tree@V?$_Tset_traits@PEAUstr_value@@Ustr_value_cmp@@V?$xalloc@PEAUstr_value@@@@$00@std@@@std@@IEBAAEBQEAUstr_value@@PEAU?$_Tree_node@PEAUstr_value@@PEAX@2@@Z ENDP ; std::_Tree<std::_Tset_traits<str_value * __ptr64,str_value_cmp,xalloc<str_value * __ptr64>,1> >::_Key
_TEXT	ENDS
; Function compile flags: /Ogtpy
; File c:\program files (x86)\microsoft visual studio 12.0\vc\include\xtree
; File c:\users\nummer\documents\github\olr-3.0\src\xray\xrcore\xrstring.h
; File c:\program files (x86)\microsoft visual studio 12.0\vc\include\xtree
;	COMDAT ?_Lbound@?$_Tree@V?$_Tset_traits@PEAUstr_value@@Ustr_value_cmp@@V?$xalloc@PEAUstr_value@@@@$00@std@@@std@@IEAAPEAU?$_Tree_node@PEAUstr_value@@PEAX@2@AEBQEAUstr_value@@@Z
_TEXT	SEGMENT
this$ = 8
_Keyval$ = 16
?_Lbound@?$_Tree@V?$_Tset_traits@PEAUstr_value@@Ustr_value_cmp@@V?$xalloc@PEAUstr_value@@@@$00@std@@@std@@IEAAPEAU?$_Tree_node@PEAUstr_value@@PEAX@2@AEBQEAUstr_value@@@Z PROC ; std::_Tree<std::_Tset_traits<str_value * __ptr64,str_value_cmp,xalloc<str_value * __ptr64>,1> >::_Lbound, COMDAT

; 594  : 		return ((_Nodepref)_Pnode->_Parent);

	mov	r8, QWORD PTR [rcx]

; 2106 : 		_Nodeptr _Pnode = _Root();

	mov	rax, QWORD PTR [r8+8]

; 2107 : 		_Nodeptr _Wherenode = this->_Myhead;	// end() if search fails
; 2108 : 
; 2109 : 		while (!this->_Isnil(_Pnode))

	cmp	BYTE PTR [rax+25], 0
	jne	SHORT $LN32@Lbound
; File c:\users\nummer\documents\github\olr-3.0\src\xray\xrcore\xrstring.h

; 19   : 	IC bool		operator ()	(const str_value* A, const str_value* B) const	{ return A->dwCRC<B->dwCRC;	};

	mov	rcx, QWORD PTR [rdx]
	mov	edx, DWORD PTR [rcx+8]
$LL4@Lbound:
	mov	rcx, QWORD PTR [rax+32]
	cmp	DWORD PTR [rcx+8], edx
; File c:\program files (x86)\microsoft visual studio 12.0\vc\include\xtree

; 2110 : 			if (_DEBUG_LT_PRED(this->_Getcomp(), this->_Key(_Pnode), _Keyval))

	jae	SHORT $LN2@Lbound

; 2111 : 				_Pnode = this->_Right(_Pnode);	// descend right subtree

	mov	rax, QWORD PTR [rax+16]

; 2112 : 			else

	jmp	SHORT $LN1@Lbound
$LN2@Lbound:

; 2113 : 				{	// _Pnode not less than _Keyval, remember it
; 2114 : 				_Wherenode = _Pnode;

	mov	r8, rax

; 2115 : 				_Pnode = this->_Left(_Pnode);	// descend left subtree

	mov	rax, QWORD PTR [rax]
$LN1@Lbound:

; 2107 : 		_Nodeptr _Wherenode = this->_Myhead;	// end() if search fails
; 2108 : 
; 2109 : 		while (!this->_Isnil(_Pnode))

	cmp	BYTE PTR [rax+25], 0
	je	SHORT $LL4@Lbound
$LN32@Lbound:

; 2116 : 				}
; 2117 : 
; 2118 : 		return (_Wherenode);	// return best remembered candidate

	mov	rax, r8

; 2119 : 		}

	ret	0
?_Lbound@?$_Tree@V?$_Tset_traits@PEAUstr_value@@Ustr_value_cmp@@V?$xalloc@PEAUstr_value@@@@$00@std@@@std@@IEAAPEAU?$_Tree_node@PEAUstr_value@@PEAX@2@AEBQEAUstr_value@@@Z ENDP ; std::_Tree<std::_Tset_traits<str_value * __ptr64,str_value_cmp,xalloc<str_value * __ptr64>,1> >::_Lbound
_TEXT	ENDS
; Function compile flags: /Ogtpy
; File c:\program files (x86)\microsoft visual studio 12.0\vc\include\xtree
;	COMDAT ?_Kfn@?$_Tree@V?$_Tset_traits@PEAUstr_value@@Ustr_value_cmp@@V?$xalloc@PEAUstr_value@@@@$00@std@@@std@@IEBAAEBQEAUstr_value@@AEBQEAU3@@Z
_TEXT	SEGMENT
this$dead$ = 8
_Val$ = 16
?_Kfn@?$_Tree@V?$_Tset_traits@PEAUstr_value@@Ustr_value_cmp@@V?$xalloc@PEAUstr_value@@@@$00@std@@@std@@IEBAAEBQEAUstr_value@@AEBQEAU3@@Z PROC ; std::_Tree<std::_Tset_traits<str_value * __ptr64,str_value_cmp,xalloc<str_value * __ptr64>,1> >::_Kfn, COMDAT

; 2235 : 		return (_Traits::_Kfn(_Val));

	mov	rax, rdx

; 2236 : 		}

	ret	0
?_Kfn@?$_Tree@V?$_Tset_traits@PEAUstr_value@@Ustr_value_cmp@@V?$xalloc@PEAUstr_value@@@@$00@std@@@std@@IEBAAEBQEAUstr_value@@AEBQEAU3@@Z ENDP ; std::_Tree<std::_Tset_traits<str_value * __ptr64,str_value_cmp,xalloc<str_value * __ptr64>,1> >::_Kfn
_TEXT	ENDS
; Function compile flags: /Ogtpy
; File c:\program files (x86)\microsoft visual studio 12.0\vc\include\set
;	COMDAT ?_Kfn@?$_Tset_traits@PEAUstr_value@@Ustr_value_cmp@@V?$xalloc@PEAUstr_value@@@@$00@std@@SAAEBQEAUstr_value@@AEBQEAU3@@Z
_TEXT	SEGMENT
_Val$ = 8
?_Kfn@?$_Tset_traits@PEAUstr_value@@Ustr_value_cmp@@V?$xalloc@PEAUstr_value@@@@$00@std@@SAAEBQEAUstr_value@@AEBQEAU3@@Z PROC ; std::_Tset_traits<str_value * __ptr64,str_value_cmp,xalloc<str_value * __ptr64>,1>::_Kfn, COMDAT

; 34   : 		return (_Val);

	mov	rax, rcx

; 35   : 		}

	ret	0
?_Kfn@?$_Tset_traits@PEAUstr_value@@Ustr_value_cmp@@V?$xalloc@PEAUstr_value@@@@$00@std@@SAAEBQEAUstr_value@@AEBQEAU3@@Z ENDP ; std::_Tset_traits<str_value * __ptr64,str_value_cmp,xalloc<str_value * __ptr64>,1>::_Kfn
_TEXT	ENDS
; Function compile flags: /Ogtpy
; File c:\users\nummer\documents\github\olr-3.0\src\xray\xrcore\xrmemory.h
; File c:\users\nummer\documents\github\olr-3.0\src\xray\xrcore\xrmemory_subst_msvc.cpp
; File c:\users\nummer\documents\github\olr-3.0\src\xray\xrcore\xrmemory.h
; File c:\users\nummer\documents\github\olr-3.0\src\xray\xrcore\xrmemory_subst_msvc.cpp
; File c:\users\nummer\documents\github\olr-3.0\src\xray\xrcore\xrmemory_align.cpp
; File c:\users\nummer\documents\github\olr-3.0\src\xray\xrcore\xrmemory.h
; File c:\users\nummer\documents\github\olr-3.0\src\xray\xrcore\xrmemory_subst_msvc.cpp
; File c:\users\nummer\documents\github\olr-3.0\src\xray\xrcore\xrsyncronize.cpp
; File c:\users\nummer\documents\github\olr-3.0\src\xray\xrcore\xrmemory_pool.h
; File c:\users\nummer\documents\github\olr-3.0\src\xray\xrcore\xrsyncronize.cpp
; File c:\users\nummer\documents\github\olr-3.0\src\xray\xrcore\xrmemory_pool.h
; File c:\users\nummer\documents\github\olr-3.0\src\xray\xrcore\xrsyncronize.cpp
; File c:\users\nummer\documents\github\olr-3.0\src\xray\xrcore\xrmemory.h
;	COMDAT ??$xr_free@Ustr_value@@@@YAXAEAPEAUstr_value@@@Z
_TEXT	SEGMENT
P$ = 48
??$xr_free@Ustr_value@@@@YAXAEAPEAUstr_value@@@Z PROC	; xr_free<str_value>, COMDAT

; 109  : 	IC void		xr_free		(T* &P)					{	if (P) { Memory.mem_free((void*)P); P=NULL;	};	}

$LN35:
	mov	QWORD PTR [rsp+16], rsi
	push	rdi
	sub	rsp, 32					; 00000020H
; File c:\users\nummer\documents\github\olr-3.0\src\xray\xrcore\xrmemory_subst_msvc.cpp

; 130  : 	stat_calls++;

	inc	DWORD PTR ?Memory@@3VxrMemory@@A
; File c:\users\nummer\documents\github\olr-3.0\src\xray\xrcore\xrmemory.h

; 109  : 	IC void		xr_free		(T* &P)					{	if (P) { Memory.mem_free((void*)P); P=NULL;	};	}

	mov	rdi, QWORD PTR [rcx]
	mov	rsi, rcx
; File c:\users\nummer\documents\github\olr-3.0\src\xray\xrcore\xrmemory_subst_msvc.cpp

; 25   : ICF	u32		get_header			(void* P)	{	return	(u32)*acc_header(P);				}

	movzx	eax, BYTE PTR [rdi-1]

; 24   : ICF	u8*		acc_header			(void* P)	{	u8*		_P		= (u8*)P;	return	_P-1;	}

	dec	rdi

; 131  : #ifdef USE_MEMORY_MONITOR
; 132  : 	memory_monitor::monitor_free(P);
; 133  : #endif // USE_MEMORY_MONITOR
; 134  : 
; 135  : #ifdef PURE_ALLOC
; 136  : 	if (g_use_pure_alloc) {
; 137  : 		free					(P);
; 138  : 		return;
; 139  : 	}
; 140  : #endif // PURE_ALLOC
; 141  : 
; 142  : #ifdef DEBUG_MEMORY_MANAGER
; 143  : 	if(g_globalCheckAddr==P)
; 144  : 		__asm int 3;
; 145  : #endif // DEBUG_MEMORY_MANAGER
; 146  : 
; 147  : #ifdef DEBUG_MEMORY_MANAGER
; 148  : 	if (mem_initialized)		debug_cs.Enter		();
; 149  : #endif // DEBUG_MEMORY_MANAGER
; 150  : 	if		(debug_mode)		dbg_unregister	(P);
; 151  : 	u32	pool					= get_header	(P);
; 152  : 	void* _real					= (void*)(((u8*)P)-1);
; 153  : 	if (mem_generic==pool)		

	cmp	eax, 55					; 00000037H
	jne	SHORT $LN9@xr_free
; File c:\users\nummer\documents\github\olr-3.0\src\xray\xrcore\xrmemory_align.cpp

; 293  : 	if (memblock == NULL)

	test	rdi, rdi
	je	SHORT $LN32@xr_free

; 294  : 		return;
; 295  : 
; 296  : 	ptr = (uintptr_t)memblock;
; 297  : 
; 298  : 	/* ptr points to the pointer to starting of the memory block */
; 299  : 	ptr = (ptr & ~(PTR_SZ -1)) - PTR_SZ;

	and	rdi, -8

; 300  : 
; 301  : 	/* ptr is the pointer to the start of memory block*/
; 302  : 	ptr = *((uintptr_t *)ptr);
; 303  : 	free((void *)ptr);

	mov	rcx, QWORD PTR [rdi-8]
	call	QWORD PTR __imp_free
; File c:\users\nummer\documents\github\olr-3.0\src\xray\xrcore\xrmemory.h

; 109  : 	IC void		xr_free		(T* &P)					{	if (P) { Memory.mem_free((void*)P); P=NULL;	};	}

	mov	QWORD PTR [rsi], 0
	mov	rsi, QWORD PTR [rsp+56]
	add	rsp, 32					; 00000020H
	pop	rdi
	ret	0
$LN32@xr_free:
	mov	QWORD PTR [rcx], 0
	mov	rsi, QWORD PTR [rsp+56]
	add	rsp, 32					; 00000020H
	pop	rdi
	ret	0
$LN9@xr_free:
; File c:\users\nummer\documents\github\olr-3.0\src\xray\xrcore\xrmemory_subst_msvc.cpp

; 160  : 		mem_pools[pool].destroy	(_real);

	lea	rcx, QWORD PTR [rax+rax*4]
	lea	rax, OFFSET FLAT:?mem_pools@@3PAVMEMPOOL@@A ; mem_pools
	mov	QWORD PTR [rsp+48], rbx
	lea	rbx, QWORD PTR [rax+rcx*8]
; File c:\users\nummer\documents\github\olr-3.0\src\xray\xrcore\xrsyncronize.cpp

; 64   : 	EnterCriticalSection			( (CRITICAL_SECTION*)pmutex );

	mov	rcx, QWORD PTR [rax+rcx*8]
	call	QWORD PTR __imp_EnterCriticalSection
; File c:\users\nummer\documents\github\olr-3.0\src\xray\xrcore\xrmemory_pool.h

; 46   : 		*access(P)		= list;

	mov	rax, QWORD PTR [rbx+32]
	mov	QWORD PTR [rdi], rax
; File c:\users\nummer\documents\github\olr-3.0\src\xray\xrcore\xrsyncronize.cpp

; 69   : 	LeaveCriticalSection			( (CRITICAL_SECTION*)pmutex );

	mov	rcx, QWORD PTR [rbx]
; File c:\users\nummer\documents\github\olr-3.0\src\xray\xrcore\xrmemory_pool.h

; 47   : 		list			= (u8*)P;

	mov	QWORD PTR [rbx+32], rdi
; File c:\users\nummer\documents\github\olr-3.0\src\xray\xrcore\xrsyncronize.cpp

; 69   : 	LeaveCriticalSection			( (CRITICAL_SECTION*)pmutex );

	call	QWORD PTR __imp_LeaveCriticalSection
	mov	rbx, QWORD PTR [rsp+48]
; File c:\users\nummer\documents\github\olr-3.0\src\xray\xrcore\xrmemory.h

; 109  : 	IC void		xr_free		(T* &P)					{	if (P) { Memory.mem_free((void*)P); P=NULL;	};	}

	mov	QWORD PTR [rsi], 0
	mov	rsi, QWORD PTR [rsp+56]
	add	rsp, 32					; 00000020H
	pop	rdi
	ret	0
??$xr_free@Ustr_value@@@@YAXAEAPEAUstr_value@@@Z ENDP	; xr_free<str_value>
_TEXT	ENDS
; Function compile flags: /Ogtpy
; File c:\program files (x86)\microsoft visual studio 12.0\vc\include\xtree
; File c:\users\nummer\documents\github\olr-3.0\src\xray\xrcore\xrstring.h
; File c:\program files (x86)\microsoft visual studio 12.0\vc\include\xtree
; File c:\users\nummer\documents\github\olr-3.0\src\xray\xrcore\xrstring.h
; File c:\program files (x86)\microsoft visual studio 12.0\vc\include\xtree
; File c:\program files (x86)\microsoft visual studio 12.0\vc\include\utility
; File c:\program files (x86)\microsoft visual studio 12.0\vc\include\xtree
;	COMDAT ??$_Insert_nohint@AEBQEAUstr_value@@U_Nil@std@@@?$_Tree@V?$_Tset_traits@PEAUstr_value@@Ustr_value_cmp@@V?$xalloc@PEAUstr_value@@@@$00@std@@@std@@IEAA?AU?$pair@V?$_Tree_const_iterator@V?$_Tree_val@U?$_Tree_simple_types@PEAUstr_value@@@std@@@std@@@std@@_N@1@_NAEBQEAUstr_value@@U_Nil@1@@Z
_TEXT	SEGMENT
$T1 = 48
$T2 = 56
this$ = 80
__$ReturnUdt$ = 88
_Leftish$dead$ = 96
_Val$ = 104
_Newnode$ = 112
??$_Insert_nohint@AEBQEAUstr_value@@U_Nil@std@@@?$_Tree@V?$_Tset_traits@PEAUstr_value@@Ustr_value_cmp@@V?$xalloc@PEAUstr_value@@@@$00@std@@@std@@IEAA?AU?$pair@V?$_Tree_const_iterator@V?$_Tree_val@U?$_Tree_simple_types@PEAUstr_value@@@std@@@std@@@std@@_N@1@_NAEBQEAUstr_value@@U_Nil@1@@Z PROC ; std::_Tree<std::_Tset_traits<str_value * __ptr64,str_value_cmp,xalloc<str_value * __ptr64>,1> >::_Insert_nohint<str_value * __ptr64 const & __ptr64,std::_Nil>, COMDAT

; 1777 : 		_Pairib _Insert_nohint(bool _Leftish,

$LN180:
	push	rdi
	sub	rsp, 64					; 00000040H
	mov	QWORD PTR $T1[rsp], -2
	mov	QWORD PTR [rsp+80], rbx
	mov	QWORD PTR [rsp+88], rsi
	mov	rdi, rdx
	mov	rbx, rcx
	xor	sil, sil

; 594  : 		return ((_Nodepref)_Pnode->_Parent);

	mov	r11, QWORD PTR [rcx]

; 1778 : 			_Valty&& _Val, _Nodety _Newnode)
; 1779 : 		{	// try to insert node, on left if _Leftish
; 1780 : 		_TRY_BEGIN
; 1781 : 		_Nodeptr _Trynode = _Root();

	mov	r8, QWORD PTR [r11+8]

; 1782 : 		_Nodeptr _Wherenode = this->_Myhead;
; 1783 : 		bool _Addleft = true;	// add to left of head if tree empty

	mov	r10b, 1
	npad	4
$LL12@Insert_noh:

; 1784 : 
; 1785 : 		while (!this->_Isnil(_Trynode))

	cmp	BYTE PTR [r8+25], 0
	jne	SHORT $LN11@Insert_noh

; 1786 : 			{	// look for leaf to insert before (_Addleft) or after
; 1787 : 			_Wherenode = _Trynode;

	mov	r11, r8

; 1788 : 			if (_Leftish)

	test	sil, sil
	je	SHORT $LN10@Insert_noh
; File c:\users\nummer\documents\github\olr-3.0\src\xray\xrcore\xrstring.h

; 19   : 	IC bool		operator ()	(const str_value* A, const str_value* B) const	{ return A->dwCRC<B->dwCRC;	};

	mov	rdx, QWORD PTR [r8+32]
	mov	rax, QWORD PTR [r9]
	mov	ecx, DWORD PTR [rax+8]
	cmp	DWORD PTR [rdx+8], ecx
; File c:\program files (x86)\microsoft visual studio 12.0\vc\include\xtree

; 1789 : 				_Addleft = !_DEBUG_LT_PRED(this->_Getcomp(),

	setae	r10b

; 1790 : 					this->_Key(_Trynode),
; 1791 : 					this->_Kfn(_Val));	// favor left end
; 1792 : 			else

	jmp	SHORT $LN9@Insert_noh
$LN10@Insert_noh:
; File c:\users\nummer\documents\github\olr-3.0\src\xray\xrcore\xrstring.h

; 19   : 	IC bool		operator ()	(const str_value* A, const str_value* B) const	{ return A->dwCRC<B->dwCRC;	};

	mov	rax, QWORD PTR [r8+32]
	mov	rcx, QWORD PTR [r9]
	mov	eax, DWORD PTR [rax+8]
	cmp	DWORD PTR [rcx+8], eax
	setb	r10b
$LN9@Insert_noh:
; File c:\program files (x86)\microsoft visual studio 12.0\vc\include\xtree

; 1797 : 				: this->_Right(_Trynode);

	test	r10b, r10b
	je	SHORT $LN16@Insert_noh
	mov	r8, QWORD PTR [r8]
	jmp	SHORT $LN17@Insert_noh
$LN16@Insert_noh:
	mov	r8, QWORD PTR [r8+16]
$LN17@Insert_noh:

; 1798 : 			}

	jmp	SHORT $LL12@Insert_noh
$LN11@Insert_noh:

; 1801 : 			return (_Pairib(_Insert_at(_Addleft, _Wherenode,

	movzx	eax, BYTE PTR _Newnode$[rsp]
	mov	BYTE PTR [rsp+40], al
	mov	QWORD PTR [rsp+32], r9
	mov	r9, r11
	movzx	r8d, r10b
	lea	rdx, QWORD PTR $T2[rsp]
	mov	rcx, rbx
	call	??$_Insert_at@AEBQEAUstr_value@@U_Nil@std@@@?$_Tree@V?$_Tset_traits@PEAUstr_value@@Ustr_value_cmp@@V?$xalloc@PEAUstr_value@@@@$00@std@@@std@@IEAA?AV?$_Tree_const_iterator@V?$_Tree_val@U?$_Tree_simple_types@PEAUstr_value@@@std@@@std@@@1@_NPEAU?$_Tree_node@PEAUstr_value@@PEAX@1@AEBQEAUstr_value@@U_Nil@1@@Z ; std::_Tree<std::_Tset_traits<str_value * __ptr64,str_value_cmp,xalloc<str_value * __ptr64>,1> >::_Insert_at<str_value * __ptr64 const & __ptr64,std::_Nil>
; File c:\program files (x86)\microsoft visual studio 12.0\vc\include\utility

; 144  : 		{	// construct from moved values

	mov	rcx, QWORD PTR [rax]
	mov	QWORD PTR [rdi], rcx
	mov	BYTE PTR [rdi+8], 1
; File c:\program files (x86)\microsoft visual studio 12.0\vc\include\xtree

; 1801 : 			return (_Pairib(_Insert_at(_Addleft, _Wherenode,

	mov	rax, rdi

; 1802 : 				_STD forward<_Valty>(_Val), _Newnode), true));
; 1803 : 		else
; 1804 : 			{	// insert only if unique
; 1805 : 			iterator _Where = iterator(_Wherenode, this);
; 1806 : 			if (!_Addleft)
; 1807 : 				;	// need to test if insert after is okay
; 1808 : 			else if (_Where == begin())
; 1809 : 				return (_Pairib(_Insert_at(true, _Wherenode,
; 1810 : 					_STD forward<_Valty>(_Val), _Newnode), true));
; 1811 : 			else
; 1812 : 				--_Where;	// need to test if insert before is okay
; 1813 : 
; 1814 : 			if (_DEBUG_LT_PRED(this->_Getcomp(),
; 1815 : 				this->_Key(_Where._Mynode()),
; 1816 : 				this->_Kfn(_Val)))
; 1817 : 				return (_Pairib(_Insert_at(_Addleft, _Wherenode,
; 1818 : 					_STD forward<_Valty>(_Val), _Newnode), true));
; 1819 : 			else
; 1820 : 				{	// duplicate, don't insert
; 1821 : 				_Destroy_if_not_nil(_Newnode);
; 1822 : 				return (_Pairib(_Where, false));
; 1823 : 				}
; 1824 : 			}
; 1825 : 		_CATCH_ALL
; 1826 : 		_Destroy_if_not_nil(_Newnode);
; 1827 : 		_RERAISE;
; 1828 : 		_CATCH_END
; 1829 : 		}

	mov	rbx, QWORD PTR [rsp+80]
	mov	rsi, QWORD PTR [rsp+88]
	add	rsp, 64					; 00000040H
	pop	rdi
	ret	0
	int	3
$LN179@Insert_noh:
??$_Insert_nohint@AEBQEAUstr_value@@U_Nil@std@@@?$_Tree@V?$_Tset_traits@PEAUstr_value@@Ustr_value_cmp@@V?$xalloc@PEAUstr_value@@@@$00@std@@@std@@IEAA?AU?$pair@V?$_Tree_const_iterator@V?$_Tree_val@U?$_Tree_simple_types@PEAUstr_value@@@std@@@std@@@std@@_N@1@_NAEBQEAUstr_value@@U_Nil@1@@Z ENDP ; std::_Tree<std::_Tset_traits<str_value * __ptr64,str_value_cmp,xalloc<str_value * __ptr64>,1> >::_Insert_nohint<str_value * __ptr64 const & __ptr64,std::_Nil>
_TEXT	ENDS
; Function compile flags: /Ogtpy
;	COMDAT text$x
text$x	SEGMENT
$T1 = 48
$T2 = 56
this$ = 80
__$ReturnUdt$ = 88
_Leftish$dead$ = 96
_Val$ = 104
_Newnode$ = 112
?catch$0@?0???$_Insert_nohint@AEBQEAUstr_value@@U_Nil@std@@@?$_Tree@V?$_Tset_traits@PEAUstr_value@@Ustr_value_cmp@@V?$xalloc@PEAUstr_value@@@@$00@std@@@std@@IEAA?AU?$pair@V?$_Tree_const_iterator@V?$_Tree_val@U?$_Tree_simple_types@PEAUstr_value@@@std@@@std@@@std@@_N@1@_NAEBQEAUstr_value@@U_Nil@1@@Z@4HA PROC ; `std::_Tree<std::_Tset_traits<str_value * __ptr64,str_value_cmp,xalloc<str_value * __ptr64>,1> >::_Insert_nohint<str_value * __ptr64 const & __ptr64,std::_Nil>'::`1'::catch$0

; 1825 : 		_CATCH_ALL

	mov	QWORD PTR [rsp+16], rdx
	push	rbp
	sub	rsp, 48					; 00000030H
	mov	rbp, rdx
__catch$??$_Insert_nohint@AEBQEAUstr_value@@U_Nil@std@@@?$_Tree@V?$_Tset_traits@PEAUstr_value@@Ustr_value_cmp@@V?$xalloc@PEAUstr_value@@@@$00@std@@@std@@IEAA?AU?$pair@V?$_Tree_const_iterator@V?$_Tree_val@U?$_Tree_simple_types@PEAUstr_value@@@std@@@std@@@std@@_N@1@_NAEBQEAUstr_value@@U_Nil@1@@Z$0:

; 1826 : 		_Destroy_if_not_nil(_Newnode);
; 1827 : 		_RERAISE;

	xor	edx, edx
	xor	ecx, ecx
	call	_CxxThrowException
	npad	1
?catch$0@?0???$_Insert_nohint@AEBQEAUstr_value@@U_Nil@std@@@?$_Tree@V?$_Tset_traits@PEAUstr_value@@Ustr_value_cmp@@V?$xalloc@PEAUstr_value@@@@$00@std@@@std@@IEAA?AU?$pair@V?$_Tree_const_iterator@V?$_Tree_val@U?$_Tree_simple_types@PEAUstr_value@@@std@@@std@@@std@@_N@1@_NAEBQEAUstr_value@@U_Nil@1@@Z@4HA ENDP ; `std::_Tree<std::_Tset_traits<str_value * __ptr64,str_value_cmp,xalloc<str_value * __ptr64>,1> >::_Insert_nohint<str_value * __ptr64 const & __ptr64,std::_Nil>'::`1'::catch$0
text$x	ENDS
; Function compile flags: /Ogtpy
; File c:\program files (x86)\microsoft visual studio 12.0\vc\include\xtree
;	COMDAT ?_Destroy_if_not_nil@?$_Tree@V?$_Tset_traits@PEAUstr_value@@Ustr_value_cmp@@V?$xalloc@PEAUstr_value@@@@$00@std@@@std@@IEAAXU_Nil@2@@Z
_TEXT	SEGMENT
this$dead$ = 8
__formal$dead$ = 16
?_Destroy_if_not_nil@?$_Tree@V?$_Tset_traits@PEAUstr_value@@Ustr_value_cmp@@V?$xalloc@PEAUstr_value@@@@$00@std@@@std@@IEAAXU_Nil@2@@Z PROC ; std::_Tree<std::_Tset_traits<str_value * __ptr64,str_value_cmp,xalloc<str_value * __ptr64>,1> >::_Destroy_if_not_nil, COMDAT

; 1657 : 		}

	ret	0
?_Destroy_if_not_nil@?$_Tree@V?$_Tset_traits@PEAUstr_value@@Ustr_value_cmp@@V?$xalloc@PEAUstr_value@@@@$00@std@@@std@@IEAAXU_Nil@2@@Z ENDP ; std::_Tree<std::_Tset_traits<str_value * __ptr64,str_value_cmp,xalloc<str_value * __ptr64>,1> >::_Destroy_if_not_nil
_TEXT	ENDS
; Function compile flags: /Ogtpy
; File c:\program files (x86)\microsoft visual studio 12.0\vc\include\xtree
;	COMDAT ??F?$_Tree_const_iterator@V?$_Tree_val@U?$_Tree_simple_types@PEAUstr_value@@@std@@@std@@@std@@QEAAAEAV01@XZ
_TEXT	SEGMENT
this$ = 48
??F?$_Tree_const_iterator@V?$_Tree_val@U?$_Tree_simple_types@PEAUstr_value@@@std@@@std@@@std@@QEAAAEAV01@XZ PROC ; std::_Tree_const_iterator<std::_Tree_val<std::_Tree_simple_types<str_value * __ptr64> > >::operator--, COMDAT

; 283  : 		{	// predecrement

$LN4:
	push	rbx
	sub	rsp, 32					; 00000020H
	mov	rbx, rcx

; 284  :  #if _ITERATOR_DEBUG_LEVEL == 2
; 285  : 		if (this->_Getcont() == 0
; 286  : 			|| this->_Ptr == 0)
; 287  : 			{	// report error
; 288  : 			_DEBUG_ERROR("map/set iterator not decrementable");
; 289  : 			_SCL_SECURE_OUT_OF_RANGE;
; 290  : 			}
; 291  : 
; 292  : 		_Nodeptr _Ptrsav = this->_Ptr;
; 293  : 		--(*(_Mybase *)this);
; 294  : 		if (_Ptrsav == this->_Ptr)
; 295  : 			{	// report error
; 296  : 			_DEBUG_ERROR("map/set iterator not decrementable");
; 297  : 			_SCL_SECURE_OUT_OF_RANGE;
; 298  : 			}
; 299  : 
; 300  :  #elif _ITERATOR_DEBUG_LEVEL == 1
; 301  : 		_SCL_SECURE_VALIDATE(this->_Getcont() != 0 && this->_Ptr != 0);
; 302  : 
; 303  : 		_Nodeptr _Ptrsav = this->_Ptr;
; 304  : 		--(*(_Mybase *)this);
; 305  : 		_SCL_SECURE_VALIDATE(_Ptrsav != this->_Ptr);
; 306  : 
; 307  :  #else /* _ITERATOR_DEBUG_LEVEL == 0 */
; 308  : 		--(*(_Mybase *)this);

	call	??F?$_Tree_unchecked_const_iterator@V?$_Tree_val@U?$_Tree_simple_types@PEAUstr_value@@@std@@@std@@U_Iterator_base0@2@@std@@QEAAAEAV01@XZ ; std::_Tree_unchecked_const_iterator<std::_Tree_val<std::_Tree_simple_types<str_value * __ptr64> >,std::_Iterator_base0>::operator--

; 309  :  #endif /* _ITERATOR_DEBUG_LEVEL */
; 310  : 
; 311  : 		return (*this);

	mov	rax, rbx

; 312  : 		}

	add	rsp, 32					; 00000020H
	pop	rbx
	ret	0
??F?$_Tree_const_iterator@V?$_Tree_val@U?$_Tree_simple_types@PEAUstr_value@@@std@@@std@@@std@@QEAAAEAV01@XZ ENDP ; std::_Tree_const_iterator<std::_Tree_val<std::_Tree_simple_types<str_value * __ptr64> > >::operator--
_TEXT	ENDS
; Function compile flags: /Ogtpy
; File c:\program files (x86)\microsoft visual studio 12.0\vc\include\xtree
;	COMDAT ??F?$_Tree_unchecked_const_iterator@V?$_Tree_val@U?$_Tree_simple_types@PEAUstr_value@@@std@@@std@@U_Iterator_base0@2@@std@@QEAAAEAV01@XZ
_TEXT	SEGMENT
this$ = 8
??F?$_Tree_unchecked_const_iterator@V?$_Tree_val@U?$_Tree_simple_types@PEAUstr_value@@@std@@@std@@U_Iterator_base0@2@@std@@QEAAAEAV01@XZ PROC ; std::_Tree_unchecked_const_iterator<std::_Tree_val<std::_Tree_simple_types<str_value * __ptr64> >,std::_Iterator_base0>::operator--, COMDAT

; 103  : 
; 104  : 	_Myiter operator--(int)
; 105  : 		{	// postdecrement
; 106  : 		_Myiter _Tmp = *this;
; 107  : 		--*this;
; 108  : 		return (_Tmp);
; 109  : 		}
; 110  : 
; 111  : 	bool operator==(const _Myiter& _Right) const
; 112  : 		{	// test for iterator equality
; 113  : 		return (_Ptr == _Right._Ptr);
; 114  : 		}
; 115  : 
; 116  : 	bool operator!=(const _Myiter& _Right) const
; 117  : 		{	// test for iterator inequality
; 118  : 		return (!(*this == _Right));
; 119  : 		}
; 120  : 
; 121  : 	_Nodeptr _Mynode() const
; 122  : 		{	// return node pointer
; 123  : 		return (_Ptr);
; 124  : 		}
; 125  : 
; 126  : 	_Nodeptr _Ptr;	// pointer to node
; 127  : 	};
; 128  : 
; 129  : 	// TEMPLATE CLASS _Tree_unchecked_iterator
; 130  : template<class _Mytree>
; 131  : 	class _Tree_unchecked_iterator
; 132  : 		: public _Tree_unchecked_const_iterator<_Mytree>
; 133  : 	{	// unchecked iterator for mutable tree
; 134  : public:
; 135  : 	typedef _Tree_unchecked_iterator<_Mytree> _Myiter;
; 136  : 	typedef _Tree_unchecked_const_iterator<_Mytree> _Mybase;
; 137  : 	typedef bidirectional_iterator_tag iterator_category;
; 138  : 
; 139  : 	typedef typename _Mytree::_Nodeptr _Nodeptr;
; 140  : 	typedef typename _Mytree::value_type value_type;
; 141  : 	typedef typename _Mytree::difference_type difference_type;
; 142  : 	typedef typename _Mytree::pointer pointer;
; 143  : 	typedef typename _Mytree::reference reference;
; 144  : 
; 145  : 	_Tree_unchecked_iterator()
; 146  : 		{	// construct with null node
; 147  : 		}
; 148  : 
; 149  : 	_Tree_unchecked_iterator(_Nodeptr _Pnode, const _Mytree *_Plist)
; 150  : 		: _Mybase(_Pnode, _Plist)
; 151  : 		{	// construct with node pointer _Pnode
; 152  : 		}
; 153  : 
; 154  : 	reference operator*() const
; 155  : 		{	// return designated value
; 156  : 		return ((reference)**(_Mybase *)this);
; 157  : 		}
; 158  : 
; 159  : 	pointer operator->() const
; 160  : 		{	// return pointer to class object
; 161  : 		return (_STD pointer_traits<pointer>::pointer_to(**this));
; 162  : 		}
; 163  : 
; 164  : 	_Myiter& operator++()
; 165  : 		{	// preincrement
; 166  : 		++(*(_Mybase *)this);
; 167  : 		return (*this);
; 168  : 		}
; 169  : 
; 170  : 	_Myiter operator++(int)
; 171  : 		{	// postincrement
; 172  : 		_Myiter _Tmp = *this;
; 173  : 		++*this;
; 174  : 		return (_Tmp);
; 175  : 		}
; 176  : 
; 177  : 	_Myiter& operator--()
; 178  : 		{	// predecrement
; 179  : 		--(*(_Mybase *)this);
; 180  : 		return (*this);
; 181  : 		}
; 182  : 
; 183  : 	_Myiter operator--(int)
; 184  : 		{	// postdecrement
; 185  : 		_Myiter _Tmp = *this;
; 186  : 		--*this;
; 187  : 		return (_Tmp);
; 188  : 		}
; 189  : 	};
; 190  : 
; 191  : 	// TEMPLATE CLASS _Tree_const_iterator
; 192  : template<class _Mytree>
; 193  : 	class _Tree_const_iterator
; 194  : 		: public _Tree_unchecked_const_iterator<_Mytree, _Iterator_base>
; 195  : 	{	// iterator for nonmutable tree
; 196  : public:
; 197  : 	typedef _Tree_const_iterator<_Mytree> _Myiter;
; 198  : 	typedef _Tree_unchecked_const_iterator<_Mytree, _Iterator_base> _Mybase;
; 199  : 	typedef bidirectional_iterator_tag iterator_category;
; 200  : 
; 201  : 	typedef typename _Mytree::_Nodeptr _Nodeptr;
; 202  : 	typedef typename _Mytree::value_type value_type;
; 203  : 	typedef typename _Mytree::difference_type difference_type;
; 204  : 	typedef typename _Mytree::const_pointer pointer;
; 205  : 	typedef typename _Mytree::const_reference reference;
; 206  : 
; 207  : 	_Tree_const_iterator()
; 208  : 		: _Mybase()
; 209  : 		{	// construct with null node pointer
; 210  : 		}
; 211  : 
; 212  : 	_Tree_const_iterator(_Nodeptr _Pnode, const _Mytree *_Plist)
; 213  : 		: _Mybase(_Pnode, _Plist)
; 214  : 		{	// construct with node pointer _Pnode
; 215  : 		}
; 216  : 
; 217  : 	typedef _Tree_unchecked_const_iterator<_Mytree> _Unchecked_type;
; 218  : 
; 219  : 	_Myiter& _Rechecked(_Unchecked_type _Right)
; 220  : 		{	// reset from unchecked iterator
; 221  : 		this->_Ptr = _Right._Ptr;
; 222  : 		return (*this);
; 223  : 		}
; 224  : 
; 225  : 	_Unchecked_type _Unchecked() const
; 226  : 		{	// make an unchecked iterator
; 227  : 		return (_Unchecked_type(this->_Ptr, (_Mytree *)this->_Getcont()));
; 228  : 		}
; 229  : 
; 230  : 	reference operator*() const
; 231  : 		{	// return designated value
; 232  :  #if _ITERATOR_DEBUG_LEVEL == 2
; 233  : 		if (this->_Getcont() == 0
; 234  : 			|| this->_Ptr == 0
; 235  : 			|| this->_Ptr == ((_Mytree *)this->_Getcont())->_Myhead)
; 236  : 			{	// report error
; 237  : 			_DEBUG_ERROR("map/set iterator not dereferencable");
; 238  : 			_SCL_SECURE_OUT_OF_RANGE;
; 239  : 			}
; 240  : 
; 241  :  #elif _ITERATOR_DEBUG_LEVEL == 1
; 242  : 		_SCL_SECURE_VALIDATE(this->_Getcont() != 0 && this->_Ptr != 0);
; 243  : 		_SCL_SECURE_VALIDATE_RANGE(this->_Ptr !=
; 244  : 			((_Mytree *)this->_Getcont())->_Myhead);
; 245  :  #endif /* _ITERATOR_DEBUG_LEVEL */
; 246  : 
; 247  : 		return (_Mytree::_Myval(this->_Ptr));
; 248  : 		}
; 249  : 
; 250  : 	pointer operator->() const
; 251  : 		{	// return pointer to class object
; 252  : 		return (_STD pointer_traits<pointer>::pointer_to(**this));
; 253  : 		}
; 254  : 
; 255  : 	_Myiter& operator++()
; 256  : 		{	// preincrement
; 257  :  #if _ITERATOR_DEBUG_LEVEL == 2
; 258  : 		if (this->_Getcont() == 0
; 259  : 			|| this->_Ptr == 0
; 260  : 			|| _Mytree::_Isnil(this->_Ptr))
; 261  : 			{	// report error
; 262  : 			_DEBUG_ERROR("map/set iterator not incrementable");
; 263  : 			_SCL_SECURE_OUT_OF_RANGE;
; 264  : 			}
; 265  : 
; 266  :  #elif _ITERATOR_DEBUG_LEVEL == 1
; 267  : 		_SCL_SECURE_VALIDATE(this->_Getcont() != 0 && this->_Ptr != 0);
; 268  : 		_SCL_SECURE_VALIDATE_RANGE(!_Mytree::_Isnil(this->_Ptr));
; 269  :  #endif /* _ITERATOR_DEBUG_LEVEL */
; 270  : 
; 271  : 		++(*(_Mybase *)this);
; 272  : 		return (*this);
; 273  : 		}
; 274  : 
; 275  : 	_Myiter operator++(int)
; 276  : 		{	// postincrement
; 277  : 		_Myiter _Tmp = *this;
; 278  : 		++*this;
; 279  : 		return (_Tmp);
; 280  : 		}
; 281  : 
; 282  : 	_Myiter& operator--()
; 283  : 		{	// predecrement
; 284  :  #if _ITERATOR_DEBUG_LEVEL == 2
; 285  : 		if (this->_Getcont() == 0
; 286  : 			|| this->_Ptr == 0)
; 287  : 			{	// report error
; 288  : 			_DEBUG_ERROR("map/set iterator not decrementable");
; 289  : 			_SCL_SECURE_OUT_OF_RANGE;
; 290  : 			}
; 291  : 
; 292  : 		_Nodeptr _Ptrsav = this->_Ptr;
; 293  : 		--(*(_Mybase *)this);
; 294  : 		if (_Ptrsav == this->_Ptr)
; 295  : 			{	// report error
; 296  : 			_DEBUG_ERROR("map/set iterator not decrementable");
; 297  : 			_SCL_SECURE_OUT_OF_RANGE;
; 298  : 			}
; 299  : 
; 300  :  #elif _ITERATOR_DEBUG_LEVEL == 1
; 301  : 		_SCL_SECURE_VALIDATE(this->_Getcont() != 0 && this->_Ptr != 0);
; 302  : 
; 303  : 		_Nodeptr _Ptrsav = this->_Ptr;
; 304  : 		--(*(_Mybase *)this);
; 305  : 		_SCL_SECURE_VALIDATE(_Ptrsav != this->_Ptr);
; 306  : 
; 307  :  #else /* _ITERATOR_DEBUG_LEVEL == 0 */
; 308  : 		--(*(_Mybase *)this);
; 309  :  #endif /* _ITERATOR_DEBUG_LEVEL */
; 310  : 
; 311  : 		return (*this);
; 312  : 		}
; 313  : 
; 314  : 	_Myiter operator--(int)
; 315  : 		{	// postdecrement
; 316  : 		_Myiter _Tmp = *this;
; 317  : 		--*this;
; 318  : 		return (_Tmp);
; 319  : 		}
; 320  : 
; 321  : 	bool operator==(const _Myiter& _Right) const
; 322  : 		{	// test for iterator equality
; 323  :  #if _ITERATOR_DEBUG_LEVEL == 2
; 324  : 		if (this->_Getcont() == 0
; 325  : 			|| this->_Getcont() != _Right._Getcont())
; 326  : 			{	// report error
; 327  : 			_DEBUG_ERROR("map/set iterators incompatible");
; 328  : 			_SCL_SECURE_INVALID_ARGUMENT;
; 329  : 			}
; 330  : 
; 331  :  #elif _ITERATOR_DEBUG_LEVEL == 1
; 332  : 		_SCL_SECURE_VALIDATE(this->_Getcont() != 0
; 333  : 			&& this->_Getcont() == _Right._Getcont());
; 334  :  #endif /* _ITERATOR_DEBUG_LEVEL */
; 335  : 
; 336  : 		return (this->_Ptr == _Right._Ptr);
; 337  : 		}
; 338  : 
; 339  : 	bool operator!=(const _Myiter& _Right) const
; 340  : 		{	// test for iterator inequality
; 341  : 		return (!(*this == _Right));
; 342  : 		}
; 343  : 	};
; 344  : 
; 345  : template<class _Mytree> inline
; 346  : 	typename _Tree_const_iterator<_Mytree>::_Unchecked_type
; 347  : 		_Unchecked(_Tree_const_iterator<_Mytree> _Iter)
; 348  : 	{	// convert to unchecked
; 349  : 	return (_Iter._Unchecked());
; 350  : 	}
; 351  : 
; 352  : template<class _Mytree> inline
; 353  : 	_Tree_const_iterator<_Mytree>&
; 354  : 		_Rechecked(_Tree_const_iterator<_Mytree>& _Iter,
; 355  : 			typename _Tree_const_iterator<_Mytree>
; 356  : 				::_Unchecked_type _Right)
; 357  : 	{	// convert to checked
; 358  : 	return (_Iter._Rechecked(_Right));
; 359  : 	}
; 360  : 
; 361  : 	// TEMPLATE CLASS _Tree_iterator
; 362  : template<class _Mytree>
; 363  : 	class _Tree_iterator
; 364  : 		: public _Tree_const_iterator<_Mytree>
; 365  : 	{	// iterator for mutable tree
; 366  : public:
; 367  : 	typedef _Tree_iterator<_Mytree> _Myiter;
; 368  : 	typedef _Tree_const_iterator<_Mytree> _Mybase;
; 369  : 	typedef bidirectional_iterator_tag iterator_category;
; 370  : 
; 371  : 	typedef typename _Mytree::_Nodeptr _Nodeptr;
; 372  : 	typedef typename _Mytree::value_type value_type;
; 373  : 	typedef typename _Mytree::difference_type difference_type;
; 374  : 
; 375  : 	typedef typename _Mytree::pointer pointer;
; 376  : 	typedef typename _Mytree::reference reference;
; 377  : 
; 378  : 	_Tree_iterator()
; 379  : 		{	// construct with null node
; 380  : 		}
; 381  : 
; 382  : 	_Tree_iterator(_Nodeptr _Pnode, const _Mytree *_Plist)
; 383  : 		: _Mybase(_Pnode, _Plist)
; 384  : 		{	// construct with node pointer _Pnode
; 385  : 		}
; 386  : 
; 387  : 	typedef _Tree_unchecked_iterator<_Mytree> _Unchecked_type;
; 388  : 
; 389  : 	_Myiter& _Rechecked(_Unchecked_type _Right)
; 390  : 		{	// reset from unchecked iterator
; 391  : 		this->_Ptr = _Right._Ptr;
; 392  : 		return (*this);
; 393  : 		}
; 394  : 
; 395  : 	_Unchecked_type _Unchecked() const
; 396  : 		{	// make an unchecked iterator
; 397  : 		return (_Unchecked_type(this->_Ptr, (_Mytree *)this->_Getcont()));
; 398  : 		}
; 399  : 
; 400  : 	reference operator*() const
; 401  : 		{	// return designated value
; 402  : 		return ((reference)**(_Mybase *)this);
; 403  : 		}
; 404  : 
; 405  : 	pointer operator->() const
; 406  : 		{	// return pointer to class object
; 407  : 		return (_STD pointer_traits<pointer>::pointer_to(**this));
; 408  : 		}
; 409  : 
; 410  : 	_Myiter& operator++()
; 411  : 		{	// preincrement
; 412  : 		++(*(_Mybase *)this);
; 413  : 		return (*this);
; 414  : 		}
; 415  : 
; 416  : 	_Myiter operator++(int)
; 417  : 		{	// postincrement
; 418  : 		_Myiter _Tmp = *this;
; 419  : 		++*this;
; 420  : 		return (_Tmp);
; 421  : 		}
; 422  : 
; 423  : 	_Myiter& operator--()
; 424  : 		{	// predecrement
; 425  : 		--(*(_Mybase *)this);
; 426  : 		return (*this);
; 427  : 		}
; 428  : 
; 429  : 	_Myiter operator--(int)
; 430  : 		{	// postdecrement
; 431  : 		_Myiter _Tmp = *this;
; 432  : 		--*this;
; 433  : 		return (_Tmp);
; 434  : 		}
; 435  : 	};
; 436  : 
; 437  : template<class _Mytree> inline
; 438  : 	typename _Tree_iterator<_Mytree>::_Unchecked_type
; 439  : 		_Unchecked(_Tree_iterator<_Mytree> _Iter)
; 440  : 	{	// convert to unchecked
; 441  : 	return (_Iter._Unchecked());
; 442  : 	}
; 443  : 
; 444  : template<class _Mytree> inline
; 445  : 	_Tree_iterator<_Mytree>&
; 446  : 		_Rechecked(_Tree_iterator<_Mytree>& _Iter,
; 447  : 			typename _Tree_iterator<_Mytree>
; 448  : 				::_Unchecked_type _Right)
; 449  : 	{	// convert to checked
; 450  : 	return (_Iter._Rechecked(_Right));
; 451  : 	}
; 452  : 
; 453  : 		// tree TYPE WRAPPERS
; 454  : template<class _Value_type,
; 455  : 	class _Size_type,
; 456  : 	class _Difference_type,
; 457  : 	class _Pointer,
; 458  : 	class _Const_pointer,
; 459  : 	class _Reference,
; 460  : 	class _Const_reference,
; 461  : 	class _Nodeptr_type>
; 462  : 	struct _Tree_iter_types
; 463  : 	{	// wraps types needed by iterators
; 464  : 	typedef _Value_type value_type;
; 465  : 	typedef _Size_type size_type;
; 466  : 	typedef _Difference_type difference_type;
; 467  : 	typedef _Pointer pointer;
; 468  : 	typedef _Const_pointer const_pointer;
; 469  : 	typedef _Reference reference;
; 470  : 	typedef _Const_reference const_reference;
; 471  : 	typedef _Nodeptr_type _Nodeptr;
; 472  : 	};
; 473  : 
; 474  : template<class _Value_type,
; 475  : 	class _Voidptr>
; 476  : 	struct _Tree_node
; 477  : 		{	// tree node
; 478  : 		_Voidptr _Left;	// left subtree, or smallest element if head
; 479  : 		_Voidptr _Parent;	// parent, or root of tree if head
; 480  : 		_Voidptr _Right;	// right subtree, or largest element if head
; 481  : 		char _Color;	// _Red or _Black, _Black if head
; 482  : 		char _Isnil;	// true only if head (also nil) node
; 483  : 		_Value_type _Myval;	// the stored value, unused if head
; 484  : 
; 485  : 	private:
; 486  : 		_Tree_node& operator=(const _Tree_node&);
; 487  : 		};
; 488  : 
; 489  : template<class _Value_type>
; 490  : 	struct _Tree_node<_Value_type, void *>
; 491  : 		{	// tree node
; 492  : 		typedef _Tree_node<_Value_type, void *> *_Nodeptr;
; 493  : 		_Nodeptr _Left;	// left subtree, or smallest element if head
; 494  : 		_Nodeptr _Parent;	// parent, or root of tree if head
; 495  : 		_Nodeptr _Right;	// right subtree, or largest element if head
; 496  : 		char _Color;	// _Red or _Black, _Black if head
; 497  : 		char _Isnil;	// true only if head (also nil) node
; 498  : 		_Value_type _Myval;	// the stored value, unused if head
; 499  : 
; 500  : 	private:
; 501  : 		_Tree_node& operator=(const _Tree_node&);
; 502  : 		};
; 503  : 
; 504  : template<class _Ty>
; 505  : 	struct _Tree_simple_types
; 506  : 		: public _Simple_types<_Ty>
; 507  : 	{	// wraps types needed by iterators
; 508  : 	typedef _Tree_node<_Ty, void *> _Node;
; 509  : 	typedef _Node *_Nodeptr;
; 510  : 	};
; 511  : 
; 512  : template<class _Ty,
; 513  : 	class _Alloc0>
; 514  : 	struct _Tree_base_types
; 515  : 	{	// types needed for a container base
; 516  : 	typedef _Alloc0 _Alloc;
; 517  : 	typedef _Tree_base_types<_Ty, _Alloc> _Myt;
; 518  : 
; 519  : 	typedef _Wrap_alloc<_Alloc> _Alty0;
; 520  : 	typedef typename _Alty0::template rebind<_Ty>::other _Alty;
; 521  : 
; 522  : 
; 523  : 	typedef typename _Get_voidptr<_Alty, typename _Alty::pointer>::type
; 524  : 		_Voidptr;
; 525  : 	typedef _Tree_node<typename _Alty::value_type,
; 526  : 		_Voidptr> _Node;
; 527  : 
; 528  : 	typedef typename _Alty::template rebind<_Node>::other _Alnod_type;
; 529  : 	typedef typename _Alnod_type::pointer _Nodeptr;
; 530  : 	typedef _Nodeptr& _Nodepref;
; 531  : 
; 532  : 	typedef typename _If<_Is_simple_alloc<_Alty>::value,
; 533  : 		_Tree_simple_types<typename _Alty::value_type>,
; 534  : 		_Tree_iter_types<typename _Alty::value_type,
; 535  : 			typename _Alty::size_type,
; 536  : 			typename _Alty::difference_type,
; 537  : 			typename _Alty::pointer,
; 538  : 			typename _Alty::const_pointer,
; 539  : 			typename _Alty::reference,
; 540  : 			typename _Alty::const_reference,
; 541  : 			_Nodeptr> >::type
; 542  : 		_Val_types;
; 543  : 	};
; 544  : 
; 545  : 		// TEMPLATE CLASS _Tree_val
; 546  : template<class _Val_types>
; 547  : 	class _Tree_val
; 548  : 		: public _Container_base
; 549  : 	{	// base class for tree to hold data
; 550  : public:
; 551  : 	typedef _Tree_val<_Val_types> _Myt;
; 552  : 
; 553  : 	typedef typename _Val_types::_Nodeptr _Nodeptr;
; 554  : 	typedef _Nodeptr& _Nodepref;
; 555  : 
; 556  : 	typedef typename _Val_types::value_type value_type;
; 557  : 	typedef typename _Val_types::size_type size_type;
; 558  : 	typedef typename _Val_types::difference_type difference_type;
; 559  : 	typedef typename _Val_types::pointer pointer;
; 560  : 	typedef typename _Val_types::const_pointer const_pointer;
; 561  : 	typedef typename _Val_types::reference reference;
; 562  : 	typedef typename _Val_types::const_reference const_reference;
; 563  : 
; 564  : 	typedef _Tree_const_iterator<_Myt> const_iterator;
; 565  : 	typedef _Tree_iterator<_Myt> iterator;
; 566  : 
; 567  : 	_Tree_val()
; 568  : 		{	// initialize data
; 569  : 		this->_Myhead = 0;
; 570  : 		this->_Mysize = 0;
; 571  : 		}
; 572  : 
; 573  : 	enum _Redbl
; 574  : 		{	// colors for link to parent
; 575  : 		_Red, _Black};
; 576  : 
; 577  : 	static char& _Color(_Nodeptr _Pnode)
; 578  : 		{	// return reference to color in node
; 579  : 		return ((char&)_Pnode->_Color);
; 580  : 		}
; 581  : 
; 582  : 	static char& _Isnil(_Nodeptr _Pnode)
; 583  : 		{	// return reference to nil flag in node
; 584  : 		return ((char&)_Pnode->_Isnil);

	mov	rax, QWORD PTR [rcx]

; 84   : 		{	// predecrement

	mov	rdx, rcx

; 85   : 		if (_Mytree::_Isnil(_Ptr))

	cmp	BYTE PTR [rax+25], 0
	je	SHORT $LN8@operator

; 86   : 			_Ptr = _Mytree::_Right(_Ptr);	// end() ==> rightmost

	mov	rax, QWORD PTR [rax+16]
	mov	QWORD PTR [rcx], rax

; 100  : 			}
; 101  : 		return (*this);

	mov	rax, rcx

; 102  : 		}

	ret	0
$LN8@operator:

; 103  : 
; 104  : 	_Myiter operator--(int)
; 105  : 		{	// postdecrement
; 106  : 		_Myiter _Tmp = *this;
; 107  : 		--*this;
; 108  : 		return (_Tmp);
; 109  : 		}
; 110  : 
; 111  : 	bool operator==(const _Myiter& _Right) const
; 112  : 		{	// test for iterator equality
; 113  : 		return (_Ptr == _Right._Ptr);
; 114  : 		}
; 115  : 
; 116  : 	bool operator!=(const _Myiter& _Right) const
; 117  : 		{	// test for iterator inequality
; 118  : 		return (!(*this == _Right));
; 119  : 		}
; 120  : 
; 121  : 	_Nodeptr _Mynode() const
; 122  : 		{	// return node pointer
; 123  : 		return (_Ptr);
; 124  : 		}
; 125  : 
; 126  : 	_Nodeptr _Ptr;	// pointer to node
; 127  : 	};
; 128  : 
; 129  : 	// TEMPLATE CLASS _Tree_unchecked_iterator
; 130  : template<class _Mytree>
; 131  : 	class _Tree_unchecked_iterator
; 132  : 		: public _Tree_unchecked_const_iterator<_Mytree>
; 133  : 	{	// unchecked iterator for mutable tree
; 134  : public:
; 135  : 	typedef _Tree_unchecked_iterator<_Mytree> _Myiter;
; 136  : 	typedef _Tree_unchecked_const_iterator<_Mytree> _Mybase;
; 137  : 	typedef bidirectional_iterator_tag iterator_category;
; 138  : 
; 139  : 	typedef typename _Mytree::_Nodeptr _Nodeptr;
; 140  : 	typedef typename _Mytree::value_type value_type;
; 141  : 	typedef typename _Mytree::difference_type difference_type;
; 142  : 	typedef typename _Mytree::pointer pointer;
; 143  : 	typedef typename _Mytree::reference reference;
; 144  : 
; 145  : 	_Tree_unchecked_iterator()
; 146  : 		{	// construct with null node
; 147  : 		}
; 148  : 
; 149  : 	_Tree_unchecked_iterator(_Nodeptr _Pnode, const _Mytree *_Plist)
; 150  : 		: _Mybase(_Pnode, _Plist)
; 151  : 		{	// construct with node pointer _Pnode
; 152  : 		}
; 153  : 
; 154  : 	reference operator*() const
; 155  : 		{	// return designated value
; 156  : 		return ((reference)**(_Mybase *)this);
; 157  : 		}
; 158  : 
; 159  : 	pointer operator->() const
; 160  : 		{	// return pointer to class object
; 161  : 		return (_STD pointer_traits<pointer>::pointer_to(**this));
; 162  : 		}
; 163  : 
; 164  : 	_Myiter& operator++()
; 165  : 		{	// preincrement
; 166  : 		++(*(_Mybase *)this);
; 167  : 		return (*this);
; 168  : 		}
; 169  : 
; 170  : 	_Myiter operator++(int)
; 171  : 		{	// postincrement
; 172  : 		_Myiter _Tmp = *this;
; 173  : 		++*this;
; 174  : 		return (_Tmp);
; 175  : 		}
; 176  : 
; 177  : 	_Myiter& operator--()
; 178  : 		{	// predecrement
; 179  : 		--(*(_Mybase *)this);
; 180  : 		return (*this);
; 181  : 		}
; 182  : 
; 183  : 	_Myiter operator--(int)
; 184  : 		{	// postdecrement
; 185  : 		_Myiter _Tmp = *this;
; 186  : 		--*this;
; 187  : 		return (_Tmp);
; 188  : 		}
; 189  : 	};
; 190  : 
; 191  : 	// TEMPLATE CLASS _Tree_const_iterator
; 192  : template<class _Mytree>
; 193  : 	class _Tree_const_iterator
; 194  : 		: public _Tree_unchecked_const_iterator<_Mytree, _Iterator_base>
; 195  : 	{	// iterator for nonmutable tree
; 196  : public:
; 197  : 	typedef _Tree_const_iterator<_Mytree> _Myiter;
; 198  : 	typedef _Tree_unchecked_const_iterator<_Mytree, _Iterator_base> _Mybase;
; 199  : 	typedef bidirectional_iterator_tag iterator_category;
; 200  : 
; 201  : 	typedef typename _Mytree::_Nodeptr _Nodeptr;
; 202  : 	typedef typename _Mytree::value_type value_type;
; 203  : 	typedef typename _Mytree::difference_type difference_type;
; 204  : 	typedef typename _Mytree::const_pointer pointer;
; 205  : 	typedef typename _Mytree::const_reference reference;
; 206  : 
; 207  : 	_Tree_const_iterator()
; 208  : 		: _Mybase()
; 209  : 		{	// construct with null node pointer
; 210  : 		}
; 211  : 
; 212  : 	_Tree_const_iterator(_Nodeptr _Pnode, const _Mytree *_Plist)
; 213  : 		: _Mybase(_Pnode, _Plist)
; 214  : 		{	// construct with node pointer _Pnode
; 215  : 		}
; 216  : 
; 217  : 	typedef _Tree_unchecked_const_iterator<_Mytree> _Unchecked_type;
; 218  : 
; 219  : 	_Myiter& _Rechecked(_Unchecked_type _Right)
; 220  : 		{	// reset from unchecked iterator
; 221  : 		this->_Ptr = _Right._Ptr;
; 222  : 		return (*this);
; 223  : 		}
; 224  : 
; 225  : 	_Unchecked_type _Unchecked() const
; 226  : 		{	// make an unchecked iterator
; 227  : 		return (_Unchecked_type(this->_Ptr, (_Mytree *)this->_Getcont()));
; 228  : 		}
; 229  : 
; 230  : 	reference operator*() const
; 231  : 		{	// return designated value
; 232  :  #if _ITERATOR_DEBUG_LEVEL == 2
; 233  : 		if (this->_Getcont() == 0
; 234  : 			|| this->_Ptr == 0
; 235  : 			|| this->_Ptr == ((_Mytree *)this->_Getcont())->_Myhead)
; 236  : 			{	// report error
; 237  : 			_DEBUG_ERROR("map/set iterator not dereferencable");
; 238  : 			_SCL_SECURE_OUT_OF_RANGE;
; 239  : 			}
; 240  : 
; 241  :  #elif _ITERATOR_DEBUG_LEVEL == 1
; 242  : 		_SCL_SECURE_VALIDATE(this->_Getcont() != 0 && this->_Ptr != 0);
; 243  : 		_SCL_SECURE_VALIDATE_RANGE(this->_Ptr !=
; 244  : 			((_Mytree *)this->_Getcont())->_Myhead);
; 245  :  #endif /* _ITERATOR_DEBUG_LEVEL */
; 246  : 
; 247  : 		return (_Mytree::_Myval(this->_Ptr));
; 248  : 		}
; 249  : 
; 250  : 	pointer operator->() const
; 251  : 		{	// return pointer to class object
; 252  : 		return (_STD pointer_traits<pointer>::pointer_to(**this));
; 253  : 		}
; 254  : 
; 255  : 	_Myiter& operator++()
; 256  : 		{	// preincrement
; 257  :  #if _ITERATOR_DEBUG_LEVEL == 2
; 258  : 		if (this->_Getcont() == 0
; 259  : 			|| this->_Ptr == 0
; 260  : 			|| _Mytree::_Isnil(this->_Ptr))
; 261  : 			{	// report error
; 262  : 			_DEBUG_ERROR("map/set iterator not incrementable");
; 263  : 			_SCL_SECURE_OUT_OF_RANGE;
; 264  : 			}
; 265  : 
; 266  :  #elif _ITERATOR_DEBUG_LEVEL == 1
; 267  : 		_SCL_SECURE_VALIDATE(this->_Getcont() != 0 && this->_Ptr != 0);
; 268  : 		_SCL_SECURE_VALIDATE_RANGE(!_Mytree::_Isnil(this->_Ptr));
; 269  :  #endif /* _ITERATOR_DEBUG_LEVEL */
; 270  : 
; 271  : 		++(*(_Mybase *)this);
; 272  : 		return (*this);
; 273  : 		}
; 274  : 
; 275  : 	_Myiter operator++(int)
; 276  : 		{	// postincrement
; 277  : 		_Myiter _Tmp = *this;
; 278  : 		++*this;
; 279  : 		return (_Tmp);
; 280  : 		}
; 281  : 
; 282  : 	_Myiter& operator--()
; 283  : 		{	// predecrement
; 284  :  #if _ITERATOR_DEBUG_LEVEL == 2
; 285  : 		if (this->_Getcont() == 0
; 286  : 			|| this->_Ptr == 0)
; 287  : 			{	// report error
; 288  : 			_DEBUG_ERROR("map/set iterator not decrementable");
; 289  : 			_SCL_SECURE_OUT_OF_RANGE;
; 290  : 			}
; 291  : 
; 292  : 		_Nodeptr _Ptrsav = this->_Ptr;
; 293  : 		--(*(_Mybase *)this);
; 294  : 		if (_Ptrsav == this->_Ptr)
; 295  : 			{	// report error
; 296  : 			_DEBUG_ERROR("map/set iterator not decrementable");
; 297  : 			_SCL_SECURE_OUT_OF_RANGE;
; 298  : 			}
; 299  : 
; 300  :  #elif _ITERATOR_DEBUG_LEVEL == 1
; 301  : 		_SCL_SECURE_VALIDATE(this->_Getcont() != 0 && this->_Ptr != 0);
; 302  : 
; 303  : 		_Nodeptr _Ptrsav = this->_Ptr;
; 304  : 		--(*(_Mybase *)this);
; 305  : 		_SCL_SECURE_VALIDATE(_Ptrsav != this->_Ptr);
; 306  : 
; 307  :  #else /* _ITERATOR_DEBUG_LEVEL == 0 */
; 308  : 		--(*(_Mybase *)this);
; 309  :  #endif /* _ITERATOR_DEBUG_LEVEL */
; 310  : 
; 311  : 		return (*this);
; 312  : 		}
; 313  : 
; 314  : 	_Myiter operator--(int)
; 315  : 		{	// postdecrement
; 316  : 		_Myiter _Tmp = *this;
; 317  : 		--*this;
; 318  : 		return (_Tmp);
; 319  : 		}
; 320  : 
; 321  : 	bool operator==(const _Myiter& _Right) const
; 322  : 		{	// test for iterator equality
; 323  :  #if _ITERATOR_DEBUG_LEVEL == 2
; 324  : 		if (this->_Getcont() == 0
; 325  : 			|| this->_Getcont() != _Right._Getcont())
; 326  : 			{	// report error
; 327  : 			_DEBUG_ERROR("map/set iterators incompatible");
; 328  : 			_SCL_SECURE_INVALID_ARGUMENT;
; 329  : 			}
; 330  : 
; 331  :  #elif _ITERATOR_DEBUG_LEVEL == 1
; 332  : 		_SCL_SECURE_VALIDATE(this->_Getcont() != 0
; 333  : 			&& this->_Getcont() == _Right._Getcont());
; 334  :  #endif /* _ITERATOR_DEBUG_LEVEL */
; 335  : 
; 336  : 		return (this->_Ptr == _Right._Ptr);
; 337  : 		}
; 338  : 
; 339  : 	bool operator!=(const _Myiter& _Right) const
; 340  : 		{	// test for iterator inequality
; 341  : 		return (!(*this == _Right));
; 342  : 		}
; 343  : 	};
; 344  : 
; 345  : template<class _Mytree> inline
; 346  : 	typename _Tree_const_iterator<_Mytree>::_Unchecked_type
; 347  : 		_Unchecked(_Tree_const_iterator<_Mytree> _Iter)
; 348  : 	{	// convert to unchecked
; 349  : 	return (_Iter._Unchecked());
; 350  : 	}
; 351  : 
; 352  : template<class _Mytree> inline
; 353  : 	_Tree_const_iterator<_Mytree>&
; 354  : 		_Rechecked(_Tree_const_iterator<_Mytree>& _Iter,
; 355  : 			typename _Tree_const_iterator<_Mytree>
; 356  : 				::_Unchecked_type _Right)
; 357  : 	{	// convert to checked
; 358  : 	return (_Iter._Rechecked(_Right));
; 359  : 	}
; 360  : 
; 361  : 	// TEMPLATE CLASS _Tree_iterator
; 362  : template<class _Mytree>
; 363  : 	class _Tree_iterator
; 364  : 		: public _Tree_const_iterator<_Mytree>
; 365  : 	{	// iterator for mutable tree
; 366  : public:
; 367  : 	typedef _Tree_iterator<_Mytree> _Myiter;
; 368  : 	typedef _Tree_const_iterator<_Mytree> _Mybase;
; 369  : 	typedef bidirectional_iterator_tag iterator_category;
; 370  : 
; 371  : 	typedef typename _Mytree::_Nodeptr _Nodeptr;
; 372  : 	typedef typename _Mytree::value_type value_type;
; 373  : 	typedef typename _Mytree::difference_type difference_type;
; 374  : 
; 375  : 	typedef typename _Mytree::pointer pointer;
; 376  : 	typedef typename _Mytree::reference reference;
; 377  : 
; 378  : 	_Tree_iterator()
; 379  : 		{	// construct with null node
; 380  : 		}
; 381  : 
; 382  : 	_Tree_iterator(_Nodeptr _Pnode, const _Mytree *_Plist)
; 383  : 		: _Mybase(_Pnode, _Plist)
; 384  : 		{	// construct with node pointer _Pnode
; 385  : 		}
; 386  : 
; 387  : 	typedef _Tree_unchecked_iterator<_Mytree> _Unchecked_type;
; 388  : 
; 389  : 	_Myiter& _Rechecked(_Unchecked_type _Right)
; 390  : 		{	// reset from unchecked iterator
; 391  : 		this->_Ptr = _Right._Ptr;
; 392  : 		return (*this);
; 393  : 		}
; 394  : 
; 395  : 	_Unchecked_type _Unchecked() const
; 396  : 		{	// make an unchecked iterator
; 397  : 		return (_Unchecked_type(this->_Ptr, (_Mytree *)this->_Getcont()));
; 398  : 		}
; 399  : 
; 400  : 	reference operator*() const
; 401  : 		{	// return designated value
; 402  : 		return ((reference)**(_Mybase *)this);
; 403  : 		}
; 404  : 
; 405  : 	pointer operator->() const
; 406  : 		{	// return pointer to class object
; 407  : 		return (_STD pointer_traits<pointer>::pointer_to(**this));
; 408  : 		}
; 409  : 
; 410  : 	_Myiter& operator++()
; 411  : 		{	// preincrement
; 412  : 		++(*(_Mybase *)this);
; 413  : 		return (*this);
; 414  : 		}
; 415  : 
; 416  : 	_Myiter operator++(int)
; 417  : 		{	// postincrement
; 418  : 		_Myiter _Tmp = *this;
; 419  : 		++*this;
; 420  : 		return (_Tmp);
; 421  : 		}
; 422  : 
; 423  : 	_Myiter& operator--()
; 424  : 		{	// predecrement
; 425  : 		--(*(_Mybase *)this);
; 426  : 		return (*this);
; 427  : 		}
; 428  : 
; 429  : 	_Myiter operator--(int)
; 430  : 		{	// postdecrement
; 431  : 		_Myiter _Tmp = *this;
; 432  : 		--*this;
; 433  : 		return (_Tmp);
; 434  : 		}
; 435  : 	};
; 436  : 
; 437  : template<class _Mytree> inline
; 438  : 	typename _Tree_iterator<_Mytree>::_Unchecked_type
; 439  : 		_Unchecked(_Tree_iterator<_Mytree> _Iter)
; 440  : 	{	// convert to unchecked
; 441  : 	return (_Iter._Unchecked());
; 442  : 	}
; 443  : 
; 444  : template<class _Mytree> inline
; 445  : 	_Tree_iterator<_Mytree>&
; 446  : 		_Rechecked(_Tree_iterator<_Mytree>& _Iter,
; 447  : 			typename _Tree_iterator<_Mytree>
; 448  : 				::_Unchecked_type _Right)
; 449  : 	{	// convert to checked
; 450  : 	return (_Iter._Rechecked(_Right));
; 451  : 	}
; 452  : 
; 453  : 		// tree TYPE WRAPPERS
; 454  : template<class _Value_type,
; 455  : 	class _Size_type,
; 456  : 	class _Difference_type,
; 457  : 	class _Pointer,
; 458  : 	class _Const_pointer,
; 459  : 	class _Reference,
; 460  : 	class _Const_reference,
; 461  : 	class _Nodeptr_type>
; 462  : 	struct _Tree_iter_types
; 463  : 	{	// wraps types needed by iterators
; 464  : 	typedef _Value_type value_type;
; 465  : 	typedef _Size_type size_type;
; 466  : 	typedef _Difference_type difference_type;
; 467  : 	typedef _Pointer pointer;
; 468  : 	typedef _Const_pointer const_pointer;
; 469  : 	typedef _Reference reference;
; 470  : 	typedef _Const_reference const_reference;
; 471  : 	typedef _Nodeptr_type _Nodeptr;
; 472  : 	};
; 473  : 
; 474  : template<class _Value_type,
; 475  : 	class _Voidptr>
; 476  : 	struct _Tree_node
; 477  : 		{	// tree node
; 478  : 		_Voidptr _Left;	// left subtree, or smallest element if head
; 479  : 		_Voidptr _Parent;	// parent, or root of tree if head
; 480  : 		_Voidptr _Right;	// right subtree, or largest element if head
; 481  : 		char _Color;	// _Red or _Black, _Black if head
; 482  : 		char _Isnil;	// true only if head (also nil) node
; 483  : 		_Value_type _Myval;	// the stored value, unused if head
; 484  : 
; 485  : 	private:
; 486  : 		_Tree_node& operator=(const _Tree_node&);
; 487  : 		};
; 488  : 
; 489  : template<class _Value_type>
; 490  : 	struct _Tree_node<_Value_type, void *>
; 491  : 		{	// tree node
; 492  : 		typedef _Tree_node<_Value_type, void *> *_Nodeptr;
; 493  : 		_Nodeptr _Left;	// left subtree, or smallest element if head
; 494  : 		_Nodeptr _Parent;	// parent, or root of tree if head
; 495  : 		_Nodeptr _Right;	// right subtree, or largest element if head
; 496  : 		char _Color;	// _Red or _Black, _Black if head
; 497  : 		char _Isnil;	// true only if head (also nil) node
; 498  : 		_Value_type _Myval;	// the stored value, unused if head
; 499  : 
; 500  : 	private:
; 501  : 		_Tree_node& operator=(const _Tree_node&);
; 502  : 		};
; 503  : 
; 504  : template<class _Ty>
; 505  : 	struct _Tree_simple_types
; 506  : 		: public _Simple_types<_Ty>
; 507  : 	{	// wraps types needed by iterators
; 508  : 	typedef _Tree_node<_Ty, void *> _Node;
; 509  : 	typedef _Node *_Nodeptr;
; 510  : 	};
; 511  : 
; 512  : template<class _Ty,
; 513  : 	class _Alloc0>
; 514  : 	struct _Tree_base_types
; 515  : 	{	// types needed for a container base
; 516  : 	typedef _Alloc0 _Alloc;
; 517  : 	typedef _Tree_base_types<_Ty, _Alloc> _Myt;
; 518  : 
; 519  : 	typedef _Wrap_alloc<_Alloc> _Alty0;
; 520  : 	typedef typename _Alty0::template rebind<_Ty>::other _Alty;
; 521  : 
; 522  : 
; 523  : 	typedef typename _Get_voidptr<_Alty, typename _Alty::pointer>::type
; 524  : 		_Voidptr;
; 525  : 	typedef _Tree_node<typename _Alty::value_type,
; 526  : 		_Voidptr> _Node;
; 527  : 
; 528  : 	typedef typename _Alty::template rebind<_Node>::other _Alnod_type;
; 529  : 	typedef typename _Alnod_type::pointer _Nodeptr;
; 530  : 	typedef _Nodeptr& _Nodepref;
; 531  : 
; 532  : 	typedef typename _If<_Is_simple_alloc<_Alty>::value,
; 533  : 		_Tree_simple_types<typename _Alty::value_type>,
; 534  : 		_Tree_iter_types<typename _Alty::value_type,
; 535  : 			typename _Alty::size_type,
; 536  : 			typename _Alty::difference_type,
; 537  : 			typename _Alty::pointer,
; 538  : 			typename _Alty::const_pointer,
; 539  : 			typename _Alty::reference,
; 540  : 			typename _Alty::const_reference,
; 541  : 			_Nodeptr> >::type
; 542  : 		_Val_types;
; 543  : 	};
; 544  : 
; 545  : 		// TEMPLATE CLASS _Tree_val
; 546  : template<class _Val_types>
; 547  : 	class _Tree_val
; 548  : 		: public _Container_base
; 549  : 	{	// base class for tree to hold data
; 550  : public:
; 551  : 	typedef _Tree_val<_Val_types> _Myt;
; 552  : 
; 553  : 	typedef typename _Val_types::_Nodeptr _Nodeptr;
; 554  : 	typedef _Nodeptr& _Nodepref;
; 555  : 
; 556  : 	typedef typename _Val_types::value_type value_type;
; 557  : 	typedef typename _Val_types::size_type size_type;
; 558  : 	typedef typename _Val_types::difference_type difference_type;
; 559  : 	typedef typename _Val_types::pointer pointer;
; 560  : 	typedef typename _Val_types::const_pointer const_pointer;
; 561  : 	typedef typename _Val_types::reference reference;
; 562  : 	typedef typename _Val_types::const_reference const_reference;
; 563  : 
; 564  : 	typedef _Tree_const_iterator<_Myt> const_iterator;
; 565  : 	typedef _Tree_iterator<_Myt> iterator;
; 566  : 
; 567  : 	_Tree_val()
; 568  : 		{	// initialize data
; 569  : 		this->_Myhead = 0;
; 570  : 		this->_Mysize = 0;
; 571  : 		}
; 572  : 
; 573  : 	enum _Redbl
; 574  : 		{	// colors for link to parent
; 575  : 		_Red, _Black};
; 576  : 
; 577  : 	static char& _Color(_Nodeptr _Pnode)
; 578  : 		{	// return reference to color in node
; 579  : 		return ((char&)_Pnode->_Color);
; 580  : 		}
; 581  : 
; 582  : 	static char& _Isnil(_Nodeptr _Pnode)
; 583  : 		{	// return reference to nil flag in node
; 584  : 		return ((char&)_Pnode->_Isnil);

	mov	rcx, QWORD PTR [rax]

; 87   : 		else if (!_Mytree::_Isnil(_Mytree::_Left(_Ptr)))

	cmp	BYTE PTR [rcx+25], 0
	jne	SHORT $LN40@operator

; 103  : 
; 104  : 	_Myiter operator--(int)
; 105  : 		{	// postdecrement
; 106  : 		_Myiter _Tmp = *this;
; 107  : 		--*this;
; 108  : 		return (_Tmp);
; 109  : 		}
; 110  : 
; 111  : 	bool operator==(const _Myiter& _Right) const
; 112  : 		{	// test for iterator equality
; 113  : 		return (_Ptr == _Right._Ptr);
; 114  : 		}
; 115  : 
; 116  : 	bool operator!=(const _Myiter& _Right) const
; 117  : 		{	// test for iterator inequality
; 118  : 		return (!(*this == _Right));
; 119  : 		}
; 120  : 
; 121  : 	_Nodeptr _Mynode() const
; 122  : 		{	// return node pointer
; 123  : 		return (_Ptr);
; 124  : 		}
; 125  : 
; 126  : 	_Nodeptr _Ptr;	// pointer to node
; 127  : 	};
; 128  : 
; 129  : 	// TEMPLATE CLASS _Tree_unchecked_iterator
; 130  : template<class _Mytree>
; 131  : 	class _Tree_unchecked_iterator
; 132  : 		: public _Tree_unchecked_const_iterator<_Mytree>
; 133  : 	{	// unchecked iterator for mutable tree
; 134  : public:
; 135  : 	typedef _Tree_unchecked_iterator<_Mytree> _Myiter;
; 136  : 	typedef _Tree_unchecked_const_iterator<_Mytree> _Mybase;
; 137  : 	typedef bidirectional_iterator_tag iterator_category;
; 138  : 
; 139  : 	typedef typename _Mytree::_Nodeptr _Nodeptr;
; 140  : 	typedef typename _Mytree::value_type value_type;
; 141  : 	typedef typename _Mytree::difference_type difference_type;
; 142  : 	typedef typename _Mytree::pointer pointer;
; 143  : 	typedef typename _Mytree::reference reference;
; 144  : 
; 145  : 	_Tree_unchecked_iterator()
; 146  : 		{	// construct with null node
; 147  : 		}
; 148  : 
; 149  : 	_Tree_unchecked_iterator(_Nodeptr _Pnode, const _Mytree *_Plist)
; 150  : 		: _Mybase(_Pnode, _Plist)
; 151  : 		{	// construct with node pointer _Pnode
; 152  : 		}
; 153  : 
; 154  : 	reference operator*() const
; 155  : 		{	// return designated value
; 156  : 		return ((reference)**(_Mybase *)this);
; 157  : 		}
; 158  : 
; 159  : 	pointer operator->() const
; 160  : 		{	// return pointer to class object
; 161  : 		return (_STD pointer_traits<pointer>::pointer_to(**this));
; 162  : 		}
; 163  : 
; 164  : 	_Myiter& operator++()
; 165  : 		{	// preincrement
; 166  : 		++(*(_Mybase *)this);
; 167  : 		return (*this);
; 168  : 		}
; 169  : 
; 170  : 	_Myiter operator++(int)
; 171  : 		{	// postincrement
; 172  : 		_Myiter _Tmp = *this;
; 173  : 		++*this;
; 174  : 		return (_Tmp);
; 175  : 		}
; 176  : 
; 177  : 	_Myiter& operator--()
; 178  : 		{	// predecrement
; 179  : 		--(*(_Mybase *)this);
; 180  : 		return (*this);
; 181  : 		}
; 182  : 
; 183  : 	_Myiter operator--(int)
; 184  : 		{	// postdecrement
; 185  : 		_Myiter _Tmp = *this;
; 186  : 		--*this;
; 187  : 		return (_Tmp);
; 188  : 		}
; 189  : 	};
; 190  : 
; 191  : 	// TEMPLATE CLASS _Tree_const_iterator
; 192  : template<class _Mytree>
; 193  : 	class _Tree_const_iterator
; 194  : 		: public _Tree_unchecked_const_iterator<_Mytree, _Iterator_base>
; 195  : 	{	// iterator for nonmutable tree
; 196  : public:
; 197  : 	typedef _Tree_const_iterator<_Mytree> _Myiter;
; 198  : 	typedef _Tree_unchecked_const_iterator<_Mytree, _Iterator_base> _Mybase;
; 199  : 	typedef bidirectional_iterator_tag iterator_category;
; 200  : 
; 201  : 	typedef typename _Mytree::_Nodeptr _Nodeptr;
; 202  : 	typedef typename _Mytree::value_type value_type;
; 203  : 	typedef typename _Mytree::difference_type difference_type;
; 204  : 	typedef typename _Mytree::const_pointer pointer;
; 205  : 	typedef typename _Mytree::const_reference reference;
; 206  : 
; 207  : 	_Tree_const_iterator()
; 208  : 		: _Mybase()
; 209  : 		{	// construct with null node pointer
; 210  : 		}
; 211  : 
; 212  : 	_Tree_const_iterator(_Nodeptr _Pnode, const _Mytree *_Plist)
; 213  : 		: _Mybase(_Pnode, _Plist)
; 214  : 		{	// construct with node pointer _Pnode
; 215  : 		}
; 216  : 
; 217  : 	typedef _Tree_unchecked_const_iterator<_Mytree> _Unchecked_type;
; 218  : 
; 219  : 	_Myiter& _Rechecked(_Unchecked_type _Right)
; 220  : 		{	// reset from unchecked iterator
; 221  : 		this->_Ptr = _Right._Ptr;
; 222  : 		return (*this);
; 223  : 		}
; 224  : 
; 225  : 	_Unchecked_type _Unchecked() const
; 226  : 		{	// make an unchecked iterator
; 227  : 		return (_Unchecked_type(this->_Ptr, (_Mytree *)this->_Getcont()));
; 228  : 		}
; 229  : 
; 230  : 	reference operator*() const
; 231  : 		{	// return designated value
; 232  :  #if _ITERATOR_DEBUG_LEVEL == 2
; 233  : 		if (this->_Getcont() == 0
; 234  : 			|| this->_Ptr == 0
; 235  : 			|| this->_Ptr == ((_Mytree *)this->_Getcont())->_Myhead)
; 236  : 			{	// report error
; 237  : 			_DEBUG_ERROR("map/set iterator not dereferencable");
; 238  : 			_SCL_SECURE_OUT_OF_RANGE;
; 239  : 			}
; 240  : 
; 241  :  #elif _ITERATOR_DEBUG_LEVEL == 1
; 242  : 		_SCL_SECURE_VALIDATE(this->_Getcont() != 0 && this->_Ptr != 0);
; 243  : 		_SCL_SECURE_VALIDATE_RANGE(this->_Ptr !=
; 244  : 			((_Mytree *)this->_Getcont())->_Myhead);
; 245  :  #endif /* _ITERATOR_DEBUG_LEVEL */
; 246  : 
; 247  : 		return (_Mytree::_Myval(this->_Ptr));
; 248  : 		}
; 249  : 
; 250  : 	pointer operator->() const
; 251  : 		{	// return pointer to class object
; 252  : 		return (_STD pointer_traits<pointer>::pointer_to(**this));
; 253  : 		}
; 254  : 
; 255  : 	_Myiter& operator++()
; 256  : 		{	// preincrement
; 257  :  #if _ITERATOR_DEBUG_LEVEL == 2
; 258  : 		if (this->_Getcont() == 0
; 259  : 			|| this->_Ptr == 0
; 260  : 			|| _Mytree::_Isnil(this->_Ptr))
; 261  : 			{	// report error
; 262  : 			_DEBUG_ERROR("map/set iterator not incrementable");
; 263  : 			_SCL_SECURE_OUT_OF_RANGE;
; 264  : 			}
; 265  : 
; 266  :  #elif _ITERATOR_DEBUG_LEVEL == 1
; 267  : 		_SCL_SECURE_VALIDATE(this->_Getcont() != 0 && this->_Ptr != 0);
; 268  : 		_SCL_SECURE_VALIDATE_RANGE(!_Mytree::_Isnil(this->_Ptr));
; 269  :  #endif /* _ITERATOR_DEBUG_LEVEL */
; 270  : 
; 271  : 		++(*(_Mybase *)this);
; 272  : 		return (*this);
; 273  : 		}
; 274  : 
; 275  : 	_Myiter operator++(int)
; 276  : 		{	// postincrement
; 277  : 		_Myiter _Tmp = *this;
; 278  : 		++*this;
; 279  : 		return (_Tmp);
; 280  : 		}
; 281  : 
; 282  : 	_Myiter& operator--()
; 283  : 		{	// predecrement
; 284  :  #if _ITERATOR_DEBUG_LEVEL == 2
; 285  : 		if (this->_Getcont() == 0
; 286  : 			|| this->_Ptr == 0)
; 287  : 			{	// report error
; 288  : 			_DEBUG_ERROR("map/set iterator not decrementable");
; 289  : 			_SCL_SECURE_OUT_OF_RANGE;
; 290  : 			}
; 291  : 
; 292  : 		_Nodeptr _Ptrsav = this->_Ptr;
; 293  : 		--(*(_Mybase *)this);
; 294  : 		if (_Ptrsav == this->_Ptr)
; 295  : 			{	// report error
; 296  : 			_DEBUG_ERROR("map/set iterator not decrementable");
; 297  : 			_SCL_SECURE_OUT_OF_RANGE;
; 298  : 			}
; 299  : 
; 300  :  #elif _ITERATOR_DEBUG_LEVEL == 1
; 301  : 		_SCL_SECURE_VALIDATE(this->_Getcont() != 0 && this->_Ptr != 0);
; 302  : 
; 303  : 		_Nodeptr _Ptrsav = this->_Ptr;
; 304  : 		--(*(_Mybase *)this);
; 305  : 		_SCL_SECURE_VALIDATE(_Ptrsav != this->_Ptr);
; 306  : 
; 307  :  #else /* _ITERATOR_DEBUG_LEVEL == 0 */
; 308  : 		--(*(_Mybase *)this);
; 309  :  #endif /* _ITERATOR_DEBUG_LEVEL */
; 310  : 
; 311  : 		return (*this);
; 312  : 		}
; 313  : 
; 314  : 	_Myiter operator--(int)
; 315  : 		{	// postdecrement
; 316  : 		_Myiter _Tmp = *this;
; 317  : 		--*this;
; 318  : 		return (_Tmp);
; 319  : 		}
; 320  : 
; 321  : 	bool operator==(const _Myiter& _Right) const
; 322  : 		{	// test for iterator equality
; 323  :  #if _ITERATOR_DEBUG_LEVEL == 2
; 324  : 		if (this->_Getcont() == 0
; 325  : 			|| this->_Getcont() != _Right._Getcont())
; 326  : 			{	// report error
; 327  : 			_DEBUG_ERROR("map/set iterators incompatible");
; 328  : 			_SCL_SECURE_INVALID_ARGUMENT;
; 329  : 			}
; 330  : 
; 331  :  #elif _ITERATOR_DEBUG_LEVEL == 1
; 332  : 		_SCL_SECURE_VALIDATE(this->_Getcont() != 0
; 333  : 			&& this->_Getcont() == _Right._Getcont());
; 334  :  #endif /* _ITERATOR_DEBUG_LEVEL */
; 335  : 
; 336  : 		return (this->_Ptr == _Right._Ptr);
; 337  : 		}
; 338  : 
; 339  : 	bool operator!=(const _Myiter& _Right) const
; 340  : 		{	// test for iterator inequality
; 341  : 		return (!(*this == _Right));
; 342  : 		}
; 343  : 	};
; 344  : 
; 345  : template<class _Mytree> inline
; 346  : 	typename _Tree_const_iterator<_Mytree>::_Unchecked_type
; 347  : 		_Unchecked(_Tree_const_iterator<_Mytree> _Iter)
; 348  : 	{	// convert to unchecked
; 349  : 	return (_Iter._Unchecked());
; 350  : 	}
; 351  : 
; 352  : template<class _Mytree> inline
; 353  : 	_Tree_const_iterator<_Mytree>&
; 354  : 		_Rechecked(_Tree_const_iterator<_Mytree>& _Iter,
; 355  : 			typename _Tree_const_iterator<_Mytree>
; 356  : 				::_Unchecked_type _Right)
; 357  : 	{	// convert to checked
; 358  : 	return (_Iter._Rechecked(_Right));
; 359  : 	}
; 360  : 
; 361  : 	// TEMPLATE CLASS _Tree_iterator
; 362  : template<class _Mytree>
; 363  : 	class _Tree_iterator
; 364  : 		: public _Tree_const_iterator<_Mytree>
; 365  : 	{	// iterator for mutable tree
; 366  : public:
; 367  : 	typedef _Tree_iterator<_Mytree> _Myiter;
; 368  : 	typedef _Tree_const_iterator<_Mytree> _Mybase;
; 369  : 	typedef bidirectional_iterator_tag iterator_category;
; 370  : 
; 371  : 	typedef typename _Mytree::_Nodeptr _Nodeptr;
; 372  : 	typedef typename _Mytree::value_type value_type;
; 373  : 	typedef typename _Mytree::difference_type difference_type;
; 374  : 
; 375  : 	typedef typename _Mytree::pointer pointer;
; 376  : 	typedef typename _Mytree::reference reference;
; 377  : 
; 378  : 	_Tree_iterator()
; 379  : 		{	// construct with null node
; 380  : 		}
; 381  : 
; 382  : 	_Tree_iterator(_Nodeptr _Pnode, const _Mytree *_Plist)
; 383  : 		: _Mybase(_Pnode, _Plist)
; 384  : 		{	// construct with node pointer _Pnode
; 385  : 		}
; 386  : 
; 387  : 	typedef _Tree_unchecked_iterator<_Mytree> _Unchecked_type;
; 388  : 
; 389  : 	_Myiter& _Rechecked(_Unchecked_type _Right)
; 390  : 		{	// reset from unchecked iterator
; 391  : 		this->_Ptr = _Right._Ptr;
; 392  : 		return (*this);
; 393  : 		}
; 394  : 
; 395  : 	_Unchecked_type _Unchecked() const
; 396  : 		{	// make an unchecked iterator
; 397  : 		return (_Unchecked_type(this->_Ptr, (_Mytree *)this->_Getcont()));
; 398  : 		}
; 399  : 
; 400  : 	reference operator*() const
; 401  : 		{	// return designated value
; 402  : 		return ((reference)**(_Mybase *)this);
; 403  : 		}
; 404  : 
; 405  : 	pointer operator->() const
; 406  : 		{	// return pointer to class object
; 407  : 		return (_STD pointer_traits<pointer>::pointer_to(**this));
; 408  : 		}
; 409  : 
; 410  : 	_Myiter& operator++()
; 411  : 		{	// preincrement
; 412  : 		++(*(_Mybase *)this);
; 413  : 		return (*this);
; 414  : 		}
; 415  : 
; 416  : 	_Myiter operator++(int)
; 417  : 		{	// postincrement
; 418  : 		_Myiter _Tmp = *this;
; 419  : 		++*this;
; 420  : 		return (_Tmp);
; 421  : 		}
; 422  : 
; 423  : 	_Myiter& operator--()
; 424  : 		{	// predecrement
; 425  : 		--(*(_Mybase *)this);
; 426  : 		return (*this);
; 427  : 		}
; 428  : 
; 429  : 	_Myiter operator--(int)
; 430  : 		{	// postdecrement
; 431  : 		_Myiter _Tmp = *this;
; 432  : 		--*this;
; 433  : 		return (_Tmp);
; 434  : 		}
; 435  : 	};
; 436  : 
; 437  : template<class _Mytree> inline
; 438  : 	typename _Tree_iterator<_Mytree>::_Unchecked_type
; 439  : 		_Unchecked(_Tree_iterator<_Mytree> _Iter)
; 440  : 	{	// convert to unchecked
; 441  : 	return (_Iter._Unchecked());
; 442  : 	}
; 443  : 
; 444  : template<class _Mytree> inline
; 445  : 	_Tree_iterator<_Mytree>&
; 446  : 		_Rechecked(_Tree_iterator<_Mytree>& _Iter,
; 447  : 			typename _Tree_iterator<_Mytree>
; 448  : 				::_Unchecked_type _Right)
; 449  : 	{	// convert to checked
; 450  : 	return (_Iter._Rechecked(_Right));
; 451  : 	}
; 452  : 
; 453  : 		// tree TYPE WRAPPERS
; 454  : template<class _Value_type,
; 455  : 	class _Size_type,
; 456  : 	class _Difference_type,
; 457  : 	class _Pointer,
; 458  : 	class _Const_pointer,
; 459  : 	class _Reference,
; 460  : 	class _Const_reference,
; 461  : 	class _Nodeptr_type>
; 462  : 	struct _Tree_iter_types
; 463  : 	{	// wraps types needed by iterators
; 464  : 	typedef _Value_type value_type;
; 465  : 	typedef _Size_type size_type;
; 466  : 	typedef _Difference_type difference_type;
; 467  : 	typedef _Pointer pointer;
; 468  : 	typedef _Const_pointer const_pointer;
; 469  : 	typedef _Reference reference;
; 470  : 	typedef _Const_reference const_reference;
; 471  : 	typedef _Nodeptr_type _Nodeptr;
; 472  : 	};
; 473  : 
; 474  : template<class _Value_type,
; 475  : 	class _Voidptr>
; 476  : 	struct _Tree_node
; 477  : 		{	// tree node
; 478  : 		_Voidptr _Left;	// left subtree, or smallest element if head
; 479  : 		_Voidptr _Parent;	// parent, or root of tree if head
; 480  : 		_Voidptr _Right;	// right subtree, or largest element if head
; 481  : 		char _Color;	// _Red or _Black, _Black if head
; 482  : 		char _Isnil;	// true only if head (also nil) node
; 483  : 		_Value_type _Myval;	// the stored value, unused if head
; 484  : 
; 485  : 	private:
; 486  : 		_Tree_node& operator=(const _Tree_node&);
; 487  : 		};
; 488  : 
; 489  : template<class _Value_type>
; 490  : 	struct _Tree_node<_Value_type, void *>
; 491  : 		{	// tree node
; 492  : 		typedef _Tree_node<_Value_type, void *> *_Nodeptr;
; 493  : 		_Nodeptr _Left;	// left subtree, or smallest element if head
; 494  : 		_Nodeptr _Parent;	// parent, or root of tree if head
; 495  : 		_Nodeptr _Right;	// right subtree, or largest element if head
; 496  : 		char _Color;	// _Red or _Black, _Black if head
; 497  : 		char _Isnil;	// true only if head (also nil) node
; 498  : 		_Value_type _Myval;	// the stored value, unused if head
; 499  : 
; 500  : 	private:
; 501  : 		_Tree_node& operator=(const _Tree_node&);
; 502  : 		};
; 503  : 
; 504  : template<class _Ty>
; 505  : 	struct _Tree_simple_types
; 506  : 		: public _Simple_types<_Ty>
; 507  : 	{	// wraps types needed by iterators
; 508  : 	typedef _Tree_node<_Ty, void *> _Node;
; 509  : 	typedef _Node *_Nodeptr;
; 510  : 	};
; 511  : 
; 512  : template<class _Ty,
; 513  : 	class _Alloc0>
; 514  : 	struct _Tree_base_types
; 515  : 	{	// types needed for a container base
; 516  : 	typedef _Alloc0 _Alloc;
; 517  : 	typedef _Tree_base_types<_Ty, _Alloc> _Myt;
; 518  : 
; 519  : 	typedef _Wrap_alloc<_Alloc> _Alty0;
; 520  : 	typedef typename _Alty0::template rebind<_Ty>::other _Alty;
; 521  : 
; 522  : 
; 523  : 	typedef typename _Get_voidptr<_Alty, typename _Alty::pointer>::type
; 524  : 		_Voidptr;
; 525  : 	typedef _Tree_node<typename _Alty::value_type,
; 526  : 		_Voidptr> _Node;
; 527  : 
; 528  : 	typedef typename _Alty::template rebind<_Node>::other _Alnod_type;
; 529  : 	typedef typename _Alnod_type::pointer _Nodeptr;
; 530  : 	typedef _Nodeptr& _Nodepref;
; 531  : 
; 532  : 	typedef typename _If<_Is_simple_alloc<_Alty>::value,
; 533  : 		_Tree_simple_types<typename _Alty::value_type>,
; 534  : 		_Tree_iter_types<typename _Alty::value_type,
; 535  : 			typename _Alty::size_type,
; 536  : 			typename _Alty::difference_type,
; 537  : 			typename _Alty::pointer,
; 538  : 			typename _Alty::const_pointer,
; 539  : 			typename _Alty::reference,
; 540  : 			typename _Alty::const_reference,
; 541  : 			_Nodeptr> >::type
; 542  : 		_Val_types;
; 543  : 	};
; 544  : 
; 545  : 		// TEMPLATE CLASS _Tree_val
; 546  : template<class _Val_types>
; 547  : 	class _Tree_val
; 548  : 		: public _Container_base
; 549  : 	{	// base class for tree to hold data
; 550  : public:
; 551  : 	typedef _Tree_val<_Val_types> _Myt;
; 552  : 
; 553  : 	typedef typename _Val_types::_Nodeptr _Nodeptr;
; 554  : 	typedef _Nodeptr& _Nodepref;
; 555  : 
; 556  : 	typedef typename _Val_types::value_type value_type;
; 557  : 	typedef typename _Val_types::size_type size_type;
; 558  : 	typedef typename _Val_types::difference_type difference_type;
; 559  : 	typedef typename _Val_types::pointer pointer;
; 560  : 	typedef typename _Val_types::const_pointer const_pointer;
; 561  : 	typedef typename _Val_types::reference reference;
; 562  : 	typedef typename _Val_types::const_reference const_reference;
; 563  : 
; 564  : 	typedef _Tree_const_iterator<_Myt> const_iterator;
; 565  : 	typedef _Tree_iterator<_Myt> iterator;
; 566  : 
; 567  : 	_Tree_val()
; 568  : 		{	// initialize data
; 569  : 		this->_Myhead = 0;
; 570  : 		this->_Mysize = 0;
; 571  : 		}
; 572  : 
; 573  : 	enum _Redbl
; 574  : 		{	// colors for link to parent
; 575  : 		_Red, _Black};
; 576  : 
; 577  : 	static char& _Color(_Nodeptr _Pnode)
; 578  : 		{	// return reference to color in node
; 579  : 		return ((char&)_Pnode->_Color);
; 580  : 		}
; 581  : 
; 582  : 	static char& _Isnil(_Nodeptr _Pnode)
; 583  : 		{	// return reference to nil flag in node
; 584  : 		return ((char&)_Pnode->_Isnil);

	mov	rax, QWORD PTR [rcx+16]

; 585  : 		}
; 586  : 
; 587  : 	static _Nodepref _Left(_Nodeptr _Pnode)
; 588  : 		{	// return reference to left pointer in node
; 589  : 		return ((_Nodepref)_Pnode->_Left);
; 590  : 		}
; 591  : 
; 592  : 	static _Nodepref _Parent(_Nodeptr _Pnode)
; 593  : 		{	// return reference to parent pointer in node
; 594  : 		return ((_Nodepref)_Pnode->_Parent);
; 595  : 		}
; 596  : 
; 597  : 	static _Nodepref _Right(_Nodeptr _Pnode)
; 598  : 		{	// return reference to right pointer in node
; 599  : 		return ((_Nodepref)_Pnode->_Right);
; 600  : 		}
; 601  : 
; 602  : 	static reference _Myval(_Nodeptr _Pnode)
; 603  : 		{	// return reference to value in node
; 604  : 		return ((reference)_Pnode->_Myval);
; 605  : 		}
; 606  : 
; 607  : 	static _Nodeptr _Max(_Nodeptr _Pnode)
; 608  : 		{	// return rightmost node in subtree at _Pnode
; 609  : 		while (!_Isnil(_Right(_Pnode)))

	cmp	BYTE PTR [rax+25], 0
	jne	SHORT $LN21@operator
	npad	6
$LL22@operator:

; 610  : 			_Pnode = _Right(_Pnode);

	mov	rcx, rax

; 103  : 
; 104  : 	_Myiter operator--(int)
; 105  : 		{	// postdecrement
; 106  : 		_Myiter _Tmp = *this;
; 107  : 		--*this;
; 108  : 		return (_Tmp);
; 109  : 		}
; 110  : 
; 111  : 	bool operator==(const _Myiter& _Right) const
; 112  : 		{	// test for iterator equality
; 113  : 		return (_Ptr == _Right._Ptr);
; 114  : 		}
; 115  : 
; 116  : 	bool operator!=(const _Myiter& _Right) const
; 117  : 		{	// test for iterator inequality
; 118  : 		return (!(*this == _Right));
; 119  : 		}
; 120  : 
; 121  : 	_Nodeptr _Mynode() const
; 122  : 		{	// return node pointer
; 123  : 		return (_Ptr);
; 124  : 		}
; 125  : 
; 126  : 	_Nodeptr _Ptr;	// pointer to node
; 127  : 	};
; 128  : 
; 129  : 	// TEMPLATE CLASS _Tree_unchecked_iterator
; 130  : template<class _Mytree>
; 131  : 	class _Tree_unchecked_iterator
; 132  : 		: public _Tree_unchecked_const_iterator<_Mytree>
; 133  : 	{	// unchecked iterator for mutable tree
; 134  : public:
; 135  : 	typedef _Tree_unchecked_iterator<_Mytree> _Myiter;
; 136  : 	typedef _Tree_unchecked_const_iterator<_Mytree> _Mybase;
; 137  : 	typedef bidirectional_iterator_tag iterator_category;
; 138  : 
; 139  : 	typedef typename _Mytree::_Nodeptr _Nodeptr;
; 140  : 	typedef typename _Mytree::value_type value_type;
; 141  : 	typedef typename _Mytree::difference_type difference_type;
; 142  : 	typedef typename _Mytree::pointer pointer;
; 143  : 	typedef typename _Mytree::reference reference;
; 144  : 
; 145  : 	_Tree_unchecked_iterator()
; 146  : 		{	// construct with null node
; 147  : 		}
; 148  : 
; 149  : 	_Tree_unchecked_iterator(_Nodeptr _Pnode, const _Mytree *_Plist)
; 150  : 		: _Mybase(_Pnode, _Plist)
; 151  : 		{	// construct with node pointer _Pnode
; 152  : 		}
; 153  : 
; 154  : 	reference operator*() const
; 155  : 		{	// return designated value
; 156  : 		return ((reference)**(_Mybase *)this);
; 157  : 		}
; 158  : 
; 159  : 	pointer operator->() const
; 160  : 		{	// return pointer to class object
; 161  : 		return (_STD pointer_traits<pointer>::pointer_to(**this));
; 162  : 		}
; 163  : 
; 164  : 	_Myiter& operator++()
; 165  : 		{	// preincrement
; 166  : 		++(*(_Mybase *)this);
; 167  : 		return (*this);
; 168  : 		}
; 169  : 
; 170  : 	_Myiter operator++(int)
; 171  : 		{	// postincrement
; 172  : 		_Myiter _Tmp = *this;
; 173  : 		++*this;
; 174  : 		return (_Tmp);
; 175  : 		}
; 176  : 
; 177  : 	_Myiter& operator--()
; 178  : 		{	// predecrement
; 179  : 		--(*(_Mybase *)this);
; 180  : 		return (*this);
; 181  : 		}
; 182  : 
; 183  : 	_Myiter operator--(int)
; 184  : 		{	// postdecrement
; 185  : 		_Myiter _Tmp = *this;
; 186  : 		--*this;
; 187  : 		return (_Tmp);
; 188  : 		}
; 189  : 	};
; 190  : 
; 191  : 	// TEMPLATE CLASS _Tree_const_iterator
; 192  : template<class _Mytree>
; 193  : 	class _Tree_const_iterator
; 194  : 		: public _Tree_unchecked_const_iterator<_Mytree, _Iterator_base>
; 195  : 	{	// iterator for nonmutable tree
; 196  : public:
; 197  : 	typedef _Tree_const_iterator<_Mytree> _Myiter;
; 198  : 	typedef _Tree_unchecked_const_iterator<_Mytree, _Iterator_base> _Mybase;
; 199  : 	typedef bidirectional_iterator_tag iterator_category;
; 200  : 
; 201  : 	typedef typename _Mytree::_Nodeptr _Nodeptr;
; 202  : 	typedef typename _Mytree::value_type value_type;
; 203  : 	typedef typename _Mytree::difference_type difference_type;
; 204  : 	typedef typename _Mytree::const_pointer pointer;
; 205  : 	typedef typename _Mytree::const_reference reference;
; 206  : 
; 207  : 	_Tree_const_iterator()
; 208  : 		: _Mybase()
; 209  : 		{	// construct with null node pointer
; 210  : 		}
; 211  : 
; 212  : 	_Tree_const_iterator(_Nodeptr _Pnode, const _Mytree *_Plist)
; 213  : 		: _Mybase(_Pnode, _Plist)
; 214  : 		{	// construct with node pointer _Pnode
; 215  : 		}
; 216  : 
; 217  : 	typedef _Tree_unchecked_const_iterator<_Mytree> _Unchecked_type;
; 218  : 
; 219  : 	_Myiter& _Rechecked(_Unchecked_type _Right)
; 220  : 		{	// reset from unchecked iterator
; 221  : 		this->_Ptr = _Right._Ptr;
; 222  : 		return (*this);
; 223  : 		}
; 224  : 
; 225  : 	_Unchecked_type _Unchecked() const
; 226  : 		{	// make an unchecked iterator
; 227  : 		return (_Unchecked_type(this->_Ptr, (_Mytree *)this->_Getcont()));
; 228  : 		}
; 229  : 
; 230  : 	reference operator*() const
; 231  : 		{	// return designated value
; 232  :  #if _ITERATOR_DEBUG_LEVEL == 2
; 233  : 		if (this->_Getcont() == 0
; 234  : 			|| this->_Ptr == 0
; 235  : 			|| this->_Ptr == ((_Mytree *)this->_Getcont())->_Myhead)
; 236  : 			{	// report error
; 237  : 			_DEBUG_ERROR("map/set iterator not dereferencable");
; 238  : 			_SCL_SECURE_OUT_OF_RANGE;
; 239  : 			}
; 240  : 
; 241  :  #elif _ITERATOR_DEBUG_LEVEL == 1
; 242  : 		_SCL_SECURE_VALIDATE(this->_Getcont() != 0 && this->_Ptr != 0);
; 243  : 		_SCL_SECURE_VALIDATE_RANGE(this->_Ptr !=
; 244  : 			((_Mytree *)this->_Getcont())->_Myhead);
; 245  :  #endif /* _ITERATOR_DEBUG_LEVEL */
; 246  : 
; 247  : 		return (_Mytree::_Myval(this->_Ptr));
; 248  : 		}
; 249  : 
; 250  : 	pointer operator->() const
; 251  : 		{	// return pointer to class object
; 252  : 		return (_STD pointer_traits<pointer>::pointer_to(**this));
; 253  : 		}
; 254  : 
; 255  : 	_Myiter& operator++()
; 256  : 		{	// preincrement
; 257  :  #if _ITERATOR_DEBUG_LEVEL == 2
; 258  : 		if (this->_Getcont() == 0
; 259  : 			|| this->_Ptr == 0
; 260  : 			|| _Mytree::_Isnil(this->_Ptr))
; 261  : 			{	// report error
; 262  : 			_DEBUG_ERROR("map/set iterator not incrementable");
; 263  : 			_SCL_SECURE_OUT_OF_RANGE;
; 264  : 			}
; 265  : 
; 266  :  #elif _ITERATOR_DEBUG_LEVEL == 1
; 267  : 		_SCL_SECURE_VALIDATE(this->_Getcont() != 0 && this->_Ptr != 0);
; 268  : 		_SCL_SECURE_VALIDATE_RANGE(!_Mytree::_Isnil(this->_Ptr));
; 269  :  #endif /* _ITERATOR_DEBUG_LEVEL */
; 270  : 
; 271  : 		++(*(_Mybase *)this);
; 272  : 		return (*this);
; 273  : 		}
; 274  : 
; 275  : 	_Myiter operator++(int)
; 276  : 		{	// postincrement
; 277  : 		_Myiter _Tmp = *this;
; 278  : 		++*this;
; 279  : 		return (_Tmp);
; 280  : 		}
; 281  : 
; 282  : 	_Myiter& operator--()
; 283  : 		{	// predecrement
; 284  :  #if _ITERATOR_DEBUG_LEVEL == 2
; 285  : 		if (this->_Getcont() == 0
; 286  : 			|| this->_Ptr == 0)
; 287  : 			{	// report error
; 288  : 			_DEBUG_ERROR("map/set iterator not decrementable");
; 289  : 			_SCL_SECURE_OUT_OF_RANGE;
; 290  : 			}
; 291  : 
; 292  : 		_Nodeptr _Ptrsav = this->_Ptr;
; 293  : 		--(*(_Mybase *)this);
; 294  : 		if (_Ptrsav == this->_Ptr)
; 295  : 			{	// report error
; 296  : 			_DEBUG_ERROR("map/set iterator not decrementable");
; 297  : 			_SCL_SECURE_OUT_OF_RANGE;
; 298  : 			}
; 299  : 
; 300  :  #elif _ITERATOR_DEBUG_LEVEL == 1
; 301  : 		_SCL_SECURE_VALIDATE(this->_Getcont() != 0 && this->_Ptr != 0);
; 302  : 
; 303  : 		_Nodeptr _Ptrsav = this->_Ptr;
; 304  : 		--(*(_Mybase *)this);
; 305  : 		_SCL_SECURE_VALIDATE(_Ptrsav != this->_Ptr);
; 306  : 
; 307  :  #else /* _ITERATOR_DEBUG_LEVEL == 0 */
; 308  : 		--(*(_Mybase *)this);
; 309  :  #endif /* _ITERATOR_DEBUG_LEVEL */
; 310  : 
; 311  : 		return (*this);
; 312  : 		}
; 313  : 
; 314  : 	_Myiter operator--(int)
; 315  : 		{	// postdecrement
; 316  : 		_Myiter _Tmp = *this;
; 317  : 		--*this;
; 318  : 		return (_Tmp);
; 319  : 		}
; 320  : 
; 321  : 	bool operator==(const _Myiter& _Right) const
; 322  : 		{	// test for iterator equality
; 323  :  #if _ITERATOR_DEBUG_LEVEL == 2
; 324  : 		if (this->_Getcont() == 0
; 325  : 			|| this->_Getcont() != _Right._Getcont())
; 326  : 			{	// report error
; 327  : 			_DEBUG_ERROR("map/set iterators incompatible");
; 328  : 			_SCL_SECURE_INVALID_ARGUMENT;
; 329  : 			}
; 330  : 
; 331  :  #elif _ITERATOR_DEBUG_LEVEL == 1
; 332  : 		_SCL_SECURE_VALIDATE(this->_Getcont() != 0
; 333  : 			&& this->_Getcont() == _Right._Getcont());
; 334  :  #endif /* _ITERATOR_DEBUG_LEVEL */
; 335  : 
; 336  : 		return (this->_Ptr == _Right._Ptr);
; 337  : 		}
; 338  : 
; 339  : 	bool operator!=(const _Myiter& _Right) const
; 340  : 		{	// test for iterator inequality
; 341  : 		return (!(*this == _Right));
; 342  : 		}
; 343  : 	};
; 344  : 
; 345  : template<class _Mytree> inline
; 346  : 	typename _Tree_const_iterator<_Mytree>::_Unchecked_type
; 347  : 		_Unchecked(_Tree_const_iterator<_Mytree> _Iter)
; 348  : 	{	// convert to unchecked
; 349  : 	return (_Iter._Unchecked());
; 350  : 	}
; 351  : 
; 352  : template<class _Mytree> inline
; 353  : 	_Tree_const_iterator<_Mytree>&
; 354  : 		_Rechecked(_Tree_const_iterator<_Mytree>& _Iter,
; 355  : 			typename _Tree_const_iterator<_Mytree>
; 356  : 				::_Unchecked_type _Right)
; 357  : 	{	// convert to checked
; 358  : 	return (_Iter._Rechecked(_Right));
; 359  : 	}
; 360  : 
; 361  : 	// TEMPLATE CLASS _Tree_iterator
; 362  : template<class _Mytree>
; 363  : 	class _Tree_iterator
; 364  : 		: public _Tree_const_iterator<_Mytree>
; 365  : 	{	// iterator for mutable tree
; 366  : public:
; 367  : 	typedef _Tree_iterator<_Mytree> _Myiter;
; 368  : 	typedef _Tree_const_iterator<_Mytree> _Mybase;
; 369  : 	typedef bidirectional_iterator_tag iterator_category;
; 370  : 
; 371  : 	typedef typename _Mytree::_Nodeptr _Nodeptr;
; 372  : 	typedef typename _Mytree::value_type value_type;
; 373  : 	typedef typename _Mytree::difference_type difference_type;
; 374  : 
; 375  : 	typedef typename _Mytree::pointer pointer;
; 376  : 	typedef typename _Mytree::reference reference;
; 377  : 
; 378  : 	_Tree_iterator()
; 379  : 		{	// construct with null node
; 380  : 		}
; 381  : 
; 382  : 	_Tree_iterator(_Nodeptr _Pnode, const _Mytree *_Plist)
; 383  : 		: _Mybase(_Pnode, _Plist)
; 384  : 		{	// construct with node pointer _Pnode
; 385  : 		}
; 386  : 
; 387  : 	typedef _Tree_unchecked_iterator<_Mytree> _Unchecked_type;
; 388  : 
; 389  : 	_Myiter& _Rechecked(_Unchecked_type _Right)
; 390  : 		{	// reset from unchecked iterator
; 391  : 		this->_Ptr = _Right._Ptr;
; 392  : 		return (*this);
; 393  : 		}
; 394  : 
; 395  : 	_Unchecked_type _Unchecked() const
; 396  : 		{	// make an unchecked iterator
; 397  : 		return (_Unchecked_type(this->_Ptr, (_Mytree *)this->_Getcont()));
; 398  : 		}
; 399  : 
; 400  : 	reference operator*() const
; 401  : 		{	// return designated value
; 402  : 		return ((reference)**(_Mybase *)this);
; 403  : 		}
; 404  : 
; 405  : 	pointer operator->() const
; 406  : 		{	// return pointer to class object
; 407  : 		return (_STD pointer_traits<pointer>::pointer_to(**this));
; 408  : 		}
; 409  : 
; 410  : 	_Myiter& operator++()
; 411  : 		{	// preincrement
; 412  : 		++(*(_Mybase *)this);
; 413  : 		return (*this);
; 414  : 		}
; 415  : 
; 416  : 	_Myiter operator++(int)
; 417  : 		{	// postincrement
; 418  : 		_Myiter _Tmp = *this;
; 419  : 		++*this;
; 420  : 		return (_Tmp);
; 421  : 		}
; 422  : 
; 423  : 	_Myiter& operator--()
; 424  : 		{	// predecrement
; 425  : 		--(*(_Mybase *)this);
; 426  : 		return (*this);
; 427  : 		}
; 428  : 
; 429  : 	_Myiter operator--(int)
; 430  : 		{	// postdecrement
; 431  : 		_Myiter _Tmp = *this;
; 432  : 		--*this;
; 433  : 		return (_Tmp);
; 434  : 		}
; 435  : 	};
; 436  : 
; 437  : template<class _Mytree> inline
; 438  : 	typename _Tree_iterator<_Mytree>::_Unchecked_type
; 439  : 		_Unchecked(_Tree_iterator<_Mytree> _Iter)
; 440  : 	{	// convert to unchecked
; 441  : 	return (_Iter._Unchecked());
; 442  : 	}
; 443  : 
; 444  : template<class _Mytree> inline
; 445  : 	_Tree_iterator<_Mytree>&
; 446  : 		_Rechecked(_Tree_iterator<_Mytree>& _Iter,
; 447  : 			typename _Tree_iterator<_Mytree>
; 448  : 				::_Unchecked_type _Right)
; 449  : 	{	// convert to checked
; 450  : 	return (_Iter._Rechecked(_Right));
; 451  : 	}
; 452  : 
; 453  : 		// tree TYPE WRAPPERS
; 454  : template<class _Value_type,
; 455  : 	class _Size_type,
; 456  : 	class _Difference_type,
; 457  : 	class _Pointer,
; 458  : 	class _Const_pointer,
; 459  : 	class _Reference,
; 460  : 	class _Const_reference,
; 461  : 	class _Nodeptr_type>
; 462  : 	struct _Tree_iter_types
; 463  : 	{	// wraps types needed by iterators
; 464  : 	typedef _Value_type value_type;
; 465  : 	typedef _Size_type size_type;
; 466  : 	typedef _Difference_type difference_type;
; 467  : 	typedef _Pointer pointer;
; 468  : 	typedef _Const_pointer const_pointer;
; 469  : 	typedef _Reference reference;
; 470  : 	typedef _Const_reference const_reference;
; 471  : 	typedef _Nodeptr_type _Nodeptr;
; 472  : 	};
; 473  : 
; 474  : template<class _Value_type,
; 475  : 	class _Voidptr>
; 476  : 	struct _Tree_node
; 477  : 		{	// tree node
; 478  : 		_Voidptr _Left;	// left subtree, or smallest element if head
; 479  : 		_Voidptr _Parent;	// parent, or root of tree if head
; 480  : 		_Voidptr _Right;	// right subtree, or largest element if head
; 481  : 		char _Color;	// _Red or _Black, _Black if head
; 482  : 		char _Isnil;	// true only if head (also nil) node
; 483  : 		_Value_type _Myval;	// the stored value, unused if head
; 484  : 
; 485  : 	private:
; 486  : 		_Tree_node& operator=(const _Tree_node&);
; 487  : 		};
; 488  : 
; 489  : template<class _Value_type>
; 490  : 	struct _Tree_node<_Value_type, void *>
; 491  : 		{	// tree node
; 492  : 		typedef _Tree_node<_Value_type, void *> *_Nodeptr;
; 493  : 		_Nodeptr _Left;	// left subtree, or smallest element if head
; 494  : 		_Nodeptr _Parent;	// parent, or root of tree if head
; 495  : 		_Nodeptr _Right;	// right subtree, or largest element if head
; 496  : 		char _Color;	// _Red or _Black, _Black if head
; 497  : 		char _Isnil;	// true only if head (also nil) node
; 498  : 		_Value_type _Myval;	// the stored value, unused if head
; 499  : 
; 500  : 	private:
; 501  : 		_Tree_node& operator=(const _Tree_node&);
; 502  : 		};
; 503  : 
; 504  : template<class _Ty>
; 505  : 	struct _Tree_simple_types
; 506  : 		: public _Simple_types<_Ty>
; 507  : 	{	// wraps types needed by iterators
; 508  : 	typedef _Tree_node<_Ty, void *> _Node;
; 509  : 	typedef _Node *_Nodeptr;
; 510  : 	};
; 511  : 
; 512  : template<class _Ty,
; 513  : 	class _Alloc0>
; 514  : 	struct _Tree_base_types
; 515  : 	{	// types needed for a container base
; 516  : 	typedef _Alloc0 _Alloc;
; 517  : 	typedef _Tree_base_types<_Ty, _Alloc> _Myt;
; 518  : 
; 519  : 	typedef _Wrap_alloc<_Alloc> _Alty0;
; 520  : 	typedef typename _Alty0::template rebind<_Ty>::other _Alty;
; 521  : 
; 522  : 
; 523  : 	typedef typename _Get_voidptr<_Alty, typename _Alty::pointer>::type
; 524  : 		_Voidptr;
; 525  : 	typedef _Tree_node<typename _Alty::value_type,
; 526  : 		_Voidptr> _Node;
; 527  : 
; 528  : 	typedef typename _Alty::template rebind<_Node>::other _Alnod_type;
; 529  : 	typedef typename _Alnod_type::pointer _Nodeptr;
; 530  : 	typedef _Nodeptr& _Nodepref;
; 531  : 
; 532  : 	typedef typename _If<_Is_simple_alloc<_Alty>::value,
; 533  : 		_Tree_simple_types<typename _Alty::value_type>,
; 534  : 		_Tree_iter_types<typename _Alty::value_type,
; 535  : 			typename _Alty::size_type,
; 536  : 			typename _Alty::difference_type,
; 537  : 			typename _Alty::pointer,
; 538  : 			typename _Alty::const_pointer,
; 539  : 			typename _Alty::reference,
; 540  : 			typename _Alty::const_reference,
; 541  : 			_Nodeptr> >::type
; 542  : 		_Val_types;
; 543  : 	};
; 544  : 
; 545  : 		// TEMPLATE CLASS _Tree_val
; 546  : template<class _Val_types>
; 547  : 	class _Tree_val
; 548  : 		: public _Container_base
; 549  : 	{	// base class for tree to hold data
; 550  : public:
; 551  : 	typedef _Tree_val<_Val_types> _Myt;
; 552  : 
; 553  : 	typedef typename _Val_types::_Nodeptr _Nodeptr;
; 554  : 	typedef _Nodeptr& _Nodepref;
; 555  : 
; 556  : 	typedef typename _Val_types::value_type value_type;
; 557  : 	typedef typename _Val_types::size_type size_type;
; 558  : 	typedef typename _Val_types::difference_type difference_type;
; 559  : 	typedef typename _Val_types::pointer pointer;
; 560  : 	typedef typename _Val_types::const_pointer const_pointer;
; 561  : 	typedef typename _Val_types::reference reference;
; 562  : 	typedef typename _Val_types::const_reference const_reference;
; 563  : 
; 564  : 	typedef _Tree_const_iterator<_Myt> const_iterator;
; 565  : 	typedef _Tree_iterator<_Myt> iterator;
; 566  : 
; 567  : 	_Tree_val()
; 568  : 		{	// initialize data
; 569  : 		this->_Myhead = 0;
; 570  : 		this->_Mysize = 0;
; 571  : 		}
; 572  : 
; 573  : 	enum _Redbl
; 574  : 		{	// colors for link to parent
; 575  : 		_Red, _Black};
; 576  : 
; 577  : 	static char& _Color(_Nodeptr _Pnode)
; 578  : 		{	// return reference to color in node
; 579  : 		return ((char&)_Pnode->_Color);
; 580  : 		}
; 581  : 
; 582  : 	static char& _Isnil(_Nodeptr _Pnode)
; 583  : 		{	// return reference to nil flag in node
; 584  : 		return ((char&)_Pnode->_Isnil);

	mov	rax, QWORD PTR [rax+16]

; 585  : 		}
; 586  : 
; 587  : 	static _Nodepref _Left(_Nodeptr _Pnode)
; 588  : 		{	// return reference to left pointer in node
; 589  : 		return ((_Nodepref)_Pnode->_Left);
; 590  : 		}
; 591  : 
; 592  : 	static _Nodepref _Parent(_Nodeptr _Pnode)
; 593  : 		{	// return reference to parent pointer in node
; 594  : 		return ((_Nodepref)_Pnode->_Parent);
; 595  : 		}
; 596  : 
; 597  : 	static _Nodepref _Right(_Nodeptr _Pnode)
; 598  : 		{	// return reference to right pointer in node
; 599  : 		return ((_Nodepref)_Pnode->_Right);
; 600  : 		}
; 601  : 
; 602  : 	static reference _Myval(_Nodeptr _Pnode)
; 603  : 		{	// return reference to value in node
; 604  : 		return ((reference)_Pnode->_Myval);
; 605  : 		}
; 606  : 
; 607  : 	static _Nodeptr _Max(_Nodeptr _Pnode)
; 608  : 		{	// return rightmost node in subtree at _Pnode
; 609  : 		while (!_Isnil(_Right(_Pnode)))

	cmp	BYTE PTR [rax+25], 0
	je	SHORT $LL22@operator

; 97   : 				;	// begin() shouldn't be decremented, don't move
; 98   : 			else
; 99   : 				_Ptr = _Pnode;	// ==> parent if not head

	mov	QWORD PTR [rdx], rcx

; 100  : 			}
; 101  : 		return (*this);

	mov	rax, rdx

; 102  : 		}

	ret	0
$LN40@operator:

; 88   : 			_Ptr = _Mytree::_Max(
; 89   : 				_Mytree::_Left(_Ptr));	// ==> largest of left subtree
; 90   : 		else
; 91   : 			{	// climb looking for left subtree
; 92   : 			_Nodeptr _Pnode;
; 93   : 			while (!_Mytree::_Isnil(_Pnode = _Mytree::_Parent(_Ptr))
; 94   : 				&& _Ptr == _Mytree::_Left(_Pnode))

	mov	rcx, QWORD PTR [rax+8]
	cmp	BYTE PTR [rcx+25], 0
	jne	SHORT $LN3@operator
	npad	2
$LL4@operator:
	mov	rax, QWORD PTR [rcx]
	cmp	QWORD PTR [rdx], rax
	jne	SHORT $LN3@operator

; 95   : 				_Ptr = _Pnode;	// ==> parent while left subtree

	mov	QWORD PTR [rdx], rcx
	mov	rcx, QWORD PTR [rcx+8]
	cmp	BYTE PTR [rcx+25], 0
	je	SHORT $LL4@operator
$LN3@operator:

; 96   : 			if (_Mytree::_Isnil(_Ptr))

	mov	rax, QWORD PTR [rdx]
	cmp	BYTE PTR [rax+25], 0
	jne	SHORT $LN47@operator
$LN21@operator:

; 97   : 				;	// begin() shouldn't be decremented, don't move
; 98   : 			else
; 99   : 				_Ptr = _Pnode;	// ==> parent if not head

	mov	QWORD PTR [rdx], rcx
$LN47@operator:

; 100  : 			}
; 101  : 		return (*this);

	mov	rax, rdx

; 102  : 		}

	ret	0
??F?$_Tree_unchecked_const_iterator@V?$_Tree_val@U?$_Tree_simple_types@PEAUstr_value@@@std@@@std@@U_Iterator_base0@2@@std@@QEAAAEAV01@XZ ENDP ; std::_Tree_unchecked_const_iterator<std::_Tree_val<std::_Tree_simple_types<str_value * __ptr64> >,std::_Iterator_base0>::operator--
_TEXT	ENDS
; Function compile flags: /Ogtpy
; File c:\program files (x86)\microsoft visual studio 12.0\vc\include\type_traits
;	COMDAT ??$forward@AEBQEAUstr_value@@@std@@YAAEBQEAUstr_value@@AEBQEAU1@@Z
_TEXT	SEGMENT
_Arg$ = 8
??$forward@AEBQEAUstr_value@@@std@@YAAEBQEAUstr_value@@AEBQEAU1@@Z PROC ; std::forward<str_value * __ptr64 const & __ptr64>, COMDAT

; 1505 : 	return (static_cast<_Ty&&>(_Arg));

	mov	rax, rcx

; 1506 : 	}

	ret	0
??$forward@AEBQEAUstr_value@@@std@@YAAEBQEAUstr_value@@AEBQEAU1@@Z ENDP ; std::forward<str_value * __ptr64 const & __ptr64>
_TEXT	ENDS
; Function compile flags: /Ogtpy
; File c:\program files (x86)\microsoft visual studio 12.0\vc\include\xtree
;	COMDAT ??$_Insert_at@AEBQEAUstr_value@@U_Nil@std@@@?$_Tree@V?$_Tset_traits@PEAUstr_value@@Ustr_value_cmp@@V?$xalloc@PEAUstr_value@@@@$00@std@@@std@@IEAA?AV?$_Tree_const_iterator@V?$_Tree_val@U?$_Tree_simple_types@PEAUstr_value@@@std@@@std@@@1@_NPEAU?$_Tree_node@PEAUstr_value@@PEAX@1@AEBQEAUstr_value@@U_Nil@1@@Z
_TEXT	SEGMENT
this$ = 48
__$ReturnUdt$ = 56
_Addleft$ = 64
_Wherenode$ = 72
_Val$ = 80
_Node$ = 88
??$_Insert_at@AEBQEAUstr_value@@U_Nil@std@@@?$_Tree@V?$_Tset_traits@PEAUstr_value@@Ustr_value_cmp@@V?$xalloc@PEAUstr_value@@@@$00@std@@@std@@IEAA?AV?$_Tree_const_iterator@V?$_Tree_val@U?$_Tree_simple_types@PEAUstr_value@@@std@@@std@@@1@_NPEAU?$_Tree_node@PEAUstr_value@@PEAX@1@AEBQEAUstr_value@@U_Nil@1@@Z PROC ; std::_Tree<std::_Tset_traits<str_value * __ptr64,str_value_cmp,xalloc<str_value * __ptr64>,1> >::_Insert_at<str_value * __ptr64 const & __ptr64,std::_Nil>, COMDAT

; 1833 : 		iterator _Insert_at(bool _Addleft, _Nodeptr _Wherenode,

$LN386:
	mov	QWORD PTR [rsp+8], rbx
	mov	QWORD PTR [rsp+16], rsi
	mov	QWORD PTR [rsp+24], rdi
	push	r14
	sub	rsp, 32					; 00000020H

; 1834 : 		_Valty&& _Val, _Nodety _Node)
; 1835 : 		{	// add node with value next to _Wherenode, to left if _Addleft
; 1836 : 		if (max_size() - 1 <= this->_Mysize)

	mov	rax, 461168601842738789			; 0666666666666665H
	mov	rdi, r9
	movzx	esi, r8b
	mov	r14, rdx
	mov	rbx, rcx
	cmp	QWORD PTR [rcx+8], rax
	jb	SHORT $LN17@Insert_at

; 1837 : 			{	// tree would get too big, fail
; 1838 : 			_Destroy_if_not_nil(_Node);
; 1839 : 			_Xlength_error("map/set<T> too long");

	lea	rcx, OFFSET FLAT:??_C@_0BE@JONHPENG@map?1set?$DMT?$DO?5too?5long?$AA@
	call	QWORD PTR __imp_?_Xlength_error@std@@YAXPEBD@Z
	int	3
$LN17@Insert_at:

; 600  : 		}
; 601  : 
; 602  : 	static reference _Myval(_Nodeptr _Pnode)
; 603  : 		{	// return reference to value in node
; 604  : 		return ((reference)_Pnode->_Myval);
; 605  : 		}
; 606  : 
; 607  : 	static _Nodeptr _Max(_Nodeptr _Pnode)
; 608  : 		{	// return rightmost node in subtree at _Pnode
; 609  : 		while (!_Isnil(_Right(_Pnode)))
; 610  : 			_Pnode = _Right(_Pnode);
; 611  : 		return (_Pnode);
; 612  : 		}
; 613  : 
; 614  : 	static _Nodeptr _Min(_Nodeptr _Pnode)
; 615  : 		{	// return leftmost node in subtree at _Pnode
; 616  : 		while (!_Isnil(_Left(_Pnode)))
; 617  : 			_Pnode = _Left(_Pnode);
; 618  : 		return (_Pnode);
; 619  : 		}
; 620  : 
; 621  : 	_Nodeptr _Myhead;	// pointer to head node
; 622  : 	size_type _Mysize;	// number of elements
; 623  : 	};
; 624  : 
; 625  : 		// TEMPLATE CLASS _Tree_alloc
; 626  : template<bool _Al_has_storage,
; 627  : 	class _Alloc_types>
; 628  : 	class _Tree_alloc
; 629  : 		: public _Tree_val<typename _Alloc_types::_Val_types>
; 630  : 	{	// base class for tree to hold allocator with storage
; 631  : public:
; 632  : 	typename _Alloc_types::_Alnod_type _Alnod;	// allocator object
; 633  : 
; 634  : 	typedef _Tree_alloc<_Al_has_storage, _Alloc_types> _Myt;
; 635  : 	typedef typename _Alloc_types::_Alloc _Alloc;
; 636  : 	typedef typename _Alloc_types::_Alnod_type _Alty;
; 637  : 	typedef typename _Alloc_types::_Node _Node;
; 638  : 	typedef typename _Alloc_types::_Nodeptr _Nodeptr;
; 639  : 
; 640  :  #if _ITERATOR_DEBUG_LEVEL == 0
; 641  : 	_Tree_alloc(const _Alloc& _Al = _Alloc())
; 642  : 		: _Alnod(_Al)
; 643  : 		{	// construct head node, allocator from _Al
; 644  : 		this->_Myhead = _Buyheadnode();
; 645  : 		}
; 646  : 
; 647  : 	~_Tree_alloc() _NOEXCEPT
; 648  : 		{	// destroy head node
; 649  : 		_Freeheadnode(this->_Myhead);
; 650  : 		}
; 651  : 
; 652  : 	void _Change_alloc(const _Alty& _Al)
; 653  : 		{	// replace old allocator
; 654  : 		this->_Alnod = _Al;
; 655  : 		}
; 656  : 
; 657  : 	void _Swap_alloc(_Myt& _Right)
; 658  : 		{	// swap allocators
; 659  : 		_Swap_adl(this->_Alnod, _Right._Alnod);
; 660  : 		}
; 661  : 
; 662  :  #else /* _ITERATOR_DEBUG_LEVEL == 0 */
; 663  : 	_Tree_alloc(const _Alloc& _Al = _Alloc())
; 664  : 		: _Alnod(_Al)
; 665  : 		{	// construct allocators from _Al
; 666  : 		this->_Myhead = _Buyheadnode();
; 667  : 		_TRY_BEGIN
; 668  : 		_Alloc_proxy();
; 669  : 		_CATCH_ALL
; 670  : 		_Freeheadnode(this->_Myhead);
; 671  : 		_RERAISE;
; 672  : 		_CATCH_END
; 673  : 		}
; 674  : 
; 675  : 	~_Tree_alloc() _NOEXCEPT
; 676  : 		{	// destroy proxy
; 677  : 		_Freeheadnode(this->_Myhead);
; 678  : 		_Free_proxy();
; 679  : 		}
; 680  : 
; 681  : 	void _Change_alloc(const _Alty& _Al)
; 682  : 		{	// replace old allocator
; 683  : 		_Free_proxy();
; 684  : 		this->_Alnod = _Al;
; 685  : 		_Alloc_proxy();
; 686  : 		}
; 687  : 
; 688  : 	void _Swap_alloc(_Myt& _Right)
; 689  : 		{	// swap allocators
; 690  : 		_Swap_adl(this->_Alnod, _Right._Alnod);
; 691  : 		_Swap_adl(this->_Myproxy, _Right._Myproxy);
; 692  : 		}
; 693  : 
; 694  : 	void _Alloc_proxy()
; 695  : 		{	// construct proxy from _Alnod
; 696  : 		typename _Alty::template rebind<_Container_proxy>::other
; 697  : 			_Alproxy(this->_Alnod);
; 698  : 		this->_Myproxy = _Alproxy.allocate(1);
; 699  : 		_Alproxy.construct(this->_Myproxy, _Container_proxy());
; 700  : 		this->_Myproxy->_Mycont = this;
; 701  : 		}
; 702  : 
; 703  : 	void _Free_proxy()
; 704  : 		{	// destroy proxy
; 705  : 		typename _Alty::template rebind<_Container_proxy>::other
; 706  : 			_Alproxy(this->_Alnod);
; 707  : 		this->_Orphan_all();
; 708  : 		_Alproxy.destroy(this->_Myproxy);
; 709  : 		_Alproxy.deallocate(this->_Myproxy, 1);
; 710  : 		this->_Myproxy = 0;
; 711  : 		}
; 712  :  #endif /* _ITERATOR_DEBUG_LEVEL == 0 */
; 713  : 
; 714  : 	_Nodeptr _Buyheadnode()
; 715  : 		{	// get head node using current allocator
; 716  : 		_Nodeptr _Pnode = this->_Alnod.allocate(1);
; 717  : 
; 718  : 		_TRY_BEGIN
; 719  : 		this->_Alnod.construct(
; 720  : 			_STD addressof(this->_Left(_Pnode)), _Pnode);
; 721  : 		this->_Alnod.construct(
; 722  : 			_STD addressof(this->_Parent(_Pnode)), _Pnode);
; 723  : 		this->_Alnod.construct(
; 724  : 			_STD addressof(this->_Right(_Pnode)), _Pnode);
; 725  : 		_CATCH_ALL
; 726  : 		this->_Alnod.deallocate(_Pnode, 1);
; 727  : 		_RERAISE;
; 728  : 		_CATCH_END
; 729  : 
; 730  : 		this->_Color(_Pnode) = this->_Black;
; 731  : 		this->_Isnil(_Pnode) = true;
; 732  : 		return (_Pnode);
; 733  : 		}
; 734  : 
; 735  : 	void _Freeheadnode(_Nodeptr _Pnode)
; 736  : 		{	// free head node using current allocator
; 737  : 		this->_Alnod.destroy(
; 738  : 			_STD addressof(this->_Left(_Pnode)));
; 739  : 		this->_Alnod.destroy(
; 740  : 			_STD addressof(this->_Parent(_Pnode)));
; 741  : 		this->_Alnod.destroy(
; 742  : 			_STD addressof(this->_Right(_Pnode)));
; 743  : 		this->_Alnod.deallocate(_Pnode, 1);
; 744  : 		}
; 745  : 
; 746  : 	_Alty& _Getal()
; 747  : 		{	// get reference to allocator
; 748  : 		return (this->_Alnod);
; 749  : 		}
; 750  : 
; 751  : 	const _Alty& _Getal() const
; 752  : 		{	// get reference to allocator
; 753  : 		return (this->_Alnod);
; 754  : 		}
; 755  : 	};
; 756  : 
; 757  : 		// TEMPLATE CLASS _Tree_alloc
; 758  : template<class _Alloc_types>
; 759  : 	class _Tree_alloc<false, _Alloc_types>
; 760  : 		: public _Tree_val<typename _Alloc_types::_Val_types>
; 761  : 	{	// base class for tree to hold allocator with no storage
; 762  : public:
; 763  : 	typedef _Tree_alloc<false, _Alloc_types> _Myt;
; 764  : 	typedef _Tree_val<typename _Alloc_types::_Val_types> _Mybase;
; 765  : 	typedef typename _Alloc_types::_Alloc _Alloc;
; 766  : 	typedef typename _Alloc_types::_Alnod_type _Alty;
; 767  : 	typedef typename _Alloc_types::_Node _Node;
; 768  : 	typedef typename _Alloc_types::_Nodeptr _Nodeptr;
; 769  : 
; 770  :  #if _ITERATOR_DEBUG_LEVEL == 0
; 771  : 	_Tree_alloc(const _Alloc& = _Alloc())
; 772  : 		{	// construct head node, allocator from _Al
; 773  : 		this->_Myhead = _Buyheadnode();
; 774  : 		}
; 775  : 
; 776  : 	~_Tree_alloc() _NOEXCEPT
; 777  : 		{	// destroy head node
; 778  : 		_Freeheadnode(this->_Myhead);
; 779  : 		}
; 780  : 
; 781  : 	void _Change_alloc(const _Alty&)
; 782  : 		{	// replace old allocator
; 783  : 		}
; 784  : 
; 785  : 	void _Swap_alloc(_Myt&)
; 786  : 		{	// swap allocators
; 787  : 		}
; 788  : 
; 789  :  #else /* _ITERATOR_DEBUG_LEVEL == 0 */
; 790  : 	_Tree_alloc(const _Alloc& = _Alloc())
; 791  : 		{	// construct allocators from _Al
; 792  : 		this->_Myhead = _Buyheadnode();
; 793  : 		_TRY_BEGIN
; 794  : 		_Alloc_proxy();
; 795  : 		_CATCH_ALL
; 796  : 		_Freeheadnode(this->_Myhead);
; 797  : 		_RERAISE;
; 798  : 		_CATCH_END
; 799  : 		}
; 800  : 
; 801  : 	~_Tree_alloc() _NOEXCEPT
; 802  : 		{	// destroy proxy
; 803  : 		_Freeheadnode(this->_Myhead);
; 804  : 		_Free_proxy();
; 805  : 		}
; 806  : 
; 807  : 	void _Change_alloc(const _Alty&)
; 808  : 		{	// replace old allocator
; 809  : 		}
; 810  : 
; 811  : 	void _Swap_alloc(_Myt&)
; 812  : 		{	// swap allocators
; 813  : 		}
; 814  : 
; 815  : 	void _Alloc_proxy()
; 816  : 		{	// construct proxy from _Alnod
; 817  : 		typename _Alty::template rebind<_Container_proxy>::other
; 818  : 			_Alproxy(_Getal());
; 819  : 		this->_Myproxy = _Alproxy.allocate(1);
; 820  : 		_Alproxy.construct(this->_Myproxy, _Container_proxy());
; 821  : 		this->_Myproxy->_Mycont = this;
; 822  : 		}
; 823  : 
; 824  : 	void _Free_proxy()
; 825  : 		{	// destroy proxy
; 826  : 		typename _Alty::template rebind<_Container_proxy>::other
; 827  : 			_Alproxy(_Getal());
; 828  : 		this->_Orphan_all();
; 829  : 		_Alproxy.destroy(this->_Myproxy);
; 830  : 		_Alproxy.deallocate(this->_Myproxy, 1);
; 831  : 		this->_Myproxy = 0;
; 832  : 		}
; 833  :  #endif /* _ITERATOR_DEBUG_LEVEL == 0 */
; 834  : 
; 835  : 	_Nodeptr _Buyheadnode()
; 836  : 		{	// get head node using current allocator
; 837  : 		_Nodeptr _Pnode = this->_Getal().allocate(1);
; 838  : 
; 839  : 		_TRY_BEGIN
; 840  : 		this->_Getal().construct(
; 841  : 			_STD addressof(this->_Left(_Pnode)), _Pnode);
; 842  : 		this->_Getal().construct(
; 843  : 			_STD addressof(this->_Parent(_Pnode)), _Pnode);
; 844  : 		this->_Getal().construct(
; 845  : 			_STD addressof(this->_Right(_Pnode)), _Pnode);
; 846  : 		_CATCH_ALL
; 847  : 		this->_Getal().deallocate(_Pnode, 1);
; 848  : 		_RERAISE;
; 849  : 		_CATCH_END
; 850  : 
; 851  : 		this->_Color(_Pnode) = this->_Black;
; 852  : 		this->_Isnil(_Pnode) = true;
; 853  : 		return (_Pnode);
; 854  : 		}
; 855  : 
; 856  : 	void _Freeheadnode(_Nodeptr _Pnode)
; 857  : 		{	// free head node using current allocator
; 858  : 		this->_Getal().destroy(
; 859  : 			_STD addressof(this->_Left(_Pnode)));
; 860  : 		this->_Getal().destroy(
; 861  : 			_STD addressof(this->_Parent(_Pnode)));
; 862  : 		this->_Getal().destroy(
; 863  : 			_STD addressof(this->_Right(_Pnode)));
; 864  : 		this->_Getal().deallocate(_Pnode, 1);
; 865  : 		}
; 866  : 
; 867  : 	_Alty _Getal() const
; 868  : 		{	// get allocator
; 869  : 		return (_Alty());
; 870  : 		}
; 871  : 	};
; 872  : 
; 873  : 		// TEMPLATE CLASS _Tree_buy
; 874  : template<class _Ty,
; 875  : 	class _Alloc>
; 876  : 	class _Tree_buy
; 877  : 		: public _Tree_alloc<!is_empty<_Alloc>::value,
; 878  : 			_Tree_base_types<_Ty, _Alloc> >
; 879  : 	{	// base class for tree to hold buynode/freenode functions
; 880  : public:
; 881  : 	typedef _Tree_alloc<!is_empty<_Alloc>::value,
; 882  : 		_Tree_base_types<_Ty, _Alloc> > _Mybase;
; 883  : 	typedef typename _Mybase::_Alty _Alty;
; 884  : 	typedef typename _Mybase::_Nodeptr _Nodeptr;
; 885  : 	typedef typename _Mybase::value_type value_type;
; 886  : 
; 887  : 	_Tree_buy(const _Alloc& _Al = _Alloc())
; 888  : 		: _Mybase(_Al)
; 889  : 		{	// construct from allocator
; 890  : 		}
; 891  : 
; 892  : 	_Nodeptr _Buynode0()
; 893  : 		{	// allocate a non-value node
; 894  : 		_Nodeptr _Pnode = this->_Getal().allocate(1);
; 895  : 
; 896  : 		_TRY_BEGIN
; 897  : 		this->_Getal().construct(
; 898  : 			_STD addressof(this->_Left(_Pnode)), this->_Myhead);
; 899  : 		this->_Getal().construct(
; 900  : 			_STD addressof(this->_Parent(_Pnode)), this->_Myhead);
; 901  : 		this->_Getal().construct(
; 902  : 			_STD addressof(this->_Right(_Pnode)), this->_Myhead);
; 903  : 		_CATCH_ALL
; 904  : 		this->_Getal().deallocate(_Pnode, 1);
; 905  : 		_RERAISE;
; 906  : 		_CATCH_END
; 907  : 
; 908  : 		return (_Pnode);
; 909  : 		}
; 910  : 
; 911  : 	void _Freenode0(_Nodeptr _Pnode)
; 912  : 		{	// free non-value node using current allocator
; 913  : 		this->_Getal().destroy(
; 914  : 			_STD addressof(this->_Left(_Pnode)));
; 915  : 		this->_Getal().destroy(
; 916  : 			_STD addressof(this->_Parent(_Pnode)));
; 917  : 		this->_Getal().destroy(
; 918  : 			_STD addressof(this->_Right(_Pnode)));
; 919  : 		this->_Getal().deallocate(_Pnode, 1);
; 920  : 		}
; 921  : 
; 922  : 	template<class... _Valty>
; 923  : 		_Nodeptr _Buynode(_Valty&&... _Val)
; 924  : 		{	// allocate a node with defaults and set links and value
; 925  : 		_Nodeptr _Pnode = _Buynode0();
; 926  : 
; 927  : 		this->_Color(_Pnode) = this->_Red;
; 928  : 		this->_Isnil(_Pnode) = false;
; 929  : 
; 930  : 		_TRY_BEGIN
; 931  : 		this->_Getal().construct(
; 932  : 			_STD addressof(this->_Myval(_Pnode)),
; 933  : 				_STD forward<_Valty>(_Val)...);
; 934  : 		_CATCH_ALL
; 935  : 		_Freenode0(_Pnode);
; 936  : 		_RERAISE;
; 937  : 		_CATCH_END
; 938  : 
; 939  : 		return (_Pnode);
; 940  : 		}
; 941  : 
; 942  : 	};
; 943  : 
; 944  : 		// TEMPLATE CLASS _Tree_comp
; 945  : template<bool _Pr_has_storage,
; 946  : 	class _Traits>
; 947  : 	class _Tree_comp
; 948  : 		: public _Tree_buy<typename _Traits::value_type,
; 949  : 			typename _Traits::allocator_type>
; 950  : 	{	// base class for _Tree to hold ordering predicate with storage
; 951  : public:
; 952  : 	typedef _Tree_comp<_Pr_has_storage, _Traits> _Myt;
; 953  : 	typedef _Tree_buy<typename _Traits::value_type,
; 954  : 		typename _Traits::allocator_type> _Mybase;
; 955  : 
; 956  : 	typedef typename _Traits::allocator_type allocator_type;
; 957  : 	typedef typename _Traits::key_compare key_compare;
; 958  : 
; 959  : 	_Tree_comp(const key_compare& _Parg, const allocator_type& _Al)
; 960  : 		: _Mybase(_Al), comp(_Parg)
; 961  : 		{	// construct ordering predicate
; 962  : 		}
; 963  : 
; 964  : 	key_compare& _Getcomp()
; 965  : 		{	// get reference to ordering predicate
; 966  : 		return (comp);
; 967  : 		}
; 968  : 
; 969  : 	const key_compare& _Getcomp() const
; 970  : 		{	// get reference to ordering predicate
; 971  : 		return (comp);
; 972  : 		}
; 973  : 
; 974  : 	void _Setcomp(const key_compare& _Right)
; 975  : 		{	// copy ordering predicate
; 976  : 		comp = _Right;
; 977  : 		}
; 978  : 
; 979  : 	void _Swapcomp(key_compare& _Right)
; 980  : 		{	// swap ordering predicate
; 981  : 		_Swap_adl(comp, _Right);
; 982  : 		}
; 983  : 
; 984  : 	key_compare comp;
; 985  : 	};
; 986  : 
; 987  : template<class _Traits>
; 988  : 	class _Tree_comp<false, _Traits>
; 989  : 		: public _Tree_buy<typename _Traits::value_type,
; 990  : 			typename _Traits::allocator_type>
; 991  : 	{	// base class for _Tree to hold ordering predicate with no storage
; 992  : public:
; 993  : 	typedef _Tree_comp<false, _Traits> _Myt;
; 994  : 	typedef _Tree_buy<typename _Traits::value_type,
; 995  : 		typename _Traits::allocator_type> _Mybase;
; 996  : 
; 997  : 	typedef typename _Traits::allocator_type allocator_type;
; 998  : 	typedef typename _Traits::key_compare key_compare;
; 999  : 
; 1000 : 	_Tree_comp(const key_compare&, const allocator_type& _Al)
; 1001 : 		: _Mybase(_Al)
; 1002 : 		{	// construct ordering predicate
; 1003 : 		}
; 1004 : 
; 1005 : 	key_compare _Getcomp() const
; 1006 : 		{	// get ordering predicate
; 1007 : 		return (key_compare());
; 1008 : 		}
; 1009 : 
; 1010 : 	void _Setcomp(const key_compare&)
; 1011 : 		{	// copy ordering predicate
; 1012 : 		}
; 1013 : 
; 1014 : 	void _Swapcomp(const key_compare&)
; 1015 : 		{	// swap ordering predicate
; 1016 : 		}
; 1017 : 	};
; 1018 : 
; 1019 : 		// TEMPLATE CLASS _Tree
; 1020 : template<class _Traits>
; 1021 : 	class _Tree
; 1022 : 		: public _Tree_comp<
; 1023 : 			!is_empty<typename _Traits::key_compare>::value, _Traits>
; 1024 : 	{	// ordered red-black tree for [multi_]{map set}
; 1025 : public:
; 1026 : 	typedef _Tree<_Traits> _Myt;
; 1027 : 	typedef _Tree_comp<
; 1028 : 		!is_empty<typename _Traits::key_compare>::value, _Traits> _Mybase;
; 1029 : 
; 1030 : 	typedef typename _Traits::key_type key_type;
; 1031 : 	typedef typename _Traits::value_compare value_compare;
; 1032 : 	enum
; 1033 : 		{	// get multi parameter
; 1034 : 		_Multi = _Traits::_Multi};
; 1035 : 
; 1036 : 	typedef typename _Mybase::_Node _Node;
; 1037 : 	typedef typename _Mybase::_Nodeptr _Nodeptr;
; 1038 : 	typedef typename _Mybase::_Alty _Alty;
; 1039 : 
; 1040 : 	typedef typename _Mybase::key_compare key_compare;
; 1041 : 	typedef typename _Mybase::allocator_type allocator_type;
; 1042 : 
; 1043 : 	typedef typename _Mybase::value_type value_type;
; 1044 : 	typedef typename _Mybase::size_type size_type;
; 1045 : 	typedef typename _Mybase::difference_type difference_type;
; 1046 : 	typedef typename _Mybase::pointer pointer;
; 1047 : 	typedef typename _Mybase::const_pointer const_pointer;
; 1048 : 	typedef typename _Mybase::reference reference;
; 1049 : 	typedef typename _Mybase::const_reference const_reference;
; 1050 : 
; 1051 : 	typedef typename _Mybase::const_iterator const_iterator;
; 1052 : 	typedef typename _If<is_same<key_type, value_type>::value,
; 1053 : 		typename _Mybase::const_iterator,
; 1054 : 		typename _Mybase::iterator>::type iterator;
; 1055 : 
; 1056 : 	typedef _STD reverse_iterator<iterator> reverse_iterator;
; 1057 : 	typedef _STD reverse_iterator<const_iterator> const_reverse_iterator;
; 1058 : 
; 1059 : 	typedef pair<iterator, bool> _Pairib;
; 1060 : 	typedef pair<iterator, iterator> _Pairii;
; 1061 : 	typedef pair<const_iterator, const_iterator> _Paircc;
; 1062 : 
; 1063 : 	_Tree(const key_compare& _Parg,
; 1064 : 		const allocator_type& _Al)
; 1065 : 		: _Mybase(_Parg, _Al)
; 1066 : 		{	// construct empty tree
; 1067 : 		}
; 1068 : 
; 1069 : 	_Tree(const value_type *_First, const value_type *_Last,
; 1070 : 		const key_compare& _Parg, const allocator_type& _Al)
; 1071 : 		: _Mybase(_Parg, _Al)
; 1072 : 		{	// construct tree from [_First, _Last) array
; 1073 : 		_TRY_BEGIN
; 1074 : 		insert(_First, _Last);
; 1075 : 		_CATCH_ALL
; 1076 : 		_Tidy();
; 1077 : 		_RERAISE;
; 1078 : 		_CATCH_END
; 1079 : 		}
; 1080 : 
; 1081 : 	_Tree(const _Myt& _Right, const allocator_type& _Al)
; 1082 : 		: _Mybase(_Right.key_comp(), _Al)
; 1083 : 		{	// construct tree by copying _Right, allocator
; 1084 : 		_TRY_BEGIN
; 1085 : 		_Copy(_Right, false_type());
; 1086 : 		_CATCH_ALL
; 1087 : 		_Tidy();
; 1088 : 		_RERAISE;
; 1089 : 		_CATCH_END
; 1090 : 		}
; 1091 : 
; 1092 : 	_Tree(_Myt&& _Right)
; 1093 : 		: _Mybase(_Right.key_comp(), _Right._Getal())
; 1094 : 		{	// construct tree by moving _Right
; 1095 : 		_Assign_rv(_STD forward<_Myt>(_Right), true_type());
; 1096 : 		}
; 1097 : 
; 1098 : 	_Tree(_Myt&& _Right, const allocator_type& _Al)
; 1099 : 		: _Mybase(_Right.key_comp(), _Al)
; 1100 : 		{	// construct tree by moving _Right, allocator
; 1101 : 		_Assign_rv(_STD forward<_Myt>(_Right));
; 1102 : 		}
; 1103 : 
; 1104 : 	_Myt& operator=(_Myt&& _Right)
; 1105 : 		{	// assign by moving _Right
; 1106 : 		if (this != &_Right)
; 1107 : 			{	// different, move it
; 1108 : 			clear();
; 1109 : 			if (_Alty::propagate_on_container_move_assignment::value
; 1110 : 				&& this->_Getal() != _Right._Getal())
; 1111 : 				this->_Change_alloc(_Right._Getal());
; 1112 : 
; 1113 : 			_Assign_rv(_STD forward<_Myt>(_Right));
; 1114 : 			}
; 1115 : 		return (*this);
; 1116 : 		}
; 1117 : 
; 1118 : 	void _Assign_rv(_Myt&& _Right, true_type)
; 1119 : 		{	// move from _Right, stealing its contents
; 1120 : 		this->_Swap_all(_Right);
; 1121 : 		this->_Swapcomp(_Right._Getcomp());
; 1122 : 		_Swap_adl(this->_Myhead, _Right._Myhead);
; 1123 : 		_STD swap(this->_Mysize, _Right._Mysize);
; 1124 : 		}
; 1125 : 
; 1126 : 	void _Assign_rv(_Myt&& _Right, false_type)
; 1127 : 		{	// move from _Right, possibly moving its contents
; 1128 : 		if (get_allocator() == _Right.get_allocator())
; 1129 : 			_Assign_rv(_STD forward<_Myt>(_Right), true_type());
; 1130 : 		else
; 1131 : 			_Copy(_Right, true_type());
; 1132 : 		}
; 1133 : 
; 1134 : 	void _Assign_rv(_Myt&& _Right)
; 1135 : 		{	// assign by moving _Right
; 1136 : 		_Assign_rv(_STD forward<_Myt>(_Right),
; 1137 : 			typename _Alty::propagate_on_container_move_assignment());
; 1138 : 		}
; 1139 : 
; 1140 : 
; 1141 : 	_Pairib insert(value_type&& _Val)
; 1142 : 		{	// try to insert node with value _Val, favoring right side
; 1143 : 		return (_Insert_nohint(false,
; 1144 : 			_STD forward<value_type>(_Val), _Nil_obj));
; 1145 : 		}
; 1146 : 
; 1147 : 	iterator insert(const_iterator _Where, value_type&& _Val)
; 1148 : 		{	// try to insert node with value _Val using _Where as a hint
; 1149 : 		return (_Insert_hint(_Where,
; 1150 : 			_STD forward<value_type>(_Val), _Nil_obj));
; 1151 : 		}
; 1152 : 
; 1153 : 	template<class _Valty>
; 1154 : 		typename enable_if<is_convertible<_Valty, value_type>::value,
; 1155 : 			_Pairib>::type
; 1156 : 		insert(_Valty&& _Val)
; 1157 : 		{	// try to insert node with value _Val, favoring right side
; 1158 : 		_Nodeptr _Newnode = this->_Buynode(_STD forward<_Valty>(_Val));
; 1159 : 		return (_Insert_nohint(false,
; 1160 : 			this->_Myval(_Newnode), _Newnode));
; 1161 : 		}
; 1162 : 
; 1163 : 	template<class _Valty>
; 1164 : 		typename enable_if<is_convertible<_Valty, value_type>::value,
; 1165 : 			iterator>::type
; 1166 : 		insert(const_iterator _Where, _Valty&& _Val)
; 1167 : 		{	// try to insert node with value _Val using _Where as a hint
; 1168 : 		_Nodeptr _Newnode = this->_Buynode(_STD forward<_Valty>(_Val));
; 1169 : 		return (_Insert_hint(_Where,
; 1170 : 			this->_Myval(_Newnode), _Newnode));
; 1171 : 		}
; 1172 : 
; 1173 : 	template<class... _Valty>
; 1174 : 		_Pairib emplace(_Valty&&... _Val)
; 1175 : 		{	// try to insert value_type(_Val...), favoring right side
; 1176 : 		_Nodeptr _Newnode = this->_Buynode(_STD forward<_Valty>(_Val)...);
; 1177 : 		return (_Insert_nohint(false,
; 1178 : 			this->_Myval(_Newnode), _Newnode));
; 1179 : 		}
; 1180 : 
; 1181 : 	template<class... _Valty>
; 1182 : 		iterator emplace_hint(const_iterator _Where, _Valty&&... _Val)
; 1183 : 		{	// insert value_type(_Val...) at _Where
; 1184 : 		_Nodeptr _Newnode = this->_Buynode(_STD forward<_Valty>(_Val)...);
; 1185 : 		return (_Insert_hint(_Where,
; 1186 : 			this->_Myval(_Newnode), _Newnode));
; 1187 : 		}
; 1188 : 
; 1189 : 
; 1190 : 	~_Tree() _NOEXCEPT
; 1191 : 		{	// destroy tree
; 1192 : 		_Tidy();
; 1193 : 		}
; 1194 : 
; 1195 : 	_Myt& operator=(const _Myt& _Right)
; 1196 : 		{	// replace contents from _Right
; 1197 : 		if (this != &_Right)
; 1198 : 			{	// different, assign it
; 1199 : 			clear();
; 1200 : 			if (this->_Getal() != _Right._Getal()
; 1201 : 				&& _Alty::propagate_on_container_copy_assignment::value)
; 1202 : 				this->_Change_alloc(_Right._Getal());
; 1203 : 
; 1204 : 			this->_Setcomp(_Right._Getcomp());
; 1205 : 			_Copy(_Right, false_type());
; 1206 : 			}
; 1207 : 		return (*this);
; 1208 : 		}
; 1209 : 
; 1210 : 	iterator begin() _NOEXCEPT
; 1211 : 		{	// return iterator for beginning of mutable sequence
; 1212 : 		return (iterator(_Lmost(), this));
; 1213 : 		}
; 1214 : 
; 1215 : 	const_iterator begin() const _NOEXCEPT
; 1216 : 		{	// return iterator for beginning of nonmutable sequence
; 1217 : 		return (const_iterator(_Lmost(), this));
; 1218 : 		}
; 1219 : 
; 1220 : 	iterator end() _NOEXCEPT
; 1221 : 		{	// return iterator for end of mutable sequence
; 1222 : 		return (iterator(this->_Myhead, this));
; 1223 : 		}
; 1224 : 
; 1225 : 	const_iterator end() const _NOEXCEPT
; 1226 : 		{	// return iterator for end of nonmutable sequence
; 1227 : 		return (const_iterator(this->_Myhead, this));
; 1228 : 		}
; 1229 : 
; 1230 : 	reverse_iterator rbegin() _NOEXCEPT
; 1231 : 		{	// return iterator for beginning of reversed mutable sequence
; 1232 : 		return (reverse_iterator(end()));
; 1233 : 		}
; 1234 : 
; 1235 : 	const_reverse_iterator rbegin() const _NOEXCEPT
; 1236 : 		{	// return iterator for beginning of reversed nonmutable sequence
; 1237 : 		return (const_reverse_iterator(end()));
; 1238 : 		}
; 1239 : 
; 1240 : 	reverse_iterator rend() _NOEXCEPT
; 1241 : 		{	// return iterator for end of reversed mutable sequence
; 1242 : 		return (reverse_iterator(begin()));
; 1243 : 		}
; 1244 : 
; 1245 : 	const_reverse_iterator rend() const _NOEXCEPT
; 1246 : 		{	// return iterator for end of reversed nonmutable sequence
; 1247 : 		return (const_reverse_iterator(begin()));
; 1248 : 		}
; 1249 : 
; 1250 : 	const_iterator cbegin() const _NOEXCEPT
; 1251 : 		{	// return iterator for beginning of nonmutable sequence
; 1252 : 		return (((const _Myt *)this)->begin());
; 1253 : 		}
; 1254 : 
; 1255 : 	const_iterator cend() const _NOEXCEPT
; 1256 : 		{	// return iterator for end of nonmutable sequence
; 1257 : 		return (((const _Myt *)this)->end());
; 1258 : 		}
; 1259 : 
; 1260 : 	const_reverse_iterator crbegin() const _NOEXCEPT
; 1261 : 		{	// return iterator for beginning of reversed nonmutable sequence
; 1262 : 		return (((const _Myt *)this)->rbegin());
; 1263 : 		}
; 1264 : 
; 1265 : 	const_reverse_iterator crend() const _NOEXCEPT
; 1266 : 		{	// return iterator for end of reversed nonmutable sequence
; 1267 : 		return (((const _Myt *)this)->rend());
; 1268 : 		}
; 1269 : 
; 1270 : 	size_type size() const _NOEXCEPT
; 1271 : 		{	// return length of sequence
; 1272 : 		return (this->_Mysize);
; 1273 : 		}
; 1274 : 
; 1275 : 	size_type max_size() const _NOEXCEPT
; 1276 : 		{	// return maximum possible length of sequence
; 1277 : 		return (this->_Getal().max_size());
; 1278 : 		}
; 1279 : 
; 1280 : 	bool empty() const _NOEXCEPT
; 1281 : 		{	// return true only if sequence is empty
; 1282 : 		return (size() == 0);
; 1283 : 		}
; 1284 : 
; 1285 : 	allocator_type get_allocator() const _NOEXCEPT
; 1286 : 		{	// return allocator object for values
; 1287 : 		return (this->_Getal());
; 1288 : 		}
; 1289 : 
; 1290 : 	key_compare key_comp() const
; 1291 : 		{	// return object for comparing keys
; 1292 : 		return (this->_Getcomp());
; 1293 : 		}
; 1294 : 
; 1295 : 	value_compare value_comp() const
; 1296 : 		{	// return object for comparing values
; 1297 : 		return (value_compare(key_comp()));
; 1298 : 		}
; 1299 : 
; 1300 : 	_Pairib insert(const value_type& _Val)
; 1301 : 		{	// try to insert node with value _Val, favoring right side
; 1302 : 		return (_Insert_nohint(false,
; 1303 : 			_Val, _Nil_obj));
; 1304 : 		}
; 1305 : 
; 1306 : 	iterator insert(const_iterator _Where,
; 1307 : 		const value_type& _Val)
; 1308 : 		{	// try to insert node with value _Val using _Where as a hint
; 1309 : 		return (_Insert_hint(_Where,
; 1310 : 			_Val, _Nil_obj));
; 1311 : 		}
; 1312 : 
; 1313 : 	template<class _Iter>
; 1314 : 		void insert(_Iter _First, _Iter _Last)
; 1315 : 		{	// insert [_First, _Last) one at a time
; 1316 : 		_DEBUG_RANGE(_First, _Last);
; 1317 : 		for (; _First != _Last; ++_First)
; 1318 : 
; 1319 : 			emplace_hint(end(), *_First);
; 1320 : 		}
; 1321 : 
; 1322 : 	void insert(_XSTD initializer_list<value_type> _Ilist)
; 1323 : 		{	// insert initializer_list
; 1324 : 		insert(_Ilist.begin(), _Ilist.end());
; 1325 : 		}
; 1326 : 
; 1327 : 	iterator erase(const_iterator _Where)
; 1328 : 		{	// erase element at _Where
; 1329 :  #if _ITERATOR_DEBUG_LEVEL == 2
; 1330 : 		if (_Where._Getcont() != this || this->_Isnil(_Where._Mynode()))
; 1331 : 			_DEBUG_ERROR("map/set erase iterator outside range");
; 1332 : 		_Nodeptr _Erasednode = _Where._Mynode();	// node to erase
; 1333 : 		++_Where;	// save successor iterator for return
; 1334 : 		_Orphan_ptr(*this, _Erasednode);
; 1335 : 
; 1336 :  #else /* _ITERATOR_DEBUG_LEVEL == 2 */
; 1337 : 		_Nodeptr _Erasednode = _Where._Mynode();	// node to erase
; 1338 : 		++_Where;	// save successor iterator for return
; 1339 :  #endif /* _ITERATOR_DEBUG_LEVEL == 2 */
; 1340 : 
; 1341 : 		_Nodeptr _Fixnode;	// the node to recolor as needed
; 1342 : 		_Nodeptr _Fixnodeparent;	// parent of _Fixnode (which may be nil)
; 1343 : 		_Nodeptr _Pnode = _Erasednode;
; 1344 : 
; 1345 : 		if (this->_Isnil(this->_Left(_Pnode)))
; 1346 : 			_Fixnode = this->_Right(_Pnode);	// stitch up right subtree
; 1347 : 		else if (this->_Isnil(this->_Right(_Pnode)))
; 1348 : 			_Fixnode = this->_Left(_Pnode);	// stitch up left subtree
; 1349 : 		else
; 1350 : 			{	// two subtrees, must lift successor node to replace erased
; 1351 : 			_Pnode = _Where._Mynode();	// _Pnode is successor node
; 1352 : 			_Fixnode = this->_Right(_Pnode);	// _Fixnode is only subtree
; 1353 : 			}
; 1354 : 
; 1355 : 		if (_Pnode == _Erasednode)
; 1356 : 			{	// at most one subtree, relink it
; 1357 : 			_Fixnodeparent = this->_Parent(_Erasednode);
; 1358 : 			if (!this->_Isnil(_Fixnode))
; 1359 : 				this->_Parent(_Fixnode) = _Fixnodeparent;	// link up
; 1360 : 
; 1361 : 			if (_Root() == _Erasednode)
; 1362 : 				_Root() = _Fixnode;	// link down from root
; 1363 : 			else if (this->_Left(_Fixnodeparent) == _Erasednode)
; 1364 : 				this->_Left(_Fixnodeparent) = _Fixnode;	// link down to left
; 1365 : 			else
; 1366 : 				this->_Right(_Fixnodeparent) =
; 1367 : 					_Fixnode;	// link down to right
; 1368 : 
; 1369 : 			if (_Lmost() == _Erasednode)
; 1370 : 				_Lmost() = this->_Isnil(_Fixnode)
; 1371 : 					? _Fixnodeparent	// smallest is parent of erased node
; 1372 : 					: this->_Min(_Fixnode);	// smallest in relinked subtree
; 1373 : 
; 1374 : 			if (_Rmost() == _Erasednode)
; 1375 : 				_Rmost() = this->_Isnil(_Fixnode)
; 1376 : 					? _Fixnodeparent	// largest is parent of erased node
; 1377 : 					: this->_Max(_Fixnode);	// largest in relinked subtree
; 1378 : 			}
; 1379 : 		else
; 1380 : 			{	// erased has two subtrees, _Pnode is successor to erased
; 1381 : 			this->_Parent(this->_Left(_Erasednode)) =
; 1382 : 				_Pnode;	// link left up
; 1383 : 			this->_Left(_Pnode) =
; 1384 : 				this->_Left(_Erasednode);	// link successor down
; 1385 : 
; 1386 : 			if (_Pnode == this->_Right(_Erasednode))
; 1387 : 				_Fixnodeparent = _Pnode;	// successor is next to erased
; 1388 : 			else
; 1389 : 				{	// successor further down, link in place of erased
; 1390 : 				_Fixnodeparent =
; 1391 : 					this->_Parent(_Pnode);	// parent is successor's
; 1392 : 				if (!this->_Isnil(_Fixnode))
; 1393 : 					this->_Parent(_Fixnode) = _Fixnodeparent;	// link fix up
; 1394 : 				this->_Left(_Fixnodeparent) = _Fixnode;	// link fix down
; 1395 : 				this->_Right(_Pnode) =
; 1396 : 					this->_Right(_Erasednode);	// link next down
; 1397 : 				this->_Parent(this->_Right(_Erasednode)) =
; 1398 : 					_Pnode;	// right up
; 1399 : 				}
; 1400 : 
; 1401 : 			if (_Root() == _Erasednode)
; 1402 : 				_Root() = _Pnode;	// link down from root
; 1403 : 			else if (this->_Left(this->_Parent(_Erasednode)) == _Erasednode)
; 1404 : 				this->_Left(this->_Parent(_Erasednode)) =
; 1405 : 					_Pnode;	// link down to left
; 1406 : 			else
; 1407 : 				this->_Right(this->_Parent(_Erasednode)) =
; 1408 : 					_Pnode;	// link down to right
; 1409 : 
; 1410 : 			this->_Parent(_Pnode) =
; 1411 : 				this->_Parent(_Erasednode);	// link successor up
; 1412 : 			_STD swap(this->_Color(_Pnode),
; 1413 : 				this->_Color(_Erasednode));	// recolor it
; 1414 : 			}
; 1415 : 
; 1416 : 		if (this->_Color(_Erasednode) == this->_Black)
; 1417 : 			{	// erasing black link, must recolor/rebalance tree
; 1418 : 			for (; _Fixnode != _Root()
; 1419 : 				&& this->_Color(_Fixnode) == this->_Black;
; 1420 : 				_Fixnodeparent = this->_Parent(_Fixnode))
; 1421 : 				if (_Fixnode == this->_Left(_Fixnodeparent))
; 1422 : 					{	// fixup left subtree
; 1423 : 					_Pnode = this->_Right(_Fixnodeparent);
; 1424 : 					if (this->_Color(_Pnode) == this->_Red)
; 1425 : 						{	// rotate red up from right subtree
; 1426 : 						this->_Color(_Pnode) = this->_Black;
; 1427 : 						this->_Color(_Fixnodeparent) = this->_Red;
; 1428 : 						_Lrotate(_Fixnodeparent);
; 1429 : 						_Pnode = this->_Right(_Fixnodeparent);
; 1430 : 						}
; 1431 : 
; 1432 : 					if (this->_Isnil(_Pnode))
; 1433 : 						_Fixnode = _Fixnodeparent;	// shouldn't happen
; 1434 : 					else if (this->_Color(this->_Left(_Pnode)) == this->_Black
; 1435 : 						&& this->_Color(this->_Right(_Pnode)) == this->_Black)
; 1436 : 						{	// redden right subtree with black children
; 1437 : 						this->_Color(_Pnode) = this->_Red;
; 1438 : 						_Fixnode = _Fixnodeparent;
; 1439 : 						}
; 1440 : 					else
; 1441 : 						{	// must rearrange right subtree
; 1442 : 						if (this->_Color(this->_Right(_Pnode))
; 1443 : 							== this->_Black)
; 1444 : 							{	// rotate red up from left sub-subtree
; 1445 : 							this->_Color(this->_Left(_Pnode)) = this->_Black;
; 1446 : 							this->_Color(_Pnode) = this->_Red;
; 1447 : 							_Rrotate(_Pnode);
; 1448 : 							_Pnode = this->_Right(_Fixnodeparent);
; 1449 : 							}
; 1450 : 
; 1451 : 						this->_Color(_Pnode) = this->_Color(_Fixnodeparent);
; 1452 : 						this->_Color(_Fixnodeparent) = this->_Black;
; 1453 : 						this->_Color(this->_Right(_Pnode)) = this->_Black;
; 1454 : 						_Lrotate(_Fixnodeparent);
; 1455 : 						break;	// tree now recolored/rebalanced
; 1456 : 						}
; 1457 : 					}
; 1458 : 				else
; 1459 : 					{	// fixup right subtree
; 1460 : 					_Pnode = this->_Left(_Fixnodeparent);
; 1461 : 					if (this->_Color(_Pnode) == this->_Red)
; 1462 : 						{	// rotate red up from left subtree
; 1463 : 						this->_Color(_Pnode) = this->_Black;
; 1464 : 						this->_Color(_Fixnodeparent) = this->_Red;
; 1465 : 						_Rrotate(_Fixnodeparent);
; 1466 : 						_Pnode = this->_Left(_Fixnodeparent);
; 1467 : 						}
; 1468 : 
; 1469 : 					if (this->_Isnil(_Pnode))
; 1470 : 						_Fixnode = _Fixnodeparent;	// shouldn't happen
; 1471 : 					else if (this->_Color(this->_Right(_Pnode)) ==
; 1472 : 						this->_Black
; 1473 : 						&& this->_Color(this->_Left(_Pnode)) == this->_Black)
; 1474 : 						{	// redden left subtree with black children
; 1475 : 						this->_Color(_Pnode) = this->_Red;
; 1476 : 						_Fixnode = _Fixnodeparent;
; 1477 : 						}
; 1478 : 					else
; 1479 : 						{	// must rearrange left subtree
; 1480 : 						if (this->_Color(this->_Left(_Pnode)) == this->_Black)
; 1481 : 							{	// rotate red up from right sub-subtree
; 1482 : 							this->_Color(this->_Right(_Pnode)) = this->_Black;
; 1483 : 							this->_Color(_Pnode) = this->_Red;
; 1484 : 							_Lrotate(_Pnode);
; 1485 : 							_Pnode = this->_Left(_Fixnodeparent);
; 1486 : 							}
; 1487 : 
; 1488 : 						this->_Color(_Pnode) = this->_Color(_Fixnodeparent);
; 1489 : 						this->_Color(_Fixnodeparent) = this->_Black;
; 1490 : 						this->_Color(this->_Left(_Pnode)) = this->_Black;
; 1491 : 						_Rrotate(_Fixnodeparent);
; 1492 : 						break;	// tree now recolored/rebalanced
; 1493 : 						}
; 1494 : 					}
; 1495 : 
; 1496 : 			this->_Color(_Fixnode) = this->_Black;	// stopping node is black
; 1497 : 			}
; 1498 : 
; 1499 : 		this->_Getal().destroy(
; 1500 : 			_STD addressof(this->_Myval(_Erasednode)));	// delete erased node
; 1501 : 
; 1502 : 		this->_Getal().deallocate(_Erasednode, 1);
; 1503 : 
; 1504 : 		if (0 < this->_Mysize)
; 1505 : 			--this->_Mysize;
; 1506 : 
; 1507 : 		return (iterator(_Where._Ptr, this));	// return successor iterator
; 1508 : 		}
; 1509 : 
; 1510 : 	iterator erase(const_iterator _First, const_iterator _Last)
; 1511 : 		{	// erase [_First, _Last)
; 1512 : 		if (_First == begin() && _Last == end())
; 1513 : 			{	// erase all
; 1514 : 			clear();
; 1515 : 			return (begin());
; 1516 : 			}
; 1517 : 		else
; 1518 : 			{	// partial erase, one at a time
; 1519 : 			while (_First != _Last)
; 1520 : 				erase(_First++);
; 1521 : 			return (iterator(_First._Ptr, this));
; 1522 : 			}
; 1523 : 		}
; 1524 : 
; 1525 : 	size_type erase(const key_type& _Keyval)
; 1526 : 		{	// erase and count all that match _Keyval
; 1527 : 		_Pairii _Where = equal_range(_Keyval);
; 1528 : 		size_type _Num = 0;
; 1529 : 		_Distance(_Where.first, _Where.second, _Num);
; 1530 : 		erase(_Where.first, _Where.second);
; 1531 : 		return (_Num);
; 1532 : 		}
; 1533 : 
; 1534 : 	void clear() _NOEXCEPT
; 1535 : 		{	// erase all
; 1536 :  #if _ITERATOR_DEBUG_LEVEL == 2
; 1537 : 		this->_Orphan_ptr(*this, 0);
; 1538 :  #endif /* _ITERATOR_DEBUG_LEVEL == 2 */
; 1539 : 
; 1540 : 		_Erase(_Root());
; 1541 : 		_Root() = this->_Myhead;
; 1542 : 		_Lmost() = this->_Myhead;
; 1543 : 		_Rmost() = this->_Myhead;
; 1544 : 		this->_Mysize = 0;
; 1545 : 		}
; 1546 : 
; 1547 : 	iterator find(const key_type& _Keyval)
; 1548 : 		{	// find an element in mutable sequence that matches _Keyval
; 1549 : 		iterator _Where = lower_bound(_Keyval);
; 1550 : 		return (_Where == end()
; 1551 : 			|| _DEBUG_LT_PRED(this->_Getcomp(),
; 1552 : 				_Keyval, this->_Key(_Where._Mynode()))
; 1553 : 					? end() : _Where);
; 1554 : 		}
; 1555 : 
; 1556 : 	const_iterator find(const key_type& _Keyval) const
; 1557 : 		{	// find an element in nonmutable sequence that matches _Keyval
; 1558 : 		const_iterator _Where = lower_bound(_Keyval);
; 1559 : 		return (_Where == end()
; 1560 : 			|| _DEBUG_LT_PRED(this->_Getcomp(),
; 1561 : 				_Keyval, this->_Key(_Where._Mynode()))
; 1562 : 					? end() : _Where);
; 1563 : 		}
; 1564 : 
; 1565 : 	size_type count(const key_type& _Keyval) const
; 1566 : 		{	// count all elements that match _Keyval
; 1567 : 		_Paircc _Ans = equal_range(_Keyval);
; 1568 : 		size_type _Num = 0;
; 1569 : 		_Distance(_Ans.first, _Ans.second, _Num);
; 1570 : 		return (_Num);
; 1571 : 		}
; 1572 : 
; 1573 : 	iterator lower_bound(const key_type& _Keyval)
; 1574 : 		{	// find leftmost node not less than _Keyval in mutable tree
; 1575 : 		return (iterator(_Lbound(_Keyval), this));
; 1576 : 		}
; 1577 : 
; 1578 : 	const_iterator lower_bound(const key_type& _Keyval) const
; 1579 : 		{	// find leftmost node not less than _Keyval in nonmutable tree
; 1580 : 		return (const_iterator(_Lbound(_Keyval), this));
; 1581 : 		}
; 1582 : 
; 1583 : 	iterator upper_bound(const key_type& _Keyval)
; 1584 : 		{	// find leftmost node greater than _Keyval in mutable tree
; 1585 : 		return (iterator(_Ubound(_Keyval), this));
; 1586 : 		}
; 1587 : 
; 1588 : 	const_iterator upper_bound(const key_type& _Keyval) const
; 1589 : 		{	// find leftmost node greater than _Keyval in nonmutable tree
; 1590 : 		return (const_iterator(_Ubound(_Keyval), this));
; 1591 : 		}
; 1592 : 
; 1593 : 	_Pairii equal_range(const key_type& _Keyval)
; 1594 : 		{	// find range equivalent to _Keyval in mutable tree
; 1595 : 		return (_Eqrange(_Keyval));
; 1596 : 		}
; 1597 : 
; 1598 : 	_Paircc equal_range(const key_type& _Keyval) const
; 1599 : 		{	// find range equivalent to _Keyval in nonmutable tree
; 1600 : 		return (_Eqrange(_Keyval));
; 1601 : 		}
; 1602 : 
; 1603 : 	void swap(_Myt& _Right)
; 1604 : 		{	// exchange contents with _Right
; 1605 : 		if (this == &_Right)
; 1606 : 			;	// same object, do nothing
; 1607 : 		else if (this->_Getal() == _Right._Getal())
; 1608 : 			{	// same allocator, swap control information
; 1609 : 			this->_Swap_all(_Right);
; 1610 : 			this->_Swapcomp(_Right._Getcomp());
; 1611 : 			_Swap_adl(this->_Myhead, _Right._Myhead);
; 1612 : 			_STD swap(this->_Mysize, _Right._Mysize);
; 1613 : 			}
; 1614 : 
; 1615 : 		else if (_Alty::propagate_on_container_swap::value)
; 1616 : 			{	// swap allocators and control information
; 1617 : 			this->_Swap_alloc(_Right);
; 1618 : 			this->_Swapcomp(_Right._Getcomp());
; 1619 : 			_Swap_adl(this->_Myhead, _Right._Myhead);
; 1620 : 			_STD swap(this->_Mysize, _Right._Mysize);
; 1621 : 			}
; 1622 : 
; 1623 : 		else
; 1624 : 			{	// containers are incompatible
; 1625 :  #if _ITERATOR_DEBUG_LEVEL == 2
; 1626 : 			_DEBUG_ERROR("map/set containers incompatible for swap");
; 1627 : 
; 1628 :  #else /* ITERATOR_DEBUG_LEVEL == 2 */
; 1629 : 			_XSTD terminate();
; 1630 :  #endif /* ITERATOR_DEBUG_LEVEL == 2 */
; 1631 : 			}
; 1632 : 		}
; 1633 : 
; 1634 : protected:
; 1635 : 	template<class _Valty>
; 1636 : 		_Nodeptr _Buynode_if_nil(_Nodeptr _Node, _Valty&&)
; 1637 : 		{	// node exists, just return it
; 1638 : 		return (_Node);
; 1639 : 		}
; 1640 : 
; 1641 : 	template<class _Valty>
; 1642 : 		_Nodeptr _Buynode_if_nil(_Nil, _Valty&& _Val)
; 1643 : 		{	// node doesn't exist, make it
; 1644 : 		return (this->_Buynode(_STD forward<_Valty>(_Val)));

	mov	rdx, QWORD PTR _Val$[rsp]
	call	??$_Buynode@AEBQEAUstr_value@@@?$_Tree_buy@PEAUstr_value@@V?$xalloc@PEAUstr_value@@@@@std@@QEAAPEAU?$_Tree_node@PEAUstr_value@@PEAX@1@AEBQEAUstr_value@@@Z ; std::_Tree_buy<str_value * __ptr64,xalloc<str_value * __ptr64> >::_Buynode<str_value * __ptr64 const & __ptr64>

; 1840 : 			}
; 1841 : 		_Nodeptr _Newnode = _Buynode_if_nil(_Node,
; 1842 : 			_STD forward<_Valty>(_Val));
; 1843 : 
; 1844 : 		++this->_Mysize;

	inc	QWORD PTR [rbx+8]

; 1845 : 		_Newnode->_Parent = _Wherenode;

	mov	QWORD PTR [rax+8], rdi

; 1846 : 
; 1847 : 		if (_Wherenode == this->_Myhead)

	mov	rcx, QWORD PTR [rbx]

; 600  : 		}
; 601  : 
; 602  : 	static reference _Myval(_Nodeptr _Pnode)
; 603  : 		{	// return reference to value in node
; 604  : 		return ((reference)_Pnode->_Myval);
; 605  : 		}
; 606  : 
; 607  : 	static _Nodeptr _Max(_Nodeptr _Pnode)
; 608  : 		{	// return rightmost node in subtree at _Pnode
; 609  : 		while (!_Isnil(_Right(_Pnode)))
; 610  : 			_Pnode = _Right(_Pnode);
; 611  : 		return (_Pnode);
; 612  : 		}
; 613  : 
; 614  : 	static _Nodeptr _Min(_Nodeptr _Pnode)
; 615  : 		{	// return leftmost node in subtree at _Pnode
; 616  : 		while (!_Isnil(_Left(_Pnode)))
; 617  : 			_Pnode = _Left(_Pnode);
; 618  : 		return (_Pnode);
; 619  : 		}
; 620  : 
; 621  : 	_Nodeptr _Myhead;	// pointer to head node
; 622  : 	size_type _Mysize;	// number of elements
; 623  : 	};
; 624  : 
; 625  : 		// TEMPLATE CLASS _Tree_alloc
; 626  : template<bool _Al_has_storage,
; 627  : 	class _Alloc_types>
; 628  : 	class _Tree_alloc
; 629  : 		: public _Tree_val<typename _Alloc_types::_Val_types>
; 630  : 	{	// base class for tree to hold allocator with storage
; 631  : public:
; 632  : 	typename _Alloc_types::_Alnod_type _Alnod;	// allocator object
; 633  : 
; 634  : 	typedef _Tree_alloc<_Al_has_storage, _Alloc_types> _Myt;
; 635  : 	typedef typename _Alloc_types::_Alloc _Alloc;
; 636  : 	typedef typename _Alloc_types::_Alnod_type _Alty;
; 637  : 	typedef typename _Alloc_types::_Node _Node;
; 638  : 	typedef typename _Alloc_types::_Nodeptr _Nodeptr;
; 639  : 
; 640  :  #if _ITERATOR_DEBUG_LEVEL == 0
; 641  : 	_Tree_alloc(const _Alloc& _Al = _Alloc())
; 642  : 		: _Alnod(_Al)
; 643  : 		{	// construct head node, allocator from _Al
; 644  : 		this->_Myhead = _Buyheadnode();
; 645  : 		}
; 646  : 
; 647  : 	~_Tree_alloc() _NOEXCEPT
; 648  : 		{	// destroy head node
; 649  : 		_Freeheadnode(this->_Myhead);
; 650  : 		}
; 651  : 
; 652  : 	void _Change_alloc(const _Alty& _Al)
; 653  : 		{	// replace old allocator
; 654  : 		this->_Alnod = _Al;
; 655  : 		}
; 656  : 
; 657  : 	void _Swap_alloc(_Myt& _Right)
; 658  : 		{	// swap allocators
; 659  : 		_Swap_adl(this->_Alnod, _Right._Alnod);
; 660  : 		}
; 661  : 
; 662  :  #else /* _ITERATOR_DEBUG_LEVEL == 0 */
; 663  : 	_Tree_alloc(const _Alloc& _Al = _Alloc())
; 664  : 		: _Alnod(_Al)
; 665  : 		{	// construct allocators from _Al
; 666  : 		this->_Myhead = _Buyheadnode();
; 667  : 		_TRY_BEGIN
; 668  : 		_Alloc_proxy();
; 669  : 		_CATCH_ALL
; 670  : 		_Freeheadnode(this->_Myhead);
; 671  : 		_RERAISE;
; 672  : 		_CATCH_END
; 673  : 		}
; 674  : 
; 675  : 	~_Tree_alloc() _NOEXCEPT
; 676  : 		{	// destroy proxy
; 677  : 		_Freeheadnode(this->_Myhead);
; 678  : 		_Free_proxy();
; 679  : 		}
; 680  : 
; 681  : 	void _Change_alloc(const _Alty& _Al)
; 682  : 		{	// replace old allocator
; 683  : 		_Free_proxy();
; 684  : 		this->_Alnod = _Al;
; 685  : 		_Alloc_proxy();
; 686  : 		}
; 687  : 
; 688  : 	void _Swap_alloc(_Myt& _Right)
; 689  : 		{	// swap allocators
; 690  : 		_Swap_adl(this->_Alnod, _Right._Alnod);
; 691  : 		_Swap_adl(this->_Myproxy, _Right._Myproxy);
; 692  : 		}
; 693  : 
; 694  : 	void _Alloc_proxy()
; 695  : 		{	// construct proxy from _Alnod
; 696  : 		typename _Alty::template rebind<_Container_proxy>::other
; 697  : 			_Alproxy(this->_Alnod);
; 698  : 		this->_Myproxy = _Alproxy.allocate(1);
; 699  : 		_Alproxy.construct(this->_Myproxy, _Container_proxy());
; 700  : 		this->_Myproxy->_Mycont = this;
; 701  : 		}
; 702  : 
; 703  : 	void _Free_proxy()
; 704  : 		{	// destroy proxy
; 705  : 		typename _Alty::template rebind<_Container_proxy>::other
; 706  : 			_Alproxy(this->_Alnod);
; 707  : 		this->_Orphan_all();
; 708  : 		_Alproxy.destroy(this->_Myproxy);
; 709  : 		_Alproxy.deallocate(this->_Myproxy, 1);
; 710  : 		this->_Myproxy = 0;
; 711  : 		}
; 712  :  #endif /* _ITERATOR_DEBUG_LEVEL == 0 */
; 713  : 
; 714  : 	_Nodeptr _Buyheadnode()
; 715  : 		{	// get head node using current allocator
; 716  : 		_Nodeptr _Pnode = this->_Alnod.allocate(1);
; 717  : 
; 718  : 		_TRY_BEGIN
; 719  : 		this->_Alnod.construct(
; 720  : 			_STD addressof(this->_Left(_Pnode)), _Pnode);
; 721  : 		this->_Alnod.construct(
; 722  : 			_STD addressof(this->_Parent(_Pnode)), _Pnode);
; 723  : 		this->_Alnod.construct(
; 724  : 			_STD addressof(this->_Right(_Pnode)), _Pnode);
; 725  : 		_CATCH_ALL
; 726  : 		this->_Alnod.deallocate(_Pnode, 1);
; 727  : 		_RERAISE;
; 728  : 		_CATCH_END
; 729  : 
; 730  : 		this->_Color(_Pnode) = this->_Black;
; 731  : 		this->_Isnil(_Pnode) = true;
; 732  : 		return (_Pnode);
; 733  : 		}
; 734  : 
; 735  : 	void _Freeheadnode(_Nodeptr _Pnode)
; 736  : 		{	// free head node using current allocator
; 737  : 		this->_Alnod.destroy(
; 738  : 			_STD addressof(this->_Left(_Pnode)));
; 739  : 		this->_Alnod.destroy(
; 740  : 			_STD addressof(this->_Parent(_Pnode)));
; 741  : 		this->_Alnod.destroy(
; 742  : 			_STD addressof(this->_Right(_Pnode)));
; 743  : 		this->_Alnod.deallocate(_Pnode, 1);
; 744  : 		}
; 745  : 
; 746  : 	_Alty& _Getal()
; 747  : 		{	// get reference to allocator
; 748  : 		return (this->_Alnod);
; 749  : 		}
; 750  : 
; 751  : 	const _Alty& _Getal() const
; 752  : 		{	// get reference to allocator
; 753  : 		return (this->_Alnod);
; 754  : 		}
; 755  : 	};
; 756  : 
; 757  : 		// TEMPLATE CLASS _Tree_alloc
; 758  : template<class _Alloc_types>
; 759  : 	class _Tree_alloc<false, _Alloc_types>
; 760  : 		: public _Tree_val<typename _Alloc_types::_Val_types>
; 761  : 	{	// base class for tree to hold allocator with no storage
; 762  : public:
; 763  : 	typedef _Tree_alloc<false, _Alloc_types> _Myt;
; 764  : 	typedef _Tree_val<typename _Alloc_types::_Val_types> _Mybase;
; 765  : 	typedef typename _Alloc_types::_Alloc _Alloc;
; 766  : 	typedef typename _Alloc_types::_Alnod_type _Alty;
; 767  : 	typedef typename _Alloc_types::_Node _Node;
; 768  : 	typedef typename _Alloc_types::_Nodeptr _Nodeptr;
; 769  : 
; 770  :  #if _ITERATOR_DEBUG_LEVEL == 0
; 771  : 	_Tree_alloc(const _Alloc& = _Alloc())
; 772  : 		{	// construct head node, allocator from _Al
; 773  : 		this->_Myhead = _Buyheadnode();
; 774  : 		}
; 775  : 
; 776  : 	~_Tree_alloc() _NOEXCEPT
; 777  : 		{	// destroy head node
; 778  : 		_Freeheadnode(this->_Myhead);
; 779  : 		}
; 780  : 
; 781  : 	void _Change_alloc(const _Alty&)
; 782  : 		{	// replace old allocator
; 783  : 		}
; 784  : 
; 785  : 	void _Swap_alloc(_Myt&)
; 786  : 		{	// swap allocators
; 787  : 		}
; 788  : 
; 789  :  #else /* _ITERATOR_DEBUG_LEVEL == 0 */
; 790  : 	_Tree_alloc(const _Alloc& = _Alloc())
; 791  : 		{	// construct allocators from _Al
; 792  : 		this->_Myhead = _Buyheadnode();
; 793  : 		_TRY_BEGIN
; 794  : 		_Alloc_proxy();
; 795  : 		_CATCH_ALL
; 796  : 		_Freeheadnode(this->_Myhead);
; 797  : 		_RERAISE;
; 798  : 		_CATCH_END
; 799  : 		}
; 800  : 
; 801  : 	~_Tree_alloc() _NOEXCEPT
; 802  : 		{	// destroy proxy
; 803  : 		_Freeheadnode(this->_Myhead);
; 804  : 		_Free_proxy();
; 805  : 		}
; 806  : 
; 807  : 	void _Change_alloc(const _Alty&)
; 808  : 		{	// replace old allocator
; 809  : 		}
; 810  : 
; 811  : 	void _Swap_alloc(_Myt&)
; 812  : 		{	// swap allocators
; 813  : 		}
; 814  : 
; 815  : 	void _Alloc_proxy()
; 816  : 		{	// construct proxy from _Alnod
; 817  : 		typename _Alty::template rebind<_Container_proxy>::other
; 818  : 			_Alproxy(_Getal());
; 819  : 		this->_Myproxy = _Alproxy.allocate(1);
; 820  : 		_Alproxy.construct(this->_Myproxy, _Container_proxy());
; 821  : 		this->_Myproxy->_Mycont = this;
; 822  : 		}
; 823  : 
; 824  : 	void _Free_proxy()
; 825  : 		{	// destroy proxy
; 826  : 		typename _Alty::template rebind<_Container_proxy>::other
; 827  : 			_Alproxy(_Getal());
; 828  : 		this->_Orphan_all();
; 829  : 		_Alproxy.destroy(this->_Myproxy);
; 830  : 		_Alproxy.deallocate(this->_Myproxy, 1);
; 831  : 		this->_Myproxy = 0;
; 832  : 		}
; 833  :  #endif /* _ITERATOR_DEBUG_LEVEL == 0 */
; 834  : 
; 835  : 	_Nodeptr _Buyheadnode()
; 836  : 		{	// get head node using current allocator
; 837  : 		_Nodeptr _Pnode = this->_Getal().allocate(1);
; 838  : 
; 839  : 		_TRY_BEGIN
; 840  : 		this->_Getal().construct(
; 841  : 			_STD addressof(this->_Left(_Pnode)), _Pnode);
; 842  : 		this->_Getal().construct(
; 843  : 			_STD addressof(this->_Parent(_Pnode)), _Pnode);
; 844  : 		this->_Getal().construct(
; 845  : 			_STD addressof(this->_Right(_Pnode)), _Pnode);
; 846  : 		_CATCH_ALL
; 847  : 		this->_Getal().deallocate(_Pnode, 1);
; 848  : 		_RERAISE;
; 849  : 		_CATCH_END
; 850  : 
; 851  : 		this->_Color(_Pnode) = this->_Black;
; 852  : 		this->_Isnil(_Pnode) = true;
; 853  : 		return (_Pnode);
; 854  : 		}
; 855  : 
; 856  : 	void _Freeheadnode(_Nodeptr _Pnode)
; 857  : 		{	// free head node using current allocator
; 858  : 		this->_Getal().destroy(
; 859  : 			_STD addressof(this->_Left(_Pnode)));
; 860  : 		this->_Getal().destroy(
; 861  : 			_STD addressof(this->_Parent(_Pnode)));
; 862  : 		this->_Getal().destroy(
; 863  : 			_STD addressof(this->_Right(_Pnode)));
; 864  : 		this->_Getal().deallocate(_Pnode, 1);
; 865  : 		}
; 866  : 
; 867  : 	_Alty _Getal() const
; 868  : 		{	// get allocator
; 869  : 		return (_Alty());
; 870  : 		}
; 871  : 	};
; 872  : 
; 873  : 		// TEMPLATE CLASS _Tree_buy
; 874  : template<class _Ty,
; 875  : 	class _Alloc>
; 876  : 	class _Tree_buy
; 877  : 		: public _Tree_alloc<!is_empty<_Alloc>::value,
; 878  : 			_Tree_base_types<_Ty, _Alloc> >
; 879  : 	{	// base class for tree to hold buynode/freenode functions
; 880  : public:
; 881  : 	typedef _Tree_alloc<!is_empty<_Alloc>::value,
; 882  : 		_Tree_base_types<_Ty, _Alloc> > _Mybase;
; 883  : 	typedef typename _Mybase::_Alty _Alty;
; 884  : 	typedef typename _Mybase::_Nodeptr _Nodeptr;
; 885  : 	typedef typename _Mybase::value_type value_type;
; 886  : 
; 887  : 	_Tree_buy(const _Alloc& _Al = _Alloc())
; 888  : 		: _Mybase(_Al)
; 889  : 		{	// construct from allocator
; 890  : 		}
; 891  : 
; 892  : 	_Nodeptr _Buynode0()
; 893  : 		{	// allocate a non-value node
; 894  : 		_Nodeptr _Pnode = this->_Getal().allocate(1);
; 895  : 
; 896  : 		_TRY_BEGIN
; 897  : 		this->_Getal().construct(
; 898  : 			_STD addressof(this->_Left(_Pnode)), this->_Myhead);
; 899  : 		this->_Getal().construct(
; 900  : 			_STD addressof(this->_Parent(_Pnode)), this->_Myhead);
; 901  : 		this->_Getal().construct(
; 902  : 			_STD addressof(this->_Right(_Pnode)), this->_Myhead);
; 903  : 		_CATCH_ALL
; 904  : 		this->_Getal().deallocate(_Pnode, 1);
; 905  : 		_RERAISE;
; 906  : 		_CATCH_END
; 907  : 
; 908  : 		return (_Pnode);
; 909  : 		}
; 910  : 
; 911  : 	void _Freenode0(_Nodeptr _Pnode)
; 912  : 		{	// free non-value node using current allocator
; 913  : 		this->_Getal().destroy(
; 914  : 			_STD addressof(this->_Left(_Pnode)));
; 915  : 		this->_Getal().destroy(
; 916  : 			_STD addressof(this->_Parent(_Pnode)));
; 917  : 		this->_Getal().destroy(
; 918  : 			_STD addressof(this->_Right(_Pnode)));
; 919  : 		this->_Getal().deallocate(_Pnode, 1);
; 920  : 		}
; 921  : 
; 922  : 	template<class... _Valty>
; 923  : 		_Nodeptr _Buynode(_Valty&&... _Val)
; 924  : 		{	// allocate a node with defaults and set links and value
; 925  : 		_Nodeptr _Pnode = _Buynode0();
; 926  : 
; 927  : 		this->_Color(_Pnode) = this->_Red;
; 928  : 		this->_Isnil(_Pnode) = false;
; 929  : 
; 930  : 		_TRY_BEGIN
; 931  : 		this->_Getal().construct(
; 932  : 			_STD addressof(this->_Myval(_Pnode)),
; 933  : 				_STD forward<_Valty>(_Val)...);
; 934  : 		_CATCH_ALL
; 935  : 		_Freenode0(_Pnode);
; 936  : 		_RERAISE;
; 937  : 		_CATCH_END
; 938  : 
; 939  : 		return (_Pnode);
; 940  : 		}
; 941  : 
; 942  : 	};
; 943  : 
; 944  : 		// TEMPLATE CLASS _Tree_comp
; 945  : template<bool _Pr_has_storage,
; 946  : 	class _Traits>
; 947  : 	class _Tree_comp
; 948  : 		: public _Tree_buy<typename _Traits::value_type,
; 949  : 			typename _Traits::allocator_type>
; 950  : 	{	// base class for _Tree to hold ordering predicate with storage
; 951  : public:
; 952  : 	typedef _Tree_comp<_Pr_has_storage, _Traits> _Myt;
; 953  : 	typedef _Tree_buy<typename _Traits::value_type,
; 954  : 		typename _Traits::allocator_type> _Mybase;
; 955  : 
; 956  : 	typedef typename _Traits::allocator_type allocator_type;
; 957  : 	typedef typename _Traits::key_compare key_compare;
; 958  : 
; 959  : 	_Tree_comp(const key_compare& _Parg, const allocator_type& _Al)
; 960  : 		: _Mybase(_Al), comp(_Parg)
; 961  : 		{	// construct ordering predicate
; 962  : 		}
; 963  : 
; 964  : 	key_compare& _Getcomp()
; 965  : 		{	// get reference to ordering predicate
; 966  : 		return (comp);
; 967  : 		}
; 968  : 
; 969  : 	const key_compare& _Getcomp() const
; 970  : 		{	// get reference to ordering predicate
; 971  : 		return (comp);
; 972  : 		}
; 973  : 
; 974  : 	void _Setcomp(const key_compare& _Right)
; 975  : 		{	// copy ordering predicate
; 976  : 		comp = _Right;
; 977  : 		}
; 978  : 
; 979  : 	void _Swapcomp(key_compare& _Right)
; 980  : 		{	// swap ordering predicate
; 981  : 		_Swap_adl(comp, _Right);
; 982  : 		}
; 983  : 
; 984  : 	key_compare comp;
; 985  : 	};
; 986  : 
; 987  : template<class _Traits>
; 988  : 	class _Tree_comp<false, _Traits>
; 989  : 		: public _Tree_buy<typename _Traits::value_type,
; 990  : 			typename _Traits::allocator_type>
; 991  : 	{	// base class for _Tree to hold ordering predicate with no storage
; 992  : public:
; 993  : 	typedef _Tree_comp<false, _Traits> _Myt;
; 994  : 	typedef _Tree_buy<typename _Traits::value_type,
; 995  : 		typename _Traits::allocator_type> _Mybase;
; 996  : 
; 997  : 	typedef typename _Traits::allocator_type allocator_type;
; 998  : 	typedef typename _Traits::key_compare key_compare;
; 999  : 
; 1000 : 	_Tree_comp(const key_compare&, const allocator_type& _Al)
; 1001 : 		: _Mybase(_Al)
; 1002 : 		{	// construct ordering predicate
; 1003 : 		}
; 1004 : 
; 1005 : 	key_compare _Getcomp() const
; 1006 : 		{	// get ordering predicate
; 1007 : 		return (key_compare());
; 1008 : 		}
; 1009 : 
; 1010 : 	void _Setcomp(const key_compare&)
; 1011 : 		{	// copy ordering predicate
; 1012 : 		}
; 1013 : 
; 1014 : 	void _Swapcomp(const key_compare&)
; 1015 : 		{	// swap ordering predicate
; 1016 : 		}
; 1017 : 	};
; 1018 : 
; 1019 : 		// TEMPLATE CLASS _Tree
; 1020 : template<class _Traits>
; 1021 : 	class _Tree
; 1022 : 		: public _Tree_comp<
; 1023 : 			!is_empty<typename _Traits::key_compare>::value, _Traits>
; 1024 : 	{	// ordered red-black tree for [multi_]{map set}
; 1025 : public:
; 1026 : 	typedef _Tree<_Traits> _Myt;
; 1027 : 	typedef _Tree_comp<
; 1028 : 		!is_empty<typename _Traits::key_compare>::value, _Traits> _Mybase;
; 1029 : 
; 1030 : 	typedef typename _Traits::key_type key_type;
; 1031 : 	typedef typename _Traits::value_compare value_compare;
; 1032 : 	enum
; 1033 : 		{	// get multi parameter
; 1034 : 		_Multi = _Traits::_Multi};
; 1035 : 
; 1036 : 	typedef typename _Mybase::_Node _Node;
; 1037 : 	typedef typename _Mybase::_Nodeptr _Nodeptr;
; 1038 : 	typedef typename _Mybase::_Alty _Alty;
; 1039 : 
; 1040 : 	typedef typename _Mybase::key_compare key_compare;
; 1041 : 	typedef typename _Mybase::allocator_type allocator_type;
; 1042 : 
; 1043 : 	typedef typename _Mybase::value_type value_type;
; 1044 : 	typedef typename _Mybase::size_type size_type;
; 1045 : 	typedef typename _Mybase::difference_type difference_type;
; 1046 : 	typedef typename _Mybase::pointer pointer;
; 1047 : 	typedef typename _Mybase::const_pointer const_pointer;
; 1048 : 	typedef typename _Mybase::reference reference;
; 1049 : 	typedef typename _Mybase::const_reference const_reference;
; 1050 : 
; 1051 : 	typedef typename _Mybase::const_iterator const_iterator;
; 1052 : 	typedef typename _If<is_same<key_type, value_type>::value,
; 1053 : 		typename _Mybase::const_iterator,
; 1054 : 		typename _Mybase::iterator>::type iterator;
; 1055 : 
; 1056 : 	typedef _STD reverse_iterator<iterator> reverse_iterator;
; 1057 : 	typedef _STD reverse_iterator<const_iterator> const_reverse_iterator;
; 1058 : 
; 1059 : 	typedef pair<iterator, bool> _Pairib;
; 1060 : 	typedef pair<iterator, iterator> _Pairii;
; 1061 : 	typedef pair<const_iterator, const_iterator> _Paircc;
; 1062 : 
; 1063 : 	_Tree(const key_compare& _Parg,
; 1064 : 		const allocator_type& _Al)
; 1065 : 		: _Mybase(_Parg, _Al)
; 1066 : 		{	// construct empty tree
; 1067 : 		}
; 1068 : 
; 1069 : 	_Tree(const value_type *_First, const value_type *_Last,
; 1070 : 		const key_compare& _Parg, const allocator_type& _Al)
; 1071 : 		: _Mybase(_Parg, _Al)
; 1072 : 		{	// construct tree from [_First, _Last) array
; 1073 : 		_TRY_BEGIN
; 1074 : 		insert(_First, _Last);
; 1075 : 		_CATCH_ALL
; 1076 : 		_Tidy();
; 1077 : 		_RERAISE;
; 1078 : 		_CATCH_END
; 1079 : 		}
; 1080 : 
; 1081 : 	_Tree(const _Myt& _Right, const allocator_type& _Al)
; 1082 : 		: _Mybase(_Right.key_comp(), _Al)
; 1083 : 		{	// construct tree by copying _Right, allocator
; 1084 : 		_TRY_BEGIN
; 1085 : 		_Copy(_Right, false_type());
; 1086 : 		_CATCH_ALL
; 1087 : 		_Tidy();
; 1088 : 		_RERAISE;
; 1089 : 		_CATCH_END
; 1090 : 		}
; 1091 : 
; 1092 : 	_Tree(_Myt&& _Right)
; 1093 : 		: _Mybase(_Right.key_comp(), _Right._Getal())
; 1094 : 		{	// construct tree by moving _Right
; 1095 : 		_Assign_rv(_STD forward<_Myt>(_Right), true_type());
; 1096 : 		}
; 1097 : 
; 1098 : 	_Tree(_Myt&& _Right, const allocator_type& _Al)
; 1099 : 		: _Mybase(_Right.key_comp(), _Al)
; 1100 : 		{	// construct tree by moving _Right, allocator
; 1101 : 		_Assign_rv(_STD forward<_Myt>(_Right));
; 1102 : 		}
; 1103 : 
; 1104 : 	_Myt& operator=(_Myt&& _Right)
; 1105 : 		{	// assign by moving _Right
; 1106 : 		if (this != &_Right)
; 1107 : 			{	// different, move it
; 1108 : 			clear();
; 1109 : 			if (_Alty::propagate_on_container_move_assignment::value
; 1110 : 				&& this->_Getal() != _Right._Getal())
; 1111 : 				this->_Change_alloc(_Right._Getal());
; 1112 : 
; 1113 : 			_Assign_rv(_STD forward<_Myt>(_Right));
; 1114 : 			}
; 1115 : 		return (*this);
; 1116 : 		}
; 1117 : 
; 1118 : 	void _Assign_rv(_Myt&& _Right, true_type)
; 1119 : 		{	// move from _Right, stealing its contents
; 1120 : 		this->_Swap_all(_Right);
; 1121 : 		this->_Swapcomp(_Right._Getcomp());
; 1122 : 		_Swap_adl(this->_Myhead, _Right._Myhead);
; 1123 : 		_STD swap(this->_Mysize, _Right._Mysize);
; 1124 : 		}
; 1125 : 
; 1126 : 	void _Assign_rv(_Myt&& _Right, false_type)
; 1127 : 		{	// move from _Right, possibly moving its contents
; 1128 : 		if (get_allocator() == _Right.get_allocator())
; 1129 : 			_Assign_rv(_STD forward<_Myt>(_Right), true_type());
; 1130 : 		else
; 1131 : 			_Copy(_Right, true_type());
; 1132 : 		}
; 1133 : 
; 1134 : 	void _Assign_rv(_Myt&& _Right)
; 1135 : 		{	// assign by moving _Right
; 1136 : 		_Assign_rv(_STD forward<_Myt>(_Right),
; 1137 : 			typename _Alty::propagate_on_container_move_assignment());
; 1138 : 		}
; 1139 : 
; 1140 : 
; 1141 : 	_Pairib insert(value_type&& _Val)
; 1142 : 		{	// try to insert node with value _Val, favoring right side
; 1143 : 		return (_Insert_nohint(false,
; 1144 : 			_STD forward<value_type>(_Val), _Nil_obj));
; 1145 : 		}
; 1146 : 
; 1147 : 	iterator insert(const_iterator _Where, value_type&& _Val)
; 1148 : 		{	// try to insert node with value _Val using _Where as a hint
; 1149 : 		return (_Insert_hint(_Where,
; 1150 : 			_STD forward<value_type>(_Val), _Nil_obj));
; 1151 : 		}
; 1152 : 
; 1153 : 	template<class _Valty>
; 1154 : 		typename enable_if<is_convertible<_Valty, value_type>::value,
; 1155 : 			_Pairib>::type
; 1156 : 		insert(_Valty&& _Val)
; 1157 : 		{	// try to insert node with value _Val, favoring right side
; 1158 : 		_Nodeptr _Newnode = this->_Buynode(_STD forward<_Valty>(_Val));
; 1159 : 		return (_Insert_nohint(false,
; 1160 : 			this->_Myval(_Newnode), _Newnode));
; 1161 : 		}
; 1162 : 
; 1163 : 	template<class _Valty>
; 1164 : 		typename enable_if<is_convertible<_Valty, value_type>::value,
; 1165 : 			iterator>::type
; 1166 : 		insert(const_iterator _Where, _Valty&& _Val)
; 1167 : 		{	// try to insert node with value _Val using _Where as a hint
; 1168 : 		_Nodeptr _Newnode = this->_Buynode(_STD forward<_Valty>(_Val));
; 1169 : 		return (_Insert_hint(_Where,
; 1170 : 			this->_Myval(_Newnode), _Newnode));
; 1171 : 		}
; 1172 : 
; 1173 : 	template<class... _Valty>
; 1174 : 		_Pairib emplace(_Valty&&... _Val)
; 1175 : 		{	// try to insert value_type(_Val...), favoring right side
; 1176 : 		_Nodeptr _Newnode = this->_Buynode(_STD forward<_Valty>(_Val)...);
; 1177 : 		return (_Insert_nohint(false,
; 1178 : 			this->_Myval(_Newnode), _Newnode));
; 1179 : 		}
; 1180 : 
; 1181 : 	template<class... _Valty>
; 1182 : 		iterator emplace_hint(const_iterator _Where, _Valty&&... _Val)
; 1183 : 		{	// insert value_type(_Val...) at _Where
; 1184 : 		_Nodeptr _Newnode = this->_Buynode(_STD forward<_Valty>(_Val)...);
; 1185 : 		return (_Insert_hint(_Where,
; 1186 : 			this->_Myval(_Newnode), _Newnode));
; 1187 : 		}
; 1188 : 
; 1189 : 
; 1190 : 	~_Tree() _NOEXCEPT
; 1191 : 		{	// destroy tree
; 1192 : 		_Tidy();
; 1193 : 		}
; 1194 : 
; 1195 : 	_Myt& operator=(const _Myt& _Right)
; 1196 : 		{	// replace contents from _Right
; 1197 : 		if (this != &_Right)
; 1198 : 			{	// different, assign it
; 1199 : 			clear();
; 1200 : 			if (this->_Getal() != _Right._Getal()
; 1201 : 				&& _Alty::propagate_on_container_copy_assignment::value)
; 1202 : 				this->_Change_alloc(_Right._Getal());
; 1203 : 
; 1204 : 			this->_Setcomp(_Right._Getcomp());
; 1205 : 			_Copy(_Right, false_type());
; 1206 : 			}
; 1207 : 		return (*this);
; 1208 : 		}
; 1209 : 
; 1210 : 	iterator begin() _NOEXCEPT
; 1211 : 		{	// return iterator for beginning of mutable sequence
; 1212 : 		return (iterator(_Lmost(), this));
; 1213 : 		}
; 1214 : 
; 1215 : 	const_iterator begin() const _NOEXCEPT
; 1216 : 		{	// return iterator for beginning of nonmutable sequence
; 1217 : 		return (const_iterator(_Lmost(), this));
; 1218 : 		}
; 1219 : 
; 1220 : 	iterator end() _NOEXCEPT
; 1221 : 		{	// return iterator for end of mutable sequence
; 1222 : 		return (iterator(this->_Myhead, this));
; 1223 : 		}
; 1224 : 
; 1225 : 	const_iterator end() const _NOEXCEPT
; 1226 : 		{	// return iterator for end of nonmutable sequence
; 1227 : 		return (const_iterator(this->_Myhead, this));
; 1228 : 		}
; 1229 : 
; 1230 : 	reverse_iterator rbegin() _NOEXCEPT
; 1231 : 		{	// return iterator for beginning of reversed mutable sequence
; 1232 : 		return (reverse_iterator(end()));
; 1233 : 		}
; 1234 : 
; 1235 : 	const_reverse_iterator rbegin() const _NOEXCEPT
; 1236 : 		{	// return iterator for beginning of reversed nonmutable sequence
; 1237 : 		return (const_reverse_iterator(end()));
; 1238 : 		}
; 1239 : 
; 1240 : 	reverse_iterator rend() _NOEXCEPT
; 1241 : 		{	// return iterator for end of reversed mutable sequence
; 1242 : 		return (reverse_iterator(begin()));
; 1243 : 		}
; 1244 : 
; 1245 : 	const_reverse_iterator rend() const _NOEXCEPT
; 1246 : 		{	// return iterator for end of reversed nonmutable sequence
; 1247 : 		return (const_reverse_iterator(begin()));
; 1248 : 		}
; 1249 : 
; 1250 : 	const_iterator cbegin() const _NOEXCEPT
; 1251 : 		{	// return iterator for beginning of nonmutable sequence
; 1252 : 		return (((const _Myt *)this)->begin());
; 1253 : 		}
; 1254 : 
; 1255 : 	const_iterator cend() const _NOEXCEPT
; 1256 : 		{	// return iterator for end of nonmutable sequence
; 1257 : 		return (((const _Myt *)this)->end());
; 1258 : 		}
; 1259 : 
; 1260 : 	const_reverse_iterator crbegin() const _NOEXCEPT
; 1261 : 		{	// return iterator for beginning of reversed nonmutable sequence
; 1262 : 		return (((const _Myt *)this)->rbegin());
; 1263 : 		}
; 1264 : 
; 1265 : 	const_reverse_iterator crend() const _NOEXCEPT
; 1266 : 		{	// return iterator for end of reversed nonmutable sequence
; 1267 : 		return (((const _Myt *)this)->rend());
; 1268 : 		}
; 1269 : 
; 1270 : 	size_type size() const _NOEXCEPT
; 1271 : 		{	// return length of sequence
; 1272 : 		return (this->_Mysize);
; 1273 : 		}
; 1274 : 
; 1275 : 	size_type max_size() const _NOEXCEPT
; 1276 : 		{	// return maximum possible length of sequence
; 1277 : 		return (this->_Getal().max_size());
; 1278 : 		}
; 1279 : 
; 1280 : 	bool empty() const _NOEXCEPT
; 1281 : 		{	// return true only if sequence is empty
; 1282 : 		return (size() == 0);
; 1283 : 		}
; 1284 : 
; 1285 : 	allocator_type get_allocator() const _NOEXCEPT
; 1286 : 		{	// return allocator object for values
; 1287 : 		return (this->_Getal());
; 1288 : 		}
; 1289 : 
; 1290 : 	key_compare key_comp() const
; 1291 : 		{	// return object for comparing keys
; 1292 : 		return (this->_Getcomp());
; 1293 : 		}
; 1294 : 
; 1295 : 	value_compare value_comp() const
; 1296 : 		{	// return object for comparing values
; 1297 : 		return (value_compare(key_comp()));
; 1298 : 		}
; 1299 : 
; 1300 : 	_Pairib insert(const value_type& _Val)
; 1301 : 		{	// try to insert node with value _Val, favoring right side
; 1302 : 		return (_Insert_nohint(false,
; 1303 : 			_Val, _Nil_obj));
; 1304 : 		}
; 1305 : 
; 1306 : 	iterator insert(const_iterator _Where,
; 1307 : 		const value_type& _Val)
; 1308 : 		{	// try to insert node with value _Val using _Where as a hint
; 1309 : 		return (_Insert_hint(_Where,
; 1310 : 			_Val, _Nil_obj));
; 1311 : 		}
; 1312 : 
; 1313 : 	template<class _Iter>
; 1314 : 		void insert(_Iter _First, _Iter _Last)
; 1315 : 		{	// insert [_First, _Last) one at a time
; 1316 : 		_DEBUG_RANGE(_First, _Last);
; 1317 : 		for (; _First != _Last; ++_First)
; 1318 : 
; 1319 : 			emplace_hint(end(), *_First);
; 1320 : 		}
; 1321 : 
; 1322 : 	void insert(_XSTD initializer_list<value_type> _Ilist)
; 1323 : 		{	// insert initializer_list
; 1324 : 		insert(_Ilist.begin(), _Ilist.end());
; 1325 : 		}
; 1326 : 
; 1327 : 	iterator erase(const_iterator _Where)
; 1328 : 		{	// erase element at _Where
; 1329 :  #if _ITERATOR_DEBUG_LEVEL == 2
; 1330 : 		if (_Where._Getcont() != this || this->_Isnil(_Where._Mynode()))
; 1331 : 			_DEBUG_ERROR("map/set erase iterator outside range");
; 1332 : 		_Nodeptr _Erasednode = _Where._Mynode();	// node to erase
; 1333 : 		++_Where;	// save successor iterator for return
; 1334 : 		_Orphan_ptr(*this, _Erasednode);
; 1335 : 
; 1336 :  #else /* _ITERATOR_DEBUG_LEVEL == 2 */
; 1337 : 		_Nodeptr _Erasednode = _Where._Mynode();	// node to erase
; 1338 : 		++_Where;	// save successor iterator for return
; 1339 :  #endif /* _ITERATOR_DEBUG_LEVEL == 2 */
; 1340 : 
; 1341 : 		_Nodeptr _Fixnode;	// the node to recolor as needed
; 1342 : 		_Nodeptr _Fixnodeparent;	// parent of _Fixnode (which may be nil)
; 1343 : 		_Nodeptr _Pnode = _Erasednode;
; 1344 : 
; 1345 : 		if (this->_Isnil(this->_Left(_Pnode)))
; 1346 : 			_Fixnode = this->_Right(_Pnode);	// stitch up right subtree
; 1347 : 		else if (this->_Isnil(this->_Right(_Pnode)))
; 1348 : 			_Fixnode = this->_Left(_Pnode);	// stitch up left subtree
; 1349 : 		else
; 1350 : 			{	// two subtrees, must lift successor node to replace erased
; 1351 : 			_Pnode = _Where._Mynode();	// _Pnode is successor node
; 1352 : 			_Fixnode = this->_Right(_Pnode);	// _Fixnode is only subtree
; 1353 : 			}
; 1354 : 
; 1355 : 		if (_Pnode == _Erasednode)
; 1356 : 			{	// at most one subtree, relink it
; 1357 : 			_Fixnodeparent = this->_Parent(_Erasednode);
; 1358 : 			if (!this->_Isnil(_Fixnode))
; 1359 : 				this->_Parent(_Fixnode) = _Fixnodeparent;	// link up
; 1360 : 
; 1361 : 			if (_Root() == _Erasednode)
; 1362 : 				_Root() = _Fixnode;	// link down from root
; 1363 : 			else if (this->_Left(_Fixnodeparent) == _Erasednode)
; 1364 : 				this->_Left(_Fixnodeparent) = _Fixnode;	// link down to left
; 1365 : 			else
; 1366 : 				this->_Right(_Fixnodeparent) =
; 1367 : 					_Fixnode;	// link down to right
; 1368 : 
; 1369 : 			if (_Lmost() == _Erasednode)
; 1370 : 				_Lmost() = this->_Isnil(_Fixnode)
; 1371 : 					? _Fixnodeparent	// smallest is parent of erased node
; 1372 : 					: this->_Min(_Fixnode);	// smallest in relinked subtree
; 1373 : 
; 1374 : 			if (_Rmost() == _Erasednode)
; 1375 : 				_Rmost() = this->_Isnil(_Fixnode)
; 1376 : 					? _Fixnodeparent	// largest is parent of erased node
; 1377 : 					: this->_Max(_Fixnode);	// largest in relinked subtree
; 1378 : 			}
; 1379 : 		else
; 1380 : 			{	// erased has two subtrees, _Pnode is successor to erased
; 1381 : 			this->_Parent(this->_Left(_Erasednode)) =
; 1382 : 				_Pnode;	// link left up
; 1383 : 			this->_Left(_Pnode) =
; 1384 : 				this->_Left(_Erasednode);	// link successor down
; 1385 : 
; 1386 : 			if (_Pnode == this->_Right(_Erasednode))
; 1387 : 				_Fixnodeparent = _Pnode;	// successor is next to erased
; 1388 : 			else
; 1389 : 				{	// successor further down, link in place of erased
; 1390 : 				_Fixnodeparent =
; 1391 : 					this->_Parent(_Pnode);	// parent is successor's
; 1392 : 				if (!this->_Isnil(_Fixnode))
; 1393 : 					this->_Parent(_Fixnode) = _Fixnodeparent;	// link fix up
; 1394 : 				this->_Left(_Fixnodeparent) = _Fixnode;	// link fix down
; 1395 : 				this->_Right(_Pnode) =
; 1396 : 					this->_Right(_Erasednode);	// link next down
; 1397 : 				this->_Parent(this->_Right(_Erasednode)) =
; 1398 : 					_Pnode;	// right up
; 1399 : 				}
; 1400 : 
; 1401 : 			if (_Root() == _Erasednode)
; 1402 : 				_Root() = _Pnode;	// link down from root
; 1403 : 			else if (this->_Left(this->_Parent(_Erasednode)) == _Erasednode)
; 1404 : 				this->_Left(this->_Parent(_Erasednode)) =
; 1405 : 					_Pnode;	// link down to left
; 1406 : 			else
; 1407 : 				this->_Right(this->_Parent(_Erasednode)) =
; 1408 : 					_Pnode;	// link down to right
; 1409 : 
; 1410 : 			this->_Parent(_Pnode) =
; 1411 : 				this->_Parent(_Erasednode);	// link successor up
; 1412 : 			_STD swap(this->_Color(_Pnode),
; 1413 : 				this->_Color(_Erasednode));	// recolor it
; 1414 : 			}
; 1415 : 
; 1416 : 		if (this->_Color(_Erasednode) == this->_Black)
; 1417 : 			{	// erasing black link, must recolor/rebalance tree
; 1418 : 			for (; _Fixnode != _Root()
; 1419 : 				&& this->_Color(_Fixnode) == this->_Black;
; 1420 : 				_Fixnodeparent = this->_Parent(_Fixnode))
; 1421 : 				if (_Fixnode == this->_Left(_Fixnodeparent))
; 1422 : 					{	// fixup left subtree
; 1423 : 					_Pnode = this->_Right(_Fixnodeparent);
; 1424 : 					if (this->_Color(_Pnode) == this->_Red)
; 1425 : 						{	// rotate red up from right subtree
; 1426 : 						this->_Color(_Pnode) = this->_Black;
; 1427 : 						this->_Color(_Fixnodeparent) = this->_Red;
; 1428 : 						_Lrotate(_Fixnodeparent);
; 1429 : 						_Pnode = this->_Right(_Fixnodeparent);
; 1430 : 						}
; 1431 : 
; 1432 : 					if (this->_Isnil(_Pnode))
; 1433 : 						_Fixnode = _Fixnodeparent;	// shouldn't happen
; 1434 : 					else if (this->_Color(this->_Left(_Pnode)) == this->_Black
; 1435 : 						&& this->_Color(this->_Right(_Pnode)) == this->_Black)
; 1436 : 						{	// redden right subtree with black children
; 1437 : 						this->_Color(_Pnode) = this->_Red;
; 1438 : 						_Fixnode = _Fixnodeparent;
; 1439 : 						}
; 1440 : 					else
; 1441 : 						{	// must rearrange right subtree
; 1442 : 						if (this->_Color(this->_Right(_Pnode))
; 1443 : 							== this->_Black)
; 1444 : 							{	// rotate red up from left sub-subtree
; 1445 : 							this->_Color(this->_Left(_Pnode)) = this->_Black;
; 1446 : 							this->_Color(_Pnode) = this->_Red;
; 1447 : 							_Rrotate(_Pnode);
; 1448 : 							_Pnode = this->_Right(_Fixnodeparent);
; 1449 : 							}
; 1450 : 
; 1451 : 						this->_Color(_Pnode) = this->_Color(_Fixnodeparent);
; 1452 : 						this->_Color(_Fixnodeparent) = this->_Black;
; 1453 : 						this->_Color(this->_Right(_Pnode)) = this->_Black;
; 1454 : 						_Lrotate(_Fixnodeparent);
; 1455 : 						break;	// tree now recolored/rebalanced
; 1456 : 						}
; 1457 : 					}
; 1458 : 				else
; 1459 : 					{	// fixup right subtree
; 1460 : 					_Pnode = this->_Left(_Fixnodeparent);
; 1461 : 					if (this->_Color(_Pnode) == this->_Red)
; 1462 : 						{	// rotate red up from left subtree
; 1463 : 						this->_Color(_Pnode) = this->_Black;
; 1464 : 						this->_Color(_Fixnodeparent) = this->_Red;
; 1465 : 						_Rrotate(_Fixnodeparent);
; 1466 : 						_Pnode = this->_Left(_Fixnodeparent);
; 1467 : 						}
; 1468 : 
; 1469 : 					if (this->_Isnil(_Pnode))
; 1470 : 						_Fixnode = _Fixnodeparent;	// shouldn't happen
; 1471 : 					else if (this->_Color(this->_Right(_Pnode)) ==
; 1472 : 						this->_Black
; 1473 : 						&& this->_Color(this->_Left(_Pnode)) == this->_Black)
; 1474 : 						{	// redden left subtree with black children
; 1475 : 						this->_Color(_Pnode) = this->_Red;
; 1476 : 						_Fixnode = _Fixnodeparent;
; 1477 : 						}
; 1478 : 					else
; 1479 : 						{	// must rearrange left subtree
; 1480 : 						if (this->_Color(this->_Left(_Pnode)) == this->_Black)
; 1481 : 							{	// rotate red up from right sub-subtree
; 1482 : 							this->_Color(this->_Right(_Pnode)) = this->_Black;
; 1483 : 							this->_Color(_Pnode) = this->_Red;
; 1484 : 							_Lrotate(_Pnode);
; 1485 : 							_Pnode = this->_Left(_Fixnodeparent);
; 1486 : 							}
; 1487 : 
; 1488 : 						this->_Color(_Pnode) = this->_Color(_Fixnodeparent);
; 1489 : 						this->_Color(_Fixnodeparent) = this->_Black;
; 1490 : 						this->_Color(this->_Left(_Pnode)) = this->_Black;
; 1491 : 						_Rrotate(_Fixnodeparent);
; 1492 : 						break;	// tree now recolored/rebalanced
; 1493 : 						}
; 1494 : 					}
; 1495 : 
; 1496 : 			this->_Color(_Fixnode) = this->_Black;	// stopping node is black
; 1497 : 			}
; 1498 : 
; 1499 : 		this->_Getal().destroy(
; 1500 : 			_STD addressof(this->_Myval(_Erasednode)));	// delete erased node
; 1501 : 
; 1502 : 		this->_Getal().deallocate(_Erasednode, 1);
; 1503 : 
; 1504 : 		if (0 < this->_Mysize)
; 1505 : 			--this->_Mysize;
; 1506 : 
; 1507 : 		return (iterator(_Where._Ptr, this));	// return successor iterator
; 1508 : 		}
; 1509 : 
; 1510 : 	iterator erase(const_iterator _First, const_iterator _Last)
; 1511 : 		{	// erase [_First, _Last)
; 1512 : 		if (_First == begin() && _Last == end())
; 1513 : 			{	// erase all
; 1514 : 			clear();
; 1515 : 			return (begin());
; 1516 : 			}
; 1517 : 		else
; 1518 : 			{	// partial erase, one at a time
; 1519 : 			while (_First != _Last)
; 1520 : 				erase(_First++);
; 1521 : 			return (iterator(_First._Ptr, this));
; 1522 : 			}
; 1523 : 		}
; 1524 : 
; 1525 : 	size_type erase(const key_type& _Keyval)
; 1526 : 		{	// erase and count all that match _Keyval
; 1527 : 		_Pairii _Where = equal_range(_Keyval);
; 1528 : 		size_type _Num = 0;
; 1529 : 		_Distance(_Where.first, _Where.second, _Num);
; 1530 : 		erase(_Where.first, _Where.second);
; 1531 : 		return (_Num);
; 1532 : 		}
; 1533 : 
; 1534 : 	void clear() _NOEXCEPT
; 1535 : 		{	// erase all
; 1536 :  #if _ITERATOR_DEBUG_LEVEL == 2
; 1537 : 		this->_Orphan_ptr(*this, 0);
; 1538 :  #endif /* _ITERATOR_DEBUG_LEVEL == 2 */
; 1539 : 
; 1540 : 		_Erase(_Root());
; 1541 : 		_Root() = this->_Myhead;
; 1542 : 		_Lmost() = this->_Myhead;
; 1543 : 		_Rmost() = this->_Myhead;
; 1544 : 		this->_Mysize = 0;
; 1545 : 		}
; 1546 : 
; 1547 : 	iterator find(const key_type& _Keyval)
; 1548 : 		{	// find an element in mutable sequence that matches _Keyval
; 1549 : 		iterator _Where = lower_bound(_Keyval);
; 1550 : 		return (_Where == end()
; 1551 : 			|| _DEBUG_LT_PRED(this->_Getcomp(),
; 1552 : 				_Keyval, this->_Key(_Where._Mynode()))
; 1553 : 					? end() : _Where);
; 1554 : 		}
; 1555 : 
; 1556 : 	const_iterator find(const key_type& _Keyval) const
; 1557 : 		{	// find an element in nonmutable sequence that matches _Keyval
; 1558 : 		const_iterator _Where = lower_bound(_Keyval);
; 1559 : 		return (_Where == end()
; 1560 : 			|| _DEBUG_LT_PRED(this->_Getcomp(),
; 1561 : 				_Keyval, this->_Key(_Where._Mynode()))
; 1562 : 					? end() : _Where);
; 1563 : 		}
; 1564 : 
; 1565 : 	size_type count(const key_type& _Keyval) const
; 1566 : 		{	// count all elements that match _Keyval
; 1567 : 		_Paircc _Ans = equal_range(_Keyval);
; 1568 : 		size_type _Num = 0;
; 1569 : 		_Distance(_Ans.first, _Ans.second, _Num);
; 1570 : 		return (_Num);
; 1571 : 		}
; 1572 : 
; 1573 : 	iterator lower_bound(const key_type& _Keyval)
; 1574 : 		{	// find leftmost node not less than _Keyval in mutable tree
; 1575 : 		return (iterator(_Lbound(_Keyval), this));
; 1576 : 		}
; 1577 : 
; 1578 : 	const_iterator lower_bound(const key_type& _Keyval) const
; 1579 : 		{	// find leftmost node not less than _Keyval in nonmutable tree
; 1580 : 		return (const_iterator(_Lbound(_Keyval), this));
; 1581 : 		}
; 1582 : 
; 1583 : 	iterator upper_bound(const key_type& _Keyval)
; 1584 : 		{	// find leftmost node greater than _Keyval in mutable tree
; 1585 : 		return (iterator(_Ubound(_Keyval), this));
; 1586 : 		}
; 1587 : 
; 1588 : 	const_iterator upper_bound(const key_type& _Keyval) const
; 1589 : 		{	// find leftmost node greater than _Keyval in nonmutable tree
; 1590 : 		return (const_iterator(_Ubound(_Keyval), this));
; 1591 : 		}
; 1592 : 
; 1593 : 	_Pairii equal_range(const key_type& _Keyval)
; 1594 : 		{	// find range equivalent to _Keyval in mutable tree
; 1595 : 		return (_Eqrange(_Keyval));
; 1596 : 		}
; 1597 : 
; 1598 : 	_Paircc equal_range(const key_type& _Keyval) const
; 1599 : 		{	// find range equivalent to _Keyval in nonmutable tree
; 1600 : 		return (_Eqrange(_Keyval));
; 1601 : 		}
; 1602 : 
; 1603 : 	void swap(_Myt& _Right)
; 1604 : 		{	// exchange contents with _Right
; 1605 : 		if (this == &_Right)
; 1606 : 			;	// same object, do nothing
; 1607 : 		else if (this->_Getal() == _Right._Getal())
; 1608 : 			{	// same allocator, swap control information
; 1609 : 			this->_Swap_all(_Right);
; 1610 : 			this->_Swapcomp(_Right._Getcomp());
; 1611 : 			_Swap_adl(this->_Myhead, _Right._Myhead);
; 1612 : 			_STD swap(this->_Mysize, _Right._Mysize);
; 1613 : 			}
; 1614 : 
; 1615 : 		else if (_Alty::propagate_on_container_swap::value)
; 1616 : 			{	// swap allocators and control information
; 1617 : 			this->_Swap_alloc(_Right);
; 1618 : 			this->_Swapcomp(_Right._Getcomp());
; 1619 : 			_Swap_adl(this->_Myhead, _Right._Myhead);
; 1620 : 			_STD swap(this->_Mysize, _Right._Mysize);
; 1621 : 			}
; 1622 : 
; 1623 : 		else
; 1624 : 			{	// containers are incompatible
; 1625 :  #if _ITERATOR_DEBUG_LEVEL == 2
; 1626 : 			_DEBUG_ERROR("map/set containers incompatible for swap");
; 1627 : 
; 1628 :  #else /* ITERATOR_DEBUG_LEVEL == 2 */
; 1629 : 			_XSTD terminate();
; 1630 :  #endif /* ITERATOR_DEBUG_LEVEL == 2 */
; 1631 : 			}
; 1632 : 		}
; 1633 : 
; 1634 : protected:
; 1635 : 	template<class _Valty>
; 1636 : 		_Nodeptr _Buynode_if_nil(_Nodeptr _Node, _Valty&&)
; 1637 : 		{	// node exists, just return it
; 1638 : 		return (_Node);
; 1639 : 		}
; 1640 : 
; 1641 : 	template<class _Valty>
; 1642 : 		_Nodeptr _Buynode_if_nil(_Nil, _Valty&& _Val)
; 1643 : 		{	// node doesn't exist, make it
; 1644 : 		return (this->_Buynode(_STD forward<_Valty>(_Val)));

	mov	r9, rax

; 1846 : 
; 1847 : 		if (_Wherenode == this->_Myhead)

	cmp	rdi, rcx
	jne	SHORT $LN16@Insert_at

; 1848 : 			{	// first node in tree, just set head values
; 1849 : 			_Root() = _Newnode;

	mov	QWORD PTR [rcx+8], rax

; 585  : 		}
; 586  : 
; 587  : 	static _Nodepref _Left(_Nodeptr _Pnode)
; 588  : 		{	// return reference to left pointer in node
; 589  : 		return ((_Nodepref)_Pnode->_Left);

	mov	rcx, QWORD PTR [rbx]

; 1850 : 			_Lmost() = _Newnode;

	mov	QWORD PTR [rcx], rax

; 1851 : 			_Rmost() = _Newnode;

	mov	rcx, QWORD PTR [rbx]
	mov	QWORD PTR [rcx+16], rax
	jmp	SHORT $LN11@Insert_at
$LN16@Insert_at:

; 1852 : 			}
; 1853 : 		else if (_Addleft)

	test	sil, sil
	je	SHORT $LN14@Insert_at

; 1854 : 			{	// add to left of _Wherenode
; 1855 : 			this->_Left(_Wherenode) = _Newnode;

	mov	QWORD PTR [rdi], rax

; 585  : 		}
; 586  : 
; 587  : 	static _Nodepref _Left(_Nodeptr _Pnode)
; 588  : 		{	// return reference to left pointer in node
; 589  : 		return ((_Nodepref)_Pnode->_Left);

	mov	rax, QWORD PTR [rbx]

; 1856 : 			if (_Wherenode == _Lmost())

	cmp	rdi, QWORD PTR [rax]
	jne	SHORT $LN11@Insert_at

; 1857 : 				_Lmost() = _Newnode;

	mov	QWORD PTR [rax], r9

; 1858 : 			}
; 1859 : 		else

	jmp	SHORT $LN11@Insert_at
$LN14@Insert_at:

; 1860 : 			{	// add to right of _Wherenode
; 1861 : 			this->_Right(_Wherenode) = _Newnode;

	mov	QWORD PTR [rdi+16], rax

; 595  : 		}
; 596  : 
; 597  : 	static _Nodepref _Right(_Nodeptr _Pnode)
; 598  : 		{	// return reference to right pointer in node
; 599  : 		return ((_Nodepref)_Pnode->_Right);

	mov	rax, QWORD PTR [rbx]

; 1862 : 			if (_Wherenode == _Rmost())

	cmp	rdi, QWORD PTR [rax+16]
	jne	SHORT $LN11@Insert_at

; 1863 : 				_Rmost() = _Newnode;

	mov	QWORD PTR [rax+16], r9
$LN11@Insert_at:

; 1864 : 			}
; 1865 : 
; 1866 : 		for (_Nodeptr _Pnode = _Newnode;
; 1867 : 			this->_Color(this->_Parent(_Pnode)) == this->_Red; )

	mov	rcx, QWORD PTR [r9+8]
	mov	rax, r9
	cmp	BYTE PTR [rcx+24], 0
	jne	$LN9@Insert_at
	npad	9
$LL10@Insert_at:

; 590  : 		}
; 591  : 
; 592  : 	static _Nodepref _Parent(_Nodeptr _Pnode)
; 593  : 		{	// return reference to parent pointer in node
; 594  : 		return ((_Nodepref)_Pnode->_Parent);

	mov	rcx, QWORD PTR [rax+8]

; 585  : 		}
; 586  : 
; 587  : 	static _Nodepref _Left(_Nodeptr _Pnode)
; 588  : 		{	// return reference to left pointer in node
; 589  : 		return ((_Nodepref)_Pnode->_Left);

	mov	r8, QWORD PTR [rcx+8]

; 1868 : 			if (this->_Parent(_Pnode)
; 1869 : 				== this->_Left(this->_Parent(this->_Parent(_Pnode))))

	mov	rdx, QWORD PTR [r8]
	cmp	rcx, rdx
	jne	$LN8@Insert_at

; 1870 : 				{	// fixup red-red in left subtree
; 1871 : 				_Wherenode =
; 1872 : 					this->_Right(this->_Parent(this->_Parent(_Pnode)));

	mov	rdx, QWORD PTR [r8+16]

; 1873 : 				if (this->_Color(_Wherenode) == this->_Red)

	cmp	BYTE PTR [rdx+24], 0
	jne	SHORT $LN7@Insert_at

; 1874 : 					{	// parent has two red children, blacken both
; 1875 : 					this->_Color(this->_Parent(_Pnode)) = this->_Black;

	mov	BYTE PTR [rcx+24], 1

; 1876 : 					this->_Color(_Wherenode) = this->_Black;

	mov	BYTE PTR [rdx+24], 1

; 1877 : 					this->_Color(this->_Parent(this->_Parent(_Pnode)))
; 1878 : 						= this->_Red;

	mov	rcx, QWORD PTR [rax+8]
	mov	rdx, QWORD PTR [rcx+8]
	mov	BYTE PTR [rdx+24], 0

; 1879 : 					_Pnode = this->_Parent(this->_Parent(_Pnode));

	mov	rcx, QWORD PTR [rax+8]
	mov	rax, QWORD PTR [rcx+8]

; 1880 : 					}
; 1881 : 				else

	jmp	$LN324@Insert_at
$LN7@Insert_at:

; 1882 : 					{	// parent has red and black children
; 1883 : 					if (_Pnode == this->_Right(this->_Parent(_Pnode)))

	cmp	rax, QWORD PTR [rcx+16]
	jne	SHORT $LN119@Insert_at

; 1925 : 
; 1926 : 	template<class _Moveit>
; 1927 : 		void _Copy(const _Myt& _Right,
; 1928 : 			_Moveit _Movefl)
; 1929 : 		{	// copy or move entire tree from _Right
; 1930 : 		_Root() = _Copy_nodes(_Right._Root(), this->_Myhead, _Movefl);
; 1931 : 		this->_Mysize = _Right.size();
; 1932 : 		if (!this->_Isnil(_Root()))
; 1933 : 			{	// nonempty tree, look for new smallest and largest
; 1934 : 			_Lmost() = this->_Min(_Root());
; 1935 : 			_Rmost() = this->_Max(_Root());
; 1936 : 			}
; 1937 : 		else
; 1938 : 			{	// empty tree, just tidy head pointers
; 1939 : 			_Lmost() = this->_Myhead;
; 1940 : 			_Rmost() = this->_Myhead;
; 1941 : 			}
; 1942 : 		}
; 1943 : 
; 1944 : 	template<class _Want_to_move,
; 1945 : 		class _Can_move,
; 1946 : 		class _Is_set,
; 1947 : 		class _Dummy>
; 1948 : 		_Nodeptr _Copy_or_move(_Nodeptr _Rootnode, _Want_to_move,
; 1949 : 			_Can_move, _Is_set, _Dummy)
; 1950 : 		{	// copy to new node -- nonmovable
; 1951 : 		return (this->_Buynode(this->_Myval(_Rootnode)));
; 1952 : 		}
; 1953 : 
; 1954 : 	template<class _Dummy>
; 1955 : 		_Nodeptr _Copy_or_move(_Nodeptr _Rootnode, true_type,
; 1956 : 			true_type, true_type, _Dummy)
; 1957 : 		{	// move to new node -- movable, set
; 1958 : 		return (this->_Buynode(
; 1959 : 			_STD forward<value_type>(this->_Myval(_Rootnode))));
; 1960 : 		}
; 1961 : 
; 1962 : 	template<class _Dummy>
; 1963 : 		_Nodeptr _Copy_or_move(_Nodeptr _Rootnode, true_type,
; 1964 : 			true_type, false_type, _Dummy)
; 1965 : 		{	// move to new node -- movable, map
; 1966 : 		return (this->_Buynode(
; 1967 : 			_STD forward<key_type>(const_cast<key_type&>(
; 1968 : 				this->_Myval(_Rootnode).first)),
; 1969 : 			_STD forward<typename value_type::second_type>(this->_Myval(
; 1970 : 				_Rootnode).second)));
; 1971 : 		}
; 1972 : 
; 1973 : 	template<class _Moveit>
; 1974 : 		_Nodeptr _Copy_nodes(_Nodeptr _Rootnode, _Nodeptr _Wherenode,
; 1975 : 			_Moveit _Movefl)
; 1976 : 		{	// copy entire subtree, recursively
; 1977 : 		_Nodeptr _Newroot = this->_Myhead;	// point at nil node
; 1978 : 
; 1979 : 		if (!this->_Isnil(_Rootnode))
; 1980 : 			{	// copy or move a node, then any subtrees
; 1981 : 			_Nodeptr _Pnode = _Copy_or_move(_Rootnode, _Movefl,
; 1982 : 				typename is_move_constructible<value_type>::type(),
; 1983 : 				typename is_same<key_type, value_type>::type(), 0);
; 1984 : 			_Pnode->_Parent = _Wherenode;
; 1985 : 			_Pnode->_Color = this->_Color(_Rootnode);
; 1986 : 			if (this->_Isnil(_Newroot))
; 1987 : 				_Newroot = _Pnode;	// memorize new root
; 1988 : 
; 1989 : 			_TRY_BEGIN
; 1990 : 			this->_Left(_Pnode) =
; 1991 : 				_Copy_nodes(this->_Left(_Rootnode), _Pnode, _Movefl);
; 1992 : 			this->_Right(_Pnode) =
; 1993 : 				_Copy_nodes(this->_Right(_Rootnode), _Pnode, _Movefl);
; 1994 : 			_CATCH_ALL
; 1995 : 			_Erase(_Newroot);	// subtree copy failed, bail out
; 1996 : 			_RERAISE;
; 1997 : 			_CATCH_END
; 1998 : 			}
; 1999 : 
; 2000 : 		return (_Newroot);	// return newly constructed tree
; 2001 : 		}
; 2002 : 
; 2003 : 	_Paircc _Eqrange(const key_type& _Keyval) const
; 2004 : 		{	// find leftmost node not less than _Keyval
; 2005 : 		_Nodeptr _Pnode = _Root();
; 2006 : 		_Nodeptr _Lonode = this->_Myhead;	// end() if search fails
; 2007 : 		_Nodeptr _Hinode = this->_Myhead;	// end() if search fails
; 2008 : 
; 2009 : 		while (!this->_Isnil(_Pnode))
; 2010 : 			if (_DEBUG_LT_PRED(this->_Getcomp(), this->_Key(_Pnode), _Keyval))
; 2011 : 				_Pnode = this->_Right(_Pnode);	// descend right subtree
; 2012 : 			else
; 2013 : 				{	// _Pnode not less than _Keyval, remember it
; 2014 : 				if (this->_Isnil(_Hinode)
; 2015 : 						&& _DEBUG_LT_PRED(this->_Getcomp(), _Keyval,
; 2016 : 						this->_Key(_Pnode)))
; 2017 : 					_Hinode = _Pnode;	// _Pnode greater, remember it
; 2018 : 				_Lonode = _Pnode;
; 2019 : 				_Pnode = this->_Left(_Pnode);	// descend left subtree
; 2020 : 				}
; 2021 : 
; 2022 : 		_Pnode = this->_Isnil(_Hinode) ? _Root()
; 2023 : 			: this->_Left(_Hinode);	// continue scan for upper bound
; 2024 : 		while (!this->_Isnil(_Pnode))
; 2025 : 			if (_DEBUG_LT_PRED(this->_Getcomp(), _Keyval, this->_Key(_Pnode)))
; 2026 : 				{	// _Pnode greater than _Keyval, remember it
; 2027 : 				_Hinode = _Pnode;
; 2028 : 				_Pnode = this->_Left(_Pnode);	// descend left subtree
; 2029 : 				}
; 2030 : 			else
; 2031 : 				_Pnode = this->_Right(_Pnode);	// descend right subtree
; 2032 : 
; 2033 : 		const_iterator _First = const_iterator(_Lonode, this);
; 2034 : 		const_iterator _Last = const_iterator(_Hinode, this);
; 2035 : 		return (_Paircc(_First, _Last));
; 2036 : 		}
; 2037 : 
; 2038 : 	_Pairii _Eqrange(const key_type& _Keyval)
; 2039 : 		{	// find leftmost node not less than _Keyval
; 2040 : 		_Nodeptr _Pnode = _Root();
; 2041 : 		_Nodeptr _Lonode = this->_Myhead;	// end() if search fails
; 2042 : 		_Nodeptr _Hinode = this->_Myhead;	// end() if search fails
; 2043 : 
; 2044 : 		while (!this->_Isnil(_Pnode))
; 2045 : 			if (_DEBUG_LT_PRED(this->_Getcomp(), this->_Key(_Pnode), _Keyval))
; 2046 : 				_Pnode = this->_Right(_Pnode);	// descend right subtree
; 2047 : 			else
; 2048 : 				{	// _Pnode not less than _Keyval, remember it
; 2049 : 				if (this->_Isnil(_Hinode)
; 2050 : 						&& _DEBUG_LT_PRED(this->_Getcomp(), _Keyval,
; 2051 : 						 this->_Key(_Pnode)))
; 2052 : 					_Hinode = _Pnode;	// _Pnode greater, remember it
; 2053 : 				_Lonode = _Pnode;
; 2054 : 				_Pnode = this->_Left(_Pnode);	// descend left subtree
; 2055 : 				}
; 2056 : 
; 2057 : 		_Pnode = this->_Isnil(_Hinode) ? _Root()
; 2058 : 			: this->_Left(_Hinode);	// continue scan for upper bound
; 2059 : 		while (!this->_Isnil(_Pnode))
; 2060 : 			if (_DEBUG_LT_PRED(this->_Getcomp(), _Keyval, this->_Key(_Pnode)))
; 2061 : 				{	// _Pnode greater than _Keyval, remember it
; 2062 : 				_Hinode = _Pnode;
; 2063 : 				_Pnode = this->_Left(_Pnode);	// descend left subtree
; 2064 : 				}
; 2065 : 			else
; 2066 : 				_Pnode = this->_Right(_Pnode);	// descend right subtree
; 2067 : 
; 2068 : 		iterator _First = iterator(_Lonode, this);
; 2069 : 		iterator _Last = iterator(_Hinode, this);
; 2070 : 		return (_Pairii(_First, _Last));
; 2071 : 		}
; 2072 : 
; 2073 : 	void _Erase(_Nodeptr _Rootnode)
; 2074 : 		{	// free entire subtree, recursively
; 2075 : 		for (_Nodeptr _Pnode = _Rootnode;
; 2076 : 			!this->_Isnil(_Pnode); _Rootnode = _Pnode)
; 2077 : 			{	// free subtrees, then node
; 2078 : 			_Erase(this->_Right(_Pnode));
; 2079 : 			_Pnode = this->_Left(_Pnode);
; 2080 : 			this->_Getal().destroy(
; 2081 : 				_STD addressof(this->_Myval(_Rootnode)));
; 2082 : 
; 2083 : 			this->_Getal().deallocate(_Rootnode, 1);
; 2084 : 			}
; 2085 : 		}
; 2086 : 
; 2087 : 	_Nodeptr _Lbound(const key_type& _Keyval) const
; 2088 : 		{	// find leftmost node not less than _Keyval
; 2089 : 		_Nodeptr _Pnode = _Root();
; 2090 : 		_Nodeptr _Wherenode = this->_Myhead;	// end() if search fails
; 2091 : 
; 2092 : 		while (!this->_Isnil(_Pnode))
; 2093 : 			if (_DEBUG_LT_PRED(this->_Getcomp(), this->_Key(_Pnode), _Keyval))
; 2094 : 				_Pnode = this->_Right(_Pnode);	// descend right subtree
; 2095 : 			else
; 2096 : 				{	// _Pnode not less than _Keyval, remember it
; 2097 : 				_Wherenode = _Pnode;
; 2098 : 				_Pnode = this->_Left(_Pnode);	// descend left subtree
; 2099 : 				}
; 2100 : 
; 2101 : 		return (_Wherenode);	// return best remembered candidate
; 2102 : 		}
; 2103 : 
; 2104 : 	_Nodeptr _Lbound(const key_type& _Keyval)
; 2105 : 		{	// find leftmost node not less than _Keyval
; 2106 : 		_Nodeptr _Pnode = _Root();
; 2107 : 		_Nodeptr _Wherenode = this->_Myhead;	// end() if search fails
; 2108 : 
; 2109 : 		while (!this->_Isnil(_Pnode))
; 2110 : 			if (_DEBUG_LT_PRED(this->_Getcomp(), this->_Key(_Pnode), _Keyval))
; 2111 : 				_Pnode = this->_Right(_Pnode);	// descend right subtree
; 2112 : 			else
; 2113 : 				{	// _Pnode not less than _Keyval, remember it
; 2114 : 				_Wherenode = _Pnode;
; 2115 : 				_Pnode = this->_Left(_Pnode);	// descend left subtree
; 2116 : 				}
; 2117 : 
; 2118 : 		return (_Wherenode);	// return best remembered candidate
; 2119 : 		}
; 2120 : 
; 2121 : 	_Nodeptr& _Lmost() const
; 2122 : 		{	// return leftmost node in nonmutable tree
; 2123 : 		return (this->_Left(this->_Myhead));
; 2124 : 		}
; 2125 : 
; 2126 : 	void _Lrotate(_Nodeptr _Wherenode)
; 2127 : 		{	// promote right node to root of subtree
; 2128 : 		_Nodeptr _Pnode = this->_Right(_Wherenode);

	mov	rdx, QWORD PTR [rcx+16]

; 1884 : 						{	// rotate right child to left
; 1885 : 						_Pnode = this->_Parent(_Pnode);

	mov	rax, rcx

; 2129 : 		this->_Right(_Wherenode) = this->_Left(_Pnode);

	mov	rcx, QWORD PTR [rdx]
	mov	QWORD PTR [rax+16], rcx

; 45   : 		this->_Adopt(_Plist);
; 46   : 		}
; 47   : 
; 48   : 	reference operator*() const
; 49   : 		{	// return designated value
; 50   : 		return (_Mytree::_Myval(_Ptr));
; 51   : 		}
; 52   : 
; 53   : 	pointer operator->() const
; 54   : 		{	// return pointer to class object
; 55   : 		return (_STD pointer_traits<pointer>::pointer_to(**this));
; 56   : 		}
; 57   : 
; 58   : 	_Myiter& operator++()
; 59   : 		{	// preincrement
; 60   : 		if (_Mytree::_Isnil(_Ptr))
; 61   : 			;	// end() shouldn't be incremented, don't move
; 62   : 		else if (!_Mytree::_Isnil(_Mytree::_Right(_Ptr)))
; 63   : 			_Ptr = _Mytree::_Min(
; 64   : 				_Mytree::_Right(_Ptr));	// ==> smallest of right subtree
; 65   : 		else
; 66   : 			{	// climb looking for right subtree
; 67   : 			_Nodeptr _Pnode;
; 68   : 			while (!_Mytree::_Isnil(_Pnode = _Mytree::_Parent(_Ptr))
; 69   : 				&& _Ptr == _Mytree::_Right(_Pnode))
; 70   : 				_Ptr = _Pnode;	// ==> parent while right subtree
; 71   : 			_Ptr = _Pnode;	// ==> parent (head if end())
; 72   : 			}
; 73   : 		return (*this);
; 74   : 		}
; 75   : 
; 76   : 	_Myiter operator++(int)
; 77   : 		{	// postincrement
; 78   : 		_Myiter _Tmp = *this;
; 79   : 		++*this;
; 80   : 		return (_Tmp);
; 81   : 		}
; 82   : 
; 83   : 	_Myiter& operator--()
; 84   : 		{	// predecrement
; 85   : 		if (_Mytree::_Isnil(_Ptr))
; 86   : 			_Ptr = _Mytree::_Right(_Ptr);	// end() ==> rightmost
; 87   : 		else if (!_Mytree::_Isnil(_Mytree::_Left(_Ptr)))
; 88   : 			_Ptr = _Mytree::_Max(
; 89   : 				_Mytree::_Left(_Ptr));	// ==> largest of left subtree
; 90   : 		else
; 91   : 			{	// climb looking for left subtree
; 92   : 			_Nodeptr _Pnode;
; 93   : 			while (!_Mytree::_Isnil(_Pnode = _Mytree::_Parent(_Ptr))
; 94   : 				&& _Ptr == _Mytree::_Left(_Pnode))
; 95   : 				_Ptr = _Pnode;	// ==> parent while left subtree
; 96   : 			if (_Mytree::_Isnil(_Ptr))
; 97   : 				;	// begin() shouldn't be decremented, don't move
; 98   : 			else
; 99   : 				_Ptr = _Pnode;	// ==> parent if not head
; 100  : 			}
; 101  : 		return (*this);
; 102  : 		}
; 103  : 
; 104  : 	_Myiter operator--(int)
; 105  : 		{	// postdecrement
; 106  : 		_Myiter _Tmp = *this;
; 107  : 		--*this;
; 108  : 		return (_Tmp);
; 109  : 		}
; 110  : 
; 111  : 	bool operator==(const _Myiter& _Right) const
; 112  : 		{	// test for iterator equality
; 113  : 		return (_Ptr == _Right._Ptr);
; 114  : 		}
; 115  : 
; 116  : 	bool operator!=(const _Myiter& _Right) const
; 117  : 		{	// test for iterator inequality
; 118  : 		return (!(*this == _Right));
; 119  : 		}
; 120  : 
; 121  : 	_Nodeptr _Mynode() const
; 122  : 		{	// return node pointer
; 123  : 		return (_Ptr);
; 124  : 		}
; 125  : 
; 126  : 	_Nodeptr _Ptr;	// pointer to node
; 127  : 	};
; 128  : 
; 129  : 	// TEMPLATE CLASS _Tree_unchecked_iterator
; 130  : template<class _Mytree>
; 131  : 	class _Tree_unchecked_iterator
; 132  : 		: public _Tree_unchecked_const_iterator<_Mytree>
; 133  : 	{	// unchecked iterator for mutable tree
; 134  : public:
; 135  : 	typedef _Tree_unchecked_iterator<_Mytree> _Myiter;
; 136  : 	typedef _Tree_unchecked_const_iterator<_Mytree> _Mybase;
; 137  : 	typedef bidirectional_iterator_tag iterator_category;
; 138  : 
; 139  : 	typedef typename _Mytree::_Nodeptr _Nodeptr;
; 140  : 	typedef typename _Mytree::value_type value_type;
; 141  : 	typedef typename _Mytree::difference_type difference_type;
; 142  : 	typedef typename _Mytree::pointer pointer;
; 143  : 	typedef typename _Mytree::reference reference;
; 144  : 
; 145  : 	_Tree_unchecked_iterator()
; 146  : 		{	// construct with null node
; 147  : 		}
; 148  : 
; 149  : 	_Tree_unchecked_iterator(_Nodeptr _Pnode, const _Mytree *_Plist)
; 150  : 		: _Mybase(_Pnode, _Plist)
; 151  : 		{	// construct with node pointer _Pnode
; 152  : 		}
; 153  : 
; 154  : 	reference operator*() const
; 155  : 		{	// return designated value
; 156  : 		return ((reference)**(_Mybase *)this);
; 157  : 		}
; 158  : 
; 159  : 	pointer operator->() const
; 160  : 		{	// return pointer to class object
; 161  : 		return (_STD pointer_traits<pointer>::pointer_to(**this));
; 162  : 		}
; 163  : 
; 164  : 	_Myiter& operator++()
; 165  : 		{	// preincrement
; 166  : 		++(*(_Mybase *)this);
; 167  : 		return (*this);
; 168  : 		}
; 169  : 
; 170  : 	_Myiter operator++(int)
; 171  : 		{	// postincrement
; 172  : 		_Myiter _Tmp = *this;
; 173  : 		++*this;
; 174  : 		return (_Tmp);
; 175  : 		}
; 176  : 
; 177  : 	_Myiter& operator--()
; 178  : 		{	// predecrement
; 179  : 		--(*(_Mybase *)this);
; 180  : 		return (*this);
; 181  : 		}
; 182  : 
; 183  : 	_Myiter operator--(int)
; 184  : 		{	// postdecrement
; 185  : 		_Myiter _Tmp = *this;
; 186  : 		--*this;
; 187  : 		return (_Tmp);
; 188  : 		}
; 189  : 	};
; 190  : 
; 191  : 	// TEMPLATE CLASS _Tree_const_iterator
; 192  : template<class _Mytree>
; 193  : 	class _Tree_const_iterator
; 194  : 		: public _Tree_unchecked_const_iterator<_Mytree, _Iterator_base>
; 195  : 	{	// iterator for nonmutable tree
; 196  : public:
; 197  : 	typedef _Tree_const_iterator<_Mytree> _Myiter;
; 198  : 	typedef _Tree_unchecked_const_iterator<_Mytree, _Iterator_base> _Mybase;
; 199  : 	typedef bidirectional_iterator_tag iterator_category;
; 200  : 
; 201  : 	typedef typename _Mytree::_Nodeptr _Nodeptr;
; 202  : 	typedef typename _Mytree::value_type value_type;
; 203  : 	typedef typename _Mytree::difference_type difference_type;
; 204  : 	typedef typename _Mytree::const_pointer pointer;
; 205  : 	typedef typename _Mytree::const_reference reference;
; 206  : 
; 207  : 	_Tree_const_iterator()
; 208  : 		: _Mybase()
; 209  : 		{	// construct with null node pointer
; 210  : 		}
; 211  : 
; 212  : 	_Tree_const_iterator(_Nodeptr _Pnode, const _Mytree *_Plist)
; 213  : 		: _Mybase(_Pnode, _Plist)
; 214  : 		{	// construct with node pointer _Pnode
; 215  : 		}
; 216  : 
; 217  : 	typedef _Tree_unchecked_const_iterator<_Mytree> _Unchecked_type;
; 218  : 
; 219  : 	_Myiter& _Rechecked(_Unchecked_type _Right)
; 220  : 		{	// reset from unchecked iterator
; 221  : 		this->_Ptr = _Right._Ptr;
; 222  : 		return (*this);
; 223  : 		}
; 224  : 
; 225  : 	_Unchecked_type _Unchecked() const
; 226  : 		{	// make an unchecked iterator
; 227  : 		return (_Unchecked_type(this->_Ptr, (_Mytree *)this->_Getcont()));
; 228  : 		}
; 229  : 
; 230  : 	reference operator*() const
; 231  : 		{	// return designated value
; 232  :  #if _ITERATOR_DEBUG_LEVEL == 2
; 233  : 		if (this->_Getcont() == 0
; 234  : 			|| this->_Ptr == 0
; 235  : 			|| this->_Ptr == ((_Mytree *)this->_Getcont())->_Myhead)
; 236  : 			{	// report error
; 237  : 			_DEBUG_ERROR("map/set iterator not dereferencable");
; 238  : 			_SCL_SECURE_OUT_OF_RANGE;
; 239  : 			}
; 240  : 
; 241  :  #elif _ITERATOR_DEBUG_LEVEL == 1
; 242  : 		_SCL_SECURE_VALIDATE(this->_Getcont() != 0 && this->_Ptr != 0);
; 243  : 		_SCL_SECURE_VALIDATE_RANGE(this->_Ptr !=
; 244  : 			((_Mytree *)this->_Getcont())->_Myhead);
; 245  :  #endif /* _ITERATOR_DEBUG_LEVEL */
; 246  : 
; 247  : 		return (_Mytree::_Myval(this->_Ptr));
; 248  : 		}
; 249  : 
; 250  : 	pointer operator->() const
; 251  : 		{	// return pointer to class object
; 252  : 		return (_STD pointer_traits<pointer>::pointer_to(**this));
; 253  : 		}
; 254  : 
; 255  : 	_Myiter& operator++()
; 256  : 		{	// preincrement
; 257  :  #if _ITERATOR_DEBUG_LEVEL == 2
; 258  : 		if (this->_Getcont() == 0
; 259  : 			|| this->_Ptr == 0
; 260  : 			|| _Mytree::_Isnil(this->_Ptr))
; 261  : 			{	// report error
; 262  : 			_DEBUG_ERROR("map/set iterator not incrementable");
; 263  : 			_SCL_SECURE_OUT_OF_RANGE;
; 264  : 			}
; 265  : 
; 266  :  #elif _ITERATOR_DEBUG_LEVEL == 1
; 267  : 		_SCL_SECURE_VALIDATE(this->_Getcont() != 0 && this->_Ptr != 0);
; 268  : 		_SCL_SECURE_VALIDATE_RANGE(!_Mytree::_Isnil(this->_Ptr));
; 269  :  #endif /* _ITERATOR_DEBUG_LEVEL */
; 270  : 
; 271  : 		++(*(_Mybase *)this);
; 272  : 		return (*this);
; 273  : 		}
; 274  : 
; 275  : 	_Myiter operator++(int)
; 276  : 		{	// postincrement
; 277  : 		_Myiter _Tmp = *this;
; 278  : 		++*this;
; 279  : 		return (_Tmp);
; 280  : 		}
; 281  : 
; 282  : 	_Myiter& operator--()
; 283  : 		{	// predecrement
; 284  :  #if _ITERATOR_DEBUG_LEVEL == 2
; 285  : 		if (this->_Getcont() == 0
; 286  : 			|| this->_Ptr == 0)
; 287  : 			{	// report error
; 288  : 			_DEBUG_ERROR("map/set iterator not decrementable");
; 289  : 			_SCL_SECURE_OUT_OF_RANGE;
; 290  : 			}
; 291  : 
; 292  : 		_Nodeptr _Ptrsav = this->_Ptr;
; 293  : 		--(*(_Mybase *)this);
; 294  : 		if (_Ptrsav == this->_Ptr)
; 295  : 			{	// report error
; 296  : 			_DEBUG_ERROR("map/set iterator not decrementable");
; 297  : 			_SCL_SECURE_OUT_OF_RANGE;
; 298  : 			}
; 299  : 
; 300  :  #elif _ITERATOR_DEBUG_LEVEL == 1
; 301  : 		_SCL_SECURE_VALIDATE(this->_Getcont() != 0 && this->_Ptr != 0);
; 302  : 
; 303  : 		_Nodeptr _Ptrsav = this->_Ptr;
; 304  : 		--(*(_Mybase *)this);
; 305  : 		_SCL_SECURE_VALIDATE(_Ptrsav != this->_Ptr);
; 306  : 
; 307  :  #else /* _ITERATOR_DEBUG_LEVEL == 0 */
; 308  : 		--(*(_Mybase *)this);
; 309  :  #endif /* _ITERATOR_DEBUG_LEVEL */
; 310  : 
; 311  : 		return (*this);
; 312  : 		}
; 313  : 
; 314  : 	_Myiter operator--(int)
; 315  : 		{	// postdecrement
; 316  : 		_Myiter _Tmp = *this;
; 317  : 		--*this;
; 318  : 		return (_Tmp);
; 319  : 		}
; 320  : 
; 321  : 	bool operator==(const _Myiter& _Right) const
; 322  : 		{	// test for iterator equality
; 323  :  #if _ITERATOR_DEBUG_LEVEL == 2
; 324  : 		if (this->_Getcont() == 0
; 325  : 			|| this->_Getcont() != _Right._Getcont())
; 326  : 			{	// report error
; 327  : 			_DEBUG_ERROR("map/set iterators incompatible");
; 328  : 			_SCL_SECURE_INVALID_ARGUMENT;
; 329  : 			}
; 330  : 
; 331  :  #elif _ITERATOR_DEBUG_LEVEL == 1
; 332  : 		_SCL_SECURE_VALIDATE(this->_Getcont() != 0
; 333  : 			&& this->_Getcont() == _Right._Getcont());
; 334  :  #endif /* _ITERATOR_DEBUG_LEVEL */
; 335  : 
; 336  : 		return (this->_Ptr == _Right._Ptr);
; 337  : 		}
; 338  : 
; 339  : 	bool operator!=(const _Myiter& _Right) const
; 340  : 		{	// test for iterator inequality
; 341  : 		return (!(*this == _Right));
; 342  : 		}
; 343  : 	};
; 344  : 
; 345  : template<class _Mytree> inline
; 346  : 	typename _Tree_const_iterator<_Mytree>::_Unchecked_type
; 347  : 		_Unchecked(_Tree_const_iterator<_Mytree> _Iter)
; 348  : 	{	// convert to unchecked
; 349  : 	return (_Iter._Unchecked());
; 350  : 	}
; 351  : 
; 352  : template<class _Mytree> inline
; 353  : 	_Tree_const_iterator<_Mytree>&
; 354  : 		_Rechecked(_Tree_const_iterator<_Mytree>& _Iter,
; 355  : 			typename _Tree_const_iterator<_Mytree>
; 356  : 				::_Unchecked_type _Right)
; 357  : 	{	// convert to checked
; 358  : 	return (_Iter._Rechecked(_Right));
; 359  : 	}
; 360  : 
; 361  : 	// TEMPLATE CLASS _Tree_iterator
; 362  : template<class _Mytree>
; 363  : 	class _Tree_iterator
; 364  : 		: public _Tree_const_iterator<_Mytree>
; 365  : 	{	// iterator for mutable tree
; 366  : public:
; 367  : 	typedef _Tree_iterator<_Mytree> _Myiter;
; 368  : 	typedef _Tree_const_iterator<_Mytree> _Mybase;
; 369  : 	typedef bidirectional_iterator_tag iterator_category;
; 370  : 
; 371  : 	typedef typename _Mytree::_Nodeptr _Nodeptr;
; 372  : 	typedef typename _Mytree::value_type value_type;
; 373  : 	typedef typename _Mytree::difference_type difference_type;
; 374  : 
; 375  : 	typedef typename _Mytree::pointer pointer;
; 376  : 	typedef typename _Mytree::reference reference;
; 377  : 
; 378  : 	_Tree_iterator()
; 379  : 		{	// construct with null node
; 380  : 		}
; 381  : 
; 382  : 	_Tree_iterator(_Nodeptr _Pnode, const _Mytree *_Plist)
; 383  : 		: _Mybase(_Pnode, _Plist)
; 384  : 		{	// construct with node pointer _Pnode
; 385  : 		}
; 386  : 
; 387  : 	typedef _Tree_unchecked_iterator<_Mytree> _Unchecked_type;
; 388  : 
; 389  : 	_Myiter& _Rechecked(_Unchecked_type _Right)
; 390  : 		{	// reset from unchecked iterator
; 391  : 		this->_Ptr = _Right._Ptr;
; 392  : 		return (*this);
; 393  : 		}
; 394  : 
; 395  : 	_Unchecked_type _Unchecked() const
; 396  : 		{	// make an unchecked iterator
; 397  : 		return (_Unchecked_type(this->_Ptr, (_Mytree *)this->_Getcont()));
; 398  : 		}
; 399  : 
; 400  : 	reference operator*() const
; 401  : 		{	// return designated value
; 402  : 		return ((reference)**(_Mybase *)this);
; 403  : 		}
; 404  : 
; 405  : 	pointer operator->() const
; 406  : 		{	// return pointer to class object
; 407  : 		return (_STD pointer_traits<pointer>::pointer_to(**this));
; 408  : 		}
; 409  : 
; 410  : 	_Myiter& operator++()
; 411  : 		{	// preincrement
; 412  : 		++(*(_Mybase *)this);
; 413  : 		return (*this);
; 414  : 		}
; 415  : 
; 416  : 	_Myiter operator++(int)
; 417  : 		{	// postincrement
; 418  : 		_Myiter _Tmp = *this;
; 419  : 		++*this;
; 420  : 		return (_Tmp);
; 421  : 		}
; 422  : 
; 423  : 	_Myiter& operator--()
; 424  : 		{	// predecrement
; 425  : 		--(*(_Mybase *)this);
; 426  : 		return (*this);
; 427  : 		}
; 428  : 
; 429  : 	_Myiter operator--(int)
; 430  : 		{	// postdecrement
; 431  : 		_Myiter _Tmp = *this;
; 432  : 		--*this;
; 433  : 		return (_Tmp);
; 434  : 		}
; 435  : 	};
; 436  : 
; 437  : template<class _Mytree> inline
; 438  : 	typename _Tree_iterator<_Mytree>::_Unchecked_type
; 439  : 		_Unchecked(_Tree_iterator<_Mytree> _Iter)
; 440  : 	{	// convert to unchecked
; 441  : 	return (_Iter._Unchecked());
; 442  : 	}
; 443  : 
; 444  : template<class _Mytree> inline
; 445  : 	_Tree_iterator<_Mytree>&
; 446  : 		_Rechecked(_Tree_iterator<_Mytree>& _Iter,
; 447  : 			typename _Tree_iterator<_Mytree>
; 448  : 				::_Unchecked_type _Right)
; 449  : 	{	// convert to checked
; 450  : 	return (_Iter._Rechecked(_Right));
; 451  : 	}
; 452  : 
; 453  : 		// tree TYPE WRAPPERS
; 454  : template<class _Value_type,
; 455  : 	class _Size_type,
; 456  : 	class _Difference_type,
; 457  : 	class _Pointer,
; 458  : 	class _Const_pointer,
; 459  : 	class _Reference,
; 460  : 	class _Const_reference,
; 461  : 	class _Nodeptr_type>
; 462  : 	struct _Tree_iter_types
; 463  : 	{	// wraps types needed by iterators
; 464  : 	typedef _Value_type value_type;
; 465  : 	typedef _Size_type size_type;
; 466  : 	typedef _Difference_type difference_type;
; 467  : 	typedef _Pointer pointer;
; 468  : 	typedef _Const_pointer const_pointer;
; 469  : 	typedef _Reference reference;
; 470  : 	typedef _Const_reference const_reference;
; 471  : 	typedef _Nodeptr_type _Nodeptr;
; 472  : 	};
; 473  : 
; 474  : template<class _Value_type,
; 475  : 	class _Voidptr>
; 476  : 	struct _Tree_node
; 477  : 		{	// tree node
; 478  : 		_Voidptr _Left;	// left subtree, or smallest element if head
; 479  : 		_Voidptr _Parent;	// parent, or root of tree if head
; 480  : 		_Voidptr _Right;	// right subtree, or largest element if head
; 481  : 		char _Color;	// _Red or _Black, _Black if head
; 482  : 		char _Isnil;	// true only if head (also nil) node
; 483  : 		_Value_type _Myval;	// the stored value, unused if head
; 484  : 
; 485  : 	private:
; 486  : 		_Tree_node& operator=(const _Tree_node&);
; 487  : 		};
; 488  : 
; 489  : template<class _Value_type>
; 490  : 	struct _Tree_node<_Value_type, void *>
; 491  : 		{	// tree node
; 492  : 		typedef _Tree_node<_Value_type, void *> *_Nodeptr;
; 493  : 		_Nodeptr _Left;	// left subtree, or smallest element if head
; 494  : 		_Nodeptr _Parent;	// parent, or root of tree if head
; 495  : 		_Nodeptr _Right;	// right subtree, or largest element if head
; 496  : 		char _Color;	// _Red or _Black, _Black if head
; 497  : 		char _Isnil;	// true only if head (also nil) node
; 498  : 		_Value_type _Myval;	// the stored value, unused if head
; 499  : 
; 500  : 	private:
; 501  : 		_Tree_node& operator=(const _Tree_node&);
; 502  : 		};
; 503  : 
; 504  : template<class _Ty>
; 505  : 	struct _Tree_simple_types
; 506  : 		: public _Simple_types<_Ty>
; 507  : 	{	// wraps types needed by iterators
; 508  : 	typedef _Tree_node<_Ty, void *> _Node;
; 509  : 	typedef _Node *_Nodeptr;
; 510  : 	};
; 511  : 
; 512  : template<class _Ty,
; 513  : 	class _Alloc0>
; 514  : 	struct _Tree_base_types
; 515  : 	{	// types needed for a container base
; 516  : 	typedef _Alloc0 _Alloc;
; 517  : 	typedef _Tree_base_types<_Ty, _Alloc> _Myt;
; 518  : 
; 519  : 	typedef _Wrap_alloc<_Alloc> _Alty0;
; 520  : 	typedef typename _Alty0::template rebind<_Ty>::other _Alty;
; 521  : 
; 522  : 
; 523  : 	typedef typename _Get_voidptr<_Alty, typename _Alty::pointer>::type
; 524  : 		_Voidptr;
; 525  : 	typedef _Tree_node<typename _Alty::value_type,
; 526  : 		_Voidptr> _Node;
; 527  : 
; 528  : 	typedef typename _Alty::template rebind<_Node>::other _Alnod_type;
; 529  : 	typedef typename _Alnod_type::pointer _Nodeptr;
; 530  : 	typedef _Nodeptr& _Nodepref;
; 531  : 
; 532  : 	typedef typename _If<_Is_simple_alloc<_Alty>::value,
; 533  : 		_Tree_simple_types<typename _Alty::value_type>,
; 534  : 		_Tree_iter_types<typename _Alty::value_type,
; 535  : 			typename _Alty::size_type,
; 536  : 			typename _Alty::difference_type,
; 537  : 			typename _Alty::pointer,
; 538  : 			typename _Alty::const_pointer,
; 539  : 			typename _Alty::reference,
; 540  : 			typename _Alty::const_reference,
; 541  : 			_Nodeptr> >::type
; 542  : 		_Val_types;
; 543  : 	};
; 544  : 
; 545  : 		// TEMPLATE CLASS _Tree_val
; 546  : template<class _Val_types>
; 547  : 	class _Tree_val
; 548  : 		: public _Container_base
; 549  : 	{	// base class for tree to hold data
; 550  : public:
; 551  : 	typedef _Tree_val<_Val_types> _Myt;
; 552  : 
; 553  : 	typedef typename _Val_types::_Nodeptr _Nodeptr;
; 554  : 	typedef _Nodeptr& _Nodepref;
; 555  : 
; 556  : 	typedef typename _Val_types::value_type value_type;
; 557  : 	typedef typename _Val_types::size_type size_type;
; 558  : 	typedef typename _Val_types::difference_type difference_type;
; 559  : 	typedef typename _Val_types::pointer pointer;
; 560  : 	typedef typename _Val_types::const_pointer const_pointer;
; 561  : 	typedef typename _Val_types::reference reference;
; 562  : 	typedef typename _Val_types::const_reference const_reference;
; 563  : 
; 564  : 	typedef _Tree_const_iterator<_Myt> const_iterator;
; 565  : 	typedef _Tree_iterator<_Myt> iterator;
; 566  : 
; 567  : 	_Tree_val()
; 568  : 		{	// initialize data
; 569  : 		this->_Myhead = 0;
; 570  : 		this->_Mysize = 0;
; 571  : 		}
; 572  : 
; 573  : 	enum _Redbl
; 574  : 		{	// colors for link to parent
; 575  : 		_Red, _Black};
; 576  : 
; 577  : 	static char& _Color(_Nodeptr _Pnode)
; 578  : 		{	// return reference to color in node
; 579  : 		return ((char&)_Pnode->_Color);
; 580  : 		}
; 581  : 
; 582  : 	static char& _Isnil(_Nodeptr _Pnode)
; 583  : 		{	// return reference to nil flag in node
; 584  : 		return ((char&)_Pnode->_Isnil);

	mov	rcx, QWORD PTR [rdx]

; 2130 : 
; 2131 : 		if (!this->_Isnil(this->_Left(_Pnode)))

	cmp	BYTE PTR [rcx+25], 0
	jne	SHORT $LN118@Insert_at

; 2132 : 			this->_Parent(this->_Left(_Pnode)) = _Wherenode;

	mov	QWORD PTR [rcx+8], rax
$LN118@Insert_at:

; 2133 : 		this->_Parent(_Pnode) = this->_Parent(_Wherenode);

	mov	rcx, QWORD PTR [rax+8]
	mov	QWORD PTR [rdx+8], rcx

; 590  : 		}
; 591  : 
; 592  : 	static _Nodepref _Parent(_Nodeptr _Pnode)
; 593  : 		{	// return reference to parent pointer in node
; 594  : 		return ((_Nodepref)_Pnode->_Parent);

	mov	rcx, QWORD PTR [rbx]

; 2134 : 
; 2135 : 		if (_Wherenode == _Root())

	cmp	rax, QWORD PTR [rcx+8]
	jne	SHORT $LN117@Insert_at

; 2136 : 			_Root() = _Pnode;

	mov	QWORD PTR [rcx+8], rdx

; 2137 : 		else if (_Wherenode == this->_Left(this->_Parent(_Wherenode)))

	jmp	SHORT $LN114@Insert_at
$LN117@Insert_at:

; 585  : 		}
; 586  : 
; 587  : 	static _Nodepref _Left(_Nodeptr _Pnode)
; 588  : 		{	// return reference to left pointer in node
; 589  : 		return ((_Nodepref)_Pnode->_Left);

	mov	rcx, QWORD PTR [rax+8]

; 2137 : 		else if (_Wherenode == this->_Left(this->_Parent(_Wherenode)))

	cmp	rax, QWORD PTR [rcx]
	jne	SHORT $LN115@Insert_at

; 2138 : 			this->_Left(this->_Parent(_Wherenode)) = _Pnode;

	mov	QWORD PTR [rcx], rdx

; 2139 : 		else

	jmp	SHORT $LN114@Insert_at
$LN115@Insert_at:

; 2140 : 			this->_Right(this->_Parent(_Wherenode)) = _Pnode;

	mov	QWORD PTR [rcx+16], rdx
$LN114@Insert_at:

; 2141 : 
; 2142 : 		this->_Left(_Pnode) = _Wherenode;

	mov	QWORD PTR [rdx], rax

; 2143 : 		this->_Parent(_Wherenode) = _Pnode;

	mov	QWORD PTR [rax+8], rdx
$LN119@Insert_at:

; 1886 : 						_Lrotate(_Pnode);
; 1887 : 						}
; 1888 : 					this->_Color(this->_Parent(_Pnode)) =
; 1889 : 						this->_Black;	// propagate red up

	mov	rcx, QWORD PTR [rax+8]
	mov	BYTE PTR [rcx+24], 1

; 1890 : 					this->_Color(this->_Parent(this->_Parent(_Pnode))) =
; 1891 : 						this->_Red;

	mov	rcx, QWORD PTR [rax+8]
	mov	rdx, QWORD PTR [rcx+8]
	mov	BYTE PTR [rdx+24], 0

; 1892 : 					_Rrotate(this->_Parent(this->_Parent(_Pnode)));

	mov	rcx, QWORD PTR [rax+8]
	mov	rdx, QWORD PTR [rcx+8]

; 2144 : 		}
; 2145 : 
; 2146 : 	_Nodeptr& _Rmost() const
; 2147 : 		{	// return rightmost node in nonmutable tree
; 2148 : 		return (this->_Right(this->_Myhead));
; 2149 : 		}
; 2150 : 
; 2151 : 	_Nodeptr& _Root() const
; 2152 : 		{	// return root of nonmutable tree
; 2153 : 		return (this->_Parent(this->_Myhead));
; 2154 : 		}
; 2155 : 
; 2156 : 	void _Rrotate(_Nodeptr _Wherenode)
; 2157 : 		{	// promote left node to root of subtree
; 2158 : 		_Nodeptr _Pnode = this->_Left(_Wherenode);

	mov	r8, QWORD PTR [rdx]

; 2159 : 		this->_Left(_Wherenode) = this->_Right(_Pnode);

	mov	rcx, QWORD PTR [r8+16]
	mov	QWORD PTR [rdx], rcx

; 45   : 		this->_Adopt(_Plist);
; 46   : 		}
; 47   : 
; 48   : 	reference operator*() const
; 49   : 		{	// return designated value
; 50   : 		return (_Mytree::_Myval(_Ptr));
; 51   : 		}
; 52   : 
; 53   : 	pointer operator->() const
; 54   : 		{	// return pointer to class object
; 55   : 		return (_STD pointer_traits<pointer>::pointer_to(**this));
; 56   : 		}
; 57   : 
; 58   : 	_Myiter& operator++()
; 59   : 		{	// preincrement
; 60   : 		if (_Mytree::_Isnil(_Ptr))
; 61   : 			;	// end() shouldn't be incremented, don't move
; 62   : 		else if (!_Mytree::_Isnil(_Mytree::_Right(_Ptr)))
; 63   : 			_Ptr = _Mytree::_Min(
; 64   : 				_Mytree::_Right(_Ptr));	// ==> smallest of right subtree
; 65   : 		else
; 66   : 			{	// climb looking for right subtree
; 67   : 			_Nodeptr _Pnode;
; 68   : 			while (!_Mytree::_Isnil(_Pnode = _Mytree::_Parent(_Ptr))
; 69   : 				&& _Ptr == _Mytree::_Right(_Pnode))
; 70   : 				_Ptr = _Pnode;	// ==> parent while right subtree
; 71   : 			_Ptr = _Pnode;	// ==> parent (head if end())
; 72   : 			}
; 73   : 		return (*this);
; 74   : 		}
; 75   : 
; 76   : 	_Myiter operator++(int)
; 77   : 		{	// postincrement
; 78   : 		_Myiter _Tmp = *this;
; 79   : 		++*this;
; 80   : 		return (_Tmp);
; 81   : 		}
; 82   : 
; 83   : 	_Myiter& operator--()
; 84   : 		{	// predecrement
; 85   : 		if (_Mytree::_Isnil(_Ptr))
; 86   : 			_Ptr = _Mytree::_Right(_Ptr);	// end() ==> rightmost
; 87   : 		else if (!_Mytree::_Isnil(_Mytree::_Left(_Ptr)))
; 88   : 			_Ptr = _Mytree::_Max(
; 89   : 				_Mytree::_Left(_Ptr));	// ==> largest of left subtree
; 90   : 		else
; 91   : 			{	// climb looking for left subtree
; 92   : 			_Nodeptr _Pnode;
; 93   : 			while (!_Mytree::_Isnil(_Pnode = _Mytree::_Parent(_Ptr))
; 94   : 				&& _Ptr == _Mytree::_Left(_Pnode))
; 95   : 				_Ptr = _Pnode;	// ==> parent while left subtree
; 96   : 			if (_Mytree::_Isnil(_Ptr))
; 97   : 				;	// begin() shouldn't be decremented, don't move
; 98   : 			else
; 99   : 				_Ptr = _Pnode;	// ==> parent if not head
; 100  : 			}
; 101  : 		return (*this);
; 102  : 		}
; 103  : 
; 104  : 	_Myiter operator--(int)
; 105  : 		{	// postdecrement
; 106  : 		_Myiter _Tmp = *this;
; 107  : 		--*this;
; 108  : 		return (_Tmp);
; 109  : 		}
; 110  : 
; 111  : 	bool operator==(const _Myiter& _Right) const
; 112  : 		{	// test for iterator equality
; 113  : 		return (_Ptr == _Right._Ptr);
; 114  : 		}
; 115  : 
; 116  : 	bool operator!=(const _Myiter& _Right) const
; 117  : 		{	// test for iterator inequality
; 118  : 		return (!(*this == _Right));
; 119  : 		}
; 120  : 
; 121  : 	_Nodeptr _Mynode() const
; 122  : 		{	// return node pointer
; 123  : 		return (_Ptr);
; 124  : 		}
; 125  : 
; 126  : 	_Nodeptr _Ptr;	// pointer to node
; 127  : 	};
; 128  : 
; 129  : 	// TEMPLATE CLASS _Tree_unchecked_iterator
; 130  : template<class _Mytree>
; 131  : 	class _Tree_unchecked_iterator
; 132  : 		: public _Tree_unchecked_const_iterator<_Mytree>
; 133  : 	{	// unchecked iterator for mutable tree
; 134  : public:
; 135  : 	typedef _Tree_unchecked_iterator<_Mytree> _Myiter;
; 136  : 	typedef _Tree_unchecked_const_iterator<_Mytree> _Mybase;
; 137  : 	typedef bidirectional_iterator_tag iterator_category;
; 138  : 
; 139  : 	typedef typename _Mytree::_Nodeptr _Nodeptr;
; 140  : 	typedef typename _Mytree::value_type value_type;
; 141  : 	typedef typename _Mytree::difference_type difference_type;
; 142  : 	typedef typename _Mytree::pointer pointer;
; 143  : 	typedef typename _Mytree::reference reference;
; 144  : 
; 145  : 	_Tree_unchecked_iterator()
; 146  : 		{	// construct with null node
; 147  : 		}
; 148  : 
; 149  : 	_Tree_unchecked_iterator(_Nodeptr _Pnode, const _Mytree *_Plist)
; 150  : 		: _Mybase(_Pnode, _Plist)
; 151  : 		{	// construct with node pointer _Pnode
; 152  : 		}
; 153  : 
; 154  : 	reference operator*() const
; 155  : 		{	// return designated value
; 156  : 		return ((reference)**(_Mybase *)this);
; 157  : 		}
; 158  : 
; 159  : 	pointer operator->() const
; 160  : 		{	// return pointer to class object
; 161  : 		return (_STD pointer_traits<pointer>::pointer_to(**this));
; 162  : 		}
; 163  : 
; 164  : 	_Myiter& operator++()
; 165  : 		{	// preincrement
; 166  : 		++(*(_Mybase *)this);
; 167  : 		return (*this);
; 168  : 		}
; 169  : 
; 170  : 	_Myiter operator++(int)
; 171  : 		{	// postincrement
; 172  : 		_Myiter _Tmp = *this;
; 173  : 		++*this;
; 174  : 		return (_Tmp);
; 175  : 		}
; 176  : 
; 177  : 	_Myiter& operator--()
; 178  : 		{	// predecrement
; 179  : 		--(*(_Mybase *)this);
; 180  : 		return (*this);
; 181  : 		}
; 182  : 
; 183  : 	_Myiter operator--(int)
; 184  : 		{	// postdecrement
; 185  : 		_Myiter _Tmp = *this;
; 186  : 		--*this;
; 187  : 		return (_Tmp);
; 188  : 		}
; 189  : 	};
; 190  : 
; 191  : 	// TEMPLATE CLASS _Tree_const_iterator
; 192  : template<class _Mytree>
; 193  : 	class _Tree_const_iterator
; 194  : 		: public _Tree_unchecked_const_iterator<_Mytree, _Iterator_base>
; 195  : 	{	// iterator for nonmutable tree
; 196  : public:
; 197  : 	typedef _Tree_const_iterator<_Mytree> _Myiter;
; 198  : 	typedef _Tree_unchecked_const_iterator<_Mytree, _Iterator_base> _Mybase;
; 199  : 	typedef bidirectional_iterator_tag iterator_category;
; 200  : 
; 201  : 	typedef typename _Mytree::_Nodeptr _Nodeptr;
; 202  : 	typedef typename _Mytree::value_type value_type;
; 203  : 	typedef typename _Mytree::difference_type difference_type;
; 204  : 	typedef typename _Mytree::const_pointer pointer;
; 205  : 	typedef typename _Mytree::const_reference reference;
; 206  : 
; 207  : 	_Tree_const_iterator()
; 208  : 		: _Mybase()
; 209  : 		{	// construct with null node pointer
; 210  : 		}
; 211  : 
; 212  : 	_Tree_const_iterator(_Nodeptr _Pnode, const _Mytree *_Plist)
; 213  : 		: _Mybase(_Pnode, _Plist)
; 214  : 		{	// construct with node pointer _Pnode
; 215  : 		}
; 216  : 
; 217  : 	typedef _Tree_unchecked_const_iterator<_Mytree> _Unchecked_type;
; 218  : 
; 219  : 	_Myiter& _Rechecked(_Unchecked_type _Right)
; 220  : 		{	// reset from unchecked iterator
; 221  : 		this->_Ptr = _Right._Ptr;
; 222  : 		return (*this);
; 223  : 		}
; 224  : 
; 225  : 	_Unchecked_type _Unchecked() const
; 226  : 		{	// make an unchecked iterator
; 227  : 		return (_Unchecked_type(this->_Ptr, (_Mytree *)this->_Getcont()));
; 228  : 		}
; 229  : 
; 230  : 	reference operator*() const
; 231  : 		{	// return designated value
; 232  :  #if _ITERATOR_DEBUG_LEVEL == 2
; 233  : 		if (this->_Getcont() == 0
; 234  : 			|| this->_Ptr == 0
; 235  : 			|| this->_Ptr == ((_Mytree *)this->_Getcont())->_Myhead)
; 236  : 			{	// report error
; 237  : 			_DEBUG_ERROR("map/set iterator not dereferencable");
; 238  : 			_SCL_SECURE_OUT_OF_RANGE;
; 239  : 			}
; 240  : 
; 241  :  #elif _ITERATOR_DEBUG_LEVEL == 1
; 242  : 		_SCL_SECURE_VALIDATE(this->_Getcont() != 0 && this->_Ptr != 0);
; 243  : 		_SCL_SECURE_VALIDATE_RANGE(this->_Ptr !=
; 244  : 			((_Mytree *)this->_Getcont())->_Myhead);
; 245  :  #endif /* _ITERATOR_DEBUG_LEVEL */
; 246  : 
; 247  : 		return (_Mytree::_Myval(this->_Ptr));
; 248  : 		}
; 249  : 
; 250  : 	pointer operator->() const
; 251  : 		{	// return pointer to class object
; 252  : 		return (_STD pointer_traits<pointer>::pointer_to(**this));
; 253  : 		}
; 254  : 
; 255  : 	_Myiter& operator++()
; 256  : 		{	// preincrement
; 257  :  #if _ITERATOR_DEBUG_LEVEL == 2
; 258  : 		if (this->_Getcont() == 0
; 259  : 			|| this->_Ptr == 0
; 260  : 			|| _Mytree::_Isnil(this->_Ptr))
; 261  : 			{	// report error
; 262  : 			_DEBUG_ERROR("map/set iterator not incrementable");
; 263  : 			_SCL_SECURE_OUT_OF_RANGE;
; 264  : 			}
; 265  : 
; 266  :  #elif _ITERATOR_DEBUG_LEVEL == 1
; 267  : 		_SCL_SECURE_VALIDATE(this->_Getcont() != 0 && this->_Ptr != 0);
; 268  : 		_SCL_SECURE_VALIDATE_RANGE(!_Mytree::_Isnil(this->_Ptr));
; 269  :  #endif /* _ITERATOR_DEBUG_LEVEL */
; 270  : 
; 271  : 		++(*(_Mybase *)this);
; 272  : 		return (*this);
; 273  : 		}
; 274  : 
; 275  : 	_Myiter operator++(int)
; 276  : 		{	// postincrement
; 277  : 		_Myiter _Tmp = *this;
; 278  : 		++*this;
; 279  : 		return (_Tmp);
; 280  : 		}
; 281  : 
; 282  : 	_Myiter& operator--()
; 283  : 		{	// predecrement
; 284  :  #if _ITERATOR_DEBUG_LEVEL == 2
; 285  : 		if (this->_Getcont() == 0
; 286  : 			|| this->_Ptr == 0)
; 287  : 			{	// report error
; 288  : 			_DEBUG_ERROR("map/set iterator not decrementable");
; 289  : 			_SCL_SECURE_OUT_OF_RANGE;
; 290  : 			}
; 291  : 
; 292  : 		_Nodeptr _Ptrsav = this->_Ptr;
; 293  : 		--(*(_Mybase *)this);
; 294  : 		if (_Ptrsav == this->_Ptr)
; 295  : 			{	// report error
; 296  : 			_DEBUG_ERROR("map/set iterator not decrementable");
; 297  : 			_SCL_SECURE_OUT_OF_RANGE;
; 298  : 			}
; 299  : 
; 300  :  #elif _ITERATOR_DEBUG_LEVEL == 1
; 301  : 		_SCL_SECURE_VALIDATE(this->_Getcont() != 0 && this->_Ptr != 0);
; 302  : 
; 303  : 		_Nodeptr _Ptrsav = this->_Ptr;
; 304  : 		--(*(_Mybase *)this);
; 305  : 		_SCL_SECURE_VALIDATE(_Ptrsav != this->_Ptr);
; 306  : 
; 307  :  #else /* _ITERATOR_DEBUG_LEVEL == 0 */
; 308  : 		--(*(_Mybase *)this);
; 309  :  #endif /* _ITERATOR_DEBUG_LEVEL */
; 310  : 
; 311  : 		return (*this);
; 312  : 		}
; 313  : 
; 314  : 	_Myiter operator--(int)
; 315  : 		{	// postdecrement
; 316  : 		_Myiter _Tmp = *this;
; 317  : 		--*this;
; 318  : 		return (_Tmp);
; 319  : 		}
; 320  : 
; 321  : 	bool operator==(const _Myiter& _Right) const
; 322  : 		{	// test for iterator equality
; 323  :  #if _ITERATOR_DEBUG_LEVEL == 2
; 324  : 		if (this->_Getcont() == 0
; 325  : 			|| this->_Getcont() != _Right._Getcont())
; 326  : 			{	// report error
; 327  : 			_DEBUG_ERROR("map/set iterators incompatible");
; 328  : 			_SCL_SECURE_INVALID_ARGUMENT;
; 329  : 			}
; 330  : 
; 331  :  #elif _ITERATOR_DEBUG_LEVEL == 1
; 332  : 		_SCL_SECURE_VALIDATE(this->_Getcont() != 0
; 333  : 			&& this->_Getcont() == _Right._Getcont());
; 334  :  #endif /* _ITERATOR_DEBUG_LEVEL */
; 335  : 
; 336  : 		return (this->_Ptr == _Right._Ptr);
; 337  : 		}
; 338  : 
; 339  : 	bool operator!=(const _Myiter& _Right) const
; 340  : 		{	// test for iterator inequality
; 341  : 		return (!(*this == _Right));
; 342  : 		}
; 343  : 	};
; 344  : 
; 345  : template<class _Mytree> inline
; 346  : 	typename _Tree_const_iterator<_Mytree>::_Unchecked_type
; 347  : 		_Unchecked(_Tree_const_iterator<_Mytree> _Iter)
; 348  : 	{	// convert to unchecked
; 349  : 	return (_Iter._Unchecked());
; 350  : 	}
; 351  : 
; 352  : template<class _Mytree> inline
; 353  : 	_Tree_const_iterator<_Mytree>&
; 354  : 		_Rechecked(_Tree_const_iterator<_Mytree>& _Iter,
; 355  : 			typename _Tree_const_iterator<_Mytree>
; 356  : 				::_Unchecked_type _Right)
; 357  : 	{	// convert to checked
; 358  : 	return (_Iter._Rechecked(_Right));
; 359  : 	}
; 360  : 
; 361  : 	// TEMPLATE CLASS _Tree_iterator
; 362  : template<class _Mytree>
; 363  : 	class _Tree_iterator
; 364  : 		: public _Tree_const_iterator<_Mytree>
; 365  : 	{	// iterator for mutable tree
; 366  : public:
; 367  : 	typedef _Tree_iterator<_Mytree> _Myiter;
; 368  : 	typedef _Tree_const_iterator<_Mytree> _Mybase;
; 369  : 	typedef bidirectional_iterator_tag iterator_category;
; 370  : 
; 371  : 	typedef typename _Mytree::_Nodeptr _Nodeptr;
; 372  : 	typedef typename _Mytree::value_type value_type;
; 373  : 	typedef typename _Mytree::difference_type difference_type;
; 374  : 
; 375  : 	typedef typename _Mytree::pointer pointer;
; 376  : 	typedef typename _Mytree::reference reference;
; 377  : 
; 378  : 	_Tree_iterator()
; 379  : 		{	// construct with null node
; 380  : 		}
; 381  : 
; 382  : 	_Tree_iterator(_Nodeptr _Pnode, const _Mytree *_Plist)
; 383  : 		: _Mybase(_Pnode, _Plist)
; 384  : 		{	// construct with node pointer _Pnode
; 385  : 		}
; 386  : 
; 387  : 	typedef _Tree_unchecked_iterator<_Mytree> _Unchecked_type;
; 388  : 
; 389  : 	_Myiter& _Rechecked(_Unchecked_type _Right)
; 390  : 		{	// reset from unchecked iterator
; 391  : 		this->_Ptr = _Right._Ptr;
; 392  : 		return (*this);
; 393  : 		}
; 394  : 
; 395  : 	_Unchecked_type _Unchecked() const
; 396  : 		{	// make an unchecked iterator
; 397  : 		return (_Unchecked_type(this->_Ptr, (_Mytree *)this->_Getcont()));
; 398  : 		}
; 399  : 
; 400  : 	reference operator*() const
; 401  : 		{	// return designated value
; 402  : 		return ((reference)**(_Mybase *)this);
; 403  : 		}
; 404  : 
; 405  : 	pointer operator->() const
; 406  : 		{	// return pointer to class object
; 407  : 		return (_STD pointer_traits<pointer>::pointer_to(**this));
; 408  : 		}
; 409  : 
; 410  : 	_Myiter& operator++()
; 411  : 		{	// preincrement
; 412  : 		++(*(_Mybase *)this);
; 413  : 		return (*this);
; 414  : 		}
; 415  : 
; 416  : 	_Myiter operator++(int)
; 417  : 		{	// postincrement
; 418  : 		_Myiter _Tmp = *this;
; 419  : 		++*this;
; 420  : 		return (_Tmp);
; 421  : 		}
; 422  : 
; 423  : 	_Myiter& operator--()
; 424  : 		{	// predecrement
; 425  : 		--(*(_Mybase *)this);
; 426  : 		return (*this);
; 427  : 		}
; 428  : 
; 429  : 	_Myiter operator--(int)
; 430  : 		{	// postdecrement
; 431  : 		_Myiter _Tmp = *this;
; 432  : 		--*this;
; 433  : 		return (_Tmp);
; 434  : 		}
; 435  : 	};
; 436  : 
; 437  : template<class _Mytree> inline
; 438  : 	typename _Tree_iterator<_Mytree>::_Unchecked_type
; 439  : 		_Unchecked(_Tree_iterator<_Mytree> _Iter)
; 440  : 	{	// convert to unchecked
; 441  : 	return (_Iter._Unchecked());
; 442  : 	}
; 443  : 
; 444  : template<class _Mytree> inline
; 445  : 	_Tree_iterator<_Mytree>&
; 446  : 		_Rechecked(_Tree_iterator<_Mytree>& _Iter,
; 447  : 			typename _Tree_iterator<_Mytree>
; 448  : 				::_Unchecked_type _Right)
; 449  : 	{	// convert to checked
; 450  : 	return (_Iter._Rechecked(_Right));
; 451  : 	}
; 452  : 
; 453  : 		// tree TYPE WRAPPERS
; 454  : template<class _Value_type,
; 455  : 	class _Size_type,
; 456  : 	class _Difference_type,
; 457  : 	class _Pointer,
; 458  : 	class _Const_pointer,
; 459  : 	class _Reference,
; 460  : 	class _Const_reference,
; 461  : 	class _Nodeptr_type>
; 462  : 	struct _Tree_iter_types
; 463  : 	{	// wraps types needed by iterators
; 464  : 	typedef _Value_type value_type;
; 465  : 	typedef _Size_type size_type;
; 466  : 	typedef _Difference_type difference_type;
; 467  : 	typedef _Pointer pointer;
; 468  : 	typedef _Const_pointer const_pointer;
; 469  : 	typedef _Reference reference;
; 470  : 	typedef _Const_reference const_reference;
; 471  : 	typedef _Nodeptr_type _Nodeptr;
; 472  : 	};
; 473  : 
; 474  : template<class _Value_type,
; 475  : 	class _Voidptr>
; 476  : 	struct _Tree_node
; 477  : 		{	// tree node
; 478  : 		_Voidptr _Left;	// left subtree, or smallest element if head
; 479  : 		_Voidptr _Parent;	// parent, or root of tree if head
; 480  : 		_Voidptr _Right;	// right subtree, or largest element if head
; 481  : 		char _Color;	// _Red or _Black, _Black if head
; 482  : 		char _Isnil;	// true only if head (also nil) node
; 483  : 		_Value_type _Myval;	// the stored value, unused if head
; 484  : 
; 485  : 	private:
; 486  : 		_Tree_node& operator=(const _Tree_node&);
; 487  : 		};
; 488  : 
; 489  : template<class _Value_type>
; 490  : 	struct _Tree_node<_Value_type, void *>
; 491  : 		{	// tree node
; 492  : 		typedef _Tree_node<_Value_type, void *> *_Nodeptr;
; 493  : 		_Nodeptr _Left;	// left subtree, or smallest element if head
; 494  : 		_Nodeptr _Parent;	// parent, or root of tree if head
; 495  : 		_Nodeptr _Right;	// right subtree, or largest element if head
; 496  : 		char _Color;	// _Red or _Black, _Black if head
; 497  : 		char _Isnil;	// true only if head (also nil) node
; 498  : 		_Value_type _Myval;	// the stored value, unused if head
; 499  : 
; 500  : 	private:
; 501  : 		_Tree_node& operator=(const _Tree_node&);
; 502  : 		};
; 503  : 
; 504  : template<class _Ty>
; 505  : 	struct _Tree_simple_types
; 506  : 		: public _Simple_types<_Ty>
; 507  : 	{	// wraps types needed by iterators
; 508  : 	typedef _Tree_node<_Ty, void *> _Node;
; 509  : 	typedef _Node *_Nodeptr;
; 510  : 	};
; 511  : 
; 512  : template<class _Ty,
; 513  : 	class _Alloc0>
; 514  : 	struct _Tree_base_types
; 515  : 	{	// types needed for a container base
; 516  : 	typedef _Alloc0 _Alloc;
; 517  : 	typedef _Tree_base_types<_Ty, _Alloc> _Myt;
; 518  : 
; 519  : 	typedef _Wrap_alloc<_Alloc> _Alty0;
; 520  : 	typedef typename _Alty0::template rebind<_Ty>::other _Alty;
; 521  : 
; 522  : 
; 523  : 	typedef typename _Get_voidptr<_Alty, typename _Alty::pointer>::type
; 524  : 		_Voidptr;
; 525  : 	typedef _Tree_node<typename _Alty::value_type,
; 526  : 		_Voidptr> _Node;
; 527  : 
; 528  : 	typedef typename _Alty::template rebind<_Node>::other _Alnod_type;
; 529  : 	typedef typename _Alnod_type::pointer _Nodeptr;
; 530  : 	typedef _Nodeptr& _Nodepref;
; 531  : 
; 532  : 	typedef typename _If<_Is_simple_alloc<_Alty>::value,
; 533  : 		_Tree_simple_types<typename _Alty::value_type>,
; 534  : 		_Tree_iter_types<typename _Alty::value_type,
; 535  : 			typename _Alty::size_type,
; 536  : 			typename _Alty::difference_type,
; 537  : 			typename _Alty::pointer,
; 538  : 			typename _Alty::const_pointer,
; 539  : 			typename _Alty::reference,
; 540  : 			typename _Alty::const_reference,
; 541  : 			_Nodeptr> >::type
; 542  : 		_Val_types;
; 543  : 	};
; 544  : 
; 545  : 		// TEMPLATE CLASS _Tree_val
; 546  : template<class _Val_types>
; 547  : 	class _Tree_val
; 548  : 		: public _Container_base
; 549  : 	{	// base class for tree to hold data
; 550  : public:
; 551  : 	typedef _Tree_val<_Val_types> _Myt;
; 552  : 
; 553  : 	typedef typename _Val_types::_Nodeptr _Nodeptr;
; 554  : 	typedef _Nodeptr& _Nodepref;
; 555  : 
; 556  : 	typedef typename _Val_types::value_type value_type;
; 557  : 	typedef typename _Val_types::size_type size_type;
; 558  : 	typedef typename _Val_types::difference_type difference_type;
; 559  : 	typedef typename _Val_types::pointer pointer;
; 560  : 	typedef typename _Val_types::const_pointer const_pointer;
; 561  : 	typedef typename _Val_types::reference reference;
; 562  : 	typedef typename _Val_types::const_reference const_reference;
; 563  : 
; 564  : 	typedef _Tree_const_iterator<_Myt> const_iterator;
; 565  : 	typedef _Tree_iterator<_Myt> iterator;
; 566  : 
; 567  : 	_Tree_val()
; 568  : 		{	// initialize data
; 569  : 		this->_Myhead = 0;
; 570  : 		this->_Mysize = 0;
; 571  : 		}
; 572  : 
; 573  : 	enum _Redbl
; 574  : 		{	// colors for link to parent
; 575  : 		_Red, _Black};
; 576  : 
; 577  : 	static char& _Color(_Nodeptr _Pnode)
; 578  : 		{	// return reference to color in node
; 579  : 		return ((char&)_Pnode->_Color);
; 580  : 		}
; 581  : 
; 582  : 	static char& _Isnil(_Nodeptr _Pnode)
; 583  : 		{	// return reference to nil flag in node
; 584  : 		return ((char&)_Pnode->_Isnil);

	mov	rcx, QWORD PTR [r8+16]

; 2160 : 
; 2161 : 		if (!this->_Isnil(this->_Right(_Pnode)))

	cmp	BYTE PTR [rcx+25], 0
	jne	SHORT $LN181@Insert_at

; 2162 : 			this->_Parent(this->_Right(_Pnode)) = _Wherenode;

	mov	QWORD PTR [rcx+8], rdx
$LN181@Insert_at:

; 2163 : 		this->_Parent(_Pnode) = this->_Parent(_Wherenode);

	mov	rcx, QWORD PTR [rdx+8]
	mov	QWORD PTR [r8+8], rcx

; 590  : 		}
; 591  : 
; 592  : 	static _Nodepref _Parent(_Nodeptr _Pnode)
; 593  : 		{	// return reference to parent pointer in node
; 594  : 		return ((_Nodepref)_Pnode->_Parent);

	mov	rcx, QWORD PTR [rbx]

; 2164 : 
; 2165 : 		if (_Wherenode == _Root())

	cmp	rdx, QWORD PTR [rcx+8]
	jne	SHORT $LN180@Insert_at

; 2166 : 			_Root() = _Pnode;

	mov	QWORD PTR [rcx+8], r8

; 2171 : 
; 2172 : 		this->_Right(_Pnode) = _Wherenode;

	mov	QWORD PTR [r8+16], rdx

; 1893 : 					}
; 1894 : 				}
; 1895 : 			else

	jmp	$LN384@Insert_at
$LN180@Insert_at:

; 595  : 		}
; 596  : 
; 597  : 	static _Nodepref _Right(_Nodeptr _Pnode)
; 598  : 		{	// return reference to right pointer in node
; 599  : 		return ((_Nodepref)_Pnode->_Right);

	mov	rcx, QWORD PTR [rdx+8]

; 2167 : 		else if (_Wherenode == this->_Right(this->_Parent(_Wherenode)))

	cmp	rdx, QWORD PTR [rcx+16]
	jne	SHORT $LN178@Insert_at

; 2168 : 			this->_Right(this->_Parent(_Wherenode)) = _Pnode;

	mov	QWORD PTR [rcx+16], r8

; 2171 : 
; 2172 : 		this->_Right(_Pnode) = _Wherenode;

	mov	QWORD PTR [r8+16], rdx

; 1893 : 					}
; 1894 : 				}
; 1895 : 			else

	jmp	$LN384@Insert_at
$LN178@Insert_at:

; 2170 : 			this->_Left(this->_Parent(_Wherenode)) = _Pnode;

	mov	QWORD PTR [rcx], r8

; 2171 : 
; 2172 : 		this->_Right(_Pnode) = _Wherenode;

	mov	QWORD PTR [r8+16], rdx

; 1893 : 					}
; 1894 : 				}
; 1895 : 			else

	jmp	$LN384@Insert_at
$LN8@Insert_at:

; 1896 : 				{	// fixup red-red in right subtree
; 1897 : 				_Wherenode =
; 1898 : 					this->_Left(this->_Parent(this->_Parent(_Pnode)));
; 1899 : 				if (this->_Color(_Wherenode) == this->_Red)

	cmp	BYTE PTR [rdx+24], 0
	jne	SHORT $LN3@Insert_at

; 1900 : 					{	// parent has two red children, blacken both
; 1901 : 					this->_Color(this->_Parent(_Pnode)) = this->_Black;

	mov	BYTE PTR [rcx+24], 1

; 1902 : 					this->_Color(_Wherenode) = this->_Black;

	mov	BYTE PTR [rdx+24], 1

; 1903 : 					this->_Color(this->_Parent(this->_Parent(_Pnode))) =
; 1904 : 						this->_Red;

	mov	rcx, QWORD PTR [rax+8]
	mov	rdx, QWORD PTR [rcx+8]
	mov	BYTE PTR [rdx+24], 0

; 1905 : 					_Pnode = this->_Parent(this->_Parent(_Pnode));

	mov	rcx, QWORD PTR [rax+8]
	mov	rax, QWORD PTR [rcx+8]

; 1906 : 					}
; 1907 : 				else

	jmp	$LN324@Insert_at
$LN3@Insert_at:

; 1908 : 					{	// parent has red and black children
; 1909 : 					if (_Pnode == this->_Left(this->_Parent(_Pnode)))

	cmp	rax, QWORD PTR [rcx]
	jne	SHORT $LN261@Insert_at

; 2144 : 		}
; 2145 : 
; 2146 : 	_Nodeptr& _Rmost() const
; 2147 : 		{	// return rightmost node in nonmutable tree
; 2148 : 		return (this->_Right(this->_Myhead));
; 2149 : 		}
; 2150 : 
; 2151 : 	_Nodeptr& _Root() const
; 2152 : 		{	// return root of nonmutable tree
; 2153 : 		return (this->_Parent(this->_Myhead));
; 2154 : 		}
; 2155 : 
; 2156 : 	void _Rrotate(_Nodeptr _Wherenode)
; 2157 : 		{	// promote left node to root of subtree
; 2158 : 		_Nodeptr _Pnode = this->_Left(_Wherenode);

	mov	rdx, QWORD PTR [rcx]

; 1910 : 						{	// rotate left child to right
; 1911 : 						_Pnode = this->_Parent(_Pnode);

	mov	rax, rcx

; 2159 : 		this->_Left(_Wherenode) = this->_Right(_Pnode);

	mov	rcx, QWORD PTR [rdx+16]
	mov	QWORD PTR [rax], rcx

; 45   : 		this->_Adopt(_Plist);
; 46   : 		}
; 47   : 
; 48   : 	reference operator*() const
; 49   : 		{	// return designated value
; 50   : 		return (_Mytree::_Myval(_Ptr));
; 51   : 		}
; 52   : 
; 53   : 	pointer operator->() const
; 54   : 		{	// return pointer to class object
; 55   : 		return (_STD pointer_traits<pointer>::pointer_to(**this));
; 56   : 		}
; 57   : 
; 58   : 	_Myiter& operator++()
; 59   : 		{	// preincrement
; 60   : 		if (_Mytree::_Isnil(_Ptr))
; 61   : 			;	// end() shouldn't be incremented, don't move
; 62   : 		else if (!_Mytree::_Isnil(_Mytree::_Right(_Ptr)))
; 63   : 			_Ptr = _Mytree::_Min(
; 64   : 				_Mytree::_Right(_Ptr));	// ==> smallest of right subtree
; 65   : 		else
; 66   : 			{	// climb looking for right subtree
; 67   : 			_Nodeptr _Pnode;
; 68   : 			while (!_Mytree::_Isnil(_Pnode = _Mytree::_Parent(_Ptr))
; 69   : 				&& _Ptr == _Mytree::_Right(_Pnode))
; 70   : 				_Ptr = _Pnode;	// ==> parent while right subtree
; 71   : 			_Ptr = _Pnode;	// ==> parent (head if end())
; 72   : 			}
; 73   : 		return (*this);
; 74   : 		}
; 75   : 
; 76   : 	_Myiter operator++(int)
; 77   : 		{	// postincrement
; 78   : 		_Myiter _Tmp = *this;
; 79   : 		++*this;
; 80   : 		return (_Tmp);
; 81   : 		}
; 82   : 
; 83   : 	_Myiter& operator--()
; 84   : 		{	// predecrement
; 85   : 		if (_Mytree::_Isnil(_Ptr))
; 86   : 			_Ptr = _Mytree::_Right(_Ptr);	// end() ==> rightmost
; 87   : 		else if (!_Mytree::_Isnil(_Mytree::_Left(_Ptr)))
; 88   : 			_Ptr = _Mytree::_Max(
; 89   : 				_Mytree::_Left(_Ptr));	// ==> largest of left subtree
; 90   : 		else
; 91   : 			{	// climb looking for left subtree
; 92   : 			_Nodeptr _Pnode;
; 93   : 			while (!_Mytree::_Isnil(_Pnode = _Mytree::_Parent(_Ptr))
; 94   : 				&& _Ptr == _Mytree::_Left(_Pnode))
; 95   : 				_Ptr = _Pnode;	// ==> parent while left subtree
; 96   : 			if (_Mytree::_Isnil(_Ptr))
; 97   : 				;	// begin() shouldn't be decremented, don't move
; 98   : 			else
; 99   : 				_Ptr = _Pnode;	// ==> parent if not head
; 100  : 			}
; 101  : 		return (*this);
; 102  : 		}
; 103  : 
; 104  : 	_Myiter operator--(int)
; 105  : 		{	// postdecrement
; 106  : 		_Myiter _Tmp = *this;
; 107  : 		--*this;
; 108  : 		return (_Tmp);
; 109  : 		}
; 110  : 
; 111  : 	bool operator==(const _Myiter& _Right) const
; 112  : 		{	// test for iterator equality
; 113  : 		return (_Ptr == _Right._Ptr);
; 114  : 		}
; 115  : 
; 116  : 	bool operator!=(const _Myiter& _Right) const
; 117  : 		{	// test for iterator inequality
; 118  : 		return (!(*this == _Right));
; 119  : 		}
; 120  : 
; 121  : 	_Nodeptr _Mynode() const
; 122  : 		{	// return node pointer
; 123  : 		return (_Ptr);
; 124  : 		}
; 125  : 
; 126  : 	_Nodeptr _Ptr;	// pointer to node
; 127  : 	};
; 128  : 
; 129  : 	// TEMPLATE CLASS _Tree_unchecked_iterator
; 130  : template<class _Mytree>
; 131  : 	class _Tree_unchecked_iterator
; 132  : 		: public _Tree_unchecked_const_iterator<_Mytree>
; 133  : 	{	// unchecked iterator for mutable tree
; 134  : public:
; 135  : 	typedef _Tree_unchecked_iterator<_Mytree> _Myiter;
; 136  : 	typedef _Tree_unchecked_const_iterator<_Mytree> _Mybase;
; 137  : 	typedef bidirectional_iterator_tag iterator_category;
; 138  : 
; 139  : 	typedef typename _Mytree::_Nodeptr _Nodeptr;
; 140  : 	typedef typename _Mytree::value_type value_type;
; 141  : 	typedef typename _Mytree::difference_type difference_type;
; 142  : 	typedef typename _Mytree::pointer pointer;
; 143  : 	typedef typename _Mytree::reference reference;
; 144  : 
; 145  : 	_Tree_unchecked_iterator()
; 146  : 		{	// construct with null node
; 147  : 		}
; 148  : 
; 149  : 	_Tree_unchecked_iterator(_Nodeptr _Pnode, const _Mytree *_Plist)
; 150  : 		: _Mybase(_Pnode, _Plist)
; 151  : 		{	// construct with node pointer _Pnode
; 152  : 		}
; 153  : 
; 154  : 	reference operator*() const
; 155  : 		{	// return designated value
; 156  : 		return ((reference)**(_Mybase *)this);
; 157  : 		}
; 158  : 
; 159  : 	pointer operator->() const
; 160  : 		{	// return pointer to class object
; 161  : 		return (_STD pointer_traits<pointer>::pointer_to(**this));
; 162  : 		}
; 163  : 
; 164  : 	_Myiter& operator++()
; 165  : 		{	// preincrement
; 166  : 		++(*(_Mybase *)this);
; 167  : 		return (*this);
; 168  : 		}
; 169  : 
; 170  : 	_Myiter operator++(int)
; 171  : 		{	// postincrement
; 172  : 		_Myiter _Tmp = *this;
; 173  : 		++*this;
; 174  : 		return (_Tmp);
; 175  : 		}
; 176  : 
; 177  : 	_Myiter& operator--()
; 178  : 		{	// predecrement
; 179  : 		--(*(_Mybase *)this);
; 180  : 		return (*this);
; 181  : 		}
; 182  : 
; 183  : 	_Myiter operator--(int)
; 184  : 		{	// postdecrement
; 185  : 		_Myiter _Tmp = *this;
; 186  : 		--*this;
; 187  : 		return (_Tmp);
; 188  : 		}
; 189  : 	};
; 190  : 
; 191  : 	// TEMPLATE CLASS _Tree_const_iterator
; 192  : template<class _Mytree>
; 193  : 	class _Tree_const_iterator
; 194  : 		: public _Tree_unchecked_const_iterator<_Mytree, _Iterator_base>
; 195  : 	{	// iterator for nonmutable tree
; 196  : public:
; 197  : 	typedef _Tree_const_iterator<_Mytree> _Myiter;
; 198  : 	typedef _Tree_unchecked_const_iterator<_Mytree, _Iterator_base> _Mybase;
; 199  : 	typedef bidirectional_iterator_tag iterator_category;
; 200  : 
; 201  : 	typedef typename _Mytree::_Nodeptr _Nodeptr;
; 202  : 	typedef typename _Mytree::value_type value_type;
; 203  : 	typedef typename _Mytree::difference_type difference_type;
; 204  : 	typedef typename _Mytree::const_pointer pointer;
; 205  : 	typedef typename _Mytree::const_reference reference;
; 206  : 
; 207  : 	_Tree_const_iterator()
; 208  : 		: _Mybase()
; 209  : 		{	// construct with null node pointer
; 210  : 		}
; 211  : 
; 212  : 	_Tree_const_iterator(_Nodeptr _Pnode, const _Mytree *_Plist)
; 213  : 		: _Mybase(_Pnode, _Plist)
; 214  : 		{	// construct with node pointer _Pnode
; 215  : 		}
; 216  : 
; 217  : 	typedef _Tree_unchecked_const_iterator<_Mytree> _Unchecked_type;
; 218  : 
; 219  : 	_Myiter& _Rechecked(_Unchecked_type _Right)
; 220  : 		{	// reset from unchecked iterator
; 221  : 		this->_Ptr = _Right._Ptr;
; 222  : 		return (*this);
; 223  : 		}
; 224  : 
; 225  : 	_Unchecked_type _Unchecked() const
; 226  : 		{	// make an unchecked iterator
; 227  : 		return (_Unchecked_type(this->_Ptr, (_Mytree *)this->_Getcont()));
; 228  : 		}
; 229  : 
; 230  : 	reference operator*() const
; 231  : 		{	// return designated value
; 232  :  #if _ITERATOR_DEBUG_LEVEL == 2
; 233  : 		if (this->_Getcont() == 0
; 234  : 			|| this->_Ptr == 0
; 235  : 			|| this->_Ptr == ((_Mytree *)this->_Getcont())->_Myhead)
; 236  : 			{	// report error
; 237  : 			_DEBUG_ERROR("map/set iterator not dereferencable");
; 238  : 			_SCL_SECURE_OUT_OF_RANGE;
; 239  : 			}
; 240  : 
; 241  :  #elif _ITERATOR_DEBUG_LEVEL == 1
; 242  : 		_SCL_SECURE_VALIDATE(this->_Getcont() != 0 && this->_Ptr != 0);
; 243  : 		_SCL_SECURE_VALIDATE_RANGE(this->_Ptr !=
; 244  : 			((_Mytree *)this->_Getcont())->_Myhead);
; 245  :  #endif /* _ITERATOR_DEBUG_LEVEL */
; 246  : 
; 247  : 		return (_Mytree::_Myval(this->_Ptr));
; 248  : 		}
; 249  : 
; 250  : 	pointer operator->() const
; 251  : 		{	// return pointer to class object
; 252  : 		return (_STD pointer_traits<pointer>::pointer_to(**this));
; 253  : 		}
; 254  : 
; 255  : 	_Myiter& operator++()
; 256  : 		{	// preincrement
; 257  :  #if _ITERATOR_DEBUG_LEVEL == 2
; 258  : 		if (this->_Getcont() == 0
; 259  : 			|| this->_Ptr == 0
; 260  : 			|| _Mytree::_Isnil(this->_Ptr))
; 261  : 			{	// report error
; 262  : 			_DEBUG_ERROR("map/set iterator not incrementable");
; 263  : 			_SCL_SECURE_OUT_OF_RANGE;
; 264  : 			}
; 265  : 
; 266  :  #elif _ITERATOR_DEBUG_LEVEL == 1
; 267  : 		_SCL_SECURE_VALIDATE(this->_Getcont() != 0 && this->_Ptr != 0);
; 268  : 		_SCL_SECURE_VALIDATE_RANGE(!_Mytree::_Isnil(this->_Ptr));
; 269  :  #endif /* _ITERATOR_DEBUG_LEVEL */
; 270  : 
; 271  : 		++(*(_Mybase *)this);
; 272  : 		return (*this);
; 273  : 		}
; 274  : 
; 275  : 	_Myiter operator++(int)
; 276  : 		{	// postincrement
; 277  : 		_Myiter _Tmp = *this;
; 278  : 		++*this;
; 279  : 		return (_Tmp);
; 280  : 		}
; 281  : 
; 282  : 	_Myiter& operator--()
; 283  : 		{	// predecrement
; 284  :  #if _ITERATOR_DEBUG_LEVEL == 2
; 285  : 		if (this->_Getcont() == 0
; 286  : 			|| this->_Ptr == 0)
; 287  : 			{	// report error
; 288  : 			_DEBUG_ERROR("map/set iterator not decrementable");
; 289  : 			_SCL_SECURE_OUT_OF_RANGE;
; 290  : 			}
; 291  : 
; 292  : 		_Nodeptr _Ptrsav = this->_Ptr;
; 293  : 		--(*(_Mybase *)this);
; 294  : 		if (_Ptrsav == this->_Ptr)
; 295  : 			{	// report error
; 296  : 			_DEBUG_ERROR("map/set iterator not decrementable");
; 297  : 			_SCL_SECURE_OUT_OF_RANGE;
; 298  : 			}
; 299  : 
; 300  :  #elif _ITERATOR_DEBUG_LEVEL == 1
; 301  : 		_SCL_SECURE_VALIDATE(this->_Getcont() != 0 && this->_Ptr != 0);
; 302  : 
; 303  : 		_Nodeptr _Ptrsav = this->_Ptr;
; 304  : 		--(*(_Mybase *)this);
; 305  : 		_SCL_SECURE_VALIDATE(_Ptrsav != this->_Ptr);
; 306  : 
; 307  :  #else /* _ITERATOR_DEBUG_LEVEL == 0 */
; 308  : 		--(*(_Mybase *)this);
; 309  :  #endif /* _ITERATOR_DEBUG_LEVEL */
; 310  : 
; 311  : 		return (*this);
; 312  : 		}
; 313  : 
; 314  : 	_Myiter operator--(int)
; 315  : 		{	// postdecrement
; 316  : 		_Myiter _Tmp = *this;
; 317  : 		--*this;
; 318  : 		return (_Tmp);
; 319  : 		}
; 320  : 
; 321  : 	bool operator==(const _Myiter& _Right) const
; 322  : 		{	// test for iterator equality
; 323  :  #if _ITERATOR_DEBUG_LEVEL == 2
; 324  : 		if (this->_Getcont() == 0
; 325  : 			|| this->_Getcont() != _Right._Getcont())
; 326  : 			{	// report error
; 327  : 			_DEBUG_ERROR("map/set iterators incompatible");
; 328  : 			_SCL_SECURE_INVALID_ARGUMENT;
; 329  : 			}
; 330  : 
; 331  :  #elif _ITERATOR_DEBUG_LEVEL == 1
; 332  : 		_SCL_SECURE_VALIDATE(this->_Getcont() != 0
; 333  : 			&& this->_Getcont() == _Right._Getcont());
; 334  :  #endif /* _ITERATOR_DEBUG_LEVEL */
; 335  : 
; 336  : 		return (this->_Ptr == _Right._Ptr);
; 337  : 		}
; 338  : 
; 339  : 	bool operator!=(const _Myiter& _Right) const
; 340  : 		{	// test for iterator inequality
; 341  : 		return (!(*this == _Right));
; 342  : 		}
; 343  : 	};
; 344  : 
; 345  : template<class _Mytree> inline
; 346  : 	typename _Tree_const_iterator<_Mytree>::_Unchecked_type
; 347  : 		_Unchecked(_Tree_const_iterator<_Mytree> _Iter)
; 348  : 	{	// convert to unchecked
; 349  : 	return (_Iter._Unchecked());
; 350  : 	}
; 351  : 
; 352  : template<class _Mytree> inline
; 353  : 	_Tree_const_iterator<_Mytree>&
; 354  : 		_Rechecked(_Tree_const_iterator<_Mytree>& _Iter,
; 355  : 			typename _Tree_const_iterator<_Mytree>
; 356  : 				::_Unchecked_type _Right)
; 357  : 	{	// convert to checked
; 358  : 	return (_Iter._Rechecked(_Right));
; 359  : 	}
; 360  : 
; 361  : 	// TEMPLATE CLASS _Tree_iterator
; 362  : template<class _Mytree>
; 363  : 	class _Tree_iterator
; 364  : 		: public _Tree_const_iterator<_Mytree>
; 365  : 	{	// iterator for mutable tree
; 366  : public:
; 367  : 	typedef _Tree_iterator<_Mytree> _Myiter;
; 368  : 	typedef _Tree_const_iterator<_Mytree> _Mybase;
; 369  : 	typedef bidirectional_iterator_tag iterator_category;
; 370  : 
; 371  : 	typedef typename _Mytree::_Nodeptr _Nodeptr;
; 372  : 	typedef typename _Mytree::value_type value_type;
; 373  : 	typedef typename _Mytree::difference_type difference_type;
; 374  : 
; 375  : 	typedef typename _Mytree::pointer pointer;
; 376  : 	typedef typename _Mytree::reference reference;
; 377  : 
; 378  : 	_Tree_iterator()
; 379  : 		{	// construct with null node
; 380  : 		}
; 381  : 
; 382  : 	_Tree_iterator(_Nodeptr _Pnode, const _Mytree *_Plist)
; 383  : 		: _Mybase(_Pnode, _Plist)
; 384  : 		{	// construct with node pointer _Pnode
; 385  : 		}
; 386  : 
; 387  : 	typedef _Tree_unchecked_iterator<_Mytree> _Unchecked_type;
; 388  : 
; 389  : 	_Myiter& _Rechecked(_Unchecked_type _Right)
; 390  : 		{	// reset from unchecked iterator
; 391  : 		this->_Ptr = _Right._Ptr;
; 392  : 		return (*this);
; 393  : 		}
; 394  : 
; 395  : 	_Unchecked_type _Unchecked() const
; 396  : 		{	// make an unchecked iterator
; 397  : 		return (_Unchecked_type(this->_Ptr, (_Mytree *)this->_Getcont()));
; 398  : 		}
; 399  : 
; 400  : 	reference operator*() const
; 401  : 		{	// return designated value
; 402  : 		return ((reference)**(_Mybase *)this);
; 403  : 		}
; 404  : 
; 405  : 	pointer operator->() const
; 406  : 		{	// return pointer to class object
; 407  : 		return (_STD pointer_traits<pointer>::pointer_to(**this));
; 408  : 		}
; 409  : 
; 410  : 	_Myiter& operator++()
; 411  : 		{	// preincrement
; 412  : 		++(*(_Mybase *)this);
; 413  : 		return (*this);
; 414  : 		}
; 415  : 
; 416  : 	_Myiter operator++(int)
; 417  : 		{	// postincrement
; 418  : 		_Myiter _Tmp = *this;
; 419  : 		++*this;
; 420  : 		return (_Tmp);
; 421  : 		}
; 422  : 
; 423  : 	_Myiter& operator--()
; 424  : 		{	// predecrement
; 425  : 		--(*(_Mybase *)this);
; 426  : 		return (*this);
; 427  : 		}
; 428  : 
; 429  : 	_Myiter operator--(int)
; 430  : 		{	// postdecrement
; 431  : 		_Myiter _Tmp = *this;
; 432  : 		--*this;
; 433  : 		return (_Tmp);
; 434  : 		}
; 435  : 	};
; 436  : 
; 437  : template<class _Mytree> inline
; 438  : 	typename _Tree_iterator<_Mytree>::_Unchecked_type
; 439  : 		_Unchecked(_Tree_iterator<_Mytree> _Iter)
; 440  : 	{	// convert to unchecked
; 441  : 	return (_Iter._Unchecked());
; 442  : 	}
; 443  : 
; 444  : template<class _Mytree> inline
; 445  : 	_Tree_iterator<_Mytree>&
; 446  : 		_Rechecked(_Tree_iterator<_Mytree>& _Iter,
; 447  : 			typename _Tree_iterator<_Mytree>
; 448  : 				::_Unchecked_type _Right)
; 449  : 	{	// convert to checked
; 450  : 	return (_Iter._Rechecked(_Right));
; 451  : 	}
; 452  : 
; 453  : 		// tree TYPE WRAPPERS
; 454  : template<class _Value_type,
; 455  : 	class _Size_type,
; 456  : 	class _Difference_type,
; 457  : 	class _Pointer,
; 458  : 	class _Const_pointer,
; 459  : 	class _Reference,
; 460  : 	class _Const_reference,
; 461  : 	class _Nodeptr_type>
; 462  : 	struct _Tree_iter_types
; 463  : 	{	// wraps types needed by iterators
; 464  : 	typedef _Value_type value_type;
; 465  : 	typedef _Size_type size_type;
; 466  : 	typedef _Difference_type difference_type;
; 467  : 	typedef _Pointer pointer;
; 468  : 	typedef _Const_pointer const_pointer;
; 469  : 	typedef _Reference reference;
; 470  : 	typedef _Const_reference const_reference;
; 471  : 	typedef _Nodeptr_type _Nodeptr;
; 472  : 	};
; 473  : 
; 474  : template<class _Value_type,
; 475  : 	class _Voidptr>
; 476  : 	struct _Tree_node
; 477  : 		{	// tree node
; 478  : 		_Voidptr _Left;	// left subtree, or smallest element if head
; 479  : 		_Voidptr _Parent;	// parent, or root of tree if head
; 480  : 		_Voidptr _Right;	// right subtree, or largest element if head
; 481  : 		char _Color;	// _Red or _Black, _Black if head
; 482  : 		char _Isnil;	// true only if head (also nil) node
; 483  : 		_Value_type _Myval;	// the stored value, unused if head
; 484  : 
; 485  : 	private:
; 486  : 		_Tree_node& operator=(const _Tree_node&);
; 487  : 		};
; 488  : 
; 489  : template<class _Value_type>
; 490  : 	struct _Tree_node<_Value_type, void *>
; 491  : 		{	// tree node
; 492  : 		typedef _Tree_node<_Value_type, void *> *_Nodeptr;
; 493  : 		_Nodeptr _Left;	// left subtree, or smallest element if head
; 494  : 		_Nodeptr _Parent;	// parent, or root of tree if head
; 495  : 		_Nodeptr _Right;	// right subtree, or largest element if head
; 496  : 		char _Color;	// _Red or _Black, _Black if head
; 497  : 		char _Isnil;	// true only if head (also nil) node
; 498  : 		_Value_type _Myval;	// the stored value, unused if head
; 499  : 
; 500  : 	private:
; 501  : 		_Tree_node& operator=(const _Tree_node&);
; 502  : 		};
; 503  : 
; 504  : template<class _Ty>
; 505  : 	struct _Tree_simple_types
; 506  : 		: public _Simple_types<_Ty>
; 507  : 	{	// wraps types needed by iterators
; 508  : 	typedef _Tree_node<_Ty, void *> _Node;
; 509  : 	typedef _Node *_Nodeptr;
; 510  : 	};
; 511  : 
; 512  : template<class _Ty,
; 513  : 	class _Alloc0>
; 514  : 	struct _Tree_base_types
; 515  : 	{	// types needed for a container base
; 516  : 	typedef _Alloc0 _Alloc;
; 517  : 	typedef _Tree_base_types<_Ty, _Alloc> _Myt;
; 518  : 
; 519  : 	typedef _Wrap_alloc<_Alloc> _Alty0;
; 520  : 	typedef typename _Alty0::template rebind<_Ty>::other _Alty;
; 521  : 
; 522  : 
; 523  : 	typedef typename _Get_voidptr<_Alty, typename _Alty::pointer>::type
; 524  : 		_Voidptr;
; 525  : 	typedef _Tree_node<typename _Alty::value_type,
; 526  : 		_Voidptr> _Node;
; 527  : 
; 528  : 	typedef typename _Alty::template rebind<_Node>::other _Alnod_type;
; 529  : 	typedef typename _Alnod_type::pointer _Nodeptr;
; 530  : 	typedef _Nodeptr& _Nodepref;
; 531  : 
; 532  : 	typedef typename _If<_Is_simple_alloc<_Alty>::value,
; 533  : 		_Tree_simple_types<typename _Alty::value_type>,
; 534  : 		_Tree_iter_types<typename _Alty::value_type,
; 535  : 			typename _Alty::size_type,
; 536  : 			typename _Alty::difference_type,
; 537  : 			typename _Alty::pointer,
; 538  : 			typename _Alty::const_pointer,
; 539  : 			typename _Alty::reference,
; 540  : 			typename _Alty::const_reference,
; 541  : 			_Nodeptr> >::type
; 542  : 		_Val_types;
; 543  : 	};
; 544  : 
; 545  : 		// TEMPLATE CLASS _Tree_val
; 546  : template<class _Val_types>
; 547  : 	class _Tree_val
; 548  : 		: public _Container_base
; 549  : 	{	// base class for tree to hold data
; 550  : public:
; 551  : 	typedef _Tree_val<_Val_types> _Myt;
; 552  : 
; 553  : 	typedef typename _Val_types::_Nodeptr _Nodeptr;
; 554  : 	typedef _Nodeptr& _Nodepref;
; 555  : 
; 556  : 	typedef typename _Val_types::value_type value_type;
; 557  : 	typedef typename _Val_types::size_type size_type;
; 558  : 	typedef typename _Val_types::difference_type difference_type;
; 559  : 	typedef typename _Val_types::pointer pointer;
; 560  : 	typedef typename _Val_types::const_pointer const_pointer;
; 561  : 	typedef typename _Val_types::reference reference;
; 562  : 	typedef typename _Val_types::const_reference const_reference;
; 563  : 
; 564  : 	typedef _Tree_const_iterator<_Myt> const_iterator;
; 565  : 	typedef _Tree_iterator<_Myt> iterator;
; 566  : 
; 567  : 	_Tree_val()
; 568  : 		{	// initialize data
; 569  : 		this->_Myhead = 0;
; 570  : 		this->_Mysize = 0;
; 571  : 		}
; 572  : 
; 573  : 	enum _Redbl
; 574  : 		{	// colors for link to parent
; 575  : 		_Red, _Black};
; 576  : 
; 577  : 	static char& _Color(_Nodeptr _Pnode)
; 578  : 		{	// return reference to color in node
; 579  : 		return ((char&)_Pnode->_Color);
; 580  : 		}
; 581  : 
; 582  : 	static char& _Isnil(_Nodeptr _Pnode)
; 583  : 		{	// return reference to nil flag in node
; 584  : 		return ((char&)_Pnode->_Isnil);

	mov	rcx, QWORD PTR [rdx+16]

; 2160 : 
; 2161 : 		if (!this->_Isnil(this->_Right(_Pnode)))

	cmp	BYTE PTR [rcx+25], 0
	jne	SHORT $LN260@Insert_at

; 2162 : 			this->_Parent(this->_Right(_Pnode)) = _Wherenode;

	mov	QWORD PTR [rcx+8], rax
$LN260@Insert_at:

; 2163 : 		this->_Parent(_Pnode) = this->_Parent(_Wherenode);

	mov	rcx, QWORD PTR [rax+8]
	mov	QWORD PTR [rdx+8], rcx

; 590  : 		}
; 591  : 
; 592  : 	static _Nodepref _Parent(_Nodeptr _Pnode)
; 593  : 		{	// return reference to parent pointer in node
; 594  : 		return ((_Nodepref)_Pnode->_Parent);

	mov	rcx, QWORD PTR [rbx]

; 2164 : 
; 2165 : 		if (_Wherenode == _Root())

	cmp	rax, QWORD PTR [rcx+8]
	jne	SHORT $LN259@Insert_at

; 2166 : 			_Root() = _Pnode;

	mov	QWORD PTR [rcx+8], rdx

; 2167 : 		else if (_Wherenode == this->_Right(this->_Parent(_Wherenode)))

	jmp	SHORT $LN256@Insert_at
$LN259@Insert_at:

; 595  : 		}
; 596  : 
; 597  : 	static _Nodepref _Right(_Nodeptr _Pnode)
; 598  : 		{	// return reference to right pointer in node
; 599  : 		return ((_Nodepref)_Pnode->_Right);

	mov	rcx, QWORD PTR [rax+8]

; 2167 : 		else if (_Wherenode == this->_Right(this->_Parent(_Wherenode)))

	cmp	rax, QWORD PTR [rcx+16]
	jne	SHORT $LN257@Insert_at

; 2168 : 			this->_Right(this->_Parent(_Wherenode)) = _Pnode;

	mov	QWORD PTR [rcx+16], rdx

; 2169 : 		else

	jmp	SHORT $LN256@Insert_at
$LN257@Insert_at:

; 2170 : 			this->_Left(this->_Parent(_Wherenode)) = _Pnode;

	mov	QWORD PTR [rcx], rdx
$LN256@Insert_at:

; 2171 : 
; 2172 : 		this->_Right(_Pnode) = _Wherenode;

	mov	QWORD PTR [rdx+16], rax

; 2173 : 		this->_Parent(_Wherenode) = _Pnode;

	mov	QWORD PTR [rax+8], rdx
$LN261@Insert_at:

; 1912 : 						_Rrotate(_Pnode);
; 1913 : 						}
; 1914 : 					this->_Color(this->_Parent(_Pnode)) =
; 1915 : 						this->_Black;	// propagate red up

	mov	rcx, QWORD PTR [rax+8]
	mov	BYTE PTR [rcx+24], 1

; 1916 : 					this->_Color(this->_Parent(this->_Parent(_Pnode))) =
; 1917 : 						this->_Red;

	mov	rcx, QWORD PTR [rax+8]
	mov	rdx, QWORD PTR [rcx+8]
	mov	BYTE PTR [rdx+24], 0

; 1918 : 					_Lrotate(this->_Parent(this->_Parent(_Pnode)));

	mov	rcx, QWORD PTR [rax+8]
	mov	rdx, QWORD PTR [rcx+8]

; 1925 : 
; 1926 : 	template<class _Moveit>
; 1927 : 		void _Copy(const _Myt& _Right,
; 1928 : 			_Moveit _Movefl)
; 1929 : 		{	// copy or move entire tree from _Right
; 1930 : 		_Root() = _Copy_nodes(_Right._Root(), this->_Myhead, _Movefl);
; 1931 : 		this->_Mysize = _Right.size();
; 1932 : 		if (!this->_Isnil(_Root()))
; 1933 : 			{	// nonempty tree, look for new smallest and largest
; 1934 : 			_Lmost() = this->_Min(_Root());
; 1935 : 			_Rmost() = this->_Max(_Root());
; 1936 : 			}
; 1937 : 		else
; 1938 : 			{	// empty tree, just tidy head pointers
; 1939 : 			_Lmost() = this->_Myhead;
; 1940 : 			_Rmost() = this->_Myhead;
; 1941 : 			}
; 1942 : 		}
; 1943 : 
; 1944 : 	template<class _Want_to_move,
; 1945 : 		class _Can_move,
; 1946 : 		class _Is_set,
; 1947 : 		class _Dummy>
; 1948 : 		_Nodeptr _Copy_or_move(_Nodeptr _Rootnode, _Want_to_move,
; 1949 : 			_Can_move, _Is_set, _Dummy)
; 1950 : 		{	// copy to new node -- nonmovable
; 1951 : 		return (this->_Buynode(this->_Myval(_Rootnode)));
; 1952 : 		}
; 1953 : 
; 1954 : 	template<class _Dummy>
; 1955 : 		_Nodeptr _Copy_or_move(_Nodeptr _Rootnode, true_type,
; 1956 : 			true_type, true_type, _Dummy)
; 1957 : 		{	// move to new node -- movable, set
; 1958 : 		return (this->_Buynode(
; 1959 : 			_STD forward<value_type>(this->_Myval(_Rootnode))));
; 1960 : 		}
; 1961 : 
; 1962 : 	template<class _Dummy>
; 1963 : 		_Nodeptr _Copy_or_move(_Nodeptr _Rootnode, true_type,
; 1964 : 			true_type, false_type, _Dummy)
; 1965 : 		{	// move to new node -- movable, map
; 1966 : 		return (this->_Buynode(
; 1967 : 			_STD forward<key_type>(const_cast<key_type&>(
; 1968 : 				this->_Myval(_Rootnode).first)),
; 1969 : 			_STD forward<typename value_type::second_type>(this->_Myval(
; 1970 : 				_Rootnode).second)));
; 1971 : 		}
; 1972 : 
; 1973 : 	template<class _Moveit>
; 1974 : 		_Nodeptr _Copy_nodes(_Nodeptr _Rootnode, _Nodeptr _Wherenode,
; 1975 : 			_Moveit _Movefl)
; 1976 : 		{	// copy entire subtree, recursively
; 1977 : 		_Nodeptr _Newroot = this->_Myhead;	// point at nil node
; 1978 : 
; 1979 : 		if (!this->_Isnil(_Rootnode))
; 1980 : 			{	// copy or move a node, then any subtrees
; 1981 : 			_Nodeptr _Pnode = _Copy_or_move(_Rootnode, _Movefl,
; 1982 : 				typename is_move_constructible<value_type>::type(),
; 1983 : 				typename is_same<key_type, value_type>::type(), 0);
; 1984 : 			_Pnode->_Parent = _Wherenode;
; 1985 : 			_Pnode->_Color = this->_Color(_Rootnode);
; 1986 : 			if (this->_Isnil(_Newroot))
; 1987 : 				_Newroot = _Pnode;	// memorize new root
; 1988 : 
; 1989 : 			_TRY_BEGIN
; 1990 : 			this->_Left(_Pnode) =
; 1991 : 				_Copy_nodes(this->_Left(_Rootnode), _Pnode, _Movefl);
; 1992 : 			this->_Right(_Pnode) =
; 1993 : 				_Copy_nodes(this->_Right(_Rootnode), _Pnode, _Movefl);
; 1994 : 			_CATCH_ALL
; 1995 : 			_Erase(_Newroot);	// subtree copy failed, bail out
; 1996 : 			_RERAISE;
; 1997 : 			_CATCH_END
; 1998 : 			}
; 1999 : 
; 2000 : 		return (_Newroot);	// return newly constructed tree
; 2001 : 		}
; 2002 : 
; 2003 : 	_Paircc _Eqrange(const key_type& _Keyval) const
; 2004 : 		{	// find leftmost node not less than _Keyval
; 2005 : 		_Nodeptr _Pnode = _Root();
; 2006 : 		_Nodeptr _Lonode = this->_Myhead;	// end() if search fails
; 2007 : 		_Nodeptr _Hinode = this->_Myhead;	// end() if search fails
; 2008 : 
; 2009 : 		while (!this->_Isnil(_Pnode))
; 2010 : 			if (_DEBUG_LT_PRED(this->_Getcomp(), this->_Key(_Pnode), _Keyval))
; 2011 : 				_Pnode = this->_Right(_Pnode);	// descend right subtree
; 2012 : 			else
; 2013 : 				{	// _Pnode not less than _Keyval, remember it
; 2014 : 				if (this->_Isnil(_Hinode)
; 2015 : 						&& _DEBUG_LT_PRED(this->_Getcomp(), _Keyval,
; 2016 : 						this->_Key(_Pnode)))
; 2017 : 					_Hinode = _Pnode;	// _Pnode greater, remember it
; 2018 : 				_Lonode = _Pnode;
; 2019 : 				_Pnode = this->_Left(_Pnode);	// descend left subtree
; 2020 : 				}
; 2021 : 
; 2022 : 		_Pnode = this->_Isnil(_Hinode) ? _Root()
; 2023 : 			: this->_Left(_Hinode);	// continue scan for upper bound
; 2024 : 		while (!this->_Isnil(_Pnode))
; 2025 : 			if (_DEBUG_LT_PRED(this->_Getcomp(), _Keyval, this->_Key(_Pnode)))
; 2026 : 				{	// _Pnode greater than _Keyval, remember it
; 2027 : 				_Hinode = _Pnode;
; 2028 : 				_Pnode = this->_Left(_Pnode);	// descend left subtree
; 2029 : 				}
; 2030 : 			else
; 2031 : 				_Pnode = this->_Right(_Pnode);	// descend right subtree
; 2032 : 
; 2033 : 		const_iterator _First = const_iterator(_Lonode, this);
; 2034 : 		const_iterator _Last = const_iterator(_Hinode, this);
; 2035 : 		return (_Paircc(_First, _Last));
; 2036 : 		}
; 2037 : 
; 2038 : 	_Pairii _Eqrange(const key_type& _Keyval)
; 2039 : 		{	// find leftmost node not less than _Keyval
; 2040 : 		_Nodeptr _Pnode = _Root();
; 2041 : 		_Nodeptr _Lonode = this->_Myhead;	// end() if search fails
; 2042 : 		_Nodeptr _Hinode = this->_Myhead;	// end() if search fails
; 2043 : 
; 2044 : 		while (!this->_Isnil(_Pnode))
; 2045 : 			if (_DEBUG_LT_PRED(this->_Getcomp(), this->_Key(_Pnode), _Keyval))
; 2046 : 				_Pnode = this->_Right(_Pnode);	// descend right subtree
; 2047 : 			else
; 2048 : 				{	// _Pnode not less than _Keyval, remember it
; 2049 : 				if (this->_Isnil(_Hinode)
; 2050 : 						&& _DEBUG_LT_PRED(this->_Getcomp(), _Keyval,
; 2051 : 						 this->_Key(_Pnode)))
; 2052 : 					_Hinode = _Pnode;	// _Pnode greater, remember it
; 2053 : 				_Lonode = _Pnode;
; 2054 : 				_Pnode = this->_Left(_Pnode);	// descend left subtree
; 2055 : 				}
; 2056 : 
; 2057 : 		_Pnode = this->_Isnil(_Hinode) ? _Root()
; 2058 : 			: this->_Left(_Hinode);	// continue scan for upper bound
; 2059 : 		while (!this->_Isnil(_Pnode))
; 2060 : 			if (_DEBUG_LT_PRED(this->_Getcomp(), _Keyval, this->_Key(_Pnode)))
; 2061 : 				{	// _Pnode greater than _Keyval, remember it
; 2062 : 				_Hinode = _Pnode;
; 2063 : 				_Pnode = this->_Left(_Pnode);	// descend left subtree
; 2064 : 				}
; 2065 : 			else
; 2066 : 				_Pnode = this->_Right(_Pnode);	// descend right subtree
; 2067 : 
; 2068 : 		iterator _First = iterator(_Lonode, this);
; 2069 : 		iterator _Last = iterator(_Hinode, this);
; 2070 : 		return (_Pairii(_First, _Last));
; 2071 : 		}
; 2072 : 
; 2073 : 	void _Erase(_Nodeptr _Rootnode)
; 2074 : 		{	// free entire subtree, recursively
; 2075 : 		for (_Nodeptr _Pnode = _Rootnode;
; 2076 : 			!this->_Isnil(_Pnode); _Rootnode = _Pnode)
; 2077 : 			{	// free subtrees, then node
; 2078 : 			_Erase(this->_Right(_Pnode));
; 2079 : 			_Pnode = this->_Left(_Pnode);
; 2080 : 			this->_Getal().destroy(
; 2081 : 				_STD addressof(this->_Myval(_Rootnode)));
; 2082 : 
; 2083 : 			this->_Getal().deallocate(_Rootnode, 1);
; 2084 : 			}
; 2085 : 		}
; 2086 : 
; 2087 : 	_Nodeptr _Lbound(const key_type& _Keyval) const
; 2088 : 		{	// find leftmost node not less than _Keyval
; 2089 : 		_Nodeptr _Pnode = _Root();
; 2090 : 		_Nodeptr _Wherenode = this->_Myhead;	// end() if search fails
; 2091 : 
; 2092 : 		while (!this->_Isnil(_Pnode))
; 2093 : 			if (_DEBUG_LT_PRED(this->_Getcomp(), this->_Key(_Pnode), _Keyval))
; 2094 : 				_Pnode = this->_Right(_Pnode);	// descend right subtree
; 2095 : 			else
; 2096 : 				{	// _Pnode not less than _Keyval, remember it
; 2097 : 				_Wherenode = _Pnode;
; 2098 : 				_Pnode = this->_Left(_Pnode);	// descend left subtree
; 2099 : 				}
; 2100 : 
; 2101 : 		return (_Wherenode);	// return best remembered candidate
; 2102 : 		}
; 2103 : 
; 2104 : 	_Nodeptr _Lbound(const key_type& _Keyval)
; 2105 : 		{	// find leftmost node not less than _Keyval
; 2106 : 		_Nodeptr _Pnode = _Root();
; 2107 : 		_Nodeptr _Wherenode = this->_Myhead;	// end() if search fails
; 2108 : 
; 2109 : 		while (!this->_Isnil(_Pnode))
; 2110 : 			if (_DEBUG_LT_PRED(this->_Getcomp(), this->_Key(_Pnode), _Keyval))
; 2111 : 				_Pnode = this->_Right(_Pnode);	// descend right subtree
; 2112 : 			else
; 2113 : 				{	// _Pnode not less than _Keyval, remember it
; 2114 : 				_Wherenode = _Pnode;
; 2115 : 				_Pnode = this->_Left(_Pnode);	// descend left subtree
; 2116 : 				}
; 2117 : 
; 2118 : 		return (_Wherenode);	// return best remembered candidate
; 2119 : 		}
; 2120 : 
; 2121 : 	_Nodeptr& _Lmost() const
; 2122 : 		{	// return leftmost node in nonmutable tree
; 2123 : 		return (this->_Left(this->_Myhead));
; 2124 : 		}
; 2125 : 
; 2126 : 	void _Lrotate(_Nodeptr _Wherenode)
; 2127 : 		{	// promote right node to root of subtree
; 2128 : 		_Nodeptr _Pnode = this->_Right(_Wherenode);

	mov	r8, QWORD PTR [rdx+16]

; 2129 : 		this->_Right(_Wherenode) = this->_Left(_Pnode);

	mov	rcx, QWORD PTR [r8]
	mov	QWORD PTR [rdx+16], rcx

; 45   : 		this->_Adopt(_Plist);
; 46   : 		}
; 47   : 
; 48   : 	reference operator*() const
; 49   : 		{	// return designated value
; 50   : 		return (_Mytree::_Myval(_Ptr));
; 51   : 		}
; 52   : 
; 53   : 	pointer operator->() const
; 54   : 		{	// return pointer to class object
; 55   : 		return (_STD pointer_traits<pointer>::pointer_to(**this));
; 56   : 		}
; 57   : 
; 58   : 	_Myiter& operator++()
; 59   : 		{	// preincrement
; 60   : 		if (_Mytree::_Isnil(_Ptr))
; 61   : 			;	// end() shouldn't be incremented, don't move
; 62   : 		else if (!_Mytree::_Isnil(_Mytree::_Right(_Ptr)))
; 63   : 			_Ptr = _Mytree::_Min(
; 64   : 				_Mytree::_Right(_Ptr));	// ==> smallest of right subtree
; 65   : 		else
; 66   : 			{	// climb looking for right subtree
; 67   : 			_Nodeptr _Pnode;
; 68   : 			while (!_Mytree::_Isnil(_Pnode = _Mytree::_Parent(_Ptr))
; 69   : 				&& _Ptr == _Mytree::_Right(_Pnode))
; 70   : 				_Ptr = _Pnode;	// ==> parent while right subtree
; 71   : 			_Ptr = _Pnode;	// ==> parent (head if end())
; 72   : 			}
; 73   : 		return (*this);
; 74   : 		}
; 75   : 
; 76   : 	_Myiter operator++(int)
; 77   : 		{	// postincrement
; 78   : 		_Myiter _Tmp = *this;
; 79   : 		++*this;
; 80   : 		return (_Tmp);
; 81   : 		}
; 82   : 
; 83   : 	_Myiter& operator--()
; 84   : 		{	// predecrement
; 85   : 		if (_Mytree::_Isnil(_Ptr))
; 86   : 			_Ptr = _Mytree::_Right(_Ptr);	// end() ==> rightmost
; 87   : 		else if (!_Mytree::_Isnil(_Mytree::_Left(_Ptr)))
; 88   : 			_Ptr = _Mytree::_Max(
; 89   : 				_Mytree::_Left(_Ptr));	// ==> largest of left subtree
; 90   : 		else
; 91   : 			{	// climb looking for left subtree
; 92   : 			_Nodeptr _Pnode;
; 93   : 			while (!_Mytree::_Isnil(_Pnode = _Mytree::_Parent(_Ptr))
; 94   : 				&& _Ptr == _Mytree::_Left(_Pnode))
; 95   : 				_Ptr = _Pnode;	// ==> parent while left subtree
; 96   : 			if (_Mytree::_Isnil(_Ptr))
; 97   : 				;	// begin() shouldn't be decremented, don't move
; 98   : 			else
; 99   : 				_Ptr = _Pnode;	// ==> parent if not head
; 100  : 			}
; 101  : 		return (*this);
; 102  : 		}
; 103  : 
; 104  : 	_Myiter operator--(int)
; 105  : 		{	// postdecrement
; 106  : 		_Myiter _Tmp = *this;
; 107  : 		--*this;
; 108  : 		return (_Tmp);
; 109  : 		}
; 110  : 
; 111  : 	bool operator==(const _Myiter& _Right) const
; 112  : 		{	// test for iterator equality
; 113  : 		return (_Ptr == _Right._Ptr);
; 114  : 		}
; 115  : 
; 116  : 	bool operator!=(const _Myiter& _Right) const
; 117  : 		{	// test for iterator inequality
; 118  : 		return (!(*this == _Right));
; 119  : 		}
; 120  : 
; 121  : 	_Nodeptr _Mynode() const
; 122  : 		{	// return node pointer
; 123  : 		return (_Ptr);
; 124  : 		}
; 125  : 
; 126  : 	_Nodeptr _Ptr;	// pointer to node
; 127  : 	};
; 128  : 
; 129  : 	// TEMPLATE CLASS _Tree_unchecked_iterator
; 130  : template<class _Mytree>
; 131  : 	class _Tree_unchecked_iterator
; 132  : 		: public _Tree_unchecked_const_iterator<_Mytree>
; 133  : 	{	// unchecked iterator for mutable tree
; 134  : public:
; 135  : 	typedef _Tree_unchecked_iterator<_Mytree> _Myiter;
; 136  : 	typedef _Tree_unchecked_const_iterator<_Mytree> _Mybase;
; 137  : 	typedef bidirectional_iterator_tag iterator_category;
; 138  : 
; 139  : 	typedef typename _Mytree::_Nodeptr _Nodeptr;
; 140  : 	typedef typename _Mytree::value_type value_type;
; 141  : 	typedef typename _Mytree::difference_type difference_type;
; 142  : 	typedef typename _Mytree::pointer pointer;
; 143  : 	typedef typename _Mytree::reference reference;
; 144  : 
; 145  : 	_Tree_unchecked_iterator()
; 146  : 		{	// construct with null node
; 147  : 		}
; 148  : 
; 149  : 	_Tree_unchecked_iterator(_Nodeptr _Pnode, const _Mytree *_Plist)
; 150  : 		: _Mybase(_Pnode, _Plist)
; 151  : 		{	// construct with node pointer _Pnode
; 152  : 		}
; 153  : 
; 154  : 	reference operator*() const
; 155  : 		{	// return designated value
; 156  : 		return ((reference)**(_Mybase *)this);
; 157  : 		}
; 158  : 
; 159  : 	pointer operator->() const
; 160  : 		{	// return pointer to class object
; 161  : 		return (_STD pointer_traits<pointer>::pointer_to(**this));
; 162  : 		}
; 163  : 
; 164  : 	_Myiter& operator++()
; 165  : 		{	// preincrement
; 166  : 		++(*(_Mybase *)this);
; 167  : 		return (*this);
; 168  : 		}
; 169  : 
; 170  : 	_Myiter operator++(int)
; 171  : 		{	// postincrement
; 172  : 		_Myiter _Tmp = *this;
; 173  : 		++*this;
; 174  : 		return (_Tmp);
; 175  : 		}
; 176  : 
; 177  : 	_Myiter& operator--()
; 178  : 		{	// predecrement
; 179  : 		--(*(_Mybase *)this);
; 180  : 		return (*this);
; 181  : 		}
; 182  : 
; 183  : 	_Myiter operator--(int)
; 184  : 		{	// postdecrement
; 185  : 		_Myiter _Tmp = *this;
; 186  : 		--*this;
; 187  : 		return (_Tmp);
; 188  : 		}
; 189  : 	};
; 190  : 
; 191  : 	// TEMPLATE CLASS _Tree_const_iterator
; 192  : template<class _Mytree>
; 193  : 	class _Tree_const_iterator
; 194  : 		: public _Tree_unchecked_const_iterator<_Mytree, _Iterator_base>
; 195  : 	{	// iterator for nonmutable tree
; 196  : public:
; 197  : 	typedef _Tree_const_iterator<_Mytree> _Myiter;
; 198  : 	typedef _Tree_unchecked_const_iterator<_Mytree, _Iterator_base> _Mybase;
; 199  : 	typedef bidirectional_iterator_tag iterator_category;
; 200  : 
; 201  : 	typedef typename _Mytree::_Nodeptr _Nodeptr;
; 202  : 	typedef typename _Mytree::value_type value_type;
; 203  : 	typedef typename _Mytree::difference_type difference_type;
; 204  : 	typedef typename _Mytree::const_pointer pointer;
; 205  : 	typedef typename _Mytree::const_reference reference;
; 206  : 
; 207  : 	_Tree_const_iterator()
; 208  : 		: _Mybase()
; 209  : 		{	// construct with null node pointer
; 210  : 		}
; 211  : 
; 212  : 	_Tree_const_iterator(_Nodeptr _Pnode, const _Mytree *_Plist)
; 213  : 		: _Mybase(_Pnode, _Plist)
; 214  : 		{	// construct with node pointer _Pnode
; 215  : 		}
; 216  : 
; 217  : 	typedef _Tree_unchecked_const_iterator<_Mytree> _Unchecked_type;
; 218  : 
; 219  : 	_Myiter& _Rechecked(_Unchecked_type _Right)
; 220  : 		{	// reset from unchecked iterator
; 221  : 		this->_Ptr = _Right._Ptr;
; 222  : 		return (*this);
; 223  : 		}
; 224  : 
; 225  : 	_Unchecked_type _Unchecked() const
; 226  : 		{	// make an unchecked iterator
; 227  : 		return (_Unchecked_type(this->_Ptr, (_Mytree *)this->_Getcont()));
; 228  : 		}
; 229  : 
; 230  : 	reference operator*() const
; 231  : 		{	// return designated value
; 232  :  #if _ITERATOR_DEBUG_LEVEL == 2
; 233  : 		if (this->_Getcont() == 0
; 234  : 			|| this->_Ptr == 0
; 235  : 			|| this->_Ptr == ((_Mytree *)this->_Getcont())->_Myhead)
; 236  : 			{	// report error
; 237  : 			_DEBUG_ERROR("map/set iterator not dereferencable");
; 238  : 			_SCL_SECURE_OUT_OF_RANGE;
; 239  : 			}
; 240  : 
; 241  :  #elif _ITERATOR_DEBUG_LEVEL == 1
; 242  : 		_SCL_SECURE_VALIDATE(this->_Getcont() != 0 && this->_Ptr != 0);
; 243  : 		_SCL_SECURE_VALIDATE_RANGE(this->_Ptr !=
; 244  : 			((_Mytree *)this->_Getcont())->_Myhead);
; 245  :  #endif /* _ITERATOR_DEBUG_LEVEL */
; 246  : 
; 247  : 		return (_Mytree::_Myval(this->_Ptr));
; 248  : 		}
; 249  : 
; 250  : 	pointer operator->() const
; 251  : 		{	// return pointer to class object
; 252  : 		return (_STD pointer_traits<pointer>::pointer_to(**this));
; 253  : 		}
; 254  : 
; 255  : 	_Myiter& operator++()
; 256  : 		{	// preincrement
; 257  :  #if _ITERATOR_DEBUG_LEVEL == 2
; 258  : 		if (this->_Getcont() == 0
; 259  : 			|| this->_Ptr == 0
; 260  : 			|| _Mytree::_Isnil(this->_Ptr))
; 261  : 			{	// report error
; 262  : 			_DEBUG_ERROR("map/set iterator not incrementable");
; 263  : 			_SCL_SECURE_OUT_OF_RANGE;
; 264  : 			}
; 265  : 
; 266  :  #elif _ITERATOR_DEBUG_LEVEL == 1
; 267  : 		_SCL_SECURE_VALIDATE(this->_Getcont() != 0 && this->_Ptr != 0);
; 268  : 		_SCL_SECURE_VALIDATE_RANGE(!_Mytree::_Isnil(this->_Ptr));
; 269  :  #endif /* _ITERATOR_DEBUG_LEVEL */
; 270  : 
; 271  : 		++(*(_Mybase *)this);
; 272  : 		return (*this);
; 273  : 		}
; 274  : 
; 275  : 	_Myiter operator++(int)
; 276  : 		{	// postincrement
; 277  : 		_Myiter _Tmp = *this;
; 278  : 		++*this;
; 279  : 		return (_Tmp);
; 280  : 		}
; 281  : 
; 282  : 	_Myiter& operator--()
; 283  : 		{	// predecrement
; 284  :  #if _ITERATOR_DEBUG_LEVEL == 2
; 285  : 		if (this->_Getcont() == 0
; 286  : 			|| this->_Ptr == 0)
; 287  : 			{	// report error
; 288  : 			_DEBUG_ERROR("map/set iterator not decrementable");
; 289  : 			_SCL_SECURE_OUT_OF_RANGE;
; 290  : 			}
; 291  : 
; 292  : 		_Nodeptr _Ptrsav = this->_Ptr;
; 293  : 		--(*(_Mybase *)this);
; 294  : 		if (_Ptrsav == this->_Ptr)
; 295  : 			{	// report error
; 296  : 			_DEBUG_ERROR("map/set iterator not decrementable");
; 297  : 			_SCL_SECURE_OUT_OF_RANGE;
; 298  : 			}
; 299  : 
; 300  :  #elif _ITERATOR_DEBUG_LEVEL == 1
; 301  : 		_SCL_SECURE_VALIDATE(this->_Getcont() != 0 && this->_Ptr != 0);
; 302  : 
; 303  : 		_Nodeptr _Ptrsav = this->_Ptr;
; 304  : 		--(*(_Mybase *)this);
; 305  : 		_SCL_SECURE_VALIDATE(_Ptrsav != this->_Ptr);
; 306  : 
; 307  :  #else /* _ITERATOR_DEBUG_LEVEL == 0 */
; 308  : 		--(*(_Mybase *)this);
; 309  :  #endif /* _ITERATOR_DEBUG_LEVEL */
; 310  : 
; 311  : 		return (*this);
; 312  : 		}
; 313  : 
; 314  : 	_Myiter operator--(int)
; 315  : 		{	// postdecrement
; 316  : 		_Myiter _Tmp = *this;
; 317  : 		--*this;
; 318  : 		return (_Tmp);
; 319  : 		}
; 320  : 
; 321  : 	bool operator==(const _Myiter& _Right) const
; 322  : 		{	// test for iterator equality
; 323  :  #if _ITERATOR_DEBUG_LEVEL == 2
; 324  : 		if (this->_Getcont() == 0
; 325  : 			|| this->_Getcont() != _Right._Getcont())
; 326  : 			{	// report error
; 327  : 			_DEBUG_ERROR("map/set iterators incompatible");
; 328  : 			_SCL_SECURE_INVALID_ARGUMENT;
; 329  : 			}
; 330  : 
; 331  :  #elif _ITERATOR_DEBUG_LEVEL == 1
; 332  : 		_SCL_SECURE_VALIDATE(this->_Getcont() != 0
; 333  : 			&& this->_Getcont() == _Right._Getcont());
; 334  :  #endif /* _ITERATOR_DEBUG_LEVEL */
; 335  : 
; 336  : 		return (this->_Ptr == _Right._Ptr);
; 337  : 		}
; 338  : 
; 339  : 	bool operator!=(const _Myiter& _Right) const
; 340  : 		{	// test for iterator inequality
; 341  : 		return (!(*this == _Right));
; 342  : 		}
; 343  : 	};
; 344  : 
; 345  : template<class _Mytree> inline
; 346  : 	typename _Tree_const_iterator<_Mytree>::_Unchecked_type
; 347  : 		_Unchecked(_Tree_const_iterator<_Mytree> _Iter)
; 348  : 	{	// convert to unchecked
; 349  : 	return (_Iter._Unchecked());
; 350  : 	}
; 351  : 
; 352  : template<class _Mytree> inline
; 353  : 	_Tree_const_iterator<_Mytree>&
; 354  : 		_Rechecked(_Tree_const_iterator<_Mytree>& _Iter,
; 355  : 			typename _Tree_const_iterator<_Mytree>
; 356  : 				::_Unchecked_type _Right)
; 357  : 	{	// convert to checked
; 358  : 	return (_Iter._Rechecked(_Right));
; 359  : 	}
; 360  : 
; 361  : 	// TEMPLATE CLASS _Tree_iterator
; 362  : template<class _Mytree>
; 363  : 	class _Tree_iterator
; 364  : 		: public _Tree_const_iterator<_Mytree>
; 365  : 	{	// iterator for mutable tree
; 366  : public:
; 367  : 	typedef _Tree_iterator<_Mytree> _Myiter;
; 368  : 	typedef _Tree_const_iterator<_Mytree> _Mybase;
; 369  : 	typedef bidirectional_iterator_tag iterator_category;
; 370  : 
; 371  : 	typedef typename _Mytree::_Nodeptr _Nodeptr;
; 372  : 	typedef typename _Mytree::value_type value_type;
; 373  : 	typedef typename _Mytree::difference_type difference_type;
; 374  : 
; 375  : 	typedef typename _Mytree::pointer pointer;
; 376  : 	typedef typename _Mytree::reference reference;
; 377  : 
; 378  : 	_Tree_iterator()
; 379  : 		{	// construct with null node
; 380  : 		}
; 381  : 
; 382  : 	_Tree_iterator(_Nodeptr _Pnode, const _Mytree *_Plist)
; 383  : 		: _Mybase(_Pnode, _Plist)
; 384  : 		{	// construct with node pointer _Pnode
; 385  : 		}
; 386  : 
; 387  : 	typedef _Tree_unchecked_iterator<_Mytree> _Unchecked_type;
; 388  : 
; 389  : 	_Myiter& _Rechecked(_Unchecked_type _Right)
; 390  : 		{	// reset from unchecked iterator
; 391  : 		this->_Ptr = _Right._Ptr;
; 392  : 		return (*this);
; 393  : 		}
; 394  : 
; 395  : 	_Unchecked_type _Unchecked() const
; 396  : 		{	// make an unchecked iterator
; 397  : 		return (_Unchecked_type(this->_Ptr, (_Mytree *)this->_Getcont()));
; 398  : 		}
; 399  : 
; 400  : 	reference operator*() const
; 401  : 		{	// return designated value
; 402  : 		return ((reference)**(_Mybase *)this);
; 403  : 		}
; 404  : 
; 405  : 	pointer operator->() const
; 406  : 		{	// return pointer to class object
; 407  : 		return (_STD pointer_traits<pointer>::pointer_to(**this));
; 408  : 		}
; 409  : 
; 410  : 	_Myiter& operator++()
; 411  : 		{	// preincrement
; 412  : 		++(*(_Mybase *)this);
; 413  : 		return (*this);
; 414  : 		}
; 415  : 
; 416  : 	_Myiter operator++(int)
; 417  : 		{	// postincrement
; 418  : 		_Myiter _Tmp = *this;
; 419  : 		++*this;
; 420  : 		return (_Tmp);
; 421  : 		}
; 422  : 
; 423  : 	_Myiter& operator--()
; 424  : 		{	// predecrement
; 425  : 		--(*(_Mybase *)this);
; 426  : 		return (*this);
; 427  : 		}
; 428  : 
; 429  : 	_Myiter operator--(int)
; 430  : 		{	// postdecrement
; 431  : 		_Myiter _Tmp = *this;
; 432  : 		--*this;
; 433  : 		return (_Tmp);
; 434  : 		}
; 435  : 	};
; 436  : 
; 437  : template<class _Mytree> inline
; 438  : 	typename _Tree_iterator<_Mytree>::_Unchecked_type
; 439  : 		_Unchecked(_Tree_iterator<_Mytree> _Iter)
; 440  : 	{	// convert to unchecked
; 441  : 	return (_Iter._Unchecked());
; 442  : 	}
; 443  : 
; 444  : template<class _Mytree> inline
; 445  : 	_Tree_iterator<_Mytree>&
; 446  : 		_Rechecked(_Tree_iterator<_Mytree>& _Iter,
; 447  : 			typename _Tree_iterator<_Mytree>
; 448  : 				::_Unchecked_type _Right)
; 449  : 	{	// convert to checked
; 450  : 	return (_Iter._Rechecked(_Right));
; 451  : 	}
; 452  : 
; 453  : 		// tree TYPE WRAPPERS
; 454  : template<class _Value_type,
; 455  : 	class _Size_type,
; 456  : 	class _Difference_type,
; 457  : 	class _Pointer,
; 458  : 	class _Const_pointer,
; 459  : 	class _Reference,
; 460  : 	class _Const_reference,
; 461  : 	class _Nodeptr_type>
; 462  : 	struct _Tree_iter_types
; 463  : 	{	// wraps types needed by iterators
; 464  : 	typedef _Value_type value_type;
; 465  : 	typedef _Size_type size_type;
; 466  : 	typedef _Difference_type difference_type;
; 467  : 	typedef _Pointer pointer;
; 468  : 	typedef _Const_pointer const_pointer;
; 469  : 	typedef _Reference reference;
; 470  : 	typedef _Const_reference const_reference;
; 471  : 	typedef _Nodeptr_type _Nodeptr;
; 472  : 	};
; 473  : 
; 474  : template<class _Value_type,
; 475  : 	class _Voidptr>
; 476  : 	struct _Tree_node
; 477  : 		{	// tree node
; 478  : 		_Voidptr _Left;	// left subtree, or smallest element if head
; 479  : 		_Voidptr _Parent;	// parent, or root of tree if head
; 480  : 		_Voidptr _Right;	// right subtree, or largest element if head
; 481  : 		char _Color;	// _Red or _Black, _Black if head
; 482  : 		char _Isnil;	// true only if head (also nil) node
; 483  : 		_Value_type _Myval;	// the stored value, unused if head
; 484  : 
; 485  : 	private:
; 486  : 		_Tree_node& operator=(const _Tree_node&);
; 487  : 		};
; 488  : 
; 489  : template<class _Value_type>
; 490  : 	struct _Tree_node<_Value_type, void *>
; 491  : 		{	// tree node
; 492  : 		typedef _Tree_node<_Value_type, void *> *_Nodeptr;
; 493  : 		_Nodeptr _Left;	// left subtree, or smallest element if head
; 494  : 		_Nodeptr _Parent;	// parent, or root of tree if head
; 495  : 		_Nodeptr _Right;	// right subtree, or largest element if head
; 496  : 		char _Color;	// _Red or _Black, _Black if head
; 497  : 		char _Isnil;	// true only if head (also nil) node
; 498  : 		_Value_type _Myval;	// the stored value, unused if head
; 499  : 
; 500  : 	private:
; 501  : 		_Tree_node& operator=(const _Tree_node&);
; 502  : 		};
; 503  : 
; 504  : template<class _Ty>
; 505  : 	struct _Tree_simple_types
; 506  : 		: public _Simple_types<_Ty>
; 507  : 	{	// wraps types needed by iterators
; 508  : 	typedef _Tree_node<_Ty, void *> _Node;
; 509  : 	typedef _Node *_Nodeptr;
; 510  : 	};
; 511  : 
; 512  : template<class _Ty,
; 513  : 	class _Alloc0>
; 514  : 	struct _Tree_base_types
; 515  : 	{	// types needed for a container base
; 516  : 	typedef _Alloc0 _Alloc;
; 517  : 	typedef _Tree_base_types<_Ty, _Alloc> _Myt;
; 518  : 
; 519  : 	typedef _Wrap_alloc<_Alloc> _Alty0;
; 520  : 	typedef typename _Alty0::template rebind<_Ty>::other _Alty;
; 521  : 
; 522  : 
; 523  : 	typedef typename _Get_voidptr<_Alty, typename _Alty::pointer>::type
; 524  : 		_Voidptr;
; 525  : 	typedef _Tree_node<typename _Alty::value_type,
; 526  : 		_Voidptr> _Node;
; 527  : 
; 528  : 	typedef typename _Alty::template rebind<_Node>::other _Alnod_type;
; 529  : 	typedef typename _Alnod_type::pointer _Nodeptr;
; 530  : 	typedef _Nodeptr& _Nodepref;
; 531  : 
; 532  : 	typedef typename _If<_Is_simple_alloc<_Alty>::value,
; 533  : 		_Tree_simple_types<typename _Alty::value_type>,
; 534  : 		_Tree_iter_types<typename _Alty::value_type,
; 535  : 			typename _Alty::size_type,
; 536  : 			typename _Alty::difference_type,
; 537  : 			typename _Alty::pointer,
; 538  : 			typename _Alty::const_pointer,
; 539  : 			typename _Alty::reference,
; 540  : 			typename _Alty::const_reference,
; 541  : 			_Nodeptr> >::type
; 542  : 		_Val_types;
; 543  : 	};
; 544  : 
; 545  : 		// TEMPLATE CLASS _Tree_val
; 546  : template<class _Val_types>
; 547  : 	class _Tree_val
; 548  : 		: public _Container_base
; 549  : 	{	// base class for tree to hold data
; 550  : public:
; 551  : 	typedef _Tree_val<_Val_types> _Myt;
; 552  : 
; 553  : 	typedef typename _Val_types::_Nodeptr _Nodeptr;
; 554  : 	typedef _Nodeptr& _Nodepref;
; 555  : 
; 556  : 	typedef typename _Val_types::value_type value_type;
; 557  : 	typedef typename _Val_types::size_type size_type;
; 558  : 	typedef typename _Val_types::difference_type difference_type;
; 559  : 	typedef typename _Val_types::pointer pointer;
; 560  : 	typedef typename _Val_types::const_pointer const_pointer;
; 561  : 	typedef typename _Val_types::reference reference;
; 562  : 	typedef typename _Val_types::const_reference const_reference;
; 563  : 
; 564  : 	typedef _Tree_const_iterator<_Myt> const_iterator;
; 565  : 	typedef _Tree_iterator<_Myt> iterator;
; 566  : 
; 567  : 	_Tree_val()
; 568  : 		{	// initialize data
; 569  : 		this->_Myhead = 0;
; 570  : 		this->_Mysize = 0;
; 571  : 		}
; 572  : 
; 573  : 	enum _Redbl
; 574  : 		{	// colors for link to parent
; 575  : 		_Red, _Black};
; 576  : 
; 577  : 	static char& _Color(_Nodeptr _Pnode)
; 578  : 		{	// return reference to color in node
; 579  : 		return ((char&)_Pnode->_Color);
; 580  : 		}
; 581  : 
; 582  : 	static char& _Isnil(_Nodeptr _Pnode)
; 583  : 		{	// return reference to nil flag in node
; 584  : 		return ((char&)_Pnode->_Isnil);

	mov	rcx, QWORD PTR [r8]

; 2130 : 
; 2131 : 		if (!this->_Isnil(this->_Left(_Pnode)))

	cmp	BYTE PTR [rcx+25], 0
	jne	SHORT $LN323@Insert_at

; 2132 : 			this->_Parent(this->_Left(_Pnode)) = _Wherenode;

	mov	QWORD PTR [rcx+8], rdx
$LN323@Insert_at:

; 2133 : 		this->_Parent(_Pnode) = this->_Parent(_Wherenode);

	mov	rcx, QWORD PTR [rdx+8]
	mov	QWORD PTR [r8+8], rcx

; 590  : 		}
; 591  : 
; 592  : 	static _Nodepref _Parent(_Nodeptr _Pnode)
; 593  : 		{	// return reference to parent pointer in node
; 594  : 		return ((_Nodepref)_Pnode->_Parent);

	mov	rcx, QWORD PTR [rbx]

; 2134 : 
; 2135 : 		if (_Wherenode == _Root())

	cmp	rdx, QWORD PTR [rcx+8]
	jne	SHORT $LN322@Insert_at

; 2136 : 			_Root() = _Pnode;

	mov	QWORD PTR [rcx+8], r8

; 2137 : 		else if (_Wherenode == this->_Left(this->_Parent(_Wherenode)))

	jmp	SHORT $LN319@Insert_at
$LN322@Insert_at:

; 585  : 		}
; 586  : 
; 587  : 	static _Nodepref _Left(_Nodeptr _Pnode)
; 588  : 		{	// return reference to left pointer in node
; 589  : 		return ((_Nodepref)_Pnode->_Left);

	mov	rcx, QWORD PTR [rdx+8]

; 2137 : 		else if (_Wherenode == this->_Left(this->_Parent(_Wherenode)))

	cmp	rdx, QWORD PTR [rcx]
	jne	SHORT $LN320@Insert_at

; 2138 : 			this->_Left(this->_Parent(_Wherenode)) = _Pnode;

	mov	QWORD PTR [rcx], r8

; 2139 : 		else

	jmp	SHORT $LN319@Insert_at
$LN320@Insert_at:

; 2140 : 			this->_Right(this->_Parent(_Wherenode)) = _Pnode;

	mov	QWORD PTR [rcx+16], r8
$LN319@Insert_at:

; 2141 : 
; 2142 : 		this->_Left(_Pnode) = _Wherenode;

	mov	QWORD PTR [r8], rdx
$LN384@Insert_at:

; 2143 : 		this->_Parent(_Wherenode) = _Pnode;

	mov	QWORD PTR [rdx+8], r8
$LN324@Insert_at:

; 1864 : 			}
; 1865 : 
; 1866 : 		for (_Nodeptr _Pnode = _Newnode;
; 1867 : 			this->_Color(this->_Parent(_Pnode)) == this->_Red; )

	mov	rcx, QWORD PTR [rax+8]
	cmp	BYTE PTR [rcx+24], 0
	je	$LL10@Insert_at
$LN9@Insert_at:

; 1919 : 					}
; 1920 : 				}
; 1921 : 
; 1922 : 		this->_Color(_Root()) = this->_Black;	// root is always black

	mov	rax, QWORD PTR [rbx]

; 1924 : 		}

	mov	rsi, QWORD PTR [rsp+56]
	mov	rdi, QWORD PTR [rsp+64]
	mov	rcx, QWORD PTR [rax+8]
	mov	rbx, QWORD PTR [rsp+48]

; 44   : 		{	// construct with node pointer _Pnode

	mov	QWORD PTR [r14], r9

; 1919 : 					}
; 1920 : 				}
; 1921 : 
; 1922 : 		this->_Color(_Root()) = this->_Black;	// root is always black

	mov	BYTE PTR [rcx+24], 1

; 1923 : 		return (iterator(_Newnode, this));

	mov	rax, r14

; 1924 : 		}

	add	rsp, 32					; 00000020H
	pop	r14
	ret	0
$LN385@Insert_at:
??$_Insert_at@AEBQEAUstr_value@@U_Nil@std@@@?$_Tree@V?$_Tset_traits@PEAUstr_value@@Ustr_value_cmp@@V?$xalloc@PEAUstr_value@@@@$00@std@@@std@@IEAA?AV?$_Tree_const_iterator@V?$_Tree_val@U?$_Tree_simple_types@PEAUstr_value@@@std@@@std@@@1@_NPEAU?$_Tree_node@PEAUstr_value@@PEAX@1@AEBQEAUstr_value@@U_Nil@1@@Z ENDP ; std::_Tree<std::_Tset_traits<str_value * __ptr64,str_value_cmp,xalloc<str_value * __ptr64>,1> >::_Insert_at<str_value * __ptr64 const & __ptr64,std::_Nil>
_TEXT	ENDS
; Function compile flags: /Ogtpy
; File c:\program files (x86)\microsoft visual studio 12.0\vc\include\utility
;	COMDAT ??$?0V?$_Tree_const_iterator@V?$_Tree_val@U?$_Tree_simple_types@PEAUstr_value@@@std@@@std@@@std@@_NX@?$pair@V?$_Tree_const_iterator@V?$_Tree_val@U?$_Tree_simple_types@PEAUstr_value@@@std@@@std@@@std@@_N@std@@QEAA@$$QEAV?$_Tree_const_iterator@V?$_Tree_val@U?$_Tree_simple_types@PEAUstr_value@@@std@@@std@@@1@$$QEA_N@Z
_TEXT	SEGMENT
this$ = 8
_Val1$ = 16
_Val2$ = 24
??$?0V?$_Tree_const_iterator@V?$_Tree_val@U?$_Tree_simple_types@PEAUstr_value@@@std@@@std@@@std@@_NX@?$pair@V?$_Tree_const_iterator@V?$_Tree_val@U?$_Tree_simple_types@PEAUstr_value@@@std@@@std@@@std@@_N@std@@QEAA@$$QEAV?$_Tree_const_iterator@V?$_Tree_val@U?$_Tree_simple_types@PEAUstr_value@@@std@@@std@@@1@$$QEA_N@Z PROC ; std::pair<std::_Tree_const_iterator<std::_Tree_val<std::_Tree_simple_types<str_value * __ptr64> > >,bool>::pair<std::_Tree_const_iterator<std::_Tree_val<std::_Tree_simple_types<str_value * __ptr64> > >,bool><std::_Tree_const_iterator<std::_Tree_val<std::_Tree_simple_types<str_value * __ptr64> > >,bool,void>, COMDAT

; 144  : 		{	// construct from moved values

	mov	rax, QWORD PTR [rdx]
	mov	QWORD PTR [rcx], rax
	movzx	eax, BYTE PTR [r8]
	mov	BYTE PTR [rcx+8], al

; 145  : 		}

	mov	rax, rcx
	ret	0
??$?0V?$_Tree_const_iterator@V?$_Tree_val@U?$_Tree_simple_types@PEAUstr_value@@@std@@@std@@@std@@_NX@?$pair@V?$_Tree_const_iterator@V?$_Tree_val@U?$_Tree_simple_types@PEAUstr_value@@@std@@@std@@@std@@_N@std@@QEAA@$$QEAV?$_Tree_const_iterator@V?$_Tree_val@U?$_Tree_simple_types@PEAUstr_value@@@std@@@std@@@1@$$QEA_N@Z ENDP ; std::pair<std::_Tree_const_iterator<std::_Tree_val<std::_Tree_simple_types<str_value * __ptr64> > >,bool>::pair<std::_Tree_const_iterator<std::_Tree_val<std::_Tree_simple_types<str_value * __ptr64> > >,bool><std::_Tree_const_iterator<std::_Tree_val<std::_Tree_simple_types<str_value * __ptr64> > >,bool,void>
_TEXT	ENDS
; Function compile flags: /Ogtpy
; File c:\program files (x86)\microsoft visual studio 12.0\vc\include\utility
;	COMDAT ??$?0AEAV?$_Tree_const_iterator@V?$_Tree_val@U?$_Tree_simple_types@PEAUstr_value@@@std@@@std@@@std@@_NX@?$pair@V?$_Tree_const_iterator@V?$_Tree_val@U?$_Tree_simple_types@PEAUstr_value@@@std@@@std@@@std@@_N@std@@QEAA@AEAV?$_Tree_const_iterator@V?$_Tree_val@U?$_Tree_simple_types@PEAUstr_value@@@std@@@std@@@1@$$QEA_N@Z
_TEXT	SEGMENT
this$ = 8
_Val1$ = 16
_Val2$ = 24
??$?0AEAV?$_Tree_const_iterator@V?$_Tree_val@U?$_Tree_simple_types@PEAUstr_value@@@std@@@std@@@std@@_NX@?$pair@V?$_Tree_const_iterator@V?$_Tree_val@U?$_Tree_simple_types@PEAUstr_value@@@std@@@std@@@std@@_N@std@@QEAA@AEAV?$_Tree_const_iterator@V?$_Tree_val@U?$_Tree_simple_types@PEAUstr_value@@@std@@@std@@@1@$$QEA_N@Z PROC ; std::pair<std::_Tree_const_iterator<std::_Tree_val<std::_Tree_simple_types<str_value * __ptr64> > >,bool>::pair<std::_Tree_const_iterator<std::_Tree_val<std::_Tree_simple_types<str_value * __ptr64> > >,bool><std::_Tree_const_iterator<std::_Tree_val<std::_Tree_simple_types<str_value * __ptr64> > > & __ptr64,bool,void>, COMDAT

; 144  : 		{	// construct from moved values

	mov	rax, QWORD PTR [rdx]
	mov	QWORD PTR [rcx], rax
	movzx	eax, BYTE PTR [r8]
	mov	BYTE PTR [rcx+8], al

; 145  : 		}

	mov	rax, rcx
	ret	0
??$?0AEAV?$_Tree_const_iterator@V?$_Tree_val@U?$_Tree_simple_types@PEAUstr_value@@@std@@@std@@@std@@_NX@?$pair@V?$_Tree_const_iterator@V?$_Tree_val@U?$_Tree_simple_types@PEAUstr_value@@@std@@@std@@@std@@_N@std@@QEAA@AEAV?$_Tree_const_iterator@V?$_Tree_val@U?$_Tree_simple_types@PEAUstr_value@@@std@@@std@@@1@$$QEA_N@Z ENDP ; std::pair<std::_Tree_const_iterator<std::_Tree_val<std::_Tree_simple_types<str_value * __ptr64> > >,bool>::pair<std::_Tree_const_iterator<std::_Tree_val<std::_Tree_simple_types<str_value * __ptr64> > >,bool><std::_Tree_const_iterator<std::_Tree_val<std::_Tree_simple_types<str_value * __ptr64> > > & __ptr64,bool,void>
_TEXT	ENDS
; Function compile flags: /Ogtpy
; File c:\program files (x86)\microsoft visual studio 12.0\vc\include\xtree
;	COMDAT ?max_size@?$_Tree@V?$_Tset_traits@PEAUstr_value@@Ustr_value_cmp@@V?$xalloc@PEAUstr_value@@@@$00@std@@@std@@QEBA_KXZ
_TEXT	SEGMENT
this$dead$ = 8
?max_size@?$_Tree@V?$_Tset_traits@PEAUstr_value@@Ustr_value_cmp@@V?$xalloc@PEAUstr_value@@@@$00@std@@@std@@QEBA_KXZ PROC ; std::_Tree<std::_Tset_traits<str_value * __ptr64,str_value_cmp,xalloc<str_value * __ptr64>,1> >::max_size, COMDAT

; 1277 : 		return (this->_Getal().max_size());

	mov	rax, 461168601842738790			; 0666666666666666H

; 1278 : 		}

	ret	0
?max_size@?$_Tree@V?$_Tset_traits@PEAUstr_value@@Ustr_value_cmp@@V?$xalloc@PEAUstr_value@@@@$00@std@@@std@@QEBA_KXZ ENDP ; std::_Tree<std::_Tset_traits<str_value * __ptr64,str_value_cmp,xalloc<str_value * __ptr64>,1> >::max_size
_TEXT	ENDS
; Function compile flags: /Ogtpy
; File c:\program files (x86)\microsoft visual studio 12.0\vc\include\xmemory0
;	COMDAT ?max_size@?$_Wrap_alloc@V?$xalloc@U?$_Tree_node@PEAUstr_value@@PEAX@std@@@@@std@@QEBA_KXZ
_TEXT	SEGMENT
this$dead$ = 8
?max_size@?$_Wrap_alloc@V?$xalloc@U?$_Tree_node@PEAUstr_value@@PEAX@std@@@@@std@@QEBA_KXZ PROC ; std::_Wrap_alloc<xalloc<std::_Tree_node<str_value * __ptr64,void * __ptr64> > >::max_size, COMDAT

; 884  : 		return (_Mytraits::max_size(*this));

	mov	rax, 461168601842738790			; 0666666666666666H

; 885  : 		}

	ret	0
?max_size@?$_Wrap_alloc@V?$xalloc@U?$_Tree_node@PEAUstr_value@@PEAX@std@@@@@std@@QEBA_KXZ ENDP ; std::_Wrap_alloc<xalloc<std::_Tree_node<str_value * __ptr64,void * __ptr64> > >::max_size
_TEXT	ENDS
; Function compile flags: /Ogtpy
; File c:\program files (x86)\microsoft visual studio 12.0\vc\include\xmemory0
;	COMDAT ?max_size@?$allocator_traits@V?$xalloc@U?$_Tree_node@PEAUstr_value@@PEAX@std@@@@@std@@SA_KAEBV?$xalloc@U?$_Tree_node@PEAUstr_value@@PEAX@std@@@@@Z
_TEXT	SEGMENT
_Al$dead$ = 8
?max_size@?$allocator_traits@V?$xalloc@U?$_Tree_node@PEAUstr_value@@PEAX@std@@@@@std@@SA_KAEBV?$xalloc@U?$_Tree_node@PEAUstr_value@@PEAX@std@@@@@Z PROC ; std::allocator_traits<xalloc<std::_Tree_node<str_value * __ptr64,void * __ptr64> > >::max_size, COMDAT

; 481  : 		return (_Alloc_max_size::_Fn(0, _Al));

	mov	rax, 461168601842738790			; 0666666666666666H

; 482  : 		}

	ret	0
?max_size@?$allocator_traits@V?$xalloc@U?$_Tree_node@PEAUstr_value@@PEAX@std@@@@@std@@SA_KAEBV?$xalloc@U?$_Tree_node@PEAUstr_value@@PEAX@std@@@@@Z ENDP ; std::allocator_traits<xalloc<std::_Tree_node<str_value * __ptr64,void * __ptr64> > >::max_size
_TEXT	ENDS
; Function compile flags: /Ogtpy
; File c:\program files (x86)\microsoft visual studio 12.0\vc\include\xtree
;	COMDAT ??$_Buynode_if_nil@AEBQEAUstr_value@@@?$_Tree@V?$_Tset_traits@PEAUstr_value@@Ustr_value_cmp@@V?$xalloc@PEAUstr_value@@@@$00@std@@@std@@IEAAPEAU?$_Tree_node@PEAUstr_value@@PEAX@1@U_Nil@1@AEBQEAUstr_value@@@Z
_TEXT	SEGMENT
this$ = 48
__formal$dead$ = 56
_Val$ = 64
??$_Buynode_if_nil@AEBQEAUstr_value@@@?$_Tree@V?$_Tset_traits@PEAUstr_value@@Ustr_value_cmp@@V?$xalloc@PEAUstr_value@@@@$00@std@@@std@@IEAAPEAU?$_Tree_node@PEAUstr_value@@PEAX@1@U_Nil@1@AEBQEAUstr_value@@@Z PROC ; std::_Tree<std::_Tset_traits<str_value * __ptr64,str_value_cmp,xalloc<str_value * __ptr64>,1> >::_Buynode_if_nil<str_value * __ptr64 const & __ptr64>, COMDAT

; 1642 : 		_Nodeptr _Buynode_if_nil(_Nil, _Valty&& _Val)

$LN6:
	sub	rsp, 40					; 00000028H

; 1643 : 		{	// node doesn't exist, make it
; 1644 : 		return (this->_Buynode(_STD forward<_Valty>(_Val)));

	mov	rdx, r8
	call	??$_Buynode@AEBQEAUstr_value@@@?$_Tree_buy@PEAUstr_value@@V?$xalloc@PEAUstr_value@@@@@std@@QEAAPEAU?$_Tree_node@PEAUstr_value@@PEAX@1@AEBQEAUstr_value@@@Z ; std::_Tree_buy<str_value * __ptr64,xalloc<str_value * __ptr64> >::_Buynode<str_value * __ptr64 const & __ptr64>

; 1645 : 		}

	add	rsp, 40					; 00000028H
	ret	0
??$_Buynode_if_nil@AEBQEAUstr_value@@@?$_Tree@V?$_Tset_traits@PEAUstr_value@@Ustr_value_cmp@@V?$xalloc@PEAUstr_value@@@@$00@std@@@std@@IEAAPEAU?$_Tree_node@PEAUstr_value@@PEAX@1@U_Nil@1@AEBQEAUstr_value@@@Z ENDP ; std::_Tree<std::_Tset_traits<str_value * __ptr64,str_value_cmp,xalloc<str_value * __ptr64>,1> >::_Buynode_if_nil<str_value * __ptr64 const & __ptr64>
_TEXT	ENDS
; Function compile flags: /Ogtpy
; File c:\program files (x86)\microsoft visual studio 12.0\vc\include\type_traits
;	COMDAT ??$forward@V?$_Tree_const_iterator@V?$_Tree_val@U?$_Tree_simple_types@PEAUstr_value@@@std@@@std@@@std@@@std@@YA$$QEAV?$_Tree_const_iterator@V?$_Tree_val@U?$_Tree_simple_types@PEAUstr_value@@@std@@@std@@@0@AEAV10@@Z
_TEXT	SEGMENT
_Arg$ = 8
??$forward@V?$_Tree_const_iterator@V?$_Tree_val@U?$_Tree_simple_types@PEAUstr_value@@@std@@@std@@@std@@@std@@YA$$QEAV?$_Tree_const_iterator@V?$_Tree_val@U?$_Tree_simple_types@PEAUstr_value@@@std@@@std@@@0@AEAV10@@Z PROC ; std::forward<std::_Tree_const_iterator<std::_Tree_val<std::_Tree_simple_types<str_value * __ptr64> > > >, COMDAT

; 1505 : 	return (static_cast<_Ty&&>(_Arg));

	mov	rax, rcx

; 1506 : 	}

	ret	0
??$forward@V?$_Tree_const_iterator@V?$_Tree_val@U?$_Tree_simple_types@PEAUstr_value@@@std@@@std@@@std@@@std@@YA$$QEAV?$_Tree_const_iterator@V?$_Tree_val@U?$_Tree_simple_types@PEAUstr_value@@@std@@@std@@@0@AEAV10@@Z ENDP ; std::forward<std::_Tree_const_iterator<std::_Tree_val<std::_Tree_simple_types<str_value * __ptr64> > > >
_TEXT	ENDS
; Function compile flags: /Ogtpy
; File c:\program files (x86)\microsoft visual studio 12.0\vc\include\type_traits
;	COMDAT ??$forward@AEAV?$_Tree_const_iterator@V?$_Tree_val@U?$_Tree_simple_types@PEAUstr_value@@@std@@@std@@@std@@@std@@YAAEAV?$_Tree_const_iterator@V?$_Tree_val@U?$_Tree_simple_types@PEAUstr_value@@@std@@@std@@@0@AEAV10@@Z
_TEXT	SEGMENT
_Arg$ = 8
??$forward@AEAV?$_Tree_const_iterator@V?$_Tree_val@U?$_Tree_simple_types@PEAUstr_value@@@std@@@std@@@std@@@std@@YAAEAV?$_Tree_const_iterator@V?$_Tree_val@U?$_Tree_simple_types@PEAUstr_value@@@std@@@std@@@0@AEAV10@@Z PROC ; std::forward<std::_Tree_const_iterator<std::_Tree_val<std::_Tree_simple_types<str_value * __ptr64> > > & __ptr64>, COMDAT

; 1505 : 	return (static_cast<_Ty&&>(_Arg));

	mov	rax, rcx

; 1506 : 	}

	ret	0
??$forward@AEAV?$_Tree_const_iterator@V?$_Tree_val@U?$_Tree_simple_types@PEAUstr_value@@@std@@@std@@@std@@@std@@YAAEAV?$_Tree_const_iterator@V?$_Tree_val@U?$_Tree_simple_types@PEAUstr_value@@@std@@@std@@@0@AEAV10@@Z ENDP ; std::forward<std::_Tree_const_iterator<std::_Tree_val<std::_Tree_simple_types<str_value * __ptr64> > > & __ptr64>
_TEXT	ENDS
; Function compile flags: /Ogtpy
; File c:\program files (x86)\microsoft visual studio 12.0\vc\include\xmemory0
;	COMDAT ??$_Fn@V?$xalloc@U?$_Tree_node@PEAUstr_value@@PEAX@std@@@@@_Alloc_max_size@std@@SA_KHAEBV?$xalloc@U?$_Tree_node@PEAUstr_value@@PEAX@std@@@@@Z
_TEXT	SEGMENT
__formal$dead$ = 8
_Al$dead$ = 16
??$_Fn@V?$xalloc@U?$_Tree_node@PEAUstr_value@@PEAX@std@@@@@_Alloc_max_size@std@@SA_KHAEBV?$xalloc@U?$_Tree_node@PEAUstr_value@@PEAX@std@@@@@Z PROC ; std::_Alloc_max_size::_Fn<xalloc<std::_Tree_node<str_value * __ptr64,void * __ptr64> > >, COMDAT

; 381  : 		return (_Al.max_size());

	mov	rax, 461168601842738790			; 0666666666666666H

; 382  : 		}

	ret	0
??$_Fn@V?$xalloc@U?$_Tree_node@PEAUstr_value@@PEAX@std@@@@@_Alloc_max_size@std@@SA_KHAEBV?$xalloc@U?$_Tree_node@PEAUstr_value@@PEAX@std@@@@@Z ENDP ; std::_Alloc_max_size::_Fn<xalloc<std::_Tree_node<str_value * __ptr64,void * __ptr64> > >
_TEXT	ENDS
; Function compile flags: /Ogtpy
; File c:\users\nummer\documents\github\olr-3.0\src\xray\xrcore\_stl_extensions.h
;	COMDAT ?max_size@?$xalloc@U?$_Tree_node@PEAUstr_value@@PEAX@std@@@@QEBA_KXZ
_TEXT	SEGMENT
this$dead$ = 8
?max_size@?$xalloc@U?$_Tree_node@PEAUstr_value@@PEAX@std@@@@QEBA_KXZ PROC ; xalloc<std::_Tree_node<str_value * __ptr64,void * __ptr64> >::max_size, COMDAT

; 86   : 							size_type				max_size		() const								{	size_type _Count = (size_type)(-1) / sizeof (T);	return (0 < _Count ? _Count : 1);	}

	mov	rax, 461168601842738790			; 0666666666666666H
	ret	0
?max_size@?$xalloc@U?$_Tree_node@PEAUstr_value@@PEAX@std@@@@QEBA_KXZ ENDP ; xalloc<std::_Tree_node<str_value * __ptr64,void * __ptr64> >::max_size
_TEXT	ENDS
; Function compile flags: /Ogtpy
; File c:\program files (x86)\microsoft visual studio 12.0\vc\include\xtree
; File c:\program files (x86)\microsoft visual studio 12.0\vc\include\xmemory0
; File c:\program files (x86)\microsoft visual studio 12.0\vc\include\xtree
;	COMDAT ??$_Buynode@AEBQEAUstr_value@@@?$_Tree_buy@PEAUstr_value@@V?$xalloc@PEAUstr_value@@@@@std@@QEAAPEAU?$_Tree_node@PEAUstr_value@@PEAX@1@AEBQEAUstr_value@@@Z
_TEXT	SEGMENT
$T1 = 32
this$ = 64
<_Val_0>$ = 72
p$2 = 80
_Pnode$ = 80
??$_Buynode@AEBQEAUstr_value@@@?$_Tree_buy@PEAUstr_value@@V?$xalloc@PEAUstr_value@@@@@std@@QEAAPEAU?$_Tree_node@PEAUstr_value@@PEAX@1@AEBQEAUstr_value@@@Z PROC ; std::_Tree_buy<str_value * __ptr64,xalloc<str_value * __ptr64> >::_Buynode<str_value * __ptr64 const & __ptr64>, COMDAT

; 923  : 		_Nodeptr _Buynode(_Valty&&... _Val)

$LN65:
	push	rbx
	sub	rsp, 48					; 00000030H
	mov	QWORD PTR $T1[rsp], -2
	mov	rbx, rdx

; 924  : 		{	// allocate a node with defaults and set links and value
; 925  : 		_Nodeptr _Pnode = _Buynode0();

	call	?_Buynode0@?$_Tree_buy@PEAUstr_value@@V?$xalloc@PEAUstr_value@@@@@std@@QEAAPEAU?$_Tree_node@PEAUstr_value@@PEAX@2@XZ ; std::_Tree_buy<str_value * __ptr64,xalloc<str_value * __ptr64> >::_Buynode0
	mov	QWORD PTR _Pnode$[rsp], rax

; 926  : 
; 927  : 		this->_Color(_Pnode) = this->_Red;

	mov	WORD PTR [rax+24], 0

; 604  : 		return ((reference)_Pnode->_Myval);

	lea	r8, QWORD PTR [rax+32]
; File c:\program files (x86)\microsoft visual studio 12.0\vc\include\xmemory0

; 349  : 			_Objty(_STD forward<_Types>(_Args)...);

	test	r8, r8
	je	SHORT $LN32@Buynode
	mov	rcx, QWORD PTR [rbx]
	mov	QWORD PTR [r8], rcx
$LN32@Buynode:
; File c:\program files (x86)\microsoft visual studio 12.0\vc\include\xtree

; 940  : 		}

	add	rsp, 48					; 00000030H
	pop	rbx
	ret	0
$LN64@Buynode:
??$_Buynode@AEBQEAUstr_value@@@?$_Tree_buy@PEAUstr_value@@V?$xalloc@PEAUstr_value@@@@@std@@QEAAPEAU?$_Tree_node@PEAUstr_value@@PEAX@1@AEBQEAUstr_value@@@Z ENDP ; std::_Tree_buy<str_value * __ptr64,xalloc<str_value * __ptr64> >::_Buynode<str_value * __ptr64 const & __ptr64>
_TEXT	ENDS
; Function compile flags: /Ogtpy
; File c:\program files (x86)\microsoft visual studio 12.0\vc\include\xmemory0
; File c:\users\nummer\documents\github\olr-3.0\src\xray\xrcore\_stl_extensions.h
; File c:\program files (x86)\microsoft visual studio 12.0\vc\include\xtree
;	COMDAT text$x
text$x	SEGMENT
$T1 = 32
this$ = 64
<_Val_0>$ = 72
p$2 = 80
_Pnode$ = 80
?catch$0@?0???$_Buynode@AEBQEAUstr_value@@@?$_Tree_buy@PEAUstr_value@@V?$xalloc@PEAUstr_value@@@@@std@@QEAAPEAU?$_Tree_node@PEAUstr_value@@PEAX@1@AEBQEAUstr_value@@@Z@4HA PROC ; `std::_Tree_buy<str_value * __ptr64,xalloc<str_value * __ptr64> >::_Buynode<str_value * __ptr64 const & __ptr64>'::`1'::catch$0

; 934  : 		_CATCH_ALL

	mov	QWORD PTR [rsp+16], rdx
	push	rbp
	sub	rsp, 32					; 00000020H
	mov	rbp, rdx
__catch$??$_Buynode@AEBQEAUstr_value@@@?$_Tree_buy@PEAUstr_value@@V?$xalloc@PEAUstr_value@@@@@std@@QEAAPEAU?$_Tree_node@PEAUstr_value@@PEAX@1@AEBQEAUstr_value@@@Z$0:
; File c:\program files (x86)\microsoft visual studio 12.0\vc\include\xmemory0

; 858  : 		_Mybase::deallocate(_Ptr, _Count);

	mov	rax, QWORD PTR _Pnode$[rbp]
	mov	QWORD PTR p$2[rbp], rax
; File c:\users\nummer\documents\github\olr-3.0\src\xray\xrcore\_stl_extensions.h

; 82   : 							void					deallocate		(pointer p, size_type n) const			{	xr_free	(p);				}

	lea	rcx, QWORD PTR p$2[rbp]
	call	??$xr_free@U?$_Tree_node@PEAUstr_value@@PEAX@std@@@@YAXAEAPEAU?$_Tree_node@PEAUstr_value@@PEAX@std@@@Z ; xr_free<std::_Tree_node<str_value * __ptr64,void * __ptr64> >
; File c:\program files (x86)\microsoft visual studio 12.0\vc\include\xtree

; 936  : 		_RERAISE;

	xor	edx, edx
	xor	ecx, ecx
	call	_CxxThrowException
	npad	1
?catch$0@?0???$_Buynode@AEBQEAUstr_value@@@?$_Tree_buy@PEAUstr_value@@V?$xalloc@PEAUstr_value@@@@@std@@QEAAPEAU?$_Tree_node@PEAUstr_value@@PEAX@1@AEBQEAUstr_value@@@Z@4HA ENDP ; `std::_Tree_buy<str_value * __ptr64,xalloc<str_value * __ptr64> >::_Buynode<str_value * __ptr64 const & __ptr64>'::`1'::catch$0
text$x	ENDS
; Function compile flags: /Ogtpy
; File c:\program files (x86)\microsoft visual studio 12.0\vc\include\xmemory0
;	COMDAT ??$construct@PEAUstr_value@@AEBQEAU1@@?$_Wrap_alloc@V?$xalloc@U?$_Tree_node@PEAUstr_value@@PEAX@std@@@@@std@@QEAAXPEAPEAUstr_value@@AEBQEAU2@@Z
_TEXT	SEGMENT
this$dead$ = 8
_Ptr$ = 16
<_Args_0>$ = 24
??$construct@PEAUstr_value@@AEBQEAU1@@?$_Wrap_alloc@V?$xalloc@U?$_Tree_node@PEAUstr_value@@PEAX@std@@@@@std@@QEAAXPEAPEAUstr_value@@AEBQEAU2@@Z PROC ; std::_Wrap_alloc<xalloc<std::_Tree_node<str_value * __ptr64,void * __ptr64> > >::construct<str_value * __ptr64,str_value * __ptr64 const & __ptr64>, COMDAT

; 349  : 			_Objty(_STD forward<_Types>(_Args)...);

	test	rdx, rdx
	je	SHORT $LN13@construct
	mov	rax, QWORD PTR [r8]
	mov	QWORD PTR [rdx], rax
$LN13@construct:

; 869  : 			_Types&&... _Args)
; 870  : 		{	// construct _Ty(_Types...) at _Ptr
; 871  : 		_Mytraits::construct(*this, _Ptr,
; 872  : 			_STD forward<_Types>(_Args)...);
; 873  : 		}

	ret	0
??$construct@PEAUstr_value@@AEBQEAU1@@?$_Wrap_alloc@V?$xalloc@U?$_Tree_node@PEAUstr_value@@PEAX@std@@@@@std@@QEAAXPEAPEAUstr_value@@AEBQEAU2@@Z ENDP ; std::_Wrap_alloc<xalloc<std::_Tree_node<str_value * __ptr64,void * __ptr64> > >::construct<str_value * __ptr64,str_value * __ptr64 const & __ptr64>
_TEXT	ENDS
; Function compile flags: /Ogtpy
; File c:\program files (x86)\microsoft visual studio 12.0\vc\include\xmemory0
;	COMDAT ??$construct@PEAUstr_value@@AEBQEAU1@@?$allocator_traits@V?$xalloc@U?$_Tree_node@PEAUstr_value@@PEAX@std@@@@@std@@SAXAEAV?$xalloc@U?$_Tree_node@PEAUstr_value@@PEAX@std@@@@PEAPEAUstr_value@@AEBQEAU3@@Z
_TEXT	SEGMENT
_Al$dead$ = 8
_Ptr$ = 16
<_Args_0>$ = 24
??$construct@PEAUstr_value@@AEBQEAU1@@?$allocator_traits@V?$xalloc@U?$_Tree_node@PEAUstr_value@@PEAX@std@@@@@std@@SAXAEAV?$xalloc@U?$_Tree_node@PEAUstr_value@@PEAX@std@@@@PEAPEAUstr_value@@AEBQEAU3@@Z PROC ; std::allocator_traits<xalloc<std::_Tree_node<str_value * __ptr64,void * __ptr64> > >::construct<str_value * __ptr64,str_value * __ptr64 const & __ptr64>, COMDAT

; 349  : 			_Objty(_STD forward<_Types>(_Args)...);

	test	rdx, rdx
	je	SHORT $LN9@construct
	mov	rax, QWORD PTR [r8]
	mov	QWORD PTR [rdx], rax
$LN9@construct:

; 466  : 			_Types&&... _Args)
; 467  : 		{	// construct _Ty(_Types...) at _Ptr
; 468  : 		_Alloc_construct::_Fn(0, _Al, _Ptr,
; 469  : 			_STD forward<_Types>(_Args)...);
; 470  : 		}

	ret	0
??$construct@PEAUstr_value@@AEBQEAU1@@?$allocator_traits@V?$xalloc@U?$_Tree_node@PEAUstr_value@@PEAX@std@@@@@std@@SAXAEAV?$xalloc@U?$_Tree_node@PEAUstr_value@@PEAX@std@@@@PEAPEAUstr_value@@AEBQEAU3@@Z ENDP ; std::allocator_traits<xalloc<std::_Tree_node<str_value * __ptr64,void * __ptr64> > >::construct<str_value * __ptr64,str_value * __ptr64 const & __ptr64>
_TEXT	ENDS
; Function compile flags: /Ogtpy
; File c:\program files (x86)\microsoft visual studio 12.0\vc\include\xmemory0
;	COMDAT ??$_Fn@V?$xalloc@U?$_Tree_node@PEAUstr_value@@PEAX@std@@@@PEAUstr_value@@AEBQEAU2@@_Alloc_construct@std@@SAXU_Wrap_int@1@AEAV?$xalloc@U?$_Tree_node@PEAUstr_value@@PEAX@std@@@@PEAPEAUstr_value@@AEBQEAU4@@Z
_TEXT	SEGMENT
__formal$dead$ = 8
__formal$dead$ = 16
_Ptr$ = 24
<_Args_0>$ = 32
??$_Fn@V?$xalloc@U?$_Tree_node@PEAUstr_value@@PEAX@std@@@@PEAUstr_value@@AEBQEAU2@@_Alloc_construct@std@@SAXU_Wrap_int@1@AEAV?$xalloc@U?$_Tree_node@PEAUstr_value@@PEAX@std@@@@PEAPEAUstr_value@@AEBQEAU4@@Z PROC ; std::_Alloc_construct::_Fn<xalloc<std::_Tree_node<str_value * __ptr64,void * __ptr64> >,str_value * __ptr64,str_value * __ptr64 const & __ptr64>, COMDAT

; 348  : 		::new (static_cast<void *>(_Ptr))
; 349  : 			_Objty(_STD forward<_Types>(_Args)...);

	test	r8, r8
	je	SHORT $LN3@Fn
	mov	rax, QWORD PTR [r9]
	mov	QWORD PTR [r8], rax
$LN3@Fn:

; 350  : 		}

	ret	0
??$_Fn@V?$xalloc@U?$_Tree_node@PEAUstr_value@@PEAX@std@@@@PEAUstr_value@@AEBQEAU2@@_Alloc_construct@std@@SAXU_Wrap_int@1@AEAV?$xalloc@U?$_Tree_node@PEAUstr_value@@PEAX@std@@@@PEAPEAUstr_value@@AEBQEAU4@@Z ENDP ; std::_Alloc_construct::_Fn<xalloc<std::_Tree_node<str_value * __ptr64,void * __ptr64> >,str_value * __ptr64,str_value * __ptr64 const & __ptr64>
_TEXT	ENDS
END
