; Listing generated by Microsoft (R) Optimizing Compiler Version 16.00.40219.01 

include listing.inc

INCLUDELIB OLDNAMES

PUBLIC	?_Lbound@?$_Tree@V?$_Tset_traits@PEAUstr_value@@Ustr_value_cmp@@V?$xalloc@PEAUstr_value@@@@$00@std@@@std@@IEAAPEAU_Node@?$_Tree_nod@V?$_Tset_traits@PEAUstr_value@@Ustr_value_cmp@@V?$xalloc@PEAUstr_value@@@@$00@std@@@2@AEBQEAUstr_value@@@Z ; std::_Tree<std::_Tset_traits<str_value * __ptr64,str_value_cmp,xalloc<str_value * __ptr64>,1> >::_Lbound
PUBLIC	?lower_bound@?$_Tree@V?$_Tset_traits@PEAUstr_value@@Ustr_value_cmp@@V?$xalloc@PEAUstr_value@@@@$00@std@@@std@@QEAA?AV?$_Tree_const_iterator@V?$_Tree_val@V?$_Tset_traits@PEAUstr_value@@Ustr_value_cmp@@V?$xalloc@PEAUstr_value@@@@$00@std@@@std@@@2@AEBQEAUstr_value@@@Z ; std::_Tree<std::_Tset_traits<str_value * __ptr64,str_value_cmp,xalloc<str_value * __ptr64>,1> >::lower_bound
PUBLIC	?find@?$_Tree@V?$_Tset_traits@PEAUstr_value@@Ustr_value_cmp@@V?$xalloc@PEAUstr_value@@@@$00@std@@@std@@QEAA?AV?$_Tree_const_iterator@V?$_Tree_val@V?$_Tset_traits@PEAUstr_value@@Ustr_value_cmp@@V?$xalloc@PEAUstr_value@@@@$00@std@@@std@@@2@AEBQEAUstr_value@@@Z ; std::_Tree<std::_Tset_traits<str_value * __ptr64,str_value_cmp,xalloc<str_value * __ptr64>,1> >::find
PUBLIC	?_Kfn@?$_Tset_traits@PEAUstr_value@@Ustr_value_cmp@@V?$xalloc@PEAUstr_value@@@@$00@std@@SAAEBQEAUstr_value@@AEBQEAU3@@Z ; std::_Tset_traits<str_value * __ptr64,str_value_cmp,xalloc<str_value * __ptr64>,1>::_Kfn
PUBLIC	?_Key@?$_Tree_val@V?$_Tset_traits@PEAUstr_value@@Ustr_value_cmp@@V?$xalloc@PEAUstr_value@@@@$00@std@@@std@@SAAEAPEAUstr_value@@PEAU_Node@?$_Tree_nod@V?$_Tset_traits@PEAUstr_value@@Ustr_value_cmp@@V?$xalloc@PEAUstr_value@@@@$00@std@@@2@@Z ; std::_Tree_val<std::_Tset_traits<str_value * __ptr64,str_value_cmp,xalloc<str_value * __ptr64>,1> >::_Key
PUBLIC	?max_size@?$xalloc@PEAUstr_value@@@@QEBA_KXZ	; xalloc<str_value * __ptr64>::max_size
PUBLIC	?max_size@?$_Tree@V?$_Tset_traits@PEAUstr_value@@Ustr_value_cmp@@V?$xalloc@PEAUstr_value@@@@$00@std@@@std@@QEBA_KXZ ; std::_Tree<std::_Tset_traits<str_value * __ptr64,str_value_cmp,xalloc<str_value * __ptr64>,1> >::max_size
PUBLIC	?_Insert@?$_Tree@V?$_Tset_traits@PEAUstr_value@@Ustr_value_cmp@@V?$xalloc@PEAUstr_value@@@@$00@std@@@std@@IEAA?AV?$_Tree_const_iterator@V?$_Tree_val@V?$_Tset_traits@PEAUstr_value@@Ustr_value_cmp@@V?$xalloc@PEAUstr_value@@@@$00@std@@@std@@@2@_NPEAU_Node@?$_Tree_nod@V?$_Tset_traits@PEAUstr_value@@Ustr_value_cmp@@V?$xalloc@PEAUstr_value@@@@$00@std@@@2@1@Z ; std::_Tree<std::_Tset_traits<str_value * __ptr64,str_value_cmp,xalloc<str_value * __ptr64>,1> >::_Insert
PUBLIC	??F?$_Tree_unchecked_const_iterator@V?$_Tree_val@V?$_Tset_traits@PEAUstr_value@@Ustr_value_cmp@@V?$xalloc@PEAUstr_value@@@@$00@std@@@std@@U_Iterator_base0@2@@std@@QEAAAEAV01@XZ ; std::_Tree_unchecked_const_iterator<std::_Tree_val<std::_Tset_traits<str_value * __ptr64,str_value_cmp,xalloc<str_value * __ptr64>,1> >,std::_Iterator_base0>::operator--
PUBLIC	??F?$_Tree_const_iterator@V?$_Tree_val@V?$_Tset_traits@PEAUstr_value@@Ustr_value_cmp@@V?$xalloc@PEAUstr_value@@@@$00@std@@@std@@@std@@QEAAAEAV01@XZ ; std::_Tree_const_iterator<std::_Tree_val<std::_Tset_traits<str_value * __ptr64,str_value_cmp,xalloc<str_value * __ptr64>,1> > >::operator--
PUBLIC	??0?$_Pair_base@V?$_Tree_const_iterator@V?$_Tree_val@V?$_Tset_traits@PEAUstr_value@@Ustr_value_cmp@@V?$xalloc@PEAUstr_value@@@@$00@std@@@std@@@std@@_N@std@@QEAA@$$QEAV?$_Tree_const_iterator@V?$_Tree_val@V?$_Tset_traits@PEAUstr_value@@Ustr_value_cmp@@V?$xalloc@PEAUstr_value@@@@$00@std@@@std@@@1@$$QEA_N@Z ; std::_Pair_base<std::_Tree_const_iterator<std::_Tree_val<std::_Tset_traits<str_value * __ptr64,str_value_cmp,xalloc<str_value * __ptr64>,1> > >,bool>::_Pair_base<std::_Tree_const_iterator<std::_Tree_val<std::_Tset_traits<str_value * __ptr64,str_value_cmp,xalloc<str_value * __ptr64>,1> > >,bool>
PUBLIC	??$move@AEAV?$_Tree_const_iterator@V?$_Tree_val@V?$_Tset_traits@PEAUstr_value@@Ustr_value_cmp@@V?$xalloc@PEAUstr_value@@@@$00@std@@@std@@@std@@@std@@YA$$QEAV?$_Tree_const_iterator@V?$_Tree_val@V?$_Tset_traits@PEAUstr_value@@Ustr_value_cmp@@V?$xalloc@PEAUstr_value@@@@$00@std@@@std@@@0@AEAV10@@Z ; std::move<std::_Tree_const_iterator<std::_Tree_val<std::_Tset_traits<str_value * __ptr64,str_value_cmp,xalloc<str_value * __ptr64>,1> > > & __ptr64>
PUBLIC	??0?$pair@V?$_Tree_const_iterator@V?$_Tree_val@V?$_Tset_traits@PEAUstr_value@@Ustr_value_cmp@@V?$xalloc@PEAUstr_value@@@@$00@std@@@std@@@std@@_N@std@@QEAA@$$QEAV?$_Tree_const_iterator@V?$_Tree_val@V?$_Tset_traits@PEAUstr_value@@Ustr_value_cmp@@V?$xalloc@PEAUstr_value@@@@$00@std@@@std@@@1@$$QEA_N@Z ; std::pair<std::_Tree_const_iterator<std::_Tree_val<std::_Tset_traits<str_value * __ptr64,str_value_cmp,xalloc<str_value * __ptr64>,1> > >,bool>::pair<std::_Tree_const_iterator<std::_Tree_val<std::_Tset_traits<str_value * __ptr64,str_value_cmp,xalloc<str_value * __ptr64>,1> > >,bool>
PUBLIC	??$forward@AEAV?$_Tree_const_iterator@V?$_Tree_val@V?$_Tset_traits@PEAUstr_value@@Ustr_value_cmp@@V?$xalloc@PEAUstr_value@@@@$00@std@@@std@@@std@@@std@@YAAEAV?$_Tree_const_iterator@V?$_Tree_val@V?$_Tset_traits@PEAUstr_value@@Ustr_value_cmp@@V?$xalloc@PEAUstr_value@@@@$00@std@@@std@@@0@AEAV10@@Z ; std::forward<std::_Tree_const_iterator<std::_Tree_val<std::_Tset_traits<str_value * __ptr64,str_value_cmp,xalloc<str_value * __ptr64>,1> > > & __ptr64>
PUBLIC	??$?0AEAV?$_Tree_const_iterator@V?$_Tree_val@V?$_Tset_traits@PEAUstr_value@@Ustr_value_cmp@@V?$xalloc@PEAUstr_value@@@@$00@std@@@std@@@std@@_N@?$_Pair_base@V?$_Tree_const_iterator@V?$_Tree_val@V?$_Tset_traits@PEAUstr_value@@Ustr_value_cmp@@V?$xalloc@PEAUstr_value@@@@$00@std@@@std@@@std@@_N@std@@QEAA@AEAV?$_Tree_const_iterator@V?$_Tree_val@V?$_Tset_traits@PEAUstr_value@@Ustr_value_cmp@@V?$xalloc@PEAUstr_value@@@@$00@std@@@std@@@1@$$QEA_N@Z ; std::_Pair_base<std::_Tree_const_iterator<std::_Tree_val<std::_Tset_traits<str_value * __ptr64,str_value_cmp,xalloc<str_value * __ptr64>,1> > >,bool>::_Pair_base<std::_Tree_const_iterator<std::_Tree_val<std::_Tset_traits<str_value * __ptr64,str_value_cmp,xalloc<str_value * __ptr64>,1> > >,bool><std::_Tree_const_iterator<std::_Tree_val<std::_Tset_traits<str_value * __ptr64,str_value_cmp,xalloc<str_value * __ptr64>,1> > > & __ptr64,bool>
PUBLIC	??$?0AEAV?$_Tree_const_iterator@V?$_Tree_val@V?$_Tset_traits@PEAUstr_value@@Ustr_value_cmp@@V?$xalloc@PEAUstr_value@@@@$00@std@@@std@@@std@@_N@?$pair@V?$_Tree_const_iterator@V?$_Tree_val@V?$_Tset_traits@PEAUstr_value@@Ustr_value_cmp@@V?$xalloc@PEAUstr_value@@@@$00@std@@@std@@@std@@_N@std@@QEAA@AEAV?$_Tree_const_iterator@V?$_Tree_val@V?$_Tset_traits@PEAUstr_value@@Ustr_value_cmp@@V?$xalloc@PEAUstr_value@@@@$00@std@@@std@@@1@$$QEA_N@Z ; std::pair<std::_Tree_const_iterator<std::_Tree_val<std::_Tset_traits<str_value * __ptr64,str_value_cmp,xalloc<str_value * __ptr64>,1> > >,bool>::pair<std::_Tree_const_iterator<std::_Tree_val<std::_Tset_traits<str_value * __ptr64,str_value_cmp,xalloc<str_value * __ptr64>,1> > >,bool><std::_Tree_const_iterator<std::_Tree_val<std::_Tset_traits<str_value * __ptr64,str_value_cmp,xalloc<str_value * __ptr64>,1> > > & __ptr64,bool>
PUBLIC	?_Linsert@?$_Tree@V?$_Tset_traits@PEAUstr_value@@Ustr_value_cmp@@V?$xalloc@PEAUstr_value@@@@$00@std@@@std@@QEAA?AU?$pair@V?$_Tree_const_iterator@V?$_Tree_val@V?$_Tset_traits@PEAUstr_value@@Ustr_value_cmp@@V?$xalloc@PEAUstr_value@@@@$00@std@@@std@@@std@@_N@2@PEAU_Node@?$_Tree_nod@V?$_Tset_traits@PEAUstr_value@@Ustr_value_cmp@@V?$xalloc@PEAUstr_value@@@@$00@std@@@2@_N@Z ; std::_Tree<std::_Tset_traits<str_value * __ptr64,str_value_cmp,xalloc<str_value * __ptr64>,1> >::_Linsert
PUBLIC	??$insert@AEAPEAUstr_value@@@?$_Tree@V?$_Tset_traits@PEAUstr_value@@Ustr_value_cmp@@V?$xalloc@PEAUstr_value@@@@$00@std@@@std@@QEAA?AU?$pair@V?$_Tree_const_iterator@V?$_Tree_val@V?$_Tset_traits@PEAUstr_value@@Ustr_value_cmp@@V?$xalloc@PEAUstr_value@@@@$00@std@@@std@@@std@@_N@1@AEAPEAUstr_value@@@Z ; std::_Tree<std::_Tset_traits<str_value * __ptr64,str_value_cmp,xalloc<str_value * __ptr64>,1> >::insert<str_value * __ptr64 & __ptr64>
PUBLIC	??$insert@AEAPEAUstr_value@@@?$multiset@PEAUstr_value@@Ustr_value_cmp@@V?$xalloc@PEAUstr_value@@@@@std@@QEAA?AV?$_Tree_const_iterator@V?$_Tree_val@V?$_Tset_traits@PEAUstr_value@@Ustr_value_cmp@@V?$xalloc@PEAUstr_value@@@@$00@std@@@std@@@1@AEAPEAUstr_value@@@Z ; std::multiset<str_value * __ptr64,str_value_cmp,xalloc<str_value * __ptr64> >::insert<str_value * __ptr64 & __ptr64>
PUBLIC	?empty@?$_Tree@V?$_Tset_traits@PEAUstr_value@@Ustr_value_cmp@@V?$xalloc@PEAUstr_value@@@@$00@std@@@std@@QEBA_NXZ ; std::_Tree<std::_Tset_traits<str_value * __ptr64,str_value_cmp,xalloc<str_value * __ptr64>,1> >::empty
PUBLIC	??$xr_free@Ustr_value@@@@YAXAEAPEAUstr_value@@@Z ; xr_free<str_value>
PUBLIC	??D?$_Tree_const_iterator@V?$_Tree_val@V?$_Tset_traits@PEAUstr_value@@Ustr_value_cmp@@V?$xalloc@PEAUstr_value@@@@$00@std@@@std@@@std@@QEBAAEBQEAUstr_value@@XZ ; std::_Tree_const_iterator<std::_Tree_val<std::_Tset_traits<str_value * __ptr64,str_value_cmp,xalloc<str_value * __ptr64>,1> > >::operator*
PUBLIC	?g_pStringContainer@@3PEAVstr_container@@EA	; g_pStringContainer
PUBLIC	??_C@_0EC@GKCJHOFE@?$CB?5WARNING?$CB?5xrCore?3str_container?3@ ; `string'
PUBLIC	??_C@_0EC@PEIFBNPE@?$CB?5WARNING?$CB?5xrCore?3str_container?3@ ; `string'
PUBLIC	??_C@_0BG@PEMNBBM@str_container?3?3verify?$AA@	; `string'
PUBLIC	??_C@_0N@LDEKJIFI@xrstring?4cpp?$AA@		; `string'
PUBLIC	??_C@_0DI@MODFLCOP@CorePanic?3?5read?9only?5memory?5corr@ ; `string'
PUBLIC	??_C@_0P@ELJNGOBP@crc?$DN?$DNsv?9?$DOdwCRC?$AA@	; `string'
PUBLIC	??_C@_0EN@LMBPALPM@CorePanic?3?5read?9only?5memory?5corr@ ; `string'
PUBLIC	??_C@_0CF@JABCJEBB@sv?9?$DOdwLength?5?$DN?$DN?5xr_strlen?$CIsv?9?$DOva@ ; `string'
PUBLIC	??_C@_0BC@DNCLKLDJ@x?3?2$str_dump$?4txt?$AA@	; `string'
PUBLIC	??_C@_0CB@NIJMNPED@ref?$FL?$CF4d?$FN?9len?$FL?$CF3d?$FN?9crc?$FL?$CF8X?$FN?5?3?5?$CFs?6@ ; `string'
EXTRN	__imp_itoa:PROC
?g_pStringContainer@@3PEAVstr_container@@EA DQ 01H DUP (?) ; g_pStringContainer
;	COMDAT ?ignore_always@?5??verify@str_container@@QEAAXXZ@4_NA
_BSS	SEGMENT
?ignore_always@?5??verify@str_container@@QEAAXXZ@4_NA DB 01H DUP (?) ; `str_container::verify'::`6'::ignore_always
_BSS	ENDS
;	COMDAT ?ignore_always@?9??verify@str_container@@QEAAXXZ@4_NA
_BSS	SEGMENT
?ignore_always@?9??verify@str_container@@QEAAXXZ@4_NA DB 01H DUP (?) ; `str_container::verify'::`10'::ignore_always
;	COMDAT ??_C@_0CB@NIJMNPED@ref?$FL?$CF4d?$FN?9len?$FL?$CF3d?$FN?9crc?$FL?$CF8X?$FN?5?3?5?$CFs?6@
CONST	SEGMENT
??_C@_0CB@NIJMNPED@ref?$FL?$CF4d?$FN?9len?$FL?$CF3d?$FN?9crc?$FL?$CF8X?$FN?5?3?5?$CFs?6@ DB 'r'
	DB	'ef[%4d]-len[%3d]-crc[%8X] : %s', 0aH, 00H	; `string'
CONST	ENDS
;	COMDAT ??_C@_0BC@DNCLKLDJ@x?3?2$str_dump$?4txt?$AA@
CONST	SEGMENT
??_C@_0BC@DNCLKLDJ@x?3?2$str_dump$?4txt?$AA@ DB 'x:\$str_dump$.txt', 00H ; `string'
CONST	ENDS
;	COMDAT ??_C@_0CF@JABCJEBB@sv?9?$DOdwLength?5?$DN?$DN?5xr_strlen?$CIsv?9?$DOva@
CONST	SEGMENT
??_C@_0CF@JABCJEBB@sv?9?$DOdwLength?5?$DN?$DN?5xr_strlen?$CIsv?9?$DOva@ DB 's'
	DB	'v->dwLength == xr_strlen(sv->value)', 00H	; `string'
CONST	ENDS
;	COMDAT ??_C@_0EN@LMBPALPM@CorePanic?3?5read?9only?5memory?5corr@
CONST	SEGMENT
??_C@_0EN@LMBPALPM@CorePanic?3?5read?9only?5memory?5corr@ DB 'CorePanic: '
	DB	'read-only memory corruption (shared_strings, internal structu'
	DB	'res)', 00H					; `string'
CONST	ENDS
;	COMDAT ??_C@_0P@ELJNGOBP@crc?$DN?$DNsv?9?$DOdwCRC?$AA@
CONST	SEGMENT
??_C@_0P@ELJNGOBP@crc?$DN?$DNsv?9?$DOdwCRC?$AA@ DB 'crc==sv->dwCRC', 00H ; `string'
CONST	ENDS
;	COMDAT ??_C@_0DI@MODFLCOP@CorePanic?3?5read?9only?5memory?5corr@
CONST	SEGMENT
??_C@_0DI@MODFLCOP@CorePanic?3?5read?9only?5memory?5corr@ DB 'CorePanic: '
	DB	'read-only memory corruption (shared_strings)', 00H ; `string'
CONST	ENDS
;	COMDAT ??_C@_0N@LDEKJIFI@xrstring?4cpp?$AA@
CONST	SEGMENT
??_C@_0N@LDEKJIFI@xrstring?4cpp?$AA@ DB 'xrstring.cpp', 00H ; `string'
CONST	ENDS
;	COMDAT ??_C@_0BG@PEMNBBM@str_container?3?3verify?$AA@
CONST	SEGMENT
??_C@_0BG@PEMNBBM@str_container?3?3verify?$AA@ DB 'str_container::verify', 00H ; `string'
CONST	ENDS
;	COMDAT ??_C@_0EC@PEIFBNPE@?$CB?5WARNING?$CB?5xrCore?3str_container?3@
CONST	SEGMENT
??_C@_0EC@PEIFBNPE@?$CB?5WARNING?$CB?5xrCore?3str_container?3@ DB '! WARN'
	DB	'ING! xrCore:str_container::clean: string crc[%d] corruption', 00H ; `string'
CONST	ENDS
;	COMDAT ??_C@_0EC@GKCJHOFE@?$CB?5WARNING?$CB?5xrCore?3str_container?3@
CONST	SEGMENT
??_C@_0EC@GKCJHOFE@?$CB?5WARNING?$CB?5xrCore?3str_container?3@ DB '! WARN'
	DB	'ING! xrCore:str_container::clean: string len[%d] corruption', 00H ; `string'
; Function compile flags: /Ogtpy
; File c:\program files (x86)\microsoft visual studio 10.0\vc\include\utility
;	COMDAT ??$forward@AEAV?$_Tree_const_iterator@V?$_Tree_val@V?$_Tset_traits@PEAUstr_value@@Ustr_value_cmp@@V?$xalloc@PEAUstr_value@@@@$00@std@@@std@@@std@@@std@@YAAEAV?$_Tree_const_iterator@V?$_Tree_val@V?$_Tset_traits@PEAUstr_value@@Ustr_value_cmp@@V?$xalloc@PEAUstr_value@@@@$00@std@@@std@@@0@AEAV10@@Z
_TEXT	SEGMENT
_Arg$ = 8
??$forward@AEAV?$_Tree_const_iterator@V?$_Tree_val@V?$_Tset_traits@PEAUstr_value@@Ustr_value_cmp@@V?$xalloc@PEAUstr_value@@@@$00@std@@@std@@@std@@@std@@YAAEAV?$_Tree_const_iterator@V?$_Tree_val@V?$_Tset_traits@PEAUstr_value@@Ustr_value_cmp@@V?$xalloc@PEAUstr_value@@@@$00@std@@@std@@@0@AEAV10@@Z PROC ; std::forward<std::_Tree_const_iterator<std::_Tree_val<std::_Tset_traits<str_value * __ptr64,str_value_cmp,xalloc<str_value * __ptr64>,1> > > & __ptr64>, COMDAT

; 79   : 	return ((_Ty&&)_Arg);

	mov	rax, rcx

; 80   : 	}

	ret	0
??$forward@AEAV?$_Tree_const_iterator@V?$_Tree_val@V?$_Tset_traits@PEAUstr_value@@Ustr_value_cmp@@V?$xalloc@PEAUstr_value@@@@$00@std@@@std@@@std@@@std@@YAAEAV?$_Tree_const_iterator@V?$_Tree_val@V?$_Tset_traits@PEAUstr_value@@Ustr_value_cmp@@V?$xalloc@PEAUstr_value@@@@$00@std@@@std@@@0@AEAV10@@Z ENDP ; std::forward<std::_Tree_const_iterator<std::_Tree_val<std::_Tset_traits<str_value * __ptr64,str_value_cmp,xalloc<str_value * __ptr64>,1> > > & __ptr64>
; Function compile flags: /Ogtpy
_TEXT	ENDS
;	COMDAT ??$move@AEAV?$_Tree_const_iterator@V?$_Tree_val@V?$_Tset_traits@PEAUstr_value@@Ustr_value_cmp@@V?$xalloc@PEAUstr_value@@@@$00@std@@@std@@@std@@@std@@YA$$QEAV?$_Tree_const_iterator@V?$_Tree_val@V?$_Tset_traits@PEAUstr_value@@Ustr_value_cmp@@V?$xalloc@PEAUstr_value@@@@$00@std@@@std@@@0@AEAV10@@Z
_TEXT	SEGMENT
_Arg$ = 8
??$move@AEAV?$_Tree_const_iterator@V?$_Tree_val@V?$_Tset_traits@PEAUstr_value@@Ustr_value_cmp@@V?$xalloc@PEAUstr_value@@@@$00@std@@@std@@@std@@@std@@YA$$QEAV?$_Tree_const_iterator@V?$_Tree_val@V?$_Tset_traits@PEAUstr_value@@Ustr_value_cmp@@V?$xalloc@PEAUstr_value@@@@$00@std@@@std@@@0@AEAV10@@Z PROC ; std::move<std::_Tree_const_iterator<std::_Tree_val<std::_Tset_traits<str_value * __ptr64,str_value_cmp,xalloc<str_value * __ptr64>,1> > > & __ptr64>, COMDAT

; 87   : 	return ((typename tr1::_Remove_reference<_Ty>::_Type&&)_Arg);

	mov	rax, rcx

; 88   : 	}

	ret	0
??$move@AEAV?$_Tree_const_iterator@V?$_Tree_val@V?$_Tset_traits@PEAUstr_value@@Ustr_value_cmp@@V?$xalloc@PEAUstr_value@@@@$00@std@@@std@@@std@@@std@@YA$$QEAV?$_Tree_const_iterator@V?$_Tree_val@V?$_Tset_traits@PEAUstr_value@@Ustr_value_cmp@@V?$xalloc@PEAUstr_value@@@@$00@std@@@std@@@0@AEAV10@@Z ENDP ; std::move<std::_Tree_const_iterator<std::_Tree_val<std::_Tset_traits<str_value * __ptr64,str_value_cmp,xalloc<str_value * __ptr64>,1> > > & __ptr64>
; Function compile flags: /Ogtpy
; File c:\users\nummer\documents\github\olr-3.0\src\xray\xrcore\_stl_extensions.h
_TEXT	ENDS
;	COMDAT ?max_size@?$xalloc@PEAUstr_value@@@@QEBA_KXZ
_TEXT	SEGMENT
?max_size@?$xalloc@PEAUstr_value@@@@QEBA_KXZ PROC	; xalloc<str_value * __ptr64>::max_size, COMDAT

; 86   : 							size_type				max_size		() const								{	size_type _Count = (size_type)(-1) / sizeof (T);	return (0 < _Count ? _Count : 1);	}

	mov	rax, 2305843009213693951		; 1fffffffffffffffH
	ret	0
?max_size@?$xalloc@PEAUstr_value@@@@QEBA_KXZ ENDP	; xalloc<str_value * __ptr64>::max_size
; Function compile flags: /Ogtpy
; File c:\program files (x86)\microsoft visual studio 10.0\vc\include\xtree
_TEXT	ENDS
;	COMDAT ?max_size@?$_Tree@V?$_Tset_traits@PEAUstr_value@@Ustr_value_cmp@@V?$xalloc@PEAUstr_value@@@@$00@std@@@std@@QEBA_KXZ
_TEXT	SEGMENT
?max_size@?$_Tree@V?$_Tset_traits@PEAUstr_value@@Ustr_value_cmp@@V?$xalloc@PEAUstr_value@@@@$00@std@@@std@@QEBA_KXZ PROC ; std::_Tree<std::_Tset_traits<str_value * __ptr64,str_value_cmp,xalloc<str_value * __ptr64>,1> >::max_size, COMDAT

; 874  : 		return (this->_Alval.max_size());

	mov	rax, 2305843009213693951		; 1fffffffffffffffH

; 875  : 		}

	ret	0
?max_size@?$_Tree@V?$_Tset_traits@PEAUstr_value@@Ustr_value_cmp@@V?$xalloc@PEAUstr_value@@@@$00@std@@@std@@QEBA_KXZ ENDP ; std::_Tree<std::_Tset_traits<str_value * __ptr64,str_value_cmp,xalloc<str_value * __ptr64>,1> >::max_size
; Function compile flags: /Ogtpy
; File c:\program files (x86)\microsoft visual studio 10.0\vc\include\set
_TEXT	ENDS
;	COMDAT ?_Kfn@?$_Tset_traits@PEAUstr_value@@Ustr_value_cmp@@V?$xalloc@PEAUstr_value@@@@$00@std@@SAAEBQEAUstr_value@@AEBQEAU3@@Z
_TEXT	SEGMENT
_Val$ = 8
?_Kfn@?$_Tset_traits@PEAUstr_value@@Ustr_value_cmp@@V?$xalloc@PEAUstr_value@@@@$00@std@@SAAEBQEAUstr_value@@AEBQEAU3@@Z PROC ; std::_Tset_traits<str_value * __ptr64,str_value_cmp,xalloc<str_value * __ptr64>,1>::_Kfn, COMDAT

; 46   : 		return (_Val);

	mov	rax, rcx

; 47   : 		}

	ret	0
?_Kfn@?$_Tset_traits@PEAUstr_value@@Ustr_value_cmp@@V?$xalloc@PEAUstr_value@@@@$00@std@@SAAEBQEAUstr_value@@AEBQEAU3@@Z ENDP ; std::_Tset_traits<str_value * __ptr64,str_value_cmp,xalloc<str_value * __ptr64>,1>::_Kfn
; Function compile flags: /Ogtpy
; File c:\program files (x86)\microsoft visual studio 10.0\vc\include\utility
;	COMDAT ??$?0AEAV?$_Tree_const_iterator@V?$_Tree_val@V?$_Tset_traits@PEAUstr_value@@Ustr_value_cmp@@V?$xalloc@PEAUstr_value@@@@$00@std@@@std@@@std@@_N@?$_Pair_base@V?$_Tree_const_iterator@V?$_Tree_val@V?$_Tset_traits@PEAUstr_value@@Ustr_value_cmp@@V?$xalloc@PEAUstr_value@@@@$00@std@@@std@@@std@@_N@std@@QEAA@AEAV?$_Tree_const_iterator@V?$_Tree_val@V?$_Tset_traits@PEAUstr_value@@Ustr_value_cmp@@V?$xalloc@PEAUstr_value@@@@$00@std@@@std@@@1@$$QEA_N@Z
_TEXT	SEGMENT
this$ = 8
_Val1$ = 16
_Val2$ = 24
??$?0AEAV?$_Tree_const_iterator@V?$_Tree_val@V?$_Tset_traits@PEAUstr_value@@Ustr_value_cmp@@V?$xalloc@PEAUstr_value@@@@$00@std@@@std@@@std@@_N@?$_Pair_base@V?$_Tree_const_iterator@V?$_Tree_val@V?$_Tset_traits@PEAUstr_value@@Ustr_value_cmp@@V?$xalloc@PEAUstr_value@@@@$00@std@@@std@@@std@@_N@std@@QEAA@AEAV?$_Tree_const_iterator@V?$_Tree_val@V?$_Tset_traits@PEAUstr_value@@Ustr_value_cmp@@V?$xalloc@PEAUstr_value@@@@$00@std@@@std@@@1@$$QEA_N@Z PROC ; std::_Pair_base<std::_Tree_const_iterator<std::_Tree_val<std::_Tset_traits<str_value * __ptr64,str_value_cmp,xalloc<str_value * __ptr64>,1> > >,bool>::_Pair_base<std::_Tree_const_iterator<std::_Tree_val<std::_Tset_traits<str_value * __ptr64,str_value_cmp,xalloc<str_value * __ptr64>,1> > >,bool><std::_Tree_const_iterator<std::_Tree_val<std::_Tset_traits<str_value * __ptr64,str_value_cmp,xalloc<str_value * __ptr64>,1> > > & __ptr64,bool>, COMDAT

; 163  : 		{	// construct from moved values

	mov	rax, QWORD PTR [rdx]
	mov	QWORD PTR [rcx], rax
	movzx	eax, BYTE PTR [r8]
	mov	BYTE PTR [rcx+8], al

; 164  : 		}

	mov	rax, rcx
	ret	0
??$?0AEAV?$_Tree_const_iterator@V?$_Tree_val@V?$_Tset_traits@PEAUstr_value@@Ustr_value_cmp@@V?$xalloc@PEAUstr_value@@@@$00@std@@@std@@@std@@_N@?$_Pair_base@V?$_Tree_const_iterator@V?$_Tree_val@V?$_Tset_traits@PEAUstr_value@@Ustr_value_cmp@@V?$xalloc@PEAUstr_value@@@@$00@std@@@std@@@std@@_N@std@@QEAA@AEAV?$_Tree_const_iterator@V?$_Tree_val@V?$_Tset_traits@PEAUstr_value@@Ustr_value_cmp@@V?$xalloc@PEAUstr_value@@@@$00@std@@@std@@@1@$$QEA_N@Z ENDP ; std::_Pair_base<std::_Tree_const_iterator<std::_Tree_val<std::_Tset_traits<str_value * __ptr64,str_value_cmp,xalloc<str_value * __ptr64>,1> > >,bool>::_Pair_base<std::_Tree_const_iterator<std::_Tree_val<std::_Tset_traits<str_value * __ptr64,str_value_cmp,xalloc<str_value * __ptr64>,1> > >,bool><std::_Tree_const_iterator<std::_Tree_val<std::_Tset_traits<str_value * __ptr64,str_value_cmp,xalloc<str_value * __ptr64>,1> > > & __ptr64,bool>
; Function compile flags: /Ogtpy
_TEXT	ENDS
;	COMDAT ??$?0AEAV?$_Tree_const_iterator@V?$_Tree_val@V?$_Tset_traits@PEAUstr_value@@Ustr_value_cmp@@V?$xalloc@PEAUstr_value@@@@$00@std@@@std@@@std@@_N@?$pair@V?$_Tree_const_iterator@V?$_Tree_val@V?$_Tset_traits@PEAUstr_value@@Ustr_value_cmp@@V?$xalloc@PEAUstr_value@@@@$00@std@@@std@@@std@@_N@std@@QEAA@AEAV?$_Tree_const_iterator@V?$_Tree_val@V?$_Tset_traits@PEAUstr_value@@Ustr_value_cmp@@V?$xalloc@PEAUstr_value@@@@$00@std@@@std@@@1@$$QEA_N@Z
_TEXT	SEGMENT
this$ = 8
_Val1$ = 16
_Val2$ = 24
??$?0AEAV?$_Tree_const_iterator@V?$_Tree_val@V?$_Tset_traits@PEAUstr_value@@Ustr_value_cmp@@V?$xalloc@PEAUstr_value@@@@$00@std@@@std@@@std@@_N@?$pair@V?$_Tree_const_iterator@V?$_Tree_val@V?$_Tset_traits@PEAUstr_value@@Ustr_value_cmp@@V?$xalloc@PEAUstr_value@@@@$00@std@@@std@@@std@@_N@std@@QEAA@AEAV?$_Tree_const_iterator@V?$_Tree_val@V?$_Tset_traits@PEAUstr_value@@Ustr_value_cmp@@V?$xalloc@PEAUstr_value@@@@$00@std@@@std@@@1@$$QEA_N@Z PROC ; std::pair<std::_Tree_const_iterator<std::_Tree_val<std::_Tset_traits<str_value * __ptr64,str_value_cmp,xalloc<str_value * __ptr64>,1> > >,bool>::pair<std::_Tree_const_iterator<std::_Tree_val<std::_Tset_traits<str_value * __ptr64,str_value_cmp,xalloc<str_value * __ptr64>,1> > >,bool><std::_Tree_const_iterator<std::_Tree_val<std::_Tset_traits<str_value * __ptr64,str_value_cmp,xalloc<str_value * __ptr64>,1> > > & __ptr64,bool>, COMDAT

; 247  : 		{	// construct from moved values

	mov	rax, QWORD PTR [rdx]
	mov	QWORD PTR [rcx], rax
	movzx	eax, BYTE PTR [r8]
	mov	BYTE PTR [rcx+8], al

; 248  : 		}

	mov	rax, rcx
	ret	0
??$?0AEAV?$_Tree_const_iterator@V?$_Tree_val@V?$_Tset_traits@PEAUstr_value@@Ustr_value_cmp@@V?$xalloc@PEAUstr_value@@@@$00@std@@@std@@@std@@_N@?$pair@V?$_Tree_const_iterator@V?$_Tree_val@V?$_Tset_traits@PEAUstr_value@@Ustr_value_cmp@@V?$xalloc@PEAUstr_value@@@@$00@std@@@std@@@std@@_N@std@@QEAA@AEAV?$_Tree_const_iterator@V?$_Tree_val@V?$_Tset_traits@PEAUstr_value@@Ustr_value_cmp@@V?$xalloc@PEAUstr_value@@@@$00@std@@@std@@@1@$$QEA_N@Z ENDP ; std::pair<std::_Tree_const_iterator<std::_Tree_val<std::_Tset_traits<str_value * __ptr64,str_value_cmp,xalloc<str_value * __ptr64>,1> > >,bool>::pair<std::_Tree_const_iterator<std::_Tree_val<std::_Tset_traits<str_value * __ptr64,str_value_cmp,xalloc<str_value * __ptr64>,1> > >,bool><std::_Tree_const_iterator<std::_Tree_val<std::_Tset_traits<str_value * __ptr64,str_value_cmp,xalloc<str_value * __ptr64>,1> > > & __ptr64,bool>
; Function compile flags: /Ogtpy
_TEXT	ENDS
;	COMDAT ??0?$_Pair_base@V?$_Tree_const_iterator@V?$_Tree_val@V?$_Tset_traits@PEAUstr_value@@Ustr_value_cmp@@V?$xalloc@PEAUstr_value@@@@$00@std@@@std@@@std@@_N@std@@QEAA@$$QEAV?$_Tree_const_iterator@V?$_Tree_val@V?$_Tset_traits@PEAUstr_value@@Ustr_value_cmp@@V?$xalloc@PEAUstr_value@@@@$00@std@@@std@@@1@$$QEA_N@Z
_TEXT	SEGMENT
this$ = 8
_Val1$ = 16
_Val2$ = 24
??0?$_Pair_base@V?$_Tree_const_iterator@V?$_Tree_val@V?$_Tset_traits@PEAUstr_value@@Ustr_value_cmp@@V?$xalloc@PEAUstr_value@@@@$00@std@@@std@@@std@@_N@std@@QEAA@$$QEAV?$_Tree_const_iterator@V?$_Tree_val@V?$_Tset_traits@PEAUstr_value@@Ustr_value_cmp@@V?$xalloc@PEAUstr_value@@@@$00@std@@@std@@@1@$$QEA_N@Z PROC ; std::_Pair_base<std::_Tree_const_iterator<std::_Tree_val<std::_Tset_traits<str_value * __ptr64,str_value_cmp,xalloc<str_value * __ptr64>,1> > >,bool>::_Pair_base<std::_Tree_const_iterator<std::_Tree_val<std::_Tset_traits<str_value * __ptr64,str_value_cmp,xalloc<str_value * __ptr64>,1> > >,bool>, COMDAT

; 145  : 		{	// construct from specified values

	mov	rax, QWORD PTR [rdx]
	mov	QWORD PTR [rcx], rax
	movzx	eax, BYTE PTR [r8]
	mov	BYTE PTR [rcx+8], al

; 146  : 		}

	mov	rax, rcx
	ret	0
??0?$_Pair_base@V?$_Tree_const_iterator@V?$_Tree_val@V?$_Tset_traits@PEAUstr_value@@Ustr_value_cmp@@V?$xalloc@PEAUstr_value@@@@$00@std@@@std@@@std@@_N@std@@QEAA@$$QEAV?$_Tree_const_iterator@V?$_Tree_val@V?$_Tset_traits@PEAUstr_value@@Ustr_value_cmp@@V?$xalloc@PEAUstr_value@@@@$00@std@@@std@@@1@$$QEA_N@Z ENDP ; std::_Pair_base<std::_Tree_const_iterator<std::_Tree_val<std::_Tset_traits<str_value * __ptr64,str_value_cmp,xalloc<str_value * __ptr64>,1> > >,bool>::_Pair_base<std::_Tree_const_iterator<std::_Tree_val<std::_Tset_traits<str_value * __ptr64,str_value_cmp,xalloc<str_value * __ptr64>,1> > >,bool>
; Function compile flags: /Ogtpy
_TEXT	ENDS
;	COMDAT ??0?$pair@V?$_Tree_const_iterator@V?$_Tree_val@V?$_Tset_traits@PEAUstr_value@@Ustr_value_cmp@@V?$xalloc@PEAUstr_value@@@@$00@std@@@std@@@std@@_N@std@@QEAA@$$QEAV?$_Tree_const_iterator@V?$_Tree_val@V?$_Tset_traits@PEAUstr_value@@Ustr_value_cmp@@V?$xalloc@PEAUstr_value@@@@$00@std@@@std@@@1@$$QEA_N@Z
_TEXT	SEGMENT
this$ = 8
_Val1$ = 16
_Val2$ = 24
??0?$pair@V?$_Tree_const_iterator@V?$_Tree_val@V?$_Tset_traits@PEAUstr_value@@Ustr_value_cmp@@V?$xalloc@PEAUstr_value@@@@$00@std@@@std@@@std@@_N@std@@QEAA@$$QEAV?$_Tree_const_iterator@V?$_Tree_val@V?$_Tset_traits@PEAUstr_value@@Ustr_value_cmp@@V?$xalloc@PEAUstr_value@@@@$00@std@@@std@@@1@$$QEA_N@Z PROC ; std::pair<std::_Tree_const_iterator<std::_Tree_val<std::_Tset_traits<str_value * __ptr64,str_value_cmp,xalloc<str_value * __ptr64>,1> > >,bool>::pair<std::_Tree_const_iterator<std::_Tree_val<std::_Tset_traits<str_value * __ptr64,str_value_cmp,xalloc<str_value * __ptr64>,1> > >,bool>, COMDAT

; 227  : 		{	// construct from specified values

	mov	rax, QWORD PTR [rdx]
	mov	QWORD PTR [rcx], rax
	movzx	eax, BYTE PTR [r8]
	mov	BYTE PTR [rcx+8], al

; 228  : 		}

	mov	rax, rcx
	ret	0
??0?$pair@V?$_Tree_const_iterator@V?$_Tree_val@V?$_Tset_traits@PEAUstr_value@@Ustr_value_cmp@@V?$xalloc@PEAUstr_value@@@@$00@std@@@std@@@std@@_N@std@@QEAA@$$QEAV?$_Tree_const_iterator@V?$_Tree_val@V?$_Tset_traits@PEAUstr_value@@Ustr_value_cmp@@V?$xalloc@PEAUstr_value@@@@$00@std@@@std@@@1@$$QEA_N@Z ENDP ; std::pair<std::_Tree_const_iterator<std::_Tree_val<std::_Tset_traits<str_value * __ptr64,str_value_cmp,xalloc<str_value * __ptr64>,1> > >,bool>::pair<std::_Tree_const_iterator<std::_Tree_val<std::_Tset_traits<str_value * __ptr64,str_value_cmp,xalloc<str_value * __ptr64>,1> > >,bool>
; Function compile flags: /Ogtpy
; File c:\program files (x86)\microsoft visual studio 10.0\vc\include\xtree
_TEXT	ENDS
;	COMDAT ?_Key@?$_Tree_val@V?$_Tset_traits@PEAUstr_value@@Ustr_value_cmp@@V?$xalloc@PEAUstr_value@@@@$00@std@@@std@@SAAEAPEAUstr_value@@PEAU_Node@?$_Tree_nod@V?$_Tset_traits@PEAUstr_value@@Ustr_value_cmp@@V?$xalloc@PEAUstr_value@@@@$00@std@@@2@@Z
_TEXT	SEGMENT
_Pnode$ = 8
?_Key@?$_Tree_val@V?$_Tset_traits@PEAUstr_value@@Ustr_value_cmp@@V?$xalloc@PEAUstr_value@@@@$00@std@@@std@@SAAEAPEAUstr_value@@PEAU_Node@?$_Tree_nod@V?$_Tset_traits@PEAUstr_value@@Ustr_value_cmp@@V?$xalloc@PEAUstr_value@@@@$00@std@@@2@@Z PROC ; std::_Tree_val<std::_Tset_traits<str_value * __ptr64,str_value_cmp,xalloc<str_value * __ptr64>,1> >::_Key, COMDAT

; 617  : 		return ((key_type&)_Traits::_Kfn(_Myval(_Pnode)));

	lea	rax, QWORD PTR [rcx+24]

; 618  : 		}

	ret	0
?_Key@?$_Tree_val@V?$_Tset_traits@PEAUstr_value@@Ustr_value_cmp@@V?$xalloc@PEAUstr_value@@@@$00@std@@@std@@SAAEAPEAUstr_value@@PEAU_Node@?$_Tree_nod@V?$_Tset_traits@PEAUstr_value@@Ustr_value_cmp@@V?$xalloc@PEAUstr_value@@@@$00@std@@@2@@Z ENDP ; std::_Tree_val<std::_Tset_traits<str_value * __ptr64,str_value_cmp,xalloc<str_value * __ptr64>,1> >::_Key
; Function compile flags: /Ogtpy
_TEXT	ENDS
;	COMDAT ??D?$_Tree_const_iterator@V?$_Tree_val@V?$_Tset_traits@PEAUstr_value@@Ustr_value_cmp@@V?$xalloc@PEAUstr_value@@@@$00@std@@@std@@@std@@QEBAAEBQEAUstr_value@@XZ
_TEXT	SEGMENT
this$ = 8
??D?$_Tree_const_iterator@V?$_Tree_val@V?$_Tset_traits@PEAUstr_value@@Ustr_value_cmp@@V?$xalloc@PEAUstr_value@@@@$00@std@@@std@@@std@@QEBAAEBQEAUstr_value@@XZ PROC ; std::_Tree_const_iterator<std::_Tree_val<std::_Tset_traits<str_value * __ptr64,str_value_cmp,xalloc<str_value * __ptr64>,1> > >::operator*, COMDAT

; 231  :  #if _ITERATOR_DEBUG_LEVEL == 2
; 232  : 		if (this->_Getcont() == 0
; 233  : 			|| this->_Ptr == 0
; 234  : 			|| this->_Ptr == ((_Mytree *)this->_Getcont())->_Myhead)
; 235  : 			{	// report error
; 236  : 			_DEBUG_ERROR("map/set iterator not dereferencable");
; 237  : 			_SCL_SECURE_OUT_OF_RANGE;
; 238  : 			}
; 239  : 
; 240  :  #elif _ITERATOR_DEBUG_LEVEL == 1
; 241  : 		_SCL_SECURE_VALIDATE(this->_Getcont() != 0 && this->_Ptr != 0);
; 242  : 		_SCL_SECURE_VALIDATE_RANGE(this->_Ptr !=
; 243  : 			((_Mytree *)this->_Getcont())->_Myhead);
; 244  :  #endif /* _ITERATOR_DEBUG_LEVEL */
; 245  : 
; 246  : 		return (_Mytree::_Myval(this->_Ptr));

	mov	rax, QWORD PTR [rcx]
	add	rax, 24

; 247  : 		}

	ret	0
??D?$_Tree_const_iterator@V?$_Tree_val@V?$_Tset_traits@PEAUstr_value@@Ustr_value_cmp@@V?$xalloc@PEAUstr_value@@@@$00@std@@@std@@@std@@QEBAAEBQEAUstr_value@@XZ ENDP ; std::_Tree_const_iterator<std::_Tree_val<std::_Tset_traits<str_value * __ptr64,str_value_cmp,xalloc<str_value * __ptr64>,1> > >::operator*
; Function compile flags: /Ogtpy
_TEXT	ENDS
;	COMDAT ?empty@?$_Tree@V?$_Tset_traits@PEAUstr_value@@Ustr_value_cmp@@V?$xalloc@PEAUstr_value@@@@$00@std@@@std@@QEBA_NXZ
_TEXT	SEGMENT
this$ = 8
?empty@?$_Tree@V?$_Tset_traits@PEAUstr_value@@Ustr_value_cmp@@V?$xalloc@PEAUstr_value@@@@$00@std@@@std@@QEBA_NXZ PROC ; std::_Tree<std::_Tset_traits<str_value * __ptr64,str_value_cmp,xalloc<str_value * __ptr64>,1> >::empty, COMDAT

; 879  : 		return (size() == 0);

	xor	eax, eax
	cmp	QWORD PTR [rcx+16], rax
	sete	al

; 880  : 		}

	ret	0
?empty@?$_Tree@V?$_Tset_traits@PEAUstr_value@@Ustr_value_cmp@@V?$xalloc@PEAUstr_value@@@@$00@std@@@std@@QEBA_NXZ ENDP ; std::_Tree<std::_Tset_traits<str_value * __ptr64,str_value_cmp,xalloc<str_value * __ptr64>,1> >::empty
; Function compile flags: /Ogtpy
;	COMDAT ??F?$_Tree_unchecked_const_iterator@V?$_Tree_val@V?$_Tset_traits@PEAUstr_value@@Ustr_value_cmp@@V?$xalloc@PEAUstr_value@@@@$00@std@@@std@@U_Iterator_base0@2@@std@@QEAAAEAV01@XZ
_TEXT	SEGMENT
this$ = 8
??F?$_Tree_unchecked_const_iterator@V?$_Tree_val@V?$_Tset_traits@PEAUstr_value@@Ustr_value_cmp@@V?$xalloc@PEAUstr_value@@@@$00@std@@@std@@U_Iterator_base0@2@@std@@QEAAAEAV01@XZ PROC ; std::_Tree_unchecked_const_iterator<std::_Tree_val<std::_Tset_traits<str_value * __ptr64,str_value_cmp,xalloc<str_value * __ptr64>,1> >,std::_Iterator_base0>::operator--, COMDAT

; 84   : 		if (_Mytree::_Isnil(_Ptr))

	mov	rdx, QWORD PTR [rcx]
	mov	r8, rcx
	cmp	BYTE PTR [rdx+33], 0
	je	SHORT $LN8@operator@11

; 85   : 			_Ptr = _Mytree::_Right(_Ptr);	// end() ==> rightmost

	mov	rax, QWORD PTR [rdx+16]
	mov	QWORD PTR [rcx], rax

; 96   : 				;	// begin() shouldn't be decremented, don't move
; 97   : 			else
; 98   : 				_Ptr = _Pnode;	// ==> parent if not head
; 99   : 			}
; 100  : 		return (*this);

	mov	rax, rcx

; 101  : 		}

	ret	0
$LN8@operator@11:

; 86   : 		else if (!_Mytree::_Isnil(_Mytree::_Left(_Ptr)))

	mov	rax, QWORD PTR [rdx]
	cmp	BYTE PTR [rax+33], 0
	jne	SHORT $LN40@operator@11

; 87   : 			_Ptr = _Mytree::_Max(
; 88   : 				_Mytree::_Left(_Ptr));	// ==> largest of left subtree

	mov	rcx, QWORD PTR [rax+16]
	cmp	BYTE PTR [rcx+33], 0
	jne	SHORT $LN21@operator@11
	npad	6
$LL22@operator@11:
	mov	rax, rcx
	mov	rcx, QWORD PTR [rcx+16]
	cmp	BYTE PTR [rcx+33], 0
	je	SHORT $LL22@operator@11
$LN21@operator@11:
	mov	QWORD PTR [r8], rax

; 96   : 				;	// begin() shouldn't be decremented, don't move
; 97   : 			else
; 98   : 				_Ptr = _Pnode;	// ==> parent if not head
; 99   : 			}
; 100  : 		return (*this);

	mov	rax, r8

; 101  : 		}

	ret	0
$LN40@operator@11:

; 89   : 		else
; 90   : 			{	// climb looking for left subtree
; 91   : 			_Nodeptr _Pnode;
; 92   : 			while (!_Mytree::_Isnil(_Pnode = _Mytree::_Parent(_Ptr))
; 93   : 				&& _Ptr == _Mytree::_Left(_Pnode))

	mov	rdx, QWORD PTR [rdx+8]
	cmp	BYTE PTR [rdx+33], 0
	jne	SHORT $LN3@operator@11
	npad	2
$LL4@operator@11:
	mov	rax, QWORD PTR [rdx]
	cmp	QWORD PTR [rcx], rax
	jne	SHORT $LN3@operator@11

; 94   : 				_Ptr = _Pnode;	// ==> parent while left subtree

	mov	QWORD PTR [rcx], rdx
	mov	rdx, QWORD PTR [rdx+8]
	cmp	BYTE PTR [rdx+33], 0
	je	SHORT $LL4@operator@11
$LN3@operator@11:

; 95   : 			if (_Mytree::_Isnil(_Ptr))

	mov	rax, QWORD PTR [rcx]
	mov	rcx, rax
	cmp	BYTE PTR [rax+33], 0

; 96   : 				;	// begin() shouldn't be decremented, don't move
; 97   : 			else
; 98   : 				_Ptr = _Pnode;	// ==> parent if not head
; 99   : 			}
; 100  : 		return (*this);

	mov	rax, r8
	cmove	rcx, rdx
	mov	QWORD PTR [r8], rcx

; 101  : 		}

	ret	0
??F?$_Tree_unchecked_const_iterator@V?$_Tree_val@V?$_Tset_traits@PEAUstr_value@@Ustr_value_cmp@@V?$xalloc@PEAUstr_value@@@@$00@std@@@std@@U_Iterator_base0@2@@std@@QEAAAEAV01@XZ ENDP ; std::_Tree_unchecked_const_iterator<std::_Tree_val<std::_Tset_traits<str_value * __ptr64,str_value_cmp,xalloc<str_value * __ptr64>,1> >,std::_Iterator_base0>::operator--
_TEXT	ENDS
;	COMDAT pdata
pdata	SEGMENT
$pdata$??F?$_Tree_const_iterator@V?$_Tree_val@V?$_Tset_traits@PEAUstr_value@@Ustr_value_cmp@@V?$xalloc@PEAUstr_value@@@@$00@std@@@std@@@std@@QEAAAEAV01@XZ DD imagerel $LN3
	DD	imagerel $LN3+23
	DD	imagerel $unwind$??F?$_Tree_const_iterator@V?$_Tree_val@V?$_Tset_traits@PEAUstr_value@@Ustr_value_cmp@@V?$xalloc@PEAUstr_value@@@@$00@std@@@std@@@std@@QEAAAEAV01@XZ
pdata	ENDS
;	COMDAT xdata
xdata	SEGMENT
$unwind$??F?$_Tree_const_iterator@V?$_Tree_val@V?$_Tset_traits@PEAUstr_value@@Ustr_value_cmp@@V?$xalloc@PEAUstr_value@@@@$00@std@@@std@@@std@@QEAAAEAV01@XZ DD 020601H
	DD	030023206H
; Function compile flags: /Ogtpy
xdata	ENDS
;	COMDAT ??F?$_Tree_const_iterator@V?$_Tree_val@V?$_Tset_traits@PEAUstr_value@@Ustr_value_cmp@@V?$xalloc@PEAUstr_value@@@@$00@std@@@std@@@std@@QEAAAEAV01@XZ
_TEXT	SEGMENT
this$ = 48
??F?$_Tree_const_iterator@V?$_Tree_val@V?$_Tset_traits@PEAUstr_value@@Ustr_value_cmp@@V?$xalloc@PEAUstr_value@@@@$00@std@@@std@@@std@@QEAAAEAV01@XZ PROC ; std::_Tree_const_iterator<std::_Tree_val<std::_Tset_traits<str_value * __ptr64,str_value_cmp,xalloc<str_value * __ptr64>,1> > >::operator--, COMDAT

; 277  : 		{	// predecrement

$LN3:
	push	rbx
	sub	rsp, 32					; 00000020H
	mov	rbx, rcx

; 278  :  #if _ITERATOR_DEBUG_LEVEL == 2
; 279  : 		if (this->_Getcont() == 0
; 280  : 			|| this->_Ptr == 0)
; 281  : 			{	// report error
; 282  : 			_DEBUG_ERROR("map/set iterator not decrementable");
; 283  : 			_SCL_SECURE_OUT_OF_RANGE;
; 284  : 			}
; 285  : 
; 286  : 		_Nodeptr _Ptrsav = this->_Ptr;
; 287  : 		--(*(_Mybase *)this);
; 288  : 		if (_Ptrsav == this->_Ptr)
; 289  : 			{	// report error
; 290  : 			_DEBUG_ERROR("map/set iterator not decrementable");
; 291  : 			_SCL_SECURE_OUT_OF_RANGE;
; 292  : 			}
; 293  : 
; 294  :  #elif _ITERATOR_DEBUG_LEVEL == 1
; 295  : 		_SCL_SECURE_VALIDATE(this->_Getcont() != 0 && this->_Ptr != 0);
; 296  : 
; 297  : 		_Nodeptr _Ptrsav = this->_Ptr;
; 298  : 		--(*(_Mybase *)this);
; 299  : 		_SCL_SECURE_VALIDATE(_Ptrsav != this->_Ptr);
; 300  : 
; 301  :  #else /* _ITERATOR_DEBUG_LEVEL == 0 */
; 302  : 		--(*(_Mybase *)this);

	call	??F?$_Tree_unchecked_const_iterator@V?$_Tree_val@V?$_Tset_traits@PEAUstr_value@@Ustr_value_cmp@@V?$xalloc@PEAUstr_value@@@@$00@std@@@std@@U_Iterator_base0@2@@std@@QEAAAEAV01@XZ ; std::_Tree_unchecked_const_iterator<std::_Tree_val<std::_Tset_traits<str_value * __ptr64,str_value_cmp,xalloc<str_value * __ptr64>,1> >,std::_Iterator_base0>::operator--

; 303  :  #endif /* _ITERATOR_DEBUG_LEVEL */
; 304  : 
; 305  : 		return (*this);

	mov	rax, rbx

; 306  : 		}

	add	rsp, 32					; 00000020H
	pop	rbx
	ret	0
??F?$_Tree_const_iterator@V?$_Tree_val@V?$_Tset_traits@PEAUstr_value@@Ustr_value_cmp@@V?$xalloc@PEAUstr_value@@@@$00@std@@@std@@@std@@QEAAAEAV01@XZ ENDP ; std::_Tree_const_iterator<std::_Tree_val<std::_Tset_traits<str_value * __ptr64,str_value_cmp,xalloc<str_value * __ptr64>,1> > >::operator--
; Function compile flags: /Ogtpy
_TEXT	ENDS
;	COMDAT ?_Lbound@?$_Tree@V?$_Tset_traits@PEAUstr_value@@Ustr_value_cmp@@V?$xalloc@PEAUstr_value@@@@$00@std@@@std@@IEAAPEAU_Node@?$_Tree_nod@V?$_Tset_traits@PEAUstr_value@@Ustr_value_cmp@@V?$xalloc@PEAUstr_value@@@@$00@std@@@2@AEBQEAUstr_value@@@Z
_TEXT	SEGMENT
this$ = 8
_Keyval$ = 16
?_Lbound@?$_Tree@V?$_Tset_traits@PEAUstr_value@@Ustr_value_cmp@@V?$xalloc@PEAUstr_value@@@@$00@std@@@std@@IEAAPEAU_Node@?$_Tree_nod@V?$_Tset_traits@PEAUstr_value@@Ustr_value_cmp@@V?$xalloc@PEAUstr_value@@@@$00@std@@@2@AEBQEAUstr_value@@@Z PROC ; std::_Tree<std::_Tset_traits<str_value * __ptr64,str_value_cmp,xalloc<str_value * __ptr64>,1> >::_Lbound, COMDAT

; 1742 : 		_Nodeptr _Pnode = _Root();

	mov	r8, QWORD PTR [rcx+8]
	mov	rcx, QWORD PTR [r8+8]

; 1743 : 		_Nodeptr _Wherenode = this->_Myhead;	// end() if search fails
; 1744 : 
; 1745 : 		while (!this->_Isnil(_Pnode))

	cmp	BYTE PTR [rcx+33], 0
	jne	SHORT $LN26@Lbound@2
	mov	rax, QWORD PTR [rdx]
	mov	edx, DWORD PTR [rax+8]
$LL4@Lbound@2:

; 1746 : 			if (_DEBUG_LT_PRED(this->comp, this->_Key(_Pnode), _Keyval))

	mov	rax, QWORD PTR [rcx+24]
	cmp	DWORD PTR [rax+8], edx
	jae	SHORT $LN2@Lbound@2

; 1747 : 				_Pnode = this->_Right(_Pnode);	// descend right subtree

	mov	rcx, QWORD PTR [rcx+16]

; 1748 : 			else

	jmp	SHORT $LN1@Lbound@2
$LN2@Lbound@2:

; 1749 : 				{	// _Pnode not less than _Keyval, remember it
; 1750 : 				_Wherenode = _Pnode;

	mov	r8, rcx

; 1751 : 				_Pnode = this->_Left(_Pnode);	// descend left subtree

	mov	rcx, QWORD PTR [rcx]
$LN1@Lbound@2:

; 1743 : 		_Nodeptr _Wherenode = this->_Myhead;	// end() if search fails
; 1744 : 
; 1745 : 		while (!this->_Isnil(_Pnode))

	cmp	BYTE PTR [rcx+33], 0
	je	SHORT $LL4@Lbound@2
$LN26@Lbound@2:

; 1752 : 				}
; 1753 : 
; 1754 : 		return (_Wherenode);	// return best remembered candidate

	mov	rax, r8

; 1755 : 		}

	ret	0
?_Lbound@?$_Tree@V?$_Tset_traits@PEAUstr_value@@Ustr_value_cmp@@V?$xalloc@PEAUstr_value@@@@$00@std@@@std@@IEAAPEAU_Node@?$_Tree_nod@V?$_Tset_traits@PEAUstr_value@@Ustr_value_cmp@@V?$xalloc@PEAUstr_value@@@@$00@std@@@2@AEBQEAUstr_value@@@Z ENDP ; std::_Tree<std::_Tset_traits<str_value * __ptr64,str_value_cmp,xalloc<str_value * __ptr64>,1> >::_Lbound
; Function compile flags: /Ogtpy
_TEXT	ENDS
;	COMDAT ?lower_bound@?$_Tree@V?$_Tset_traits@PEAUstr_value@@Ustr_value_cmp@@V?$xalloc@PEAUstr_value@@@@$00@std@@@std@@QEAA?AV?$_Tree_const_iterator@V?$_Tree_val@V?$_Tset_traits@PEAUstr_value@@Ustr_value_cmp@@V?$xalloc@PEAUstr_value@@@@$00@std@@@std@@@2@AEBQEAUstr_value@@@Z
_TEXT	SEGMENT
this$ = 8
__$ReturnUdt$ = 16
_Keyval$ = 24
?lower_bound@?$_Tree@V?$_Tset_traits@PEAUstr_value@@Ustr_value_cmp@@V?$xalloc@PEAUstr_value@@@@$00@std@@@std@@QEAA?AV?$_Tree_const_iterator@V?$_Tree_val@V?$_Tset_traits@PEAUstr_value@@Ustr_value_cmp@@V?$xalloc@PEAUstr_value@@@@$00@std@@@std@@@2@AEBQEAUstr_value@@@Z PROC ; std::_Tree<std::_Tset_traits<str_value * __ptr64,str_value_cmp,xalloc<str_value * __ptr64>,1> >::lower_bound, COMDAT

; 1450 : 		return (iterator(_Lbound(_Keyval), this));

	mov	r9, QWORD PTR [rcx+8]
	mov	rcx, QWORD PTR [r9+8]
	cmp	BYTE PTR [rcx+33], 0
	jne	SHORT $LN34@lower_boun
	mov	rax, QWORD PTR [r8]
	mov	r8d, DWORD PTR [rax+8]
$LL6@lower_boun:
	mov	rax, QWORD PTR [rcx+24]
	cmp	DWORD PTR [rax+8], r8d
	jae	SHORT $LN4@lower_boun
	mov	rcx, QWORD PTR [rcx+16]
	jmp	SHORT $LN3@lower_boun
$LN4@lower_boun:
	mov	r9, rcx
	mov	rcx, QWORD PTR [rcx]
$LN3@lower_boun:
	cmp	BYTE PTR [rcx+33], 0
	je	SHORT $LL6@lower_boun
$LN34@lower_boun:
	mov	rax, rdx
	mov	QWORD PTR [rdx], r9

; 1451 : 		}

	ret	0
?lower_bound@?$_Tree@V?$_Tset_traits@PEAUstr_value@@Ustr_value_cmp@@V?$xalloc@PEAUstr_value@@@@$00@std@@@std@@QEAA?AV?$_Tree_const_iterator@V?$_Tree_val@V?$_Tset_traits@PEAUstr_value@@Ustr_value_cmp@@V?$xalloc@PEAUstr_value@@@@$00@std@@@std@@@2@AEBQEAUstr_value@@@Z ENDP ; std::_Tree<std::_Tset_traits<str_value * __ptr64,str_value_cmp,xalloc<str_value * __ptr64>,1> >::lower_bound
_TEXT	ENDS
;	COMDAT pdata
; File c:\program files (x86)\microsoft visual studio 10.0\vc\include\xutility
pdata	SEGMENT
$pdata$?find@?$_Tree@V?$_Tset_traits@PEAUstr_value@@Ustr_value_cmp@@V?$xalloc@PEAUstr_value@@@@$00@std@@@std@@QEAA?AV?$_Tree_const_iterator@V?$_Tree_val@V?$_Tset_traits@PEAUstr_value@@Ustr_value_cmp@@V?$xalloc@PEAUstr_value@@@@$00@std@@@std@@@2@AEBQEAUstr_value@@@Z DD imagerel $LN66
	DD	imagerel $LN66+136
	DD	imagerel $unwind$?find@?$_Tree@V?$_Tset_traits@PEAUstr_value@@Ustr_value_cmp@@V?$xalloc@PEAUstr_value@@@@$00@std@@@std@@QEAA?AV?$_Tree_const_iterator@V?$_Tree_val@V?$_Tset_traits@PEAUstr_value@@Ustr_value_cmp@@V?$xalloc@PEAUstr_value@@@@$00@std@@@std@@@2@AEBQEAUstr_value@@@Z
pdata	ENDS
;	COMDAT xdata
xdata	SEGMENT
$unwind$?find@?$_Tree@V?$_Tset_traits@PEAUstr_value@@Ustr_value_cmp@@V?$xalloc@PEAUstr_value@@@@$00@std@@@std@@QEAA?AV?$_Tree_const_iterator@V?$_Tree_val@V?$_Tset_traits@PEAUstr_value@@Ustr_value_cmp@@V?$xalloc@PEAUstr_value@@@@$00@std@@@std@@@2@AEBQEAUstr_value@@@Z DD 020501H
	DD	033405H
; Function compile flags: /Ogtpy
; File c:\program files (x86)\microsoft visual studio 10.0\vc\include\xtree
xdata	ENDS
;	COMDAT ?find@?$_Tree@V?$_Tset_traits@PEAUstr_value@@Ustr_value_cmp@@V?$xalloc@PEAUstr_value@@@@$00@std@@@std@@QEAA?AV?$_Tree_const_iterator@V?$_Tree_val@V?$_Tset_traits@PEAUstr_value@@Ustr_value_cmp@@V?$xalloc@PEAUstr_value@@@@$00@std@@@std@@@2@AEBQEAUstr_value@@@Z
_TEXT	SEGMENT
_Where$ = 8
this$ = 8
$T183440 = 16
__$ReturnUdt$ = 16
_Keyval$ = 24
?find@?$_Tree@V?$_Tset_traits@PEAUstr_value@@Ustr_value_cmp@@V?$xalloc@PEAUstr_value@@@@$00@std@@@std@@QEAA?AV?$_Tree_const_iterator@V?$_Tree_val@V?$_Tset_traits@PEAUstr_value@@Ustr_value_cmp@@V?$xalloc@PEAUstr_value@@@@$00@std@@@std@@@2@AEBQEAUstr_value@@@Z PROC ; std::_Tree<std::_Tset_traits<str_value * __ptr64,str_value_cmp,xalloc<str_value * __ptr64>,1> >::find, COMDAT

; 1423 : 		{	// find an element in mutable sequence that matches _Keyval

$LN66:
	mov	QWORD PTR [rsp+24], rbx

; 1424 : 		iterator _Where = lower_bound(_Keyval);

	mov	r10, QWORD PTR [rcx+8]
	mov	rbx, r8
	mov	r8, rdx
	mov	r9, QWORD PTR [r10+8]
	cmp	BYTE PTR [r9+33], 0
	jne	SHORT $LN9@find@3
	mov	rax, QWORD PTR [rbx]
	mov	r11d, DWORD PTR [rax+8]
$LL10@find@3:
	mov	rax, QWORD PTR [r9+24]
	cmp	DWORD PTR [rax+8], r11d
	jae	SHORT $LN8@find@3
	mov	r9, QWORD PTR [r9+16]
	jmp	SHORT $LN7@find@3
$LN8@find@3:
	mov	r10, r9
	mov	r9, QWORD PTR [r9]
$LN7@find@3:
	cmp	BYTE PTR [r9+33], 0
	je	SHORT $LL10@find@3
$LN9@find@3:

; 1425 : 		return (_Where == end()
; 1426 : 			|| _DEBUG_LT_PRED(this->comp,
; 1427 : 				_Keyval, this->_Key(_Where._Mynode()))
; 1428 : 					? end() : _Where);

	mov	rdx, QWORD PTR [rcx+8]
	mov	QWORD PTR _Where$[rsp], r10
	cmp	r10, rdx
	je	SHORT $LN3@find@3
	mov	rax, QWORD PTR [r10+24]
	mov	rcx, QWORD PTR [rbx]
	mov	eax, DWORD PTR [rax+8]
	cmp	DWORD PTR [rcx+8], eax
	jb	SHORT $LN3@find@3
	lea	rax, QWORD PTR _Where$[rsp]
	mov	rax, QWORD PTR [rax]
	mov	QWORD PTR [r8], rax
	mov	rax, r8

; 1429 : 		}

	mov	rbx, QWORD PTR [rsp+24]
	ret	0
$LN3@find@3:
	mov	rbx, QWORD PTR [rsp+24]
	lea	rax, QWORD PTR $T183440[rsp]
	mov	QWORD PTR $T183440[rsp], rdx
	mov	rax, QWORD PTR [rax]
	mov	QWORD PTR [r8], rax
	mov	rax, r8
	ret	0
?find@?$_Tree@V?$_Tset_traits@PEAUstr_value@@Ustr_value_cmp@@V?$xalloc@PEAUstr_value@@@@$00@std@@@std@@QEAA?AV?$_Tree_const_iterator@V?$_Tree_val@V?$_Tset_traits@PEAUstr_value@@Ustr_value_cmp@@V?$xalloc@PEAUstr_value@@@@$00@std@@@std@@@2@AEBQEAUstr_value@@@Z ENDP ; std::_Tree<std::_Tset_traits<str_value * __ptr64,str_value_cmp,xalloc<str_value * __ptr64>,1> >::find
;	COMDAT pdata
; File c:\program files (x86)\microsoft visual studio 10.0\vc\include\xutility
pdata	SEGMENT
$pdata$?_Insert@?$_Tree@V?$_Tset_traits@PEAUstr_value@@Ustr_value_cmp@@V?$xalloc@PEAUstr_value@@@@$00@std@@@std@@IEAA?AV?$_Tree_const_iterator@V?$_Tree_val@V?$_Tset_traits@PEAUstr_value@@Ustr_value_cmp@@V?$xalloc@PEAUstr_value@@@@$00@std@@@std@@@2@_NPEAU_Node@?$_Tree_nod@V?$_Tset_traits@PEAUstr_value@@Ustr_value_cmp@@V?$xalloc@PEAUstr_value@@@@$00@std@@@2@1@Z DD imagerel $LN375
	DD	imagerel $LN375+662
	DD	imagerel $unwind$?_Insert@?$_Tree@V?$_Tset_traits@PEAUstr_value@@Ustr_value_cmp@@V?$xalloc@PEAUstr_value@@@@$00@std@@@std@@IEAA?AV?$_Tree_const_iterator@V?$_Tree_val@V?$_Tset_traits@PEAUstr_value@@Ustr_value_cmp@@V?$xalloc@PEAUstr_value@@@@$00@std@@@std@@@2@_NPEAU_Node@?$_Tree_nod@V?$_Tset_traits@PEAUstr_value@@Ustr_value_cmp@@V?$xalloc@PEAUstr_value@@@@$00@std@@@2@1@Z
pdata	ENDS
;	COMDAT xdata
xdata	SEGMENT
$unwind$?_Insert@?$_Tree@V?$_Tset_traits@PEAUstr_value@@Ustr_value_cmp@@V?$xalloc@PEAUstr_value@@@@$00@std@@@std@@IEAA?AV?$_Tree_const_iterator@V?$_Tree_val@V?$_Tset_traits@PEAUstr_value@@Ustr_value_cmp@@V?$xalloc@PEAUstr_value@@@@$00@std@@@std@@@2@_NPEAU_Node@?$_Tree_nod@V?$_Tset_traits@PEAUstr_value@@Ustr_value_cmp@@V?$xalloc@PEAUstr_value@@@@$00@std@@@2@1@Z DD 020601H
	DD	030023206H
; Function compile flags: /Ogtpy
; File c:\program files (x86)\microsoft visual studio 10.0\vc\include\xtree
xdata	ENDS
;	COMDAT ?_Insert@?$_Tree@V?$_Tset_traits@PEAUstr_value@@Ustr_value_cmp@@V?$xalloc@PEAUstr_value@@@@$00@std@@@std@@IEAA?AV?$_Tree_const_iterator@V?$_Tree_val@V?$_Tset_traits@PEAUstr_value@@Ustr_value_cmp@@V?$xalloc@PEAUstr_value@@@@$00@std@@@std@@@2@_NPEAU_Node@?$_Tree_nod@V?$_Tset_traits@PEAUstr_value@@Ustr_value_cmp@@V?$xalloc@PEAUstr_value@@@@$00@std@@@2@1@Z
_TEXT	SEGMENT
$T199192 = 48
this$ = 48
__$ReturnUdt$ = 56
_Addleft$ = 64
_Wherenode$ = 72
_Newnode$ = 80
?_Insert@?$_Tree@V?$_Tset_traits@PEAUstr_value@@Ustr_value_cmp@@V?$xalloc@PEAUstr_value@@@@$00@std@@@std@@IEAA?AV?$_Tree_const_iterator@V?$_Tree_val@V?$_Tset_traits@PEAUstr_value@@Ustr_value_cmp@@V?$xalloc@PEAUstr_value@@@@$00@std@@@std@@@2@_NPEAU_Node@?$_Tree_nod@V?$_Tset_traits@PEAUstr_value@@Ustr_value_cmp@@V?$xalloc@PEAUstr_value@@@@$00@std@@@2@1@Z PROC ; std::_Tree<std::_Tset_traits<str_value * __ptr64,str_value_cmp,xalloc<str_value * __ptr64>,1> >::_Insert, COMDAT

; 1631 : 		{	// add node with value next to _Wherenode, to left if _Addleft

$LN375:
	push	rbx
	sub	rsp, 32					; 00000020H

; 1632 : 		if (max_size() - 1 <= this->_Mysize)

	mov	rax, QWORD PTR [rcx+16]
	mov	r10, rcx
	mov	rcx, 2305843009213693950		; 1ffffffffffffffeH
	mov	rbx, rdx
	cmp	rax, rcx
	jb	SHORT $LN17@Insert

; 1633 : 			{	// tree would get too big, fail
; 1634 : 			_Dest_val(this->_Alval,
; 1635 : 				_STD addressof(this->_Myval(_Newnode)));
; 1636 : 
; 1637 : 			this->_Alnod.deallocate(_Newnode, 1);

	mov	rax, QWORD PTR _Newnode$[rsp]
	lea	rcx, QWORD PTR $T199192[rsp]
	mov	QWORD PTR $T199192[rsp], rax
	call	??$xr_free@U_Node@?$_Tree_nod@V?$_Tset_traits@PEAUstr_value@@Ustr_value_cmp@@V?$xalloc@PEAUstr_value@@@@$00@std@@@std@@@@YAXAEAPEAU_Node@?$_Tree_nod@V?$_Tset_traits@PEAUstr_value@@Ustr_value_cmp@@V?$xalloc@PEAUstr_value@@@@$00@std@@@std@@@Z ; xr_free<std::_Tree_nod<std::_Tset_traits<str_value * __ptr64,str_value_cmp,xalloc<str_value * __ptr64>,1> >::_Node>

; 1638 : 
; 1639 : 			_Xlength_error("map/set<T> too long");

	lea	rcx, OFFSET FLAT:??_C@_0BE@JONHPENG@map?1set?$DMT?$DO?5too?5long?$AA@
	call	QWORD PTR __imp_?_Xlength_error@std@@YAXPEBD@Z
	int	3
$LN17@Insert:

; 1640 : 			}
; 1641 : 		++this->_Mysize;
; 1642 : 		_Newnode->_Parent = _Wherenode;

	mov	r11, QWORD PTR _Newnode$[rsp]
	inc	rax
	mov	QWORD PTR [r10+16], rax
	mov	QWORD PTR [r11+8], r9

; 1643 : 
; 1644 : 		if (_Wherenode == this->_Myhead)

	mov	rax, QWORD PTR [r10+8]
	cmp	r9, rax
	jne	SHORT $LN16@Insert

; 1645 : 			{	// first node in tree, just set head values
; 1646 : 			_Root() = _Newnode;

	mov	QWORD PTR [rax+8], r11

; 1647 : 			_Lmost() = _Newnode;

	mov	rax, QWORD PTR [r10+8]
	mov	QWORD PTR [rax], r11

; 1648 : 			_Rmost() = _Newnode;

	mov	rax, QWORD PTR [r10+8]
	jmp	SHORT $LN372@Insert
$LN16@Insert:

; 1649 : 			}
; 1650 : 		else if (_Addleft)

	test	r8b, r8b
	je	SHORT $LN14@Insert

; 1651 : 			{	// add to left of _Wherenode
; 1652 : 			this->_Left(_Wherenode) = _Newnode;

	mov	QWORD PTR [r9], r11

; 1653 : 			if (_Wherenode == _Lmost())

	mov	rax, QWORD PTR [r10+8]
	cmp	r9, QWORD PTR [rax]
	jne	SHORT $LN11@Insert

; 1654 : 				_Lmost() = _Newnode;

	mov	QWORD PTR [rax], r11

; 1655 : 			}
; 1656 : 		else

	jmp	SHORT $LN11@Insert
$LN14@Insert:

; 1657 : 			{	// add to right of _Wherenode
; 1658 : 			this->_Right(_Wherenode) = _Newnode;

	mov	QWORD PTR [r9+16], r11

; 1659 : 			if (_Wherenode == _Rmost())

	mov	rax, QWORD PTR [r10+8]
	cmp	r9, QWORD PTR [rax+16]
	jne	SHORT $LN11@Insert
$LN372@Insert:

; 1660 : 				_Rmost() = _Newnode;

	mov	QWORD PTR [rax+16], r11
$LN11@Insert:

; 1661 : 			}
; 1662 : 
; 1663 : 		for (_Nodeptr _Pnode = _Newnode;
; 1664 : 			this->_Color(this->_Parent(_Pnode)) == this->_Red; )

	mov	rax, QWORD PTR [r11+8]
	mov	rdx, r11
	cmp	BYTE PTR [rax+32], 0
	jne	$LN9@Insert
$LL10@Insert:

; 1665 : 			if (this->_Parent(_Pnode)
; 1666 : 				== this->_Left(this->_Parent(this->_Parent(_Pnode))))

	mov	rax, QWORD PTR [rdx+8]
	mov	rcx, QWORD PTR [rax+8]
	cmp	rax, QWORD PTR [rcx]
	jne	$LN8@Insert

; 1667 : 				{	// fixup red-red in left subtree
; 1668 : 				_Wherenode =
; 1669 : 					this->_Right(this->_Parent(this->_Parent(_Pnode)));

	mov	r8, QWORD PTR [rcx+16]

; 1670 : 				if (this->_Color(_Wherenode) == this->_Red)

	cmp	BYTE PTR [r8+32], 0

; 1671 : 					{	// parent has two red children, blacken both
; 1672 : 					this->_Color(this->_Parent(_Pnode)) = this->_Black;
; 1673 : 					this->_Color(_Wherenode) = this->_Black;
; 1674 : 					this->_Color(this->_Parent(this->_Parent(_Pnode)))
; 1675 : 						= this->_Red;
; 1676 : 					_Pnode = this->_Parent(this->_Parent(_Pnode));
; 1677 : 					}
; 1678 : 				else

	je	$LN374@Insert

; 1679 : 					{	// parent has red and black children
; 1680 : 					if (_Pnode == this->_Right(this->_Parent(_Pnode)))

	cmp	rdx, QWORD PTR [rax+16]
	jne	SHORT $LN109@Insert

; 1681 : 						{	// rotate right child to left
; 1682 : 						_Pnode = this->_Parent(_Pnode);
; 1683 : 						_Lrotate(_Pnode);

	mov	rcx, QWORD PTR [rax+16]
	mov	rdx, rax
	mov	rax, QWORD PTR [rcx]
	mov	QWORD PTR [rdx+16], rax
	mov	rax, QWORD PTR [rcx]
	cmp	BYTE PTR [rax+33], 0
	jne	SHORT $LN108@Insert
	mov	QWORD PTR [rax+8], rdx
$LN108@Insert:
	mov	rax, QWORD PTR [rdx+8]
	mov	QWORD PTR [rcx+8], rax
	mov	rax, QWORD PTR [r10+8]
	cmp	rdx, QWORD PTR [rax+8]
	jne	SHORT $LN107@Insert
	mov	QWORD PTR [rax+8], rcx
	jmp	SHORT $LN104@Insert
$LN107@Insert:
	mov	rax, QWORD PTR [rdx+8]
	cmp	rdx, QWORD PTR [rax]
	jne	SHORT $LN105@Insert
	mov	QWORD PTR [rax], rcx
	jmp	SHORT $LN104@Insert
$LN105@Insert:
	mov	QWORD PTR [rax+16], rcx
$LN104@Insert:
	mov	QWORD PTR [rcx], rdx
	mov	QWORD PTR [rdx+8], rcx
$LN109@Insert:

; 1684 : 						}
; 1685 : 					this->_Color(this->_Parent(_Pnode)) =
; 1686 : 						this->_Black;	// propagate red up

	mov	rax, QWORD PTR [rdx+8]
	mov	BYTE PTR [rax+32], 1

; 1687 : 					this->_Color(this->_Parent(this->_Parent(_Pnode))) =
; 1688 : 						this->_Red;

	mov	rax, QWORD PTR [rdx+8]
	mov	rcx, QWORD PTR [rax+8]
	mov	BYTE PTR [rcx+32], 0

; 1689 : 					_Rrotate(this->_Parent(this->_Parent(_Pnode)));

	mov	rax, QWORD PTR [rdx+8]
	mov	rcx, QWORD PTR [rax+8]
	mov	r8, QWORD PTR [rcx]
	mov	rax, QWORD PTR [r8+16]
	mov	QWORD PTR [rcx], rax
	mov	rax, QWORD PTR [r8+16]
	cmp	BYTE PTR [rax+33], 0
	jne	SHORT $LN171@Insert
	mov	QWORD PTR [rax+8], rcx
$LN171@Insert:
	mov	rax, QWORD PTR [rcx+8]
	mov	QWORD PTR [r8+8], rax
	mov	rax, QWORD PTR [r10+8]
	cmp	rcx, QWORD PTR [rax+8]
	jne	SHORT $LN170@Insert
	mov	QWORD PTR [rax+8], r8
	mov	QWORD PTR [r8+16], rcx

; 1690 : 					}
; 1691 : 				}
; 1692 : 			else

	jmp	$LN373@Insert

; 1689 : 					_Rrotate(this->_Parent(this->_Parent(_Pnode)));

$LN170@Insert:
	mov	rax, QWORD PTR [rcx+8]
	cmp	rcx, QWORD PTR [rax+16]
	jne	SHORT $LN168@Insert
	mov	QWORD PTR [rax+16], r8
	mov	QWORD PTR [r8+16], rcx

; 1690 : 					}
; 1691 : 				}
; 1692 : 			else

	jmp	$LN373@Insert

; 1689 : 					_Rrotate(this->_Parent(this->_Parent(_Pnode)));

$LN168@Insert:
	mov	QWORD PTR [rax], r8
	mov	QWORD PTR [r8+16], rcx

; 1690 : 					}
; 1691 : 				}
; 1692 : 			else

	jmp	$LN373@Insert
$LN8@Insert:

; 1693 : 				{	// fixup red-red in right subtree
; 1694 : 				_Wherenode =
; 1695 : 					this->_Left(this->_Parent(this->_Parent(_Pnode)));

	mov	r8, QWORD PTR [rcx]

; 1696 : 				if (this->_Color(_Wherenode) == this->_Red)

	cmp	BYTE PTR [r8+32], 0
	jne	SHORT $LN3@Insert
$LN374@Insert:

; 1697 : 					{	// parent has two red children, blacken both
; 1698 : 					this->_Color(this->_Parent(_Pnode)) = this->_Black;

	mov	BYTE PTR [rax+32], 1

; 1699 : 					this->_Color(_Wherenode) = this->_Black;

	mov	BYTE PTR [r8+32], 1

; 1700 : 					this->_Color(this->_Parent(this->_Parent(_Pnode))) =
; 1701 : 						this->_Red;

	mov	rax, QWORD PTR [rdx+8]
	mov	rcx, QWORD PTR [rax+8]
	mov	BYTE PTR [rcx+32], 0

; 1702 : 					_Pnode = this->_Parent(this->_Parent(_Pnode));

	mov	rax, QWORD PTR [rdx+8]
	mov	rdx, QWORD PTR [rax+8]

; 1703 : 					}
; 1704 : 				else

	jmp	$LN314@Insert
$LN3@Insert:

; 1705 : 					{	// parent has red and black children
; 1706 : 					if (_Pnode == this->_Left(this->_Parent(_Pnode)))

	cmp	rdx, QWORD PTR [rax]
	jne	SHORT $LN251@Insert

; 1707 : 						{	// rotate left child to right
; 1708 : 						_Pnode = this->_Parent(_Pnode);
; 1709 : 						_Rrotate(_Pnode);

	mov	rcx, QWORD PTR [rax]
	mov	rdx, rax
	mov	rax, QWORD PTR [rcx+16]
	mov	QWORD PTR [rdx], rax
	mov	rax, QWORD PTR [rcx+16]
	cmp	BYTE PTR [rax+33], 0
	jne	SHORT $LN250@Insert
	mov	QWORD PTR [rax+8], rdx
$LN250@Insert:
	mov	rax, QWORD PTR [rdx+8]
	mov	QWORD PTR [rcx+8], rax
	mov	rax, QWORD PTR [r10+8]
	cmp	rdx, QWORD PTR [rax+8]
	jne	SHORT $LN249@Insert
	mov	QWORD PTR [rax+8], rcx
	jmp	SHORT $LN246@Insert
$LN249@Insert:
	mov	rax, QWORD PTR [rdx+8]
	cmp	rdx, QWORD PTR [rax+16]
	jne	SHORT $LN247@Insert
	mov	QWORD PTR [rax+16], rcx
	jmp	SHORT $LN246@Insert
$LN247@Insert:
	mov	QWORD PTR [rax], rcx
$LN246@Insert:
	mov	QWORD PTR [rcx+16], rdx
	mov	QWORD PTR [rdx+8], rcx
$LN251@Insert:

; 1710 : 						}
; 1711 : 					this->_Color(this->_Parent(_Pnode)) =
; 1712 : 						this->_Black;	// propagate red up

	mov	rax, QWORD PTR [rdx+8]
	mov	BYTE PTR [rax+32], 1

; 1713 : 					this->_Color(this->_Parent(this->_Parent(_Pnode))) =
; 1714 : 						this->_Red;

	mov	rax, QWORD PTR [rdx+8]
	mov	rcx, QWORD PTR [rax+8]
	mov	BYTE PTR [rcx+32], 0

; 1715 : 					_Lrotate(this->_Parent(this->_Parent(_Pnode)));

	mov	rax, QWORD PTR [rdx+8]
	mov	rcx, QWORD PTR [rax+8]
	mov	r8, QWORD PTR [rcx+16]
	mov	rax, QWORD PTR [r8]
	mov	QWORD PTR [rcx+16], rax
	mov	rax, QWORD PTR [r8]
	cmp	BYTE PTR [rax+33], 0
	jne	SHORT $LN313@Insert
	mov	QWORD PTR [rax+8], rcx
$LN313@Insert:
	mov	rax, QWORD PTR [rcx+8]
	mov	QWORD PTR [r8+8], rax
	mov	rax, QWORD PTR [r10+8]
	cmp	rcx, QWORD PTR [rax+8]
	jne	SHORT $LN312@Insert
	mov	QWORD PTR [rax+8], r8
	jmp	SHORT $LN309@Insert
$LN312@Insert:
	mov	rax, QWORD PTR [rcx+8]
	cmp	rcx, QWORD PTR [rax]
	jne	SHORT $LN310@Insert
	mov	QWORD PTR [rax], r8
	jmp	SHORT $LN309@Insert
$LN310@Insert:
	mov	QWORD PTR [rax+16], r8
$LN309@Insert:
	mov	QWORD PTR [r8], rcx
$LN373@Insert:
	mov	QWORD PTR [rcx+8], r8
$LN314@Insert:

; 1661 : 			}
; 1662 : 
; 1663 : 		for (_Nodeptr _Pnode = _Newnode;
; 1664 : 			this->_Color(this->_Parent(_Pnode)) == this->_Red; )

	mov	rax, QWORD PTR [rdx+8]
	cmp	BYTE PTR [rax+32], 0
	je	$LL10@Insert
$LN9@Insert:

; 1716 : 					}
; 1717 : 				}
; 1718 : 
; 1719 : 		this->_Color(_Root()) = this->_Black;	// root is always black

	mov	rax, QWORD PTR [r10+8]

; 1720 : 		return (iterator(_Newnode, this));

	mov	QWORD PTR [rbx], r11
	mov	rcx, QWORD PTR [rax+8]
	mov	rax, rbx
	mov	BYTE PTR [rcx+32], 1

; 1721 : 		}

	add	rsp, 32					; 00000020H
	pop	rbx
	ret	0
$LN371@Insert:
?_Insert@?$_Tree@V?$_Tset_traits@PEAUstr_value@@Ustr_value_cmp@@V?$xalloc@PEAUstr_value@@@@$00@std@@@std@@IEAA?AV?$_Tree_const_iterator@V?$_Tree_val@V?$_Tset_traits@PEAUstr_value@@Ustr_value_cmp@@V?$xalloc@PEAUstr_value@@@@$00@std@@@std@@@2@_NPEAU_Node@?$_Tree_nod@V?$_Tset_traits@PEAUstr_value@@Ustr_value_cmp@@V?$xalloc@PEAUstr_value@@@@$00@std@@@2@1@Z ENDP ; std::_Tree<std::_Tset_traits<str_value * __ptr64,str_value_cmp,xalloc<str_value * __ptr64>,1> >::_Insert
_TEXT	ENDS
;	COMDAT pdata
; File c:\program files (x86)\microsoft visual studio 10.0\vc\include\utility
pdata	SEGMENT
$pdata$?_Linsert@?$_Tree@V?$_Tset_traits@PEAUstr_value@@Ustr_value_cmp@@V?$xalloc@PEAUstr_value@@@@$00@std@@@std@@QEAA?AU?$pair@V?$_Tree_const_iterator@V?$_Tree_val@V?$_Tset_traits@PEAUstr_value@@Ustr_value_cmp@@V?$xalloc@PEAUstr_value@@@@$00@std@@@std@@@std@@_N@2@PEAU_Node@?$_Tree_nod@V?$_Tset_traits@PEAUstr_value@@Ustr_value_cmp@@V?$xalloc@PEAUstr_value@@@@$00@std@@@2@_N@Z DD imagerel $LN177
	DD	imagerel $LN177+126
	DD	imagerel $unwind$?_Linsert@?$_Tree@V?$_Tset_traits@PEAUstr_value@@Ustr_value_cmp@@V?$xalloc@PEAUstr_value@@@@$00@std@@@std@@QEAA?AU?$pair@V?$_Tree_const_iterator@V?$_Tree_val@V?$_Tset_traits@PEAUstr_value@@Ustr_value_cmp@@V?$xalloc@PEAUstr_value@@@@$00@std@@@std@@@std@@_N@2@PEAU_Node@?$_Tree_nod@V?$_Tset_traits@PEAUstr_value@@Ustr_value_cmp@@V?$xalloc@PEAUstr_value@@@@$00@std@@@2@_N@Z
pdata	ENDS
;	COMDAT xdata
xdata	SEGMENT
$unwind$?_Linsert@?$_Tree@V?$_Tset_traits@PEAUstr_value@@Ustr_value_cmp@@V?$xalloc@PEAUstr_value@@@@$00@std@@@std@@QEAA?AU?$pair@V?$_Tree_const_iterator@V?$_Tree_val@V?$_Tset_traits@PEAUstr_value@@Ustr_value_cmp@@V?$xalloc@PEAUstr_value@@@@$00@std@@@std@@@std@@_N@2@PEAU_Node@?$_Tree_nod@V?$_Tset_traits@PEAUstr_value@@Ustr_value_cmp@@V?$xalloc@PEAUstr_value@@@@$00@std@@@2@_N@Z DD 040a01H
	DD	09340aH
	DD	07006520aH
; Function compile flags: /Ogtpy
; File c:\program files (x86)\microsoft visual studio 10.0\vc\include\xtree
xdata	ENDS
;	COMDAT ?_Linsert@?$_Tree@V?$_Tset_traits@PEAUstr_value@@Ustr_value_cmp@@V?$xalloc@PEAUstr_value@@@@$00@std@@@std@@QEAA?AU?$pair@V?$_Tree_const_iterator@V?$_Tree_val@V?$_Tset_traits@PEAUstr_value@@Ustr_value_cmp@@V?$xalloc@PEAUstr_value@@@@$00@std@@@std@@@std@@_N@2@PEAU_Node@?$_Tree_nod@V?$_Tset_traits@PEAUstr_value@@Ustr_value_cmp@@V?$xalloc@PEAUstr_value@@@@$00@std@@@2@_N@Z
_TEXT	SEGMENT
$T199946 = 64
this$ = 64
__$ReturnUdt$ = 72
_Node$ = 80
?_Linsert@?$_Tree@V?$_Tset_traits@PEAUstr_value@@Ustr_value_cmp@@V?$xalloc@PEAUstr_value@@@@$00@std@@@std@@QEAA?AU?$pair@V?$_Tree_const_iterator@V?$_Tree_val@V?$_Tset_traits@PEAUstr_value@@Ustr_value_cmp@@V?$xalloc@PEAUstr_value@@@@$00@std@@@std@@@std@@_N@2@PEAU_Node@?$_Tree_nod@V?$_Tset_traits@PEAUstr_value@@Ustr_value_cmp@@V?$xalloc@PEAUstr_value@@@@$00@std@@@2@_N@Z PROC ; std::_Tree<std::_Tset_traits<str_value * __ptr64,str_value_cmp,xalloc<str_value * __ptr64>,1> >::_Linsert, COMDAT

; 944  : 		{	// try to insert node at _Node, on left if _Leftish

$LN177:
	mov	QWORD PTR [rsp+16], rbx
	push	rdi
	sub	rsp, 48					; 00000030H

; 945  : 		const value_type& _Val = this->_Myval(_Node);
; 946  : 
; 947  : 		_Nodeptr _Trynode = _Root();

	mov	r11, QWORD PTR [rcx+8]
	mov	rbx, r8
	mov	rdi, rdx
	mov	r9, QWORD PTR [r11+8]

; 948  : 		_Nodeptr _Wherenode = this->_Myhead;
; 949  : 		bool _Addleft = true;	// add to left of head if tree empty

	mov	r8b, 1

; 950  : 		while (!this->_Isnil(_Trynode))

	cmp	BYTE PTR [r9+33], 0
	jne	SHORT $LN11@Linsert
	mov	rax, QWORD PTR [rbx+24]
	mov	r10d, DWORD PTR [rax+8]
	npad	6
$LL12@Linsert:

; 951  : 			{	// look for leaf to insert before (_Addleft) or after
; 952  : 			_Wherenode = _Trynode;
; 953  : 			if (_Leftish)
; 954  : 				_Addleft = !_DEBUG_LT_PRED(this->comp,
; 955  : 					this->_Key(_Trynode),
; 956  : 					this->_Kfn(_Val));	// favor left end
; 957  : 			else
; 958  : 				_Addleft = _DEBUG_LT_PRED(this->comp,

	mov	rax, QWORD PTR [r9+24]
	mov	r11, r9
	cmp	r10d, DWORD PTR [rax+8]
	setb	r8b

; 959  : 					this->_Kfn(_Val),
; 960  : 					this->_Key(_Trynode));	// favor right end
; 961  : 			_Trynode = _Addleft ? this->_Left(_Trynode)
; 962  : 				: this->_Right(_Trynode);

	test	r8b, r8b
	je	SHORT $LN15@Linsert
	mov	r9, QWORD PTR [r9]
	jmp	SHORT $LN16@Linsert
$LN15@Linsert:
	mov	r9, QWORD PTR [r9+16]
$LN16@Linsert:

; 950  : 		while (!this->_Isnil(_Trynode))

	cmp	BYTE PTR [r9+33], 0
	je	SHORT $LL12@Linsert
$LN11@Linsert:

; 963  : 			}
; 964  : 
; 965  : 		if (this->_Multi)
; 966  : 			return (_Pairib(_Insert(_Addleft, _Wherenode, _Node), true));

	lea	rdx, QWORD PTR $T199946[rsp]
	mov	r9, r11
	mov	QWORD PTR [rsp+32], rbx
	call	?_Insert@?$_Tree@V?$_Tset_traits@PEAUstr_value@@Ustr_value_cmp@@V?$xalloc@PEAUstr_value@@@@$00@std@@@std@@IEAA?AV?$_Tree_const_iterator@V?$_Tree_val@V?$_Tset_traits@PEAUstr_value@@Ustr_value_cmp@@V?$xalloc@PEAUstr_value@@@@$00@std@@@std@@@2@_NPEAU_Node@?$_Tree_nod@V?$_Tset_traits@PEAUstr_value@@Ustr_value_cmp@@V?$xalloc@PEAUstr_value@@@@$00@std@@@2@1@Z ; std::_Tree<std::_Tset_traits<str_value * __ptr64,str_value_cmp,xalloc<str_value * __ptr64>,1> >::_Insert

; 967  : 		else
; 968  : 			{	// insert only if unique
; 969  : 			iterator _Where = iterator(_Wherenode, this);
; 970  : 			if (!_Addleft)
; 971  : 				;	// need to test if insert after is okay
; 972  : 			else if (_Where == begin())
; 973  : 				return (_Pairib(_Insert(true, _Wherenode, _Node), true));
; 974  : 			else
; 975  : 				--_Where;	// need to test if insert before is okay
; 976  : 
; 977  : 			if (_DEBUG_LT_PRED(this->comp,
; 978  : 				this->_Key(_Where._Mynode()),
; 979  : 				this->_Kfn(_Val)))
; 980  : 				return (_Pairib(_Insert(_Addleft, _Wherenode, _Node), true));
; 981  : 			else
; 982  : 				{	// duplicate, don't insert
; 983  : 				_Dest_val(this->_Alval,
; 984  : 					_STD addressof(this->_Myval(_Node)));
; 985  : 
; 986  : 				this->_Alnod.deallocate(_Node, 1);
; 987  : 
; 988  : 				return (_Pairib(_Where, false));
; 989  : 				}
; 990  : 			}
; 991  : 		}

	mov	rbx, QWORD PTR [rsp+72]
	mov	BYTE PTR [rdi+8], 1
	mov	rcx, QWORD PTR [rax]
	mov	rax, rdi
	mov	QWORD PTR [rdi], rcx
	add	rsp, 48					; 00000030H
	pop	rdi
	ret	0
?_Linsert@?$_Tree@V?$_Tset_traits@PEAUstr_value@@Ustr_value_cmp@@V?$xalloc@PEAUstr_value@@@@$00@std@@@std@@QEAA?AU?$pair@V?$_Tree_const_iterator@V?$_Tree_val@V?$_Tset_traits@PEAUstr_value@@Ustr_value_cmp@@V?$xalloc@PEAUstr_value@@@@$00@std@@@std@@@std@@_N@2@PEAU_Node@?$_Tree_nod@V?$_Tset_traits@PEAUstr_value@@Ustr_value_cmp@@V?$xalloc@PEAUstr_value@@@@$00@std@@@2@_N@Z ENDP ; std::_Tree<std::_Tset_traits<str_value * __ptr64,str_value_cmp,xalloc<str_value * __ptr64>,1> >::_Linsert
_TEXT	ENDS
;	COMDAT pdata
; File c:\users\nummer\documents\github\olr-3.0\src\xray\xrcore\xrsyncronize.cpp
pdata	SEGMENT
$pdata$??$xr_free@Ustr_value@@@@YAXAEAPEAUstr_value@@@Z DD imagerel $LN34
	DD	imagerel $LN34+173
	DD	imagerel $unwind$??$xr_free@Ustr_value@@@@YAXAEAPEAUstr_value@@@Z
pdata	ENDS
;	COMDAT xdata
xdata	SEGMENT
$unwind$??$xr_free@Ustr_value@@@@YAXAEAPEAUstr_value@@@Z DD 086701H
	DD	075467H
	DD	06345eH
	DD	08640aH
	DD	07006320aH
; Function compile flags: /Ogtpy
; File c:\users\nummer\documents\github\olr-3.0\src\xray\xrcore\xrmemory.h
xdata	ENDS
;	COMDAT ??$xr_free@Ustr_value@@@@YAXAEAPEAUstr_value@@@Z
_TEXT	SEGMENT
P$ = 48
??$xr_free@Ustr_value@@@@YAXAEAPEAUstr_value@@@Z PROC	; xr_free<str_value>, COMDAT

; 109  : 	IC void		xr_free		(T* &P)					{	if (P) { Memory.mem_free((void*)P); P=NULL;	};	}

$LN34:
	mov	QWORD PTR [rsp+24], rsi
	push	rdi
	sub	rsp, 32					; 00000020H
	inc	DWORD PTR ?Memory@@3VxrMemory@@A
	mov	rdi, QWORD PTR [rcx]
	mov	rsi, rcx
	movzx	eax, BYTE PTR [rdi-1]
	dec	rdi
	cmp	eax, 55					; 00000037H
	jne	SHORT $LN9@xr_free@21
	test	rdi, rdi
	je	SHORT $LN32@xr_free@21
	and	rdi, -8
	mov	rcx, QWORD PTR [rdi-8]
	call	QWORD PTR __imp_free
	mov	QWORD PTR [rsi], 0
	mov	rsi, QWORD PTR [rsp+64]
	add	rsp, 32					; 00000020H
	pop	rdi
	ret	0
$LN32@xr_free@21:
	mov	QWORD PTR [rcx], 0
	mov	rsi, QWORD PTR [rsp+64]
	add	rsp, 32					; 00000020H
	pop	rdi
	ret	0
$LN9@xr_free@21:
	mov	QWORD PTR [rsp+48], rbx
	lea	rbx, QWORD PTR [rax+rax*4]
	mov	QWORD PTR [rsp+56], rbp
	lea	rbp, OFFSET FLAT:?mem_pools@@3PAVMEMPOOL@@A ; mem_pools
	mov	rcx, QWORD PTR [rbp+rbx*8]
	call	QWORD PTR __imp_EnterCriticalSection
	mov	rax, QWORD PTR [rbp+rbx*8+32]
	mov	QWORD PTR [rdi], rax
	mov	rcx, QWORD PTR [rbp+rbx*8]
	mov	QWORD PTR [rbp+rbx*8+32], rdi
	call	QWORD PTR __imp_LeaveCriticalSection
	mov	rbp, QWORD PTR [rsp+56]
	mov	rbx, QWORD PTR [rsp+48]
	mov	QWORD PTR [rsi], 0
	mov	rsi, QWORD PTR [rsp+64]
	add	rsp, 32					; 00000020H
	pop	rdi
	ret	0
??$xr_free@Ustr_value@@@@YAXAEAPEAUstr_value@@@Z ENDP	; xr_free<str_value>
_TEXT	ENDS
PUBLIC	?stat_economy@str_container@@QEAAIXZ		; str_container::stat_economy
pdata	SEGMENT
$pdata$?stat_economy@str_container@@QEAAIXZ DD imagerel $LN85
	DD	imagerel $LN85+177
	DD	imagerel $unwind$?stat_economy@str_container@@QEAAIXZ
pdata	ENDS
xdata	SEGMENT
$unwind$?stat_economy@str_container@@QEAAIXZ DD 040a01H
	DD	06340aH
	DD	07006320aH
; Function compile flags: /Ogtpy
; File c:\users\nummer\documents\github\olr-3.0\src\xray\xrcore\xrstring.cpp
xdata	ENDS
_TEXT	SEGMENT
this$ = 48
?stat_economy@str_container@@QEAAIXZ PROC		; str_container::stat_economy

; 137  : {

$LN85:
	mov	QWORD PTR [rsp+8], rbx
	push	rdi
	sub	rsp, 32					; 00000020H
	mov	rdi, rcx

; 138  : 	cs.Enter	();

	mov	rcx, QWORD PTR [rcx]
	call	QWORD PTR __imp_EnterCriticalSection

; 139  : 	cdb::iterator	it		= container.begin	();

	mov	r11, QWORD PTR [rdi+16]

; 140  : 	cdb::iterator	end		= container.end		();
; 141  : 	int				counter	= 0;
; 142  : 	counter			-= sizeof(*this);
; 143  : 	counter			-= sizeof(cdb::allocator_type);

	mov	ebx, -41				; ffffffffffffffd7H
	mov	rax, QWORD PTR [r11]

; 144  : 	const int		node_size = 20;
; 145  : 	for (; it!=end; it++)	{

	cmp	rax, r11
	je	SHORT $LN1@stat_econo
	npad	9
$LL34@stat_econo:

; 146  : 		counter		-= HEADER;
; 147  : 		counter		-= node_size;
; 148  : 		counter		+= int((int((*it)->dwReference) - 1)*int((*it)->dwLength + 1));

	mov	rdx, QWORD PTR [rax+24]
	mov	r8d, DWORD PTR [rdx+4]
	mov	ecx, DWORD PTR [rdx]
	inc	r8d
	dec	ecx
	imul	r8d, ecx
	cmp	BYTE PTR [rax+33], 0
	lea	ebx, DWORD PTR [rbx+r8-32]
	jne	SHORT $LN83@stat_econo

; 144  : 	const int		node_size = 20;
; 145  : 	for (; it!=end; it++)	{

	mov	rcx, QWORD PTR [rax+16]
	cmp	BYTE PTR [rcx+33], 0
	jne	SHORT $LN80@stat_econo
	mov	rax, rcx
	mov	rcx, QWORD PTR [rcx]
	cmp	BYTE PTR [rcx+33], 0
	jne	SHORT $LN83@stat_econo
$LL49@stat_econo:
	mov	rax, rcx
	mov	rcx, QWORD PTR [rcx]
	cmp	BYTE PTR [rcx+33], 0
	je	SHORT $LL49@stat_econo
	jmp	SHORT $LN83@stat_econo
$LN80@stat_econo:
	mov	rcx, QWORD PTR [rax+8]
	cmp	BYTE PTR [rcx+33], 0
	jne	SHORT $LN84@stat_econo
	npad	4
$LL33@stat_econo:
	cmp	rax, QWORD PTR [rcx+16]
	jne	SHORT $LN84@stat_econo
	mov	rax, rcx
	mov	rcx, QWORD PTR [rcx+8]
	cmp	BYTE PTR [rcx+33], 0
	je	SHORT $LL33@stat_econo
$LN84@stat_econo:
	mov	rax, rcx
$LN83@stat_econo:
	cmp	rax, r11
	jne	SHORT $LL34@stat_econo
$LN1@stat_econo:

; 149  : 	}
; 150  : 	cs.Leave		();

	mov	rcx, QWORD PTR [rdi]
	call	QWORD PTR __imp_LeaveCriticalSection

; 151  : 
; 152  : 	return			u32(counter);

	mov	eax, ebx

; 153  : }

	mov	rbx, QWORD PTR [rsp+48]
	add	rsp, 32					; 00000020H
	pop	rdi
	ret	0
?stat_economy@str_container@@QEAAIXZ ENDP		; str_container::stat_economy
_TEXT	ENDS
PUBLIC	?dump@str_container@@QEAAXXZ			; str_container::dump
pdata	SEGMENT
$pdata$?dump@str_container@@QEAAXXZ DD imagerel $LN93
	DD	imagerel $LN93+255
	DD	imagerel $unwind$?dump@str_container@@QEAAXXZ
pdata	ENDS
xdata	SEGMENT
$unwind$?dump@str_container@@QEAAXXZ DD 081401H
	DD	0a6414H
	DD	095414H
	DD	083414H
	DD	070105214H
; Function compile flags: /Ogtpy
xdata	ENDS
_TEXT	SEGMENT
this$ = 64
?dump@str_container@@QEAAXXZ PROC			; str_container::dump

; 125  : {

$LN93:
	mov	QWORD PTR [rsp+8], rbx
	mov	QWORD PTR [rsp+16], rbp
	mov	QWORD PTR [rsp+24], rsi
	push	rdi
	sub	rsp, 48					; 00000030H
	mov	rbp, rcx

; 126  : 	cs.Enter	();

	mov	rcx, QWORD PTR [rcx]
	call	QWORD PTR __imp_EnterCriticalSection

; 127  : 	cdb::iterator	it	= container.begin	();

	mov	rdi, QWORD PTR [rbp+16]

; 128  : 	cdb::iterator	end	= container.end		();
; 129  : 	FILE* F		= fopen("x:\\$str_dump$.txt","w");

	lea	rdx, OFFSET FLAT:??_C@_01NOFIACDB@w?$AA@
	mov	rbx, QWORD PTR [rdi]
	lea	rcx, OFFSET FLAT:??_C@_0BC@DNCLKLDJ@x?3?2$str_dump$?4txt?$AA@
	call	QWORD PTR __imp_fopen
	mov	rsi, rax

; 130  : 	for (; it!=end; it++)

	cmp	rbx, rdi
	je	$LN1@dump
	npad	9
$LL34@dump:

; 131  : 		fprintf		(F,"ref[%4d]-len[%3d]-crc[%8X] : %s\n",(*it)->dwReference,(*it)->dwLength,(*it)->dwCRC,(*it)->value);

	mov	rdx, QWORD PTR [rbx+24]
	mov	r9d, DWORD PTR [rdx+4]
	mov	r8d, DWORD PTR [rdx]
	lea	rcx, QWORD PTR [rdx+12]
	mov	QWORD PTR [rsp+40], rcx
	mov	ecx, DWORD PTR [rdx+8]
	lea	rdx, OFFSET FLAT:??_C@_0CB@NIJMNPED@ref?$FL?$CF4d?$FN?9len?$FL?$CF3d?$FN?9crc?$FL?$CF8X?$FN?5?3?5?$CFs?6@
	mov	DWORD PTR [rsp+32], ecx
	mov	rcx, rsi
	call	QWORD PTR __imp_fprintf
	cmp	BYTE PTR [rbx+33], 0
	jne	SHORT $LN91@dump

; 130  : 	for (; it!=end; it++)

	mov	rax, QWORD PTR [rbx+16]
	cmp	BYTE PTR [rax+33], 0
	jne	SHORT $LN88@dump
	mov	rbx, rax
	mov	rax, QWORD PTR [rax]
	cmp	BYTE PTR [rax+33], 0
	jne	SHORT $LN91@dump
	npad	9
$LL49@dump:
	mov	rbx, rax
	mov	rax, QWORD PTR [rax]
	cmp	BYTE PTR [rax+33], 0
	je	SHORT $LL49@dump
	jmp	SHORT $LN91@dump
$LN88@dump:
	mov	rax, QWORD PTR [rbx+8]
	cmp	BYTE PTR [rax+33], 0
	jne	SHORT $LN92@dump
$LL33@dump:
	cmp	rbx, QWORD PTR [rax+16]
	jne	SHORT $LN92@dump
	mov	rbx, rax
	mov	rax, QWORD PTR [rax+8]
	cmp	BYTE PTR [rax+33], 0
	je	SHORT $LL33@dump
$LN92@dump:
	mov	rbx, rax
$LN91@dump:
	cmp	rbx, rdi
	jne	$LL34@dump
$LN1@dump:

; 132  : 	fclose		(F);

	mov	rcx, rsi
	call	QWORD PTR __imp_fclose

; 133  : 	cs.Leave	();

	mov	rcx, QWORD PTR [rbp]

; 134  : }

	mov	rbx, QWORD PTR [rsp+64]
	mov	rbp, QWORD PTR [rsp+72]
	mov	rsi, QWORD PTR [rsp+80]
	add	rsp, 48					; 00000030H
	pop	rdi
	rex_jmp	QWORD PTR __imp_LeaveCriticalSection
?dump@str_container@@QEAAXXZ ENDP			; str_container::dump
;	COMDAT pdata
; File c:\program files (x86)\microsoft visual studio 10.0\vc\include\utility
pdata	SEGMENT
$pdata$??$insert@AEAPEAUstr_value@@@?$_Tree@V?$_Tset_traits@PEAUstr_value@@Ustr_value_cmp@@V?$xalloc@PEAUstr_value@@@@$00@std@@@std@@QEAA?AU?$pair@V?$_Tree_const_iterator@V?$_Tree_val@V?$_Tset_traits@PEAUstr_value@@Ustr_value_cmp@@V?$xalloc@PEAUstr_value@@@@$00@std@@@std@@@std@@_N@1@AEAPEAUstr_value@@@Z DD imagerel $LN5
	DD	imagerel $LN5+52
	DD	imagerel $unwind$??$insert@AEAPEAUstr_value@@@?$_Tree@V?$_Tset_traits@PEAUstr_value@@Ustr_value_cmp@@V?$xalloc@PEAUstr_value@@@@$00@std@@@std@@QEAA?AU?$pair@V?$_Tree_const_iterator@V?$_Tree_val@V?$_Tset_traits@PEAUstr_value@@Ustr_value_cmp@@V?$xalloc@PEAUstr_value@@@@$00@std@@@std@@@std@@_N@1@AEAPEAUstr_value@@@Z
pdata	ENDS
;	COMDAT xdata
xdata	SEGMENT
$unwind$??$insert@AEAPEAUstr_value@@@?$_Tree@V?$_Tset_traits@PEAUstr_value@@Ustr_value_cmp@@V?$xalloc@PEAUstr_value@@@@$00@std@@@std@@QEAA?AU?$pair@V?$_Tree_const_iterator@V?$_Tree_val@V?$_Tset_traits@PEAUstr_value@@Ustr_value_cmp@@V?$xalloc@PEAUstr_value@@@@$00@std@@@std@@@std@@_N@1@AEAPEAUstr_value@@@Z DD 040a01H
	DD	06340aH
	DD	07006320aH
; Function compile flags: /Ogtpy
; File c:\program files (x86)\microsoft visual studio 10.0\vc\include\xtree
xdata	ENDS
;	COMDAT ??$insert@AEAPEAUstr_value@@@?$_Tree@V?$_Tset_traits@PEAUstr_value@@Ustr_value_cmp@@V?$xalloc@PEAUstr_value@@@@$00@std@@@std@@QEAA?AU?$pair@V?$_Tree_const_iterator@V?$_Tree_val@V?$_Tset_traits@PEAUstr_value@@Ustr_value_cmp@@V?$xalloc@PEAUstr_value@@@@$00@std@@@std@@@std@@_N@1@AEAPEAUstr_value@@@Z
_TEXT	SEGMENT
this$ = 48
__$ReturnUdt$ = 56
_Val$ = 64
??$insert@AEAPEAUstr_value@@@?$_Tree@V?$_Tset_traits@PEAUstr_value@@Ustr_value_cmp@@V?$xalloc@PEAUstr_value@@@@$00@std@@@std@@QEAA?AU?$pair@V?$_Tree_const_iterator@V?$_Tree_val@V?$_Tset_traits@PEAUstr_value@@Ustr_value_cmp@@V?$xalloc@PEAUstr_value@@@@$00@std@@@std@@@std@@_N@1@AEAPEAUstr_value@@@Z PROC ; std::_Tree<std::_Tset_traits<str_value * __ptr64,str_value_cmp,xalloc<str_value * __ptr64>,1> >::insert<str_value * __ptr64 & __ptr64>, COMDAT

; 753  : 		_Pairib insert(_Valty&& _Val)

$LN5:
	mov	QWORD PTR [rsp+8], rbx
	push	rdi
	sub	rsp, 32					; 00000020H
	mov	rdi, rdx

; 754  : 		{	// try to insert node with value _Val, favoring right side
; 755  : 		return (_Linsert(this->_Buynode(_STD forward<_Valty>(_Val)),
; 756  : 			false));

	mov	rdx, r8
	mov	rbx, rcx
	call	??$_Buynode@AEAPEAUstr_value@@@?$_Tree_val@V?$_Tset_traits@PEAUstr_value@@Ustr_value_cmp@@V?$xalloc@PEAUstr_value@@@@$00@std@@@std@@QEAAPEAU_Node@?$_Tree_nod@V?$_Tset_traits@PEAUstr_value@@Ustr_value_cmp@@V?$xalloc@PEAUstr_value@@@@$00@std@@@1@AEAPEAUstr_value@@@Z ; std::_Tree_val<std::_Tset_traits<str_value * __ptr64,str_value_cmp,xalloc<str_value * __ptr64>,1> >::_Buynode<str_value * __ptr64 & __ptr64>
	mov	rdx, rdi
	mov	rcx, rbx
	mov	r8, rax
	call	?_Linsert@?$_Tree@V?$_Tset_traits@PEAUstr_value@@Ustr_value_cmp@@V?$xalloc@PEAUstr_value@@@@$00@std@@@std@@QEAA?AU?$pair@V?$_Tree_const_iterator@V?$_Tree_val@V?$_Tset_traits@PEAUstr_value@@Ustr_value_cmp@@V?$xalloc@PEAUstr_value@@@@$00@std@@@std@@@std@@_N@2@PEAU_Node@?$_Tree_nod@V?$_Tset_traits@PEAUstr_value@@Ustr_value_cmp@@V?$xalloc@PEAUstr_value@@@@$00@std@@@2@_N@Z ; std::_Tree<std::_Tset_traits<str_value * __ptr64,str_value_cmp,xalloc<str_value * __ptr64>,1> >::_Linsert

; 757  : 		}

	mov	rbx, QWORD PTR [rsp+48]
	mov	rax, rdi
	add	rsp, 32					; 00000020H
	pop	rdi
	ret	0
??$insert@AEAPEAUstr_value@@@?$_Tree@V?$_Tset_traits@PEAUstr_value@@Ustr_value_cmp@@V?$xalloc@PEAUstr_value@@@@$00@std@@@std@@QEAA?AU?$pair@V?$_Tree_const_iterator@V?$_Tree_val@V?$_Tset_traits@PEAUstr_value@@Ustr_value_cmp@@V?$xalloc@PEAUstr_value@@@@$00@std@@@std@@@std@@_N@1@AEAPEAUstr_value@@@Z ENDP ; std::_Tree<std::_Tset_traits<str_value * __ptr64,str_value_cmp,xalloc<str_value * __ptr64>,1> >::insert<str_value * __ptr64 & __ptr64>
_TEXT	ENDS
;	COMDAT pdata
; File c:\program files (x86)\microsoft visual studio 10.0\vc\include\utility
pdata	SEGMENT
$pdata$??$insert@AEAPEAUstr_value@@@?$multiset@PEAUstr_value@@Ustr_value_cmp@@V?$xalloc@PEAUstr_value@@@@@std@@QEAA?AV?$_Tree_const_iterator@V?$_Tree_val@V?$_Tset_traits@PEAUstr_value@@Ustr_value_cmp@@V?$xalloc@PEAUstr_value@@@@$00@std@@@std@@@1@AEAPEAUstr_value@@@Z DD imagerel $LN185
	DD	imagerel $LN185+141
	DD	imagerel $unwind$??$insert@AEAPEAUstr_value@@@?$multiset@PEAUstr_value@@Ustr_value_cmp@@V?$xalloc@PEAUstr_value@@@@@std@@QEAA?AV?$_Tree_const_iterator@V?$_Tree_val@V?$_Tset_traits@PEAUstr_value@@Ustr_value_cmp@@V?$xalloc@PEAUstr_value@@@@$00@std@@@std@@@1@AEAPEAUstr_value@@@Z
pdata	ENDS
;	COMDAT xdata
xdata	SEGMENT
$unwind$??$insert@AEAPEAUstr_value@@@?$multiset@PEAUstr_value@@Ustr_value_cmp@@V?$xalloc@PEAUstr_value@@@@@std@@QEAA?AV?$_Tree_const_iterator@V?$_Tree_val@V?$_Tset_traits@PEAUstr_value@@Ustr_value_cmp@@V?$xalloc@PEAUstr_value@@@@$00@std@@@std@@@1@AEAPEAUstr_value@@@Z DD 040a01H
	DD	09340aH
	DD	07006520aH
; Function compile flags: /Ogtpy
; File c:\program files (x86)\microsoft visual studio 10.0\vc\include\set
xdata	ENDS
;	COMDAT ??$insert@AEAPEAUstr_value@@@?$multiset@PEAUstr_value@@Ustr_value_cmp@@V?$xalloc@PEAUstr_value@@@@@std@@QEAA?AV?$_Tree_const_iterator@V?$_Tree_val@V?$_Tset_traits@PEAUstr_value@@Ustr_value_cmp@@V?$xalloc@PEAUstr_value@@@@$00@std@@@std@@@1@AEAPEAUstr_value@@@Z
_TEXT	SEGMENT
$T244880 = 64
this$ = 64
__$ReturnUdt$ = 72
_Val$ = 80
??$insert@AEAPEAUstr_value@@@?$multiset@PEAUstr_value@@Ustr_value_cmp@@V?$xalloc@PEAUstr_value@@@@@std@@QEAA?AV?$_Tree_const_iterator@V?$_Tree_val@V?$_Tset_traits@PEAUstr_value@@Ustr_value_cmp@@V?$xalloc@PEAUstr_value@@@@$00@std@@@std@@@1@AEAPEAUstr_value@@@Z PROC ; std::multiset<str_value * __ptr64,str_value_cmp,xalloc<str_value * __ptr64> >::insert<str_value * __ptr64 & __ptr64>, COMDAT

; 290  : 		iterator insert(_Valty&& _Val)

$LN185:
	mov	QWORD PTR [rsp+16], rbx
	push	rdi
	sub	rsp, 48					; 00000030H
	mov	rbx, rdx

; 291  : 		{	// insert a {key, mapped} value
; 292  : 		return (_Mybase::insert(_STD forward<_Valty>(_Val)).first);

	mov	rdx, r8
	mov	rdi, rcx
	call	??$_Buynode@AEAPEAUstr_value@@@?$_Tree_val@V?$_Tset_traits@PEAUstr_value@@Ustr_value_cmp@@V?$xalloc@PEAUstr_value@@@@$00@std@@@std@@QEAAPEAU_Node@?$_Tree_nod@V?$_Tset_traits@PEAUstr_value@@Ustr_value_cmp@@V?$xalloc@PEAUstr_value@@@@$00@std@@@1@AEAPEAUstr_value@@@Z ; std::_Tree_val<std::_Tset_traits<str_value * __ptr64,str_value_cmp,xalloc<str_value * __ptr64>,1> >::_Buynode<str_value * __ptr64 & __ptr64>
	mov	r9, QWORD PTR [rdi+8]
	mov	r10b, 1
	mov	r8, QWORD PTR [r9+8]
	mov	r11, rax
	cmp	BYTE PTR [r8+33], 0
	jne	SHORT $LN19@insert
	mov	rdx, QWORD PTR [rax+24]
	mov	ecx, DWORD PTR [rdx+8]
	npad	12
$LL20@insert:
	mov	rax, QWORD PTR [r8+24]
	mov	r9, r8
	cmp	ecx, DWORD PTR [rax+8]
	setb	r10b
	test	r10b, r10b
	je	SHORT $LN23@insert
	mov	r8, QWORD PTR [r8]
	jmp	SHORT $LN24@insert
$LN23@insert:
	mov	r8, QWORD PTR [r8+16]
$LN24@insert:
	cmp	BYTE PTR [r8+33], 0
	je	SHORT $LL20@insert
$LN19@insert:
	lea	rdx, QWORD PTR $T244880[rsp]
	movzx	r8d, r10b
	mov	rcx, rdi
	mov	QWORD PTR [rsp+32], r11
	call	?_Insert@?$_Tree@V?$_Tset_traits@PEAUstr_value@@Ustr_value_cmp@@V?$xalloc@PEAUstr_value@@@@$00@std@@@std@@IEAA?AV?$_Tree_const_iterator@V?$_Tree_val@V?$_Tset_traits@PEAUstr_value@@Ustr_value_cmp@@V?$xalloc@PEAUstr_value@@@@$00@std@@@std@@@2@_NPEAU_Node@?$_Tree_nod@V?$_Tset_traits@PEAUstr_value@@Ustr_value_cmp@@V?$xalloc@PEAUstr_value@@@@$00@std@@@2@1@Z ; std::_Tree<std::_Tset_traits<str_value * __ptr64,str_value_cmp,xalloc<str_value * __ptr64>,1> >::_Insert
	mov	rcx, QWORD PTR [rax]
	mov	rax, rbx
	mov	QWORD PTR [rbx], rcx

; 293  : 		}

	mov	rbx, QWORD PTR [rsp+72]
	add	rsp, 48					; 00000030H
	pop	rdi
	ret	0
??$insert@AEAPEAUstr_value@@@?$multiset@PEAUstr_value@@Ustr_value_cmp@@V?$xalloc@PEAUstr_value@@@@@std@@QEAA?AV?$_Tree_const_iterator@V?$_Tree_val@V?$_Tset_traits@PEAUstr_value@@Ustr_value_cmp@@V?$xalloc@PEAUstr_value@@@@$00@std@@@std@@@1@AEAPEAUstr_value@@@Z ENDP ; std::multiset<str_value * __ptr64,str_value_cmp,xalloc<str_value * __ptr64> >::insert<str_value * __ptr64 & __ptr64>
_TEXT	ENDS
PUBLIC	?dock@str_container@@QEAAPEAUstr_value@@PEBD@Z	; str_container::dock
pdata	SEGMENT
$pdata$?dock@str_container@@QEAAPEAUstr_value@@PEBD@Z DD imagerel $LN344
	DD	imagerel $LN344+536
	DD	imagerel $unwind$?dock@str_container@@QEAAPEAUstr_value@@PEBD@Z
pdata	ENDS
xdata	SEGMENT
$unwind$?dock@str_container@@QEAAPEAUstr_value@@PEBD@Z DD 0f3f01H
	DD	06f43fH
	DD	07c43aH
	DD	087435H
	DD	096430H
	DD	0a542bH
	DD	0e3426H
	DD	0e004a208H
	DD	0d002H
; Function compile flags: /Ogtpy
; File c:\users\nummer\documents\github\olr-3.0\src\xray\xrcore\xrstring.cpp
xdata	ENDS
_TEXT	SEGMENT
this$ = 112
s_len_with_zero$1$ = 120
$T246375 = 120
result$ = 120
value$ = 120
_Where$245280 = 128
$T245215 = 136
?dock@str_container@@QEAAPEAUstr_value@@PEBD@Z PROC	; str_container::dock

; 11   : {

$LN344:
	push	r13
	push	r14
	sub	rsp, 88					; 00000058H
	mov	r13, rdx
	mov	r14, rcx

; 12   : 	if (0==value)				return 0;

	test	rdx, rdx
	jne	SHORT $LN11@dock
	xor	eax, eax

; 69   : }

	add	rsp, 88					; 00000058H
	pop	r14
	pop	r13
	ret	0
$LN11@dock:

; 13   : 
; 14   : 	cs.Enter					();

	mov	rcx, QWORD PTR [rcx]
	mov	QWORD PTR [rsp+112], rbx
	mov	QWORD PTR [rsp+80], rbp
	mov	QWORD PTR [rsp+72], rsi
	mov	QWORD PTR [rsp+64], rdi
	mov	QWORD PTR [rsp+56], r12
	mov	QWORD PTR [rsp+48], r15
	call	QWORD PTR __imp_EnterCriticalSection

; 15   : #ifdef DEBUG_MEMORY_MANAGER
; 16   : 	Memory.stat_strdock			++	;
; 17   : #endif // DEBUG_MEMORY_MANAGER
; 18   : 
; 19   : 	str_value*	result			= 0	;
; 20   : 
; 21   : 	// calc len
; 22   : 	u32		s_len				= xr_strlen(value);

	or	rcx, -1
	xor	eax, eax
	mov	rdi, r13
	repne scasb
	not	rcx

; 23   : 	u32		s_len_with_zero		= (u32)s_len+1;

	mov	DWORD PTR s_len_with_zero$1$[rsp], ecx

; 24   : 	VERIFY	(HEADER+s_len_with_zero < 4096);
; 25   : 
; 26   : 	// setup find structure
; 27   : 	string16	header;
; 28   : 	str_value*	sv				= (str_value*)header;
; 29   : 	sv->dwReference				= 0;
; 30   : 	sv->dwLength				= s_len;
; 31   : 	sv->dwCRC					= crc32	(value,s_len);

	lea	edx, DWORD PTR [rcx-1]
	lea	rbp, QWORD PTR [rcx-1]
	mov	rcx, r13
	call	?crc32@@YAIPEBXI@Z			; crc32
	mov	esi, eax

; 32   : 	
; 33   : 	// search
; 34   : 	cdb::iterator	I			= container.find	(sv);	// only integer compares :)

	mov	rax, QWORD PTR [r14+16]
	mov	rdx, QWORD PTR [rax+8]
	cmp	BYTE PTR [rdx+33], 0
	jne	SHORT $LN26@dock
$LL27@dock:
	mov	rcx, QWORD PTR [rdx+24]
	cmp	DWORD PTR [rcx+8], esi
	jae	SHORT $LN25@dock
	mov	rdx, QWORD PTR [rdx+16]
	jmp	SHORT $LN24@dock
$LN25@dock:
	mov	rax, rdx
	mov	rdx, QWORD PTR [rdx]
$LN24@dock:
	cmp	BYTE PTR [rdx+33], 0
	je	SHORT $LL27@dock
$LN26@dock:
	mov	rcx, QWORD PTR [r14+16]
	mov	QWORD PTR _Where$245280[rsp], rax
	cmp	rax, rcx
	je	SHORT $LN20@dock
	mov	rax, QWORD PTR [rax+24]
	cmp	esi, DWORD PTR [rax+8]
	jb	SHORT $LN20@dock
	lea	rdi, QWORD PTR _Where$245280[rsp]
	jmp	SHORT $LN21@dock
$LN20@dock:
	mov	QWORD PTR $T245215[rsp], rcx
	lea	rdi, QWORD PTR $T245215[rsp]
$LN21@dock:
	mov	rdi, QWORD PTR [rdi]

; 35   : 	if (I!=container.end())		{

	mov	r12, QWORD PTR [r14+16]
	cmp	rdi, r12
	je	SHORT $LN342@dock

; 36   : 		// something found - verify, it is exactly our string
; 37   : 		cdb::iterator	save	= I;
; 38   : 		for (; I!=container.end() && (*I)->dwCRC == sv->dwCRC; ++I)	{

$LL98@dock:
	mov	rbx, QWORD PTR [rdi+24]
	cmp	DWORD PTR [rbx+8], esi
	jne	SHORT $LN342@dock

; 39   : 			str_value*	V		= (*I);
; 40   : 			if	(V->dwLength!=sv->dwLength)			continue;

	cmp	DWORD PTR [rbx+4], ebp
	jne	SHORT $LN5@dock

; 41   : 			if	(0!=memcmp(V->value,value,s_len))	continue;

	lea	rcx, QWORD PTR [rbx+12]
	mov	r8d, ebp
	mov	rdx, r13
	call	memcmp
	test	eax, eax
	je	$LN148@dock
$LN5@dock:

; 36   : 		// something found - verify, it is exactly our string
; 37   : 		cdb::iterator	save	= I;
; 38   : 		for (; I!=container.end() && (*I)->dwCRC == sv->dwCRC; ++I)	{

	cmp	BYTE PTR [rdi+33], 0
	jne	SHORT $LN339@dock
	mov	rax, QWORD PTR [rdi+16]
	cmp	BYTE PTR [rax+33], 0
	jne	SHORT $LN335@dock
	mov	rdi, rax
	mov	rax, QWORD PTR [rax]
	cmp	BYTE PTR [rax+33], 0
	jne	SHORT $LN339@dock
$LL113@dock:
	mov	rdi, rax
	mov	rax, QWORD PTR [rax]
	cmp	BYTE PTR [rax+33], 0
	je	SHORT $LL113@dock
	jmp	SHORT $LN339@dock
$LN335@dock:
	mov	rax, QWORD PTR [rdi+8]
	cmp	BYTE PTR [rax+33], 0
	jne	SHORT $LN343@dock
	npad	6
$LL97@dock:
	cmp	rdi, QWORD PTR [rax+16]
	jne	SHORT $LN343@dock
	mov	rdi, rax
	mov	rax, QWORD PTR [rax+8]
	cmp	BYTE PTR [rax+33], 0
	je	SHORT $LL97@dock
$LN343@dock:
	mov	rdi, rax
$LN339@dock:
	cmp	rdi, r12
	jne	SHORT $LL98@dock
$LN342@dock:

; 42   : 			result				= V;				// found
; 43   : 			break;
; 44   : 		}
; 45   : 	}
; 46   : 
; 47   : 	// it may be the case, string is not fount or has "non-exact" match
; 48   : 	if (0==result)				{
; 49   : 		// Insert string
; 50   : //		DUMP_PHASE;
; 51   : 
; 52   : 		result					= (str_value*)Memory.mem_alloc(HEADER+s_len_with_zero
; 53   : #ifdef DEBUG_MEMORY_NAME
; 54   : 			, "storage: sstring"
; 55   : #endif // DEBUG_MEMORY_NAME
; 56   : 			);

	mov	edi, DWORD PTR s_len_with_zero$1$[rsp]
	lea	rcx, OFFSET FLAT:?Memory@@3VxrMemory@@A	; Memory
	lea	edx, DWORD PTR [rdi+12]
	call	?mem_alloc@xrMemory@@QEAAPEAX_K@Z	; xrMemory::mem_alloc

; 57   : 
; 58   : //		DUMP_PHASE;
; 59   : 
; 60   : 		result->dwReference		= 0;
; 61   : 		result->dwLength		= sv->dwLength;
; 62   : 		result->dwCRC			= sv->dwCRC;
; 63   : 		CopyMemory				(result->value,value,s_len_with_zero);

	mov	r8d, edi
	mov	rdx, r13
	mov	DWORD PTR [rax], 0
	mov	DWORD PTR [rax+4], ebp
	lea	rcx, QWORD PTR [rax+12]
	mov	rbx, rax
	mov	QWORD PTR result$[rsp], rax
	mov	DWORD PTR [rax+8], esi
	call	memcpy

; 64   : 		container.insert		(result);

	lea	rdx, QWORD PTR result$[rsp]
	lea	rcx, QWORD PTR [r14+8]
	call	??$_Buynode@AEAPEAUstr_value@@@?$_Tree_val@V?$_Tset_traits@PEAUstr_value@@Ustr_value_cmp@@V?$xalloc@PEAUstr_value@@@@$00@std@@@std@@QEAAPEAU_Node@?$_Tree_nod@V?$_Tset_traits@PEAUstr_value@@Ustr_value_cmp@@V?$xalloc@PEAUstr_value@@@@$00@std@@@1@AEAPEAUstr_value@@@Z ; std::_Tree_val<std::_Tset_traits<str_value * __ptr64,str_value_cmp,xalloc<str_value * __ptr64>,1> >::_Buynode<str_value * __ptr64 & __ptr64>
	mov	r9, QWORD PTR [r14+16]
	mov	r8b, 1
	mov	rdx, QWORD PTR [r9+8]
	mov	rdi, rax
	cmp	BYTE PTR [rdx+33], 0
	jne	SHORT $LN166@dock
	mov	rcx, QWORD PTR [rax+24]
	mov	ecx, DWORD PTR [rcx+8]
	npad	6
$LL167@dock:
	mov	rax, QWORD PTR [rdx+24]
	mov	r9, rdx
	cmp	ecx, DWORD PTR [rax+8]
	setb	r8b
	test	r8b, r8b
	je	SHORT $LN170@dock
	mov	rdx, QWORD PTR [rdx]
	jmp	SHORT $LN171@dock
$LN170@dock:
	mov	rdx, QWORD PTR [rdx+16]
$LN171@dock:
	cmp	BYTE PTR [rdx+33], 0
	je	SHORT $LL167@dock
$LN166@dock:
	lea	rdx, QWORD PTR $T246375[rsp]
	lea	rcx, QWORD PTR [r14+8]
	mov	QWORD PTR [rsp+32], rdi
	call	?_Insert@?$_Tree@V?$_Tset_traits@PEAUstr_value@@Ustr_value_cmp@@V?$xalloc@PEAUstr_value@@@@$00@std@@@std@@IEAA?AV?$_Tree_const_iterator@V?$_Tree_val@V?$_Tset_traits@PEAUstr_value@@Ustr_value_cmp@@V?$xalloc@PEAUstr_value@@@@$00@std@@@std@@@2@_NPEAU_Node@?$_Tree_nod@V?$_Tset_traits@PEAUstr_value@@Ustr_value_cmp@@V?$xalloc@PEAUstr_value@@@@$00@std@@@2@1@Z ; std::_Tree<std::_Tset_traits<str_value * __ptr64,str_value_cmp,xalloc<str_value * __ptr64>,1> >::_Insert
$LN148@dock:

; 65   : 	}
; 66   : 	cs.Leave					();

	mov	rcx, QWORD PTR [r14]
	call	QWORD PTR __imp_LeaveCriticalSection
	mov	r15, QWORD PTR [rsp+48]
	mov	r12, QWORD PTR [rsp+56]
	mov	rdi, QWORD PTR [rsp+64]
	mov	rsi, QWORD PTR [rsp+72]
	mov	rbp, QWORD PTR [rsp+80]

; 67   : 
; 68   : 	return	result;

	mov	rax, rbx
	mov	rbx, QWORD PTR [rsp+112]

; 69   : }

	add	rsp, 88					; 00000058H
	pop	r14
	pop	r13
	ret	0
?dock@str_container@@QEAAPEAUstr_value@@PEBD@Z ENDP	; str_container::dock
PUBLIC	?clean@str_container@@QEAAXXZ			; str_container::clean
pdata	SEGMENT
$pdata$?clean@str_container@@QEAAXXZ DD imagerel $LN145
	DD	imagerel $LN145+14
	DD	imagerel $unwind$?clean@str_container@@QEAAXXZ
$pdata$0$?clean@str_container@@QEAAXXZ DD imagerel $LN145+14
	DD	imagerel $LN145+41
	DD	imagerel $chain$0$?clean@str_container@@QEAAXXZ
$pdata$4$?clean@str_container@@QEAAXXZ DD imagerel $LN145+41
	DD	imagerel $LN145+474
	DD	imagerel $chain$4$?clean@str_container@@QEAAXXZ
$pdata$5$?clean@str_container@@QEAAXXZ DD imagerel $LN145+474
	DD	imagerel $LN145+486
	DD	imagerel $chain$5$?clean@str_container@@QEAAXXZ
$pdata$6$?clean@str_container@@QEAAXXZ DD imagerel $LN145+486
	DD	imagerel $LN145+552
	DD	imagerel $chain$6$?clean@str_container@@QEAAXXZ
pdata	ENDS
xdata	SEGMENT
$unwind$?clean@str_container@@QEAAXXZ DD 030801H
	DD	0d0046208H
	DD	07002H
$chain$0$?clean@str_container@@QEAAXXZ DD 020521H
	DD	0b3405H
	DD	imagerel $LN145
	DD	imagerel $LN145+14
	DD	imagerel $unwind$?clean@str_container@@QEAAXXZ
$chain$4$?clean@str_container@@QEAAXXZ DD 081421H
	DD	04e414H
	DD	05c40fH
	DD	06640aH
	DD	0c5405H
	DD	imagerel $LN145+14
	DD	imagerel $LN145+41
	DD	imagerel $chain$0$?clean@str_container@@QEAAXXZ
$chain$5$?clean@str_container@@QEAAXXZ DD 021H
	DD	imagerel $LN145+14
	DD	imagerel $LN145+41
	DD	imagerel $chain$0$?clean@str_container@@QEAAXXZ
$chain$6$?clean@str_container@@QEAAXXZ DD 021H
	DD	imagerel $LN145
	DD	imagerel $LN145+14
	DD	imagerel $unwind$?clean@str_container@@QEAAXXZ
; Function compile flags: /Ogtpy
xdata	ENDS
_TEXT	SEGMENT
$T273301 = 80
this$ = 80
?clean@str_container@@QEAAXXZ PROC			; str_container::clean

; 72   : {

$LN145:
	push	rdi
	push	r13
	sub	rsp, 56					; 00000038H
	mov	r13, rcx

; 73   : 	cs.Enter();

	mov	rcx, QWORD PTR [rcx]
	mov	QWORD PTR [rsp+88], rbx
	call	QWORD PTR __imp_EnterCriticalSection

; 74   : 	for (auto it = container.begin(); it != container.end(); )	

	mov	rax, QWORD PTR [r13+16]
	mov	rbx, QWORD PTR [rax]
	cmp	rbx, rax
	je	$LN7@clean@2
	mov	QWORD PTR [rsp+96], rbp
	mov	QWORD PTR [rsp+48], rsi
	mov	QWORD PTR [rsp+40], r12
	mov	QWORD PTR [rsp+32], r14
	lea	r14, OFFSET FLAT:__ImageBase
	npad	12
$LL8@clean@2:

; 75   : 	{
; 76   : 		auto	sv		= *it;
; 77   : 		auto	curr	= it++;

	cmp	BYTE PTR [rbx+33], 0
	mov	r12, QWORD PTR [rbx+24]
	mov	rsi, rbx
	jne	SHORT $LN47@clean@2
	mov	rax, QWORD PTR [rbx+16]
	cmp	BYTE PTR [rax+33], 0
	jne	SHORT $LN138@clean@2
	mov	rbx, rax
	mov	rax, QWORD PTR [rax]
	cmp	BYTE PTR [rax+33], 0
	jne	SHORT $LN47@clean@2
$LL62@clean@2:
	mov	rbx, rax
	mov	rax, QWORD PTR [rax]
	cmp	BYTE PTR [rax+33], 0
	je	SHORT $LL62@clean@2
	jmp	SHORT $LN47@clean@2
$LN138@clean@2:
	mov	rax, QWORD PTR [rbx+8]
	cmp	BYTE PTR [rax+33], 0
	jne	SHORT $LN144@clean@2
	npad	5
$LL46@clean@2:
	cmp	rbx, QWORD PTR [rax+16]
	jne	SHORT $LN144@clean@2
	mov	rbx, rax
	mov	rax, QWORD PTR [rax+8]
	cmp	BYTE PTR [rax+33], 0
	je	SHORT $LL46@clean@2
$LN144@clean@2:
	mov	rbx, rax
$LN47@clean@2:

; 78   : 
; 79   : 		if (!sv->dwReference)	

	cmp	DWORD PTR [r12], 0
	jne	$LN6@clean@2

; 80   : 		{
; 81   : 			auto	len_flag = (sv->dwLength == xr_strlen(sv->value) );

	mov	r11d, DWORD PTR [r12+4]
	or	rcx, -1
	xor	eax, eax
	lea	rbp, QWORD PTR [r12+12]
	mov	rdi, rbp
	repne scasb
	not	rcx
	dec	rcx
	cmp	r11d, ecx

; 82   : 			if (!len_flag)

	je	SHORT $LN5@clean@2

; 83   : 			{
; 84   : 				Msg("! WARNING! xrCore:str_container::clean: string len[%d] corruption", sv->dwLength);

	lea	rcx, OFFSET FLAT:??_C@_0EC@GKCJHOFE@?$CB?5WARNING?$CB?5xrCore?3str_container?3@
	mov	edx, r11d
	call	?Msg@@YAXPEBDZZ				; Msg

; 85   : 			}
; 86   : 			else

	jmp	$LN110@clean@2
$LN5@clean@2:

; 87   : 			{
; 88   : 				auto	crc_flag = (sv->dwCRC == crc32(sv->value,sv->dwLength) );

	cmp	DWORD PTR crc32_ready, eax
	jne	SHORT $LN81@clean@2
	call	?crc32_init@@YAXXZ			; crc32_init
	mov	DWORD PTR crc32_ready, 1
$LN81@clean@2:
	or	edx, -1					; ffffffffH
	test	r11d, r11d
	je	SHORT $LN142@clean@2
	npad	12
$LL80@clean@2:
	movzx	eax, BYTE PTR [rbp]
	movzx	ecx, dl
	inc	rbp
	xor	rcx, rax
	mov	eax, edx
	mov	edx, DWORD PTR crc32_table[r14+rcx*4]
	shr	eax, 8
	xor	edx, eax
	dec	r11d
	jne	SHORT $LL80@clean@2
$LN142@clean@2:
	mov	eax, DWORD PTR [r12+8]
	not	edx
	cmp	eax, edx

; 89   : 				if (!crc_flag)

	je	SHORT $LN3@clean@2

; 90   : 				{
; 91   : 					Msg("! WARNING! xrCore:str_container::clean: string crc[%d] corruption", sv->dwCRC);

	lea	rcx, OFFSET FLAT:??_C@_0EC@PEIFBNPE@?$CB?5WARNING?$CB?5xrCore?3str_container?3@
	mov	edx, eax
	call	?Msg@@YAXPEBDZZ				; Msg

; 92   : 				}
; 93   : 				else

	jmp	SHORT $LN110@clean@2
$LN3@clean@2:

; 94   : 				{
; 95   : 					xr_free(sv); //     .

	inc	DWORD PTR ?Memory@@3VxrMemory@@A
	movzx	eax, BYTE PTR [r12-1]
	lea	rbp, QWORD PTR [r12-1]
	cmp	eax, 55					; 00000037H
	jne	SHORT $LN89@clean@2
	test	rbp, rbp
	je	SHORT $LN110@clean@2
	and	rbp, -8
	mov	rcx, QWORD PTR [rbp-8]
	call	QWORD PTR __imp_free
	jmp	SHORT $LN110@clean@2
$LN89@clean@2:
	lea	rdi, QWORD PTR [rax+rax*4]
	mov	rcx, QWORD PTR ?mem_pools@@3PAVMEMPOOL@@A[r14+rdi*8]
	call	QWORD PTR __imp_EnterCriticalSection
	mov	rax, QWORD PTR ?mem_pools@@3PAVMEMPOOL@@A[r14+rdi*8+32]
	mov	QWORD PTR [rbp], rax
	mov	rcx, QWORD PTR ?mem_pools@@3PAVMEMPOOL@@A[r14+rdi*8]
	mov	QWORD PTR ?mem_pools@@3PAVMEMPOOL@@A[r14+rdi*8+32], rbp
	call	QWORD PTR __imp_LeaveCriticalSection
$LN110@clean@2:

; 96   : 				}
; 97   : 			}
; 98   : 			container.erase(curr); //        ,   .

	lea	rcx, QWORD PTR [r13+8]
	lea	rdx, QWORD PTR $T273301[rsp]
	mov	r8, rsi
	call	?erase@?$_Tree@V?$_Tset_traits@PEAUstr_value@@Ustr_value_cmp@@V?$xalloc@PEAUstr_value@@@@$00@std@@@std@@QEAA?AV?$_Tree_const_iterator@V?$_Tree_val@V?$_Tset_traits@PEAUstr_value@@Ustr_value_cmp@@V?$xalloc@PEAUstr_value@@@@$00@std@@@std@@@2@V32@@Z ; std::_Tree<std::_Tset_traits<str_value * __ptr64,str_value_cmp,xalloc<str_value * __ptr64>,1> >::erase
$LN6@clean@2:

; 74   : 	for (auto it = container.begin(); it != container.end(); )	

	cmp	rbx, QWORD PTR [r13+16]
	jne	$LL8@clean@2
	mov	r14, QWORD PTR [rsp+32]
	mov	r12, QWORD PTR [rsp+40]
	mov	rsi, QWORD PTR [rsp+48]
	mov	rbp, QWORD PTR [rsp+96]
$LN7@clean@2:

; 99   : 		} 
; 100  : 	}
; 101  : 
; 102  : 	if (container.empty() )

	cmp	QWORD PTR [r13+24], 0
	mov	rbx, QWORD PTR [rsp+88]
	jne	SHORT $LN116@clean@2

; 103  : 	{
; 104  : 		container.clear();

	mov	rdx, QWORD PTR [r13+16]
	lea	rcx, QWORD PTR [r13+8]
	mov	rdx, QWORD PTR [rdx+8]
	call	?_Erase@?$_Tree@V?$_Tset_traits@PEAUstr_value@@Ustr_value_cmp@@V?$xalloc@PEAUstr_value@@@@$00@std@@@std@@IEAAXPEAU_Node@?$_Tree_nod@V?$_Tset_traits@PEAUstr_value@@Ustr_value_cmp@@V?$xalloc@PEAUstr_value@@@@$00@std@@@2@@Z ; std::_Tree<std::_Tset_traits<str_value * __ptr64,str_value_cmp,xalloc<str_value * __ptr64>,1> >::_Erase
	mov	rdx, QWORD PTR [r13+16]
	mov	QWORD PTR [rdx+8], rdx
	mov	rax, QWORD PTR [r13+16]
	mov	QWORD PTR [rax], rax
	mov	rax, QWORD PTR [r13+16]
	mov	QWORD PTR [rax+16], rax
	mov	QWORD PTR [r13+24], 0
$LN116@clean@2:

; 105  : 	}
; 106  : 	cs.Leave();

	mov	rcx, QWORD PTR [r13]

; 107  : }

	add	rsp, 56					; 00000038H
	pop	r13
	pop	rdi
	rex_jmp	QWORD PTR __imp_LeaveCriticalSection
?clean@str_container@@QEAAXXZ ENDP			; str_container::clean
PUBLIC	??1str_container@@QEAA@XZ			; str_container::~str_container
pdata	SEGMENT
$pdata$??1str_container@@QEAA@XZ DD imagerel $LN37
	DD	imagerel $LN37+88
	DD	imagerel $unwind$??1str_container@@QEAA@XZ
pdata	ENDS
xdata	SEGMENT
$unwind$??1str_container@@QEAA@XZ DD 040a01H
	DD	07340aH
	DD	07006320aH
; Function compile flags: /Ogtpy
xdata	ENDS
_TEXT	SEGMENT
$T274753 = 48
$T274828 = 48
this$ = 48
??1str_container@@QEAA@XZ PROC				; str_container::~str_container

; 156  : {

$LN37:
	mov	QWORD PTR [rsp+16], rbx
	push	rdi
	sub	rsp, 32					; 00000020H
	mov	rdi, rcx

; 157  : 	clean	();

	call	?clean@str_container@@QEAAXXZ		; str_container::clean

; 158  : 	//R_ASSERT(container.empty());
; 159  : }

	mov	r8, QWORD PTR [rdi+16]
	mov	r9, r8
	mov	r8, QWORD PTR [r8]
	lea	rdx, QWORD PTR $T274828[rsp]
	lea	rcx, QWORD PTR [rdi+8]
	call	?erase@?$_Tree@V?$_Tset_traits@PEAUstr_value@@Ustr_value_cmp@@V?$xalloc@PEAUstr_value@@@@$00@std@@@std@@QEAA?AV?$_Tree_const_iterator@V?$_Tree_val@V?$_Tset_traits@PEAUstr_value@@Ustr_value_cmp@@V?$xalloc@PEAUstr_value@@@@$00@std@@@std@@@2@V32@0@Z ; std::_Tree<std::_Tset_traits<str_value * __ptr64,str_value_cmp,xalloc<str_value * __ptr64>,1> >::erase
	mov	r11, QWORD PTR [rdi+16]
	lea	rcx, QWORD PTR $T274753[rsp]
	mov	QWORD PTR $T274753[rsp], r11
	call	??$xr_free@U_Node@?$_Tree_nod@V?$_Tset_traits@PEAUstr_value@@Ustr_value_cmp@@V?$xalloc@PEAUstr_value@@@@$00@std@@@std@@@@YAXAEAPEAU_Node@?$_Tree_nod@V?$_Tset_traits@PEAUstr_value@@Ustr_value_cmp@@V?$xalloc@PEAUstr_value@@@@$00@std@@@std@@@Z ; xr_free<std::_Tree_nod<std::_Tset_traits<str_value * __ptr64,str_value_cmp,xalloc<str_value * __ptr64>,1> >::_Node>
	mov	rcx, QWORD PTR [rdi]
	call	QWORD PTR __imp_DeleteCriticalSection
	mov	rcx, rdi
	mov	rbx, QWORD PTR [rsp+56]
	add	rsp, 32					; 00000020H
	pop	rdi
	jmp	??$xr_free@X@@YAXAEAPEAX@Z		; xr_free<void>
??1str_container@@QEAA@XZ ENDP				; str_container::~str_container
PUBLIC	?verify@str_container@@QEAAXXZ			; str_container::verify
pdata	SEGMENT
$pdata$?verify@str_container@@QEAAXXZ DD imagerel $LN101
	DD	imagerel $LN101+44
	DD	imagerel $unwind$?verify@str_container@@QEAAXXZ
$pdata$4$?verify@str_container@@QEAAXXZ DD imagerel $LN101+44
	DD	imagerel $LN101+536
	DD	imagerel $chain$4$?verify@str_container@@QEAAXXZ
$pdata$5$?verify@str_container@@QEAAXXZ DD imagerel $LN101+536
	DD	imagerel $LN101+558
	DD	imagerel $chain$5$?verify@str_container@@QEAAXXZ
pdata	ENDS
xdata	SEGMENT
$unwind$?verify@str_container@@QEAAXXZ DD 041001H
	DD	0d009f210H
	DD	030066007H
$chain$4$?verify@str_container@@QEAAXXZ DD 0a2221H
	DD	0ef422H
	DD	0fe41dH
	DD	017c418H
	DD	0167410H
	DD	0155408H
	DD	imagerel $LN101
	DD	imagerel $LN101+44
	DD	imagerel $unwind$?verify@str_container@@QEAAXXZ
$chain$5$?verify@str_container@@QEAAXXZ DD 021H
	DD	imagerel $LN101
	DD	imagerel $LN101+44
	DD	imagerel $unwind$?verify@str_container@@QEAAXXZ
; Function compile flags: /Ogtpy
xdata	ENDS
_TEXT	SEGMENT
crc_str$96992 = 80
this$ = 160
?verify@str_container@@QEAAXXZ PROC			; str_container::verify

; 110  : {

$LN101:
	mov	QWORD PTR [rsp+8], rcx
	push	rbx
	push	rsi
	push	r13
	sub	rsp, 128				; 00000080H
	mov	r13, rcx

; 111  : 	cs.Enter	();

	mov	rcx, QWORD PTR [rcx]
	call	QWORD PTR __imp_EnterCriticalSection

; 112  : 	cdb::iterator	it	= container.begin	();

	mov	rsi, QWORD PTR [r13+16]
	mov	rbx, QWORD PTR [rsi]

; 113  : 	cdb::iterator	end	= container.end		();
; 114  : 	for (; it!=end; ++it)	{

	cmp	rbx, rsi
	je	$LN9@verify
	mov	QWORD PTR [rsp+168], rbp
	mov	QWORD PTR [rsp+176], rdi
	mov	QWORD PTR [rsp+184], r12
	mov	QWORD PTR [rsp+120], r14
	mov	QWORD PTR [rsp+112], r15
	lea	r13, OFFSET FLAT:??_C@_0BG@PEMNBBM@str_container?3?3verify?$AA@
	xor	r15d, r15d
	lea	r14, OFFSET FLAT:crc32_table
	lea	r11, OFFSET FLAT:??_C@_0N@LDEKJIFI@xrstring?4cpp?$AA@
	npad	10
$LL40@verify:

; 115  : 		str_value*	sv		= *it;
; 116  : 		u32			crc		= crc32	(sv->value,sv->dwLength);

	cmp	DWORD PTR crc32_ready, r15d
	mov	rbp, QWORD PTR [rbx+24]
	mov	edi, DWORD PTR [rbp+4]
	jne	SHORT $LN80@verify
	call	?crc32_init@@YAXXZ			; crc32_init
	mov	DWORD PTR crc32_ready, 1
$LN80@verify:
	or	edx, -1					; ffffffffH
	lea	r8, QWORD PTR [rbp+12]
	test	edi, edi
	je	SHORT $LN95@verify
	npad	6
$LL79@verify:
	movzx	eax, BYTE PTR [r8]
	movzx	ecx, dl
	inc	r8
	xor	rcx, rax
	mov	eax, edx
	mov	edx, DWORD PTR [r14+rcx*4]
	shr	eax, 8
	xor	edx, eax
	dec	edi
	jne	SHORT $LL79@verify
$LN95@verify:

; 117  : 		string32	crc_str;
; 118  : 		R_ASSERT3	(crc==sv->dwCRC, "CorePanic: read-only memory corruption (shared_strings)", itoa(sv->dwCRC,crc_str,16));

	cmp	BYTE PTR ?ignore_always@?5??verify@str_container@@QEAAXXZ@4_NA, r15b
	jne	SHORT $LN7@verify
	mov	ecx, DWORD PTR [rbp+8]
	not	edx
	cmp	edx, ecx
	je	SHORT $LN7@verify
	lea	rdx, QWORD PTR crc_str$96992[rsp]
	mov	r8d, 16
	call	QWORD PTR __imp_itoa
	lea	rcx, OFFSET FLAT:?ignore_always@?5??verify@str_container@@QEAAXXZ@4_NA
	lea	r8, OFFSET FLAT:??_C@_0DI@MODFLCOP@CorePanic?3?5read?9only?5memory?5corr@
	mov	QWORD PTR [rsp+64], rcx
	mov	QWORD PTR [rsp+56], r13
	lea	rcx, OFFSET FLAT:??_C@_0N@LDEKJIFI@xrstring?4cpp?$AA@
	mov	DWORD PTR [rsp+48], 118			; 00000076H
	mov	QWORD PTR [rsp+40], rcx
	lea	rdx, OFFSET FLAT:??_C@_0P@ELJNGOBP@crc?$DN?$DNsv?9?$DOdwCRC?$AA@
	lea	rcx, OFFSET FLAT:?Debug@@3VxrDebug@@A	; Debug
	mov	r9, rax
	mov	QWORD PTR [rsp+32], r15
	call	?backend@xrDebug@@QEAAXPEBD0000H0AEA_N@Z ; xrDebug::backend
	lea	r11, OFFSET FLAT:??_C@_0N@LDEKJIFI@xrstring?4cpp?$AA@
$LN7@verify:

; 119  : 		R_ASSERT3	(sv->dwLength == xr_strlen(sv->value), "CorePanic: read-only memory corruption (shared_strings, internal structures)", sv->value);

	cmp	BYTE PTR ?ignore_always@?9??verify@str_container@@QEAAXXZ@4_NA, r15b
	jne	SHORT $LN3@verify
	or	rcx, -1
	xor	eax, eax
	lea	rdi, QWORD PTR [rbp+12]
	repne scasb
	not	rcx
	dec	rcx
	cmp	DWORD PTR [rbp+4], ecx
	je	SHORT $LN3@verify
	lea	rax, OFFSET FLAT:?ignore_always@?9??verify@str_container@@QEAAXXZ@4_NA
	lea	r9, QWORD PTR [rbp+12]
	lea	r8, OFFSET FLAT:??_C@_0EN@LMBPALPM@CorePanic?3?5read?9only?5memory?5corr@
	mov	QWORD PTR [rsp+64], rax
	mov	QWORD PTR [rsp+56], r13
	mov	DWORD PTR [rsp+48], 119			; 00000077H
	mov	QWORD PTR [rsp+40], r11
	lea	rdx, OFFSET FLAT:??_C@_0CF@JABCJEBB@sv?9?$DOdwLength?5?$DN?$DN?5xr_strlen?$CIsv?9?$DOva@
	lea	rcx, OFFSET FLAT:?Debug@@3VxrDebug@@A	; Debug
	mov	QWORD PTR [rsp+32], r15
	call	?backend@xrDebug@@QEAAXPEBD0000H0AEA_N@Z ; xrDebug::backend
$LN3@verify:

; 113  : 	cdb::iterator	end	= container.end		();
; 114  : 	for (; it!=end; ++it)	{

	cmp	BYTE PTR [rbx+33], r15b
	jne	SHORT $LN99@verify
	mov	rax, QWORD PTR [rbx+16]
	cmp	BYTE PTR [rax+33], r15b
	jne	SHORT $LN94@verify
	mov	rbx, rax
	mov	rax, QWORD PTR [rax]
	cmp	BYTE PTR [rax+33], r15b
	jne	SHORT $LN99@verify
	npad	6
$LL55@verify:
	mov	rbx, rax
	mov	rax, QWORD PTR [rax]
	cmp	BYTE PTR [rax+33], r15b
	je	SHORT $LL55@verify
	jmp	SHORT $LN99@verify
$LN94@verify:
	mov	rax, QWORD PTR [rbx+8]
	cmp	BYTE PTR [rax+33], r15b
	jne	SHORT $LN100@verify
$LL39@verify:
	cmp	rbx, QWORD PTR [rax+16]
	jne	SHORT $LN100@verify
	mov	rbx, rax
	mov	rax, QWORD PTR [rax+8]
	cmp	BYTE PTR [rax+33], r15b
	je	SHORT $LL39@verify
$LN100@verify:
	mov	rbx, rax
$LN99@verify:
	lea	r11, OFFSET FLAT:??_C@_0N@LDEKJIFI@xrstring?4cpp?$AA@
	cmp	rbx, rsi
	jne	$LL40@verify
	mov	r13, QWORD PTR this$[rsp]
	mov	r15, QWORD PTR [rsp+112]
	mov	r14, QWORD PTR [rsp+120]
	mov	r12, QWORD PTR [rsp+184]
	mov	rdi, QWORD PTR [rsp+176]
	mov	rbp, QWORD PTR [rsp+168]
$LN9@verify:

; 120  : 	}
; 121  : 	cs.Leave	();

	mov	rcx, QWORD PTR [r13]

; 122  : }

	add	rsp, 128				; 00000080H
	pop	r13
	pop	rsi
	pop	rbx
	rex_jmp	QWORD PTR __imp_LeaveCriticalSection
?verify@str_container@@QEAAXXZ ENDP			; str_container::verify
END
