; Listing generated by Microsoft (R) Optimizing Compiler Version 18.00.40629.0 

include listing.inc

INCLUDELIB OLDNAMES

PUBLIC	??_C@_0DG@GPJAOPIP@Object?5pointers?5must?5be?5defined?$CB@ ; `string'
PUBLIC	??_C@_0CI@CJMDIHCG@Higher?5distance?5bound?5must?5be?5po@ ; `string'
PUBLIC	??_C@_0DC@IMFKDDOD@Closest?5hit?5doesn?8t?5work?5with?5Fi@ ; `string'
PUBLIC	??_R2RayCollider@Opcode@@8			; Opcode::RayCollider::`RTTI Base Class Array'
PUBLIC	??_R1A@?0A@EA@RayCollider@Opcode@@8		; Opcode::RayCollider::`RTTI Base Class Descriptor at (0,-1,0,64)'
PUBLIC	??_R3RayCollider@Opcode@@8			; Opcode::RayCollider::`RTTI Class Hierarchy Descriptor'
PUBLIC	??_R0?AVRayCollider@Opcode@@@8			; Opcode::RayCollider `RTTI Type Descriptor'
PUBLIC	??_R4RayCollider@Opcode@@6B@			; Opcode::RayCollider::`RTTI Complete Object Locator'
PUBLIC	??_7RayCollider@Opcode@@6B@			; Opcode::RayCollider::`vftable'
;	COMDAT ??_7RayCollider@Opcode@@6B@
CONST	SEGMENT
??_7RayCollider@Opcode@@6B@ DQ FLAT:??_R4RayCollider@Opcode@@6B@ ; Opcode::RayCollider::`vftable'
	DQ	FLAT:??_ERayCollider@Opcode@@UEAAPEAXI@Z
	DQ	FLAT:?ValidateSettings@RayCollider@Opcode@@UEAAPEBDXZ
	DQ	FLAT:?InitQueryEx@Collider@Opcode@@MEAAXXZ
CONST	ENDS
;	COMDAT ??_R4RayCollider@Opcode@@6B@
rdata$r	SEGMENT
??_R4RayCollider@Opcode@@6B@ DD 01H			; Opcode::RayCollider::`RTTI Complete Object Locator'
	DD	00H
	DD	00H
	DD	imagerel ??_R0?AVRayCollider@Opcode@@@8
	DD	imagerel ??_R3RayCollider@Opcode@@8
	DD	imagerel ??_R4RayCollider@Opcode@@6B@
rdata$r	ENDS
;	COMDAT ??_R0?AVRayCollider@Opcode@@@8
data$r	SEGMENT
??_R0?AVRayCollider@Opcode@@@8 DQ FLAT:??_7type_info@@6B@ ; Opcode::RayCollider `RTTI Type Descriptor'
	DQ	0000000000000000H
	DB	'.?AVRayCollider@Opcode@@', 00H
data$r	ENDS
;	COMDAT ??_R3RayCollider@Opcode@@8
rdata$r	SEGMENT
??_R3RayCollider@Opcode@@8 DD 00H			; Opcode::RayCollider::`RTTI Class Hierarchy Descriptor'
	DD	00H
	DD	02H
	DD	imagerel ??_R2RayCollider@Opcode@@8
rdata$r	ENDS
;	COMDAT ??_R1A@?0A@EA@RayCollider@Opcode@@8
rdata$r	SEGMENT
??_R1A@?0A@EA@RayCollider@Opcode@@8 DD imagerel ??_R0?AVRayCollider@Opcode@@@8 ; Opcode::RayCollider::`RTTI Base Class Descriptor at (0,-1,0,64)'
	DD	01H
	DD	00H
	DD	0ffffffffH
	DD	00H
	DD	040H
	DD	imagerel ??_R3RayCollider@Opcode@@8
rdata$r	ENDS
;	COMDAT ??_R2RayCollider@Opcode@@8
rdata$r	SEGMENT
??_R2RayCollider@Opcode@@8 DD imagerel ??_R1A@?0A@EA@RayCollider@Opcode@@8 ; Opcode::RayCollider::`RTTI Base Class Array'
	DD	imagerel ??_R1A@?0A@EA@Collider@Opcode@@8
	ORG $+3
rdata$r	ENDS
;	COMDAT ??_C@_0DC@IMFKDDOD@Closest?5hit?5doesn?8t?5work?5with?5Fi@
CONST	SEGMENT
??_C@_0DC@IMFKDDOD@Closest?5hit?5doesn?8t?5work?5with?5Fi@ DB 'Closest hi'
	DB	't doesn''t work with First contact mode!', 00H ; `string'
CONST	ENDS
;	COMDAT ??_C@_0CI@CJMDIHCG@Higher?5distance?5bound?5must?5be?5po@
CONST	SEGMENT
??_C@_0CI@CJMDIHCG@Higher?5distance?5bound?5must?5be?5po@ DB 'Higher dist'
	DB	'ance bound must be positive!', 00H		; `string'
CONST	ENDS
;	COMDAT ??_C@_0DG@GPJAOPIP@Object?5pointers?5must?5be?5defined?$CB@
CONST	SEGMENT
??_C@_0DG@GPJAOPIP@Object?5pointers?5must?5be?5defined?$CB@ DB 'Object po'
	DB	'inters must be defined! Call: SetPointers().', 00H ; `string'
PUBLIC	??1CollisionFace@Opcode@@QEAA@XZ		; Opcode::CollisionFace::~CollisionFace
PUBLIC	?ValidateSettings@RayCollider@Opcode@@UEAAPEBDXZ ; Opcode::RayCollider::ValidateSettings
PUBLIC	??1RayCollider@Opcode@@UEAA@XZ			; Opcode::RayCollider::~RayCollider
PUBLIC	??_GRayCollider@Opcode@@UEAAPEAXI@Z		; Opcode::RayCollider::`scalar deleting destructor'
EXTRN	??_ERayCollider@Opcode@@UEAAPEAXI@Z:PROC	; Opcode::RayCollider::`vector deleting destructor'
;	COMDAT pdata
pdata	SEGMENT
$pdata$??_GRayCollider@Opcode@@UEAAPEAXI@Z DD imagerel $LN31
	DD	imagerel $LN31+49
	DD	imagerel $unwind$??_GRayCollider@Opcode@@UEAAPEAXI@Z
;	COMDAT xdata
xdata	SEGMENT
$unwind$??_GRayCollider@Opcode@@UEAAPEAXI@Z DD 020601H
	DD	030023206H
; Function compile flags: /Ogtpy
; File c:\users\nummer\documents\github\olr-3.0\src\xray\xrcdb\opc_collider.cpp
; File c:\users\nummer\documents\github\olr-3.0\src\xray\xrcore\xrmemory.h
;	COMDAT ??_GRayCollider@Opcode@@UEAAPEAXI@Z
_TEXT	SEGMENT
this$ = 48
__flags$ = 56
??_GRayCollider@Opcode@@UEAAPEAXI@Z PROC		; Opcode::RayCollider::`scalar deleting destructor', COMDAT
$LN31:
	push	rbx
	sub	rsp, 32					; 00000020H
; File c:\users\nummer\documents\github\olr-3.0\src\xray\xrcdb\opc_collider.cpp

; 51   : {

	lea	rax, OFFSET FLAT:??_7Collider@Opcode@@6B@
	mov	rbx, rcx
	mov	QWORD PTR [rcx], rax
	test	dl, 1
	je	SHORT $LN29@scalar
; File c:\users\nummer\documents\github\olr-3.0\src\xray\xrcore\xrmemory.h

; 109  : 	IC void		xr_free		(T* &P)					{	if (P) { Memory.mem_free((void*)P); P=NULL;	};	}

	mov	rdx, rcx
	mov	rcx, QWORD PTR __imp_?Memory@@3VxrMemory@@A
	call	QWORD PTR __imp_?mem_free@xrMemory@@QEAAXPEAX@Z
$LN29@scalar:
	mov	rax, rbx
	add	rsp, 32					; 00000020H
	pop	rbx
	ret	0
??_GRayCollider@Opcode@@UEAAPEAXI@Z ENDP		; Opcode::RayCollider::`scalar deleting destructor'
_TEXT	ENDS
; Function compile flags: /Ogtpy
; File c:\users\nummer\documents\github\olr-3.0\src\xray\xrcdb\opc_raycollider.cpp
; File c:\users\nummer\documents\github\olr-3.0\src\xray\xrcdb\opc_collider.cpp
; File c:\users\nummer\documents\github\olr-3.0\src\xray\xrcdb\opc_raycollider.cpp
_TEXT	SEGMENT
this$ = 8
??1RayCollider@Opcode@@UEAA@XZ PROC			; Opcode::RayCollider::~RayCollider
; File c:\users\nummer\documents\github\olr-3.0\src\xray\xrcdb\opc_collider.cpp

; 51   : {

	lea	rax, OFFSET FLAT:??_7Collider@Opcode@@6B@
	mov	QWORD PTR [rcx], rax
; File c:\users\nummer\documents\github\olr-3.0\src\xray\xrcdb\opc_raycollider.cpp

; 226  : }

	ret	0
??1RayCollider@Opcode@@UEAA@XZ ENDP			; Opcode::RayCollider::~RayCollider
_TEXT	ENDS
; Function compile flags: /Ogtpy
; File c:\users\nummer\documents\github\olr-3.0\src\xray\xrcdb\opc_raycollider.cpp
; File c:\users\nummer\documents\github\olr-3.0\src\xray\xrcdb\opc_collider.h
; File c:\users\nummer\documents\github\olr-3.0\src\xray\xrcdb\opc_raycollider.cpp
; File c:\users\nummer\documents\github\olr-3.0\src\xray\xrcdb\opc_collider.h
; File c:\users\nummer\documents\github\olr-3.0\src\xray\xrcdb\opc_raycollider.cpp
; File c:\users\nummer\documents\github\olr-3.0\src\xray\xrcdb\opc_collider.h
; File c:\users\nummer\documents\github\olr-3.0\src\xray\xrcdb\opc_raycollider.cpp
_TEXT	SEGMENT
this$ = 8
?ValidateSettings@RayCollider@Opcode@@UEAAPEBDXZ PROC	; Opcode::RayCollider::ValidateSettings

; 236  : #ifdef OPC_USE_CALLBACKS
; 237  : 	if(!mObjCallback)											return "Object callback must be defined! Call: SetCallback().";
; 238  : #else
; 239  : 	if(!mFaces || !mVerts)										return "Object pointers must be defined! Call: SetPointers().";

	cmp	QWORD PTR [rcx+104], 0
	je	SHORT $LN4@ValidateSe
	cmp	QWORD PTR [rcx+112], 0
	je	SHORT $LN4@ValidateSe

; 240  : #endif
; 241  : 	if(mMaxDist<0.0f)											return "Higher distance bound must be positive!";

	xorps	xmm0, xmm0
	comiss	xmm0, DWORD PTR [rcx+156]
	jbe	SHORT $LN3@ValidateSe
	lea	rax, OFFSET FLAT:??_C@_0CI@CJMDIHCG@Higher?5distance?5bound?5must?5be?5po@

; 245  : }

	ret	0
$LN3@ValidateSe:
; File c:\users\nummer\documents\github\olr-3.0\src\xray\xrcdb\opc_collider.h

; 67   : 		inline_				BOOL			TemporalCoherenceEnabled()	const	{ return mFlags & OPC_TEMPORAL_COHERENCE;				}

	mov	eax, DWORD PTR [rcx+8]
	test	al, 2
; File c:\users\nummer\documents\github\olr-3.0\src\xray\xrcdb\opc_raycollider.cpp

; 242  : 	if(TemporalCoherenceEnabled() && !FirstContactEnabled())	return "Temporal coherence only works with ""First contact"" mode!";

	je	SHORT $LN2@ValidateSe
; File c:\users\nummer\documents\github\olr-3.0\src\xray\xrcdb\opc_collider.h

; 59   : 		inline_				BOOL			FirstContactEnabled()		const	{ return mFlags & OPC_FIRST_CONTACT;					}

	test	al, 1
; File c:\users\nummer\documents\github\olr-3.0\src\xray\xrcdb\opc_raycollider.cpp

; 242  : 	if(TemporalCoherenceEnabled() && !FirstContactEnabled())	return "Temporal coherence only works with ""First contact"" mode!";

	jne	SHORT $LN2@ValidateSe
	lea	rax, OFFSET FLAT:??_C@_0DH@CENBPGJM@Temporal?5coherence?5only?5works?5wi@

; 245  : }

	ret	0
$LN2@ValidateSe:

; 243  : 	if(mClosestHit && FirstContactEnabled())					return "Closest hit doesn't work with ""First contact"" mode!";

	cmp	BYTE PTR [rcx+160], 0
	je	SHORT $LN1@ValidateSe
; File c:\users\nummer\documents\github\olr-3.0\src\xray\xrcdb\opc_collider.h

; 59   : 		inline_				BOOL			FirstContactEnabled()		const	{ return mFlags & OPC_FIRST_CONTACT;					}

	test	al, 1
; File c:\users\nummer\documents\github\olr-3.0\src\xray\xrcdb\opc_raycollider.cpp

; 243  : 	if(mClosestHit && FirstContactEnabled())					return "Closest hit doesn't work with ""First contact"" mode!";

	je	SHORT $LN1@ValidateSe
	lea	rax, OFFSET FLAT:??_C@_0DC@IMFKDDOD@Closest?5hit?5doesn?8t?5work?5with?5Fi@

; 245  : }

	ret	0
$LN1@ValidateSe:

; 244  : 	return null;

	xor	eax, eax

; 245  : }

	ret	0
$LN4@ValidateSe:

; 236  : #ifdef OPC_USE_CALLBACKS
; 237  : 	if(!mObjCallback)											return "Object callback must be defined! Call: SetCallback().";
; 238  : #else
; 239  : 	if(!mFaces || !mVerts)										return "Object pointers must be defined! Call: SetPointers().";

	lea	rax, OFFSET FLAT:??_C@_0DG@GPJAOPIP@Object?5pointers?5must?5be?5defined?$CB@

; 245  : }

	ret	0
?ValidateSettings@RayCollider@Opcode@@UEAAPEBDXZ ENDP	; Opcode::RayCollider::ValidateSettings
_TEXT	ENDS
; Function compile flags: /Ogtpy
; File c:\users\nummer\documents\github\olr-3.0\src\xray\xrcdb\opc_common.h
;	COMDAT ??1CollisionFace@Opcode@@QEAA@XZ
_TEXT	SEGMENT
this$dead$ = 8
??1CollisionFace@Opcode@@QEAA@XZ PROC			; Opcode::CollisionFace::~CollisionFace, COMDAT

; 100  : 		inline_				~CollisionFace()		{}

	ret	0
??1CollisionFace@Opcode@@QEAA@XZ ENDP			; Opcode::CollisionFace::~CollisionFace
_TEXT	ENDS
END
