; Listing generated by Microsoft (R) Optimizing Compiler Version 18.00.40629.0 

include listing.inc

INCLUDELIB OLDNAMES

PUBLIC	??_C@_0DI@JNJMPNPG@Object0?5pointers?5must?5be?5defined@ ; `string'
PUBLIC	??_C@_0DI@CEMNMNLH@Object1?5pointers?5must?5be?5defined@ ; `string'
PUBLIC	??_R2AABBTreeCollider@Opcode@@8			; Opcode::AABBTreeCollider::`RTTI Base Class Array'
PUBLIC	??_R1A@?0A@EA@AABBTreeCollider@Opcode@@8	; Opcode::AABBTreeCollider::`RTTI Base Class Descriptor at (0,-1,0,64)'
PUBLIC	??_R3AABBTreeCollider@Opcode@@8			; Opcode::AABBTreeCollider::`RTTI Class Hierarchy Descriptor'
PUBLIC	??_R0?AVAABBTreeCollider@Opcode@@@8		; Opcode::AABBTreeCollider `RTTI Type Descriptor'
PUBLIC	??_R4AABBTreeCollider@Opcode@@6B@		; Opcode::AABBTreeCollider::`RTTI Complete Object Locator'
PUBLIC	??_7AABBTreeCollider@Opcode@@6B@		; Opcode::AABBTreeCollider::`vftable'
;	COMDAT ??_7AABBTreeCollider@Opcode@@6B@
CONST	SEGMENT
??_7AABBTreeCollider@Opcode@@6B@ DQ FLAT:??_R4AABBTreeCollider@Opcode@@6B@ ; Opcode::AABBTreeCollider::`vftable'
	DQ	FLAT:??_EAABBTreeCollider@Opcode@@UEAAPEAXI@Z
	DQ	FLAT:?ValidateSettings@AABBTreeCollider@Opcode@@UEAAPEBDXZ
	DQ	FLAT:?InitQueryEx@Collider@Opcode@@MEAAXXZ
CONST	ENDS
;	COMDAT ??_R4AABBTreeCollider@Opcode@@6B@
rdata$r	SEGMENT
??_R4AABBTreeCollider@Opcode@@6B@ DD 01H		; Opcode::AABBTreeCollider::`RTTI Complete Object Locator'
	DD	00H
	DD	00H
	DD	imagerel ??_R0?AVAABBTreeCollider@Opcode@@@8
	DD	imagerel ??_R3AABBTreeCollider@Opcode@@8
	DD	imagerel ??_R4AABBTreeCollider@Opcode@@6B@
rdata$r	ENDS
;	COMDAT ??_R0?AVAABBTreeCollider@Opcode@@@8
data$r	SEGMENT
??_R0?AVAABBTreeCollider@Opcode@@@8 DQ FLAT:??_7type_info@@6B@ ; Opcode::AABBTreeCollider `RTTI Type Descriptor'
	DQ	0000000000000000H
	DB	'.?AVAABBTreeCollider@Opcode@@', 00H
data$r	ENDS
;	COMDAT ??_R3AABBTreeCollider@Opcode@@8
rdata$r	SEGMENT
??_R3AABBTreeCollider@Opcode@@8 DD 00H			; Opcode::AABBTreeCollider::`RTTI Class Hierarchy Descriptor'
	DD	00H
	DD	02H
	DD	imagerel ??_R2AABBTreeCollider@Opcode@@8
rdata$r	ENDS
;	COMDAT ??_R1A@?0A@EA@AABBTreeCollider@Opcode@@8
rdata$r	SEGMENT
??_R1A@?0A@EA@AABBTreeCollider@Opcode@@8 DD imagerel ??_R0?AVAABBTreeCollider@Opcode@@@8 ; Opcode::AABBTreeCollider::`RTTI Base Class Descriptor at (0,-1,0,64)'
	DD	01H
	DD	00H
	DD	0ffffffffH
	DD	00H
	DD	040H
	DD	imagerel ??_R3AABBTreeCollider@Opcode@@8
rdata$r	ENDS
;	COMDAT ??_R2AABBTreeCollider@Opcode@@8
rdata$r	SEGMENT
??_R2AABBTreeCollider@Opcode@@8 DD imagerel ??_R1A@?0A@EA@AABBTreeCollider@Opcode@@8 ; Opcode::AABBTreeCollider::`RTTI Base Class Array'
	DD	imagerel ??_R1A@?0A@EA@Collider@Opcode@@8
	ORG $+3
rdata$r	ENDS
;	COMDAT ??_C@_0DI@CEMNMNLH@Object1?5pointers?5must?5be?5defined@
CONST	SEGMENT
??_C@_0DI@CEMNMNLH@Object1?5pointers?5must?5be?5defined@ DB 'Object1 poin'
	DB	'ters must be defined! Call: SetPointers1().', 00H ; `string'
CONST	ENDS
;	COMDAT ??_C@_0DI@JNJMPNPG@Object0?5pointers?5must?5be?5defined@
CONST	SEGMENT
??_C@_0DI@JNJMPNPG@Object0?5pointers?5must?5be?5defined@ DB 'Object0 poin'
	DB	'ters must be defined! Call: SetPointers0().', 00H ; `string'
PUBLIC	?ValidateSettings@AABBTreeCollider@Opcode@@UEAAPEBDXZ ; Opcode::AABBTreeCollider::ValidateSettings
PUBLIC	??1AABBTreeCollider@Opcode@@UEAA@XZ		; Opcode::AABBTreeCollider::~AABBTreeCollider
PUBLIC	??_GAABBTreeCollider@Opcode@@UEAAPEAXI@Z	; Opcode::AABBTreeCollider::`scalar deleting destructor'
EXTRN	??_EAABBTreeCollider@Opcode@@UEAAPEAXI@Z:PROC	; Opcode::AABBTreeCollider::`vector deleting destructor'
pdata	SEGMENT
$pdata$??1AABBTreeCollider@Opcode@@UEAA@XZ DD imagerel $LN43
	DD	imagerel $LN43+112
	DD	imagerel $unwind$??1AABBTreeCollider@Opcode@@UEAA@XZ
pdata	ENDS
;	COMDAT pdata
pdata	SEGMENT
$pdata$??_GAABBTreeCollider@Opcode@@UEAAPEAXI@Z DD imagerel $LN12
	DD	imagerel $LN12+60
	DD	imagerel $unwind$??_GAABBTreeCollider@Opcode@@UEAAPEAXI@Z
pdata	ENDS
;	COMDAT xdata
xdata	SEGMENT
$unwind$??_GAABBTreeCollider@Opcode@@UEAAPEAXI@Z DD 040a01H
	DD	06340aH
	DD	07006320aH
xdata	ENDS
xdata	SEGMENT
$unwind$??1AABBTreeCollider@Opcode@@UEAA@XZ DD 020601H
	DD	030023206H
; Function compile flags: /Ogtpy
; File c:\users\nummer\documents\github\olr-3.0\src\xray\xrcore\xrmemory.h
;	COMDAT ??_GAABBTreeCollider@Opcode@@UEAAPEAXI@Z
_TEXT	SEGMENT
this$ = 48
__flags$ = 56
??_GAABBTreeCollider@Opcode@@UEAAPEAXI@Z PROC		; Opcode::AABBTreeCollider::`scalar deleting destructor', COMDAT
$LN12:
	mov	QWORD PTR [rsp+8], rbx
	push	rdi
	sub	rsp, 32					; 00000020H
	mov	ebx, edx
	mov	rdi, rcx
	call	??1AABBTreeCollider@Opcode@@UEAA@XZ	; Opcode::AABBTreeCollider::~AABBTreeCollider
	test	bl, 1
	je	SHORT $LN10@scalar

; 109  : 	IC void		xr_free		(T* &P)					{	if (P) { Memory.mem_free((void*)P); P=NULL;	};	}

	test	rdi, rdi
	je	SHORT $LN10@scalar
	mov	rcx, QWORD PTR __imp_?Memory@@3VxrMemory@@A
	mov	rdx, rdi
	call	QWORD PTR __imp_?mem_free@xrMemory@@QEAAXPEAX@Z
$LN10@scalar:
	mov	rax, rdi
	mov	rbx, QWORD PTR [rsp+48]
	add	rsp, 32					; 00000020H
	pop	rdi
	ret	0
??_GAABBTreeCollider@Opcode@@UEAAPEAXI@Z ENDP		; Opcode::AABBTreeCollider::`scalar deleting destructor'
_TEXT	ENDS
; Function compile flags: /Ogtpy
; File c:\users\nummer\documents\github\olr-3.0\src\xray\xrcdb\opc_treecollider.cpp
; File c:\users\nummer\documents\github\olr-3.0\src\xray\xrcore\xrmemory.h
; File c:\users\nummer\documents\github\olr-3.0\src\xray\xrcdb\opc_container.h
; File c:\users\nummer\documents\github\olr-3.0\src\xray\xrcore\xrmemory.h
; File c:\users\nummer\documents\github\olr-3.0\src\xray\xrcdb\opc_container.cpp
; File c:\users\nummer\documents\github\olr-3.0\src\xray\xrcdb\opc_collider.cpp
; File c:\users\nummer\documents\github\olr-3.0\src\xray\xrcdb\opc_container.cpp
; File c:\users\nummer\documents\github\olr-3.0\src\xray\xrcdb\opc_container.h
; File c:\users\nummer\documents\github\olr-3.0\src\xray\xrcdb\opc_container.cpp
; File c:\users\nummer\documents\github\olr-3.0\src\xray\xrcdb\opc_collider.cpp
; File c:\users\nummer\documents\github\olr-3.0\src\xray\xrcdb\opc_treecollider.cpp
_TEXT	SEGMENT
this$ = 48
??1AABBTreeCollider@Opcode@@UEAA@XZ PROC		; Opcode::AABBTreeCollider::~AABBTreeCollider

; 72   : {

$LN43:
	push	rbx
	sub	rsp, 32					; 00000020H
	mov	rbx, rcx
	lea	rax, OFFSET FLAT:??_7AABBTreeCollider@Opcode@@6B@
	mov	QWORD PTR [rcx], rax
; File c:\users\nummer\documents\github\olr-3.0\src\xray\xrcore\xrmemory.h

; 109  : 	IC void		xr_free		(T* &P)					{	if (P) { Memory.mem_free((void*)P); P=NULL;	};	}

	mov	rdx, QWORD PTR [rbx+24]
; File c:\users\nummer\documents\github\olr-3.0\src\xray\xrcdb\opc_container.h

; 110  : 					mUsedRam-=mMaxNbEntries*sizeof(udword);

	imul	eax, DWORD PTR [rcx+16], -4		; fffffffcH
	mov	ecx, DWORD PTR ?mUsedRam@Container@IceCore@@0IA ; IceCore::Container::mUsedRam
	add	ecx, eax
	mov	DWORD PTR ?mUsedRam@Container@IceCore@@0IA, ecx ; IceCore::Container::mUsedRam
; File c:\users\nummer\documents\github\olr-3.0\src\xray\xrcore\xrmemory.h

; 109  : 	IC void		xr_free		(T* &P)					{	if (P) { Memory.mem_free((void*)P); P=NULL;	};	}

	test	rdx, rdx
	je	SHORT $LN31@AABBTreeCo
	mov	rcx, QWORD PTR __imp_?Memory@@3VxrMemory@@A
	call	QWORD PTR __imp_?mem_free@xrMemory@@QEAAXPEAX@Z
	mov	ecx, DWORD PTR ?mUsedRam@Container@IceCore@@0IA ; IceCore::Container::mUsedRam
	mov	QWORD PTR [rbx+24], 0
$LN31@AABBTreeCo:
; File c:\users\nummer\documents\github\olr-3.0\src\xray\xrcdb\opc_container.cpp

; 72   : 	mNbContainers--;

	dec	DWORD PTR ?mNbContainers@Container@IceCore@@0IA ; IceCore::Container::mNbContainers
; File c:\users\nummer\documents\github\olr-3.0\src\xray\xrcdb\opc_collider.cpp

; 51   : {

	lea	rax, OFFSET FLAT:??_7Collider@Opcode@@6B@
; File c:\users\nummer\documents\github\olr-3.0\src\xray\xrcdb\opc_container.cpp

; 73   : 	mUsedRam-=GetUsedRam();

	add	ecx, -24				; ffffffe8H
; File c:\users\nummer\documents\github\olr-3.0\src\xray\xrcdb\opc_container.h

; 113  : 					mCurNbEntries	= mMaxNbEntries = 0;

	mov	QWORD PTR [rbx+16], 0
; File c:\users\nummer\documents\github\olr-3.0\src\xray\xrcdb\opc_container.cpp

; 73   : 	mUsedRam-=GetUsedRam();

	mov	DWORD PTR ?mUsedRam@Container@IceCore@@0IA, ecx ; IceCore::Container::mUsedRam
; File c:\users\nummer\documents\github\olr-3.0\src\xray\xrcdb\opc_collider.cpp

; 51   : {

	mov	QWORD PTR [rbx], rax
; File c:\users\nummer\documents\github\olr-3.0\src\xray\xrcdb\opc_treecollider.cpp

; 73   : }

	add	rsp, 32					; 00000020H
	pop	rbx
	ret	0
??1AABBTreeCollider@Opcode@@UEAA@XZ ENDP		; Opcode::AABBTreeCollider::~AABBTreeCollider
_TEXT	ENDS
; Function compile flags: /Ogtpy
; File c:\users\nummer\documents\github\olr-3.0\src\xray\xrcdb\opc_treecollider.cpp
; File c:\users\nummer\documents\github\olr-3.0\src\xray\xrcdb\opc_collider.h
; File c:\users\nummer\documents\github\olr-3.0\src\xray\xrcdb\opc_treecollider.cpp
; File c:\users\nummer\documents\github\olr-3.0\src\xray\xrcdb\opc_collider.h
; File c:\users\nummer\documents\github\olr-3.0\src\xray\xrcdb\opc_treecollider.cpp
_TEXT	SEGMENT
this$ = 8
?ValidateSettings@AABBTreeCollider@Opcode@@UEAAPEBDXZ PROC ; Opcode::AABBTreeCollider::ValidateSettings

; 83   : #ifdef OPC_USE_CALLBACKS
; 84   : 	if(!mObjCallback0)											return "Callback for object 0 must be defined! Call: SetCallback0().";
; 85   : 	if(!mObjCallback1)											return "Callback for object 1 must be defined! Call: SetCallback1().";
; 86   : #else
; 87   : 	if(!mFaces0 || !mVerts0)									return "Object0 pointers must be defined! Call: SetPointers0().";

	cmp	QWORD PTR [rcx+40], 0
	je	SHORT $LN4@ValidateSe
	cmp	QWORD PTR [rcx+56], 0
	je	SHORT $LN4@ValidateSe

; 88   : 	if(!mFaces1 || !mVerts1)									return "Object1 pointers must be defined! Call: SetPointers1().";

	cmp	QWORD PTR [rcx+48], 0
	je	SHORT $LN2@ValidateSe
	cmp	QWORD PTR [rcx+64], 0
	je	SHORT $LN2@ValidateSe
; File c:\users\nummer\documents\github\olr-3.0\src\xray\xrcdb\opc_collider.h

; 67   : 		inline_				BOOL			TemporalCoherenceEnabled()	const	{ return mFlags & OPC_TEMPORAL_COHERENCE;				}

	mov	eax, DWORD PTR [rcx+8]
	test	al, 2
; File c:\users\nummer\documents\github\olr-3.0\src\xray\xrcdb\opc_treecollider.cpp

; 90   : 	if(TemporalCoherenceEnabled() && !FirstContactEnabled())	return "Temporal coherence only works with ""First contact"" mode!";

	je	SHORT $LN1@ValidateSe
; File c:\users\nummer\documents\github\olr-3.0\src\xray\xrcdb\opc_collider.h

; 59   : 		inline_				BOOL			FirstContactEnabled()		const	{ return mFlags & OPC_FIRST_CONTACT;					}

	test	al, 1
; File c:\users\nummer\documents\github\olr-3.0\src\xray\xrcdb\opc_treecollider.cpp

; 90   : 	if(TemporalCoherenceEnabled() && !FirstContactEnabled())	return "Temporal coherence only works with ""First contact"" mode!";

	jne	SHORT $LN1@ValidateSe
	lea	rax, OFFSET FLAT:??_C@_0DH@CENBPGJM@Temporal?5coherence?5only?5works?5wi@

; 92   : }

	ret	0
$LN1@ValidateSe:

; 91   : 	return null;

	xor	eax, eax

; 92   : }

	ret	0
$LN2@ValidateSe:

; 88   : 	if(!mFaces1 || !mVerts1)									return "Object1 pointers must be defined! Call: SetPointers1().";

	lea	rax, OFFSET FLAT:??_C@_0DI@CEMNMNLH@Object1?5pointers?5must?5be?5defined@

; 92   : }

	ret	0
$LN4@ValidateSe:

; 83   : #ifdef OPC_USE_CALLBACKS
; 84   : 	if(!mObjCallback0)											return "Callback for object 0 must be defined! Call: SetCallback0().";
; 85   : 	if(!mObjCallback1)											return "Callback for object 1 must be defined! Call: SetCallback1().";
; 86   : #else
; 87   : 	if(!mFaces0 || !mVerts0)									return "Object0 pointers must be defined! Call: SetPointers0().";

	lea	rax, OFFSET FLAT:??_C@_0DI@JNJMPNPG@Object0?5pointers?5must?5be?5defined@

; 92   : }

	ret	0
?ValidateSettings@AABBTreeCollider@Opcode@@UEAAPEBDXZ ENDP ; Opcode::AABBTreeCollider::ValidateSettings
_TEXT	ENDS
END
