; Listing generated by Microsoft (R) Optimizing Compiler Version 18.00.40629.0 

include listing.inc

INCLUDELIB OLDNAMES

PUBLIC	?mUsedRam@Container@IceCore@@0IA		; IceCore::Container::mUsedRam
PUBLIC	?mNbContainers@Container@IceCore@@0IA		; IceCore::Container::mNbContainers
?mUsedRam@Container@IceCore@@0IA DD 01H DUP (?)		; IceCore::Container::mUsedRam
?mNbContainers@Container@IceCore@@0IA DD 01H DUP (?)	; IceCore::Container::mNbContainers
_BSS	ENDS
PUBLIC	?Empty@Container@IceCore@@QEAAAEAV12@XZ		; IceCore::Container::Empty
PUBLIC	?GetUsedRam@Container@IceCore@@QEBAIXZ		; IceCore::Container::GetUsedRam
PUBLIC	??1Container@IceCore@@QEAA@XZ			; IceCore::Container::~Container
;	COMDAT pdata
pdata	SEGMENT
$pdata$?Empty@Container@IceCore@@QEAAAEAV12@XZ DD imagerel $LN7
	DD	imagerel $LN7+64
	DD	imagerel $unwind$?Empty@Container@IceCore@@QEAAAEAV12@XZ
pdata	ENDS
pdata	SEGMENT
$pdata$??1Container@IceCore@@QEAA@XZ DD imagerel $LN11
	DD	imagerel $LN11+96
	DD	imagerel $unwind$??1Container@IceCore@@QEAA@XZ
xdata	SEGMENT
$unwind$??1Container@IceCore@@QEAA@XZ DD 020601H
	DD	030023206H
xdata	ENDS
;	COMDAT xdata
xdata	SEGMENT
$unwind$?Empty@Container@IceCore@@QEAAAEAV12@XZ DD 020601H
	DD	030023206H
; Function compile flags: /Ogtpy
; File c:\users\nummer\documents\github\olr-3.0\src\xray\xrcdb\opc_container.cpp
; File c:\users\nummer\documents\github\olr-3.0\src\xray\xrcdb\opc_container.h
; File c:\users\nummer\documents\github\olr-3.0\src\xray\xrcore\xrmemory.h
; File c:\users\nummer\documents\github\olr-3.0\src\xray\xrcdb\opc_container.h
; File c:\users\nummer\documents\github\olr-3.0\src\xray\xrcdb\opc_container.cpp
; File c:\users\nummer\documents\github\olr-3.0\src\xray\xrcdb\opc_container.h
; File c:\users\nummer\documents\github\olr-3.0\src\xray\xrcore\xrmemory.h
; File c:\users\nummer\documents\github\olr-3.0\src\xray\xrcdb\opc_container.cpp
; File c:\users\nummer\documents\github\olr-3.0\src\xray\xrcdb\opc_container.h
; File c:\users\nummer\documents\github\olr-3.0\src\xray\xrcdb\opc_container.cpp
_TEXT	SEGMENT
this$ = 48
??1Container@IceCore@@QEAA@XZ PROC			; IceCore::Container::~Container

; 69   : {

$LN11:
	push	rbx
	sub	rsp, 32					; 00000020H
; File c:\users\nummer\documents\github\olr-3.0\src\xray\xrcdb\opc_container.h

; 110  : 					mUsedRam-=mMaxNbEntries*sizeof(udword);

	imul	eax, DWORD PTR [rcx], -4		; fffffffcH
	mov	r8d, DWORD PTR ?mUsedRam@Container@IceCore@@0IA ; IceCore::Container::mUsedRam
; File c:\users\nummer\documents\github\olr-3.0\src\xray\xrcore\xrmemory.h

; 109  : 	IC void		xr_free		(T* &P)					{	if (P) { Memory.mem_free((void*)P); P=NULL;	};	}

	mov	rdx, QWORD PTR [rcx+8]
; File c:\users\nummer\documents\github\olr-3.0\src\xray\xrcdb\opc_container.h

; 110  : 					mUsedRam-=mMaxNbEntries*sizeof(udword);

	add	r8d, eax
; File c:\users\nummer\documents\github\olr-3.0\src\xray\xrcdb\opc_container.cpp

; 69   : {

	mov	rbx, rcx
; File c:\users\nummer\documents\github\olr-3.0\src\xray\xrcdb\opc_container.h

; 110  : 					mUsedRam-=mMaxNbEntries*sizeof(udword);

	mov	DWORD PTR ?mUsedRam@Container@IceCore@@0IA, r8d ; IceCore::Container::mUsedRam
; File c:\users\nummer\documents\github\olr-3.0\src\xray\xrcore\xrmemory.h

; 109  : 	IC void		xr_free		(T* &P)					{	if (P) { Memory.mem_free((void*)P); P=NULL;	};	}

	test	rdx, rdx
	je	SHORT $LN5@Container
	mov	rcx, QWORD PTR __imp_?Memory@@3VxrMemory@@A
	call	QWORD PTR __imp_?mem_free@xrMemory@@QEAAXPEAX@Z
	mov	r8d, DWORD PTR ?mUsedRam@Container@IceCore@@0IA ; IceCore::Container::mUsedRam
	mov	QWORD PTR [rbx+8], 0
$LN5@Container:
; File c:\users\nummer\documents\github\olr-3.0\src\xray\xrcdb\opc_container.cpp

; 72   : 	mNbContainers--;

	dec	DWORD PTR ?mNbContainers@Container@IceCore@@0IA ; IceCore::Container::mNbContainers

; 73   : 	mUsedRam-=GetUsedRam();

	add	r8d, -24				; ffffffe8H
; File c:\users\nummer\documents\github\olr-3.0\src\xray\xrcdb\opc_container.h

; 113  : 					mCurNbEntries	= mMaxNbEntries = 0;

	mov	QWORD PTR [rbx], 0
; File c:\users\nummer\documents\github\olr-3.0\src\xray\xrcdb\opc_container.cpp

; 73   : 	mUsedRam-=GetUsedRam();

	mov	DWORD PTR ?mUsedRam@Container@IceCore@@0IA, r8d ; IceCore::Container::mUsedRam

; 74   : #endif
; 75   : }

	add	rsp, 32					; 00000020H
	pop	rbx
	ret	0
??1Container@IceCore@@QEAA@XZ ENDP			; IceCore::Container::~Container
_TEXT	ENDS
; Function compile flags: /Ogtpy
; File c:\users\nummer\documents\github\olr-3.0\src\xray\xrcdb\opc_container.cpp
_TEXT	SEGMENT
this$ = 8
?GetUsedRam@Container@IceCore@@QEBAIXZ PROC		; IceCore::Container::GetUsedRam

; 307  : 	return sizeof(Container) + mMaxNbEntries * sizeof(udword);

	mov	eax, DWORD PTR [rcx]
	lea	rax, QWORD PTR [rax*4+24]

; 308  : }

	ret	0
?GetUsedRam@Container@IceCore@@QEBAIXZ ENDP		; IceCore::Container::GetUsedRam
_TEXT	ENDS
; Function compile flags: /Ogtpy
; File c:\users\nummer\documents\github\olr-3.0\src\xray\xrcdb\opc_container.h
; File c:\users\nummer\documents\github\olr-3.0\src\xray\xrcore\xrmemory.h
; File c:\users\nummer\documents\github\olr-3.0\src\xray\xrcdb\opc_container.h
; File c:\users\nummer\documents\github\olr-3.0\src\xray\xrcore\xrmemory.h
; File c:\users\nummer\documents\github\olr-3.0\src\xray\xrcdb\opc_container.h
;	COMDAT ?Empty@Container@IceCore@@QEAAAEAV12@XZ
_TEXT	SEGMENT
this$ = 48
?Empty@Container@IceCore@@QEAAAEAV12@XZ PROC		; IceCore::Container::Empty, COMDAT

; 108  : 				{

$LN7:
	push	rbx
	sub	rsp, 32					; 00000020H

; 109  : 					#ifdef CONTAINER_STATS
; 110  : 					mUsedRam-=mMaxNbEntries*sizeof(udword);

	imul	eax, DWORD PTR [rcx], -4		; fffffffcH
; File c:\users\nummer\documents\github\olr-3.0\src\xray\xrcore\xrmemory.h

; 109  : 	IC void		xr_free		(T* &P)					{	if (P) { Memory.mem_free((void*)P); P=NULL;	};	}

	mov	rdx, QWORD PTR [rcx+8]
; File c:\users\nummer\documents\github\olr-3.0\src\xray\xrcdb\opc_container.h

; 108  : 				{

	mov	rbx, rcx

; 109  : 					#ifdef CONTAINER_STATS
; 110  : 					mUsedRam-=mMaxNbEntries*sizeof(udword);

	add	DWORD PTR ?mUsedRam@Container@IceCore@@0IA, eax ; IceCore::Container::mUsedRam
; File c:\users\nummer\documents\github\olr-3.0\src\xray\xrcore\xrmemory.h

; 109  : 	IC void		xr_free		(T* &P)					{	if (P) { Memory.mem_free((void*)P); P=NULL;	};	}

	test	rdx, rdx
	je	SHORT $LN3@Empty
	mov	rcx, QWORD PTR __imp_?Memory@@3VxrMemory@@A
	call	QWORD PTR __imp_?mem_free@xrMemory@@QEAAXPEAX@Z
	mov	QWORD PTR [rbx+8], 0
$LN3@Empty:
; File c:\users\nummer\documents\github\olr-3.0\src\xray\xrcdb\opc_container.h

; 113  : 					mCurNbEntries	= mMaxNbEntries = 0;

	mov	QWORD PTR [rbx], 0

; 114  : 					return *this;

	mov	rax, rbx

; 115  : 				}

	add	rsp, 32					; 00000020H
	pop	rbx
	ret	0
?Empty@Container@IceCore@@QEAAAEAV12@XZ ENDP		; IceCore::Container::Empty
_TEXT	ENDS
END
