; Listing generated by Microsoft (R) Optimizing Compiler Version 16.00.40219.01 

include listing.inc

INCLUDELIB OLDNAMES

PUBLIC	?ValidateSettings@SphereCollider@Opcode@@UEAAPEBDXZ ; Opcode::SphereCollider::ValidateSettings
PUBLIC	??_R4SphereCollider@Opcode@@6B@			; Opcode::SphereCollider::`RTTI Complete Object Locator'
PUBLIC	??_R3SphereCollider@Opcode@@8			; Opcode::SphereCollider::`RTTI Class Hierarchy Descriptor'
PUBLIC	??_R2SphereCollider@Opcode@@8			; Opcode::SphereCollider::`RTTI Base Class Array'
PUBLIC	??_R1A@?0A@EA@SphereCollider@Opcode@@8		; Opcode::SphereCollider::`RTTI Base Class Descriptor at (0,-1,0,64)'
PUBLIC	??_R0?AVSphereCollider@Opcode@@@8		; Opcode::SphereCollider `RTTI Type Descriptor'
PUBLIC	?SquareMagnitude@icePoint@IceMaths@@QEBAMXZ	; IceMaths::icePoint::SquareMagnitude
PUBLIC	?Zero@icePoint@IceMaths@@QEAAAEAV12@XZ		; IceMaths::icePoint::Zero
PUBLIC	??_GSphereCollider@Opcode@@UEAAPEAXI@Z		; Opcode::SphereCollider::`scalar deleting destructor'
PUBLIC	?SquareDistance@icePoint@IceMaths@@QEBAMAEBV12@@Z ; IceMaths::icePoint::SquareDistance
PUBLIC	?SphereContainsBox@SphereCollider@Opcode@@IEAAHAEBVicePoint@IceMaths@@0@Z ; Opcode::SphereCollider::SphereContainsBox
PUBLIC	?SphereAABBOverlap@SphereCollider@Opcode@@IEAAHAEBVicePoint@IceMaths@@0@Z ; Opcode::SphereCollider::SphereAABBOverlap
PUBLIC	??_7SphereCollider@Opcode@@6B@			; Opcode::SphereCollider::`vftable'
EXTRN	??_ESphereCollider@Opcode@@UEAAPEAXI@Z:PROC	; Opcode::SphereCollider::`vector deleting destructor'
;	COMDAT ??_7SphereCollider@Opcode@@6B@
CONST	SEGMENT
??_7SphereCollider@Opcode@@6B@ DQ FLAT:??_R4SphereCollider@Opcode@@6B@ ; Opcode::SphereCollider::`vftable'
	DQ	FLAT:??_ESphereCollider@Opcode@@UEAAPEAXI@Z
	DQ	FLAT:?ValidateSettings@SphereCollider@Opcode@@UEAAPEBDXZ
	DQ	FLAT:?InitQueryEx@VolumeCollider@Opcode@@MEAAXXZ
CONST	ENDS
;	COMDAT ??_R4SphereCollider@Opcode@@6B@
rdata$r	SEGMENT
??_R4SphereCollider@Opcode@@6B@ DD 01H			; Opcode::SphereCollider::`RTTI Complete Object Locator'
	DD	00H
	DD	00H
	DD	imagerel ??_R0?AVSphereCollider@Opcode@@@8
	DD	imagerel ??_R3SphereCollider@Opcode@@8
	DD	imagerel ??_R4SphereCollider@Opcode@@6B@
rdata$r	ENDS
;	COMDAT ??_R3SphereCollider@Opcode@@8
rdata$r	SEGMENT
??_R3SphereCollider@Opcode@@8 DD 00H			; Opcode::SphereCollider::`RTTI Class Hierarchy Descriptor'
	DD	00H
	DD	03H
	DD	imagerel ??_R2SphereCollider@Opcode@@8
rdata$r	ENDS
;	COMDAT ??_R2SphereCollider@Opcode@@8
rdata$r	SEGMENT
??_R2SphereCollider@Opcode@@8 DD imagerel ??_R1A@?0A@EA@SphereCollider@Opcode@@8 ; Opcode::SphereCollider::`RTTI Base Class Array'
	DD	imagerel ??_R1A@?0A@EA@VolumeCollider@Opcode@@8
	DD	imagerel ??_R1A@?0A@EA@Collider@Opcode@@8
	ORG $+3
rdata$r	ENDS
;	COMDAT ??_R1A@?0A@EA@SphereCollider@Opcode@@8
rdata$r	SEGMENT
??_R1A@?0A@EA@SphereCollider@Opcode@@8 DD imagerel ??_R0?AVSphereCollider@Opcode@@@8 ; Opcode::SphereCollider::`RTTI Base Class Descriptor at (0,-1,0,64)'
	DD	02H
	DD	00H
	DD	0ffffffffH
	DD	00H
	DD	040H
	DD	imagerel ??_R3SphereCollider@Opcode@@8
rdata$r	ENDS
;	COMDAT ??_R0?AVSphereCollider@Opcode@@@8
_DATA	SEGMENT
??_R0?AVSphereCollider@Opcode@@@8 DQ FLAT:??_7type_info@@6B@ ; Opcode::SphereCollider `RTTI Type Descriptor'
	DQ	0000000000000000H
	DB	'.?AVSphereCollider@Opcode@@', 00H
; Function compile flags: /Ogtpy
; File c:\users\nummer\documents\github\olr-3.0\src\xray\xrcdb\opc_spherecollider.cpp
_TEXT	SEGMENT
this$ = 8
?ValidateSettings@SphereCollider@Opcode@@UEAAPEBDXZ PROC ; Opcode::SphereCollider::ValidateSettings

; 98   : 	return VolumeCollider::ValidateSettings();

	cmp	QWORD PTR [rcx+24], 0
	je	SHORT $LN3@ValidateSe@2
	cmp	QWORD PTR [rcx+32], 0
	je	SHORT $LN3@ValidateSe@2
	xor	eax, eax

; 99   : }

	ret	0

; 98   : 	return VolumeCollider::ValidateSettings();

$LN3@ValidateSe@2:
	lea	rax, OFFSET FLAT:??_C@_0DG@GPJAOPIP@Object?5pointers?5must?5be?5defined?$CB@

; 99   : }

	ret	0
?ValidateSettings@SphereCollider@Opcode@@UEAAPEBDXZ ENDP ; Opcode::SphereCollider::ValidateSettings
PUBLIC	??1SphereCollider@Opcode@@UEAA@XZ		; Opcode::SphereCollider::~SphereCollider
; Function compile flags: /Ogtpy
_TEXT	SEGMENT
this$ = 8
??1SphereCollider@Opcode@@UEAA@XZ PROC			; Opcode::SphereCollider::~SphereCollider

; 88   : }

	lea	rax, OFFSET FLAT:??_7Collider@Opcode@@6B@
	mov	QWORD PTR [rcx+16], 0
	mov	QWORD PTR [rcx], rax
	ret	0
??1SphereCollider@Opcode@@UEAA@XZ ENDP			; Opcode::SphereCollider::~SphereCollider
_TEXT	ENDS
;	COMDAT pdata
pdata	SEGMENT
$pdata$??_GSphereCollider@Opcode@@UEAAPEAXI@Z DD imagerel $LN22
	DD	imagerel $LN22+57
	DD	imagerel $unwind$??_GSphereCollider@Opcode@@UEAAPEAXI@Z
pdata	ENDS
;	COMDAT xdata
xdata	SEGMENT
$unwind$??_GSphereCollider@Opcode@@UEAAPEAXI@Z DD 020601H
	DD	030023206H
; Function compile flags: /Ogtpy
xdata	ENDS
;	COMDAT ??_GSphereCollider@Opcode@@UEAAPEAXI@Z
_TEXT	SEGMENT
this$ = 48
__flags$ = 56
??_GSphereCollider@Opcode@@UEAAPEAXI@Z PROC		; Opcode::SphereCollider::`scalar deleting destructor', COMDAT
$LN22:
	push	rbx
	sub	rsp, 32					; 00000020H
	lea	rax, OFFSET FLAT:??_7Collider@Opcode@@6B@
	mov	rbx, rcx
	mov	QWORD PTR [rcx+16], 0
	mov	QWORD PTR [rcx], rax
	test	dl, 1
	je	SHORT $LN21@scalar
	mov	rdx, rcx
	mov	rcx, QWORD PTR __imp_?Memory@@3VxrMemory@@A
	call	QWORD PTR __imp_?mem_free@xrMemory@@QEAAXPEAX@Z
$LN21@scalar:
	mov	rax, rbx
	add	rsp, 32					; 00000020H
	pop	rbx
	ret	0
??_GSphereCollider@Opcode@@UEAAPEAXI@Z ENDP		; Opcode::SphereCollider::`scalar deleting destructor'
END
