; Listing generated by Microsoft (R) Optimizing Compiler Version 16.00.40219.01 

include listing.inc

INCLUDELIB OLDNAMES

PUBLIC	?ValidateSettings@PlanesCollider@Opcode@@UEAAPEBDXZ ; Opcode::PlanesCollider::ValidateSettings
PUBLIC	??_R4PlanesCollider@Opcode@@6B@			; Opcode::PlanesCollider::`RTTI Complete Object Locator'
PUBLIC	??_R3PlanesCollider@Opcode@@8			; Opcode::PlanesCollider::`RTTI Class Hierarchy Descriptor'
PUBLIC	??_R2PlanesCollider@Opcode@@8			; Opcode::PlanesCollider::`RTTI Base Class Array'
PUBLIC	??_R1A@?0A@EA@PlanesCollider@Opcode@@8		; Opcode::PlanesCollider::`RTTI Base Class Descriptor at (0,-1,0,64)'
PUBLIC	??_R0?AVPlanesCollider@Opcode@@@8		; Opcode::PlanesCollider `RTTI Type Descriptor'
PUBLIC	??_GPlanesCollider@Opcode@@UEAAPEAXI@Z		; Opcode::PlanesCollider::`scalar deleting destructor'
PUBLIC	??DIceMaths@@YA?AVicePoint@0@MAEBV10@@Z		; IceMaths::operator*
PUBLIC	??DicePoint@IceMaths@@QEBA?AV01@AEBVMatrix3x3@1@@Z ; IceMaths::icePoint::operator*
PUBLIC	?TransformPlane@IceMaths@@YAXAEAVPlane@1@AEBV21@AEBVMatrix4x4@1@@Z ; IceMaths::TransformPlane
PUBLIC	??$xr_free@VPlane@IceMaths@@@@YAXAEAPEAVPlane@IceMaths@@@Z ; xr_free<IceMaths::Plane>
PUBLIC	??$xr_alloc@VPlane@IceMaths@@@@YAPEAVPlane@IceMaths@@I@Z ; xr_alloc<IceMaths::Plane>
PUBLIC	?PlanesAABBOverlap@PlanesCollider@Opcode@@IEAAHAEBVicePoint@IceMaths@@0AEAII@Z ; Opcode::PlanesCollider::PlanesAABBOverlap
PUBLIC	?Distance@Plane@IceMaths@@QEBAMAEBVicePoint@2@@Z ; IceMaths::Plane::Distance
PUBLIC	?PlanesTriOverlap@PlanesCollider@Opcode@@IEAAHI@Z ; Opcode::PlanesCollider::PlanesTriOverlap
PUBLIC	??_7PlanesCollider@Opcode@@6B@			; Opcode::PlanesCollider::`vftable'
EXTRN	??_EPlanesCollider@Opcode@@UEAAPEAXI@Z:PROC	; Opcode::PlanesCollider::`vector deleting destructor'
;	COMDAT ??_7PlanesCollider@Opcode@@6B@
CONST	SEGMENT
??_7PlanesCollider@Opcode@@6B@ DQ FLAT:??_R4PlanesCollider@Opcode@@6B@ ; Opcode::PlanesCollider::`vftable'
	DQ	FLAT:??_EPlanesCollider@Opcode@@UEAAPEAXI@Z
	DQ	FLAT:?ValidateSettings@PlanesCollider@Opcode@@UEAAPEBDXZ
	DQ	FLAT:?InitQueryEx@VolumeCollider@Opcode@@MEAAXXZ
CONST	ENDS
;	COMDAT ??_R4PlanesCollider@Opcode@@6B@
rdata$r	SEGMENT
??_R4PlanesCollider@Opcode@@6B@ DD 01H			; Opcode::PlanesCollider::`RTTI Complete Object Locator'
	DD	00H
	DD	00H
	DD	imagerel ??_R0?AVPlanesCollider@Opcode@@@8
	DD	imagerel ??_R3PlanesCollider@Opcode@@8
	DD	imagerel ??_R4PlanesCollider@Opcode@@6B@
rdata$r	ENDS
;	COMDAT ??_R3PlanesCollider@Opcode@@8
rdata$r	SEGMENT
??_R3PlanesCollider@Opcode@@8 DD 00H			; Opcode::PlanesCollider::`RTTI Class Hierarchy Descriptor'
	DD	00H
	DD	03H
	DD	imagerel ??_R2PlanesCollider@Opcode@@8
rdata$r	ENDS
;	COMDAT ??_R2PlanesCollider@Opcode@@8
rdata$r	SEGMENT
??_R2PlanesCollider@Opcode@@8 DD imagerel ??_R1A@?0A@EA@PlanesCollider@Opcode@@8 ; Opcode::PlanesCollider::`RTTI Base Class Array'
	DD	imagerel ??_R1A@?0A@EA@VolumeCollider@Opcode@@8
	DD	imagerel ??_R1A@?0A@EA@Collider@Opcode@@8
	ORG $+3
rdata$r	ENDS
;	COMDAT ??_R1A@?0A@EA@PlanesCollider@Opcode@@8
rdata$r	SEGMENT
??_R1A@?0A@EA@PlanesCollider@Opcode@@8 DD imagerel ??_R0?AVPlanesCollider@Opcode@@@8 ; Opcode::PlanesCollider::`RTTI Base Class Descriptor at (0,-1,0,64)'
	DD	02H
	DD	00H
	DD	0ffffffffH
	DD	00H
	DD	040H
	DD	imagerel ??_R3PlanesCollider@Opcode@@8
rdata$r	ENDS
;	COMDAT ??_R0?AVPlanesCollider@Opcode@@@8
_DATA	SEGMENT
??_R0?AVPlanesCollider@Opcode@@@8 DQ FLAT:??_7type_info@@6B@ ; Opcode::PlanesCollider `RTTI Type Descriptor'
	DQ	0000000000000000H
	DB	'.?AVPlanesCollider@Opcode@@', 00H
;	COMDAT pdata
; File c:\users\nummer\documents\github\olr-3.0\src\xray\xrcore\xrmemory.h
pdata	SEGMENT
$pdata$??$xr_free@VPlane@IceMaths@@@@YAXAEAPEAVPlane@IceMaths@@@Z DD imagerel $LN4
	DD	imagerel $LN4+43
	DD	imagerel $unwind$??$xr_free@VPlane@IceMaths@@@@YAXAEAPEAVPlane@IceMaths@@@Z
pdata	ENDS
;	COMDAT xdata
xdata	SEGMENT
$unwind$??$xr_free@VPlane@IceMaths@@@@YAXAEAPEAVPlane@IceMaths@@@Z DD 020601H
	DD	030023206H
; Function compile flags: /Ogtpy
xdata	ENDS
;	COMDAT ??$xr_free@VPlane@IceMaths@@@@YAXAEAPEAVPlane@IceMaths@@@Z
_TEXT	SEGMENT
P$ = 48
??$xr_free@VPlane@IceMaths@@@@YAXAEAPEAVPlane@IceMaths@@@Z PROC ; xr_free<IceMaths::Plane>, COMDAT

; 109  : 	IC void		xr_free		(T* &P)					{	if (P) { Memory.mem_free((void*)P); P=NULL;	};	}

$LN4:
	push	rbx
	sub	rsp, 32					; 00000020H
	mov	rdx, QWORD PTR [rcx]
	mov	rbx, rcx
	test	rdx, rdx
	je	SHORT $LN1@xr_free
	mov	rcx, QWORD PTR __imp_?Memory@@3VxrMemory@@A
	call	QWORD PTR __imp_?mem_free@xrMemory@@QEAAXPEAX@Z
	mov	QWORD PTR [rbx], 0
$LN1@xr_free:
	add	rsp, 32					; 00000020H
	pop	rbx
	ret	0
??$xr_free@VPlane@IceMaths@@@@YAXAEAPEAVPlane@IceMaths@@@Z ENDP ; xr_free<IceMaths::Plane>
; Function compile flags: /Ogtpy
; File c:\users\nummer\documents\github\olr-3.0\src\xray\xrcdb\opc_planescollider.cpp
_TEXT	SEGMENT
this$ = 8
?ValidateSettings@PlanesCollider@Opcode@@UEAAPEBDXZ PROC ; Opcode::PlanesCollider::ValidateSettings

; 85   : 	if(TemporalCoherenceEnabled() && !FirstContactEnabled())	return "Temporal coherence only works with ""First contact"" mode!";

	mov	eax, DWORD PTR [rcx+8]
	test	al, 2
	je	SHORT $LN1@ValidateSe@6
	test	al, 1
	jne	SHORT $LN1@ValidateSe@6
	lea	rax, OFFSET FLAT:??_C@_0DH@CENBPGJM@Temporal?5coherence?5only?5works?5wi@

; 88   : }

	ret	0
$LN1@ValidateSe@6:

; 86   : 
; 87   : 	return VolumeCollider::ValidateSettings();

	cmp	QWORD PTR [rcx+24], 0
	je	SHORT $LN8@ValidateSe@6
	cmp	QWORD PTR [rcx+32], 0
	je	SHORT $LN8@ValidateSe@6
	xor	eax, eax

; 88   : }

	ret	0

; 86   : 
; 87   : 	return VolumeCollider::ValidateSettings();

$LN8@ValidateSe@6:
	lea	rax, OFFSET FLAT:??_C@_0DG@GPJAOPIP@Object?5pointers?5must?5be?5defined?$CB@

; 88   : }

	ret	0
?ValidateSettings@PlanesCollider@Opcode@@UEAAPEBDXZ ENDP ; Opcode::PlanesCollider::ValidateSettings
_TEXT	ENDS
PUBLIC	??1PlanesCollider@Opcode@@UEAA@XZ		; Opcode::PlanesCollider::~PlanesCollider
pdata	SEGMENT
$pdata$??1PlanesCollider@Opcode@@UEAA@XZ DD imagerel $LN14
	DD	imagerel $LN14+73
	DD	imagerel $unwind$??1PlanesCollider@Opcode@@UEAA@XZ
pdata	ENDS
xdata	SEGMENT
$unwind$??1PlanesCollider@Opcode@@UEAA@XZ DD 020601H
	DD	030023206H
; Function compile flags: /Ogtpy
xdata	ENDS
_TEXT	SEGMENT
this$ = 48
??1PlanesCollider@Opcode@@UEAA@XZ PROC			; Opcode::PlanesCollider::~PlanesCollider

; 73   : {

$LN14:
	push	rbx
	sub	rsp, 32					; 00000020H
	lea	rax, OFFSET FLAT:??_7PlanesCollider@Opcode@@6B@
	mov	rbx, rcx
	mov	QWORD PTR [rcx], rax

; 74   : 	xr_free(mPlanes);

	mov	rdx, QWORD PTR [rcx+80]
	test	rdx, rdx
	je	SHORT $LN3@PlanesColl
	mov	rcx, QWORD PTR __imp_?Memory@@3VxrMemory@@A
	call	QWORD PTR __imp_?mem_free@xrMemory@@QEAAXPEAX@Z
	mov	QWORD PTR [rbx+80], 0
$LN3@PlanesColl:

; 75   : }

	lea	rax, OFFSET FLAT:??_7Collider@Opcode@@6B@
	mov	QWORD PTR [rbx+16], 0
	mov	QWORD PTR [rbx], rax
	add	rsp, 32					; 00000020H
	pop	rbx
	ret	0
??1PlanesCollider@Opcode@@UEAA@XZ ENDP			; Opcode::PlanesCollider::~PlanesCollider
_TEXT	ENDS
;	COMDAT pdata
pdata	SEGMENT
$pdata$??_GPlanesCollider@Opcode@@UEAAPEAXI@Z DD imagerel $LN23
	DD	imagerel $LN23+109
	DD	imagerel $unwind$??_GPlanesCollider@Opcode@@UEAAPEAXI@Z
pdata	ENDS
;	COMDAT xdata
xdata	SEGMENT
$unwind$??_GPlanesCollider@Opcode@@UEAAPEAXI@Z DD 040a01H
	DD	06340aH
	DD	07006320aH
; Function compile flags: /Ogtpy
xdata	ENDS
;	COMDAT ??_GPlanesCollider@Opcode@@UEAAPEAXI@Z
_TEXT	SEGMENT
this$ = 48
__flags$ = 56
??_GPlanesCollider@Opcode@@UEAAPEAXI@Z PROC		; Opcode::PlanesCollider::`scalar deleting destructor', COMDAT
$LN23:
	mov	QWORD PTR [rsp+8], rbx
	push	rdi
	sub	rsp, 32					; 00000020H
	lea	rax, OFFSET FLAT:??_7PlanesCollider@Opcode@@6B@
	mov	edi, edx
	mov	rbx, rcx
	mov	QWORD PTR [rcx], rax
	mov	rdx, QWORD PTR [rcx+80]
	test	rdx, rdx
	je	SHORT $LN6@scalar@3
	mov	rcx, QWORD PTR __imp_?Memory@@3VxrMemory@@A
	call	QWORD PTR __imp_?mem_free@xrMemory@@QEAAXPEAX@Z
	mov	QWORD PTR [rbx+80], 0
$LN6@scalar@3:
	lea	rax, OFFSET FLAT:??_7Collider@Opcode@@6B@
	mov	QWORD PTR [rbx+16], 0
	mov	QWORD PTR [rbx], rax
	test	dil, 1
	je	SHORT $LN22@scalar@3
	mov	rcx, QWORD PTR __imp_?Memory@@3VxrMemory@@A
	mov	rdx, rbx
	call	QWORD PTR __imp_?mem_free@xrMemory@@QEAAXPEAX@Z
$LN22@scalar@3:
	mov	rax, rbx
	mov	rbx, QWORD PTR [rsp+48]
	add	rsp, 32					; 00000020H
	pop	rdi
	ret	0
??_GPlanesCollider@Opcode@@UEAAPEAXI@Z ENDP		; Opcode::PlanesCollider::`scalar deleting destructor'
END
