; Listing generated by Microsoft (R) Optimizing Compiler Version 16.00.40219.01 

include listing.inc

INCLUDELIB OLDNAMES

PUBLIC	?size@?$xr_vector@URESULT@CDB@@V?$xalloc@URESULT@CDB@@@@@@QEBAIXZ ; xr_vector<CDB::RESULT,xalloc<CDB::RESULT> >::size
PUBLIC	?clear_not_free@?$xr_vector@URESULT@CDB@@V?$xalloc@URESULT@CDB@@@@@@QEAAXXZ ; xr_vector<CDB::RESULT,xalloc<CDB::RESULT> >::clear_not_free
PUBLIC	?begin@?$vector@URESULT@CDB@@V?$xalloc@URESULT@CDB@@@@@std@@QEBA?AV?$_Vector_const_iterator@V?$_Vector_val@URESULT@CDB@@V?$xalloc@URESULT@CDB@@@@@std@@@2@XZ ; std::vector<CDB::RESULT,xalloc<CDB::RESULT> >::begin
PUBLIC	?end@?$vector@URESULT@CDB@@V?$xalloc@URESULT@CDB@@@@@std@@QEBA?AV?$_Vector_const_iterator@V?$_Vector_val@URESULT@CDB@@V?$xalloc@URESULT@CDB@@@@@std@@@2@XZ ; std::vector<CDB::RESULT,xalloc<CDB::RESULT> >::end
PUBLIC	??$_Ptr_cat@V?$_Vector_const_iterator@V?$_Vector_val@URESULT@CDB@@V?$xalloc@URESULT@CDB@@@@@std@@@std@@PEAURESULT@CDB@@@std@@YA?AU_Nonscalar_ptr_iterator_tag@0@AEAV?$_Vector_const_iterator@V?$_Vector_val@URESULT@CDB@@V?$xalloc@URESULT@CDB@@@@@std@@@0@AEAPEAURESULT@CDB@@@Z ; std::_Ptr_cat<std::_Vector_const_iterator<std::_Vector_val<CDB::RESULT,xalloc<CDB::RESULT> > >,CDB::RESULT * __ptr64>
PUBLIC	??E?$_Vector_const_iterator@V?$_Vector_val@URESULT@CDB@@V?$xalloc@URESULT@CDB@@@@@std@@@std@@QEAAAEAV01@XZ ; std::_Vector_const_iterator<std::_Vector_val<CDB::RESULT,xalloc<CDB::RESULT> > >::operator++
PUBLIC	??$_Cons_val@V?$xalloc@URESULT@CDB@@@@URESULT@CDB@@AEBU23@@std@@YAXAEAV?$xalloc@URESULT@CDB@@@@PEAURESULT@CDB@@AEBU23@@Z ; std::_Cons_val<xalloc<CDB::RESULT>,CDB::RESULT,CDB::RESULT const & __ptr64>
PUBLIC	??$_Uninit_copy@V?$_Vector_const_iterator@V?$_Vector_val@URESULT@CDB@@V?$xalloc@URESULT@CDB@@@@@std@@@std@@PEAURESULT@CDB@@V?$xalloc@URESULT@CDB@@@@@std@@YAPEAURESULT@CDB@@V?$_Vector_const_iterator@V?$_Vector_val@URESULT@CDB@@V?$xalloc@URESULT@CDB@@@@@std@@@0@0PEAU12@AEAV?$xalloc@URESULT@CDB@@@@U_Nonscalar_ptr_iterator_tag@0@@Z ; std::_Uninit_copy<std::_Vector_const_iterator<std::_Vector_val<CDB::RESULT,xalloc<CDB::RESULT> > >,CDB::RESULT * __ptr64,xalloc<CDB::RESULT> >
PUBLIC	??$_Uninitialized_copy@V?$_Vector_const_iterator@V?$_Vector_val@URESULT@CDB@@V?$xalloc@URESULT@CDB@@@@@std@@@std@@PEAURESULT@CDB@@V?$xalloc@URESULT@CDB@@@@@std@@YAPEAURESULT@CDB@@V?$_Vector_const_iterator@V?$_Vector_val@URESULT@CDB@@V?$xalloc@URESULT@CDB@@@@@std@@@0@0PEAU12@AEAV?$xalloc@URESULT@CDB@@@@@Z ; std::_Uninitialized_copy<std::_Vector_const_iterator<std::_Vector_val<CDB::RESULT,xalloc<CDB::RESULT> > >,CDB::RESULT * __ptr64,xalloc<CDB::RESULT> >
PUBLIC	??$_Ucopy@V?$_Vector_const_iterator@V?$_Vector_val@URESULT@CDB@@V?$xalloc@URESULT@CDB@@@@@std@@@std@@@?$vector@URESULT@CDB@@V?$xalloc@URESULT@CDB@@@@@std@@IEAAPEAURESULT@CDB@@V?$_Vector_const_iterator@V?$_Vector_val@URESULT@CDB@@V?$xalloc@URESULT@CDB@@@@@std@@@1@0PEAU23@@Z ; std::vector<CDB::RESULT,xalloc<CDB::RESULT> >::_Ucopy<std::_Vector_const_iterator<std::_Vector_val<CDB::RESULT,xalloc<CDB::RESULT> > > >
PUBLIC	??0?$vector@URESULT@CDB@@V?$xalloc@URESULT@CDB@@@@@std@@QEAA@AEBV01@@Z ; std::vector<CDB::RESULT,xalloc<CDB::RESULT> >::vector<CDB::RESULT,xalloc<CDB::RESULT> >
PUBLIC	??0?$xr_vector@URESULT@CDB@@V?$xalloc@URESULT@CDB@@@@@@QEAA@AEBV0@@Z ; xr_vector<CDB::RESULT,xalloc<CDB::RESULT> >::xr_vector<CDB::RESULT,xalloc<CDB::RESULT> >
PUBLIC	?_Buy@?$vector@URESULT@CDB@@V?$xalloc@URESULT@CDB@@@@@std@@IEAA_N_K@Z ; std::vector<CDB::RESULT,xalloc<CDB::RESULT> >::_Buy
PUBLIC	??$_Copy_impl@PEAURESULT@CDB@@PEAU12@@std@@YAPEAURESULT@CDB@@PEAU12@00U_Nonscalar_ptr_iterator_tag@0@@Z ; std::_Copy_impl<CDB::RESULT * __ptr64,CDB::RESULT * __ptr64>
PUBLIC	??$_Copy_impl@PEAURESULT@CDB@@PEAU12@@std@@YAPEAURESULT@CDB@@PEAU12@00@Z ; std::_Copy_impl<CDB::RESULT * __ptr64,CDB::RESULT * __ptr64>
PUBLIC	??$forward@AEAURESULT@CDB@@@std@@YAAEAURESULT@CDB@@AEAU12@@Z ; std::forward<CDB::RESULT & __ptr64>
PUBLIC	??$_Cons_val@V?$xalloc@URESULT@CDB@@@@URESULT@CDB@@AEAU23@@std@@YAXAEAV?$xalloc@URESULT@CDB@@@@PEAURESULT@CDB@@AEAU23@@Z ; std::_Cons_val<xalloc<CDB::RESULT>,CDB::RESULT,CDB::RESULT & __ptr64>
PUBLIC	??$_Uninit_copy@PEAURESULT@CDB@@PEAU12@V?$xalloc@URESULT@CDB@@@@@std@@YAPEAURESULT@CDB@@PEAU12@00AEAV?$xalloc@URESULT@CDB@@@@U_Nonscalar_ptr_iterator_tag@0@@Z ; std::_Uninit_copy<CDB::RESULT * __ptr64,CDB::RESULT * __ptr64,xalloc<CDB::RESULT> >
PUBLIC	??$_Uninitialized_copy@PEAURESULT@CDB@@PEAU12@V?$xalloc@URESULT@CDB@@@@@std@@YAPEAURESULT@CDB@@PEAU12@00AEAV?$xalloc@URESULT@CDB@@@@@Z ; std::_Uninitialized_copy<CDB::RESULT * __ptr64,CDB::RESULT * __ptr64,xalloc<CDB::RESULT> >
PUBLIC	??$_Ucopy@PEAURESULT@CDB@@@?$vector@URESULT@CDB@@V?$xalloc@URESULT@CDB@@@@@std@@IEAAPEAURESULT@CDB@@PEAU23@00@Z ; std::vector<CDB::RESULT,xalloc<CDB::RESULT> >::_Ucopy<CDB::RESULT * __ptr64>
PUBLIC	??4?$vector@URESULT@CDB@@V?$xalloc@URESULT@CDB@@@@@std@@QEAAAEAV01@AEBV01@@Z ; std::vector<CDB::RESULT,xalloc<CDB::RESULT> >::operator=
PUBLIC	??4?$xr_vector@URESULT@CDB@@V?$xalloc@URESULT@CDB@@@@@@QEAAAEAV0@AEBV0@@Z ; xr_vector<CDB::RESULT,xalloc<CDB::RESULT> >::operator=
PUBLIC	?clear_and_free@?$xr_vector@U?$_vector3@M@@V?$xalloc@U?$_vector3@M@@@@@@QEAAXXZ ; xr_vector<_vector3<float>,xalloc<_vector3<float> > >::clear_and_free
PUBLIC	?clear@?$xr_vector@U?$_vector3@M@@V?$xalloc@U?$_vector3@M@@@@@@QEAAXXZ ; xr_vector<_vector3<float>,xalloc<_vector3<float> > >::clear
PUBLIC	?clear_and_free@?$xr_vector@VTRI@CDB@@V?$xalloc@VTRI@CDB@@@@@@QEAAXXZ ; xr_vector<CDB::TRI,xalloc<CDB::TRI> >::clear_and_free
PUBLIC	?clear@?$xr_vector@VTRI@CDB@@V?$xalloc@VTRI@CDB@@@@@@QEAAXXZ ; xr_vector<CDB::TRI,xalloc<CDB::TRI> >::clear
PUBLIC	??0?$xalloc@U?$_vector3@M@@@@QEAA@XZ		; xalloc<_vector3<float> >::xalloc<_vector3<float> >
PUBLIC	??0?$vector@U?$_vector3@M@@V?$xalloc@U?$_vector3@M@@@@@std@@QEAA@XZ ; std::vector<_vector3<float>,xalloc<_vector3<float> > >::vector<_vector3<float>,xalloc<_vector3<float> > >
PUBLIC	??0?$xr_vector@U?$_vector3@M@@V?$xalloc@U?$_vector3@M@@@@@@QEAA@XZ ; xr_vector<_vector3<float>,xalloc<_vector3<float> > >::xr_vector<_vector3<float>,xalloc<_vector3<float> > >
PUBLIC	??0?$xalloc@VTRI@CDB@@@@QEAA@XZ			; xalloc<CDB::TRI>::xalloc<CDB::TRI>
PUBLIC	??0?$vector@VTRI@CDB@@V?$xalloc@VTRI@CDB@@@@@std@@QEAA@XZ ; std::vector<CDB::TRI,xalloc<CDB::TRI> >::vector<CDB::TRI,xalloc<CDB::TRI> >
PUBLIC	??0?$xr_vector@VTRI@CDB@@V?$xalloc@VTRI@CDB@@@@@@QEAA@XZ ; xr_vector<CDB::TRI,xalloc<CDB::TRI> >::xr_vector<CDB::TRI,xalloc<CDB::TRI> >
PUBLIC	??0?$xalloc@U?$_vector3@M@@@@QEAA@AEBV0@@Z	; xalloc<_vector3<float> >::xalloc<_vector3<float> >
PUBLIC	??0?$_Vector_val@U?$_vector3@M@@V?$xalloc@U?$_vector3@M@@@@@std@@QEAA@V?$xalloc@U?$_vector3@M@@@@@Z ; std::_Vector_val<_vector3<float>,xalloc<_vector3<float> > >::_Vector_val<_vector3<float>,xalloc<_vector3<float> > >
PUBLIC	?begin@?$vector@U?$_vector3@M@@V?$xalloc@U?$_vector3@M@@@@@std@@QEBA?AV?$_Vector_const_iterator@V?$_Vector_val@U?$_vector3@M@@V?$xalloc@U?$_vector3@M@@@@@std@@@2@XZ ; std::vector<_vector3<float>,xalloc<_vector3<float> > >::begin
PUBLIC	?end@?$vector@U?$_vector3@M@@V?$xalloc@U?$_vector3@M@@@@@std@@QEBA?AV?$_Vector_const_iterator@V?$_Vector_val@U?$_vector3@M@@V?$xalloc@U?$_vector3@M@@@@@std@@@2@XZ ; std::vector<_vector3<float>,xalloc<_vector3<float> > >::end
PUBLIC	??$_Ptr_cat@V?$_Vector_const_iterator@V?$_Vector_val@U?$_vector3@M@@V?$xalloc@U?$_vector3@M@@@@@std@@@std@@PEAU?$_vector3@M@@@std@@YA?AU_Nonscalar_ptr_iterator_tag@0@AEAV?$_Vector_const_iterator@V?$_Vector_val@U?$_vector3@M@@V?$xalloc@U?$_vector3@M@@@@@std@@@0@AEAPEAU?$_vector3@M@@@Z ; std::_Ptr_cat<std::_Vector_const_iterator<std::_Vector_val<_vector3<float>,xalloc<_vector3<float> > > >,_vector3<float> * __ptr64>
PUBLIC	??E?$_Vector_const_iterator@V?$_Vector_val@U?$_vector3@M@@V?$xalloc@U?$_vector3@M@@@@@std@@@std@@QEAAAEAV01@XZ ; std::_Vector_const_iterator<std::_Vector_val<_vector3<float>,xalloc<_vector3<float> > > >::operator++
PUBLIC	??$_Cons_val@V?$xalloc@U?$_vector3@M@@@@U?$_vector3@M@@AEBU2@@std@@YAXAEAV?$xalloc@U?$_vector3@M@@@@PEAU?$_vector3@M@@AEBU2@@Z ; std::_Cons_val<xalloc<_vector3<float> >,_vector3<float>,_vector3<float> const & __ptr64>
PUBLIC	??$_Uninit_copy@V?$_Vector_const_iterator@V?$_Vector_val@U?$_vector3@M@@V?$xalloc@U?$_vector3@M@@@@@std@@@std@@PEAU?$_vector3@M@@V?$xalloc@U?$_vector3@M@@@@@std@@YAPEAU?$_vector3@M@@V?$_Vector_const_iterator@V?$_Vector_val@U?$_vector3@M@@V?$xalloc@U?$_vector3@M@@@@@std@@@0@0PEAU1@AEAV?$xalloc@U?$_vector3@M@@@@U_Nonscalar_ptr_iterator_tag@0@@Z ; std::_Uninit_copy<std::_Vector_const_iterator<std::_Vector_val<_vector3<float>,xalloc<_vector3<float> > > >,_vector3<float> * __ptr64,xalloc<_vector3<float> > >
PUBLIC	??$_Uninitialized_copy@V?$_Vector_const_iterator@V?$_Vector_val@U?$_vector3@M@@V?$xalloc@U?$_vector3@M@@@@@std@@@std@@PEAU?$_vector3@M@@V?$xalloc@U?$_vector3@M@@@@@std@@YAPEAU?$_vector3@M@@V?$_Vector_const_iterator@V?$_Vector_val@U?$_vector3@M@@V?$xalloc@U?$_vector3@M@@@@@std@@@0@0PEAU1@AEAV?$xalloc@U?$_vector3@M@@@@@Z ; std::_Uninitialized_copy<std::_Vector_const_iterator<std::_Vector_val<_vector3<float>,xalloc<_vector3<float> > > >,_vector3<float> * __ptr64,xalloc<_vector3<float> > >
PUBLIC	??$_Ucopy@V?$_Vector_const_iterator@V?$_Vector_val@U?$_vector3@M@@V?$xalloc@U?$_vector3@M@@@@@std@@@std@@@?$vector@U?$_vector3@M@@V?$xalloc@U?$_vector3@M@@@@@std@@IEAAPEAU?$_vector3@M@@V?$_Vector_const_iterator@V?$_Vector_val@U?$_vector3@M@@V?$xalloc@U?$_vector3@M@@@@@std@@@1@0PEAU2@@Z ; std::vector<_vector3<float>,xalloc<_vector3<float> > >::_Ucopy<std::_Vector_const_iterator<std::_Vector_val<_vector3<float>,xalloc<_vector3<float> > > > >
PUBLIC	??0?$vector@U?$_vector3@M@@V?$xalloc@U?$_vector3@M@@@@@std@@QEAA@AEBV01@@Z ; std::vector<_vector3<float>,xalloc<_vector3<float> > >::vector<_vector3<float>,xalloc<_vector3<float> > >
PUBLIC	??0?$xr_vector@U?$_vector3@M@@V?$xalloc@U?$_vector3@M@@@@@@QEAA@AEBV0@@Z ; xr_vector<_vector3<float>,xalloc<_vector3<float> > >::xr_vector<_vector3<float>,xalloc<_vector3<float> > >
PUBLIC	??0?$xalloc@VTRI@CDB@@@@QEAA@AEBV0@@Z		; xalloc<CDB::TRI>::xalloc<CDB::TRI>
PUBLIC	??0?$_Vector_val@VTRI@CDB@@V?$xalloc@VTRI@CDB@@@@@std@@QEAA@V?$xalloc@VTRI@CDB@@@@@Z ; std::_Vector_val<CDB::TRI,xalloc<CDB::TRI> >::_Vector_val<CDB::TRI,xalloc<CDB::TRI> >
PUBLIC	?begin@?$vector@VTRI@CDB@@V?$xalloc@VTRI@CDB@@@@@std@@QEBA?AV?$_Vector_const_iterator@V?$_Vector_val@VTRI@CDB@@V?$xalloc@VTRI@CDB@@@@@std@@@2@XZ ; std::vector<CDB::TRI,xalloc<CDB::TRI> >::begin
PUBLIC	?end@?$vector@VTRI@CDB@@V?$xalloc@VTRI@CDB@@@@@std@@QEBA?AV?$_Vector_const_iterator@V?$_Vector_val@VTRI@CDB@@V?$xalloc@VTRI@CDB@@@@@std@@@2@XZ ; std::vector<CDB::TRI,xalloc<CDB::TRI> >::end
PUBLIC	??$_Ptr_cat@V?$_Vector_const_iterator@V?$_Vector_val@VTRI@CDB@@V?$xalloc@VTRI@CDB@@@@@std@@@std@@PEAVTRI@CDB@@@std@@YA?AU_Nonscalar_ptr_iterator_tag@0@AEAV?$_Vector_const_iterator@V?$_Vector_val@VTRI@CDB@@V?$xalloc@VTRI@CDB@@@@@std@@@0@AEAPEAVTRI@CDB@@@Z ; std::_Ptr_cat<std::_Vector_const_iterator<std::_Vector_val<CDB::TRI,xalloc<CDB::TRI> > >,CDB::TRI * __ptr64>
PUBLIC	??E?$_Vector_const_iterator@V?$_Vector_val@VTRI@CDB@@V?$xalloc@VTRI@CDB@@@@@std@@@std@@QEAAAEAV01@XZ ; std::_Vector_const_iterator<std::_Vector_val<CDB::TRI,xalloc<CDB::TRI> > >::operator++
PUBLIC	??$_Cons_val@V?$xalloc@VTRI@CDB@@@@VTRI@CDB@@AEBV23@@std@@YAXAEAV?$xalloc@VTRI@CDB@@@@PEAVTRI@CDB@@AEBV23@@Z ; std::_Cons_val<xalloc<CDB::TRI>,CDB::TRI,CDB::TRI const & __ptr64>
PUBLIC	??$_Uninit_copy@V?$_Vector_const_iterator@V?$_Vector_val@VTRI@CDB@@V?$xalloc@VTRI@CDB@@@@@std@@@std@@PEAVTRI@CDB@@V?$xalloc@VTRI@CDB@@@@@std@@YAPEAVTRI@CDB@@V?$_Vector_const_iterator@V?$_Vector_val@VTRI@CDB@@V?$xalloc@VTRI@CDB@@@@@std@@@0@0PEAV12@AEAV?$xalloc@VTRI@CDB@@@@U_Nonscalar_ptr_iterator_tag@0@@Z ; std::_Uninit_copy<std::_Vector_const_iterator<std::_Vector_val<CDB::TRI,xalloc<CDB::TRI> > >,CDB::TRI * __ptr64,xalloc<CDB::TRI> >
PUBLIC	??$_Uninitialized_copy@V?$_Vector_const_iterator@V?$_Vector_val@VTRI@CDB@@V?$xalloc@VTRI@CDB@@@@@std@@@std@@PEAVTRI@CDB@@V?$xalloc@VTRI@CDB@@@@@std@@YAPEAVTRI@CDB@@V?$_Vector_const_iterator@V?$_Vector_val@VTRI@CDB@@V?$xalloc@VTRI@CDB@@@@@std@@@0@0PEAV12@AEAV?$xalloc@VTRI@CDB@@@@@Z ; std::_Uninitialized_copy<std::_Vector_const_iterator<std::_Vector_val<CDB::TRI,xalloc<CDB::TRI> > >,CDB::TRI * __ptr64,xalloc<CDB::TRI> >
PUBLIC	??$_Ucopy@V?$_Vector_const_iterator@V?$_Vector_val@VTRI@CDB@@V?$xalloc@VTRI@CDB@@@@@std@@@std@@@?$vector@VTRI@CDB@@V?$xalloc@VTRI@CDB@@@@@std@@IEAAPEAVTRI@CDB@@V?$_Vector_const_iterator@V?$_Vector_val@VTRI@CDB@@V?$xalloc@VTRI@CDB@@@@@std@@@1@0PEAV23@@Z ; std::vector<CDB::TRI,xalloc<CDB::TRI> >::_Ucopy<std::_Vector_const_iterator<std::_Vector_val<CDB::TRI,xalloc<CDB::TRI> > > >
PUBLIC	??0?$vector@VTRI@CDB@@V?$xalloc@VTRI@CDB@@@@@std@@QEAA@AEBV01@@Z ; std::vector<CDB::TRI,xalloc<CDB::TRI> >::vector<CDB::TRI,xalloc<CDB::TRI> >
PUBLIC	??0?$xr_vector@VTRI@CDB@@V?$xalloc@VTRI@CDB@@@@@@QEAA@AEBV0@@Z ; xr_vector<CDB::TRI,xalloc<CDB::TRI> >::xr_vector<CDB::TRI,xalloc<CDB::TRI> >
PUBLIC	?capacity@?$vector@U?$_vector3@M@@V?$xalloc@U?$_vector3@M@@@@@std@@QEBA_KXZ ; std::vector<_vector3<float>,xalloc<_vector3<float> > >::capacity
PUBLIC	?end@?$vector@U?$_vector3@M@@V?$xalloc@U?$_vector3@M@@@@@std@@QEAA?AV?$_Vector_iterator@V?$_Vector_val@U?$_vector3@M@@V?$xalloc@U?$_vector3@M@@@@@std@@@2@XZ ; std::vector<_vector3<float>,xalloc<_vector3<float> > >::end
PUBLIC	?_Make_iter@?$vector@U?$_vector3@M@@V?$xalloc@U?$_vector3@M@@@@@std@@QEBA?AV?$_Vector_iterator@V?$_Vector_val@U?$_vector3@M@@V?$xalloc@U?$_vector3@M@@@@@std@@@2@V?$_Vector_const_iterator@V?$_Vector_val@U?$_vector3@M@@V?$xalloc@U?$_vector3@M@@@@@std@@@2@@Z ; std::vector<_vector3<float>,xalloc<_vector3<float> > >::_Make_iter
PUBLIC	?_Compat@?$_Vector_const_iterator@V?$_Vector_val@U?$_vector3@M@@V?$xalloc@U?$_vector3@M@@@@@std@@@std@@QEBAXAEBV12@@Z ; std::_Vector_const_iterator<std::_Vector_val<_vector3<float>,xalloc<_vector3<float> > > >::_Compat
PUBLIC	??8?$_Vector_const_iterator@V?$_Vector_val@U?$_vector3@M@@V?$xalloc@U?$_vector3@M@@@@@std@@@std@@QEBA_NAEBV01@@Z ; std::_Vector_const_iterator<std::_Vector_val<_vector3<float>,xalloc<_vector3<float> > > >::operator==
PUBLIC	??9?$_Vector_const_iterator@V?$_Vector_val@U?$_vector3@M@@V?$xalloc@U?$_vector3@M@@@@@std@@@std@@QEBA_NAEBV01@@Z ; std::_Vector_const_iterator<std::_Vector_val<_vector3<float>,xalloc<_vector3<float> > > >::operator!=
PUBLIC	??$move@AEAU?$_vector3@M@@@std@@YA$$QEAU?$_vector3@M@@AEAU1@@Z ; std::move<_vector3<float> & __ptr64>
PUBLIC	??$_Move@PEAU?$_vector3@M@@PEAU1@@std@@YAPEAU?$_vector3@M@@PEAU1@00U_Nonscalar_ptr_iterator_tag@0@@Z ; std::_Move<_vector3<float> * __ptr64,_vector3<float> * __ptr64>
PUBLIC	??$_Move@PEAU?$_vector3@M@@PEAU1@@std@@YAPEAU?$_vector3@M@@PEAU1@00@Z ; std::_Move<_vector3<float> * __ptr64,_vector3<float> * __ptr64>
PUBLIC	?erase@?$vector@U?$_vector3@M@@V?$xalloc@U?$_vector3@M@@@@@std@@QEAA?AV?$_Vector_iterator@V?$_Vector_val@U?$_vector3@M@@V?$xalloc@U?$_vector3@M@@@@@std@@@2@V?$_Vector_const_iterator@V?$_Vector_val@U?$_vector3@M@@V?$xalloc@U?$_vector3@M@@@@@std@@@2@0@Z ; std::vector<_vector3<float>,xalloc<_vector3<float> > >::erase
PUBLIC	?clear@?$vector@U?$_vector3@M@@V?$xalloc@U?$_vector3@M@@@@@std@@QEAAXXZ ; std::vector<_vector3<float>,xalloc<_vector3<float> > >::clear
PUBLIC	?allocate@?$xalloc@U?$_vector3@M@@@@QEBAPEAU?$_vector3@M@@_KPEBX@Z ; xalloc<_vector3<float> >::allocate
PUBLIC	?max_size@?$xalloc@U?$_vector3@M@@@@QEBA_KXZ	; xalloc<_vector3<float> >::max_size
PUBLIC	?max_size@?$vector@U?$_vector3@M@@V?$xalloc@U?$_vector3@M@@@@@std@@QEBA_KXZ ; std::vector<_vector3<float>,xalloc<_vector3<float> > >::max_size
PUBLIC	?_Xlen@?$vector@U?$_vector3@M@@V?$xalloc@U?$_vector3@M@@@@@std@@IEBAXXZ ; std::vector<_vector3<float>,xalloc<_vector3<float> > >::_Xlen
PUBLIC	?_Buy@?$vector@U?$_vector3@M@@V?$xalloc@U?$_vector3@M@@@@@std@@IEAA_N_K@Z ; std::vector<_vector3<float>,xalloc<_vector3<float> > >::_Buy
PUBLIC	??$_Copy_impl@PEAU?$_vector3@M@@PEAU1@@std@@YAPEAU?$_vector3@M@@PEAU1@00U_Nonscalar_ptr_iterator_tag@0@@Z ; std::_Copy_impl<_vector3<float> * __ptr64,_vector3<float> * __ptr64>
PUBLIC	??$_Copy_impl@PEAU?$_vector3@M@@PEAU1@@std@@YAPEAU?$_vector3@M@@PEAU1@00@Z ; std::_Copy_impl<_vector3<float> * __ptr64,_vector3<float> * __ptr64>
PUBLIC	??$forward@AEBU?$_vector3@M@@@std@@YAAEBU?$_vector3@M@@AEBU1@@Z ; std::forward<_vector3<float> const & __ptr64>
PUBLIC	??$_Construct@U?$_vector3@M@@AEBU1@@std@@YAXPEAU?$_vector3@M@@AEBU1@@Z ; std::_Construct<_vector3<float>,_vector3<float> const & __ptr64>
PUBLIC	?construct@?$xalloc@U?$_vector3@M@@@@QEAAXPEAU?$_vector3@M@@AEBU2@@Z ; xalloc<_vector3<float> >::construct
PUBLIC	??$forward@AEAU?$_vector3@M@@@std@@YAAEAU?$_vector3@M@@AEAU1@@Z ; std::forward<_vector3<float> & __ptr64>
PUBLIC	??$_Cons_val@V?$xalloc@U?$_vector3@M@@@@U?$_vector3@M@@AEAU2@@std@@YAXAEAV?$xalloc@U?$_vector3@M@@@@PEAU?$_vector3@M@@AEAU2@@Z ; std::_Cons_val<xalloc<_vector3<float> >,_vector3<float>,_vector3<float> & __ptr64>
PUBLIC	??$_Uninit_copy@PEAU?$_vector3@M@@PEAU1@V?$xalloc@U?$_vector3@M@@@@@std@@YAPEAU?$_vector3@M@@PEAU1@00AEAV?$xalloc@U?$_vector3@M@@@@U_Nonscalar_ptr_iterator_tag@0@@Z ; std::_Uninit_copy<_vector3<float> * __ptr64,_vector3<float> * __ptr64,xalloc<_vector3<float> > >
PUBLIC	??$_Uninitialized_copy@PEAU?$_vector3@M@@PEAU1@V?$xalloc@U?$_vector3@M@@@@@std@@YAPEAU?$_vector3@M@@PEAU1@00AEAV?$xalloc@U?$_vector3@M@@@@@Z ; std::_Uninitialized_copy<_vector3<float> * __ptr64,_vector3<float> * __ptr64,xalloc<_vector3<float> > >
PUBLIC	??$_Ucopy@PEAU?$_vector3@M@@@?$vector@U?$_vector3@M@@V?$xalloc@U?$_vector3@M@@@@@std@@IEAAPEAU?$_vector3@M@@PEAU2@00@Z ; std::vector<_vector3<float>,xalloc<_vector3<float> > >::_Ucopy<_vector3<float> * __ptr64>
PUBLIC	??4?$vector@U?$_vector3@M@@V?$xalloc@U?$_vector3@M@@@@@std@@QEAAAEAV01@AEBV01@@Z ; std::vector<_vector3<float>,xalloc<_vector3<float> > >::operator=
PUBLIC	??4?$xr_vector@U?$_vector3@M@@V?$xalloc@U?$_vector3@M@@@@@@QEAAAEAV0@AEBV0@@Z ; xr_vector<_vector3<float>,xalloc<_vector3<float> > >::operator=
PUBLIC	?capacity@?$vector@VTRI@CDB@@V?$xalloc@VTRI@CDB@@@@@std@@QEBA_KXZ ; std::vector<CDB::TRI,xalloc<CDB::TRI> >::capacity
PUBLIC	?end@?$vector@VTRI@CDB@@V?$xalloc@VTRI@CDB@@@@@std@@QEAA?AV?$_Vector_iterator@V?$_Vector_val@VTRI@CDB@@V?$xalloc@VTRI@CDB@@@@@std@@@2@XZ ; std::vector<CDB::TRI,xalloc<CDB::TRI> >::end
PUBLIC	?_Make_iter@?$vector@VTRI@CDB@@V?$xalloc@VTRI@CDB@@@@@std@@QEBA?AV?$_Vector_iterator@V?$_Vector_val@VTRI@CDB@@V?$xalloc@VTRI@CDB@@@@@std@@@2@V?$_Vector_const_iterator@V?$_Vector_val@VTRI@CDB@@V?$xalloc@VTRI@CDB@@@@@std@@@2@@Z ; std::vector<CDB::TRI,xalloc<CDB::TRI> >::_Make_iter
PUBLIC	?_Compat@?$_Vector_const_iterator@V?$_Vector_val@VTRI@CDB@@V?$xalloc@VTRI@CDB@@@@@std@@@std@@QEBAXAEBV12@@Z ; std::_Vector_const_iterator<std::_Vector_val<CDB::TRI,xalloc<CDB::TRI> > >::_Compat
PUBLIC	??8?$_Vector_const_iterator@V?$_Vector_val@VTRI@CDB@@V?$xalloc@VTRI@CDB@@@@@std@@@std@@QEBA_NAEBV01@@Z ; std::_Vector_const_iterator<std::_Vector_val<CDB::TRI,xalloc<CDB::TRI> > >::operator==
PUBLIC	??9?$_Vector_const_iterator@V?$_Vector_val@VTRI@CDB@@V?$xalloc@VTRI@CDB@@@@@std@@@std@@QEBA_NAEBV01@@Z ; std::_Vector_const_iterator<std::_Vector_val<CDB::TRI,xalloc<CDB::TRI> > >::operator!=
PUBLIC	??$move@AEAVTRI@CDB@@@std@@YA$$QEAVTRI@CDB@@AEAV12@@Z ; std::move<CDB::TRI & __ptr64>
PUBLIC	??$_Move@PEAVTRI@CDB@@PEAV12@@std@@YAPEAVTRI@CDB@@PEAV12@00U_Nonscalar_ptr_iterator_tag@0@@Z ; std::_Move<CDB::TRI * __ptr64,CDB::TRI * __ptr64>
PUBLIC	??$_Move@PEAVTRI@CDB@@PEAV12@@std@@YAPEAVTRI@CDB@@PEAV12@00@Z ; std::_Move<CDB::TRI * __ptr64,CDB::TRI * __ptr64>
PUBLIC	?erase@?$vector@VTRI@CDB@@V?$xalloc@VTRI@CDB@@@@@std@@QEAA?AV?$_Vector_iterator@V?$_Vector_val@VTRI@CDB@@V?$xalloc@VTRI@CDB@@@@@std@@@2@V?$_Vector_const_iterator@V?$_Vector_val@VTRI@CDB@@V?$xalloc@VTRI@CDB@@@@@std@@@2@0@Z ; std::vector<CDB::TRI,xalloc<CDB::TRI> >::erase
PUBLIC	?clear@?$vector@VTRI@CDB@@V?$xalloc@VTRI@CDB@@@@@std@@QEAAXXZ ; std::vector<CDB::TRI,xalloc<CDB::TRI> >::clear
PUBLIC	?allocate@?$xalloc@VTRI@CDB@@@@QEBAPEAVTRI@CDB@@_KPEBX@Z ; xalloc<CDB::TRI>::allocate
PUBLIC	?max_size@?$xalloc@VTRI@CDB@@@@QEBA_KXZ		; xalloc<CDB::TRI>::max_size
PUBLIC	?max_size@?$vector@VTRI@CDB@@V?$xalloc@VTRI@CDB@@@@@std@@QEBA_KXZ ; std::vector<CDB::TRI,xalloc<CDB::TRI> >::max_size
PUBLIC	?_Xlen@?$vector@VTRI@CDB@@V?$xalloc@VTRI@CDB@@@@@std@@IEBAXXZ ; std::vector<CDB::TRI,xalloc<CDB::TRI> >::_Xlen
PUBLIC	?_Buy@?$vector@VTRI@CDB@@V?$xalloc@VTRI@CDB@@@@@std@@IEAA_N_K@Z ; std::vector<CDB::TRI,xalloc<CDB::TRI> >::_Buy
PUBLIC	??$_Copy_impl@PEAVTRI@CDB@@PEAV12@@std@@YAPEAVTRI@CDB@@PEAV12@00U_Nonscalar_ptr_iterator_tag@0@@Z ; std::_Copy_impl<CDB::TRI * __ptr64,CDB::TRI * __ptr64>
PUBLIC	??$_Copy_impl@PEAVTRI@CDB@@PEAV12@@std@@YAPEAVTRI@CDB@@PEAV12@00@Z ; std::_Copy_impl<CDB::TRI * __ptr64,CDB::TRI * __ptr64>
PUBLIC	??$forward@AEBVTRI@CDB@@@std@@YAAEBVTRI@CDB@@AEBV12@@Z ; std::forward<CDB::TRI const & __ptr64>
PUBLIC	??$_Construct@VTRI@CDB@@AEBV12@@std@@YAXPEAVTRI@CDB@@AEBV12@@Z ; std::_Construct<CDB::TRI,CDB::TRI const & __ptr64>
PUBLIC	?construct@?$xalloc@VTRI@CDB@@@@QEAAXPEAVTRI@CDB@@AEBV23@@Z ; xalloc<CDB::TRI>::construct
PUBLIC	??$forward@AEAVTRI@CDB@@@std@@YAAEAVTRI@CDB@@AEAV12@@Z ; std::forward<CDB::TRI & __ptr64>
PUBLIC	??$_Cons_val@V?$xalloc@VTRI@CDB@@@@VTRI@CDB@@AEAV23@@std@@YAXAEAV?$xalloc@VTRI@CDB@@@@PEAVTRI@CDB@@AEAV23@@Z ; std::_Cons_val<xalloc<CDB::TRI>,CDB::TRI,CDB::TRI & __ptr64>
PUBLIC	??$_Uninit_copy@PEAVTRI@CDB@@PEAV12@V?$xalloc@VTRI@CDB@@@@@std@@YAPEAVTRI@CDB@@PEAV12@00AEAV?$xalloc@VTRI@CDB@@@@U_Nonscalar_ptr_iterator_tag@0@@Z ; std::_Uninit_copy<CDB::TRI * __ptr64,CDB::TRI * __ptr64,xalloc<CDB::TRI> >
PUBLIC	??$_Uninitialized_copy@PEAVTRI@CDB@@PEAV12@V?$xalloc@VTRI@CDB@@@@@std@@YAPEAVTRI@CDB@@PEAV12@00AEAV?$xalloc@VTRI@CDB@@@@@Z ; std::_Uninitialized_copy<CDB::TRI * __ptr64,CDB::TRI * __ptr64,xalloc<CDB::TRI> >
PUBLIC	??$_Ucopy@PEAVTRI@CDB@@@?$vector@VTRI@CDB@@V?$xalloc@VTRI@CDB@@@@@std@@IEAAPEAVTRI@CDB@@PEAV23@00@Z ; std::vector<CDB::TRI,xalloc<CDB::TRI> >::_Ucopy<CDB::TRI * __ptr64>
PUBLIC	??4?$vector@VTRI@CDB@@V?$xalloc@VTRI@CDB@@@@@std@@QEAAAEAV01@AEBV01@@Z ; std::vector<CDB::TRI,xalloc<CDB::TRI> >::operator=
PUBLIC	??4?$xr_vector@VTRI@CDB@@V?$xalloc@VTRI@CDB@@@@@@QEAAAEAV0@AEBV0@@Z ; xr_vector<CDB::TRI,xalloc<CDB::TRI> >::operator=
PUBLIC	??0?$_Vector_const_iterator@V?$_Vector_val@U?$_vector3@M@@V?$xalloc@U?$_vector3@M@@@@@std@@@std@@QEAA@PEAU?$_vector3@M@@PEBU_Container_base0@1@@Z ; std::_Vector_const_iterator<std::_Vector_val<_vector3<float>,xalloc<_vector3<float> > > >::_Vector_const_iterator<std::_Vector_val<_vector3<float>,xalloc<_vector3<float> > > >
PUBLIC	??0?$_Vector_iterator@V?$_Vector_val@U?$_vector3@M@@V?$xalloc@U?$_vector3@M@@@@@std@@@std@@QEAA@PEAU?$_vector3@M@@PEBU_Container_base0@1@@Z ; std::_Vector_iterator<std::_Vector_val<_vector3<float>,xalloc<_vector3<float> > > >::_Vector_iterator<std::_Vector_val<_vector3<float>,xalloc<_vector3<float> > > >
PUBLIC	?begin@?$vector@U?$_vector3@M@@V?$xalloc@U?$_vector3@M@@@@@std@@QEAA?AV?$_Vector_iterator@V?$_Vector_val@U?$_vector3@M@@V?$xalloc@U?$_vector3@M@@@@@std@@@2@XZ ; std::vector<_vector3<float>,xalloc<_vector3<float> > >::begin
PUBLIC	??D?$_Vector_const_iterator@V?$_Vector_val@U?$_vector3@M@@V?$xalloc@U?$_vector3@M@@@@@std@@@std@@QEBAAEBU?$_vector3@M@@XZ ; std::_Vector_const_iterator<std::_Vector_val<_vector3<float>,xalloc<_vector3<float> > > >::operator*
PUBLIC	??D?$_Vector_iterator@V?$_Vector_val@U?$_vector3@M@@V?$xalloc@U?$_vector3@M@@@@@std@@@std@@QEBAAEAU?$_vector3@M@@XZ ; std::_Vector_iterator<std::_Vector_val<_vector3<float>,xalloc<_vector3<float> > > >::operator*
PUBLIC	?size@?$vector@U?$_vector3@M@@V?$xalloc@U?$_vector3@M@@@@@std@@QEBA_KXZ ; std::vector<_vector3<float>,xalloc<_vector3<float> > >::size
PUBLIC	?size@?$xr_vector@U?$_vector3@M@@V?$xalloc@U?$_vector3@M@@@@@@QEBAIXZ ; xr_vector<_vector3<float>,xalloc<_vector3<float> > >::size
PUBLIC	??0?$_Vector_const_iterator@V?$_Vector_val@VTRI@CDB@@V?$xalloc@VTRI@CDB@@@@@std@@@std@@QEAA@PEAVTRI@CDB@@PEBU_Container_base0@1@@Z ; std::_Vector_const_iterator<std::_Vector_val<CDB::TRI,xalloc<CDB::TRI> > >::_Vector_const_iterator<std::_Vector_val<CDB::TRI,xalloc<CDB::TRI> > >
PUBLIC	??0?$_Vector_iterator@V?$_Vector_val@VTRI@CDB@@V?$xalloc@VTRI@CDB@@@@@std@@@std@@QEAA@PEAVTRI@CDB@@PEBU_Container_base0@1@@Z ; std::_Vector_iterator<std::_Vector_val<CDB::TRI,xalloc<CDB::TRI> > >::_Vector_iterator<std::_Vector_val<CDB::TRI,xalloc<CDB::TRI> > >
PUBLIC	?begin@?$vector@VTRI@CDB@@V?$xalloc@VTRI@CDB@@@@@std@@QEAA?AV?$_Vector_iterator@V?$_Vector_val@VTRI@CDB@@V?$xalloc@VTRI@CDB@@@@@std@@@2@XZ ; std::vector<CDB::TRI,xalloc<CDB::TRI> >::begin
PUBLIC	??D?$_Vector_const_iterator@V?$_Vector_val@VTRI@CDB@@V?$xalloc@VTRI@CDB@@@@@std@@@std@@QEBAAEBVTRI@CDB@@XZ ; std::_Vector_const_iterator<std::_Vector_val<CDB::TRI,xalloc<CDB::TRI> > >::operator*
PUBLIC	??D?$_Vector_iterator@V?$_Vector_val@VTRI@CDB@@V?$xalloc@VTRI@CDB@@@@@std@@@std@@QEBAAEAVTRI@CDB@@XZ ; std::_Vector_iterator<std::_Vector_val<CDB::TRI,xalloc<CDB::TRI> > >::operator*
PUBLIC	?size@?$vector@VTRI@CDB@@V?$xalloc@VTRI@CDB@@@@@std@@QEBA_KXZ ; std::vector<CDB::TRI,xalloc<CDB::TRI> >::size
PUBLIC	?size@?$xr_vector@VTRI@CDB@@V?$xalloc@VTRI@CDB@@@@@@QEBAIXZ ; xr_vector<CDB::TRI,xalloc<CDB::TRI> >::size
PUBLIC	??1?$_Vector_val@U?$_vector3@M@@V?$xalloc@U?$_vector3@M@@@@@std@@QEAA@XZ ; std::_Vector_val<_vector3<float>,xalloc<_vector3<float> > >::~_Vector_val<_vector3<float>,xalloc<_vector3<float> > >
PUBLIC	?deallocate@?$xalloc@U?$_vector3@M@@@@QEBAXPEAU?$_vector3@M@@_K@Z ; xalloc<_vector3<float> >::deallocate
PUBLIC	??$_Ptr_cat@U?$_vector3@M@@U1@@std@@YA?AU_Nonscalar_ptr_iterator_tag@0@PEAU?$_vector3@M@@0@Z ; std::_Ptr_cat<_vector3<float>,_vector3<float> >
PUBLIC	??$_Destroy@U?$_vector3@M@@@std@@YAXPEAU?$_vector3@M@@@Z ; std::_Destroy<_vector3<float> >
PUBLIC	?destroy@?$xalloc@U?$_vector3@M@@@@QEAAXPEAU?$_vector3@M@@@Z ; xalloc<_vector3<float> >::destroy
PUBLIC	??$_Dest_val@V?$xalloc@U?$_vector3@M@@@@U?$_vector3@M@@@std@@YAXAEAV?$xalloc@U?$_vector3@M@@@@PEAU?$_vector3@M@@@Z ; std::_Dest_val<xalloc<_vector3<float> >,_vector3<float> >
PUBLIC	??$_Destroy_range@V?$xalloc@U?$_vector3@M@@@@@std@@YAXPEAU?$_vector3@M@@0AEAV?$xalloc@U?$_vector3@M@@@@U_Nonscalar_ptr_iterator_tag@0@@Z ; std::_Destroy_range<xalloc<_vector3<float> > >
PUBLIC	??$_Destroy_range@V?$xalloc@U?$_vector3@M@@@@@std@@YAXPEAU?$_vector3@M@@0AEAV?$xalloc@U?$_vector3@M@@@@@Z ; std::_Destroy_range<xalloc<_vector3<float> > >
PUBLIC	?_Destroy@?$vector@U?$_vector3@M@@V?$xalloc@U?$_vector3@M@@@@@std@@IEAAXPEAU?$_vector3@M@@0@Z ; std::vector<_vector3<float>,xalloc<_vector3<float> > >::_Destroy
PUBLIC	?_Tidy@?$vector@U?$_vector3@M@@V?$xalloc@U?$_vector3@M@@@@@std@@IEAAXXZ ; std::vector<_vector3<float>,xalloc<_vector3<float> > >::_Tidy
PUBLIC	??1?$vector@U?$_vector3@M@@V?$xalloc@U?$_vector3@M@@@@@std@@QEAA@XZ ; std::vector<_vector3<float>,xalloc<_vector3<float> > >::~vector<_vector3<float>,xalloc<_vector3<float> > >
PUBLIC	??1?$xr_vector@U?$_vector3@M@@V?$xalloc@U?$_vector3@M@@@@@@QEAA@XZ ; xr_vector<_vector3<float>,xalloc<_vector3<float> > >::~xr_vector<_vector3<float>,xalloc<_vector3<float> > >
PUBLIC	??1?$_Vector_val@IV?$xalloc@I@@@std@@QEAA@XZ	; std::_Vector_val<unsigned int,xalloc<unsigned int> >::~_Vector_val<unsigned int,xalloc<unsigned int> >
PUBLIC	?deallocate@?$xalloc@I@@QEBAXPEAI_K@Z		; xalloc<unsigned int>::deallocate
PUBLIC	??$_Ptr_cat@II@std@@YA?AU_Scalar_ptr_iterator_tag@0@PEAI0@Z ; std::_Ptr_cat<unsigned int,unsigned int>
PUBLIC	??$_Destroy_range@V?$xalloc@I@@@std@@YAXPEAI0AEAV?$xalloc@I@@U_Scalar_ptr_iterator_tag@0@@Z ; std::_Destroy_range<xalloc<unsigned int> >
PUBLIC	??$_Destroy_range@V?$xalloc@I@@@std@@YAXPEAI0AEAV?$xalloc@I@@@Z ; std::_Destroy_range<xalloc<unsigned int> >
PUBLIC	?_Destroy@?$vector@IV?$xalloc@I@@@std@@IEAAXPEAI0@Z ; std::vector<unsigned int,xalloc<unsigned int> >::_Destroy
PUBLIC	?_Tidy@?$vector@IV?$xalloc@I@@@std@@IEAAXXZ	; std::vector<unsigned int,xalloc<unsigned int> >::_Tidy
PUBLIC	??1?$vector@IV?$xalloc@I@@@std@@QEAA@XZ		; std::vector<unsigned int,xalloc<unsigned int> >::~vector<unsigned int,xalloc<unsigned int> >
PUBLIC	??1?$xr_vector@IV?$xalloc@I@@@@QEAA@XZ		; xr_vector<unsigned int,xalloc<unsigned int> >::~xr_vector<unsigned int,xalloc<unsigned int> >
PUBLIC	??1?$_Vector_val@VTRI@CDB@@V?$xalloc@VTRI@CDB@@@@@std@@QEAA@XZ ; std::_Vector_val<CDB::TRI,xalloc<CDB::TRI> >::~_Vector_val<CDB::TRI,xalloc<CDB::TRI> >
PUBLIC	?deallocate@?$xalloc@VTRI@CDB@@@@QEBAXPEAVTRI@CDB@@_K@Z ; xalloc<CDB::TRI>::deallocate
PUBLIC	??$_Ptr_cat@VTRI@CDB@@V12@@std@@YA?AU_Nonscalar_ptr_iterator_tag@0@PEAVTRI@CDB@@0@Z ; std::_Ptr_cat<CDB::TRI,CDB::TRI>
PUBLIC	??$_Destroy@VTRI@CDB@@@std@@YAXPEAVTRI@CDB@@@Z	; std::_Destroy<CDB::TRI>
PUBLIC	?destroy@?$xalloc@VTRI@CDB@@@@QEAAXPEAVTRI@CDB@@@Z ; xalloc<CDB::TRI>::destroy
PUBLIC	??$_Dest_val@V?$xalloc@VTRI@CDB@@@@VTRI@CDB@@@std@@YAXAEAV?$xalloc@VTRI@CDB@@@@PEAVTRI@CDB@@@Z ; std::_Dest_val<xalloc<CDB::TRI>,CDB::TRI>
PUBLIC	??$_Destroy_range@V?$xalloc@VTRI@CDB@@@@@std@@YAXPEAVTRI@CDB@@0AEAV?$xalloc@VTRI@CDB@@@@U_Nonscalar_ptr_iterator_tag@0@@Z ; std::_Destroy_range<xalloc<CDB::TRI> >
PUBLIC	??$_Destroy_range@V?$xalloc@VTRI@CDB@@@@@std@@YAXPEAVTRI@CDB@@0AEAV?$xalloc@VTRI@CDB@@@@@Z ; std::_Destroy_range<xalloc<CDB::TRI> >
PUBLIC	?_Destroy@?$vector@VTRI@CDB@@V?$xalloc@VTRI@CDB@@@@@std@@IEAAXPEAVTRI@CDB@@0@Z ; std::vector<CDB::TRI,xalloc<CDB::TRI> >::_Destroy
PUBLIC	?_Tidy@?$vector@VTRI@CDB@@V?$xalloc@VTRI@CDB@@@@@std@@IEAAXXZ ; std::vector<CDB::TRI,xalloc<CDB::TRI> >::_Tidy
PUBLIC	??1?$vector@VTRI@CDB@@V?$xalloc@VTRI@CDB@@@@@std@@QEAA@XZ ; std::vector<CDB::TRI,xalloc<CDB::TRI> >::~vector<CDB::TRI,xalloc<CDB::TRI> >
PUBLIC	??1?$xr_vector@VTRI@CDB@@V?$xalloc@VTRI@CDB@@@@@@QEAA@XZ ; xr_vector<CDB::TRI,xalloc<CDB::TRI> >::~xr_vector<CDB::TRI,xalloc<CDB::TRI> >
PUBLIC	??_GOPCODE_Model@Opcode@@QEAAPEAXI@Z		; Opcode::OPCODE_Model::`scalar deleting destructor'
PUBLIC	??R?$xr_special_free@$0A@VOPCODE_Model@Opcode@@@@QEAAXAEAPEAVOPCODE_Model@Opcode@@@Z ; xr_special_free<0,Opcode::OPCODE_Model>::operator()
PUBLIC	??$xr_delete@VOPCODE_Model@Opcode@@@@YAXAEAPEAVOPCODE_Model@Opcode@@@Z ; xr_delete<Opcode::OPCODE_Model>
PUBLIC	?strstr@@YAPEADPEADPEBD@Z			; strstr
PUBLIC	??$xr_free@I@@YAXAEAPEAI@Z			; xr_free<unsigned int>
PUBLIC	??$xr_free@VTRI@CDB@@@@YAXAEAPEAVTRI@CDB@@@Z	; xr_free<CDB::TRI>
PUBLIC	??$xr_free@U?$_vector3@M@@@@YAXAEAPEAU?$_vector3@M@@@Z ; xr_free<_vector3<float> >
PUBLIC	??$xr_alloc@U?$_vector3@M@@@@YAPEAU?$_vector3@M@@I@Z ; xr_alloc<_vector3<float> >
PUBLIC	??$xr_alloc@VTRI@CDB@@@@YAPEAVTRI@CDB@@I@Z	; xr_alloc<CDB::TRI>
PUBLIC	??$xr_alloc@I@@YAPEAII@Z			; xr_alloc<unsigned int>
PUBLIC	??$xr_new@VOPCODE_Model@Opcode@@@@YAPEAVOPCODE_Model@Opcode@@XZ ; xr_new<Opcode::OPCODE_Model>
PUBLIC	?GetUsedBytes@OPCODE_Model@Opcode@@QEBAIXZ	; Opcode::OPCODE_Model::GetUsedBytes
PUBLIC	??0?$xalloc@URESULT@CDB@@@@QEAA@XZ		; xalloc<CDB::RESULT>::xalloc<CDB::RESULT>
PUBLIC	??0?$xalloc@URESULT@CDB@@@@QEAA@AEBV0@@Z	; xalloc<CDB::RESULT>::xalloc<CDB::RESULT>
PUBLIC	??0?$_Vector_val@URESULT@CDB@@V?$xalloc@URESULT@CDB@@@@@std@@QEAA@V?$xalloc@URESULT@CDB@@@@@Z ; std::_Vector_val<CDB::RESULT,xalloc<CDB::RESULT> >::_Vector_val<CDB::RESULT,xalloc<CDB::RESULT> >
PUBLIC	??0?$vector@URESULT@CDB@@V?$xalloc@URESULT@CDB@@@@@std@@QEAA@XZ ; std::vector<CDB::RESULT,xalloc<CDB::RESULT> >::vector<CDB::RESULT,xalloc<CDB::RESULT> >
PUBLIC	??0?$xr_vector@URESULT@CDB@@V?$xalloc@URESULT@CDB@@@@@@QEAA@XZ ; xr_vector<CDB::RESULT,xalloc<CDB::RESULT> >::xr_vector<CDB::RESULT,xalloc<CDB::RESULT> >
PUBLIC	??1?$_Vector_val@URESULT@CDB@@V?$xalloc@URESULT@CDB@@@@@std@@QEAA@XZ ; std::_Vector_val<CDB::RESULT,xalloc<CDB::RESULT> >::~_Vector_val<CDB::RESULT,xalloc<CDB::RESULT> >
PUBLIC	?_Tidy@?$vector@URESULT@CDB@@V?$xalloc@URESULT@CDB@@@@@std@@IEAAXXZ ; std::vector<CDB::RESULT,xalloc<CDB::RESULT> >::_Tidy
PUBLIC	??1?$vector@URESULT@CDB@@V?$xalloc@URESULT@CDB@@@@@std@@QEAA@XZ ; std::vector<CDB::RESULT,xalloc<CDB::RESULT> >::~vector<CDB::RESULT,xalloc<CDB::RESULT> >
PUBLIC	??1?$xr_vector@URESULT@CDB@@V?$xalloc@URESULT@CDB@@@@@@QEAA@XZ ; xr_vector<CDB::RESULT,xalloc<CDB::RESULT> >::~xr_vector<CDB::RESULT,xalloc<CDB::RESULT> >
PUBLIC	?_Inside@?$vector@URESULT@CDB@@V?$xalloc@URESULT@CDB@@@@@std@@IEBA_NPEBURESULT@CDB@@@Z ; std::vector<CDB::RESULT,xalloc<CDB::RESULT> >::_Inside
PUBLIC	??$xr_alloc@URESULT@CDB@@@@YAPEAURESULT@CDB@@I@Z ; xr_alloc<CDB::RESULT>
PUBLIC	?allocate@?$xalloc@URESULT@CDB@@@@QEBAPEAURESULT@CDB@@_KPEBX@Z ; xalloc<CDB::RESULT>::allocate
PUBLIC	??$xr_free@URESULT@CDB@@@@YAXAEAPEAURESULT@CDB@@@Z ; xr_free<CDB::RESULT>
PUBLIC	?deallocate@?$xalloc@URESULT@CDB@@@@QEBAXPEAURESULT@CDB@@_K@Z ; xalloc<CDB::RESULT>::deallocate
PUBLIC	??$_Val_type@PEAURESULT@CDB@@@std@@YAPEAURESULT@CDB@@PEAU12@@Z ; std::_Val_type<CDB::RESULT * __ptr64>
PUBLIC	??$_Uninit_move@PEAURESULT@CDB@@PEAU12@V?$xalloc@URESULT@CDB@@@@U12@@std@@YAPEAURESULT@CDB@@PEAU12@00AEAV?$xalloc@URESULT@CDB@@@@0U_Nonscalar_ptr_iterator_tag@0@@Z ; std::_Uninit_move<CDB::RESULT * __ptr64,CDB::RESULT * __ptr64,xalloc<CDB::RESULT>,CDB::RESULT>
PUBLIC	??$_Uninitialized_move@PEAURESULT@CDB@@PEAU12@V?$xalloc@URESULT@CDB@@@@@std@@YAPEAURESULT@CDB@@PEAU12@00AEAV?$xalloc@URESULT@CDB@@@@@Z ; std::_Uninitialized_move<CDB::RESULT * __ptr64,CDB::RESULT * __ptr64,xalloc<CDB::RESULT> >
PUBLIC	??$_Umove@PEAURESULT@CDB@@@?$vector@URESULT@CDB@@V?$xalloc@URESULT@CDB@@@@@std@@IEAAPEAURESULT@CDB@@PEAU23@00@Z ; std::vector<CDB::RESULT,xalloc<CDB::RESULT> >::_Umove<CDB::RESULT * __ptr64>
PUBLIC	?reserve@?$vector@URESULT@CDB@@V?$xalloc@URESULT@CDB@@@@@std@@QEAAX_K@Z ; std::vector<CDB::RESULT,xalloc<CDB::RESULT> >::reserve
PUBLIC	?size@?$vector@URESULT@CDB@@V?$xalloc@URESULT@CDB@@@@@std@@QEBA_KXZ ; std::vector<CDB::RESULT,xalloc<CDB::RESULT> >::size
PUBLIC	?capacity@?$vector@URESULT@CDB@@V?$xalloc@URESULT@CDB@@@@@std@@QEBA_KXZ ; std::vector<CDB::RESULT,xalloc<CDB::RESULT> >::capacity
PUBLIC	?max_size@?$xalloc@URESULT@CDB@@@@QEBA_KXZ	; xalloc<CDB::RESULT>::max_size
PUBLIC	?max_size@?$vector@URESULT@CDB@@V?$xalloc@URESULT@CDB@@@@@std@@QEBA_KXZ ; std::vector<CDB::RESULT,xalloc<CDB::RESULT> >::max_size
PUBLIC	?_Grow_to@?$vector@URESULT@CDB@@V?$xalloc@URESULT@CDB@@@@@std@@IEBA_K_K@Z ; std::vector<CDB::RESULT,xalloc<CDB::RESULT> >::_Grow_to
PUBLIC	?_Xlen@?$vector@URESULT@CDB@@V?$xalloc@URESULT@CDB@@@@@std@@IEBAXXZ ; std::vector<CDB::RESULT,xalloc<CDB::RESULT> >::_Xlen
PUBLIC	?_Reserve@?$vector@URESULT@CDB@@V?$xalloc@URESULT@CDB@@@@@std@@IEAAX_K@Z ; std::vector<CDB::RESULT,xalloc<CDB::RESULT> >::_Reserve
PUBLIC	?_Orphan_range@?$vector@URESULT@CDB@@V?$xalloc@URESULT@CDB@@@@@std@@IEBAXPEAURESULT@CDB@@0@Z ; std::vector<CDB::RESULT,xalloc<CDB::RESULT> >::_Orphan_range
PUBLIC	??$addressof@URESULT@CDB@@@std@@YAPEAURESULT@CDB@@AEAU12@@Z ; std::addressof<CDB::RESULT>
PUBLIC	??2@YAPEAX_KPEAX@Z				; operator new
PUBLIC	??$forward@AEBURESULT@CDB@@@std@@YAAEBURESULT@CDB@@AEBU12@@Z ; std::forward<CDB::RESULT const & __ptr64>
PUBLIC	??$_Construct@URESULT@CDB@@AEBU12@@std@@YAXPEAURESULT@CDB@@AEBU12@@Z ; std::_Construct<CDB::RESULT,CDB::RESULT const & __ptr64>
PUBLIC	?construct@?$xalloc@URESULT@CDB@@@@QEAAXPEAURESULT@CDB@@AEBU23@@Z ; xalloc<CDB::RESULT>::construct
PUBLIC	??$forward@URESULT@CDB@@@std@@YA$$QEAURESULT@CDB@@AEAU12@@Z ; std::forward<CDB::RESULT>
PUBLIC	??$_Cons_val@V?$xalloc@URESULT@CDB@@@@URESULT@CDB@@U23@@std@@YAXAEAV?$xalloc@URESULT@CDB@@@@PEAURESULT@CDB@@$$QEAU23@@Z ; std::_Cons_val<xalloc<CDB::RESULT>,CDB::RESULT,CDB::RESULT>
PUBLIC	?push_back@?$vector@URESULT@CDB@@V?$xalloc@URESULT@CDB@@@@@std@@QEAAX$$QEAURESULT@CDB@@@Z ; std::vector<CDB::RESULT,xalloc<CDB::RESULT> >::push_back
PUBLIC	??D?$_Vector_const_iterator@V?$_Vector_val@URESULT@CDB@@V?$xalloc@URESULT@CDB@@@@@std@@@std@@QEBAAEBURESULT@CDB@@XZ ; std::_Vector_const_iterator<std::_Vector_val<CDB::RESULT,xalloc<CDB::RESULT> > >::operator*
PUBLIC	??D?$_Vector_iterator@V?$_Vector_val@URESULT@CDB@@V?$xalloc@URESULT@CDB@@@@@std@@@std@@QEBAAEAURESULT@CDB@@XZ ; std::_Vector_iterator<std::_Vector_val<CDB::RESULT,xalloc<CDB::RESULT> > >::operator*
PUBLIC	??Y?$_Vector_const_iterator@V?$_Vector_val@URESULT@CDB@@V?$xalloc@URESULT@CDB@@@@@std@@@std@@QEAAAEAV01@_J@Z ; std::_Vector_const_iterator<std::_Vector_val<CDB::RESULT,xalloc<CDB::RESULT> > >::operator+=
PUBLIC	??Y?$_Vector_iterator@V?$_Vector_val@URESULT@CDB@@V?$xalloc@URESULT@CDB@@@@@std@@@std@@QEAAAEAV01@_J@Z ; std::_Vector_iterator<std::_Vector_val<CDB::RESULT,xalloc<CDB::RESULT> > >::operator+=
PUBLIC	??Z?$_Vector_iterator@V?$_Vector_val@URESULT@CDB@@V?$xalloc@URESULT@CDB@@@@@std@@@std@@QEAAAEAV01@_J@Z ; std::_Vector_iterator<std::_Vector_val<CDB::RESULT,xalloc<CDB::RESULT> > >::operator-=
PUBLIC	??G?$_Vector_iterator@V?$_Vector_val@URESULT@CDB@@V?$xalloc@URESULT@CDB@@@@@std@@@std@@QEBA?AV01@_J@Z ; std::_Vector_iterator<std::_Vector_val<CDB::RESULT,xalloc<CDB::RESULT> > >::operator-
PUBLIC	?back@?$vector@URESULT@CDB@@V?$xalloc@URESULT@CDB@@@@@std@@QEAAAEAURESULT@CDB@@XZ ; std::vector<CDB::RESULT,xalloc<CDB::RESULT> >::back
PUBLIC	?begin@?$vector@URESULT@CDB@@V?$xalloc@URESULT@CDB@@@@@std@@QEAA?AV?$_Vector_iterator@V?$_Vector_val@URESULT@CDB@@V?$xalloc@URESULT@CDB@@@@@std@@@2@XZ ; std::vector<CDB::RESULT,xalloc<CDB::RESULT> >::begin
PUBLIC	?end@?$vector@URESULT@CDB@@V?$xalloc@URESULT@CDB@@@@@std@@QEAA?AV?$_Vector_iterator@V?$_Vector_val@URESULT@CDB@@V?$xalloc@URESULT@CDB@@@@@std@@@2@XZ ; std::vector<CDB::RESULT,xalloc<CDB::RESULT> >::end
PUBLIC	?_Adopt@_Iterator_base0@std@@QEAAXPEBX@Z	; std::_Iterator_base0::_Adopt
PUBLIC	??0?$_Vector_const_iterator@V?$_Vector_val@URESULT@CDB@@V?$xalloc@URESULT@CDB@@@@@std@@@std@@QEAA@PEAURESULT@CDB@@PEBU_Container_base0@1@@Z ; std::_Vector_const_iterator<std::_Vector_val<CDB::RESULT,xalloc<CDB::RESULT> > >::_Vector_const_iterator<std::_Vector_val<CDB::RESULT,xalloc<CDB::RESULT> > >
PUBLIC	??0?$_Vector_iterator@V?$_Vector_val@URESULT@CDB@@V?$xalloc@URESULT@CDB@@@@@std@@@std@@QEAA@PEAURESULT@CDB@@PEBU_Container_base0@1@@Z ; std::_Vector_iterator<std::_Vector_val<CDB::RESULT,xalloc<CDB::RESULT> > >::_Vector_iterator<std::_Vector_val<CDB::RESULT,xalloc<CDB::RESULT> > >
PUBLIC	?_Make_iter@?$vector@URESULT@CDB@@V?$xalloc@URESULT@CDB@@@@@std@@QEBA?AV?$_Vector_iterator@V?$_Vector_val@URESULT@CDB@@V?$xalloc@URESULT@CDB@@@@@std@@@2@V?$_Vector_const_iterator@V?$_Vector_val@URESULT@CDB@@V?$xalloc@URESULT@CDB@@@@@std@@@2@@Z ; std::vector<CDB::RESULT,xalloc<CDB::RESULT> >::_Make_iter
PUBLIC	??$_Destroy@URESULT@CDB@@@std@@YAXPEAURESULT@CDB@@@Z ; std::_Destroy<CDB::RESULT>
PUBLIC	?destroy@?$xalloc@URESULT@CDB@@@@QEAAXPEAURESULT@CDB@@@Z ; xalloc<CDB::RESULT>::destroy
PUBLIC	??$_Dest_val@V?$xalloc@URESULT@CDB@@@@URESULT@CDB@@@std@@YAXAEAV?$xalloc@URESULT@CDB@@@@PEAURESULT@CDB@@@Z ; std::_Dest_val<xalloc<CDB::RESULT>,CDB::RESULT>
PUBLIC	??$_Destroy_range@V?$xalloc@URESULT@CDB@@@@@std@@YAXPEAURESULT@CDB@@0AEAV?$xalloc@URESULT@CDB@@@@U_Nonscalar_ptr_iterator_tag@0@@Z ; std::_Destroy_range<xalloc<CDB::RESULT> >
PUBLIC	??$_Destroy_range@V?$xalloc@URESULT@CDB@@@@@std@@YAXPEAURESULT@CDB@@0AEAV?$xalloc@URESULT@CDB@@@@@Z ; std::_Destroy_range<xalloc<CDB::RESULT> >
PUBLIC	?_Destroy@?$vector@URESULT@CDB@@V?$xalloc@URESULT@CDB@@@@@std@@IEAAXPEAURESULT@CDB@@0@Z ; std::vector<CDB::RESULT,xalloc<CDB::RESULT> >::_Destroy
PUBLIC	?_Compat@?$_Vector_const_iterator@V?$_Vector_val@URESULT@CDB@@V?$xalloc@URESULT@CDB@@@@@std@@@std@@QEBAXAEBV12@@Z ; std::_Vector_const_iterator<std::_Vector_val<CDB::RESULT,xalloc<CDB::RESULT> > >::_Compat
PUBLIC	??8?$_Vector_const_iterator@V?$_Vector_val@URESULT@CDB@@V?$xalloc@URESULT@CDB@@@@@std@@@std@@QEBA_NAEBV01@@Z ; std::_Vector_const_iterator<std::_Vector_val<CDB::RESULT,xalloc<CDB::RESULT> > >::operator==
PUBLIC	??9?$_Vector_const_iterator@V?$_Vector_val@URESULT@CDB@@V?$xalloc@URESULT@CDB@@@@@std@@@std@@QEBA_NAEBV01@@Z ; std::_Vector_const_iterator<std::_Vector_val<CDB::RESULT,xalloc<CDB::RESULT> > >::operator!=
PUBLIC	??$_Ptr_cat@URESULT@CDB@@U12@@std@@YA?AU_Nonscalar_ptr_iterator_tag@0@PEAURESULT@CDB@@0@Z ; std::_Ptr_cat<CDB::RESULT,CDB::RESULT>
PUBLIC	??$move@AEAURESULT@CDB@@@std@@YA$$QEAURESULT@CDB@@AEAU12@@Z ; std::move<CDB::RESULT & __ptr64>
PUBLIC	??$_Move@PEAURESULT@CDB@@PEAU12@@std@@YAPEAURESULT@CDB@@PEAU12@00U_Nonscalar_ptr_iterator_tag@0@@Z ; std::_Move<CDB::RESULT * __ptr64,CDB::RESULT * __ptr64>
PUBLIC	??$_Move@PEAURESULT@CDB@@PEAU12@@std@@YAPEAURESULT@CDB@@PEAU12@00@Z ; std::_Move<CDB::RESULT * __ptr64,CDB::RESULT * __ptr64>
PUBLIC	?erase@?$vector@URESULT@CDB@@V?$xalloc@URESULT@CDB@@@@@std@@QEAA?AV?$_Vector_iterator@V?$_Vector_val@URESULT@CDB@@V?$xalloc@URESULT@CDB@@@@@std@@@2@V?$_Vector_const_iterator@V?$_Vector_val@URESULT@CDB@@V?$xalloc@URESULT@CDB@@@@@std@@@2@0@Z ; std::vector<CDB::RESULT,xalloc<CDB::RESULT> >::erase
PUBLIC	?clear@?$vector@URESULT@CDB@@V?$xalloc@URESULT@CDB@@@@@std@@QEAAXXZ ; std::vector<CDB::RESULT,xalloc<CDB::RESULT> >::clear
PUBLIC	?clear_and_free@?$xr_vector@URESULT@CDB@@V?$xalloc@URESULT@CDB@@@@@@QEAAXXZ ; xr_vector<CDB::RESULT,xalloc<CDB::RESULT> >::clear_and_free
PUBLIC	??_C@_0CC@CPNHACKD@?$CB?5WARNING?3?5syncronized?5CDB?3?3quer@ ; `string'
PUBLIC	??_C@_0BC@GJKGJBBN@CDB?3?3MODEL?3?3build?$AA@	; `string'
PUBLIC	??_C@_09FONEFOJL@xrCDB?4cpp?$AA@		; `string'
PUBLIC	??_C@_0BB@DMGNJNBH@S_INIT?5?$DN?$DN?5status?$AA@ ; `string'
PUBLIC	??_C@_0BF@JLEIHKIA@?$CIVcnt?$DO?$DN4?$CJ?$CG?$CG?$CITcnt?$DO?$DN2?$CJ?$AA@ ; `string'
PUBLIC	??_C@_07JLJFPMN@?9mt_cdb?$AA@			; `string'
PUBLIC	??_C@_0BB@KNMADMJC@CDB?9construction?$AA@	; `string'
PUBLIC	??_C@_0CB@NBDEDBNA@?$CB?5xrCDB?3?5model?5still?5isn?8t?5ready@ ; `string'
PUBLIC	??_C@_0BD@OLBABOEK@vector?$DMT?$DO?5too?5long?$AA@ ; `string'
EXTRN	__imp_??0xrCriticalSection@@QEAA@XZ:PROC
EXTRN	__imp_??1xrCriticalSection@@QEAA@XZ:PROC
EXTRN	__imp_?m64r@FPU@@YAXXZ:PROC
EXTRN	__imp_?Enter@xrCriticalSection@@QEAAXXZ:PROC
EXTRN	__imp_?Leave@xrCriticalSection@@QEAAXXZ:PROC
EXTRN	__imp_strstr:PROC
EXTRN	__imp_Sleep:PROC
EXTRN	__imp_?fail@xrDebug@@QEAAXPEBD0H0AEA_N@Z:PROC
EXTRN	__imp_?Debug@@3VxrDebug@@A:BYTE
EXTRN	__imp_?_initialize_cpu_thread@@YAXXZ:PROC
EXTRN	__imp_?thread_spawn@@YAXP6AXPEAX@ZPEBDI0@Z:PROC
EXTRN	__imp_?Core@@3VxrCore@@A:BYTE
EXTRN	__imp_?Msg@@YAXPEBDZZ:PROC
EXTRN	__imp_?_Orphan_all@_Container_base0@std@@QEAAXXZ:PROC
EXTRN	__imp_?_Xlength_error@std@@YAXPEBD@Z:PROC
;	COMDAT ?ignore_always@?3??build@MODEL@CDB@@QEAAXPEAU?$_vector3@M@@HPEAVTRI@3@HP6AX0H1HPEAX@Z2@Z@4_NA
_BSS	SEGMENT
?ignore_always@?3??build@MODEL@CDB@@QEAAXPEAU?$_vector3@M@@HPEAVTRI@3@HP6AX0H1HPEAX@Z2@Z@4_NA DB 01H DUP (?) ; `CDB::MODEL::build'::`4'::ignore_always
_BSS	ENDS
;	COMDAT ?ignore_always@?7??build@MODEL@CDB@@QEAAXPEAU?$_vector3@M@@HPEAVTRI@3@HP6AX0H1HPEAX@Z2@Z@4_NA
_BSS	SEGMENT
?ignore_always@?7??build@MODEL@CDB@@QEAAXPEAU?$_vector3@M@@HPEAVTRI@3@HP6AX0H1HPEAX@Z2@Z@4_NA DB 01H DUP (?) ; `CDB::MODEL::build'::`8'::ignore_always
;	COMDAT ??_C@_0BD@OLBABOEK@vector?$DMT?$DO?5too?5long?$AA@
CONST	SEGMENT
??_C@_0BD@OLBABOEK@vector?$DMT?$DO?5too?5long?$AA@ DB 'vector<T> too long'
	DB	00H						; `string'
CONST	ENDS
;	COMDAT ??_C@_0CB@NBDEDBNA@?$CB?5xrCDB?3?5model?5still?5isn?8t?5ready@
CONST	SEGMENT
??_C@_0CB@NBDEDBNA@?$CB?5xrCDB?3?5model?5still?5isn?8t?5ready@ DB '! xrCD'
	DB	'B: model still isn''t ready', 00H		; `string'
CONST	ENDS
;	COMDAT ??_C@_0BB@KNMADMJC@CDB?9construction?$AA@
CONST	SEGMENT
??_C@_0BB@KNMADMJC@CDB?9construction?$AA@ DB 'CDB-construction', 00H ; `string'
CONST	ENDS
;	COMDAT ??_C@_07JLJFPMN@?9mt_cdb?$AA@
CONST	SEGMENT
??_C@_07JLJFPMN@?9mt_cdb?$AA@ DB '-mt_cdb', 00H		; `string'
CONST	ENDS
;	COMDAT ??_C@_0BF@JLEIHKIA@?$CIVcnt?$DO?$DN4?$CJ?$CG?$CG?$CITcnt?$DO?$DN2?$CJ?$AA@
CONST	SEGMENT
??_C@_0BF@JLEIHKIA@?$CIVcnt?$DO?$DN4?$CJ?$CG?$CG?$CITcnt?$DO?$DN2?$CJ?$AA@ DB '('
	DB	'Vcnt>=4)&&(Tcnt>=2)', 00H			; `string'
CONST	ENDS
;	COMDAT ??_C@_0BB@DMGNJNBH@S_INIT?5?$DN?$DN?5status?$AA@
CONST	SEGMENT
??_C@_0BB@DMGNJNBH@S_INIT?5?$DN?$DN?5status?$AA@ DB 'S_INIT == status', 00H ; `string'
CONST	ENDS
;	COMDAT ??_C@_09FONEFOJL@xrCDB?4cpp?$AA@
CONST	SEGMENT
??_C@_09FONEFOJL@xrCDB?4cpp?$AA@ DB 'xrCDB.cpp', 00H	; `string'
CONST	ENDS
;	COMDAT ??_C@_0BC@GJKGJBBN@CDB?3?3MODEL?3?3build?$AA@
CONST	SEGMENT
??_C@_0BC@GJKGJBBN@CDB?3?3MODEL?3?3build?$AA@ DB 'CDB::MODEL::build', 00H ; `string'
CONST	ENDS
;	COMDAT ??_C@_0CC@CPNHACKD@?$CB?5WARNING?3?5syncronized?5CDB?3?3quer@
CONST	SEGMENT
??_C@_0CC@CPNHACKD@?$CB?5WARNING?3?5syncronized?5CDB?3?3quer@ DB '! WARNI'
	DB	'NG: syncronized CDB::query', 00H		; `string'
;	COMDAT pdata
; File c:\users\nummer\documents\github\olr-3.0\src\xray\xrcore\xrmemory.h
pdata	SEGMENT
$pdata$??$xr_free@I@@YAXAEAPEAI@Z DD imagerel $LN4
	DD	imagerel $LN4+43
	DD	imagerel $unwind$??$xr_free@I@@YAXAEAPEAI@Z
pdata	ENDS
;	COMDAT xdata
xdata	SEGMENT
$unwind$??$xr_free@I@@YAXAEAPEAI@Z DD 020601H
	DD	030023206H
; Function compile flags: /Ogtpy
xdata	ENDS
;	COMDAT ??$xr_free@I@@YAXAEAPEAI@Z
_TEXT	SEGMENT
P$ = 48
??$xr_free@I@@YAXAEAPEAI@Z PROC				; xr_free<unsigned int>, COMDAT

; 109  : 	IC void		xr_free		(T* &P)					{	if (P) { Memory.mem_free((void*)P); P=NULL;	};	}

$LN4:
	push	rbx
	sub	rsp, 32					; 00000020H
	mov	rdx, QWORD PTR [rcx]
	mov	rbx, rcx
	test	rdx, rdx
	je	SHORT $LN1@xr_free@8
	mov	rcx, QWORD PTR __imp_?Memory@@3VxrMemory@@A
	call	QWORD PTR __imp_?mem_free@xrMemory@@QEAAXPEAX@Z
	mov	QWORD PTR [rbx], 0
$LN1@xr_free@8:
	add	rsp, 32					; 00000020H
	pop	rbx
	ret	0
??$xr_free@I@@YAXAEAPEAI@Z ENDP				; xr_free<unsigned int>
; Function compile flags: /Ogtpy
; File c:\program files (x86)\microsoft visual studio 10.0\vc\include\xutility
_TEXT	ENDS
;	COMDAT ??$_Ptr_cat@II@std@@YA?AU_Scalar_ptr_iterator_tag@0@PEAI0@Z
_TEXT	SEGMENT
_Cat$ = 8
??$_Ptr_cat@II@std@@YA?AU_Scalar_ptr_iterator_tag@0@PEAI0@Z PROC ; std::_Ptr_cat<unsigned int,unsigned int>, COMDAT

; 517  : 	typename _Ptr_cat_helper<_Elem1, _Elem2>::_Type _Cat;
; 518  : 	return (_Cat);

	movzx	eax, BYTE PTR _Cat$[rsp]

; 519  : 	}

	ret	0
??$_Ptr_cat@II@std@@YA?AU_Scalar_ptr_iterator_tag@0@PEAI0@Z ENDP ; std::_Ptr_cat<unsigned int,unsigned int>
; Function compile flags: /Ogtpy
; File c:\program files (x86)\microsoft visual studio 10.0\vc\include\xmemory
_TEXT	ENDS
;	COMDAT ??$_Destroy_range@V?$xalloc@I@@@std@@YAXPEAI0AEAV?$xalloc@I@@U_Scalar_ptr_iterator_tag@0@@Z
_TEXT	SEGMENT
??$_Destroy_range@V?$xalloc@I@@@std@@YAXPEAI0AEAV?$xalloc@I@@U_Scalar_ptr_iterator_tag@0@@Z PROC ; std::_Destroy_range<xalloc<unsigned int> >, COMDAT

; 105  : 	}

	ret	0
??$_Destroy_range@V?$xalloc@I@@@std@@YAXPEAI0AEAV?$xalloc@I@@U_Scalar_ptr_iterator_tag@0@@Z ENDP ; std::_Destroy_range<xalloc<unsigned int> >
; Function compile flags: /Ogtpy
; File c:\program files (x86)\microsoft visual studio 10.0\vc\include\vector
_TEXT	ENDS
;	COMDAT ??1?$_Vector_val@IV?$xalloc@I@@@std@@QEAA@XZ
_TEXT	SEGMENT
??1?$_Vector_val@IV?$xalloc@I@@@std@@QEAA@XZ PROC	; std::_Vector_val<unsigned int,xalloc<unsigned int> >::~_Vector_val<unsigned int,xalloc<unsigned int> >, COMDAT

; 434  : 		}

	ret	0
??1?$_Vector_val@IV?$xalloc@I@@@std@@QEAA@XZ ENDP	; std::_Vector_val<unsigned int,xalloc<unsigned int> >::~_Vector_val<unsigned int,xalloc<unsigned int> >
; Function compile flags: /Ogtpy
; File c:\program files (x86)\microsoft visual studio 10.0\vc\include\string.h
_TEXT	ENDS
;	COMDAT ?strstr@@YAPEADPEADPEBD@Z
_TEXT	SEGMENT
_Str$ = 8
?strstr@@YAPEADPEADPEBD@Z PROC				; strstr, COMDAT

; 221  : 	{ return (char*)strstr((const char*)_Str, _SubStr); }

	lea	rdx, OFFSET FLAT:??_C@_07JLJFPMN@?9mt_cdb?$AA@
	rex_jmp	QWORD PTR __imp_strstr
?strstr@@YAPEADPEADPEBD@Z ENDP				; strstr
; Function compile flags: /Ogtpy
; File c:\users\nummer\documents\github\olr-3.0\src\xray\xrcdb\opc_model.h
_TEXT	ENDS
;	COMDAT ?GetUsedBytes@OPCODE_Model@Opcode@@QEBAIXZ
_TEXT	SEGMENT
this$ = 8
?GetUsedBytes@OPCODE_Model@Opcode@@QEBAIXZ PROC		; Opcode::OPCODE_Model::GetUsedBytes, COMDAT

; 115  : 						udword				GetUsedBytes()	const	{ return mTree->GetUsedBytes();	}

	mov	rcx, QWORD PTR [rcx+8]
	mov	rax, QWORD PTR [rcx]
	rex_jmp	QWORD PTR [rax+8]
?GetUsedBytes@OPCODE_Model@Opcode@@QEBAIXZ ENDP		; Opcode::OPCODE_Model::GetUsedBytes
; Function compile flags: /Ogtpy
; File c:\program files (x86)\microsoft visual studio 10.0\vc\include\xutility
_TEXT	ENDS
;	COMDAT ?_Adopt@_Iterator_base0@std@@QEAAXPEBX@Z
_TEXT	SEGMENT
?_Adopt@_Iterator_base0@std@@QEAAXPEBX@Z PROC		; std::_Iterator_base0::_Adopt, COMDAT

; 49   : 		}

	ret	0
?_Adopt@_Iterator_base0@std@@QEAAXPEBX@Z ENDP		; std::_Iterator_base0::_Adopt
; Function compile flags: /Ogtpy
; File c:\program files (x86)\microsoft visual studio 10.0\vc\include\new
_TEXT	ENDS
;	COMDAT ??2@YAPEAX_KPEAX@Z
_TEXT	SEGMENT
_Where$ = 8
??2@YAPEAX_KPEAX@Z PROC					; operator new, COMDAT

; 57   : 	return (_Where);

	mov	rax, rcx

; 58   : 	}

	ret	0
??2@YAPEAX_KPEAX@Z ENDP					; operator new
; Function compile flags: /Ogtpy
; File c:\program files (x86)\microsoft visual studio 10.0\vc\include\utility
_TEXT	ENDS
;	COMDAT ??$forward@AEAVTRI@CDB@@@std@@YAAEAVTRI@CDB@@AEAV12@@Z
_TEXT	SEGMENT
_Arg$ = 8
??$forward@AEAVTRI@CDB@@@std@@YAAEAVTRI@CDB@@AEAV12@@Z PROC ; std::forward<CDB::TRI & __ptr64>, COMDAT

; 79   : 	return ((_Ty&&)_Arg);

	mov	rax, rcx

; 80   : 	}

	ret	0
??$forward@AEAVTRI@CDB@@@std@@YAAEAVTRI@CDB@@AEAV12@@Z ENDP ; std::forward<CDB::TRI & __ptr64>
; Function compile flags: /Ogtpy
_TEXT	ENDS
;	COMDAT ??$forward@AEBVTRI@CDB@@@std@@YAAEBVTRI@CDB@@AEBV12@@Z
_TEXT	SEGMENT
_Arg$ = 8
??$forward@AEBVTRI@CDB@@@std@@YAAEBVTRI@CDB@@AEBV12@@Z PROC ; std::forward<CDB::TRI const & __ptr64>, COMDAT

; 79   : 	return ((_Ty&&)_Arg);

	mov	rax, rcx

; 80   : 	}

	ret	0
??$forward@AEBVTRI@CDB@@@std@@YAAEBVTRI@CDB@@AEBV12@@Z ENDP ; std::forward<CDB::TRI const & __ptr64>
; Function compile flags: /Ogtpy
_TEXT	ENDS
;	COMDAT ??$forward@AEAURESULT@CDB@@@std@@YAAEAURESULT@CDB@@AEAU12@@Z
_TEXT	SEGMENT
_Arg$ = 8
??$forward@AEAURESULT@CDB@@@std@@YAAEAURESULT@CDB@@AEAU12@@Z PROC ; std::forward<CDB::RESULT & __ptr64>, COMDAT

; 79   : 	return ((_Ty&&)_Arg);

	mov	rax, rcx

; 80   : 	}

	ret	0
??$forward@AEAURESULT@CDB@@@std@@YAAEAURESULT@CDB@@AEAU12@@Z ENDP ; std::forward<CDB::RESULT & __ptr64>
; Function compile flags: /Ogtpy
_TEXT	ENDS
;	COMDAT ??$forward@AEAU?$_vector3@M@@@std@@YAAEAU?$_vector3@M@@AEAU1@@Z
_TEXT	SEGMENT
_Arg$ = 8
??$forward@AEAU?$_vector3@M@@@std@@YAAEAU?$_vector3@M@@AEAU1@@Z PROC ; std::forward<_vector3<float> & __ptr64>, COMDAT

; 79   : 	return ((_Ty&&)_Arg);

	mov	rax, rcx

; 80   : 	}

	ret	0
??$forward@AEAU?$_vector3@M@@@std@@YAAEAU?$_vector3@M@@AEAU1@@Z ENDP ; std::forward<_vector3<float> & __ptr64>
; Function compile flags: /Ogtpy
_TEXT	ENDS
;	COMDAT ??$forward@AEBU?$_vector3@M@@@std@@YAAEBU?$_vector3@M@@AEBU1@@Z
_TEXT	SEGMENT
_Arg$ = 8
??$forward@AEBU?$_vector3@M@@@std@@YAAEBU?$_vector3@M@@AEBU1@@Z PROC ; std::forward<_vector3<float> const & __ptr64>, COMDAT

; 79   : 	return ((_Ty&&)_Arg);

	mov	rax, rcx

; 80   : 	}

	ret	0
??$forward@AEBU?$_vector3@M@@@std@@YAAEBU?$_vector3@M@@AEBU1@@Z ENDP ; std::forward<_vector3<float> const & __ptr64>
; Function compile flags: /Ogtpy
; File c:\program files (x86)\microsoft visual studio 10.0\vc\include\xmemory
_TEXT	ENDS
;	COMDAT ??$_Destroy@VTRI@CDB@@@std@@YAXPEAVTRI@CDB@@@Z
_TEXT	SEGMENT
??$_Destroy@VTRI@CDB@@@std@@YAXPEAVTRI@CDB@@@Z PROC	; std::_Destroy<CDB::TRI>, COMDAT

; 63   : 	_Ptr->~_Ty();
; 64   : 	}

	ret	0
??$_Destroy@VTRI@CDB@@@std@@YAXPEAVTRI@CDB@@@Z ENDP	; std::_Destroy<CDB::TRI>
; Function compile flags: /Ogtpy
_TEXT	ENDS
;	COMDAT ??$_Destroy@URESULT@CDB@@@std@@YAXPEAURESULT@CDB@@@Z
_TEXT	SEGMENT
??$_Destroy@URESULT@CDB@@@std@@YAXPEAURESULT@CDB@@@Z PROC ; std::_Destroy<CDB::RESULT>, COMDAT

; 63   : 	_Ptr->~_Ty();
; 64   : 	}

	ret	0
??$_Destroy@URESULT@CDB@@@std@@YAXPEAURESULT@CDB@@@Z ENDP ; std::_Destroy<CDB::RESULT>
; Function compile flags: /Ogtpy
_TEXT	ENDS
;	COMDAT ??$_Destroy@U?$_vector3@M@@@std@@YAXPEAU?$_vector3@M@@@Z
_TEXT	SEGMENT
??$_Destroy@U?$_vector3@M@@@std@@YAXPEAU?$_vector3@M@@@Z PROC ; std::_Destroy<_vector3<float> >, COMDAT

; 63   : 	_Ptr->~_Ty();
; 64   : 	}

	ret	0
??$_Destroy@U?$_vector3@M@@@std@@YAXPEAU?$_vector3@M@@@Z ENDP ; std::_Destroy<_vector3<float> >
; Function compile flags: /Ogtpy
; File c:\program files (x86)\microsoft visual studio 10.0\vc\include\vector
_TEXT	ENDS
;	COMDAT ??E?$_Vector_const_iterator@V?$_Vector_val@VTRI@CDB@@V?$xalloc@VTRI@CDB@@@@@std@@@std@@QEAAAEAV01@XZ
_TEXT	SEGMENT
this$ = 8
??E?$_Vector_const_iterator@V?$_Vector_val@VTRI@CDB@@V?$xalloc@VTRI@CDB@@@@@std@@@std@@QEAAAEAV01@XZ PROC ; std::_Vector_const_iterator<std::_Vector_val<CDB::TRI,xalloc<CDB::TRI> > >::operator++, COMDAT

; 94   :  #if _ITERATOR_DEBUG_LEVEL == 2
; 95   : 		if (this->_Getcont() == 0
; 96   : 			|| this->_Ptr == 0
; 97   : 			|| ((_Myvec *)this->_Getcont())->_Mylast <= this->_Ptr)
; 98   : 			{	// report error
; 99   : 			_DEBUG_ERROR("vector iterator not incrementable");
; 100  : 			_SCL_SECURE_OUT_OF_RANGE;
; 101  : 			}
; 102  : 
; 103  :  #elif _ITERATOR_DEBUG_LEVEL == 1
; 104  : 		_SCL_SECURE_VALIDATE(this->_Getcont() != 0);
; 105  : 		_SCL_SECURE_VALIDATE_RANGE(
; 106  : 			this->_Ptr != 0
; 107  : 			&& this->_Ptr < ((_Myvec *)this->_Getcont())->_Mylast);
; 108  :  #endif /* _ITERATOR_DEBUG_LEVEL */
; 109  : 
; 110  : 		++this->_Ptr;

	add	QWORD PTR [rcx], 24

; 111  : 		return (*this);

	mov	rax, rcx

; 112  : 		}

	ret	0
??E?$_Vector_const_iterator@V?$_Vector_val@VTRI@CDB@@V?$xalloc@VTRI@CDB@@@@@std@@@std@@QEAAAEAV01@XZ ENDP ; std::_Vector_const_iterator<std::_Vector_val<CDB::TRI,xalloc<CDB::TRI> > >::operator++
; Function compile flags: /Ogtpy
_TEXT	ENDS
;	COMDAT ??E?$_Vector_const_iterator@V?$_Vector_val@U?$_vector3@M@@V?$xalloc@U?$_vector3@M@@@@@std@@@std@@QEAAAEAV01@XZ
_TEXT	SEGMENT
this$ = 8
??E?$_Vector_const_iterator@V?$_Vector_val@U?$_vector3@M@@V?$xalloc@U?$_vector3@M@@@@@std@@@std@@QEAAAEAV01@XZ PROC ; std::_Vector_const_iterator<std::_Vector_val<_vector3<float>,xalloc<_vector3<float> > > >::operator++, COMDAT

; 94   :  #if _ITERATOR_DEBUG_LEVEL == 2
; 95   : 		if (this->_Getcont() == 0
; 96   : 			|| this->_Ptr == 0
; 97   : 			|| ((_Myvec *)this->_Getcont())->_Mylast <= this->_Ptr)
; 98   : 			{	// report error
; 99   : 			_DEBUG_ERROR("vector iterator not incrementable");
; 100  : 			_SCL_SECURE_OUT_OF_RANGE;
; 101  : 			}
; 102  : 
; 103  :  #elif _ITERATOR_DEBUG_LEVEL == 1
; 104  : 		_SCL_SECURE_VALIDATE(this->_Getcont() != 0);
; 105  : 		_SCL_SECURE_VALIDATE_RANGE(
; 106  : 			this->_Ptr != 0
; 107  : 			&& this->_Ptr < ((_Myvec *)this->_Getcont())->_Mylast);
; 108  :  #endif /* _ITERATOR_DEBUG_LEVEL */
; 109  : 
; 110  : 		++this->_Ptr;

	add	QWORD PTR [rcx], 12

; 111  : 		return (*this);

	mov	rax, rcx

; 112  : 		}

	ret	0
??E?$_Vector_const_iterator@V?$_Vector_val@U?$_vector3@M@@V?$xalloc@U?$_vector3@M@@@@@std@@@std@@QEAAAEAV01@XZ ENDP ; std::_Vector_const_iterator<std::_Vector_val<_vector3<float>,xalloc<_vector3<float> > > >::operator++
; Function compile flags: /Ogtpy
; File c:\users\nummer\documents\github\olr-3.0\src\xray\xrcore\_stl_extensions.h
_TEXT	ENDS
;	COMDAT ?destroy@?$xalloc@VTRI@CDB@@@@QEAAXPEAVTRI@CDB@@@Z
_TEXT	SEGMENT
?destroy@?$xalloc@VTRI@CDB@@@@QEAAXPEAVTRI@CDB@@@Z PROC	; xalloc<CDB::TRI>::destroy, COMDAT

; 85   : 							void					destroy			(pointer p)								{	std::_Destroy(p);			}

	ret	0
?destroy@?$xalloc@VTRI@CDB@@@@QEAAXPEAVTRI@CDB@@@Z ENDP	; xalloc<CDB::TRI>::destroy
; Function compile flags: /Ogtpy
; File c:\program files (x86)\microsoft visual studio 10.0\vc\include\vector
_TEXT	ENDS
;	COMDAT ??E?$_Vector_const_iterator@V?$_Vector_val@URESULT@CDB@@V?$xalloc@URESULT@CDB@@@@@std@@@std@@QEAAAEAV01@XZ
_TEXT	SEGMENT
this$ = 8
??E?$_Vector_const_iterator@V?$_Vector_val@URESULT@CDB@@V?$xalloc@URESULT@CDB@@@@@std@@@std@@QEAAAEAV01@XZ PROC ; std::_Vector_const_iterator<std::_Vector_val<CDB::RESULT,xalloc<CDB::RESULT> > >::operator++, COMDAT

; 94   :  #if _ITERATOR_DEBUG_LEVEL == 2
; 95   : 		if (this->_Getcont() == 0
; 96   : 			|| this->_Ptr == 0
; 97   : 			|| ((_Myvec *)this->_Getcont())->_Mylast <= this->_Ptr)
; 98   : 			{	// report error
; 99   : 			_DEBUG_ERROR("vector iterator not incrementable");
; 100  : 			_SCL_SECURE_OUT_OF_RANGE;
; 101  : 			}
; 102  : 
; 103  :  #elif _ITERATOR_DEBUG_LEVEL == 1
; 104  : 		_SCL_SECURE_VALIDATE(this->_Getcont() != 0);
; 105  : 		_SCL_SECURE_VALIDATE_RANGE(
; 106  : 			this->_Ptr != 0
; 107  : 			&& this->_Ptr < ((_Myvec *)this->_Getcont())->_Mylast);
; 108  :  #endif /* _ITERATOR_DEBUG_LEVEL */
; 109  : 
; 110  : 		++this->_Ptr;

	add	QWORD PTR [rcx], 64			; 00000040H

; 111  : 		return (*this);

	mov	rax, rcx

; 112  : 		}

	ret	0
??E?$_Vector_const_iterator@V?$_Vector_val@URESULT@CDB@@V?$xalloc@URESULT@CDB@@@@@std@@@std@@QEAAAEAV01@XZ ENDP ; std::_Vector_const_iterator<std::_Vector_val<CDB::RESULT,xalloc<CDB::RESULT> > >::operator++
; Function compile flags: /Ogtpy
; File c:\users\nummer\documents\github\olr-3.0\src\xray\xrcore\_stl_extensions.h
_TEXT	ENDS
;	COMDAT ?destroy@?$xalloc@URESULT@CDB@@@@QEAAXPEAURESULT@CDB@@@Z
_TEXT	SEGMENT
?destroy@?$xalloc@URESULT@CDB@@@@QEAAXPEAURESULT@CDB@@@Z PROC ; xalloc<CDB::RESULT>::destroy, COMDAT

; 85   : 							void					destroy			(pointer p)								{	std::_Destroy(p);			}

	ret	0
?destroy@?$xalloc@URESULT@CDB@@@@QEAAXPEAURESULT@CDB@@@Z ENDP ; xalloc<CDB::RESULT>::destroy
; Function compile flags: /Ogtpy
_TEXT	ENDS
;	COMDAT ?destroy@?$xalloc@U?$_vector3@M@@@@QEAAXPEAU?$_vector3@M@@@Z
_TEXT	SEGMENT
?destroy@?$xalloc@U?$_vector3@M@@@@QEAAXPEAU?$_vector3@M@@@Z PROC ; xalloc<_vector3<float> >::destroy, COMDAT

; 85   : 							void					destroy			(pointer p)								{	std::_Destroy(p);			}

	ret	0
?destroy@?$xalloc@U?$_vector3@M@@@@QEAAXPEAU?$_vector3@M@@@Z ENDP ; xalloc<_vector3<float> >::destroy
; Function compile flags: /Ogtpy
; File c:\program files (x86)\microsoft visual studio 10.0\vc\include\utility
_TEXT	ENDS
;	COMDAT ??$forward@AEBURESULT@CDB@@@std@@YAAEBURESULT@CDB@@AEBU12@@Z
_TEXT	SEGMENT
_Arg$ = 8
??$forward@AEBURESULT@CDB@@@std@@YAAEBURESULT@CDB@@AEBU12@@Z PROC ; std::forward<CDB::RESULT const & __ptr64>, COMDAT

; 79   : 	return ((_Ty&&)_Arg);

	mov	rax, rcx

; 80   : 	}

	ret	0
??$forward@AEBURESULT@CDB@@@std@@YAAEBURESULT@CDB@@AEBU12@@Z ENDP ; std::forward<CDB::RESULT const & __ptr64>
; Function compile flags: /Ogtpy
_TEXT	ENDS
;	COMDAT ??$move@AEAVTRI@CDB@@@std@@YA$$QEAVTRI@CDB@@AEAV12@@Z
_TEXT	SEGMENT
_Arg$ = 8
??$move@AEAVTRI@CDB@@@std@@YA$$QEAVTRI@CDB@@AEAV12@@Z PROC ; std::move<CDB::TRI & __ptr64>, COMDAT

; 87   : 	return ((typename tr1::_Remove_reference<_Ty>::_Type&&)_Arg);

	mov	rax, rcx

; 88   : 	}

	ret	0
??$move@AEAVTRI@CDB@@@std@@YA$$QEAVTRI@CDB@@AEAV12@@Z ENDP ; std::move<CDB::TRI & __ptr64>
; Function compile flags: /Ogtpy
; File c:\program files (x86)\microsoft visual studio 10.0\vc\include\xutility
_TEXT	ENDS
;	COMDAT ??$_Val_type@PEAURESULT@CDB@@@std@@YAPEAURESULT@CDB@@PEAU12@@Z
_TEXT	SEGMENT
??$_Val_type@PEAURESULT@CDB@@@std@@YAPEAURESULT@CDB@@PEAU12@@Z PROC ; std::_Val_type<CDB::RESULT * __ptr64>, COMDAT

; 790  : 	return (0);

	xor	eax, eax

; 791  : 	}

	ret	0
??$_Val_type@PEAURESULT@CDB@@@std@@YAPEAURESULT@CDB@@PEAU12@@Z ENDP ; std::_Val_type<CDB::RESULT * __ptr64>
; Function compile flags: /Ogtpy
; File c:\program files (x86)\microsoft visual studio 10.0\vc\include\utility
_TEXT	ENDS
;	COMDAT ??$move@AEAU?$_vector3@M@@@std@@YA$$QEAU?$_vector3@M@@AEAU1@@Z
_TEXT	SEGMENT
_Arg$ = 8
??$move@AEAU?$_vector3@M@@@std@@YA$$QEAU?$_vector3@M@@AEAU1@@Z PROC ; std::move<_vector3<float> & __ptr64>, COMDAT

; 87   : 	return ((typename tr1::_Remove_reference<_Ty>::_Type&&)_Arg);

	mov	rax, rcx

; 88   : 	}

	ret	0
??$move@AEAU?$_vector3@M@@@std@@YA$$QEAU?$_vector3@M@@AEAU1@@Z ENDP ; std::move<_vector3<float> & __ptr64>
; Function compile flags: /Ogtpy
; File c:\program files (x86)\microsoft visual studio 10.0\vc\include\xmemory
_TEXT	ENDS
;	COMDAT ??$_Dest_val@V?$xalloc@VTRI@CDB@@@@VTRI@CDB@@@std@@YAXAEAV?$xalloc@VTRI@CDB@@@@PEAVTRI@CDB@@@Z
_TEXT	SEGMENT
??$_Dest_val@V?$xalloc@VTRI@CDB@@@@VTRI@CDB@@@std@@YAXAEAV?$xalloc@VTRI@CDB@@@@PEAVTRI@CDB@@@Z PROC ; std::_Dest_val<xalloc<CDB::TRI>,CDB::TRI>, COMDAT

; 287  : 	_Alval.destroy(_Pdest);
; 288  : 	}

	ret	0
??$_Dest_val@V?$xalloc@VTRI@CDB@@@@VTRI@CDB@@@std@@YAXAEAV?$xalloc@VTRI@CDB@@@@PEAVTRI@CDB@@@Z ENDP ; std::_Dest_val<xalloc<CDB::TRI>,CDB::TRI>
; Function compile flags: /Ogtpy
_TEXT	ENDS
;	COMDAT ??$_Dest_val@V?$xalloc@URESULT@CDB@@@@URESULT@CDB@@@std@@YAXAEAV?$xalloc@URESULT@CDB@@@@PEAURESULT@CDB@@@Z
_TEXT	SEGMENT
??$_Dest_val@V?$xalloc@URESULT@CDB@@@@URESULT@CDB@@@std@@YAXAEAV?$xalloc@URESULT@CDB@@@@PEAURESULT@CDB@@@Z PROC ; std::_Dest_val<xalloc<CDB::RESULT>,CDB::RESULT>, COMDAT

; 287  : 	_Alval.destroy(_Pdest);
; 288  : 	}

	ret	0
??$_Dest_val@V?$xalloc@URESULT@CDB@@@@URESULT@CDB@@@std@@YAXAEAV?$xalloc@URESULT@CDB@@@@PEAURESULT@CDB@@@Z ENDP ; std::_Dest_val<xalloc<CDB::RESULT>,CDB::RESULT>
; Function compile flags: /Ogtpy
; File c:\program files (x86)\microsoft visual studio 10.0\vc\include\utility
_TEXT	ENDS
;	COMDAT ??$move@AEAURESULT@CDB@@@std@@YA$$QEAURESULT@CDB@@AEAU12@@Z
_TEXT	SEGMENT
_Arg$ = 8
??$move@AEAURESULT@CDB@@@std@@YA$$QEAURESULT@CDB@@AEAU12@@Z PROC ; std::move<CDB::RESULT & __ptr64>, COMDAT

; 87   : 	return ((typename tr1::_Remove_reference<_Ty>::_Type&&)_Arg);

	mov	rax, rcx

; 88   : 	}

	ret	0
??$move@AEAURESULT@CDB@@@std@@YA$$QEAURESULT@CDB@@AEAU12@@Z ENDP ; std::move<CDB::RESULT & __ptr64>
; Function compile flags: /Ogtpy
; File c:\program files (x86)\microsoft visual studio 10.0\vc\include\xmemory
_TEXT	ENDS
;	COMDAT ??$_Dest_val@V?$xalloc@U?$_vector3@M@@@@U?$_vector3@M@@@std@@YAXAEAV?$xalloc@U?$_vector3@M@@@@PEAU?$_vector3@M@@@Z
_TEXT	SEGMENT
??$_Dest_val@V?$xalloc@U?$_vector3@M@@@@U?$_vector3@M@@@std@@YAXAEAV?$xalloc@U?$_vector3@M@@@@PEAU?$_vector3@M@@@Z PROC ; std::_Dest_val<xalloc<_vector3<float> >,_vector3<float> >, COMDAT

; 287  : 	_Alval.destroy(_Pdest);
; 288  : 	}

	ret	0
??$_Dest_val@V?$xalloc@U?$_vector3@M@@@@U?$_vector3@M@@@std@@YAXAEAV?$xalloc@U?$_vector3@M@@@@PEAU?$_vector3@M@@@Z ENDP ; std::_Dest_val<xalloc<_vector3<float> >,_vector3<float> >
; Function compile flags: /Ogtpy
; File c:\program files (x86)\microsoft visual studio 10.0\vc\include\xutility
_TEXT	ENDS
;	COMDAT ??$_Ptr_cat@V?$_Vector_const_iterator@V?$_Vector_val@VTRI@CDB@@V?$xalloc@VTRI@CDB@@@@@std@@@std@@PEAVTRI@CDB@@@std@@YA?AU_Nonscalar_ptr_iterator_tag@0@AEAV?$_Vector_const_iterator@V?$_Vector_val@VTRI@CDB@@V?$xalloc@VTRI@CDB@@@@@std@@@0@AEAPEAVTRI@CDB@@@Z
_TEXT	SEGMENT
_Cat$ = 8
??$_Ptr_cat@V?$_Vector_const_iterator@V?$_Vector_val@VTRI@CDB@@V?$xalloc@VTRI@CDB@@@@@std@@@std@@PEAVTRI@CDB@@@std@@YA?AU_Nonscalar_ptr_iterator_tag@0@AEAV?$_Vector_const_iterator@V?$_Vector_val@VTRI@CDB@@V?$xalloc@VTRI@CDB@@@@@std@@@0@AEAPEAVTRI@CDB@@@Z PROC ; std::_Ptr_cat<std::_Vector_const_iterator<std::_Vector_val<CDB::TRI,xalloc<CDB::TRI> > >,CDB::TRI * __ptr64>, COMDAT

; 486  : 	_Nonscalar_ptr_iterator_tag _Cat;
; 487  : 	return (_Cat);

	movzx	eax, BYTE PTR _Cat$[rsp]

; 488  : 	}

	ret	0
??$_Ptr_cat@V?$_Vector_const_iterator@V?$_Vector_val@VTRI@CDB@@V?$xalloc@VTRI@CDB@@@@@std@@@std@@PEAVTRI@CDB@@@std@@YA?AU_Nonscalar_ptr_iterator_tag@0@AEAV?$_Vector_const_iterator@V?$_Vector_val@VTRI@CDB@@V?$xalloc@VTRI@CDB@@@@@std@@@0@AEAPEAVTRI@CDB@@@Z ENDP ; std::_Ptr_cat<std::_Vector_const_iterator<std::_Vector_val<CDB::TRI,xalloc<CDB::TRI> > >,CDB::TRI * __ptr64>
; Function compile flags: /Ogtpy
_TEXT	ENDS
;	COMDAT ??$_Ptr_cat@V?$_Vector_const_iterator@V?$_Vector_val@URESULT@CDB@@V?$xalloc@URESULT@CDB@@@@@std@@@std@@PEAURESULT@CDB@@@std@@YA?AU_Nonscalar_ptr_iterator_tag@0@AEAV?$_Vector_const_iterator@V?$_Vector_val@URESULT@CDB@@V?$xalloc@URESULT@CDB@@@@@std@@@0@AEAPEAURESULT@CDB@@@Z
_TEXT	SEGMENT
_Cat$ = 8
??$_Ptr_cat@V?$_Vector_const_iterator@V?$_Vector_val@URESULT@CDB@@V?$xalloc@URESULT@CDB@@@@@std@@@std@@PEAURESULT@CDB@@@std@@YA?AU_Nonscalar_ptr_iterator_tag@0@AEAV?$_Vector_const_iterator@V?$_Vector_val@URESULT@CDB@@V?$xalloc@URESULT@CDB@@@@@std@@@0@AEAPEAURESULT@CDB@@@Z PROC ; std::_Ptr_cat<std::_Vector_const_iterator<std::_Vector_val<CDB::RESULT,xalloc<CDB::RESULT> > >,CDB::RESULT * __ptr64>, COMDAT

; 486  : 	_Nonscalar_ptr_iterator_tag _Cat;
; 487  : 	return (_Cat);

	movzx	eax, BYTE PTR _Cat$[rsp]

; 488  : 	}

	ret	0
??$_Ptr_cat@V?$_Vector_const_iterator@V?$_Vector_val@URESULT@CDB@@V?$xalloc@URESULT@CDB@@@@@std@@@std@@PEAURESULT@CDB@@@std@@YA?AU_Nonscalar_ptr_iterator_tag@0@AEAV?$_Vector_const_iterator@V?$_Vector_val@URESULT@CDB@@V?$xalloc@URESULT@CDB@@@@@std@@@0@AEAPEAURESULT@CDB@@@Z ENDP ; std::_Ptr_cat<std::_Vector_const_iterator<std::_Vector_val<CDB::RESULT,xalloc<CDB::RESULT> > >,CDB::RESULT * __ptr64>
; Function compile flags: /Ogtpy
_TEXT	ENDS
;	COMDAT ??$_Ptr_cat@V?$_Vector_const_iterator@V?$_Vector_val@U?$_vector3@M@@V?$xalloc@U?$_vector3@M@@@@@std@@@std@@PEAU?$_vector3@M@@@std@@YA?AU_Nonscalar_ptr_iterator_tag@0@AEAV?$_Vector_const_iterator@V?$_Vector_val@U?$_vector3@M@@V?$xalloc@U?$_vector3@M@@@@@std@@@0@AEAPEAU?$_vector3@M@@@Z
_TEXT	SEGMENT
_Cat$ = 8
??$_Ptr_cat@V?$_Vector_const_iterator@V?$_Vector_val@U?$_vector3@M@@V?$xalloc@U?$_vector3@M@@@@@std@@@std@@PEAU?$_vector3@M@@@std@@YA?AU_Nonscalar_ptr_iterator_tag@0@AEAV?$_Vector_const_iterator@V?$_Vector_val@U?$_vector3@M@@V?$xalloc@U?$_vector3@M@@@@@std@@@0@AEAPEAU?$_vector3@M@@@Z PROC ; std::_Ptr_cat<std::_Vector_const_iterator<std::_Vector_val<_vector3<float>,xalloc<_vector3<float> > > >,_vector3<float> * __ptr64>, COMDAT

; 486  : 	_Nonscalar_ptr_iterator_tag _Cat;
; 487  : 	return (_Cat);

	movzx	eax, BYTE PTR _Cat$[rsp]

; 488  : 	}

	ret	0
??$_Ptr_cat@V?$_Vector_const_iterator@V?$_Vector_val@U?$_vector3@M@@V?$xalloc@U?$_vector3@M@@@@@std@@@std@@PEAU?$_vector3@M@@@std@@YA?AU_Nonscalar_ptr_iterator_tag@0@AEAV?$_Vector_const_iterator@V?$_Vector_val@U?$_vector3@M@@V?$xalloc@U?$_vector3@M@@@@@std@@@0@AEAPEAU?$_vector3@M@@@Z ENDP ; std::_Ptr_cat<std::_Vector_const_iterator<std::_Vector_val<_vector3<float>,xalloc<_vector3<float> > > >,_vector3<float> * __ptr64>
; Function compile flags: /Ogtpy
; File c:\program files (x86)\microsoft visual studio 10.0\vc\include\xmemory
_TEXT	ENDS
;	COMDAT ??$_Construct@URESULT@CDB@@AEBU12@@std@@YAXPEAURESULT@CDB@@AEBU12@@Z
_TEXT	SEGMENT
_Ptr$ = 8
_Val$ = 16
??$_Construct@URESULT@CDB@@AEBU12@@std@@YAXPEAURESULT@CDB@@AEBU12@@Z PROC ; std::_Construct<CDB::RESULT,CDB::RESULT const & __ptr64>, COMDAT

; 47   : 	void _FARQ *_Vptr = _Ptr;
; 48   : 	::new (_Vptr) _Ty1(_STD forward<_Ty2>(_Val));

	test	rcx, rcx
	je	SHORT $LN3@Construct
	mov	rax, QWORD PTR [rdx]
	mov	QWORD PTR [rcx], rax
	mov	rax, QWORD PTR [rdx+8]
	mov	QWORD PTR [rcx+8], rax
	mov	rax, QWORD PTR [rdx+16]
	mov	QWORD PTR [rcx+16], rax
	mov	rax, QWORD PTR [rdx+24]
	mov	QWORD PTR [rcx+24], rax
	mov	rax, QWORD PTR [rdx+32]
	mov	QWORD PTR [rcx+32], rax
	mov	rax, QWORD PTR [rdx+40]
	mov	QWORD PTR [rcx+40], rax
	mov	rax, QWORD PTR [rdx+48]
	mov	QWORD PTR [rcx+48], rax
	mov	rax, QWORD PTR [rdx+56]
	mov	QWORD PTR [rcx+56], rax
$LN3@Construct:

; 49   : 	}

	fatret	0
??$_Construct@URESULT@CDB@@AEBU12@@std@@YAXPEAURESULT@CDB@@AEBU12@@Z ENDP ; std::_Construct<CDB::RESULT,CDB::RESULT const & __ptr64>
; Function compile flags: /Ogtpy
; File c:\program files (x86)\microsoft visual studio 10.0\vc\include\xutility
_TEXT	ENDS
;	COMDAT ??$_Move@PEAVTRI@CDB@@PEAV12@@std@@YAPEAVTRI@CDB@@PEAV12@00U_Nonscalar_ptr_iterator_tag@0@@Z
_TEXT	SEGMENT
_First$ = 8
_Last$ = 16
_Dest$ = 24
??$_Move@PEAVTRI@CDB@@PEAV12@@std@@YAPEAVTRI@CDB@@PEAV12@00U_Nonscalar_ptr_iterator_tag@0@@Z PROC ; std::_Move<CDB::TRI * __ptr64,CDB::TRI * __ptr64>, COMDAT

; 2513 : 	for (; _First != _Last; ++_Dest, ++_First)

	cmp	rcx, rdx
	je	SHORT $LN10@Move
	npad	11
$LL3@Move:

; 2514 : 		*_Dest = _STD move(*_First);

	mov	rax, QWORD PTR [rcx]
	add	rcx, 24
	add	r8, 24
	mov	QWORD PTR [r8-24], rax
	mov	rax, QWORD PTR [rcx-16]
	mov	QWORD PTR [r8-16], rax
	mov	rax, QWORD PTR [rcx-8]
	mov	QWORD PTR [r8-8], rax
	cmp	rcx, rdx
	jne	SHORT $LL3@Move
$LN10@Move:

; 2515 : 	return (_Dest);

	mov	rax, r8

; 2516 : 	}

	ret	0
??$_Move@PEAVTRI@CDB@@PEAV12@@std@@YAPEAVTRI@CDB@@PEAV12@00U_Nonscalar_ptr_iterator_tag@0@@Z ENDP ; std::_Move<CDB::TRI * __ptr64,CDB::TRI * __ptr64>
; Function compile flags: /Ogtpy
_TEXT	ENDS
;	COMDAT ??$_Move@PEAU?$_vector3@M@@PEAU1@@std@@YAPEAU?$_vector3@M@@PEAU1@00U_Nonscalar_ptr_iterator_tag@0@@Z
_TEXT	SEGMENT
_First$ = 8
_Last$ = 16
_Dest$ = 24
??$_Move@PEAU?$_vector3@M@@PEAU1@@std@@YAPEAU?$_vector3@M@@PEAU1@00U_Nonscalar_ptr_iterator_tag@0@@Z PROC ; std::_Move<_vector3<float> * __ptr64,_vector3<float> * __ptr64>, COMDAT

; 2513 : 	for (; _First != _Last; ++_Dest, ++_First)

	cmp	rcx, rdx
	je	SHORT $LN10@Move@2
	npad	11
$LL3@Move@2:

; 2514 : 		*_Dest = _STD move(*_First);

	mov	rax, QWORD PTR [rcx]
	add	rcx, 12
	add	r8, 12
	mov	QWORD PTR [r8-12], rax
	mov	eax, DWORD PTR [rcx-4]
	mov	DWORD PTR [r8-4], eax
	cmp	rcx, rdx
	jne	SHORT $LL3@Move@2
$LN10@Move@2:

; 2515 : 	return (_Dest);

	mov	rax, r8

; 2516 : 	}

	ret	0
??$_Move@PEAU?$_vector3@M@@PEAU1@@std@@YAPEAU?$_vector3@M@@PEAU1@00U_Nonscalar_ptr_iterator_tag@0@@Z ENDP ; std::_Move<_vector3<float> * __ptr64,_vector3<float> * __ptr64>
; Function compile flags: /Ogtpy
; File c:\program files (x86)\microsoft visual studio 10.0\vc\include\xmemory
_TEXT	ENDS
;	COMDAT ??$_Destroy_range@V?$xalloc@VTRI@CDB@@@@@std@@YAXPEAVTRI@CDB@@0AEAV?$xalloc@VTRI@CDB@@@@U_Nonscalar_ptr_iterator_tag@0@@Z
_TEXT	SEGMENT
??$_Destroy_range@V?$xalloc@VTRI@CDB@@@@@std@@YAXPEAVTRI@CDB@@0AEAV?$xalloc@VTRI@CDB@@@@U_Nonscalar_ptr_iterator_tag@0@@Z PROC ; std::_Destroy_range<xalloc<CDB::TRI> >, COMDAT

; 96   : 	for (; _First != _Last; ++_First)
; 97   : 		_Dest_val(_Al, _First);
; 98   : 	}

	ret	0
??$_Destroy_range@V?$xalloc@VTRI@CDB@@@@@std@@YAXPEAVTRI@CDB@@0AEAV?$xalloc@VTRI@CDB@@@@U_Nonscalar_ptr_iterator_tag@0@@Z ENDP ; std::_Destroy_range<xalloc<CDB::TRI> >
; Function compile flags: /Ogtpy
_TEXT	ENDS
;	COMDAT ??$_Destroy_range@V?$xalloc@URESULT@CDB@@@@@std@@YAXPEAURESULT@CDB@@0AEAV?$xalloc@URESULT@CDB@@@@U_Nonscalar_ptr_iterator_tag@0@@Z
_TEXT	SEGMENT
??$_Destroy_range@V?$xalloc@URESULT@CDB@@@@@std@@YAXPEAURESULT@CDB@@0AEAV?$xalloc@URESULT@CDB@@@@U_Nonscalar_ptr_iterator_tag@0@@Z PROC ; std::_Destroy_range<xalloc<CDB::RESULT> >, COMDAT

; 96   : 	for (; _First != _Last; ++_First)
; 97   : 		_Dest_val(_Al, _First);
; 98   : 	}

	ret	0
??$_Destroy_range@V?$xalloc@URESULT@CDB@@@@@std@@YAXPEAURESULT@CDB@@0AEAV?$xalloc@URESULT@CDB@@@@U_Nonscalar_ptr_iterator_tag@0@@Z ENDP ; std::_Destroy_range<xalloc<CDB::RESULT> >
; Function compile flags: /Ogtpy
; File c:\program files (x86)\microsoft visual studio 10.0\vc\include\xutility
_TEXT	ENDS
;	COMDAT ??$_Move@PEAURESULT@CDB@@PEAU12@@std@@YAPEAURESULT@CDB@@PEAU12@00U_Nonscalar_ptr_iterator_tag@0@@Z
_TEXT	SEGMENT
_First$ = 8
_Last$ = 16
_Dest$ = 24
??$_Move@PEAURESULT@CDB@@PEAU12@@std@@YAPEAURESULT@CDB@@PEAU12@00U_Nonscalar_ptr_iterator_tag@0@@Z PROC ; std::_Move<CDB::RESULT * __ptr64,CDB::RESULT * __ptr64>, COMDAT

; 2513 : 	for (; _First != _Last; ++_Dest, ++_First)

	cmp	rcx, rdx
	je	SHORT $LN10@Move@3
	npad	11
$LL3@Move@3:

; 2514 : 		*_Dest = _STD move(*_First);

	mov	rax, QWORD PTR [rcx]
	add	rcx, 64					; 00000040H
	add	r8, 64					; 00000040H
	mov	QWORD PTR [r8-64], rax
	mov	rax, QWORD PTR [rcx-56]
	mov	QWORD PTR [r8-56], rax
	mov	rax, QWORD PTR [rcx-48]
	mov	QWORD PTR [r8-48], rax
	mov	rax, QWORD PTR [rcx-40]
	mov	QWORD PTR [r8-40], rax
	mov	rax, QWORD PTR [rcx-32]
	mov	QWORD PTR [r8-32], rax
	mov	rax, QWORD PTR [rcx-24]
	mov	QWORD PTR [r8-24], rax
	mov	rax, QWORD PTR [rcx-16]
	mov	QWORD PTR [r8-16], rax
	mov	rax, QWORD PTR [rcx-8]
	mov	QWORD PTR [r8-8], rax
	cmp	rcx, rdx
	jne	SHORT $LL3@Move@3
$LN10@Move@3:

; 2515 : 	return (_Dest);

	mov	rax, r8

; 2516 : 	}

	ret	0
??$_Move@PEAURESULT@CDB@@PEAU12@@std@@YAPEAURESULT@CDB@@PEAU12@00U_Nonscalar_ptr_iterator_tag@0@@Z ENDP ; std::_Move<CDB::RESULT * __ptr64,CDB::RESULT * __ptr64>
; Function compile flags: /Ogtpy
; File c:\program files (x86)\microsoft visual studio 10.0\vc\include\xmemory
_TEXT	ENDS
;	COMDAT ??$_Destroy_range@V?$xalloc@U?$_vector3@M@@@@@std@@YAXPEAU?$_vector3@M@@0AEAV?$xalloc@U?$_vector3@M@@@@U_Nonscalar_ptr_iterator_tag@0@@Z
_TEXT	SEGMENT
??$_Destroy_range@V?$xalloc@U?$_vector3@M@@@@@std@@YAXPEAU?$_vector3@M@@0AEAV?$xalloc@U?$_vector3@M@@@@U_Nonscalar_ptr_iterator_tag@0@@Z PROC ; std::_Destroy_range<xalloc<_vector3<float> > >, COMDAT

; 96   : 	for (; _First != _Last; ++_First)
; 97   : 		_Dest_val(_Al, _First);
; 98   : 	}

	ret	0
??$_Destroy_range@V?$xalloc@U?$_vector3@M@@@@@std@@YAXPEAU?$_vector3@M@@0AEAV?$xalloc@U?$_vector3@M@@@@U_Nonscalar_ptr_iterator_tag@0@@Z ENDP ; std::_Destroy_range<xalloc<_vector3<float> > >
; Function compile flags: /Ogtpy
; File c:\program files (x86)\microsoft visual studio 10.0\vc\include\xutility
_TEXT	ENDS
;	COMDAT ??$_Copy_impl@PEAVTRI@CDB@@PEAV12@@std@@YAPEAVTRI@CDB@@PEAV12@00U_Nonscalar_ptr_iterator_tag@0@@Z
_TEXT	SEGMENT
_First$ = 8
_Last$ = 16
_Dest$ = 24
??$_Copy_impl@PEAVTRI@CDB@@PEAV12@@std@@YAPEAVTRI@CDB@@PEAV12@00U_Nonscalar_ptr_iterator_tag@0@@Z PROC ; std::_Copy_impl<CDB::TRI * __ptr64,CDB::TRI * __ptr64>, COMDAT

; 2143 : 	for (; _First != _Last; ++_Dest, ++_First)

	cmp	rcx, rdx
	je	SHORT $LN8@Copy_impl
	npad	11
$LL3@Copy_impl:

; 2144 : 		*_Dest = *_First;

	mov	rax, QWORD PTR [rcx]
	add	rcx, 24
	add	r8, 24
	mov	QWORD PTR [r8-24], rax
	mov	rax, QWORD PTR [rcx-16]
	mov	QWORD PTR [r8-16], rax
	mov	rax, QWORD PTR [rcx-8]
	mov	QWORD PTR [r8-8], rax
	cmp	rcx, rdx
	jne	SHORT $LL3@Copy_impl
$LN8@Copy_impl:

; 2145 : 	return (_Dest);

	mov	rax, r8

; 2146 : 	}

	ret	0
??$_Copy_impl@PEAVTRI@CDB@@PEAV12@@std@@YAPEAVTRI@CDB@@PEAV12@00U_Nonscalar_ptr_iterator_tag@0@@Z ENDP ; std::_Copy_impl<CDB::TRI * __ptr64,CDB::TRI * __ptr64>
; Function compile flags: /Ogtpy
_TEXT	ENDS
;	COMDAT ??$_Ptr_cat@VTRI@CDB@@V12@@std@@YA?AU_Nonscalar_ptr_iterator_tag@0@PEAVTRI@CDB@@0@Z
_TEXT	SEGMENT
_Cat$ = 8
??$_Ptr_cat@VTRI@CDB@@V12@@std@@YA?AU_Nonscalar_ptr_iterator_tag@0@PEAVTRI@CDB@@0@Z PROC ; std::_Ptr_cat<CDB::TRI,CDB::TRI>, COMDAT

; 517  : 	typename _Ptr_cat_helper<_Elem1, _Elem2>::_Type _Cat;
; 518  : 	return (_Cat);

	movzx	eax, BYTE PTR _Cat$[rsp]

; 519  : 	}

	ret	0
??$_Ptr_cat@VTRI@CDB@@V12@@std@@YA?AU_Nonscalar_ptr_iterator_tag@0@PEAVTRI@CDB@@0@Z ENDP ; std::_Ptr_cat<CDB::TRI,CDB::TRI>
; Function compile flags: /Ogtpy
_TEXT	ENDS
;	COMDAT ??$_Copy_impl@PEAURESULT@CDB@@PEAU12@@std@@YAPEAURESULT@CDB@@PEAU12@00U_Nonscalar_ptr_iterator_tag@0@@Z
_TEXT	SEGMENT
_First$ = 8
_Last$ = 16
_Dest$ = 24
??$_Copy_impl@PEAURESULT@CDB@@PEAU12@@std@@YAPEAURESULT@CDB@@PEAU12@00U_Nonscalar_ptr_iterator_tag@0@@Z PROC ; std::_Copy_impl<CDB::RESULT * __ptr64,CDB::RESULT * __ptr64>, COMDAT

; 2143 : 	for (; _First != _Last; ++_Dest, ++_First)

	cmp	rcx, rdx
	je	SHORT $LN8@Copy_impl@2
	npad	11
$LL3@Copy_impl@2:

; 2144 : 		*_Dest = *_First;

	mov	rax, QWORD PTR [rcx]
	add	rcx, 64					; 00000040H
	add	r8, 64					; 00000040H
	mov	QWORD PTR [r8-64], rax
	mov	rax, QWORD PTR [rcx-56]
	mov	QWORD PTR [r8-56], rax
	mov	rax, QWORD PTR [rcx-48]
	mov	QWORD PTR [r8-48], rax
	mov	rax, QWORD PTR [rcx-40]
	mov	QWORD PTR [r8-40], rax
	mov	rax, QWORD PTR [rcx-32]
	mov	QWORD PTR [r8-32], rax
	mov	rax, QWORD PTR [rcx-24]
	mov	QWORD PTR [r8-24], rax
	mov	rax, QWORD PTR [rcx-16]
	mov	QWORD PTR [r8-16], rax
	mov	rax, QWORD PTR [rcx-8]
	mov	QWORD PTR [r8-8], rax
	cmp	rcx, rdx
	jne	SHORT $LL3@Copy_impl@2
$LN8@Copy_impl@2:

; 2145 : 	return (_Dest);

	mov	rax, r8

; 2146 : 	}

	ret	0
??$_Copy_impl@PEAURESULT@CDB@@PEAU12@@std@@YAPEAURESULT@CDB@@PEAU12@00U_Nonscalar_ptr_iterator_tag@0@@Z ENDP ; std::_Copy_impl<CDB::RESULT * __ptr64,CDB::RESULT * __ptr64>
; Function compile flags: /Ogtpy
_TEXT	ENDS
;	COMDAT ??$_Ptr_cat@URESULT@CDB@@U12@@std@@YA?AU_Nonscalar_ptr_iterator_tag@0@PEAURESULT@CDB@@0@Z
_TEXT	SEGMENT
_Cat$ = 8
??$_Ptr_cat@URESULT@CDB@@U12@@std@@YA?AU_Nonscalar_ptr_iterator_tag@0@PEAURESULT@CDB@@0@Z PROC ; std::_Ptr_cat<CDB::RESULT,CDB::RESULT>, COMDAT

; 517  : 	typename _Ptr_cat_helper<_Elem1, _Elem2>::_Type _Cat;
; 518  : 	return (_Cat);

	movzx	eax, BYTE PTR _Cat$[rsp]

; 519  : 	}

	ret	0
??$_Ptr_cat@URESULT@CDB@@U12@@std@@YA?AU_Nonscalar_ptr_iterator_tag@0@PEAURESULT@CDB@@0@Z ENDP ; std::_Ptr_cat<CDB::RESULT,CDB::RESULT>
; Function compile flags: /Ogtpy
_TEXT	ENDS
;	COMDAT ??$_Copy_impl@PEAU?$_vector3@M@@PEAU1@@std@@YAPEAU?$_vector3@M@@PEAU1@00U_Nonscalar_ptr_iterator_tag@0@@Z
_TEXT	SEGMENT
_First$ = 8
_Last$ = 16
_Dest$ = 24
??$_Copy_impl@PEAU?$_vector3@M@@PEAU1@@std@@YAPEAU?$_vector3@M@@PEAU1@00U_Nonscalar_ptr_iterator_tag@0@@Z PROC ; std::_Copy_impl<_vector3<float> * __ptr64,_vector3<float> * __ptr64>, COMDAT

; 2143 : 	for (; _First != _Last; ++_Dest, ++_First)

	cmp	rcx, rdx
	je	SHORT $LN8@Copy_impl@3
	npad	11
$LL3@Copy_impl@3:

; 2144 : 		*_Dest = *_First;

	mov	rax, QWORD PTR [rcx]
	add	rcx, 12
	add	r8, 12
	mov	QWORD PTR [r8-12], rax
	mov	eax, DWORD PTR [rcx-4]
	mov	DWORD PTR [r8-4], eax
	cmp	rcx, rdx
	jne	SHORT $LL3@Copy_impl@3
$LN8@Copy_impl@3:

; 2145 : 	return (_Dest);

	mov	rax, r8

; 2146 : 	}

	ret	0
??$_Copy_impl@PEAU?$_vector3@M@@PEAU1@@std@@YAPEAU?$_vector3@M@@PEAU1@00U_Nonscalar_ptr_iterator_tag@0@@Z ENDP ; std::_Copy_impl<_vector3<float> * __ptr64,_vector3<float> * __ptr64>
; Function compile flags: /Ogtpy
_TEXT	ENDS
;	COMDAT ??$_Ptr_cat@U?$_vector3@M@@U1@@std@@YA?AU_Nonscalar_ptr_iterator_tag@0@PEAU?$_vector3@M@@0@Z
_TEXT	SEGMENT
_Cat$ = 8
??$_Ptr_cat@U?$_vector3@M@@U1@@std@@YA?AU_Nonscalar_ptr_iterator_tag@0@PEAU?$_vector3@M@@0@Z PROC ; std::_Ptr_cat<_vector3<float>,_vector3<float> >, COMDAT

; 517  : 	typename _Ptr_cat_helper<_Elem1, _Elem2>::_Type _Cat;
; 518  : 	return (_Cat);

	movzx	eax, BYTE PTR _Cat$[rsp]

; 519  : 	}

	ret	0
??$_Ptr_cat@U?$_vector3@M@@U1@@std@@YA?AU_Nonscalar_ptr_iterator_tag@0@PEAU?$_vector3@M@@0@Z ENDP ; std::_Ptr_cat<_vector3<float>,_vector3<float> >
; Function compile flags: /Ogtpy
; File c:\users\nummer\documents\github\olr-3.0\src\xray\xrcore\_stl_extensions.h
_TEXT	ENDS
;	COMDAT ?construct@?$xalloc@URESULT@CDB@@@@QEAAXPEAURESULT@CDB@@AEBU23@@Z
_TEXT	SEGMENT
p$ = 8
_Val$ = 16
?construct@?$xalloc@URESULT@CDB@@@@QEAAXPEAURESULT@CDB@@AEBU23@@Z PROC ; xalloc<CDB::RESULT>::construct, COMDAT

; 84   : 							void					construct		(pointer p, const T& _Val)				{	std::_Construct(p, _Val);	}

	test	rcx, rcx
	je	SHORT $LN5@construct
	mov	rax, QWORD PTR [rdx]
	mov	QWORD PTR [rcx], rax
	mov	rax, QWORD PTR [rdx+8]
	mov	QWORD PTR [rcx+8], rax
	mov	rax, QWORD PTR [rdx+16]
	mov	QWORD PTR [rcx+16], rax
	mov	rax, QWORD PTR [rdx+24]
	mov	QWORD PTR [rcx+24], rax
	mov	rax, QWORD PTR [rdx+32]
	mov	QWORD PTR [rcx+32], rax
	mov	rax, QWORD PTR [rdx+40]
	mov	QWORD PTR [rcx+40], rax
	mov	rax, QWORD PTR [rdx+48]
	mov	QWORD PTR [rcx+48], rax
	mov	rax, QWORD PTR [rdx+56]
	mov	QWORD PTR [rcx+56], rax
$LN5@construct:
	fatret	0
?construct@?$xalloc@URESULT@CDB@@@@QEAAXPEAURESULT@CDB@@AEBU23@@Z ENDP ; xalloc<CDB::RESULT>::construct
; Function compile flags: /Ogtpy
; File c:\program files (x86)\microsoft visual studio 10.0\vc\include\xutility
_TEXT	ENDS
;	COMDAT ??$_Move@PEAVTRI@CDB@@PEAV12@@std@@YAPEAVTRI@CDB@@PEAV12@00@Z
_TEXT	SEGMENT
_First$ = 8
_Last$ = 16
_Dest$ = 24
??$_Move@PEAVTRI@CDB@@PEAV12@@std@@YAPEAVTRI@CDB@@PEAV12@00@Z PROC ; std::_Move<CDB::TRI * __ptr64,CDB::TRI * __ptr64>, COMDAT

; 2533 : 	{	// move [_First, _Last) to [_Dest, ...), unchecked

	mov	rax, r8
	mov	r9, rcx

; 2534 : 	return (_Move(_First, _Last,
; 2535 : 		_Dest, _Ptr_cat(_First, _Dest)));

	cmp	rcx, rdx
	je	SHORT $LN14@Move@4
	npad	5
$LL7@Move@4:
	mov	r8, QWORD PTR [r9]
	add	r9, 24
	add	rax, 24
	mov	QWORD PTR [rax-24], r8
	mov	r8, QWORD PTR [r9-16]
	mov	QWORD PTR [rax-16], r8
	mov	rcx, QWORD PTR [r9-8]
	mov	QWORD PTR [rax-8], rcx
	cmp	r9, rdx
	jne	SHORT $LL7@Move@4
$LN14@Move@4:

; 2536 : 	}

	fatret	0
??$_Move@PEAVTRI@CDB@@PEAV12@@std@@YAPEAVTRI@CDB@@PEAV12@00@Z ENDP ; std::_Move<CDB::TRI * __ptr64,CDB::TRI * __ptr64>
; Function compile flags: /Ogtpy
; File c:\users\nummer\documents\github\olr-3.0\src\xray\xrcore\xrmemory.h
_TEXT	ENDS
;	COMDAT ??$xr_alloc@URESULT@CDB@@@@YAPEAURESULT@CDB@@I@Z
_TEXT	SEGMENT
count$ = 8
??$xr_alloc@URESULT@CDB@@@@YAPEAURESULT@CDB@@I@Z PROC	; xr_alloc<CDB::RESULT>, COMDAT

; 107  : 	IC T*		xr_alloc	(u32 count)				{	return  (T*)Memory.mem_alloc(count*sizeof(T));	}

	mov	edx, ecx
	mov	rcx, QWORD PTR __imp_?Memory@@3VxrMemory@@A
	shl	rdx, 6
	rex_jmp	QWORD PTR __imp_?mem_alloc@xrMemory@@QEAAPEAX_K@Z
??$xr_alloc@URESULT@CDB@@@@YAPEAURESULT@CDB@@I@Z ENDP	; xr_alloc<CDB::RESULT>
; Function compile flags: /Ogtpy
; File c:\program files (x86)\microsoft visual studio 10.0\vc\include\xutility
_TEXT	ENDS
;	COMDAT ??$_Move@PEAU?$_vector3@M@@PEAU1@@std@@YAPEAU?$_vector3@M@@PEAU1@00@Z
_TEXT	SEGMENT
_First$ = 8
_Last$ = 16
_Dest$ = 24
??$_Move@PEAU?$_vector3@M@@PEAU1@@std@@YAPEAU?$_vector3@M@@PEAU1@00@Z PROC ; std::_Move<_vector3<float> * __ptr64,_vector3<float> * __ptr64>, COMDAT

; 2533 : 	{	// move [_First, _Last) to [_Dest, ...), unchecked

	mov	rax, r8

; 2534 : 	return (_Move(_First, _Last,
; 2535 : 		_Dest, _Ptr_cat(_First, _Dest)));

	cmp	rcx, rdx
	je	SHORT $LN14@Move@5
	npad	8
$LL7@Move@5:
	mov	r8, QWORD PTR [rcx]
	add	rcx, 12
	add	rax, 12
	mov	QWORD PTR [rax-12], r8
	mov	r8d, DWORD PTR [rcx-4]
	mov	DWORD PTR [rax-4], r8d
	cmp	rcx, rdx
	jne	SHORT $LL7@Move@5
$LN14@Move@5:

; 2536 : 	}

	fatret	0
??$_Move@PEAU?$_vector3@M@@PEAU1@@std@@YAPEAU?$_vector3@M@@PEAU1@00@Z ENDP ; std::_Move<_vector3<float> * __ptr64,_vector3<float> * __ptr64>
; Function compile flags: /Ogtpy
; File c:\program files (x86)\microsoft visual studio 10.0\vc\include\xmemory
_TEXT	ENDS
;	COMDAT ??$_Destroy_range@V?$xalloc@VTRI@CDB@@@@@std@@YAXPEAVTRI@CDB@@0AEAV?$xalloc@VTRI@CDB@@@@@Z
_TEXT	SEGMENT
??$_Destroy_range@V?$xalloc@VTRI@CDB@@@@@std@@YAXPEAVTRI@CDB@@0AEAV?$xalloc@VTRI@CDB@@@@@Z PROC ; std::_Destroy_range<xalloc<CDB::TRI> >, COMDAT

; 88   : 	_Destroy_range(_First, _Last, _Al, _Ptr_cat(_First, _Last));
; 89   : 	}

	ret	0
??$_Destroy_range@V?$xalloc@VTRI@CDB@@@@@std@@YAXPEAVTRI@CDB@@0AEAV?$xalloc@VTRI@CDB@@@@@Z ENDP ; std::_Destroy_range<xalloc<CDB::TRI> >
_TEXT	ENDS
;	COMDAT pdata
; File c:\users\nummer\documents\github\olr-3.0\src\xray\xrcore\xrmemory.h
pdata	SEGMENT
$pdata$??$xr_free@URESULT@CDB@@@@YAXAEAPEAURESULT@CDB@@@Z DD imagerel $LN4
	DD	imagerel $LN4+43
	DD	imagerel $unwind$??$xr_free@URESULT@CDB@@@@YAXAEAPEAURESULT@CDB@@@Z
pdata	ENDS
;	COMDAT xdata
xdata	SEGMENT
$unwind$??$xr_free@URESULT@CDB@@@@YAXAEAPEAURESULT@CDB@@@Z DD 020601H
	DD	030023206H
; Function compile flags: /Ogtpy
xdata	ENDS
;	COMDAT ??$xr_free@URESULT@CDB@@@@YAXAEAPEAURESULT@CDB@@@Z
_TEXT	SEGMENT
P$ = 48
??$xr_free@URESULT@CDB@@@@YAXAEAPEAURESULT@CDB@@@Z PROC	; xr_free<CDB::RESULT>, COMDAT

; 109  : 	IC void		xr_free		(T* &P)					{	if (P) { Memory.mem_free((void*)P); P=NULL;	};	}

$LN4:
	push	rbx
	sub	rsp, 32					; 00000020H
	mov	rdx, QWORD PTR [rcx]
	mov	rbx, rcx
	test	rdx, rdx
	je	SHORT $LN1@xr_free@9
	mov	rcx, QWORD PTR __imp_?Memory@@3VxrMemory@@A
	call	QWORD PTR __imp_?mem_free@xrMemory@@QEAAXPEAX@Z
	mov	QWORD PTR [rbx], 0
$LN1@xr_free@9:
	add	rsp, 32					; 00000020H
	pop	rbx
	ret	0
??$xr_free@URESULT@CDB@@@@YAXAEAPEAURESULT@CDB@@@Z ENDP	; xr_free<CDB::RESULT>
; Function compile flags: /Ogtpy
; File c:\program files (x86)\microsoft visual studio 10.0\vc\include\xmemory
_TEXT	ENDS
;	COMDAT ??$_Destroy_range@V?$xalloc@URESULT@CDB@@@@@std@@YAXPEAURESULT@CDB@@0AEAV?$xalloc@URESULT@CDB@@@@@Z
_TEXT	SEGMENT
??$_Destroy_range@V?$xalloc@URESULT@CDB@@@@@std@@YAXPEAURESULT@CDB@@0AEAV?$xalloc@URESULT@CDB@@@@@Z PROC ; std::_Destroy_range<xalloc<CDB::RESULT> >, COMDAT

; 88   : 	_Destroy_range(_First, _Last, _Al, _Ptr_cat(_First, _Last));
; 89   : 	}

	ret	0
??$_Destroy_range@V?$xalloc@URESULT@CDB@@@@@std@@YAXPEAURESULT@CDB@@0AEAV?$xalloc@URESULT@CDB@@@@@Z ENDP ; std::_Destroy_range<xalloc<CDB::RESULT> >
; Function compile flags: /Ogtpy
; File c:\program files (x86)\microsoft visual studio 10.0\vc\include\xutility
_TEXT	ENDS
;	COMDAT ??$_Move@PEAURESULT@CDB@@PEAU12@@std@@YAPEAURESULT@CDB@@PEAU12@00@Z
_TEXT	SEGMENT
_First$ = 8
_Last$ = 16
_Dest$ = 24
??$_Move@PEAURESULT@CDB@@PEAU12@@std@@YAPEAURESULT@CDB@@PEAU12@00@Z PROC ; std::_Move<CDB::RESULT * __ptr64,CDB::RESULT * __ptr64>, COMDAT

; 2533 : 	{	// move [_First, _Last) to [_Dest, ...), unchecked

	mov	r9, rcx

; 2534 : 	return (_Move(_First, _Last,
; 2535 : 		_Dest, _Ptr_cat(_First, _Dest)));

	cmp	rcx, rdx
	je	SHORT $LN14@Move@6
	npad	8
$LL7@Move@6:
	mov	rax, QWORD PTR [r9]
	add	r9, 64					; 00000040H
	add	r8, 64					; 00000040H
	mov	QWORD PTR [r8-64], rax
	mov	rax, QWORD PTR [r9-56]
	mov	QWORD PTR [r8-56], rax
	mov	rax, QWORD PTR [r9-48]
	mov	QWORD PTR [r8-48], rax
	mov	rax, QWORD PTR [r9-40]
	mov	QWORD PTR [r8-40], rax
	mov	rcx, QWORD PTR [r9-32]
	mov	QWORD PTR [r8-32], rcx
	mov	rcx, QWORD PTR [r9-24]
	mov	QWORD PTR [r8-24], rcx
	mov	rcx, QWORD PTR [r9-16]
	mov	QWORD PTR [r8-16], rcx
	mov	rcx, QWORD PTR [r9-8]
	mov	QWORD PTR [r8-8], rcx
	cmp	r9, rdx
	jne	SHORT $LL7@Move@6
$LN14@Move@6:
	mov	rax, r8

; 2536 : 	}

	ret	0
??$_Move@PEAURESULT@CDB@@PEAU12@@std@@YAPEAURESULT@CDB@@PEAU12@00@Z ENDP ; std::_Move<CDB::RESULT * __ptr64,CDB::RESULT * __ptr64>
; Function compile flags: /Ogtpy
; File c:\program files (x86)\microsoft visual studio 10.0\vc\include\xmemory
_TEXT	ENDS
;	COMDAT ??$_Destroy_range@V?$xalloc@U?$_vector3@M@@@@@std@@YAXPEAU?$_vector3@M@@0AEAV?$xalloc@U?$_vector3@M@@@@@Z
_TEXT	SEGMENT
??$_Destroy_range@V?$xalloc@U?$_vector3@M@@@@@std@@YAXPEAU?$_vector3@M@@0AEAV?$xalloc@U?$_vector3@M@@@@@Z PROC ; std::_Destroy_range<xalloc<_vector3<float> > >, COMDAT

; 88   : 	_Destroy_range(_First, _Last, _Al, _Ptr_cat(_First, _Last));
; 89   : 	}

	ret	0
??$_Destroy_range@V?$xalloc@U?$_vector3@M@@@@@std@@YAXPEAU?$_vector3@M@@0AEAV?$xalloc@U?$_vector3@M@@@@@Z ENDP ; std::_Destroy_range<xalloc<_vector3<float> > >
; Function compile flags: /Ogtpy
; File c:\program files (x86)\microsoft visual studio 10.0\vc\include\xutility
_TEXT	ENDS
;	COMDAT ??$_Copy_impl@PEAVTRI@CDB@@PEAV12@@std@@YAPEAVTRI@CDB@@PEAV12@00@Z
_TEXT	SEGMENT
_First$ = 8
_Last$ = 16
_Dest$ = 24
??$_Copy_impl@PEAVTRI@CDB@@PEAV12@@std@@YAPEAVTRI@CDB@@PEAV12@00@Z PROC ; std::_Copy_impl<CDB::TRI * __ptr64,CDB::TRI * __ptr64>, COMDAT

; 2163 : 	{	// copy [_First, _Last) to [_Dest, ...)

	mov	rax, r8
	mov	r9, rcx

; 2164 : 	return (_Copy_impl(_First, _Last,
; 2165 : 		_Dest, _Ptr_cat(_First, _Dest)));

	cmp	rcx, rdx
	je	SHORT $LN12@Copy_impl@4
	npad	5
$LL7@Copy_impl@4:
	mov	r8, QWORD PTR [r9]
	add	r9, 24
	add	rax, 24
	mov	QWORD PTR [rax-24], r8
	mov	r8, QWORD PTR [r9-16]
	mov	QWORD PTR [rax-16], r8
	mov	rcx, QWORD PTR [r9-8]
	mov	QWORD PTR [rax-8], rcx
	cmp	r9, rdx
	jne	SHORT $LL7@Copy_impl@4
$LN12@Copy_impl@4:

; 2166 : 	}

	fatret	0
??$_Copy_impl@PEAVTRI@CDB@@PEAV12@@std@@YAPEAVTRI@CDB@@PEAV12@00@Z ENDP ; std::_Copy_impl<CDB::TRI * __ptr64,CDB::TRI * __ptr64>
; Function compile flags: /Ogtpy
_TEXT	ENDS
;	COMDAT ??$_Copy_impl@PEAURESULT@CDB@@PEAU12@@std@@YAPEAURESULT@CDB@@PEAU12@00@Z
_TEXT	SEGMENT
_First$ = 8
_Last$ = 16
_Dest$ = 24
??$_Copy_impl@PEAURESULT@CDB@@PEAU12@@std@@YAPEAURESULT@CDB@@PEAU12@00@Z PROC ; std::_Copy_impl<CDB::RESULT * __ptr64,CDB::RESULT * __ptr64>, COMDAT

; 2163 : 	{	// copy [_First, _Last) to [_Dest, ...)

	mov	r9, rcx

; 2164 : 	return (_Copy_impl(_First, _Last,
; 2165 : 		_Dest, _Ptr_cat(_First, _Dest)));

	cmp	rcx, rdx
	je	SHORT $LN12@Copy_impl@5
	npad	8
$LL7@Copy_impl@5:
	mov	rax, QWORD PTR [r9]
	add	r9, 64					; 00000040H
	add	r8, 64					; 00000040H
	mov	QWORD PTR [r8-64], rax
	mov	rax, QWORD PTR [r9-56]
	mov	QWORD PTR [r8-56], rax
	mov	rax, QWORD PTR [r9-48]
	mov	QWORD PTR [r8-48], rax
	mov	rax, QWORD PTR [r9-40]
	mov	QWORD PTR [r8-40], rax
	mov	rcx, QWORD PTR [r9-32]
	mov	QWORD PTR [r8-32], rcx
	mov	rcx, QWORD PTR [r9-24]
	mov	QWORD PTR [r8-24], rcx
	mov	rcx, QWORD PTR [r9-16]
	mov	QWORD PTR [r8-16], rcx
	mov	rcx, QWORD PTR [r9-8]
	mov	QWORD PTR [r8-8], rcx
	cmp	r9, rdx
	jne	SHORT $LL7@Copy_impl@5
$LN12@Copy_impl@5:
	mov	rax, r8

; 2166 : 	}

	ret	0
??$_Copy_impl@PEAURESULT@CDB@@PEAU12@@std@@YAPEAURESULT@CDB@@PEAU12@00@Z ENDP ; std::_Copy_impl<CDB::RESULT * __ptr64,CDB::RESULT * __ptr64>
; Function compile flags: /Ogtpy
; File c:\program files (x86)\microsoft visual studio 10.0\vc\include\utility
_TEXT	ENDS
;	COMDAT ??$forward@URESULT@CDB@@@std@@YA$$QEAURESULT@CDB@@AEAU12@@Z
_TEXT	SEGMENT
_Arg$ = 8
??$forward@URESULT@CDB@@@std@@YA$$QEAURESULT@CDB@@AEAU12@@Z PROC ; std::forward<CDB::RESULT>, COMDAT

; 79   : 	return ((_Ty&&)_Arg);

	mov	rax, rcx

; 80   : 	}

	ret	0
??$forward@URESULT@CDB@@@std@@YA$$QEAURESULT@CDB@@AEAU12@@Z ENDP ; std::forward<CDB::RESULT>
; Function compile flags: /Ogtpy
; File c:\program files (x86)\microsoft visual studio 10.0\vc\include\xmemory
_TEXT	ENDS
;	COMDAT ??$addressof@URESULT@CDB@@@std@@YAPEAURESULT@CDB@@AEAU12@@Z
_TEXT	SEGMENT
_Val$ = 8
??$addressof@URESULT@CDB@@@std@@YAPEAURESULT@CDB@@AEAU12@@Z PROC ; std::addressof<CDB::RESULT>, COMDAT

; 111  : 	return ((_Ty *) &(char&)_Val);

	mov	rax, rcx

; 112  : 	}

	ret	0
??$addressof@URESULT@CDB@@@std@@YAPEAURESULT@CDB@@AEAU12@@Z ENDP ; std::addressof<CDB::RESULT>
; Function compile flags: /Ogtpy
; File c:\program files (x86)\microsoft visual studio 10.0\vc\include\xutility
_TEXT	ENDS
;	COMDAT ??$_Copy_impl@PEAU?$_vector3@M@@PEAU1@@std@@YAPEAU?$_vector3@M@@PEAU1@00@Z
_TEXT	SEGMENT
_First$ = 8
_Last$ = 16
_Dest$ = 24
??$_Copy_impl@PEAU?$_vector3@M@@PEAU1@@std@@YAPEAU?$_vector3@M@@PEAU1@00@Z PROC ; std::_Copy_impl<_vector3<float> * __ptr64,_vector3<float> * __ptr64>, COMDAT

; 2163 : 	{	// copy [_First, _Last) to [_Dest, ...)

	mov	rax, r8

; 2164 : 	return (_Copy_impl(_First, _Last,
; 2165 : 		_Dest, _Ptr_cat(_First, _Dest)));

	cmp	rcx, rdx
	je	SHORT $LN12@Copy_impl@6
	npad	8
$LL7@Copy_impl@6:
	mov	r8, QWORD PTR [rcx]
	add	rcx, 12
	add	rax, 12
	mov	QWORD PTR [rax-12], r8
	mov	r8d, DWORD PTR [rcx-4]
	mov	DWORD PTR [rax-4], r8d
	cmp	rcx, rdx
	jne	SHORT $LL7@Copy_impl@6
$LN12@Copy_impl@6:

; 2166 : 	}

	fatret	0
??$_Copy_impl@PEAU?$_vector3@M@@PEAU1@@std@@YAPEAU?$_vector3@M@@PEAU1@00@Z ENDP ; std::_Copy_impl<_vector3<float> * __ptr64,_vector3<float> * __ptr64>
_TEXT	ENDS
;	COMDAT pdata
; File c:\users\nummer\documents\github\olr-3.0\src\xray\xrcdb\opc_model.cpp
pdata	SEGMENT
$pdata$??$xr_new@VOPCODE_Model@Opcode@@@@YAPEAVOPCODE_Model@Opcode@@XZ DD imagerel $LN9
	DD	imagerel $LN9+58
	DD	imagerel $unwind$??$xr_new@VOPCODE_Model@Opcode@@@@YAPEAVOPCODE_Model@Opcode@@XZ
pdata	ENDS
;	COMDAT xdata
xdata	SEGMENT
$unwind$??$xr_new@VOPCODE_Model@Opcode@@@@YAPEAVOPCODE_Model@Opcode@@XZ DD 010401H
	DD	04204H
; Function compile flags: /Ogtpy
; File c:\users\nummer\documents\github\olr-3.0\src\xray\xrcore\xrmemory_subst_msvc.h
xdata	ENDS
;	COMDAT ??$xr_new@VOPCODE_Model@Opcode@@@@YAPEAVOPCODE_Model@Opcode@@XZ
_TEXT	SEGMENT
??$xr_new@VOPCODE_Model@Opcode@@@@YAPEAVOPCODE_Model@Opcode@@XZ PROC ; xr_new<Opcode::OPCODE_Model>, COMDAT

; 67   : {

$LN9:
	sub	rsp, 40					; 00000028H

; 68   : 	T* ptr	= (T*)Memory.mem_alloc(sizeof(T));

	mov	rcx, QWORD PTR __imp_?Memory@@3VxrMemory@@A
	mov	edx, 24
	call	QWORD PTR __imp_?mem_alloc@xrMemory@@QEAAPEAX_K@Z

; 69   : 	return new (ptr) T();

	test	rax, rax
	je	SHORT $LN3@xr_new
	mov	QWORD PTR [rax], 0
	mov	QWORD PTR [rax+8], 0
	mov	WORD PTR [rax+16], 0

; 70   : }

	add	rsp, 40					; 00000028H
	ret	0
$LN3@xr_new:
	add	rsp, 40					; 00000028H
	ret	0
??$xr_new@VOPCODE_Model@Opcode@@@@YAPEAVOPCODE_Model@Opcode@@XZ ENDP ; xr_new<Opcode::OPCODE_Model>
; Function compile flags: /Ogtpy
; File c:\users\nummer\documents\github\olr-3.0\src\xray\xrcore\xrmemory.h
_TEXT	ENDS
;	COMDAT ??$xr_alloc@I@@YAPEAII@Z
_TEXT	SEGMENT
count$ = 8
??$xr_alloc@I@@YAPEAII@Z PROC				; xr_alloc<unsigned int>, COMDAT

; 107  : 	IC T*		xr_alloc	(u32 count)				{	return  (T*)Memory.mem_alloc(count*sizeof(T));	}

	mov	edx, ecx
	mov	rcx, QWORD PTR __imp_?Memory@@3VxrMemory@@A
	shl	rdx, 2
	rex_jmp	QWORD PTR __imp_?mem_alloc@xrMemory@@QEAAPEAX_K@Z
??$xr_alloc@I@@YAPEAII@Z ENDP				; xr_alloc<unsigned int>
; Function compile flags: /Ogtpy
_TEXT	ENDS
;	COMDAT ??$xr_alloc@VTRI@CDB@@@@YAPEAVTRI@CDB@@I@Z
_TEXT	SEGMENT
count$ = 8
??$xr_alloc@VTRI@CDB@@@@YAPEAVTRI@CDB@@I@Z PROC		; xr_alloc<CDB::TRI>, COMDAT

; 107  : 	IC T*		xr_alloc	(u32 count)				{	return  (T*)Memory.mem_alloc(count*sizeof(T));	}

	mov	eax, ecx
	mov	rcx, QWORD PTR __imp_?Memory@@3VxrMemory@@A
	lea	rdx, QWORD PTR [rax+rax*2]
	shl	rdx, 3
	rex_jmp	QWORD PTR __imp_?mem_alloc@xrMemory@@QEAAPEAX_K@Z
??$xr_alloc@VTRI@CDB@@@@YAPEAVTRI@CDB@@I@Z ENDP		; xr_alloc<CDB::TRI>
; Function compile flags: /Ogtpy
_TEXT	ENDS
;	COMDAT ??$xr_alloc@U?$_vector3@M@@@@YAPEAU?$_vector3@M@@I@Z
_TEXT	SEGMENT
count$ = 8
??$xr_alloc@U?$_vector3@M@@@@YAPEAU?$_vector3@M@@I@Z PROC ; xr_alloc<_vector3<float> >, COMDAT

; 107  : 	IC T*		xr_alloc	(u32 count)				{	return  (T*)Memory.mem_alloc(count*sizeof(T));	}

	mov	eax, ecx
	mov	rcx, QWORD PTR __imp_?Memory@@3VxrMemory@@A
	lea	rdx, QWORD PTR [rax+rax*2]
	shl	rdx, 2
	rex_jmp	QWORD PTR __imp_?mem_alloc@xrMemory@@QEAAPEAX_K@Z
??$xr_alloc@U?$_vector3@M@@@@YAPEAU?$_vector3@M@@I@Z ENDP ; xr_alloc<_vector3<float> >
_TEXT	ENDS
;	COMDAT pdata
pdata	SEGMENT
$pdata$??$xr_free@U?$_vector3@M@@@@YAXAEAPEAU?$_vector3@M@@@Z DD imagerel $LN4
	DD	imagerel $LN4+43
	DD	imagerel $unwind$??$xr_free@U?$_vector3@M@@@@YAXAEAPEAU?$_vector3@M@@@Z
pdata	ENDS
;	COMDAT xdata
xdata	SEGMENT
$unwind$??$xr_free@U?$_vector3@M@@@@YAXAEAPEAU?$_vector3@M@@@Z DD 020601H
	DD	030023206H
; Function compile flags: /Ogtpy
xdata	ENDS
;	COMDAT ??$xr_free@U?$_vector3@M@@@@YAXAEAPEAU?$_vector3@M@@@Z
_TEXT	SEGMENT
P$ = 48
??$xr_free@U?$_vector3@M@@@@YAXAEAPEAU?$_vector3@M@@@Z PROC ; xr_free<_vector3<float> >, COMDAT

; 109  : 	IC void		xr_free		(T* &P)					{	if (P) { Memory.mem_free((void*)P); P=NULL;	};	}

$LN4:
	push	rbx
	sub	rsp, 32					; 00000020H
	mov	rdx, QWORD PTR [rcx]
	mov	rbx, rcx
	test	rdx, rdx
	je	SHORT $LN1@xr_free@10
	mov	rcx, QWORD PTR __imp_?Memory@@3VxrMemory@@A
	call	QWORD PTR __imp_?mem_free@xrMemory@@QEAAXPEAX@Z
	mov	QWORD PTR [rbx], 0
$LN1@xr_free@10:
	add	rsp, 32					; 00000020H
	pop	rbx
	ret	0
??$xr_free@U?$_vector3@M@@@@YAXAEAPEAU?$_vector3@M@@@Z ENDP ; xr_free<_vector3<float> >
_TEXT	ENDS
;	COMDAT pdata
pdata	SEGMENT
$pdata$??$xr_free@VTRI@CDB@@@@YAXAEAPEAVTRI@CDB@@@Z DD imagerel $LN4
	DD	imagerel $LN4+43
	DD	imagerel $unwind$??$xr_free@VTRI@CDB@@@@YAXAEAPEAVTRI@CDB@@@Z
pdata	ENDS
;	COMDAT xdata
xdata	SEGMENT
$unwind$??$xr_free@VTRI@CDB@@@@YAXAEAPEAVTRI@CDB@@@Z DD 020601H
	DD	030023206H
; Function compile flags: /Ogtpy
xdata	ENDS
;	COMDAT ??$xr_free@VTRI@CDB@@@@YAXAEAPEAVTRI@CDB@@@Z
_TEXT	SEGMENT
P$ = 48
??$xr_free@VTRI@CDB@@@@YAXAEAPEAVTRI@CDB@@@Z PROC	; xr_free<CDB::TRI>, COMDAT

; 109  : 	IC void		xr_free		(T* &P)					{	if (P) { Memory.mem_free((void*)P); P=NULL;	};	}

$LN4:
	push	rbx
	sub	rsp, 32					; 00000020H
	mov	rdx, QWORD PTR [rcx]
	mov	rbx, rcx
	test	rdx, rdx
	je	SHORT $LN1@xr_free@11
	mov	rcx, QWORD PTR __imp_?Memory@@3VxrMemory@@A
	call	QWORD PTR __imp_?mem_free@xrMemory@@QEAAXPEAX@Z
	mov	QWORD PTR [rbx], 0
$LN1@xr_free@11:
	add	rsp, 32					; 00000020H
	pop	rbx
	ret	0
??$xr_free@VTRI@CDB@@@@YAXAEAPEAVTRI@CDB@@@Z ENDP	; xr_free<CDB::TRI>
; Function compile flags: /Ogtpy
; File c:\program files (x86)\microsoft visual studio 10.0\vc\include\vector
_TEXT	ENDS
;	COMDAT ?_Compat@?$_Vector_const_iterator@V?$_Vector_val@VTRI@CDB@@V?$xalloc@VTRI@CDB@@@@@std@@@std@@QEBAXAEBV12@@Z
_TEXT	SEGMENT
?_Compat@?$_Vector_const_iterator@V?$_Vector_val@VTRI@CDB@@V?$xalloc@VTRI@CDB@@@@@std@@@std@@QEBAXAEBV12@@Z PROC ; std::_Vector_const_iterator<std::_Vector_val<CDB::TRI,xalloc<CDB::TRI> > >::_Compat, COMDAT

; 253  : 		}

	ret	0
?_Compat@?$_Vector_const_iterator@V?$_Vector_val@VTRI@CDB@@V?$xalloc@VTRI@CDB@@@@@std@@@std@@QEBAXAEBV12@@Z ENDP ; std::_Vector_const_iterator<std::_Vector_val<CDB::TRI,xalloc<CDB::TRI> > >::_Compat
; Function compile flags: /Ogtpy
_TEXT	ENDS
;	COMDAT ?_Compat@?$_Vector_const_iterator@V?$_Vector_val@U?$_vector3@M@@V?$xalloc@U?$_vector3@M@@@@@std@@@std@@QEBAXAEBV12@@Z
_TEXT	SEGMENT
?_Compat@?$_Vector_const_iterator@V?$_Vector_val@U?$_vector3@M@@V?$xalloc@U?$_vector3@M@@@@@std@@@std@@QEBAXAEBV12@@Z PROC ; std::_Vector_const_iterator<std::_Vector_val<_vector3<float>,xalloc<_vector3<float> > > >::_Compat, COMDAT

; 253  : 		}

	ret	0
?_Compat@?$_Vector_const_iterator@V?$_Vector_val@U?$_vector3@M@@V?$xalloc@U?$_vector3@M@@@@@std@@@std@@QEBAXAEBV12@@Z ENDP ; std::_Vector_const_iterator<std::_Vector_val<_vector3<float>,xalloc<_vector3<float> > > >::_Compat
; Function compile flags: /Ogtpy
_TEXT	ENDS
;	COMDAT ??8?$_Vector_const_iterator@V?$_Vector_val@VTRI@CDB@@V?$xalloc@VTRI@CDB@@@@@std@@@std@@QEBA_NAEBV01@@Z
_TEXT	SEGMENT
this$ = 8
_Right$ = 16
??8?$_Vector_const_iterator@V?$_Vector_val@VTRI@CDB@@V?$xalloc@VTRI@CDB@@@@@std@@@std@@QEBA_NAEBV01@@Z PROC ; std::_Vector_const_iterator<std::_Vector_val<CDB::TRI,xalloc<CDB::TRI> > >::operator==, COMDAT

; 202  : 		_Compat(_Right);
; 203  : 		return (this->_Ptr == _Right._Ptr);

	mov	rdx, QWORD PTR [rdx]
	cmp	QWORD PTR [rcx], rdx
	sete	al

; 204  : 		}

	ret	0
??8?$_Vector_const_iterator@V?$_Vector_val@VTRI@CDB@@V?$xalloc@VTRI@CDB@@@@@std@@@std@@QEBA_NAEBV01@@Z ENDP ; std::_Vector_const_iterator<std::_Vector_val<CDB::TRI,xalloc<CDB::TRI> > >::operator==
; Function compile flags: /Ogtpy
_TEXT	ENDS
;	COMDAT ??8?$_Vector_const_iterator@V?$_Vector_val@U?$_vector3@M@@V?$xalloc@U?$_vector3@M@@@@@std@@@std@@QEBA_NAEBV01@@Z
_TEXT	SEGMENT
this$ = 8
_Right$ = 16
??8?$_Vector_const_iterator@V?$_Vector_val@U?$_vector3@M@@V?$xalloc@U?$_vector3@M@@@@@std@@@std@@QEBA_NAEBV01@@Z PROC ; std::_Vector_const_iterator<std::_Vector_val<_vector3<float>,xalloc<_vector3<float> > > >::operator==, COMDAT

; 202  : 		_Compat(_Right);
; 203  : 		return (this->_Ptr == _Right._Ptr);

	mov	rdx, QWORD PTR [rdx]
	cmp	QWORD PTR [rcx], rdx
	sete	al

; 204  : 		}

	ret	0
??8?$_Vector_const_iterator@V?$_Vector_val@U?$_vector3@M@@V?$xalloc@U?$_vector3@M@@@@@std@@@std@@QEBA_NAEBV01@@Z ENDP ; std::_Vector_const_iterator<std::_Vector_val<_vector3<float>,xalloc<_vector3<float> > > >::operator==
; Function compile flags: /Ogtpy
_TEXT	ENDS
;	COMDAT ?_Compat@?$_Vector_const_iterator@V?$_Vector_val@URESULT@CDB@@V?$xalloc@URESULT@CDB@@@@@std@@@std@@QEBAXAEBV12@@Z
_TEXT	SEGMENT
?_Compat@?$_Vector_const_iterator@V?$_Vector_val@URESULT@CDB@@V?$xalloc@URESULT@CDB@@@@@std@@@std@@QEBAXAEBV12@@Z PROC ; std::_Vector_const_iterator<std::_Vector_val<CDB::RESULT,xalloc<CDB::RESULT> > >::_Compat, COMDAT

; 253  : 		}

	ret	0
?_Compat@?$_Vector_const_iterator@V?$_Vector_val@URESULT@CDB@@V?$xalloc@URESULT@CDB@@@@@std@@@std@@QEBAXAEBV12@@Z ENDP ; std::_Vector_const_iterator<std::_Vector_val<CDB::RESULT,xalloc<CDB::RESULT> > >::_Compat
; Function compile flags: /Ogtpy
_TEXT	ENDS
;	COMDAT ??Y?$_Vector_const_iterator@V?$_Vector_val@URESULT@CDB@@V?$xalloc@URESULT@CDB@@@@@std@@@std@@QEAAAEAV01@_J@Z
_TEXT	SEGMENT
this$ = 8
??Y?$_Vector_const_iterator@V?$_Vector_val@URESULT@CDB@@V?$xalloc@URESULT@CDB@@@@@std@@@std@@QEAAAEAV01@_J@Z PROC ; std::_Vector_const_iterator<std::_Vector_val<CDB::RESULT,xalloc<CDB::RESULT> > >::operator+=, COMDAT

; 152  :  #if _ITERATOR_DEBUG_LEVEL == 2
; 153  : 		if (this->_Getcont() == 0
; 154  : 			|| this->_Ptr + _Off < ((_Myvec *)this->_Getcont())->_Myfirst
; 155  : 			|| ((_Myvec *)this->_Getcont())->_Mylast < this->_Ptr + _Off)
; 156  : 			{	// report error
; 157  : 			_DEBUG_ERROR("vector iterator + offset out of range");
; 158  : 			_SCL_SECURE_OUT_OF_RANGE;
; 159  : 			}
; 160  : 
; 161  :  #elif _ITERATOR_DEBUG_LEVEL == 1
; 162  : 		_SCL_SECURE_VALIDATE(this->_Getcont() != 0);
; 163  : 		_SCL_SECURE_VALIDATE_RANGE(
; 164  : 			((_Myvec *)this->_Getcont())->_Myfirst <= this->_Ptr + _Off
; 165  : 			&& this->_Ptr + _Off <= ((_Myvec *)this->_Getcont())->_Mylast);
; 166  :  #endif /* _ITERATOR_DEBUG_LEVEL */
; 167  : 
; 168  : 		_Ptr += _Off;

	add	QWORD PTR [rcx], -64			; ffffffffffffffc0H

; 169  : 		return (*this);

	mov	rax, rcx

; 170  : 		}

	ret	0
??Y?$_Vector_const_iterator@V?$_Vector_val@URESULT@CDB@@V?$xalloc@URESULT@CDB@@@@@std@@@std@@QEAAAEAV01@_J@Z ENDP ; std::_Vector_const_iterator<std::_Vector_val<CDB::RESULT,xalloc<CDB::RESULT> > >::operator+=
; Function compile flags: /Ogtpy
_TEXT	ENDS
;	COMDAT ??9?$_Vector_const_iterator@V?$_Vector_val@VTRI@CDB@@V?$xalloc@VTRI@CDB@@@@@std@@@std@@QEBA_NAEBV01@@Z
_TEXT	SEGMENT
this$ = 8
_Right$ = 16
??9?$_Vector_const_iterator@V?$_Vector_val@VTRI@CDB@@V?$xalloc@VTRI@CDB@@@@@std@@@std@@QEBA_NAEBV01@@Z PROC ; std::_Vector_const_iterator<std::_Vector_val<CDB::TRI,xalloc<CDB::TRI> > >::operator!=, COMDAT

; 208  : 		return (!(*this == _Right));

	mov	rdx, QWORD PTR [rdx]
	cmp	QWORD PTR [rcx], rdx
	setne	al

; 209  : 		}

	ret	0
??9?$_Vector_const_iterator@V?$_Vector_val@VTRI@CDB@@V?$xalloc@VTRI@CDB@@@@@std@@@std@@QEBA_NAEBV01@@Z ENDP ; std::_Vector_const_iterator<std::_Vector_val<CDB::TRI,xalloc<CDB::TRI> > >::operator!=
; Function compile flags: /Ogtpy
_TEXT	ENDS
;	COMDAT ??9?$_Vector_const_iterator@V?$_Vector_val@U?$_vector3@M@@V?$xalloc@U?$_vector3@M@@@@@std@@@std@@QEBA_NAEBV01@@Z
_TEXT	SEGMENT
this$ = 8
_Right$ = 16
??9?$_Vector_const_iterator@V?$_Vector_val@U?$_vector3@M@@V?$xalloc@U?$_vector3@M@@@@@std@@@std@@QEBA_NAEBV01@@Z PROC ; std::_Vector_const_iterator<std::_Vector_val<_vector3<float>,xalloc<_vector3<float> > > >::operator!=, COMDAT

; 208  : 		return (!(*this == _Right));

	mov	rdx, QWORD PTR [rdx]
	cmp	QWORD PTR [rcx], rdx
	setne	al

; 209  : 		}

	ret	0
??9?$_Vector_const_iterator@V?$_Vector_val@U?$_vector3@M@@V?$xalloc@U?$_vector3@M@@@@@std@@@std@@QEBA_NAEBV01@@Z ENDP ; std::_Vector_const_iterator<std::_Vector_val<_vector3<float>,xalloc<_vector3<float> > > >::operator!=
; Function compile flags: /Ogtpy
; File c:\users\nummer\documents\github\olr-3.0\src\xray\xrcore\_stl_extensions.h
_TEXT	ENDS
;	COMDAT ?max_size@?$xalloc@VTRI@CDB@@@@QEBA_KXZ
_TEXT	SEGMENT
?max_size@?$xalloc@VTRI@CDB@@@@QEBA_KXZ PROC		; xalloc<CDB::TRI>::max_size, COMDAT

; 86   : 							size_type				max_size		() const								{	size_type _Count = (size_type)(-1) / sizeof (T);	return (0 < _Count ? _Count : 1);	}

	mov	rax, 768614336404564650			; 0aaaaaaaaaaaaaaaH
	ret	0
?max_size@?$xalloc@VTRI@CDB@@@@QEBA_KXZ ENDP		; xalloc<CDB::TRI>::max_size
; Function compile flags: /Ogtpy
; File c:\program files (x86)\microsoft visual studio 10.0\vc\include\vector
_TEXT	ENDS
;	COMDAT ??8?$_Vector_const_iterator@V?$_Vector_val@URESULT@CDB@@V?$xalloc@URESULT@CDB@@@@@std@@@std@@QEBA_NAEBV01@@Z
_TEXT	SEGMENT
this$ = 8
_Right$ = 16
??8?$_Vector_const_iterator@V?$_Vector_val@URESULT@CDB@@V?$xalloc@URESULT@CDB@@@@@std@@@std@@QEBA_NAEBV01@@Z PROC ; std::_Vector_const_iterator<std::_Vector_val<CDB::RESULT,xalloc<CDB::RESULT> > >::operator==, COMDAT

; 202  : 		_Compat(_Right);
; 203  : 		return (this->_Ptr == _Right._Ptr);

	mov	rdx, QWORD PTR [rdx]
	cmp	QWORD PTR [rcx], rdx
	sete	al

; 204  : 		}

	ret	0
??8?$_Vector_const_iterator@V?$_Vector_val@URESULT@CDB@@V?$xalloc@URESULT@CDB@@@@@std@@@std@@QEBA_NAEBV01@@Z ENDP ; std::_Vector_const_iterator<std::_Vector_val<CDB::RESULT,xalloc<CDB::RESULT> > >::operator==
; Function compile flags: /Ogtpy
_TEXT	ENDS
;	COMDAT ??Y?$_Vector_iterator@V?$_Vector_val@URESULT@CDB@@V?$xalloc@URESULT@CDB@@@@@std@@@std@@QEAAAEAV01@_J@Z
_TEXT	SEGMENT
this$ = 8
??Y?$_Vector_iterator@V?$_Vector_val@URESULT@CDB@@V?$xalloc@URESULT@CDB@@@@@std@@@std@@QEAAAEAV01@_J@Z PROC ; std::_Vector_iterator<std::_Vector_val<CDB::RESULT,xalloc<CDB::RESULT> > >::operator+=, COMDAT

; 358  : 		*(_Mybase *)this += _Off;

	add	QWORD PTR [rcx], -64			; ffffffffffffffc0H

; 359  : 		return (*this);

	mov	rax, rcx

; 360  : 		}

	ret	0
??Y?$_Vector_iterator@V?$_Vector_val@URESULT@CDB@@V?$xalloc@URESULT@CDB@@@@@std@@@std@@QEAAAEAV01@_J@Z ENDP ; std::_Vector_iterator<std::_Vector_val<CDB::RESULT,xalloc<CDB::RESULT> > >::operator+=
; Function compile flags: /Ogtpy
; File c:\users\nummer\documents\github\olr-3.0\src\xray\xrcore\_stl_extensions.h
_TEXT	ENDS
;	COMDAT ?max_size@?$xalloc@URESULT@CDB@@@@QEBA_KXZ
_TEXT	SEGMENT
?max_size@?$xalloc@URESULT@CDB@@@@QEBA_KXZ PROC		; xalloc<CDB::RESULT>::max_size, COMDAT

; 86   : 							size_type				max_size		() const								{	size_type _Count = (size_type)(-1) / sizeof (T);	return (0 < _Count ? _Count : 1);	}

	mov	rax, 288230376151711743			; 03ffffffffffffffH
	ret	0
?max_size@?$xalloc@URESULT@CDB@@@@QEBA_KXZ ENDP		; xalloc<CDB::RESULT>::max_size
; Function compile flags: /Ogtpy
_TEXT	ENDS
;	COMDAT ?max_size@?$xalloc@U?$_vector3@M@@@@QEBA_KXZ
_TEXT	SEGMENT
?max_size@?$xalloc@U?$_vector3@M@@@@QEBA_KXZ PROC	; xalloc<_vector3<float> >::max_size, COMDAT

; 86   : 							size_type				max_size		() const								{	size_type _Count = (size_type)(-1) / sizeof (T);	return (0 < _Count ? _Count : 1);	}

	mov	rax, 1537228672809129301		; 1555555555555555H
	ret	0
?max_size@?$xalloc@U?$_vector3@M@@@@QEBA_KXZ ENDP	; xalloc<_vector3<float> >::max_size
; Function compile flags: /Ogtpy
; File c:\program files (x86)\microsoft visual studio 10.0\vc\include\vector
_TEXT	ENDS
;	COMDAT ??0?$_Vector_const_iterator@V?$_Vector_val@VTRI@CDB@@V?$xalloc@VTRI@CDB@@@@@std@@@std@@QEAA@PEAVTRI@CDB@@PEBU_Container_base0@1@@Z
_TEXT	SEGMENT
this$ = 8
_Parg$ = 16
??0?$_Vector_const_iterator@V?$_Vector_val@VTRI@CDB@@V?$xalloc@VTRI@CDB@@@@@std@@@std@@QEAA@PEAVTRI@CDB@@PEBU_Container_base0@1@@Z PROC ; std::_Vector_const_iterator<std::_Vector_val<CDB::TRI,xalloc<CDB::TRI> > >::_Vector_const_iterator<std::_Vector_val<CDB::TRI,xalloc<CDB::TRI> > >, COMDAT

; 45   : 		{	// construct with pointer _Parg

	mov	QWORD PTR [rcx], rdx

; 46   : 		this->_Adopt(_Pvector);
; 47   : 		}

	mov	rax, rcx
	ret	0
??0?$_Vector_const_iterator@V?$_Vector_val@VTRI@CDB@@V?$xalloc@VTRI@CDB@@@@@std@@@std@@QEAA@PEAVTRI@CDB@@PEBU_Container_base0@1@@Z ENDP ; std::_Vector_const_iterator<std::_Vector_val<CDB::TRI,xalloc<CDB::TRI> > >::_Vector_const_iterator<std::_Vector_val<CDB::TRI,xalloc<CDB::TRI> > >
; Function compile flags: /Ogtpy
_TEXT	ENDS
;	COMDAT ??0?$_Vector_const_iterator@V?$_Vector_val@U?$_vector3@M@@V?$xalloc@U?$_vector3@M@@@@@std@@@std@@QEAA@PEAU?$_vector3@M@@PEBU_Container_base0@1@@Z
_TEXT	SEGMENT
this$ = 8
_Parg$ = 16
??0?$_Vector_const_iterator@V?$_Vector_val@U?$_vector3@M@@V?$xalloc@U?$_vector3@M@@@@@std@@@std@@QEAA@PEAU?$_vector3@M@@PEBU_Container_base0@1@@Z PROC ; std::_Vector_const_iterator<std::_Vector_val<_vector3<float>,xalloc<_vector3<float> > > >::_Vector_const_iterator<std::_Vector_val<_vector3<float>,xalloc<_vector3<float> > > >, COMDAT

; 45   : 		{	// construct with pointer _Parg

	mov	QWORD PTR [rcx], rdx

; 46   : 		this->_Adopt(_Pvector);
; 47   : 		}

	mov	rax, rcx
	ret	0
??0?$_Vector_const_iterator@V?$_Vector_val@U?$_vector3@M@@V?$xalloc@U?$_vector3@M@@@@@std@@@std@@QEAA@PEAU?$_vector3@M@@PEBU_Container_base0@1@@Z ENDP ; std::_Vector_const_iterator<std::_Vector_val<_vector3<float>,xalloc<_vector3<float> > > >::_Vector_const_iterator<std::_Vector_val<_vector3<float>,xalloc<_vector3<float> > > >
; Function compile flags: /Ogtpy
; File c:\users\nummer\documents\github\olr-3.0\src\xray\xrcore\_stl_extensions.h
_TEXT	ENDS
;	COMDAT ?allocate@?$xalloc@VTRI@CDB@@@@QEBAPEAVTRI@CDB@@_KPEBX@Z
_TEXT	SEGMENT
n$ = 8
?allocate@?$xalloc@VTRI@CDB@@@@QEBAPEAVTRI@CDB@@_KPEBX@Z PROC ; xalloc<CDB::TRI>::allocate, COMDAT

; 80   : 							pointer					allocate		(size_type n, const void* p=0) const	{	return xr_alloc<T>((u32)n);	}

	mov	eax, ecx
	mov	rcx, QWORD PTR __imp_?Memory@@3VxrMemory@@A
	lea	rdx, QWORD PTR [rax+rax*2]
	shl	rdx, 3
	rex_jmp	QWORD PTR __imp_?mem_alloc@xrMemory@@QEAAPEAX_K@Z
?allocate@?$xalloc@VTRI@CDB@@@@QEBAPEAVTRI@CDB@@_KPEBX@Z ENDP ; xalloc<CDB::TRI>::allocate
; Function compile flags: /Ogtpy
_TEXT	ENDS
;	COMDAT ??0?$xalloc@VTRI@CDB@@@@QEAA@XZ
_TEXT	SEGMENT
this$ = 8
??0?$xalloc@VTRI@CDB@@@@QEAA@XZ PROC			; xalloc<CDB::TRI>::xalloc<CDB::TRI>, COMDAT

; 76   : 													xalloc			()										{	}

	mov	rax, rcx
	ret	0
??0?$xalloc@VTRI@CDB@@@@QEAA@XZ ENDP			; xalloc<CDB::TRI>::xalloc<CDB::TRI>
_TEXT	ENDS
;	COMDAT pdata
; File c:\program files (x86)\microsoft visual studio 10.0\vc\include\vector
pdata	SEGMENT
$pdata$?_Xlen@?$vector@VTRI@CDB@@V?$xalloc@VTRI@CDB@@@@@std@@IEBAXXZ DD imagerel $LN4
	DD	imagerel $LN4+18
	DD	imagerel $unwind$?_Xlen@?$vector@VTRI@CDB@@V?$xalloc@VTRI@CDB@@@@@std@@IEBAXXZ
pdata	ENDS
;	COMDAT xdata
xdata	SEGMENT
$unwind$?_Xlen@?$vector@VTRI@CDB@@V?$xalloc@VTRI@CDB@@@@@std@@IEBAXXZ DD 010401H
	DD	04204H
; Function compile flags: /Ogtpy
xdata	ENDS
;	COMDAT ?_Xlen@?$vector@VTRI@CDB@@V?$xalloc@VTRI@CDB@@@@@std@@IEBAXXZ
_TEXT	SEGMENT
?_Xlen@?$vector@VTRI@CDB@@V?$xalloc@VTRI@CDB@@@@@std@@IEBAXXZ PROC ; std::vector<CDB::TRI,xalloc<CDB::TRI> >::_Xlen, COMDAT

; 1426 : 		{	// report a length_error

$LN4:
	sub	rsp, 40					; 00000028H

; 1427 : 		_Xlength_error("vector<T> too long");

	lea	rcx, OFFSET FLAT:??_C@_0BD@OLBABOEK@vector?$DMT?$DO?5too?5long?$AA@
	call	QWORD PTR __imp_?_Xlength_error@std@@YAXPEBD@Z
	int	3
$LN3@Xlen@3:
?_Xlen@?$vector@VTRI@CDB@@V?$xalloc@VTRI@CDB@@@@@std@@IEBAXXZ ENDP ; std::vector<CDB::TRI,xalloc<CDB::TRI> >::_Xlen
; Function compile flags: /Ogtpy
_TEXT	ENDS
;	COMDAT ?max_size@?$vector@VTRI@CDB@@V?$xalloc@VTRI@CDB@@@@@std@@QEBA_KXZ
_TEXT	SEGMENT
?max_size@?$vector@VTRI@CDB@@V?$xalloc@VTRI@CDB@@@@@std@@QEBA_KXZ PROC ; std::vector<CDB::TRI,xalloc<CDB::TRI> >::max_size, COMDAT

; 884  : 		return (this->_Alval.max_size());

	mov	rax, 768614336404564650			; 0aaaaaaaaaaaaaaaH

; 885  : 		}

	ret	0
?max_size@?$vector@VTRI@CDB@@V?$xalloc@VTRI@CDB@@@@@std@@QEBA_KXZ ENDP ; std::vector<CDB::TRI,xalloc<CDB::TRI> >::max_size
; Function compile flags: /Ogtpy
_TEXT	ENDS
;	COMDAT ??9?$_Vector_const_iterator@V?$_Vector_val@URESULT@CDB@@V?$xalloc@URESULT@CDB@@@@@std@@@std@@QEBA_NAEBV01@@Z
_TEXT	SEGMENT
this$ = 8
_Right$ = 16
??9?$_Vector_const_iterator@V?$_Vector_val@URESULT@CDB@@V?$xalloc@URESULT@CDB@@@@@std@@@std@@QEBA_NAEBV01@@Z PROC ; std::_Vector_const_iterator<std::_Vector_val<CDB::RESULT,xalloc<CDB::RESULT> > >::operator!=, COMDAT

; 208  : 		return (!(*this == _Right));

	mov	rdx, QWORD PTR [rdx]
	cmp	QWORD PTR [rcx], rdx
	setne	al

; 209  : 		}

	ret	0
??9?$_Vector_const_iterator@V?$_Vector_val@URESULT@CDB@@V?$xalloc@URESULT@CDB@@@@@std@@@std@@QEBA_NAEBV01@@Z ENDP ; std::_Vector_const_iterator<std::_Vector_val<CDB::RESULT,xalloc<CDB::RESULT> > >::operator!=
; Function compile flags: /Ogtpy
_TEXT	ENDS
;	COMDAT ??0?$_Vector_const_iterator@V?$_Vector_val@URESULT@CDB@@V?$xalloc@URESULT@CDB@@@@@std@@@std@@QEAA@PEAURESULT@CDB@@PEBU_Container_base0@1@@Z
_TEXT	SEGMENT
this$ = 8
_Parg$ = 16
??0?$_Vector_const_iterator@V?$_Vector_val@URESULT@CDB@@V?$xalloc@URESULT@CDB@@@@@std@@@std@@QEAA@PEAURESULT@CDB@@PEBU_Container_base0@1@@Z PROC ; std::_Vector_const_iterator<std::_Vector_val<CDB::RESULT,xalloc<CDB::RESULT> > >::_Vector_const_iterator<std::_Vector_val<CDB::RESULT,xalloc<CDB::RESULT> > >, COMDAT

; 45   : 		{	// construct with pointer _Parg

	mov	QWORD PTR [rcx], rdx

; 46   : 		this->_Adopt(_Pvector);
; 47   : 		}

	mov	rax, rcx
	ret	0
??0?$_Vector_const_iterator@V?$_Vector_val@URESULT@CDB@@V?$xalloc@URESULT@CDB@@@@@std@@@std@@QEAA@PEAURESULT@CDB@@PEBU_Container_base0@1@@Z ENDP ; std::_Vector_const_iterator<std::_Vector_val<CDB::RESULT,xalloc<CDB::RESULT> > >::_Vector_const_iterator<std::_Vector_val<CDB::RESULT,xalloc<CDB::RESULT> > >
; Function compile flags: /Ogtpy
_TEXT	ENDS
;	COMDAT ??Z?$_Vector_iterator@V?$_Vector_val@URESULT@CDB@@V?$xalloc@URESULT@CDB@@@@@std@@@std@@QEAAAEAV01@_J@Z
_TEXT	SEGMENT
this$ = 8
??Z?$_Vector_iterator@V?$_Vector_val@URESULT@CDB@@V?$xalloc@URESULT@CDB@@@@@std@@@std@@QEAAAEAV01@_J@Z PROC ; std::_Vector_iterator<std::_Vector_val<CDB::RESULT,xalloc<CDB::RESULT> > >::operator-=, COMDAT

; 370  : 		return (*this += -_Off);

	add	QWORD PTR [rcx], -64			; ffffffffffffffc0H
	mov	rax, rcx

; 371  : 		}

	ret	0
??Z?$_Vector_iterator@V?$_Vector_val@URESULT@CDB@@V?$xalloc@URESULT@CDB@@@@@std@@@std@@QEAAAEAV01@_J@Z ENDP ; std::_Vector_iterator<std::_Vector_val<CDB::RESULT,xalloc<CDB::RESULT> > >::operator-=
; Function compile flags: /Ogtpy
; File c:\users\nummer\documents\github\olr-3.0\src\xray\xrcore\_stl_extensions.h
_TEXT	ENDS
;	COMDAT ?allocate@?$xalloc@URESULT@CDB@@@@QEBAPEAURESULT@CDB@@_KPEBX@Z
_TEXT	SEGMENT
n$ = 8
?allocate@?$xalloc@URESULT@CDB@@@@QEBAPEAURESULT@CDB@@_KPEBX@Z PROC ; xalloc<CDB::RESULT>::allocate, COMDAT

; 80   : 							pointer					allocate		(size_type n, const void* p=0) const	{	return xr_alloc<T>((u32)n);	}

	mov	edx, ecx
	mov	rcx, QWORD PTR __imp_?Memory@@3VxrMemory@@A
	shl	rdx, 6
	rex_jmp	QWORD PTR __imp_?mem_alloc@xrMemory@@QEAAPEAX_K@Z
?allocate@?$xalloc@URESULT@CDB@@@@QEBAPEAURESULT@CDB@@_KPEBX@Z ENDP ; xalloc<CDB::RESULT>::allocate
; Function compile flags: /Ogtpy
_TEXT	ENDS
;	COMDAT ??0?$xalloc@URESULT@CDB@@@@QEAA@XZ
_TEXT	SEGMENT
this$ = 8
??0?$xalloc@URESULT@CDB@@@@QEAA@XZ PROC			; xalloc<CDB::RESULT>::xalloc<CDB::RESULT>, COMDAT

; 76   : 													xalloc			()										{	}

	mov	rax, rcx
	ret	0
??0?$xalloc@URESULT@CDB@@@@QEAA@XZ ENDP			; xalloc<CDB::RESULT>::xalloc<CDB::RESULT>
_TEXT	ENDS
;	COMDAT pdata
; File c:\program files (x86)\microsoft visual studio 10.0\vc\include\vector
pdata	SEGMENT
$pdata$?_Xlen@?$vector@URESULT@CDB@@V?$xalloc@URESULT@CDB@@@@@std@@IEBAXXZ DD imagerel $LN4
	DD	imagerel $LN4+18
	DD	imagerel $unwind$?_Xlen@?$vector@URESULT@CDB@@V?$xalloc@URESULT@CDB@@@@@std@@IEBAXXZ
pdata	ENDS
;	COMDAT xdata
xdata	SEGMENT
$unwind$?_Xlen@?$vector@URESULT@CDB@@V?$xalloc@URESULT@CDB@@@@@std@@IEBAXXZ DD 010401H
	DD	04204H
; Function compile flags: /Ogtpy
xdata	ENDS
;	COMDAT ?_Xlen@?$vector@URESULT@CDB@@V?$xalloc@URESULT@CDB@@@@@std@@IEBAXXZ
_TEXT	SEGMENT
?_Xlen@?$vector@URESULT@CDB@@V?$xalloc@URESULT@CDB@@@@@std@@IEBAXXZ PROC ; std::vector<CDB::RESULT,xalloc<CDB::RESULT> >::_Xlen, COMDAT

; 1426 : 		{	// report a length_error

$LN4:
	sub	rsp, 40					; 00000028H

; 1427 : 		_Xlength_error("vector<T> too long");

	lea	rcx, OFFSET FLAT:??_C@_0BD@OLBABOEK@vector?$DMT?$DO?5too?5long?$AA@
	call	QWORD PTR __imp_?_Xlength_error@std@@YAXPEBD@Z
	int	3
$LN3@Xlen@4:
?_Xlen@?$vector@URESULT@CDB@@V?$xalloc@URESULT@CDB@@@@@std@@IEBAXXZ ENDP ; std::vector<CDB::RESULT,xalloc<CDB::RESULT> >::_Xlen
; Function compile flags: /Ogtpy
_TEXT	ENDS
;	COMDAT ?max_size@?$vector@URESULT@CDB@@V?$xalloc@URESULT@CDB@@@@@std@@QEBA_KXZ
_TEXT	SEGMENT
?max_size@?$vector@URESULT@CDB@@V?$xalloc@URESULT@CDB@@@@@std@@QEBA_KXZ PROC ; std::vector<CDB::RESULT,xalloc<CDB::RESULT> >::max_size, COMDAT

; 884  : 		return (this->_Alval.max_size());

	mov	rax, 288230376151711743			; 03ffffffffffffffH

; 885  : 		}

	ret	0
?max_size@?$vector@URESULT@CDB@@V?$xalloc@URESULT@CDB@@@@@std@@QEBA_KXZ ENDP ; std::vector<CDB::RESULT,xalloc<CDB::RESULT> >::max_size
; Function compile flags: /Ogtpy
; File c:\users\nummer\documents\github\olr-3.0\src\xray\xrcore\_stl_extensions.h
_TEXT	ENDS
;	COMDAT ?allocate@?$xalloc@U?$_vector3@M@@@@QEBAPEAU?$_vector3@M@@_KPEBX@Z
_TEXT	SEGMENT
n$ = 8
?allocate@?$xalloc@U?$_vector3@M@@@@QEBAPEAU?$_vector3@M@@_KPEBX@Z PROC ; xalloc<_vector3<float> >::allocate, COMDAT

; 80   : 							pointer					allocate		(size_type n, const void* p=0) const	{	return xr_alloc<T>((u32)n);	}

	mov	eax, ecx
	mov	rcx, QWORD PTR __imp_?Memory@@3VxrMemory@@A
	lea	rdx, QWORD PTR [rax+rax*2]
	shl	rdx, 2
	rex_jmp	QWORD PTR __imp_?mem_alloc@xrMemory@@QEAAPEAX_K@Z
?allocate@?$xalloc@U?$_vector3@M@@@@QEBAPEAU?$_vector3@M@@_KPEBX@Z ENDP ; xalloc<_vector3<float> >::allocate
; Function compile flags: /Ogtpy
_TEXT	ENDS
;	COMDAT ??0?$xalloc@U?$_vector3@M@@@@QEAA@XZ
_TEXT	SEGMENT
this$ = 8
??0?$xalloc@U?$_vector3@M@@@@QEAA@XZ PROC		; xalloc<_vector3<float> >::xalloc<_vector3<float> >, COMDAT

; 76   : 													xalloc			()										{	}

	mov	rax, rcx
	ret	0
??0?$xalloc@U?$_vector3@M@@@@QEAA@XZ ENDP		; xalloc<_vector3<float> >::xalloc<_vector3<float> >
_TEXT	ENDS
;	COMDAT pdata
; File c:\program files (x86)\microsoft visual studio 10.0\vc\include\vector
pdata	SEGMENT
$pdata$?_Xlen@?$vector@U?$_vector3@M@@V?$xalloc@U?$_vector3@M@@@@@std@@IEBAXXZ DD imagerel $LN4
	DD	imagerel $LN4+18
	DD	imagerel $unwind$?_Xlen@?$vector@U?$_vector3@M@@V?$xalloc@U?$_vector3@M@@@@@std@@IEBAXXZ
pdata	ENDS
;	COMDAT xdata
xdata	SEGMENT
$unwind$?_Xlen@?$vector@U?$_vector3@M@@V?$xalloc@U?$_vector3@M@@@@@std@@IEBAXXZ DD 010401H
	DD	04204H
; Function compile flags: /Ogtpy
xdata	ENDS
;	COMDAT ?_Xlen@?$vector@U?$_vector3@M@@V?$xalloc@U?$_vector3@M@@@@@std@@IEBAXXZ
_TEXT	SEGMENT
?_Xlen@?$vector@U?$_vector3@M@@V?$xalloc@U?$_vector3@M@@@@@std@@IEBAXXZ PROC ; std::vector<_vector3<float>,xalloc<_vector3<float> > >::_Xlen, COMDAT

; 1426 : 		{	// report a length_error

$LN4:
	sub	rsp, 40					; 00000028H

; 1427 : 		_Xlength_error("vector<T> too long");

	lea	rcx, OFFSET FLAT:??_C@_0BD@OLBABOEK@vector?$DMT?$DO?5too?5long?$AA@
	call	QWORD PTR __imp_?_Xlength_error@std@@YAXPEBD@Z
	int	3
$LN3@Xlen@5:
?_Xlen@?$vector@U?$_vector3@M@@V?$xalloc@U?$_vector3@M@@@@@std@@IEBAXXZ ENDP ; std::vector<_vector3<float>,xalloc<_vector3<float> > >::_Xlen
; Function compile flags: /Ogtpy
_TEXT	ENDS
;	COMDAT ?max_size@?$vector@U?$_vector3@M@@V?$xalloc@U?$_vector3@M@@@@@std@@QEBA_KXZ
_TEXT	SEGMENT
?max_size@?$vector@U?$_vector3@M@@V?$xalloc@U?$_vector3@M@@@@@std@@QEBA_KXZ PROC ; std::vector<_vector3<float>,xalloc<_vector3<float> > >::max_size, COMDAT

; 884  : 		return (this->_Alval.max_size());

	mov	rax, 1537228672809129301		; 1555555555555555H

; 885  : 		}

	ret	0
?max_size@?$vector@U?$_vector3@M@@V?$xalloc@U?$_vector3@M@@@@@std@@QEBA_KXZ ENDP ; std::vector<_vector3<float>,xalloc<_vector3<float> > >::max_size
; Function compile flags: /Ogtpy
_TEXT	ENDS
;	COMDAT ??D?$_Vector_const_iterator@V?$_Vector_val@VTRI@CDB@@V?$xalloc@VTRI@CDB@@@@@std@@@std@@QEBAAEBVTRI@CDB@@XZ
_TEXT	SEGMENT
this$ = 8
??D?$_Vector_const_iterator@V?$_Vector_val@VTRI@CDB@@V?$xalloc@VTRI@CDB@@@@@std@@@std@@QEBAAEBVTRI@CDB@@XZ PROC ; std::_Vector_const_iterator<std::_Vector_val<CDB::TRI,xalloc<CDB::TRI> > >::operator*, COMDAT

; 64   :  #if _ITERATOR_DEBUG_LEVEL == 2
; 65   : 		if (this->_Getcont() == 0
; 66   : 			|| this->_Ptr == 0
; 67   : 			|| this->_Ptr < ((_Myvec *)this->_Getcont())->_Myfirst
; 68   : 			|| ((_Myvec *)this->_Getcont())->_Mylast <= this->_Ptr)
; 69   : 			{	// report error
; 70   : 			_DEBUG_ERROR("vector iterator not dereferencable");
; 71   : 			_SCL_SECURE_OUT_OF_RANGE;
; 72   : 			}
; 73   : 
; 74   :  #elif _ITERATOR_DEBUG_LEVEL == 1
; 75   : 		_SCL_SECURE_VALIDATE(this->_Getcont() != 0);
; 76   : 		_SCL_SECURE_VALIDATE_RANGE(
; 77   : 			this->_Ptr != 0
; 78   : 			&& ((_Myvec *)this->_Getcont())->_Myfirst <= this->_Ptr
; 79   : 			&& this->_Ptr < ((_Myvec *)this->_Getcont())->_Mylast);
; 80   :  #endif /* _ITERATOR_DEBUG_LEVEL */
; 81   : 
; 82   : 		__analysis_assume(this->_Ptr != 0);
; 83   : 
; 84   : 		return (*this->_Ptr);

	mov	rax, QWORD PTR [rcx]

; 85   : 		}

	ret	0
??D?$_Vector_const_iterator@V?$_Vector_val@VTRI@CDB@@V?$xalloc@VTRI@CDB@@@@@std@@@std@@QEBAAEBVTRI@CDB@@XZ ENDP ; std::_Vector_const_iterator<std::_Vector_val<CDB::TRI,xalloc<CDB::TRI> > >::operator*
; Function compile flags: /Ogtpy
_TEXT	ENDS
;	COMDAT ??0?$_Vector_iterator@V?$_Vector_val@VTRI@CDB@@V?$xalloc@VTRI@CDB@@@@@std@@@std@@QEAA@PEAVTRI@CDB@@PEBU_Container_base0@1@@Z
_TEXT	SEGMENT
this$ = 8
_Parg$ = 16
??0?$_Vector_iterator@V?$_Vector_val@VTRI@CDB@@V?$xalloc@VTRI@CDB@@@@@std@@@std@@QEAA@PEAVTRI@CDB@@PEBU_Container_base0@1@@Z PROC ; std::_Vector_iterator<std::_Vector_val<CDB::TRI,xalloc<CDB::TRI> > >::_Vector_iterator<std::_Vector_val<CDB::TRI,xalloc<CDB::TRI> > >, COMDAT

; 304  : 		{	// construct with pointer _Parg

	mov	QWORD PTR [rcx], rdx

; 305  : 		}

	mov	rax, rcx
	ret	0
??0?$_Vector_iterator@V?$_Vector_val@VTRI@CDB@@V?$xalloc@VTRI@CDB@@@@@std@@@std@@QEAA@PEAVTRI@CDB@@PEBU_Container_base0@1@@Z ENDP ; std::_Vector_iterator<std::_Vector_val<CDB::TRI,xalloc<CDB::TRI> > >::_Vector_iterator<std::_Vector_val<CDB::TRI,xalloc<CDB::TRI> > >
; Function compile flags: /Ogtpy
_TEXT	ENDS
;	COMDAT ??D?$_Vector_const_iterator@V?$_Vector_val@U?$_vector3@M@@V?$xalloc@U?$_vector3@M@@@@@std@@@std@@QEBAAEBU?$_vector3@M@@XZ
_TEXT	SEGMENT
this$ = 8
??D?$_Vector_const_iterator@V?$_Vector_val@U?$_vector3@M@@V?$xalloc@U?$_vector3@M@@@@@std@@@std@@QEBAAEBU?$_vector3@M@@XZ PROC ; std::_Vector_const_iterator<std::_Vector_val<_vector3<float>,xalloc<_vector3<float> > > >::operator*, COMDAT

; 64   :  #if _ITERATOR_DEBUG_LEVEL == 2
; 65   : 		if (this->_Getcont() == 0
; 66   : 			|| this->_Ptr == 0
; 67   : 			|| this->_Ptr < ((_Myvec *)this->_Getcont())->_Myfirst
; 68   : 			|| ((_Myvec *)this->_Getcont())->_Mylast <= this->_Ptr)
; 69   : 			{	// report error
; 70   : 			_DEBUG_ERROR("vector iterator not dereferencable");
; 71   : 			_SCL_SECURE_OUT_OF_RANGE;
; 72   : 			}
; 73   : 
; 74   :  #elif _ITERATOR_DEBUG_LEVEL == 1
; 75   : 		_SCL_SECURE_VALIDATE(this->_Getcont() != 0);
; 76   : 		_SCL_SECURE_VALIDATE_RANGE(
; 77   : 			this->_Ptr != 0
; 78   : 			&& ((_Myvec *)this->_Getcont())->_Myfirst <= this->_Ptr
; 79   : 			&& this->_Ptr < ((_Myvec *)this->_Getcont())->_Mylast);
; 80   :  #endif /* _ITERATOR_DEBUG_LEVEL */
; 81   : 
; 82   : 		__analysis_assume(this->_Ptr != 0);
; 83   : 
; 84   : 		return (*this->_Ptr);

	mov	rax, QWORD PTR [rcx]

; 85   : 		}

	ret	0
??D?$_Vector_const_iterator@V?$_Vector_val@U?$_vector3@M@@V?$xalloc@U?$_vector3@M@@@@@std@@@std@@QEBAAEBU?$_vector3@M@@XZ ENDP ; std::_Vector_const_iterator<std::_Vector_val<_vector3<float>,xalloc<_vector3<float> > > >::operator*
; Function compile flags: /Ogtpy
_TEXT	ENDS
;	COMDAT ??0?$_Vector_iterator@V?$_Vector_val@U?$_vector3@M@@V?$xalloc@U?$_vector3@M@@@@@std@@@std@@QEAA@PEAU?$_vector3@M@@PEBU_Container_base0@1@@Z
_TEXT	SEGMENT
this$ = 8
_Parg$ = 16
??0?$_Vector_iterator@V?$_Vector_val@U?$_vector3@M@@V?$xalloc@U?$_vector3@M@@@@@std@@@std@@QEAA@PEAU?$_vector3@M@@PEBU_Container_base0@1@@Z PROC ; std::_Vector_iterator<std::_Vector_val<_vector3<float>,xalloc<_vector3<float> > > >::_Vector_iterator<std::_Vector_val<_vector3<float>,xalloc<_vector3<float> > > >, COMDAT

; 304  : 		{	// construct with pointer _Parg

	mov	QWORD PTR [rcx], rdx

; 305  : 		}

	mov	rax, rcx
	ret	0
??0?$_Vector_iterator@V?$_Vector_val@U?$_vector3@M@@V?$xalloc@U?$_vector3@M@@@@@std@@@std@@QEAA@PEAU?$_vector3@M@@PEBU_Container_base0@1@@Z ENDP ; std::_Vector_iterator<std::_Vector_val<_vector3<float>,xalloc<_vector3<float> > > >::_Vector_iterator<std::_Vector_val<_vector3<float>,xalloc<_vector3<float> > > >
_TEXT	ENDS
;	COMDAT pdata
; File c:\users\nummer\documents\github\olr-3.0\src\xray\xrcore\xrmemory.h
pdata	SEGMENT
$pdata$?deallocate@?$xalloc@VTRI@CDB@@@@QEBAXPEAVTRI@CDB@@_K@Z DD imagerel $LN6
	DD	imagerel $LN6+30
	DD	imagerel $unwind$?deallocate@?$xalloc@VTRI@CDB@@@@QEBAXPEAVTRI@CDB@@_K@Z
pdata	ENDS
;	COMDAT xdata
xdata	SEGMENT
$unwind$?deallocate@?$xalloc@VTRI@CDB@@@@QEBAXPEAVTRI@CDB@@_K@Z DD 010401H
	DD	04204H
; Function compile flags: /Ogtpy
; File c:\users\nummer\documents\github\olr-3.0\src\xray\xrcore\_stl_extensions.h
xdata	ENDS
;	COMDAT ?deallocate@?$xalloc@VTRI@CDB@@@@QEBAXPEAVTRI@CDB@@_K@Z
_TEXT	SEGMENT
p$ = 48
?deallocate@?$xalloc@VTRI@CDB@@@@QEBAXPEAVTRI@CDB@@_K@Z PROC ; xalloc<CDB::TRI>::deallocate, COMDAT

; 82   : 							void					deallocate		(pointer p, size_type n) const			{	xr_free	(p);				}

$LN6:
	sub	rsp, 40					; 00000028H
	test	rcx, rcx
	je	SHORT $LN3@deallocate
	mov	rdx, rcx
	mov	rcx, QWORD PTR __imp_?Memory@@3VxrMemory@@A
	call	QWORD PTR __imp_?mem_free@xrMemory@@QEAAXPEAX@Z
$LN3@deallocate:
	add	rsp, 40					; 00000028H
	ret	0
?deallocate@?$xalloc@VTRI@CDB@@@@QEBAXPEAVTRI@CDB@@_K@Z ENDP ; xalloc<CDB::TRI>::deallocate
; Function compile flags: /Ogtpy
_TEXT	ENDS
;	COMDAT ??0?$xalloc@VTRI@CDB@@@@QEAA@AEBV0@@Z
_TEXT	SEGMENT
this$ = 8
??0?$xalloc@VTRI@CDB@@@@QEAA@AEBV0@@Z PROC		; xalloc<CDB::TRI>::xalloc<CDB::TRI>, COMDAT

; 77   : 													xalloc			(const xalloc<T>&)						{	}

	mov	rax, rcx
	ret	0
??0?$xalloc@VTRI@CDB@@@@QEAA@AEBV0@@Z ENDP		; xalloc<CDB::TRI>::xalloc<CDB::TRI>
; Function compile flags: /Ogtpy
; File c:\program files (x86)\microsoft visual studio 10.0\vc\include\vector
_TEXT	ENDS
;	COMDAT ??1?$_Vector_val@VTRI@CDB@@V?$xalloc@VTRI@CDB@@@@@std@@QEAA@XZ
_TEXT	SEGMENT
??1?$_Vector_val@VTRI@CDB@@V?$xalloc@VTRI@CDB@@@@@std@@QEAA@XZ PROC ; std::_Vector_val<CDB::TRI,xalloc<CDB::TRI> >::~_Vector_val<CDB::TRI,xalloc<CDB::TRI> >, COMDAT

; 434  : 		}

	ret	0
??1?$_Vector_val@VTRI@CDB@@V?$xalloc@VTRI@CDB@@@@@std@@QEAA@XZ ENDP ; std::_Vector_val<CDB::TRI,xalloc<CDB::TRI> >::~_Vector_val<CDB::TRI,xalloc<CDB::TRI> >
; Function compile flags: /Ogtpy
_TEXT	ENDS
;	COMDAT ??0?$_Vector_val@VTRI@CDB@@V?$xalloc@VTRI@CDB@@@@@std@@QEAA@V?$xalloc@VTRI@CDB@@@@@Z
_TEXT	SEGMENT
this$ = 8
??0?$_Vector_val@VTRI@CDB@@V?$xalloc@VTRI@CDB@@@@@std@@QEAA@V?$xalloc@VTRI@CDB@@@@@Z PROC ; std::_Vector_val<CDB::TRI,xalloc<CDB::TRI> >::_Vector_val<CDB::TRI,xalloc<CDB::TRI> >, COMDAT

; 427  : 		_Myfirst = 0;

	xor	eax, eax
	mov	QWORD PTR [rcx], rax

; 428  : 		_Mylast = 0;

	mov	QWORD PTR [rcx+8], rax

; 429  : 		_Myend = 0;

	mov	QWORD PTR [rcx+16], rax

; 430  : 		}

	mov	rax, rcx
	ret	0
??0?$_Vector_val@VTRI@CDB@@V?$xalloc@VTRI@CDB@@@@@std@@QEAA@V?$xalloc@VTRI@CDB@@@@@Z ENDP ; std::_Vector_val<CDB::TRI,xalloc<CDB::TRI> >::_Vector_val<CDB::TRI,xalloc<CDB::TRI> >
; Function compile flags: /Ogtpy
_TEXT	ENDS
;	COMDAT ?_Destroy@?$vector@VTRI@CDB@@V?$xalloc@VTRI@CDB@@@@@std@@IEAAXPEAVTRI@CDB@@0@Z
_TEXT	SEGMENT
?_Destroy@?$vector@VTRI@CDB@@V?$xalloc@VTRI@CDB@@@@@std@@IEAAXPEAVTRI@CDB@@0@Z PROC ; std::vector<CDB::TRI,xalloc<CDB::TRI> >::_Destroy, COMDAT

; 1270 : 		_Destroy_range(_First, _Last, this->_Alval);
; 1271 : 		}

	ret	0
?_Destroy@?$vector@VTRI@CDB@@V?$xalloc@VTRI@CDB@@@@@std@@IEAAXPEAVTRI@CDB@@0@Z ENDP ; std::vector<CDB::TRI,xalloc<CDB::TRI> >::_Destroy
_TEXT	ENDS
;	COMDAT pdata
; File c:\users\nummer\documents\github\olr-3.0\src\xray\xrcore\xrmemory.h
pdata	SEGMENT
$pdata$?_Buy@?$vector@VTRI@CDB@@V?$xalloc@VTRI@CDB@@@@@std@@IEAA_N_K@Z DD imagerel $LN19
	DD	imagerel $LN19+118
	DD	imagerel $unwind$?_Buy@?$vector@VTRI@CDB@@V?$xalloc@VTRI@CDB@@@@@std@@IEAA_N_K@Z
pdata	ENDS
;	COMDAT xdata
xdata	SEGMENT
$unwind$?_Buy@?$vector@VTRI@CDB@@V?$xalloc@VTRI@CDB@@@@@std@@IEAA_N_K@Z DD 040a01H
	DD	06340aH
	DD	07006320aH
; Function compile flags: /Ogtpy
; File c:\program files (x86)\microsoft visual studio 10.0\vc\include\vector
xdata	ENDS
;	COMDAT ?_Buy@?$vector@VTRI@CDB@@V?$xalloc@VTRI@CDB@@@@@std@@IEAA_N_K@Z
_TEXT	SEGMENT
this$ = 48
_Capacity$ = 56
?_Buy@?$vector@VTRI@CDB@@V?$xalloc@VTRI@CDB@@@@@std@@IEAA_N_K@Z PROC ; std::vector<CDB::TRI,xalloc<CDB::TRI> >::_Buy, COMDAT

; 1250 : 		{	// allocate array with _Capacity elements

$LN19:
	mov	QWORD PTR [rsp+8], rbx
	push	rdi
	sub	rsp, 32					; 00000020H

; 1251 : 		this->_Myfirst = 0;

	xor	eax, eax
	mov	rdi, rdx
	mov	rbx, rcx
	mov	QWORD PTR [rcx], rax

; 1252 : 		this->_Mylast = 0;

	mov	QWORD PTR [rcx+8], rax

; 1253 : 		this->_Myend = 0;

	mov	QWORD PTR [rcx+16], rax

; 1254 : 
; 1255 : 		if (_Capacity == 0)

	test	rdx, rdx

; 1256 : 			return (false);

	je	SHORT $LN5@Buy

; 1257 : 		else if (max_size() < _Capacity)

	mov	rax, 768614336404564650			; 0aaaaaaaaaaaaaaaH
	cmp	rdx, rax
	jbe	SHORT $LN2@Buy

; 1258 : 			_Xlen();	// result too long

	lea	rcx, OFFSET FLAT:??_C@_0BD@OLBABOEK@vector?$DMT?$DO?5too?5long?$AA@
	call	QWORD PTR __imp_?_Xlength_error@std@@YAXPEBD@Z
	int	3
$LN2@Buy:

; 1259 : 		else
; 1260 : 			{	// nonempty array, allocate storage
; 1261 : 			this->_Myfirst = this->_Alval.allocate(_Capacity);

	mov	rcx, QWORD PTR __imp_?Memory@@3VxrMemory@@A
	mov	eax, edx
	lea	rdx, QWORD PTR [rax+rax*2]
	shl	rdx, 3
	call	QWORD PTR __imp_?mem_alloc@xrMemory@@QEAAPEAX_K@Z

; 1262 : 			this->_Mylast = this->_Myfirst;
; 1263 : 			this->_Myend = this->_Myfirst + _Capacity;

	lea	rcx, QWORD PTR [rdi+rdi*2]
	mov	QWORD PTR [rbx], rax
	mov	QWORD PTR [rbx+8], rax
	lea	rax, QWORD PTR [rax+rcx*8]
	mov	QWORD PTR [rbx+16], rax

; 1264 : 			}
; 1265 : 		return (true);

	mov	al, 1
$LN5@Buy:

; 1266 : 		}

	mov	rbx, QWORD PTR [rsp+48]
	add	rsp, 32					; 00000020H
	pop	rdi
	ret	0
$LN18@Buy:
?_Buy@?$vector@VTRI@CDB@@V?$xalloc@VTRI@CDB@@@@@std@@IEAA_N_K@Z ENDP ; std::vector<CDB::TRI,xalloc<CDB::TRI> >::_Buy
; Function compile flags: /Ogtpy
_TEXT	ENDS
;	COMDAT ?size@?$vector@VTRI@CDB@@V?$xalloc@VTRI@CDB@@@@@std@@QEBA_KXZ
_TEXT	SEGMENT
this$ = 8
?size@?$vector@VTRI@CDB@@V?$xalloc@VTRI@CDB@@@@@std@@QEBA_KXZ PROC ; std::vector<CDB::TRI,xalloc<CDB::TRI> >::size, COMDAT

; 879  : 		return (this->_Mylast - this->_Myfirst);

	mov	rdx, QWORD PTR [rcx+8]
	mov	rax, 3074457345618258603		; 2aaaaaaaaaaaaaabH
	sub	rdx, QWORD PTR [rcx]
	imul	rdx
	sar	rdx, 2
	mov	rax, rdx
	shr	rax, 63					; 0000003fH
	add	rax, rdx

; 880  : 		}

	ret	0
?size@?$vector@VTRI@CDB@@V?$xalloc@VTRI@CDB@@@@@std@@QEBA_KXZ ENDP ; std::vector<CDB::TRI,xalloc<CDB::TRI> >::size
; Function compile flags: /Ogtpy
_TEXT	ENDS
;	COMDAT ?end@?$vector@VTRI@CDB@@V?$xalloc@VTRI@CDB@@@@@std@@QEBA?AV?$_Vector_const_iterator@V?$_Vector_val@VTRI@CDB@@V?$xalloc@VTRI@CDB@@@@@std@@@2@XZ
_TEXT	SEGMENT
this$ = 8
__$ReturnUdt$ = 16
?end@?$vector@VTRI@CDB@@V?$xalloc@VTRI@CDB@@@@@std@@QEBA?AV?$_Vector_const_iterator@V?$_Vector_val@VTRI@CDB@@V?$xalloc@VTRI@CDB@@@@@std@@@2@XZ PROC ; std::vector<CDB::TRI,xalloc<CDB::TRI> >::end, COMDAT

; 797  : 		return (const_iterator(this->_Mylast, this));

	mov	rax, QWORD PTR [rcx+8]
	mov	QWORD PTR [rdx], rax
	mov	rax, rdx

; 798  : 		}

	ret	0
?end@?$vector@VTRI@CDB@@V?$xalloc@VTRI@CDB@@@@@std@@QEBA?AV?$_Vector_const_iterator@V?$_Vector_val@VTRI@CDB@@V?$xalloc@VTRI@CDB@@@@@std@@@2@XZ ENDP ; std::vector<CDB::TRI,xalloc<CDB::TRI> >::end
; Function compile flags: /Ogtpy
_TEXT	ENDS
;	COMDAT ?begin@?$vector@VTRI@CDB@@V?$xalloc@VTRI@CDB@@@@@std@@QEBA?AV?$_Vector_const_iterator@V?$_Vector_val@VTRI@CDB@@V?$xalloc@VTRI@CDB@@@@@std@@@2@XZ
_TEXT	SEGMENT
this$ = 8
__$ReturnUdt$ = 16
?begin@?$vector@VTRI@CDB@@V?$xalloc@VTRI@CDB@@@@@std@@QEBA?AV?$_Vector_const_iterator@V?$_Vector_val@VTRI@CDB@@V?$xalloc@VTRI@CDB@@@@@std@@@2@XZ PROC ; std::vector<CDB::TRI,xalloc<CDB::TRI> >::begin, COMDAT

; 787  : 		return (const_iterator(this->_Myfirst, this));

	mov	rax, QWORD PTR [rcx]
	mov	QWORD PTR [rdx], rax
	mov	rax, rdx

; 788  : 		}

	ret	0
?begin@?$vector@VTRI@CDB@@V?$xalloc@VTRI@CDB@@@@@std@@QEBA?AV?$_Vector_const_iterator@V?$_Vector_val@VTRI@CDB@@V?$xalloc@VTRI@CDB@@@@@std@@@2@XZ ENDP ; std::vector<CDB::TRI,xalloc<CDB::TRI> >::begin
; Function compile flags: /Ogtpy
_TEXT	ENDS
;	COMDAT ?capacity@?$vector@VTRI@CDB@@V?$xalloc@VTRI@CDB@@@@@std@@QEBA_KXZ
_TEXT	SEGMENT
this$ = 8
?capacity@?$vector@VTRI@CDB@@V?$xalloc@VTRI@CDB@@@@@std@@QEBA_KXZ PROC ; std::vector<CDB::TRI,xalloc<CDB::TRI> >::capacity, COMDAT

; 777  : 		return (this->_Myend - this->_Myfirst);

	mov	rdx, QWORD PTR [rcx+16]
	mov	rax, 3074457345618258603		; 2aaaaaaaaaaaaaabH
	sub	rdx, QWORD PTR [rcx]
	imul	rdx
	sar	rdx, 2
	mov	rax, rdx
	shr	rax, 63					; 0000003fH
	add	rax, rdx

; 778  : 		}

	ret	0
?capacity@?$vector@VTRI@CDB@@V?$xalloc@VTRI@CDB@@@@@std@@QEBA_KXZ ENDP ; std::vector<CDB::TRI,xalloc<CDB::TRI> >::capacity
; Function compile flags: /Ogtpy
_TEXT	ENDS
;	COMDAT ??0?$vector@VTRI@CDB@@V?$xalloc@VTRI@CDB@@@@@std@@QEAA@XZ
_TEXT	SEGMENT
this$ = 8
??0?$vector@VTRI@CDB@@V?$xalloc@VTRI@CDB@@@@@std@@QEAA@XZ PROC ; std::vector<CDB::TRI,xalloc<CDB::TRI> >::vector<CDB::TRI,xalloc<CDB::TRI> >, COMDAT

; 507  : 		{	// construct empty vector

	xor	eax, eax
	mov	QWORD PTR [rcx], rax
	mov	QWORD PTR [rcx+8], rax
	mov	QWORD PTR [rcx+16], rax

; 508  : 		}

	mov	rax, rcx
	ret	0
??0?$vector@VTRI@CDB@@V?$xalloc@VTRI@CDB@@@@@std@@QEAA@XZ ENDP ; std::vector<CDB::TRI,xalloc<CDB::TRI> >::vector<CDB::TRI,xalloc<CDB::TRI> >
; Function compile flags: /Ogtpy
_TEXT	ENDS
;	COMDAT ??D?$_Vector_const_iterator@V?$_Vector_val@URESULT@CDB@@V?$xalloc@URESULT@CDB@@@@@std@@@std@@QEBAAEBURESULT@CDB@@XZ
_TEXT	SEGMENT
this$ = 8
??D?$_Vector_const_iterator@V?$_Vector_val@URESULT@CDB@@V?$xalloc@URESULT@CDB@@@@@std@@@std@@QEBAAEBURESULT@CDB@@XZ PROC ; std::_Vector_const_iterator<std::_Vector_val<CDB::RESULT,xalloc<CDB::RESULT> > >::operator*, COMDAT

; 64   :  #if _ITERATOR_DEBUG_LEVEL == 2
; 65   : 		if (this->_Getcont() == 0
; 66   : 			|| this->_Ptr == 0
; 67   : 			|| this->_Ptr < ((_Myvec *)this->_Getcont())->_Myfirst
; 68   : 			|| ((_Myvec *)this->_Getcont())->_Mylast <= this->_Ptr)
; 69   : 			{	// report error
; 70   : 			_DEBUG_ERROR("vector iterator not dereferencable");
; 71   : 			_SCL_SECURE_OUT_OF_RANGE;
; 72   : 			}
; 73   : 
; 74   :  #elif _ITERATOR_DEBUG_LEVEL == 1
; 75   : 		_SCL_SECURE_VALIDATE(this->_Getcont() != 0);
; 76   : 		_SCL_SECURE_VALIDATE_RANGE(
; 77   : 			this->_Ptr != 0
; 78   : 			&& ((_Myvec *)this->_Getcont())->_Myfirst <= this->_Ptr
; 79   : 			&& this->_Ptr < ((_Myvec *)this->_Getcont())->_Mylast);
; 80   :  #endif /* _ITERATOR_DEBUG_LEVEL */
; 81   : 
; 82   : 		__analysis_assume(this->_Ptr != 0);
; 83   : 
; 84   : 		return (*this->_Ptr);

	mov	rax, QWORD PTR [rcx]

; 85   : 		}

	ret	0
??D?$_Vector_const_iterator@V?$_Vector_val@URESULT@CDB@@V?$xalloc@URESULT@CDB@@@@@std@@@std@@QEBAAEBURESULT@CDB@@XZ ENDP ; std::_Vector_const_iterator<std::_Vector_val<CDB::RESULT,xalloc<CDB::RESULT> > >::operator*
; Function compile flags: /Ogtpy
_TEXT	ENDS
;	COMDAT ??G?$_Vector_iterator@V?$_Vector_val@URESULT@CDB@@V?$xalloc@URESULT@CDB@@@@@std@@@std@@QEBA?AV01@_J@Z
_TEXT	SEGMENT
this$ = 8
__$ReturnUdt$ = 16
??G?$_Vector_iterator@V?$_Vector_val@URESULT@CDB@@V?$xalloc@URESULT@CDB@@@@@std@@@std@@QEBA?AV01@_J@Z PROC ; std::_Vector_iterator<std::_Vector_val<CDB::RESULT,xalloc<CDB::RESULT> > >::operator-, COMDAT

; 375  : 		_Myiter _Tmp = *this;
; 376  : 		return (_Tmp -= _Off);

	mov	rax, QWORD PTR [rcx]
	sub	rax, 64					; 00000040H
	mov	QWORD PTR [rdx], rax
	mov	rax, rdx

; 377  : 		}

	ret	0
??G?$_Vector_iterator@V?$_Vector_val@URESULT@CDB@@V?$xalloc@URESULT@CDB@@@@@std@@@std@@QEBA?AV01@_J@Z ENDP ; std::_Vector_iterator<std::_Vector_val<CDB::RESULT,xalloc<CDB::RESULT> > >::operator-
; Function compile flags: /Ogtpy
_TEXT	ENDS
;	COMDAT ??0?$_Vector_iterator@V?$_Vector_val@URESULT@CDB@@V?$xalloc@URESULT@CDB@@@@@std@@@std@@QEAA@PEAURESULT@CDB@@PEBU_Container_base0@1@@Z
_TEXT	SEGMENT
this$ = 8
_Parg$ = 16
??0?$_Vector_iterator@V?$_Vector_val@URESULT@CDB@@V?$xalloc@URESULT@CDB@@@@@std@@@std@@QEAA@PEAURESULT@CDB@@PEBU_Container_base0@1@@Z PROC ; std::_Vector_iterator<std::_Vector_val<CDB::RESULT,xalloc<CDB::RESULT> > >::_Vector_iterator<std::_Vector_val<CDB::RESULT,xalloc<CDB::RESULT> > >, COMDAT

; 304  : 		{	// construct with pointer _Parg

	mov	QWORD PTR [rcx], rdx

; 305  : 		}

	mov	rax, rcx
	ret	0
??0?$_Vector_iterator@V?$_Vector_val@URESULT@CDB@@V?$xalloc@URESULT@CDB@@@@@std@@@std@@QEAA@PEAURESULT@CDB@@PEBU_Container_base0@1@@Z ENDP ; std::_Vector_iterator<std::_Vector_val<CDB::RESULT,xalloc<CDB::RESULT> > >::_Vector_iterator<std::_Vector_val<CDB::RESULT,xalloc<CDB::RESULT> > >
_TEXT	ENDS
;	COMDAT pdata
; File c:\users\nummer\documents\github\olr-3.0\src\xray\xrcore\xrmemory.h
pdata	SEGMENT
$pdata$?deallocate@?$xalloc@URESULT@CDB@@@@QEBAXPEAURESULT@CDB@@_K@Z DD imagerel $LN6
	DD	imagerel $LN6+30
	DD	imagerel $unwind$?deallocate@?$xalloc@URESULT@CDB@@@@QEBAXPEAURESULT@CDB@@_K@Z
pdata	ENDS
;	COMDAT xdata
xdata	SEGMENT
$unwind$?deallocate@?$xalloc@URESULT@CDB@@@@QEBAXPEAURESULT@CDB@@_K@Z DD 010401H
	DD	04204H
; Function compile flags: /Ogtpy
; File c:\users\nummer\documents\github\olr-3.0\src\xray\xrcore\_stl_extensions.h
xdata	ENDS
;	COMDAT ?deallocate@?$xalloc@URESULT@CDB@@@@QEBAXPEAURESULT@CDB@@_K@Z
_TEXT	SEGMENT
p$ = 48
?deallocate@?$xalloc@URESULT@CDB@@@@QEBAXPEAURESULT@CDB@@_K@Z PROC ; xalloc<CDB::RESULT>::deallocate, COMDAT

; 82   : 							void					deallocate		(pointer p, size_type n) const			{	xr_free	(p);				}

$LN6:
	sub	rsp, 40					; 00000028H
	test	rcx, rcx
	je	SHORT $LN3@deallocate@2
	mov	rdx, rcx
	mov	rcx, QWORD PTR __imp_?Memory@@3VxrMemory@@A
	call	QWORD PTR __imp_?mem_free@xrMemory@@QEAAXPEAX@Z
$LN3@deallocate@2:
	add	rsp, 40					; 00000028H
	ret	0
?deallocate@?$xalloc@URESULT@CDB@@@@QEBAXPEAURESULT@CDB@@_K@Z ENDP ; xalloc<CDB::RESULT>::deallocate
; Function compile flags: /Ogtpy
_TEXT	ENDS
;	COMDAT ??0?$xalloc@URESULT@CDB@@@@QEAA@AEBV0@@Z
_TEXT	SEGMENT
this$ = 8
??0?$xalloc@URESULT@CDB@@@@QEAA@AEBV0@@Z PROC		; xalloc<CDB::RESULT>::xalloc<CDB::RESULT>, COMDAT

; 77   : 													xalloc			(const xalloc<T>&)						{	}

	mov	rax, rcx
	ret	0
??0?$xalloc@URESULT@CDB@@@@QEAA@AEBV0@@Z ENDP		; xalloc<CDB::RESULT>::xalloc<CDB::RESULT>
; Function compile flags: /Ogtpy
; File c:\program files (x86)\microsoft visual studio 10.0\vc\include\vector
_TEXT	ENDS
;	COMDAT ??1?$_Vector_val@URESULT@CDB@@V?$xalloc@URESULT@CDB@@@@@std@@QEAA@XZ
_TEXT	SEGMENT
??1?$_Vector_val@URESULT@CDB@@V?$xalloc@URESULT@CDB@@@@@std@@QEAA@XZ PROC ; std::_Vector_val<CDB::RESULT,xalloc<CDB::RESULT> >::~_Vector_val<CDB::RESULT,xalloc<CDB::RESULT> >, COMDAT

; 434  : 		}

	ret	0
??1?$_Vector_val@URESULT@CDB@@V?$xalloc@URESULT@CDB@@@@@std@@QEAA@XZ ENDP ; std::_Vector_val<CDB::RESULT,xalloc<CDB::RESULT> >::~_Vector_val<CDB::RESULT,xalloc<CDB::RESULT> >
; Function compile flags: /Ogtpy
_TEXT	ENDS
;	COMDAT ??0?$_Vector_val@URESULT@CDB@@V?$xalloc@URESULT@CDB@@@@@std@@QEAA@V?$xalloc@URESULT@CDB@@@@@Z
_TEXT	SEGMENT
this$ = 8
??0?$_Vector_val@URESULT@CDB@@V?$xalloc@URESULT@CDB@@@@@std@@QEAA@V?$xalloc@URESULT@CDB@@@@@Z PROC ; std::_Vector_val<CDB::RESULT,xalloc<CDB::RESULT> >::_Vector_val<CDB::RESULT,xalloc<CDB::RESULT> >, COMDAT

; 427  : 		_Myfirst = 0;

	xor	eax, eax
	mov	QWORD PTR [rcx], rax

; 428  : 		_Mylast = 0;

	mov	QWORD PTR [rcx+8], rax

; 429  : 		_Myend = 0;

	mov	QWORD PTR [rcx+16], rax

; 430  : 		}

	mov	rax, rcx
	ret	0
??0?$_Vector_val@URESULT@CDB@@V?$xalloc@URESULT@CDB@@@@@std@@QEAA@V?$xalloc@URESULT@CDB@@@@@Z ENDP ; std::_Vector_val<CDB::RESULT,xalloc<CDB::RESULT> >::_Vector_val<CDB::RESULT,xalloc<CDB::RESULT> >
; Function compile flags: /Ogtpy
_TEXT	ENDS
;	COMDAT ?_Orphan_range@?$vector@URESULT@CDB@@V?$xalloc@URESULT@CDB@@@@@std@@IEBAXPEAURESULT@CDB@@0@Z
_TEXT	SEGMENT
?_Orphan_range@?$vector@URESULT@CDB@@V?$xalloc@URESULT@CDB@@@@@std@@IEBAXPEAURESULT@CDB@@0@Z PROC ; std::vector<CDB::RESULT,xalloc<CDB::RESULT> >::_Orphan_range, COMDAT

; 1454 : 		}

	ret	0
?_Orphan_range@?$vector@URESULT@CDB@@V?$xalloc@URESULT@CDB@@@@@std@@IEBAXPEAURESULT@CDB@@0@Z ENDP ; std::vector<CDB::RESULT,xalloc<CDB::RESULT> >::_Orphan_range
; Function compile flags: /Ogtpy
_TEXT	ENDS
;	COMDAT ?_Inside@?$vector@URESULT@CDB@@V?$xalloc@URESULT@CDB@@@@@std@@IEBA_NPEBURESULT@CDB@@@Z
_TEXT	SEGMENT
this$ = 8
_Ptr$ = 16
?_Inside@?$vector@URESULT@CDB@@V?$xalloc@URESULT@CDB@@@@@std@@IEBA_NPEBURESULT@CDB@@@Z PROC ; std::vector<CDB::RESULT,xalloc<CDB::RESULT> >::_Inside, COMDAT

; 1286 : 		return (_Ptr < this->_Mylast && this->_Myfirst <= _Ptr);

	cmp	rdx, QWORD PTR [rcx+8]
	jae	SHORT $LN3@Inside@5
	cmp	QWORD PTR [rcx], rdx
	ja	SHORT $LN3@Inside@5
	mov	al, 1

; 1287 : 		}

	ret	0
$LN3@Inside@5:

; 1286 : 		return (_Ptr < this->_Mylast && this->_Myfirst <= _Ptr);

	xor	al, al

; 1287 : 		}

	ret	0
?_Inside@?$vector@URESULT@CDB@@V?$xalloc@URESULT@CDB@@@@@std@@IEBA_NPEBURESULT@CDB@@@Z ENDP ; std::vector<CDB::RESULT,xalloc<CDB::RESULT> >::_Inside
; Function compile flags: /Ogtpy
_TEXT	ENDS
;	COMDAT ?_Destroy@?$vector@URESULT@CDB@@V?$xalloc@URESULT@CDB@@@@@std@@IEAAXPEAURESULT@CDB@@0@Z
_TEXT	SEGMENT
?_Destroy@?$vector@URESULT@CDB@@V?$xalloc@URESULT@CDB@@@@@std@@IEAAXPEAURESULT@CDB@@0@Z PROC ; std::vector<CDB::RESULT,xalloc<CDB::RESULT> >::_Destroy, COMDAT

; 1270 : 		_Destroy_range(_First, _Last, this->_Alval);
; 1271 : 		}

	ret	0
?_Destroy@?$vector@URESULT@CDB@@V?$xalloc@URESULT@CDB@@@@@std@@IEAAXPEAURESULT@CDB@@0@Z ENDP ; std::vector<CDB::RESULT,xalloc<CDB::RESULT> >::_Destroy
_TEXT	ENDS
;	COMDAT pdata
; File c:\users\nummer\documents\github\olr-3.0\src\xray\xrcore\xrmemory.h
pdata	SEGMENT
$pdata$?_Buy@?$vector@URESULT@CDB@@V?$xalloc@URESULT@CDB@@@@@std@@IEAA_N_K@Z DD imagerel $LN19
	DD	imagerel $LN19+113
	DD	imagerel $unwind$?_Buy@?$vector@URESULT@CDB@@V?$xalloc@URESULT@CDB@@@@@std@@IEAA_N_K@Z
pdata	ENDS
;	COMDAT xdata
xdata	SEGMENT
$unwind$?_Buy@?$vector@URESULT@CDB@@V?$xalloc@URESULT@CDB@@@@@std@@IEAA_N_K@Z DD 040a01H
	DD	06340aH
	DD	07006320aH
; Function compile flags: /Ogtpy
; File c:\program files (x86)\microsoft visual studio 10.0\vc\include\vector
xdata	ENDS
;	COMDAT ?_Buy@?$vector@URESULT@CDB@@V?$xalloc@URESULT@CDB@@@@@std@@IEAA_N_K@Z
_TEXT	SEGMENT
this$ = 48
_Capacity$ = 56
?_Buy@?$vector@URESULT@CDB@@V?$xalloc@URESULT@CDB@@@@@std@@IEAA_N_K@Z PROC ; std::vector<CDB::RESULT,xalloc<CDB::RESULT> >::_Buy, COMDAT

; 1250 : 		{	// allocate array with _Capacity elements

$LN19:
	mov	QWORD PTR [rsp+8], rbx
	push	rdi
	sub	rsp, 32					; 00000020H

; 1251 : 		this->_Myfirst = 0;

	xor	eax, eax
	mov	rbx, rdx
	mov	rdi, rcx
	mov	QWORD PTR [rcx], rax

; 1252 : 		this->_Mylast = 0;

	mov	QWORD PTR [rcx+8], rax

; 1253 : 		this->_Myend = 0;

	mov	QWORD PTR [rcx+16], rax

; 1254 : 
; 1255 : 		if (_Capacity == 0)

	test	rdx, rdx

; 1256 : 			return (false);

	je	SHORT $LN5@Buy@2

; 1257 : 		else if (max_size() < _Capacity)

	mov	rax, 288230376151711743			; 03ffffffffffffffH
	cmp	rdx, rax
	jbe	SHORT $LN2@Buy@2

; 1258 : 			_Xlen();	// result too long

	lea	rcx, OFFSET FLAT:??_C@_0BD@OLBABOEK@vector?$DMT?$DO?5too?5long?$AA@
	call	QWORD PTR __imp_?_Xlength_error@std@@YAXPEBD@Z
	int	3
$LN2@Buy@2:

; 1259 : 		else
; 1260 : 			{	// nonempty array, allocate storage
; 1261 : 			this->_Myfirst = this->_Alval.allocate(_Capacity);

	mov	rcx, QWORD PTR __imp_?Memory@@3VxrMemory@@A
	mov	edx, edx
	shl	rdx, 6
	call	QWORD PTR __imp_?mem_alloc@xrMemory@@QEAAPEAX_K@Z

; 1262 : 			this->_Mylast = this->_Myfirst;
; 1263 : 			this->_Myend = this->_Myfirst + _Capacity;

	shl	rbx, 6
	add	rbx, rax
	mov	QWORD PTR [rdi], rax
	mov	QWORD PTR [rdi+8], rax
	mov	QWORD PTR [rdi+16], rbx

; 1264 : 			}
; 1265 : 		return (true);

	mov	al, 1
$LN5@Buy@2:

; 1266 : 		}

	mov	rbx, QWORD PTR [rsp+48]
	add	rsp, 32					; 00000020H
	pop	rdi
	ret	0
$LN18@Buy@2:
?_Buy@?$vector@URESULT@CDB@@V?$xalloc@URESULT@CDB@@@@@std@@IEAA_N_K@Z ENDP ; std::vector<CDB::RESULT,xalloc<CDB::RESULT> >::_Buy
; Function compile flags: /Ogtpy
_TEXT	ENDS
;	COMDAT ?size@?$vector@URESULT@CDB@@V?$xalloc@URESULT@CDB@@@@@std@@QEBA_KXZ
_TEXT	SEGMENT
this$ = 8
?size@?$vector@URESULT@CDB@@V?$xalloc@URESULT@CDB@@@@@std@@QEBA_KXZ PROC ; std::vector<CDB::RESULT,xalloc<CDB::RESULT> >::size, COMDAT

; 879  : 		return (this->_Mylast - this->_Myfirst);

	mov	rax, QWORD PTR [rcx+8]
	sub	rax, QWORD PTR [rcx]
	sar	rax, 6

; 880  : 		}

	ret	0
?size@?$vector@URESULT@CDB@@V?$xalloc@URESULT@CDB@@@@@std@@QEBA_KXZ ENDP ; std::vector<CDB::RESULT,xalloc<CDB::RESULT> >::size
; Function compile flags: /Ogtpy
_TEXT	ENDS
;	COMDAT ?end@?$vector@URESULT@CDB@@V?$xalloc@URESULT@CDB@@@@@std@@QEBA?AV?$_Vector_const_iterator@V?$_Vector_val@URESULT@CDB@@V?$xalloc@URESULT@CDB@@@@@std@@@2@XZ
_TEXT	SEGMENT
this$ = 8
__$ReturnUdt$ = 16
?end@?$vector@URESULT@CDB@@V?$xalloc@URESULT@CDB@@@@@std@@QEBA?AV?$_Vector_const_iterator@V?$_Vector_val@URESULT@CDB@@V?$xalloc@URESULT@CDB@@@@@std@@@2@XZ PROC ; std::vector<CDB::RESULT,xalloc<CDB::RESULT> >::end, COMDAT

; 797  : 		return (const_iterator(this->_Mylast, this));

	mov	rax, QWORD PTR [rcx+8]
	mov	QWORD PTR [rdx], rax
	mov	rax, rdx

; 798  : 		}

	ret	0
?end@?$vector@URESULT@CDB@@V?$xalloc@URESULT@CDB@@@@@std@@QEBA?AV?$_Vector_const_iterator@V?$_Vector_val@URESULT@CDB@@V?$xalloc@URESULT@CDB@@@@@std@@@2@XZ ENDP ; std::vector<CDB::RESULT,xalloc<CDB::RESULT> >::end
; Function compile flags: /Ogtpy
_TEXT	ENDS
;	COMDAT ?begin@?$vector@URESULT@CDB@@V?$xalloc@URESULT@CDB@@@@@std@@QEBA?AV?$_Vector_const_iterator@V?$_Vector_val@URESULT@CDB@@V?$xalloc@URESULT@CDB@@@@@std@@@2@XZ
_TEXT	SEGMENT
this$ = 8
__$ReturnUdt$ = 16
?begin@?$vector@URESULT@CDB@@V?$xalloc@URESULT@CDB@@@@@std@@QEBA?AV?$_Vector_const_iterator@V?$_Vector_val@URESULT@CDB@@V?$xalloc@URESULT@CDB@@@@@std@@@2@XZ PROC ; std::vector<CDB::RESULT,xalloc<CDB::RESULT> >::begin, COMDAT

; 787  : 		return (const_iterator(this->_Myfirst, this));

	mov	rax, QWORD PTR [rcx]
	mov	QWORD PTR [rdx], rax
	mov	rax, rdx

; 788  : 		}

	ret	0
?begin@?$vector@URESULT@CDB@@V?$xalloc@URESULT@CDB@@@@@std@@QEBA?AV?$_Vector_const_iterator@V?$_Vector_val@URESULT@CDB@@V?$xalloc@URESULT@CDB@@@@@std@@@2@XZ ENDP ; std::vector<CDB::RESULT,xalloc<CDB::RESULT> >::begin
; Function compile flags: /Ogtpy
_TEXT	ENDS
;	COMDAT ?capacity@?$vector@URESULT@CDB@@V?$xalloc@URESULT@CDB@@@@@std@@QEBA_KXZ
_TEXT	SEGMENT
this$ = 8
?capacity@?$vector@URESULT@CDB@@V?$xalloc@URESULT@CDB@@@@@std@@QEBA_KXZ PROC ; std::vector<CDB::RESULT,xalloc<CDB::RESULT> >::capacity, COMDAT

; 777  : 		return (this->_Myend - this->_Myfirst);

	mov	rax, QWORD PTR [rcx+16]
	sub	rax, QWORD PTR [rcx]
	sar	rax, 6

; 778  : 		}

	ret	0
?capacity@?$vector@URESULT@CDB@@V?$xalloc@URESULT@CDB@@@@@std@@QEBA_KXZ ENDP ; std::vector<CDB::RESULT,xalloc<CDB::RESULT> >::capacity
; Function compile flags: /Ogtpy
_TEXT	ENDS
;	COMDAT ??0?$vector@URESULT@CDB@@V?$xalloc@URESULT@CDB@@@@@std@@QEAA@XZ
_TEXT	SEGMENT
this$ = 8
??0?$vector@URESULT@CDB@@V?$xalloc@URESULT@CDB@@@@@std@@QEAA@XZ PROC ; std::vector<CDB::RESULT,xalloc<CDB::RESULT> >::vector<CDB::RESULT,xalloc<CDB::RESULT> >, COMDAT

; 507  : 		{	// construct empty vector

	xor	eax, eax
	mov	QWORD PTR [rcx], rax
	mov	QWORD PTR [rcx+8], rax
	mov	QWORD PTR [rcx+16], rax

; 508  : 		}

	mov	rax, rcx
	ret	0
??0?$vector@URESULT@CDB@@V?$xalloc@URESULT@CDB@@@@@std@@QEAA@XZ ENDP ; std::vector<CDB::RESULT,xalloc<CDB::RESULT> >::vector<CDB::RESULT,xalloc<CDB::RESULT> >
_TEXT	ENDS
;	COMDAT pdata
; File c:\users\nummer\documents\github\olr-3.0\src\xray\xrcore\xrmemory.h
pdata	SEGMENT
$pdata$?deallocate@?$xalloc@U?$_vector3@M@@@@QEBAXPEAU?$_vector3@M@@_K@Z DD imagerel $LN6
	DD	imagerel $LN6+30
	DD	imagerel $unwind$?deallocate@?$xalloc@U?$_vector3@M@@@@QEBAXPEAU?$_vector3@M@@_K@Z
pdata	ENDS
;	COMDAT xdata
xdata	SEGMENT
$unwind$?deallocate@?$xalloc@U?$_vector3@M@@@@QEBAXPEAU?$_vector3@M@@_K@Z DD 010401H
	DD	04204H
; Function compile flags: /Ogtpy
; File c:\users\nummer\documents\github\olr-3.0\src\xray\xrcore\_stl_extensions.h
xdata	ENDS
;	COMDAT ?deallocate@?$xalloc@U?$_vector3@M@@@@QEBAXPEAU?$_vector3@M@@_K@Z
_TEXT	SEGMENT
p$ = 48
?deallocate@?$xalloc@U?$_vector3@M@@@@QEBAXPEAU?$_vector3@M@@_K@Z PROC ; xalloc<_vector3<float> >::deallocate, COMDAT

; 82   : 							void					deallocate		(pointer p, size_type n) const			{	xr_free	(p);				}

$LN6:
	sub	rsp, 40					; 00000028H
	test	rcx, rcx
	je	SHORT $LN3@deallocate@3
	mov	rdx, rcx
	mov	rcx, QWORD PTR __imp_?Memory@@3VxrMemory@@A
	call	QWORD PTR __imp_?mem_free@xrMemory@@QEAAXPEAX@Z
$LN3@deallocate@3:
	add	rsp, 40					; 00000028H
	ret	0
?deallocate@?$xalloc@U?$_vector3@M@@@@QEBAXPEAU?$_vector3@M@@_K@Z ENDP ; xalloc<_vector3<float> >::deallocate
; Function compile flags: /Ogtpy
_TEXT	ENDS
;	COMDAT ??0?$xalloc@U?$_vector3@M@@@@QEAA@AEBV0@@Z
_TEXT	SEGMENT
this$ = 8
??0?$xalloc@U?$_vector3@M@@@@QEAA@AEBV0@@Z PROC		; xalloc<_vector3<float> >::xalloc<_vector3<float> >, COMDAT

; 77   : 													xalloc			(const xalloc<T>&)						{	}

	mov	rax, rcx
	ret	0
??0?$xalloc@U?$_vector3@M@@@@QEAA@AEBV0@@Z ENDP		; xalloc<_vector3<float> >::xalloc<_vector3<float> >
; Function compile flags: /Ogtpy
; File c:\program files (x86)\microsoft visual studio 10.0\vc\include\vector
_TEXT	ENDS
;	COMDAT ??1?$_Vector_val@U?$_vector3@M@@V?$xalloc@U?$_vector3@M@@@@@std@@QEAA@XZ
_TEXT	SEGMENT
??1?$_Vector_val@U?$_vector3@M@@V?$xalloc@U?$_vector3@M@@@@@std@@QEAA@XZ PROC ; std::_Vector_val<_vector3<float>,xalloc<_vector3<float> > >::~_Vector_val<_vector3<float>,xalloc<_vector3<float> > >, COMDAT

; 434  : 		}

	ret	0
??1?$_Vector_val@U?$_vector3@M@@V?$xalloc@U?$_vector3@M@@@@@std@@QEAA@XZ ENDP ; std::_Vector_val<_vector3<float>,xalloc<_vector3<float> > >::~_Vector_val<_vector3<float>,xalloc<_vector3<float> > >
; Function compile flags: /Ogtpy
_TEXT	ENDS
;	COMDAT ??0?$_Vector_val@U?$_vector3@M@@V?$xalloc@U?$_vector3@M@@@@@std@@QEAA@V?$xalloc@U?$_vector3@M@@@@@Z
_TEXT	SEGMENT
this$ = 8
??0?$_Vector_val@U?$_vector3@M@@V?$xalloc@U?$_vector3@M@@@@@std@@QEAA@V?$xalloc@U?$_vector3@M@@@@@Z PROC ; std::_Vector_val<_vector3<float>,xalloc<_vector3<float> > >::_Vector_val<_vector3<float>,xalloc<_vector3<float> > >, COMDAT

; 427  : 		_Myfirst = 0;

	xor	eax, eax
	mov	QWORD PTR [rcx], rax

; 428  : 		_Mylast = 0;

	mov	QWORD PTR [rcx+8], rax

; 429  : 		_Myend = 0;

	mov	QWORD PTR [rcx+16], rax

; 430  : 		}

	mov	rax, rcx
	ret	0
??0?$_Vector_val@U?$_vector3@M@@V?$xalloc@U?$_vector3@M@@@@@std@@QEAA@V?$xalloc@U?$_vector3@M@@@@@Z ENDP ; std::_Vector_val<_vector3<float>,xalloc<_vector3<float> > >::_Vector_val<_vector3<float>,xalloc<_vector3<float> > >
; Function compile flags: /Ogtpy
_TEXT	ENDS
;	COMDAT ?_Destroy@?$vector@U?$_vector3@M@@V?$xalloc@U?$_vector3@M@@@@@std@@IEAAXPEAU?$_vector3@M@@0@Z
_TEXT	SEGMENT
?_Destroy@?$vector@U?$_vector3@M@@V?$xalloc@U?$_vector3@M@@@@@std@@IEAAXPEAU?$_vector3@M@@0@Z PROC ; std::vector<_vector3<float>,xalloc<_vector3<float> > >::_Destroy, COMDAT

; 1270 : 		_Destroy_range(_First, _Last, this->_Alval);
; 1271 : 		}

	ret	0
?_Destroy@?$vector@U?$_vector3@M@@V?$xalloc@U?$_vector3@M@@@@@std@@IEAAXPEAU?$_vector3@M@@0@Z ENDP ; std::vector<_vector3<float>,xalloc<_vector3<float> > >::_Destroy
_TEXT	ENDS
;	COMDAT pdata
; File c:\users\nummer\documents\github\olr-3.0\src\xray\xrcore\xrmemory.h
pdata	SEGMENT
$pdata$?_Buy@?$vector@U?$_vector3@M@@V?$xalloc@U?$_vector3@M@@@@@std@@IEAA_N_K@Z DD imagerel $LN19
	DD	imagerel $LN19+118
	DD	imagerel $unwind$?_Buy@?$vector@U?$_vector3@M@@V?$xalloc@U?$_vector3@M@@@@@std@@IEAA_N_K@Z
pdata	ENDS
;	COMDAT xdata
xdata	SEGMENT
$unwind$?_Buy@?$vector@U?$_vector3@M@@V?$xalloc@U?$_vector3@M@@@@@std@@IEAA_N_K@Z DD 040a01H
	DD	06340aH
	DD	07006320aH
; Function compile flags: /Ogtpy
; File c:\program files (x86)\microsoft visual studio 10.0\vc\include\vector
xdata	ENDS
;	COMDAT ?_Buy@?$vector@U?$_vector3@M@@V?$xalloc@U?$_vector3@M@@@@@std@@IEAA_N_K@Z
_TEXT	SEGMENT
this$ = 48
_Capacity$ = 56
?_Buy@?$vector@U?$_vector3@M@@V?$xalloc@U?$_vector3@M@@@@@std@@IEAA_N_K@Z PROC ; std::vector<_vector3<float>,xalloc<_vector3<float> > >::_Buy, COMDAT

; 1250 : 		{	// allocate array with _Capacity elements

$LN19:
	mov	QWORD PTR [rsp+8], rbx
	push	rdi
	sub	rsp, 32					; 00000020H

; 1251 : 		this->_Myfirst = 0;

	xor	eax, eax
	mov	rdi, rdx
	mov	rbx, rcx
	mov	QWORD PTR [rcx], rax

; 1252 : 		this->_Mylast = 0;

	mov	QWORD PTR [rcx+8], rax

; 1253 : 		this->_Myend = 0;

	mov	QWORD PTR [rcx+16], rax

; 1254 : 
; 1255 : 		if (_Capacity == 0)

	test	rdx, rdx

; 1256 : 			return (false);

	je	SHORT $LN5@Buy@3

; 1257 : 		else if (max_size() < _Capacity)

	mov	rax, 1537228672809129301		; 1555555555555555H
	cmp	rdx, rax
	jbe	SHORT $LN2@Buy@3

; 1258 : 			_Xlen();	// result too long

	lea	rcx, OFFSET FLAT:??_C@_0BD@OLBABOEK@vector?$DMT?$DO?5too?5long?$AA@
	call	QWORD PTR __imp_?_Xlength_error@std@@YAXPEBD@Z
	int	3
$LN2@Buy@3:

; 1259 : 		else
; 1260 : 			{	// nonempty array, allocate storage
; 1261 : 			this->_Myfirst = this->_Alval.allocate(_Capacity);

	mov	rcx, QWORD PTR __imp_?Memory@@3VxrMemory@@A
	mov	eax, edx
	lea	rdx, QWORD PTR [rax+rax*2]
	shl	rdx, 2
	call	QWORD PTR __imp_?mem_alloc@xrMemory@@QEAAPEAX_K@Z

; 1262 : 			this->_Mylast = this->_Myfirst;
; 1263 : 			this->_Myend = this->_Myfirst + _Capacity;

	lea	rcx, QWORD PTR [rdi+rdi*2]
	mov	QWORD PTR [rbx], rax
	mov	QWORD PTR [rbx+8], rax
	lea	rax, QWORD PTR [rax+rcx*4]
	mov	QWORD PTR [rbx+16], rax

; 1264 : 			}
; 1265 : 		return (true);

	mov	al, 1
$LN5@Buy@3:

; 1266 : 		}

	mov	rbx, QWORD PTR [rsp+48]
	add	rsp, 32					; 00000020H
	pop	rdi
	ret	0
$LN18@Buy@3:
?_Buy@?$vector@U?$_vector3@M@@V?$xalloc@U?$_vector3@M@@@@@std@@IEAA_N_K@Z ENDP ; std::vector<_vector3<float>,xalloc<_vector3<float> > >::_Buy
; Function compile flags: /Ogtpy
_TEXT	ENDS
;	COMDAT ?size@?$vector@U?$_vector3@M@@V?$xalloc@U?$_vector3@M@@@@@std@@QEBA_KXZ
_TEXT	SEGMENT
this$ = 8
?size@?$vector@U?$_vector3@M@@V?$xalloc@U?$_vector3@M@@@@@std@@QEBA_KXZ PROC ; std::vector<_vector3<float>,xalloc<_vector3<float> > >::size, COMDAT

; 879  : 		return (this->_Mylast - this->_Myfirst);

	mov	rdx, QWORD PTR [rcx+8]
	mov	rax, 3074457345618258603		; 2aaaaaaaaaaaaaabH
	sub	rdx, QWORD PTR [rcx]
	imul	rdx
	sar	rdx, 1
	mov	rax, rdx
	shr	rax, 63					; 0000003fH
	add	rax, rdx

; 880  : 		}

	ret	0
?size@?$vector@U?$_vector3@M@@V?$xalloc@U?$_vector3@M@@@@@std@@QEBA_KXZ ENDP ; std::vector<_vector3<float>,xalloc<_vector3<float> > >::size
; Function compile flags: /Ogtpy
_TEXT	ENDS
;	COMDAT ?end@?$vector@U?$_vector3@M@@V?$xalloc@U?$_vector3@M@@@@@std@@QEBA?AV?$_Vector_const_iterator@V?$_Vector_val@U?$_vector3@M@@V?$xalloc@U?$_vector3@M@@@@@std@@@2@XZ
_TEXT	SEGMENT
this$ = 8
__$ReturnUdt$ = 16
?end@?$vector@U?$_vector3@M@@V?$xalloc@U?$_vector3@M@@@@@std@@QEBA?AV?$_Vector_const_iterator@V?$_Vector_val@U?$_vector3@M@@V?$xalloc@U?$_vector3@M@@@@@std@@@2@XZ PROC ; std::vector<_vector3<float>,xalloc<_vector3<float> > >::end, COMDAT

; 797  : 		return (const_iterator(this->_Mylast, this));

	mov	rax, QWORD PTR [rcx+8]
	mov	QWORD PTR [rdx], rax
	mov	rax, rdx

; 798  : 		}

	ret	0
?end@?$vector@U?$_vector3@M@@V?$xalloc@U?$_vector3@M@@@@@std@@QEBA?AV?$_Vector_const_iterator@V?$_Vector_val@U?$_vector3@M@@V?$xalloc@U?$_vector3@M@@@@@std@@@2@XZ ENDP ; std::vector<_vector3<float>,xalloc<_vector3<float> > >::end
; Function compile flags: /Ogtpy
_TEXT	ENDS
;	COMDAT ?begin@?$vector@U?$_vector3@M@@V?$xalloc@U?$_vector3@M@@@@@std@@QEBA?AV?$_Vector_const_iterator@V?$_Vector_val@U?$_vector3@M@@V?$xalloc@U?$_vector3@M@@@@@std@@@2@XZ
_TEXT	SEGMENT
this$ = 8
__$ReturnUdt$ = 16
?begin@?$vector@U?$_vector3@M@@V?$xalloc@U?$_vector3@M@@@@@std@@QEBA?AV?$_Vector_const_iterator@V?$_Vector_val@U?$_vector3@M@@V?$xalloc@U?$_vector3@M@@@@@std@@@2@XZ PROC ; std::vector<_vector3<float>,xalloc<_vector3<float> > >::begin, COMDAT

; 787  : 		return (const_iterator(this->_Myfirst, this));

	mov	rax, QWORD PTR [rcx]
	mov	QWORD PTR [rdx], rax
	mov	rax, rdx

; 788  : 		}

	ret	0
?begin@?$vector@U?$_vector3@M@@V?$xalloc@U?$_vector3@M@@@@@std@@QEBA?AV?$_Vector_const_iterator@V?$_Vector_val@U?$_vector3@M@@V?$xalloc@U?$_vector3@M@@@@@std@@@2@XZ ENDP ; std::vector<_vector3<float>,xalloc<_vector3<float> > >::begin
; Function compile flags: /Ogtpy
_TEXT	ENDS
;	COMDAT ?capacity@?$vector@U?$_vector3@M@@V?$xalloc@U?$_vector3@M@@@@@std@@QEBA_KXZ
_TEXT	SEGMENT
this$ = 8
?capacity@?$vector@U?$_vector3@M@@V?$xalloc@U?$_vector3@M@@@@@std@@QEBA_KXZ PROC ; std::vector<_vector3<float>,xalloc<_vector3<float> > >::capacity, COMDAT

; 777  : 		return (this->_Myend - this->_Myfirst);

	mov	rdx, QWORD PTR [rcx+16]
	mov	rax, 3074457345618258603		; 2aaaaaaaaaaaaaabH
	sub	rdx, QWORD PTR [rcx]
	imul	rdx
	sar	rdx, 1
	mov	rax, rdx
	shr	rax, 63					; 0000003fH
	add	rax, rdx

; 778  : 		}

	ret	0
?capacity@?$vector@U?$_vector3@M@@V?$xalloc@U?$_vector3@M@@@@@std@@QEBA_KXZ ENDP ; std::vector<_vector3<float>,xalloc<_vector3<float> > >::capacity
; Function compile flags: /Ogtpy
_TEXT	ENDS
;	COMDAT ??0?$vector@U?$_vector3@M@@V?$xalloc@U?$_vector3@M@@@@@std@@QEAA@XZ
_TEXT	SEGMENT
this$ = 8
??0?$vector@U?$_vector3@M@@V?$xalloc@U?$_vector3@M@@@@@std@@QEAA@XZ PROC ; std::vector<_vector3<float>,xalloc<_vector3<float> > >::vector<_vector3<float>,xalloc<_vector3<float> > >, COMDAT

; 507  : 		{	// construct empty vector

	xor	eax, eax
	mov	QWORD PTR [rcx], rax
	mov	QWORD PTR [rcx+8], rax
	mov	QWORD PTR [rcx+16], rax

; 508  : 		}

	mov	rax, rcx
	ret	0
??0?$vector@U?$_vector3@M@@V?$xalloc@U?$_vector3@M@@@@@std@@QEAA@XZ ENDP ; std::vector<_vector3<float>,xalloc<_vector3<float> > >::vector<_vector3<float>,xalloc<_vector3<float> > >
; Function compile flags: /Ogtpy
_TEXT	ENDS
;	COMDAT ??D?$_Vector_iterator@V?$_Vector_val@VTRI@CDB@@V?$xalloc@VTRI@CDB@@@@@std@@@std@@QEBAAEAVTRI@CDB@@XZ
_TEXT	SEGMENT
this$ = 8
??D?$_Vector_iterator@V?$_Vector_val@VTRI@CDB@@V?$xalloc@VTRI@CDB@@@@@std@@@std@@QEBAAEAVTRI@CDB@@XZ PROC ; std::_Vector_iterator<std::_Vector_val<CDB::TRI,xalloc<CDB::TRI> > >::operator*, COMDAT

; 322  : 		return ((reference)**(_Mybase *)this);

	mov	rax, QWORD PTR [rcx]

; 323  : 		}

	ret	0
??D?$_Vector_iterator@V?$_Vector_val@VTRI@CDB@@V?$xalloc@VTRI@CDB@@@@@std@@@std@@QEBAAEAVTRI@CDB@@XZ ENDP ; std::_Vector_iterator<std::_Vector_val<CDB::TRI,xalloc<CDB::TRI> > >::operator*
; Function compile flags: /Ogtpy
_TEXT	ENDS
;	COMDAT ??D?$_Vector_iterator@V?$_Vector_val@U?$_vector3@M@@V?$xalloc@U?$_vector3@M@@@@@std@@@std@@QEBAAEAU?$_vector3@M@@XZ
_TEXT	SEGMENT
this$ = 8
??D?$_Vector_iterator@V?$_Vector_val@U?$_vector3@M@@V?$xalloc@U?$_vector3@M@@@@@std@@@std@@QEBAAEAU?$_vector3@M@@XZ PROC ; std::_Vector_iterator<std::_Vector_val<_vector3<float>,xalloc<_vector3<float> > > >::operator*, COMDAT

; 322  : 		return ((reference)**(_Mybase *)this);

	mov	rax, QWORD PTR [rcx]

; 323  : 		}

	ret	0
??D?$_Vector_iterator@V?$_Vector_val@U?$_vector3@M@@V?$xalloc@U?$_vector3@M@@@@@std@@@std@@QEBAAEAU?$_vector3@M@@XZ ENDP ; std::_Vector_iterator<std::_Vector_val<_vector3<float>,xalloc<_vector3<float> > > >::operator*
; Function compile flags: /Ogtpy
_TEXT	ENDS
;	COMDAT ?begin@?$vector@VTRI@CDB@@V?$xalloc@VTRI@CDB@@@@@std@@QEAA?AV?$_Vector_iterator@V?$_Vector_val@VTRI@CDB@@V?$xalloc@VTRI@CDB@@@@@std@@@2@XZ
_TEXT	SEGMENT
this$ = 8
__$ReturnUdt$ = 16
?begin@?$vector@VTRI@CDB@@V?$xalloc@VTRI@CDB@@@@@std@@QEAA?AV?$_Vector_iterator@V?$_Vector_val@VTRI@CDB@@V?$xalloc@VTRI@CDB@@@@@std@@@2@XZ PROC ; std::vector<CDB::TRI,xalloc<CDB::TRI> >::begin, COMDAT

; 782  : 		return (iterator(this->_Myfirst, this));

	mov	rax, QWORD PTR [rcx]
	mov	QWORD PTR [rdx], rax
	mov	rax, rdx

; 783  : 		}

	ret	0
?begin@?$vector@VTRI@CDB@@V?$xalloc@VTRI@CDB@@@@@std@@QEAA?AV?$_Vector_iterator@V?$_Vector_val@VTRI@CDB@@V?$xalloc@VTRI@CDB@@@@@std@@@2@XZ ENDP ; std::vector<CDB::TRI,xalloc<CDB::TRI> >::begin
; Function compile flags: /Ogtpy
; File c:\users\nummer\documents\github\olr-3.0\src\xray\xrcore\_stl_extensions.h
_TEXT	ENDS
;	COMDAT ?size@?$xr_vector@VTRI@CDB@@V?$xalloc@VTRI@CDB@@@@@@QEBAIXZ
_TEXT	SEGMENT
this$ = 8
?size@?$xr_vector@VTRI@CDB@@V?$xalloc@VTRI@CDB@@@@@@QEBAIXZ PROC ; xr_vector<CDB::TRI,xalloc<CDB::TRI> >::size, COMDAT

; 125  : 	u32		size				() const							{ return (u32)inherited::size();} 

	mov	rdx, QWORD PTR [rcx+8]
	mov	rax, 3074457345618258603		; 2aaaaaaaaaaaaaabH
	sub	rdx, QWORD PTR [rcx]
	imul	rdx
	sar	rdx, 2
	mov	rax, rdx
	shr	rax, 63					; 0000003fH
	add	rax, rdx
	ret	0
?size@?$xr_vector@VTRI@CDB@@V?$xalloc@VTRI@CDB@@@@@@QEBAIXZ ENDP ; xr_vector<CDB::TRI,xalloc<CDB::TRI> >::size
; Function compile flags: /Ogtpy
; File c:\program files (x86)\microsoft visual studio 10.0\vc\include\vector
_TEXT	ENDS
;	COMDAT ??D?$_Vector_iterator@V?$_Vector_val@URESULT@CDB@@V?$xalloc@URESULT@CDB@@@@@std@@@std@@QEBAAEAURESULT@CDB@@XZ
_TEXT	SEGMENT
this$ = 8
??D?$_Vector_iterator@V?$_Vector_val@URESULT@CDB@@V?$xalloc@URESULT@CDB@@@@@std@@@std@@QEBAAEAURESULT@CDB@@XZ PROC ; std::_Vector_iterator<std::_Vector_val<CDB::RESULT,xalloc<CDB::RESULT> > >::operator*, COMDAT

; 322  : 		return ((reference)**(_Mybase *)this);

	mov	rax, QWORD PTR [rcx]

; 323  : 		}

	ret	0
??D?$_Vector_iterator@V?$_Vector_val@URESULT@CDB@@V?$xalloc@URESULT@CDB@@@@@std@@@std@@QEBAAEAURESULT@CDB@@XZ ENDP ; std::_Vector_iterator<std::_Vector_val<CDB::RESULT,xalloc<CDB::RESULT> > >::operator*
; Function compile flags: /Ogtpy
_TEXT	ENDS
;	COMDAT ?end@?$vector@URESULT@CDB@@V?$xalloc@URESULT@CDB@@@@@std@@QEAA?AV?$_Vector_iterator@V?$_Vector_val@URESULT@CDB@@V?$xalloc@URESULT@CDB@@@@@std@@@2@XZ
_TEXT	SEGMENT
this$ = 8
__$ReturnUdt$ = 16
?end@?$vector@URESULT@CDB@@V?$xalloc@URESULT@CDB@@@@@std@@QEAA?AV?$_Vector_iterator@V?$_Vector_val@URESULT@CDB@@V?$xalloc@URESULT@CDB@@@@@std@@@2@XZ PROC ; std::vector<CDB::RESULT,xalloc<CDB::RESULT> >::end, COMDAT

; 792  : 		return (iterator(this->_Mylast, this));

	mov	rax, QWORD PTR [rcx+8]
	mov	QWORD PTR [rdx], rax
	mov	rax, rdx

; 793  : 		}

	ret	0
?end@?$vector@URESULT@CDB@@V?$xalloc@URESULT@CDB@@@@@std@@QEAA?AV?$_Vector_iterator@V?$_Vector_val@URESULT@CDB@@V?$xalloc@URESULT@CDB@@@@@std@@@2@XZ ENDP ; std::vector<CDB::RESULT,xalloc<CDB::RESULT> >::end
; Function compile flags: /Ogtpy
_TEXT	ENDS
;	COMDAT ?begin@?$vector@URESULT@CDB@@V?$xalloc@URESULT@CDB@@@@@std@@QEAA?AV?$_Vector_iterator@V?$_Vector_val@URESULT@CDB@@V?$xalloc@URESULT@CDB@@@@@std@@@2@XZ
_TEXT	SEGMENT
this$ = 8
__$ReturnUdt$ = 16
?begin@?$vector@URESULT@CDB@@V?$xalloc@URESULT@CDB@@@@@std@@QEAA?AV?$_Vector_iterator@V?$_Vector_val@URESULT@CDB@@V?$xalloc@URESULT@CDB@@@@@std@@@2@XZ PROC ; std::vector<CDB::RESULT,xalloc<CDB::RESULT> >::begin, COMDAT

; 782  : 		return (iterator(this->_Myfirst, this));

	mov	rax, QWORD PTR [rcx]
	mov	QWORD PTR [rdx], rax
	mov	rax, rdx

; 783  : 		}

	ret	0
?begin@?$vector@URESULT@CDB@@V?$xalloc@URESULT@CDB@@@@@std@@QEAA?AV?$_Vector_iterator@V?$_Vector_val@URESULT@CDB@@V?$xalloc@URESULT@CDB@@@@@std@@@2@XZ ENDP ; std::vector<CDB::RESULT,xalloc<CDB::RESULT> >::begin
; Function compile flags: /Ogtpy
; File c:\users\nummer\documents\github\olr-3.0\src\xray\xrcore\_stl_extensions.h
_TEXT	ENDS
;	COMDAT ?size@?$xr_vector@URESULT@CDB@@V?$xalloc@URESULT@CDB@@@@@@QEBAIXZ
_TEXT	SEGMENT
this$ = 8
?size@?$xr_vector@URESULT@CDB@@V?$xalloc@URESULT@CDB@@@@@@QEBAIXZ PROC ; xr_vector<CDB::RESULT,xalloc<CDB::RESULT> >::size, COMDAT

; 125  : 	u32		size				() const							{ return (u32)inherited::size();} 

	mov	rax, QWORD PTR [rcx+8]
	sub	rax, QWORD PTR [rcx]
	sar	rax, 6
	ret	0
?size@?$xr_vector@URESULT@CDB@@V?$xalloc@URESULT@CDB@@@@@@QEBAIXZ ENDP ; xr_vector<CDB::RESULT,xalloc<CDB::RESULT> >::size
; Function compile flags: /Ogtpy
; File c:\program files (x86)\microsoft visual studio 10.0\vc\include\vector
_TEXT	ENDS
;	COMDAT ?begin@?$vector@U?$_vector3@M@@V?$xalloc@U?$_vector3@M@@@@@std@@QEAA?AV?$_Vector_iterator@V?$_Vector_val@U?$_vector3@M@@V?$xalloc@U?$_vector3@M@@@@@std@@@2@XZ
_TEXT	SEGMENT
this$ = 8
__$ReturnUdt$ = 16
?begin@?$vector@U?$_vector3@M@@V?$xalloc@U?$_vector3@M@@@@@std@@QEAA?AV?$_Vector_iterator@V?$_Vector_val@U?$_vector3@M@@V?$xalloc@U?$_vector3@M@@@@@std@@@2@XZ PROC ; std::vector<_vector3<float>,xalloc<_vector3<float> > >::begin, COMDAT

; 782  : 		return (iterator(this->_Myfirst, this));

	mov	rax, QWORD PTR [rcx]
	mov	QWORD PTR [rdx], rax
	mov	rax, rdx

; 783  : 		}

	ret	0
?begin@?$vector@U?$_vector3@M@@V?$xalloc@U?$_vector3@M@@@@@std@@QEAA?AV?$_Vector_iterator@V?$_Vector_val@U?$_vector3@M@@V?$xalloc@U?$_vector3@M@@@@@std@@@2@XZ ENDP ; std::vector<_vector3<float>,xalloc<_vector3<float> > >::begin
; Function compile flags: /Ogtpy
; File c:\users\nummer\documents\github\olr-3.0\src\xray\xrcore\_stl_extensions.h
_TEXT	ENDS
;	COMDAT ?size@?$xr_vector@U?$_vector3@M@@V?$xalloc@U?$_vector3@M@@@@@@QEBAIXZ
_TEXT	SEGMENT
this$ = 8
?size@?$xr_vector@U?$_vector3@M@@V?$xalloc@U?$_vector3@M@@@@@@QEBAIXZ PROC ; xr_vector<_vector3<float>,xalloc<_vector3<float> > >::size, COMDAT

; 125  : 	u32		size				() const							{ return (u32)inherited::size();} 

	mov	rdx, QWORD PTR [rcx+8]
	mov	rax, 3074457345618258603		; 2aaaaaaaaaaaaaabH
	sub	rdx, QWORD PTR [rcx]
	imul	rdx
	sar	rdx, 1
	mov	rax, rdx
	shr	rax, 63					; 0000003fH
	add	rax, rdx
	ret	0
?size@?$xr_vector@U?$_vector3@M@@V?$xalloc@U?$_vector3@M@@@@@@QEBAIXZ ENDP ; xr_vector<_vector3<float>,xalloc<_vector3<float> > >::size
_TEXT	ENDS
PUBLIC	?memory@MODEL@CDB@@QEAAIXZ			; CDB::MODEL::memory
pdata	SEGMENT
$pdata$?memory@MODEL@CDB@@QEAAIXZ DD imagerel $LN6
	DD	imagerel $LN6+90
	DD	imagerel $unwind$?memory@MODEL@CDB@@QEAAIXZ
pdata	ENDS
xdata	SEGMENT
$unwind$?memory@MODEL@CDB@@QEAAIXZ DD 052b01H
	DD	04742bH
	DD	063426H
	DD	04204H
; Function compile flags: /Ogtpy
; File c:\users\nummer\documents\github\olr-3.0\src\xray\xrcdb\xrcdb.cpp
xdata	ENDS
_TEXT	SEGMENT
this$ = 48
?memory@MODEL@CDB@@QEAAIXZ PROC				; CDB::MODEL::memory

; 152  : {

$LN6:
	sub	rsp, 40					; 00000028H

; 153  : 	if (S_BUILD==status)	{ Msg	("! xrCDB: model still isn't ready"); return 0; }

	cmp	DWORD PTR [rcx+16], 2
	jne	SHORT $LN1@memory
	lea	rcx, OFFSET FLAT:??_C@_0CB@NBDEDBNA@?$CB?5xrCDB?3?5model?5still?5isn?8t?5ready@
	call	QWORD PTR __imp_?Msg@@YAXPEBDZZ
	xor	eax, eax

; 157  : }

	add	rsp, 40					; 00000028H
	ret	0
$LN1@memory:

; 154  : 	u32 V					= verts_count*sizeof(Fvector);

	mov	eax, DWORD PTR [rcx+48]
	mov	QWORD PTR [rsp+48], rbx
	mov	QWORD PTR [rsp+32], rdi
	lea	edi, DWORD PTR [rax+rax*2]

; 155  : 	u32 T					= tris_count *sizeof(TRI);

	mov	eax, DWORD PTR [rcx+32]
	lea	ebx, DWORD PTR [rax+rax*2]

; 156  : 	return tree->GetUsedBytes()+V+T+sizeof(*this)+sizeof(*tree);

	mov	rax, QWORD PTR [rcx+8]
	mov	rcx, QWORD PTR [rax+8]
	shl	ebx, 3
	mov	rax, QWORD PTR [rcx]
	call	QWORD PTR [rax+8]
	add	eax, ebx
	mov	rbx, QWORD PTR [rsp+48]
	lea	eax, DWORD PTR [rax+rdi*4+80]
	mov	rdi, QWORD PTR [rsp+32]

; 157  : }

	add	rsp, 40					; 00000028H
	ret	0
?memory@MODEL@CDB@@QEAAIXZ ENDP				; CDB::MODEL::memory
_TEXT	ENDS
PUBLIC	??0MODEL@CDB@@QEAA@XZ				; CDB::MODEL::MODEL
pdata	SEGMENT
$pdata$??0MODEL@CDB@@QEAA@XZ DD imagerel $LN3
	DD	imagerel $LN3+54
	DD	imagerel $unwind$??0MODEL@CDB@@QEAA@XZ
pdata	ENDS
xdata	SEGMENT
$unwind$??0MODEL@CDB@@QEAA@XZ DD 020601H
	DD	030023206H
; Function compile flags: /Ogtpy
xdata	ENDS
_TEXT	SEGMENT
this$ = 48
??0MODEL@CDB@@QEAA@XZ PROC				; CDB::MODEL::MODEL

; 33   : {

$LN3:
	push	rbx
	sub	rsp, 32					; 00000020H
	mov	rbx, rcx
	call	QWORD PTR __imp_??0xrCriticalSection@@QEAA@XZ

; 34   : 	tree		= 0;

	xor	r11d, r11d

; 35   : 	tris		= 0;
; 36   : 	tris_count	= 0;
; 37   : 	verts		= 0;
; 38   : 	verts_count	= 0;
; 39   : 	status		= S_INIT;

	mov	DWORD PTR [rbx+16], 1

; 40   : }

	mov	rax, rbx
	mov	QWORD PTR [rbx+8], r11
	mov	QWORD PTR [rbx+24], r11
	mov	DWORD PTR [rbx+32], r11d
	mov	QWORD PTR [rbx+40], r11
	mov	DWORD PTR [rbx+48], r11d
	add	rsp, 32					; 00000020H
	pop	rbx
	ret	0
??0MODEL@CDB@@QEAA@XZ ENDP				; CDB::MODEL::MODEL
_TEXT	ENDS
PUBLIC	DllMain
; Function compile flags: /Ogtpy
_TEXT	SEGMENT
hModule$ = 8
ul_reason_for_call$ = 16
lpReserved$ = 24
DllMain	PROC

; 17   :     switch (ul_reason_for_call)
; 18   : 	{
; 19   : 	case DLL_PROCESS_ATTACH:
; 20   : 	case DLL_THREAD_ATTACH:
; 21   : 	case DLL_THREAD_DETACH:
; 22   : 	case DLL_PROCESS_DETACH:
; 23   : 		break;
; 24   :     }
; 25   :     return TRUE;

	mov	eax, 1

; 26   : }

	ret	0
DllMain	ENDP
_TEXT	ENDS
PUBLIC	?getTS@CollectorPacked@CDB@@QEAA_KXZ		; CDB::CollectorPacked::getTS
; Function compile flags: /Ogtpy
; File c:\users\nummer\documents\github\olr-3.0\src\xray\xrcdb\xrcdb.h
;	COMDAT ?getTS@CollectorPacked@CDB@@QEAA_KXZ
_TEXT	SEGMENT
this$ = 8
?getTS@CollectorPacked@CDB@@QEAA_KXZ PROC		; CDB::CollectorPacked::getTS, COMDAT

; 258  : 		size_t				getTS()		{ return faces.size();		}

	mov	rax, rcx
	mov	rcx, QWORD PTR [rcx+40]
	sub	rcx, QWORD PTR [rax+32]
	mov	rax, 3074457345618258603		; 2aaaaaaaaaaaaaabH
	imul	rcx
	sar	rdx, 2
	mov	rax, rdx
	shr	rax, 63					; 0000003fH
	add	rax, rdx
	mov	eax, eax
	ret	0
?getTS@CollectorPacked@CDB@@QEAA_KXZ ENDP		; CDB::CollectorPacked::getTS
_TEXT	ENDS
PUBLIC	?getT@CollectorPacked@CDB@@QEAAPEAVTRI@2@XZ	; CDB::CollectorPacked::getT
; Function compile flags: /Ogtpy
;	COMDAT ?getT@CollectorPacked@CDB@@QEAAPEAVTRI@2@XZ
_TEXT	SEGMENT
this$ = 8
?getT@CollectorPacked@CDB@@QEAAPEAVTRI@2@XZ PROC	; CDB::CollectorPacked::getT, COMDAT

; 257  : 		TRI*				getT()		{ return &*faces.begin();	}

	mov	rax, QWORD PTR [rcx+32]
	ret	0
?getT@CollectorPacked@CDB@@QEAAPEAVTRI@2@XZ ENDP	; CDB::CollectorPacked::getT
_TEXT	ENDS
PUBLIC	?getVS@CollectorPacked@CDB@@QEAA_KXZ		; CDB::CollectorPacked::getVS
; Function compile flags: /Ogtpy
;	COMDAT ?getVS@CollectorPacked@CDB@@QEAA_KXZ
_TEXT	SEGMENT
this$ = 8
?getVS@CollectorPacked@CDB@@QEAA_KXZ PROC		; CDB::CollectorPacked::getVS, COMDAT

; 256  : 		size_t				getVS()		{ return verts.size();		}

	mov	rdx, QWORD PTR [rcx+8]
	mov	rax, 3074457345618258603		; 2aaaaaaaaaaaaaabH
	sub	rdx, QWORD PTR [rcx]
	imul	rdx
	sar	rdx, 1
	mov	rax, rdx
	shr	rax, 63					; 0000003fH
	add	rax, rdx
	mov	eax, eax
	ret	0
?getVS@CollectorPacked@CDB@@QEAA_KXZ ENDP		; CDB::CollectorPacked::getVS
_TEXT	ENDS
PUBLIC	?getV@CollectorPacked@CDB@@QEAAPEAU?$_vector3@M@@XZ ; CDB::CollectorPacked::getV
; Function compile flags: /Ogtpy
;	COMDAT ?getV@CollectorPacked@CDB@@QEAAPEAU?$_vector3@M@@XZ
_TEXT	SEGMENT
this$ = 8
?getV@CollectorPacked@CDB@@QEAAPEAU?$_vector3@M@@XZ PROC ; CDB::CollectorPacked::getV, COMDAT

; 255  : 		Fvector*			getV()		{ return &*verts.begin();	}

	mov	rax, QWORD PTR [rcx]
	ret	0
?getV@CollectorPacked@CDB@@QEAAPEAU?$_vector3@M@@XZ ENDP ; CDB::CollectorPacked::getV
_TEXT	ENDS
PUBLIC	?getV_Vec@CollectorPacked@CDB@@QEAAAEAV?$xr_vector@U?$_vector3@M@@V?$xalloc@U?$_vector3@M@@@@@@XZ ; CDB::CollectorPacked::getV_Vec
; Function compile flags: /Ogtpy
;	COMDAT ?getV_Vec@CollectorPacked@CDB@@QEAAAEAV?$xr_vector@U?$_vector3@M@@V?$xalloc@U?$_vector3@M@@@@@@XZ
_TEXT	SEGMENT
this$ = 8
?getV_Vec@CollectorPacked@CDB@@QEAAAEAV?$xr_vector@U?$_vector3@M@@V?$xalloc@U?$_vector3@M@@@@@@XZ PROC ; CDB::CollectorPacked::getV_Vec, COMDAT

; 254  : 		xr_vector<Fvector>& getV_Vec()	{ return verts;				}

	mov	rax, rcx
	ret	0
?getV_Vec@CollectorPacked@CDB@@QEAAAEAV?$xr_vector@U?$_vector3@M@@V?$xalloc@U?$_vector3@M@@@@@@XZ ENDP ; CDB::CollectorPacked::getV_Vec
_TEXT	ENDS
PUBLIC	?getTS@Collector@CDB@@QEAA_KXZ			; CDB::Collector::getTS
; Function compile flags: /Ogtpy
;	COMDAT ?getTS@Collector@CDB@@QEAA_KXZ
_TEXT	SEGMENT
this$ = 8
?getTS@Collector@CDB@@QEAA_KXZ PROC			; CDB::Collector::getTS, COMDAT

; 214  : 		size_t			getTS			()	{ return faces.size();			}

	mov	rax, rcx
	mov	rcx, QWORD PTR [rcx+40]
	sub	rcx, QWORD PTR [rax+32]
	mov	rax, 3074457345618258603		; 2aaaaaaaaaaaaaabH
	imul	rcx
	sar	rdx, 2
	mov	rax, rdx
	shr	rax, 63					; 0000003fH
	add	rax, rdx
	mov	eax, eax
	ret	0
?getTS@Collector@CDB@@QEAA_KXZ ENDP			; CDB::Collector::getTS
_TEXT	ENDS
PUBLIC	?getT@Collector@CDB@@QEAAPEAVTRI@2@XZ		; CDB::Collector::getT
; Function compile flags: /Ogtpy
;	COMDAT ?getT@Collector@CDB@@QEAAPEAVTRI@2@XZ
_TEXT	SEGMENT
this$ = 8
?getT@Collector@CDB@@QEAAPEAVTRI@2@XZ PROC		; CDB::Collector::getT, COMDAT

; 213  : 		TRI*			getT			()	{ return &*faces.begin();		}

	mov	rax, QWORD PTR [rcx+32]
	ret	0
?getT@Collector@CDB@@QEAAPEAVTRI@2@XZ ENDP		; CDB::Collector::getT
_TEXT	ENDS
PUBLIC	?getVS@Collector@CDB@@QEAA_KXZ			; CDB::Collector::getVS
; Function compile flags: /Ogtpy
;	COMDAT ?getVS@Collector@CDB@@QEAA_KXZ
_TEXT	SEGMENT
this$ = 8
?getVS@Collector@CDB@@QEAA_KXZ PROC			; CDB::Collector::getVS, COMDAT

; 212  : 		size_t			getVS			() 	{ return verts.size();			}

	mov	rdx, QWORD PTR [rcx+8]
	mov	rax, 3074457345618258603		; 2aaaaaaaaaaaaaabH
	sub	rdx, QWORD PTR [rcx]
	imul	rdx
	sar	rdx, 1
	mov	rax, rdx
	shr	rax, 63					; 0000003fH
	add	rax, rdx
	mov	eax, eax
	ret	0
?getVS@Collector@CDB@@QEAA_KXZ ENDP			; CDB::Collector::getVS
_TEXT	ENDS
PUBLIC	?getV@Collector@CDB@@QEAAPEAU?$_vector3@M@@XZ	; CDB::Collector::getV
; Function compile flags: /Ogtpy
;	COMDAT ?getV@Collector@CDB@@QEAAPEAU?$_vector3@M@@XZ
_TEXT	SEGMENT
this$ = 8
?getV@Collector@CDB@@QEAAPEAU?$_vector3@M@@XZ PROC	; CDB::Collector::getV, COMDAT

; 211  : 		Fvector*		getV			()	{ return &*verts.begin();		}

	mov	rax, QWORD PTR [rcx]
	ret	0
?getV@Collector@CDB@@QEAAPEAU?$_vector3@M@@XZ ENDP	; CDB::Collector::getV
_TEXT	ENDS
PUBLIC	?r_count@COLLIDER@CDB@@QEAAHXZ			; CDB::COLLIDER::r_count
; Function compile flags: /Ogtpy
;	COMDAT ?r_count@COLLIDER@CDB@@QEAAHXZ
_TEXT	SEGMENT
this$ = 8
?r_count@COLLIDER@CDB@@QEAAHXZ PROC			; CDB::COLLIDER::r_count, COMDAT

; 186  : 		ICF int			r_count			()	{	return rd.size();			};

	mov	rax, QWORD PTR [rcx+24]
	sub	rax, QWORD PTR [rcx+16]
	sar	rax, 6
	ret	0
?r_count@COLLIDER@CDB@@QEAAHXZ ENDP			; CDB::COLLIDER::r_count
_TEXT	ENDS
PUBLIC	?r_end@COLLIDER@CDB@@QEAAPEAURESULT@2@XZ	; CDB::COLLIDER::r_end
; Function compile flags: /Ogtpy
;	COMDAT ?r_end@COLLIDER@CDB@@QEAAPEAURESULT@2@XZ
_TEXT	SEGMENT
this$ = 8
?r_end@COLLIDER@CDB@@QEAAPEAURESULT@2@XZ PROC		; CDB::COLLIDER::r_end, COMDAT

; 183  : 		ICF RESULT*		r_end			()	{	return &*rd.end();			};

	mov	rax, QWORD PTR [rcx+24]
	ret	0
?r_end@COLLIDER@CDB@@QEAAPEAURESULT@2@XZ ENDP		; CDB::COLLIDER::r_end
_TEXT	ENDS
PUBLIC	?r_begin@COLLIDER@CDB@@QEAAPEAURESULT@2@XZ	; CDB::COLLIDER::r_begin
; Function compile flags: /Ogtpy
;	COMDAT ?r_begin@COLLIDER@CDB@@QEAAPEAURESULT@2@XZ
_TEXT	SEGMENT
this$ = 8
?r_begin@COLLIDER@CDB@@QEAAPEAURESULT@2@XZ PROC		; CDB::COLLIDER::r_begin, COMDAT

; 182  : 		ICF RESULT*		r_begin			()	{	return &*rd.begin();		};

	mov	rax, QWORD PTR [rcx+16]
	ret	0
?r_begin@COLLIDER@CDB@@QEAAPEAURESULT@2@XZ ENDP		; CDB::COLLIDER::r_begin
_TEXT	ENDS
PUBLIC	?frustum_options@COLLIDER@CDB@@QEAAXI@Z		; CDB::COLLIDER::frustum_options
; Function compile flags: /Ogtpy
;	COMDAT ?frustum_options@COLLIDER@CDB@@QEAAXI@Z
_TEXT	SEGMENT
this$ = 8
f$ = 16
?frustum_options@COLLIDER@CDB@@QEAAXI@Z PROC		; CDB::COLLIDER::frustum_options, COMDAT

; 179  : 		ICF void		frustum_options	(u32 f)	{	frustum_mode = f;	}

	mov	DWORD PTR [rcx+8], edx
	ret	0
?frustum_options@COLLIDER@CDB@@QEAAXI@Z ENDP		; CDB::COLLIDER::frustum_options
_TEXT	ENDS
PUBLIC	?box_options@COLLIDER@CDB@@QEAAXI@Z		; CDB::COLLIDER::box_options
; Function compile flags: /Ogtpy
;	COMDAT ?box_options@COLLIDER@CDB@@QEAAXI@Z
_TEXT	SEGMENT
this$ = 8
f$ = 16
?box_options@COLLIDER@CDB@@QEAAXI@Z PROC		; CDB::COLLIDER::box_options, COMDAT

; 176  : 		ICF void		box_options		(u32 f)	{	box_mode = f;		}

	mov	DWORD PTR [rcx+4], edx
	ret	0
?box_options@COLLIDER@CDB@@QEAAXI@Z ENDP		; CDB::COLLIDER::box_options
_TEXT	ENDS
PUBLIC	?ray_options@COLLIDER@CDB@@QEAAXI@Z		; CDB::COLLIDER::ray_options
; Function compile flags: /Ogtpy
;	COMDAT ?ray_options@COLLIDER@CDB@@QEAAXI@Z
_TEXT	SEGMENT
this$ = 8
f$ = 16
?ray_options@COLLIDER@CDB@@QEAAXI@Z PROC		; CDB::COLLIDER::ray_options, COMDAT

; 173  : 		ICF void		ray_options		(u32 f)	{	ray_mode = f;		}

	mov	DWORD PTR [rcx], edx
	ret	0
?ray_options@COLLIDER@CDB@@QEAAXI@Z ENDP		; CDB::COLLIDER::ray_options
_TEXT	ENDS
PUBLIC	??4RESULT@CDB@@QEAAAEAU01@AEBU01@@Z		; CDB::RESULT::operator=
; Function compile flags: /Ogtpy
;	COMDAT ??4RESULT@CDB@@QEAAAEAU01@AEBU01@@Z
_TEXT	SEGMENT
this$ = 8
__that$ = 16
??4RESULT@CDB@@QEAAAEAU01@AEBU01@@Z PROC		; CDB::RESULT::operator=, COMDAT
	mov	rax, QWORD PTR [rdx]
	mov	QWORD PTR [rcx], rax
	mov	rax, QWORD PTR [rdx+8]
	mov	QWORD PTR [rcx+8], rax
	mov	rax, QWORD PTR [rdx+16]
	mov	QWORD PTR [rcx+16], rax
	mov	rax, QWORD PTR [rdx+24]
	mov	QWORD PTR [rcx+24], rax
	mov	rax, QWORD PTR [rdx+32]
	mov	QWORD PTR [rcx+32], rax
	mov	rax, QWORD PTR [rdx+40]
	mov	QWORD PTR [rcx+40], rax
	mov	rax, QWORD PTR [rdx+48]
	mov	QWORD PTR [rcx+48], rax
	mov	rax, QWORD PTR [rdx+56]
	mov	QWORD PTR [rcx+56], rax
	mov	rax, rcx
	ret	0
??4RESULT@CDB@@QEAAAEAU01@AEBU01@@Z ENDP		; CDB::RESULT::operator=
_TEXT	ENDS
PUBLIC	??4MODEL@CDB@@QEAAAEAV01@AEBV01@@Z		; CDB::MODEL::operator=
; Function compile flags: /Ogtpy
;	COMDAT ??4MODEL@CDB@@QEAAAEAV01@AEBV01@@Z
_TEXT	SEGMENT
this$ = 8
__that$ = 16
??4MODEL@CDB@@QEAAAEAV01@AEBV01@@Z PROC			; CDB::MODEL::operator=, COMDAT
	mov	rax, QWORD PTR [rdx]
	mov	QWORD PTR [rcx], rax
	mov	rax, QWORD PTR [rdx+8]
	mov	QWORD PTR [rcx+8], rax
	mov	rax, QWORD PTR [rdx+16]
	mov	QWORD PTR [rcx+16], rax
	mov	rax, QWORD PTR [rdx+24]
	mov	QWORD PTR [rcx+24], rax
	mov	rax, QWORD PTR [rdx+32]
	mov	QWORD PTR [rcx+32], rax
	mov	rax, QWORD PTR [rdx+40]
	mov	QWORD PTR [rcx+40], rax
	mov	rax, QWORD PTR [rdx+48]
	mov	QWORD PTR [rcx+48], rax
	mov	rax, rcx
	ret	0
??4MODEL@CDB@@QEAAAEAV01@AEBV01@@Z ENDP			; CDB::MODEL::operator=
_TEXT	ENDS
PUBLIC	?syncronize@MODEL@CDB@@QEBAXXZ			; CDB::MODEL::syncronize
;	COMDAT pdata
pdata	SEGMENT
$pdata$?syncronize@MODEL@CDB@@QEBAXXZ DD imagerel $LN4
	DD	imagerel $LN4+36
	DD	imagerel $unwind$?syncronize@MODEL@CDB@@QEBAXXZ
pdata	ENDS
;	COMDAT xdata
xdata	SEGMENT
$unwind$?syncronize@MODEL@CDB@@QEBAXXZ DD 020601H
	DD	030023206H
; Function compile flags: /Ogtpy
xdata	ENDS
;	COMDAT ?syncronize@MODEL@CDB@@QEBAXXZ
_TEXT	SEGMENT
this$ = 48
?syncronize@MODEL@CDB@@QEBAXXZ PROC			; CDB::MODEL::syncronize, COMDAT

; 100  : 		{

$LN4:
	push	rbx
	sub	rsp, 32					; 00000020H

; 101  : 			if (S_READY!=status)

	cmp	DWORD PTR [rcx+16], 0
	mov	rbx, rcx
	je	SHORT $LN1@syncronize

; 102  : 			{
; 103  : 				Log						("! WARNING: syncronized CDB::query");
; 104  : 				xrCriticalSection*	C	= (xrCriticalSection*) &cs;
; 105  : 				C->Enter				();

	call	QWORD PTR __imp_?Enter@xrCriticalSection@@QEAAXXZ

; 106  : 				C->Leave				();

	mov	rcx, rbx
	call	QWORD PTR __imp_?Leave@xrCriticalSection@@QEAAXXZ
$LN1@syncronize:

; 107  : 			}
; 108  : 		}

	add	rsp, 32					; 00000020H
	pop	rbx
	ret	0
?syncronize@MODEL@CDB@@QEBAXXZ ENDP			; CDB::MODEL::syncronize
_TEXT	ENDS
PUBLIC	?get_tris_count@MODEL@CDB@@QEBAHXZ		; CDB::MODEL::get_tris_count
; Function compile flags: /Ogtpy
;	COMDAT ?get_tris_count@MODEL@CDB@@QEBAHXZ
_TEXT	SEGMENT
this$ = 8
?get_tris_count@MODEL@CDB@@QEBAHXZ PROC			; CDB::MODEL::get_tris_count, COMDAT

; 98   : 		IC int					get_tris_count	()	const	{ return tris_count;}

	mov	eax, DWORD PTR [rcx+32]
	ret	0
?get_tris_count@MODEL@CDB@@QEBAHXZ ENDP			; CDB::MODEL::get_tris_count
_TEXT	ENDS
PUBLIC	?get_tris@MODEL@CDB@@QEAAPEAVTRI@2@XZ		; CDB::MODEL::get_tris
; Function compile flags: /Ogtpy
;	COMDAT ?get_tris@MODEL@CDB@@QEAAPEAVTRI@2@XZ
_TEXT	SEGMENT
this$ = 8
?get_tris@MODEL@CDB@@QEAAPEAVTRI@2@XZ PROC		; CDB::MODEL::get_tris, COMDAT

; 97   : 		IC TRI*					get_tris		()			{ return tris;		}

	mov	rax, QWORD PTR [rcx+24]
	ret	0
?get_tris@MODEL@CDB@@QEAAPEAVTRI@2@XZ ENDP		; CDB::MODEL::get_tris
_TEXT	ENDS
PUBLIC	?get_verts_count@MODEL@CDB@@QEBAHXZ		; CDB::MODEL::get_verts_count
; Function compile flags: /Ogtpy
;	COMDAT ?get_verts_count@MODEL@CDB@@QEBAHXZ
_TEXT	SEGMENT
this$ = 8
?get_verts_count@MODEL@CDB@@QEBAHXZ PROC		; CDB::MODEL::get_verts_count, COMDAT

; 96   : 		IC int					get_verts_count	()	const	{ return verts_count;}

	mov	eax, DWORD PTR [rcx+48]
	ret	0
?get_verts_count@MODEL@CDB@@QEBAHXZ ENDP		; CDB::MODEL::get_verts_count
_TEXT	ENDS
PUBLIC	?get_verts@MODEL@CDB@@QEAAPEAU?$_vector3@M@@XZ	; CDB::MODEL::get_verts
; Function compile flags: /Ogtpy
;	COMDAT ?get_verts@MODEL@CDB@@QEAAPEAU?$_vector3@M@@XZ
_TEXT	SEGMENT
this$ = 8
?get_verts@MODEL@CDB@@QEAAPEAU?$_vector3@M@@XZ PROC	; CDB::MODEL::get_verts, COMDAT

; 95   : 		IC Fvector*				get_verts		()			{ return verts;		}

	mov	rax, QWORD PTR [rcx+40]
	ret	0
?get_verts@MODEL@CDB@@QEAAPEAU?$_vector3@M@@XZ ENDP	; CDB::MODEL::get_verts
_TEXT	ENDS
PUBLIC	??4TRI@CDB@@QEAAAEAV01@AEBV01@@Z		; CDB::TRI::operator=
; Function compile flags: /Ogtpy
;	COMDAT ??4TRI@CDB@@QEAAAEAV01@AEBV01@@Z
_TEXT	SEGMENT
this$ = 8
__that$ = 16
??4TRI@CDB@@QEAAAEAV01@AEBV01@@Z PROC			; CDB::TRI::operator=, COMDAT
	mov	rax, QWORD PTR [rdx]
	mov	QWORD PTR [rcx], rax
	mov	rax, QWORD PTR [rdx+8]
	mov	QWORD PTR [rcx+8], rax
	mov	rax, QWORD PTR [rdx+16]
	mov	QWORD PTR [rcx+16], rax
	mov	rax, rcx
	ret	0
??4TRI@CDB@@QEAAAEAV01@AEBV01@@Z ENDP			; CDB::TRI::operator=
_TEXT	ENDS
PUBLIC	?IDvert@TRI@CDB@@QEAAII@Z			; CDB::TRI::IDvert
; Function compile flags: /Ogtpy
;	COMDAT ?IDvert@TRI@CDB@@QEAAII@Z
_TEXT	SEGMENT
this$ = 8
ID$ = 16
?IDvert@TRI@CDB@@QEAAII@Z PROC				; CDB::TRI::IDvert, COMDAT

; 64   : 		IC u32			IDvert	(u32 ID)		{ return verts[ID];	}

	mov	eax, edx
	mov	eax, DWORD PTR [rcx+rax*4]
	ret	0
?IDvert@TRI@CDB@@QEAAII@Z ENDP				; CDB::TRI::IDvert
;	COMDAT pdata
; File c:\users\nummer\documents\github\olr-3.0\src\xray\xrcore\xrmemory.h
pdata	SEGMENT
$pdata$?deallocate@?$xalloc@I@@QEBAXPEAI_K@Z DD imagerel $LN6
	DD	imagerel $LN6+30
	DD	imagerel $unwind$?deallocate@?$xalloc@I@@QEBAXPEAI_K@Z
pdata	ENDS
;	COMDAT xdata
xdata	SEGMENT
$unwind$?deallocate@?$xalloc@I@@QEBAXPEAI_K@Z DD 010401H
	DD	04204H
; Function compile flags: /Ogtpy
; File c:\users\nummer\documents\github\olr-3.0\src\xray\xrcore\_stl_extensions.h
xdata	ENDS
;	COMDAT ?deallocate@?$xalloc@I@@QEBAXPEAI_K@Z
_TEXT	SEGMENT
p$ = 48
?deallocate@?$xalloc@I@@QEBAXPEAI_K@Z PROC		; xalloc<unsigned int>::deallocate, COMDAT

; 82   : 							void					deallocate		(pointer p, size_type n) const			{	xr_free	(p);				}

$LN6:
	sub	rsp, 40					; 00000028H
	test	rcx, rcx
	je	SHORT $LN3@deallocate@5
	mov	rdx, rcx
	mov	rcx, QWORD PTR __imp_?Memory@@3VxrMemory@@A
	call	QWORD PTR __imp_?mem_free@xrMemory@@QEAAXPEAX@Z
$LN3@deallocate@5:
	add	rsp, 40					; 00000028H
	ret	0
?deallocate@?$xalloc@I@@QEBAXPEAI_K@Z ENDP		; xalloc<unsigned int>::deallocate
; Function compile flags: /Ogtpy
; File c:\program files (x86)\microsoft visual studio 10.0\vc\include\xmemory
_TEXT	ENDS
;	COMDAT ??$_Destroy_range@V?$xalloc@I@@@std@@YAXPEAI0AEAV?$xalloc@I@@@Z
_TEXT	SEGMENT
??$_Destroy_range@V?$xalloc@I@@@std@@YAXPEAI0AEAV?$xalloc@I@@@Z PROC ; std::_Destroy_range<xalloc<unsigned int> >, COMDAT

; 88   : 	_Destroy_range(_First, _Last, _Al, _Ptr_cat(_First, _Last));
; 89   : 	}

	ret	0
??$_Destroy_range@V?$xalloc@I@@@std@@YAXPEAI0AEAV?$xalloc@I@@@Z ENDP ; std::_Destroy_range<xalloc<unsigned int> >
; Function compile flags: /Ogtpy
_TEXT	ENDS
;	COMDAT ??$_Construct@VTRI@CDB@@AEBV12@@std@@YAXPEAVTRI@CDB@@AEBV12@@Z
_TEXT	SEGMENT
_Ptr$ = 8
_Val$ = 16
??$_Construct@VTRI@CDB@@AEBV12@@std@@YAXPEAVTRI@CDB@@AEBV12@@Z PROC ; std::_Construct<CDB::TRI,CDB::TRI const & __ptr64>, COMDAT

; 47   : 	void _FARQ *_Vptr = _Ptr;
; 48   : 	::new (_Vptr) _Ty1(_STD forward<_Ty2>(_Val));

	test	rcx, rcx
	je	SHORT $LN3@Construct@4
	mov	rax, QWORD PTR [rdx]
	mov	QWORD PTR [rcx], rax
	mov	rax, QWORD PTR [rdx+8]
	mov	QWORD PTR [rcx+8], rax
	mov	rax, QWORD PTR [rdx+16]
	mov	QWORD PTR [rcx+16], rax
$LN3@Construct@4:

; 49   : 	}

	fatret	0
??$_Construct@VTRI@CDB@@AEBV12@@std@@YAXPEAVTRI@CDB@@AEBV12@@Z ENDP ; std::_Construct<CDB::TRI,CDB::TRI const & __ptr64>
; Function compile flags: /Ogtpy
_TEXT	ENDS
;	COMDAT ??$_Construct@U?$_vector3@M@@AEBU1@@std@@YAXPEAU?$_vector3@M@@AEBU1@@Z
_TEXT	SEGMENT
_Ptr$ = 8
_Val$ = 16
??$_Construct@U?$_vector3@M@@AEBU1@@std@@YAXPEAU?$_vector3@M@@AEBU1@@Z PROC ; std::_Construct<_vector3<float>,_vector3<float> const & __ptr64>, COMDAT

; 47   : 	void _FARQ *_Vptr = _Ptr;
; 48   : 	::new (_Vptr) _Ty1(_STD forward<_Ty2>(_Val));

	test	rcx, rcx
	je	SHORT $LN3@Construct@5
	mov	rax, QWORD PTR [rdx]
	mov	QWORD PTR [rcx], rax
	mov	eax, DWORD PTR [rdx+8]
	mov	DWORD PTR [rcx+8], eax
$LN3@Construct@5:

; 49   : 	}

	fatret	0
??$_Construct@U?$_vector3@M@@AEBU1@@std@@YAXPEAU?$_vector3@M@@AEBU1@@Z ENDP ; std::_Construct<_vector3<float>,_vector3<float> const & __ptr64>
; Function compile flags: /Ogtpy
; File c:\users\nummer\documents\github\olr-3.0\src\xray\xrcore\_stl_extensions.h
_TEXT	ENDS
;	COMDAT ?construct@?$xalloc@VTRI@CDB@@@@QEAAXPEAVTRI@CDB@@AEBV23@@Z
_TEXT	SEGMENT
p$ = 8
_Val$ = 16
?construct@?$xalloc@VTRI@CDB@@@@QEAAXPEAVTRI@CDB@@AEBV23@@Z PROC ; xalloc<CDB::TRI>::construct, COMDAT

; 84   : 							void					construct		(pointer p, const T& _Val)				{	std::_Construct(p, _Val);	}

	test	rcx, rcx
	je	SHORT $LN5@construct@3
	mov	rax, QWORD PTR [rdx]
	mov	QWORD PTR [rcx], rax
	mov	rax, QWORD PTR [rdx+8]
	mov	QWORD PTR [rcx+8], rax
	mov	rax, QWORD PTR [rdx+16]
	mov	QWORD PTR [rcx+16], rax
$LN5@construct@3:
	fatret	0
?construct@?$xalloc@VTRI@CDB@@@@QEAAXPEAVTRI@CDB@@AEBV23@@Z ENDP ; xalloc<CDB::TRI>::construct
; Function compile flags: /Ogtpy
_TEXT	ENDS
;	COMDAT ?construct@?$xalloc@U?$_vector3@M@@@@QEAAXPEAU?$_vector3@M@@AEBU2@@Z
_TEXT	SEGMENT
p$ = 8
_Val$ = 16
?construct@?$xalloc@U?$_vector3@M@@@@QEAAXPEAU?$_vector3@M@@AEBU2@@Z PROC ; xalloc<_vector3<float> >::construct, COMDAT

; 84   : 							void					construct		(pointer p, const T& _Val)				{	std::_Construct(p, _Val);	}

	test	rcx, rcx
	je	SHORT $LN5@construct@4
	mov	rax, QWORD PTR [rdx]
	mov	QWORD PTR [rcx], rax
	mov	eax, DWORD PTR [rdx+8]
	mov	DWORD PTR [rcx+8], eax
$LN5@construct@4:
	fatret	0
?construct@?$xalloc@U?$_vector3@M@@@@QEAAXPEAU?$_vector3@M@@AEBU2@@Z ENDP ; xalloc<_vector3<float> >::construct
; Function compile flags: /Ogtpy
; File c:\program files (x86)\microsoft visual studio 10.0\vc\include\xmemory
_TEXT	ENDS
;	COMDAT ??$_Cons_val@V?$xalloc@VTRI@CDB@@@@VTRI@CDB@@AEAV23@@std@@YAXAEAV?$xalloc@VTRI@CDB@@@@PEAVTRI@CDB@@AEAV23@@Z
_TEXT	SEGMENT
_Pdest$ = 8
_Src$ = 16
??$_Cons_val@V?$xalloc@VTRI@CDB@@@@VTRI@CDB@@AEAV23@@std@@YAXAEAV?$xalloc@VTRI@CDB@@@@PEAVTRI@CDB@@AEAV23@@Z PROC ; std::_Cons_val<xalloc<CDB::TRI>,CDB::TRI,CDB::TRI & __ptr64>, COMDAT

; 280  : 	_Alval.construct(_Pdest, _STD forward<_Ty2>(_Src));

	test	rcx, rcx
	je	SHORT $LN9@Cons_val@3
	mov	rax, QWORD PTR [rdx]
	mov	QWORD PTR [rcx], rax
	mov	rax, QWORD PTR [rdx+8]
	mov	QWORD PTR [rcx+8], rax
	mov	rax, QWORD PTR [rdx+16]
	mov	QWORD PTR [rcx+16], rax
$LN9@Cons_val@3:

; 281  : 	}

	fatret	0
??$_Cons_val@V?$xalloc@VTRI@CDB@@@@VTRI@CDB@@AEAV23@@std@@YAXAEAV?$xalloc@VTRI@CDB@@@@PEAVTRI@CDB@@AEAV23@@Z ENDP ; std::_Cons_val<xalloc<CDB::TRI>,CDB::TRI,CDB::TRI & __ptr64>
; Function compile flags: /Ogtpy
_TEXT	ENDS
;	COMDAT ??$_Cons_val@V?$xalloc@VTRI@CDB@@@@VTRI@CDB@@AEBV23@@std@@YAXAEAV?$xalloc@VTRI@CDB@@@@PEAVTRI@CDB@@AEBV23@@Z
_TEXT	SEGMENT
_Pdest$ = 8
_Src$ = 16
??$_Cons_val@V?$xalloc@VTRI@CDB@@@@VTRI@CDB@@AEBV23@@std@@YAXAEAV?$xalloc@VTRI@CDB@@@@PEAVTRI@CDB@@AEBV23@@Z PROC ; std::_Cons_val<xalloc<CDB::TRI>,CDB::TRI,CDB::TRI const & __ptr64>, COMDAT

; 280  : 	_Alval.construct(_Pdest, _STD forward<_Ty2>(_Src));

	test	rcx, rcx
	je	SHORT $LN9@Cons_val@4
	mov	rax, QWORD PTR [rdx]
	mov	QWORD PTR [rcx], rax
	mov	rax, QWORD PTR [rdx+8]
	mov	QWORD PTR [rcx+8], rax
	mov	rax, QWORD PTR [rdx+16]
	mov	QWORD PTR [rcx+16], rax
$LN9@Cons_val@4:

; 281  : 	}

	fatret	0
??$_Cons_val@V?$xalloc@VTRI@CDB@@@@VTRI@CDB@@AEBV23@@std@@YAXAEAV?$xalloc@VTRI@CDB@@@@PEAVTRI@CDB@@AEBV23@@Z ENDP ; std::_Cons_val<xalloc<CDB::TRI>,CDB::TRI,CDB::TRI const & __ptr64>
; Function compile flags: /Ogtpy
_TEXT	ENDS
;	COMDAT ??$_Cons_val@V?$xalloc@URESULT@CDB@@@@URESULT@CDB@@AEAU23@@std@@YAXAEAV?$xalloc@URESULT@CDB@@@@PEAURESULT@CDB@@AEAU23@@Z
_TEXT	SEGMENT
_Pdest$ = 8
_Src$ = 16
??$_Cons_val@V?$xalloc@URESULT@CDB@@@@URESULT@CDB@@AEAU23@@std@@YAXAEAV?$xalloc@URESULT@CDB@@@@PEAURESULT@CDB@@AEAU23@@Z PROC ; std::_Cons_val<xalloc<CDB::RESULT>,CDB::RESULT,CDB::RESULT & __ptr64>, COMDAT

; 280  : 	_Alval.construct(_Pdest, _STD forward<_Ty2>(_Src));

	test	rcx, rcx
	je	SHORT $LN9@Cons_val@5
	mov	rax, QWORD PTR [rdx]
	mov	QWORD PTR [rcx], rax
	mov	rax, QWORD PTR [rdx+8]
	mov	QWORD PTR [rcx+8], rax
	mov	rax, QWORD PTR [rdx+16]
	mov	QWORD PTR [rcx+16], rax
	mov	rax, QWORD PTR [rdx+24]
	mov	QWORD PTR [rcx+24], rax
	mov	rax, QWORD PTR [rdx+32]
	mov	QWORD PTR [rcx+32], rax
	mov	rax, QWORD PTR [rdx+40]
	mov	QWORD PTR [rcx+40], rax
	mov	rax, QWORD PTR [rdx+48]
	mov	QWORD PTR [rcx+48], rax
	mov	rax, QWORD PTR [rdx+56]
	mov	QWORD PTR [rcx+56], rax
$LN9@Cons_val@5:

; 281  : 	}

	fatret	0
??$_Cons_val@V?$xalloc@URESULT@CDB@@@@URESULT@CDB@@AEAU23@@std@@YAXAEAV?$xalloc@URESULT@CDB@@@@PEAURESULT@CDB@@AEAU23@@Z ENDP ; std::_Cons_val<xalloc<CDB::RESULT>,CDB::RESULT,CDB::RESULT & __ptr64>
; Function compile flags: /Ogtpy
_TEXT	ENDS
;	COMDAT ??$_Cons_val@V?$xalloc@URESULT@CDB@@@@URESULT@CDB@@AEBU23@@std@@YAXAEAV?$xalloc@URESULT@CDB@@@@PEAURESULT@CDB@@AEBU23@@Z
_TEXT	SEGMENT
_Pdest$ = 8
_Src$ = 16
??$_Cons_val@V?$xalloc@URESULT@CDB@@@@URESULT@CDB@@AEBU23@@std@@YAXAEAV?$xalloc@URESULT@CDB@@@@PEAURESULT@CDB@@AEBU23@@Z PROC ; std::_Cons_val<xalloc<CDB::RESULT>,CDB::RESULT,CDB::RESULT const & __ptr64>, COMDAT

; 280  : 	_Alval.construct(_Pdest, _STD forward<_Ty2>(_Src));

	test	rcx, rcx
	je	SHORT $LN9@Cons_val@6
	mov	rax, QWORD PTR [rdx]
	mov	QWORD PTR [rcx], rax
	mov	rax, QWORD PTR [rdx+8]
	mov	QWORD PTR [rcx+8], rax
	mov	rax, QWORD PTR [rdx+16]
	mov	QWORD PTR [rcx+16], rax
	mov	rax, QWORD PTR [rdx+24]
	mov	QWORD PTR [rcx+24], rax
	mov	rax, QWORD PTR [rdx+32]
	mov	QWORD PTR [rcx+32], rax
	mov	rax, QWORD PTR [rdx+40]
	mov	QWORD PTR [rcx+40], rax
	mov	rax, QWORD PTR [rdx+48]
	mov	QWORD PTR [rcx+48], rax
	mov	rax, QWORD PTR [rdx+56]
	mov	QWORD PTR [rcx+56], rax
$LN9@Cons_val@6:

; 281  : 	}

	fatret	0
??$_Cons_val@V?$xalloc@URESULT@CDB@@@@URESULT@CDB@@AEBU23@@std@@YAXAEAV?$xalloc@URESULT@CDB@@@@PEAURESULT@CDB@@AEBU23@@Z ENDP ; std::_Cons_val<xalloc<CDB::RESULT>,CDB::RESULT,CDB::RESULT const & __ptr64>
; Function compile flags: /Ogtpy
_TEXT	ENDS
;	COMDAT ??$_Cons_val@V?$xalloc@U?$_vector3@M@@@@U?$_vector3@M@@AEAU2@@std@@YAXAEAV?$xalloc@U?$_vector3@M@@@@PEAU?$_vector3@M@@AEAU2@@Z
_TEXT	SEGMENT
_Pdest$ = 8
_Src$ = 16
??$_Cons_val@V?$xalloc@U?$_vector3@M@@@@U?$_vector3@M@@AEAU2@@std@@YAXAEAV?$xalloc@U?$_vector3@M@@@@PEAU?$_vector3@M@@AEAU2@@Z PROC ; std::_Cons_val<xalloc<_vector3<float> >,_vector3<float>,_vector3<float> & __ptr64>, COMDAT

; 280  : 	_Alval.construct(_Pdest, _STD forward<_Ty2>(_Src));

	test	rcx, rcx
	je	SHORT $LN9@Cons_val@7
	mov	rax, QWORD PTR [rdx]
	mov	QWORD PTR [rcx], rax
	mov	eax, DWORD PTR [rdx+8]
	mov	DWORD PTR [rcx+8], eax
$LN9@Cons_val@7:

; 281  : 	}

	fatret	0
??$_Cons_val@V?$xalloc@U?$_vector3@M@@@@U?$_vector3@M@@AEAU2@@std@@YAXAEAV?$xalloc@U?$_vector3@M@@@@PEAU?$_vector3@M@@AEAU2@@Z ENDP ; std::_Cons_val<xalloc<_vector3<float> >,_vector3<float>,_vector3<float> & __ptr64>
; Function compile flags: /Ogtpy
_TEXT	ENDS
;	COMDAT ??$_Cons_val@V?$xalloc@U?$_vector3@M@@@@U?$_vector3@M@@AEBU2@@std@@YAXAEAV?$xalloc@U?$_vector3@M@@@@PEAU?$_vector3@M@@AEBU2@@Z
_TEXT	SEGMENT
_Pdest$ = 8
_Src$ = 16
??$_Cons_val@V?$xalloc@U?$_vector3@M@@@@U?$_vector3@M@@AEBU2@@std@@YAXAEAV?$xalloc@U?$_vector3@M@@@@PEAU?$_vector3@M@@AEBU2@@Z PROC ; std::_Cons_val<xalloc<_vector3<float> >,_vector3<float>,_vector3<float> const & __ptr64>, COMDAT

; 280  : 	_Alval.construct(_Pdest, _STD forward<_Ty2>(_Src));

	test	rcx, rcx
	je	SHORT $LN9@Cons_val@8
	mov	rax, QWORD PTR [rdx]
	mov	QWORD PTR [rcx], rax
	mov	eax, DWORD PTR [rdx+8]
	mov	DWORD PTR [rcx+8], eax
$LN9@Cons_val@8:

; 281  : 	}

	fatret	0
??$_Cons_val@V?$xalloc@U?$_vector3@M@@@@U?$_vector3@M@@AEBU2@@std@@YAXAEAV?$xalloc@U?$_vector3@M@@@@PEAU?$_vector3@M@@AEBU2@@Z ENDP ; std::_Cons_val<xalloc<_vector3<float> >,_vector3<float>,_vector3<float> const & __ptr64>
_TEXT	ENDS
EXTRN	__CxxFrameHandler3:PROC
EXTRN	_CxxThrowException:PROC
;	COMDAT pdata
; File c:\program files (x86)\microsoft visual studio 10.0\vc\include\utility
pdata	SEGMENT
$pdata$??$_Uninit_copy@PEAVTRI@CDB@@PEAV12@V?$xalloc@VTRI@CDB@@@@@std@@YAPEAVTRI@CDB@@PEAV12@00AEAV?$xalloc@VTRI@CDB@@@@U_Nonscalar_ptr_iterator_tag@0@@Z DD imagerel $LN32
	DD	imagerel $LN32+76
	DD	imagerel $unwind$??$_Uninit_copy@PEAVTRI@CDB@@PEAV12@V?$xalloc@VTRI@CDB@@@@@std@@YAPEAVTRI@CDB@@PEAV12@00AEAV?$xalloc@VTRI@CDB@@@@U_Nonscalar_ptr_iterator_tag@0@@Z
pdata	ENDS
;	COMDAT pdata
pdata	SEGMENT
$pdata$?catch$0@?0???$_Uninit_copy@PEAVTRI@CDB@@PEAV12@V?$xalloc@VTRI@CDB@@@@@std@@YAPEAVTRI@CDB@@PEAV12@00AEAV?$xalloc@VTRI@CDB@@@@U_Nonscalar_ptr_iterator_tag@0@@Z@4HA DD imagerel ?catch$0@?0???$_Uninit_copy@PEAVTRI@CDB@@PEAV12@V?$xalloc@VTRI@CDB@@@@@std@@YAPEAVTRI@CDB@@PEAV12@00AEAV?$xalloc@VTRI@CDB@@@@U_Nonscalar_ptr_iterator_tag@0@@Z@4HA
	DD	imagerel ?catch$0@?0???$_Uninit_copy@PEAVTRI@CDB@@PEAV12@V?$xalloc@VTRI@CDB@@@@@std@@YAPEAVTRI@CDB@@PEAV12@00AEAV?$xalloc@VTRI@CDB@@@@U_Nonscalar_ptr_iterator_tag@0@@Z@4HA+23
	DD	imagerel $unwind$?catch$0@?0???$_Uninit_copy@PEAVTRI@CDB@@PEAV12@V?$xalloc@VTRI@CDB@@@@@std@@YAPEAVTRI@CDB@@PEAV12@00AEAV?$xalloc@VTRI@CDB@@@@U_Nonscalar_ptr_iterator_tag@0@@Z@4HA
pdata	ENDS
;	COMDAT xdata
xdata	SEGMENT
$ip2state$??$_Uninit_copy@PEAVTRI@CDB@@PEAV12@V?$xalloc@VTRI@CDB@@@@@std@@YAPEAVTRI@CDB@@PEAV12@00AEAV?$xalloc@VTRI@CDB@@@@U_Nonscalar_ptr_iterator_tag@0@@Z DD imagerel ??$_Uninit_copy@PEAVTRI@CDB@@PEAV12@V?$xalloc@VTRI@CDB@@@@@std@@YAPEAVTRI@CDB@@PEAV12@00AEAV?$xalloc@VTRI@CDB@@@@U_Nonscalar_ptr_iterator_tag@0@@Z
	DD	0ffffffffH
	DD	imagerel ??$_Uninit_copy@PEAVTRI@CDB@@PEAV12@V?$xalloc@VTRI@CDB@@@@@std@@YAPEAVTRI@CDB@@PEAV12@00AEAV?$xalloc@VTRI@CDB@@@@U_Nonscalar_ptr_iterator_tag@0@@Z+16
	DD	00H
	DD	imagerel ??$_Uninit_copy@PEAVTRI@CDB@@PEAV12@V?$xalloc@VTRI@CDB@@@@@std@@YAPEAVTRI@CDB@@PEAV12@00AEAV?$xalloc@VTRI@CDB@@@@U_Nonscalar_ptr_iterator_tag@0@@Z+68
	DD	0ffffffffH
	DD	imagerel ?catch$0@?0???$_Uninit_copy@PEAVTRI@CDB@@PEAV12@V?$xalloc@VTRI@CDB@@@@@std@@YAPEAVTRI@CDB@@PEAV12@00AEAV?$xalloc@VTRI@CDB@@@@U_Nonscalar_ptr_iterator_tag@0@@Z@4HA
	DD	00H
	DD	imagerel ?catch$0@?0???$_Uninit_copy@PEAVTRI@CDB@@PEAV12@V?$xalloc@VTRI@CDB@@@@@std@@YAPEAVTRI@CDB@@PEAV12@00AEAV?$xalloc@VTRI@CDB@@@@U_Nonscalar_ptr_iterator_tag@0@@Z@4HA+13
	DD	01H
xdata	ENDS
;	COMDAT xdata
xdata	SEGMENT
$unwind$?catch$0@?0???$_Uninit_copy@PEAVTRI@CDB@@PEAV12@V?$xalloc@VTRI@CDB@@@@@std@@YAPEAVTRI@CDB@@PEAV12@00AEAV?$xalloc@VTRI@CDB@@@@U_Nonscalar_ptr_iterator_tag@0@@Z@4HA DD 020a19H
	DD	05006320aH
	DD	imagerel __CxxFrameHandler3
	DD	imagerel $cppxdata$??$_Uninit_copy@PEAVTRI@CDB@@PEAV12@V?$xalloc@VTRI@CDB@@@@@std@@YAPEAVTRI@CDB@@PEAV12@00AEAV?$xalloc@VTRI@CDB@@@@U_Nonscalar_ptr_iterator_tag@0@@Z
xdata	ENDS
;	COMDAT xdata
xdata	SEGMENT
$unwind$??$_Uninit_copy@PEAVTRI@CDB@@PEAV12@V?$xalloc@VTRI@CDB@@@@@std@@YAPEAVTRI@CDB@@PEAV12@00AEAV?$xalloc@VTRI@CDB@@@@U_Nonscalar_ptr_iterator_tag@0@@Z DD 010d19H
	DD	06204H
	DD	imagerel __CxxFrameHandler3
	DD	imagerel $cppxdata$??$_Uninit_copy@PEAVTRI@CDB@@PEAV12@V?$xalloc@VTRI@CDB@@@@@std@@YAPEAVTRI@CDB@@PEAV12@00AEAV?$xalloc@VTRI@CDB@@@@U_Nonscalar_ptr_iterator_tag@0@@Z
xdata	ENDS
;	COMDAT CONST
CONST	SEGMENT
$cppxdata$??$_Uninit_copy@PEAVTRI@CDB@@PEAV12@V?$xalloc@VTRI@CDB@@@@@std@@YAPEAVTRI@CDB@@PEAV12@00AEAV?$xalloc@VTRI@CDB@@@@U_Nonscalar_ptr_iterator_tag@0@@Z DD 019930522H
	DD	02H
	DD	imagerel $stateUnwindMap$??$_Uninit_copy@PEAVTRI@CDB@@PEAV12@V?$xalloc@VTRI@CDB@@@@@std@@YAPEAVTRI@CDB@@PEAV12@00AEAV?$xalloc@VTRI@CDB@@@@U_Nonscalar_ptr_iterator_tag@0@@Z
	DD	01H
	DD	imagerel $tryMap$??$_Uninit_copy@PEAVTRI@CDB@@PEAV12@V?$xalloc@VTRI@CDB@@@@@std@@YAPEAVTRI@CDB@@PEAV12@00AEAV?$xalloc@VTRI@CDB@@@@U_Nonscalar_ptr_iterator_tag@0@@Z
	DD	05H
	DD	imagerel $ip2state$??$_Uninit_copy@PEAVTRI@CDB@@PEAV12@V?$xalloc@VTRI@CDB@@@@@std@@YAPEAVTRI@CDB@@PEAV12@00AEAV?$xalloc@VTRI@CDB@@@@U_Nonscalar_ptr_iterator_tag@0@@Z
	DD	020H
	DD	00H
	DD	00H
CONST	ENDS
;	COMDAT xdata
xdata	SEGMENT
$tryMap$??$_Uninit_copy@PEAVTRI@CDB@@PEAV12@V?$xalloc@VTRI@CDB@@@@@std@@YAPEAVTRI@CDB@@PEAV12@00AEAV?$xalloc@VTRI@CDB@@@@U_Nonscalar_ptr_iterator_tag@0@@Z DD 00H
	DD	00H
	DD	01H
	DD	01H
	DD	imagerel $handlerMap$0$??$_Uninit_copy@PEAVTRI@CDB@@PEAV12@V?$xalloc@VTRI@CDB@@@@@std@@YAPEAVTRI@CDB@@PEAV12@00AEAV?$xalloc@VTRI@CDB@@@@U_Nonscalar_ptr_iterator_tag@0@@Z
xdata	ENDS
;	COMDAT xdata
xdata	SEGMENT
$handlerMap$0$??$_Uninit_copy@PEAVTRI@CDB@@PEAV12@V?$xalloc@VTRI@CDB@@@@@std@@YAPEAVTRI@CDB@@PEAV12@00AEAV?$xalloc@VTRI@CDB@@@@U_Nonscalar_ptr_iterator_tag@0@@Z DD 00H
	DD	00H
	DD	00H
	DD	imagerel ?catch$0@?0???$_Uninit_copy@PEAVTRI@CDB@@PEAV12@V?$xalloc@VTRI@CDB@@@@@std@@YAPEAVTRI@CDB@@PEAV12@00AEAV?$xalloc@VTRI@CDB@@@@U_Nonscalar_ptr_iterator_tag@0@@Z@4HA
	DD	038H
xdata	ENDS
;	COMDAT xdata
xdata	SEGMENT
$stateUnwindMap$??$_Uninit_copy@PEAVTRI@CDB@@PEAV12@V?$xalloc@VTRI@CDB@@@@@std@@YAPEAVTRI@CDB@@PEAV12@00AEAV?$xalloc@VTRI@CDB@@@@U_Nonscalar_ptr_iterator_tag@0@@Z DD 0ffffffffH
	DD	00H
	DD	0ffffffffH
	DD	00H
; Function compile flags: /Ogtpy
; File c:\program files (x86)\microsoft visual studio 10.0\vc\include\memory
xdata	ENDS
;	COMDAT ??$_Uninit_copy@PEAVTRI@CDB@@PEAV12@V?$xalloc@VTRI@CDB@@@@@std@@YAPEAVTRI@CDB@@PEAV12@00AEAV?$xalloc@VTRI@CDB@@@@U_Nonscalar_ptr_iterator_tag@0@@Z
_TEXT	SEGMENT
$T114920 = 32
_First$ = 64
_Last$ = 72
_Dest$ = 80
??$_Uninit_copy@PEAVTRI@CDB@@PEAV12@V?$xalloc@VTRI@CDB@@@@@std@@YAPEAVTRI@CDB@@PEAV12@00AEAV?$xalloc@VTRI@CDB@@@@U_Nonscalar_ptr_iterator_tag@0@@Z PROC ; std::_Uninit_copy<CDB::TRI * __ptr64,CDB::TRI * __ptr64,xalloc<CDB::TRI> >, COMDAT

; 369  : 	{	// copy [_First, _Last) to raw _Dest, using _Al, arbitrary type

$LN32:
	sub	rsp, 56					; 00000038H
	mov	QWORD PTR $T114920[rsp], -2
	npad	3
$LL6@Uninit_cop:

; 370  : 	_DEBUG_RANGE(_First, _Last);
; 371  : 	_DEBUG_POINTER(_Dest);
; 372  : 	_FwdIt _Next = _Dest;
; 373  : 
; 374  : 	_TRY_BEGIN
; 375  : 	for (; _First != _Last; ++_Dest, ++_First)

	cmp	rcx, rdx
	je	SHORT $LN4@Uninit_cop

; 376  : 		_Cons_val(_Al, _Dest, *_First);

	test	r8, r8
	je	SHORT $LN22@Uninit_cop
	mov	rax, QWORD PTR [rcx]
	mov	QWORD PTR [r8], rax
	mov	rax, QWORD PTR [rcx+8]
	mov	QWORD PTR [r8+8], rax
	mov	rax, QWORD PTR [rcx+16]
	mov	QWORD PTR [r8+16], rax
$LN22@Uninit_cop:

; 370  : 	_DEBUG_RANGE(_First, _Last);
; 371  : 	_DEBUG_POINTER(_Dest);
; 372  : 	_FwdIt _Next = _Dest;
; 373  : 
; 374  : 	_TRY_BEGIN
; 375  : 	for (; _First != _Last; ++_Dest, ++_First)

	add	r8, 24
	mov	QWORD PTR _Dest$[rsp], r8
	add	rcx, 24
	mov	QWORD PTR _First$[rsp], rcx
	jmp	SHORT $LL6@Uninit_cop
$LN4@Uninit_cop:

; 377  : 	_CATCH_ALL
; 378  : 	for (; _Next != _Dest; ++_Next)
; 379  : 		_Dest_val(_Al, _Next);
; 380  : 	_RERAISE;
; 381  : 	_CATCH_END
; 382  : 	return (_Dest);

	mov	rax, r8

; 383  : 	}

	add	rsp, 56					; 00000038H
	ret	0
$LN31@Uninit_cop:
??$_Uninit_copy@PEAVTRI@CDB@@PEAV12@V?$xalloc@VTRI@CDB@@@@@std@@YAPEAVTRI@CDB@@PEAV12@00AEAV?$xalloc@VTRI@CDB@@@@U_Nonscalar_ptr_iterator_tag@0@@Z ENDP ; std::_Uninit_copy<CDB::TRI * __ptr64,CDB::TRI * __ptr64,xalloc<CDB::TRI> >
; Function compile flags: /Ogtpy
_TEXT	ENDS
;	COMDAT text$x
text$x	SEGMENT
$T114920 = 32
_First$ = 64
_Last$ = 72
_Dest$ = 80
?catch$0@?0???$_Uninit_copy@PEAVTRI@CDB@@PEAV12@V?$xalloc@VTRI@CDB@@@@@std@@YAPEAVTRI@CDB@@PEAV12@00AEAV?$xalloc@VTRI@CDB@@@@U_Nonscalar_ptr_iterator_tag@0@@Z@4HA PROC ; `std::_Uninit_copy<CDB::TRI * __ptr64,CDB::TRI * __ptr64,xalloc<CDB::TRI> >'::`1'::catch$0

; 377  : 	_CATCH_ALL

	mov	QWORD PTR [rsp+16], rdx
	push	rbp
	sub	rsp, 32					; 00000020H
	mov	rbp, rdx
__catch$??$_Uninit_copy@PEAVTRI@CDB@@PEAV12@V?$xalloc@VTRI@CDB@@@@@std@@YAPEAVTRI@CDB@@PEAV12@00AEAV?$xalloc@VTRI@CDB@@@@U_Nonscalar_ptr_iterator_tag@0@@Z$0:

; 378  : 	for (; _Next != _Dest; ++_Next)
; 379  : 		_Dest_val(_Al, _Next);
; 380  : 	_RERAISE;

	xor	edx, edx
	xor	ecx, ecx
	call	_CxxThrowException
	npad	1
?catch$0@?0???$_Uninit_copy@PEAVTRI@CDB@@PEAV12@V?$xalloc@VTRI@CDB@@@@@std@@YAPEAVTRI@CDB@@PEAV12@00AEAV?$xalloc@VTRI@CDB@@@@U_Nonscalar_ptr_iterator_tag@0@@Z@4HA ENDP ; `std::_Uninit_copy<CDB::TRI * __ptr64,CDB::TRI * __ptr64,xalloc<CDB::TRI> >'::`1'::catch$0
text$x	ENDS
;	COMDAT pdata
; File c:\program files (x86)\microsoft visual studio 10.0\vc\include\utility
pdata	SEGMENT
$pdata$??$_Uninit_copy@V?$_Vector_const_iterator@V?$_Vector_val@VTRI@CDB@@V?$xalloc@VTRI@CDB@@@@@std@@@std@@PEAVTRI@CDB@@V?$xalloc@VTRI@CDB@@@@@std@@YAPEAVTRI@CDB@@V?$_Vector_const_iterator@V?$_Vector_val@VTRI@CDB@@V?$xalloc@VTRI@CDB@@@@@std@@@0@0PEAV12@AEAV?$xalloc@VTRI@CDB@@@@U_Nonscalar_ptr_iterator_tag@0@@Z DD imagerel $LN45
	DD	imagerel $LN45+99
	DD	imagerel $unwind$??$_Uninit_copy@V?$_Vector_const_iterator@V?$_Vector_val@VTRI@CDB@@V?$xalloc@VTRI@CDB@@@@@std@@@std@@PEAVTRI@CDB@@V?$xalloc@VTRI@CDB@@@@@std@@YAPEAVTRI@CDB@@V?$_Vector_const_iterator@V?$_Vector_val@VTRI@CDB@@V?$xalloc@VTRI@CDB@@@@@std@@@0@0PEAV12@AEAV?$xalloc@VTRI@CDB@@@@U_Nonscalar_ptr_iterator_tag@0@@Z
pdata	ENDS
;	COMDAT pdata
pdata	SEGMENT
$pdata$?catch$0@?0???$_Uninit_copy@V?$_Vector_const_iterator@V?$_Vector_val@VTRI@CDB@@V?$xalloc@VTRI@CDB@@@@@std@@@std@@PEAVTRI@CDB@@V?$xalloc@VTRI@CDB@@@@@std@@YAPEAVTRI@CDB@@V?$_Vector_const_iterator@V?$_Vector_val@VTRI@CDB@@V?$xalloc@VTRI@CDB@@@@@std@@@0@0PEAV12@AEAV?$xalloc@VTRI@CDB@@@@U_Nonscalar_ptr_iterator_tag@0@@Z@4HA DD imagerel ?catch$0@?0???$_Uninit_copy@V?$_Vector_const_iterator@V?$_Vector_val@VTRI@CDB@@V?$xalloc@VTRI@CDB@@@@@std@@@std@@PEAVTRI@CDB@@V?$xalloc@VTRI@CDB@@@@@std@@YAPEAVTRI@CDB@@V?$_Vector_const_iterator@V?$_Vector_val@VTRI@CDB@@V?$xalloc@VTRI@CDB@@@@@std@@@0@0PEAV12@AEAV?$xalloc@VTRI@CDB@@@@U_Nonscalar_ptr_iterator_tag@0@@Z@4HA
	DD	imagerel ?catch$0@?0???$_Uninit_copy@V?$_Vector_const_iterator@V?$_Vector_val@VTRI@CDB@@V?$xalloc@VTRI@CDB@@@@@std@@@std@@PEAVTRI@CDB@@V?$xalloc@VTRI@CDB@@@@@std@@YAPEAVTRI@CDB@@V?$_Vector_const_iterator@V?$_Vector_val@VTRI@CDB@@V?$xalloc@VTRI@CDB@@@@@std@@@0@0PEAV12@AEAV?$xalloc@VTRI@CDB@@@@U_Nonscalar_ptr_iterator_tag@0@@Z@4HA+23
	DD	imagerel $unwind$?catch$0@?0???$_Uninit_copy@V?$_Vector_const_iterator@V?$_Vector_val@VTRI@CDB@@V?$xalloc@VTRI@CDB@@@@@std@@@std@@PEAVTRI@CDB@@V?$xalloc@VTRI@CDB@@@@@std@@YAPEAVTRI@CDB@@V?$_Vector_const_iterator@V?$_Vector_val@VTRI@CDB@@V?$xalloc@VTRI@CDB@@@@@std@@@0@0PEAV12@AEAV?$xalloc@VTRI@CDB@@@@U_Nonscalar_ptr_iterator_tag@0@@Z@4HA
pdata	ENDS
;	COMDAT xdata
xdata	SEGMENT
$ip2state$??$_Uninit_copy@V?$_Vector_const_iterator@V?$_Vector_val@VTRI@CDB@@V?$xalloc@VTRI@CDB@@@@@std@@@std@@PEAVTRI@CDB@@V?$xalloc@VTRI@CDB@@@@@std@@YAPEAVTRI@CDB@@V?$_Vector_const_iterator@V?$_Vector_val@VTRI@CDB@@V?$xalloc@VTRI@CDB@@@@@std@@@0@0PEAV12@AEAV?$xalloc@VTRI@CDB@@@@U_Nonscalar_ptr_iterator_tag@0@@Z DD imagerel ??$_Uninit_copy@V?$_Vector_const_iterator@V?$_Vector_val@VTRI@CDB@@V?$xalloc@VTRI@CDB@@@@@std@@@std@@PEAVTRI@CDB@@V?$xalloc@VTRI@CDB@@@@@std@@YAPEAVTRI@CDB@@V?$_Vector_const_iterator@V?$_Vector_val@VTRI@CDB@@V?$xalloc@VTRI@CDB@@@@@std@@@0@0PEAV12@AEAV?$xalloc@VTRI@CDB@@@@U_Nonscalar_ptr_iterator_tag@0@@Z
	DD	0ffffffffH
	DD	imagerel ??$_Uninit_copy@V?$_Vector_const_iterator@V?$_Vector_val@VTRI@CDB@@V?$xalloc@VTRI@CDB@@@@@std@@@std@@PEAVTRI@CDB@@V?$xalloc@VTRI@CDB@@@@@std@@YAPEAVTRI@CDB@@V?$_Vector_const_iterator@V?$_Vector_val@VTRI@CDB@@V?$xalloc@VTRI@CDB@@@@@std@@@0@0PEAV12@AEAV?$xalloc@VTRI@CDB@@@@U_Nonscalar_ptr_iterator_tag@0@@Z+23
	DD	00H
	DD	imagerel ??$_Uninit_copy@V?$_Vector_const_iterator@V?$_Vector_val@VTRI@CDB@@V?$xalloc@VTRI@CDB@@@@@std@@@std@@PEAVTRI@CDB@@V?$xalloc@VTRI@CDB@@@@@std@@YAPEAVTRI@CDB@@V?$_Vector_const_iterator@V?$_Vector_val@VTRI@CDB@@V?$xalloc@VTRI@CDB@@@@@std@@@0@0PEAV12@AEAV?$xalloc@VTRI@CDB@@@@U_Nonscalar_ptr_iterator_tag@0@@Z+91
	DD	0ffffffffH
	DD	imagerel ?catch$0@?0???$_Uninit_copy@V?$_Vector_const_iterator@V?$_Vector_val@VTRI@CDB@@V?$xalloc@VTRI@CDB@@@@@std@@@std@@PEAVTRI@CDB@@V?$xalloc@VTRI@CDB@@@@@std@@YAPEAVTRI@CDB@@V?$_Vector_const_iterator@V?$_Vector_val@VTRI@CDB@@V?$xalloc@VTRI@CDB@@@@@std@@@0@0PEAV12@AEAV?$xalloc@VTRI@CDB@@@@U_Nonscalar_ptr_iterator_tag@0@@Z@4HA
	DD	00H
	DD	imagerel ?catch$0@?0???$_Uninit_copy@V?$_Vector_const_iterator@V?$_Vector_val@VTRI@CDB@@V?$xalloc@VTRI@CDB@@@@@std@@@std@@PEAVTRI@CDB@@V?$xalloc@VTRI@CDB@@@@@std@@YAPEAVTRI@CDB@@V?$_Vector_const_iterator@V?$_Vector_val@VTRI@CDB@@V?$xalloc@VTRI@CDB@@@@@std@@@0@0PEAV12@AEAV?$xalloc@VTRI@CDB@@@@U_Nonscalar_ptr_iterator_tag@0@@Z@4HA+13
	DD	01H
xdata	ENDS
;	COMDAT xdata
xdata	SEGMENT
$unwind$?catch$0@?0???$_Uninit_copy@V?$_Vector_const_iterator@V?$_Vector_val@VTRI@CDB@@V?$xalloc@VTRI@CDB@@@@@std@@@std@@PEAVTRI@CDB@@V?$xalloc@VTRI@CDB@@@@@std@@YAPEAVTRI@CDB@@V?$_Vector_const_iterator@V?$_Vector_val@VTRI@CDB@@V?$xalloc@VTRI@CDB@@@@@std@@@0@0PEAV12@AEAV?$xalloc@VTRI@CDB@@@@U_Nonscalar_ptr_iterator_tag@0@@Z@4HA DD 020a19H
	DD	05006320aH
	DD	imagerel __CxxFrameHandler3
	DD	imagerel $cppxdata$??$_Uninit_copy@V?$_Vector_const_iterator@V?$_Vector_val@VTRI@CDB@@V?$xalloc@VTRI@CDB@@@@@std@@@std@@PEAVTRI@CDB@@V?$xalloc@VTRI@CDB@@@@@std@@YAPEAVTRI@CDB@@V?$_Vector_const_iterator@V?$_Vector_val@VTRI@CDB@@V?$xalloc@VTRI@CDB@@@@@std@@@0@0PEAV12@AEAV?$xalloc@VTRI@CDB@@@@U_Nonscalar_ptr_iterator_tag@0@@Z
xdata	ENDS
;	COMDAT xdata
xdata	SEGMENT
$unwind$??$_Uninit_copy@V?$_Vector_const_iterator@V?$_Vector_val@VTRI@CDB@@V?$xalloc@VTRI@CDB@@@@@std@@@std@@PEAVTRI@CDB@@V?$xalloc@VTRI@CDB@@@@@std@@YAPEAVTRI@CDB@@V?$_Vector_const_iterator@V?$_Vector_val@VTRI@CDB@@V?$xalloc@VTRI@CDB@@@@@std@@@0@0PEAV12@AEAV?$xalloc@VTRI@CDB@@@@U_Nonscalar_ptr_iterator_tag@0@@Z DD 011719H
	DD	0620eH
	DD	imagerel __CxxFrameHandler3
	DD	imagerel $cppxdata$??$_Uninit_copy@V?$_Vector_const_iterator@V?$_Vector_val@VTRI@CDB@@V?$xalloc@VTRI@CDB@@@@@std@@@std@@PEAVTRI@CDB@@V?$xalloc@VTRI@CDB@@@@@std@@YAPEAVTRI@CDB@@V?$_Vector_const_iterator@V?$_Vector_val@VTRI@CDB@@V?$xalloc@VTRI@CDB@@@@@std@@@0@0PEAV12@AEAV?$xalloc@VTRI@CDB@@@@U_Nonscalar_ptr_iterator_tag@0@@Z
xdata	ENDS
;	COMDAT CONST
CONST	SEGMENT
$cppxdata$??$_Uninit_copy@V?$_Vector_const_iterator@V?$_Vector_val@VTRI@CDB@@V?$xalloc@VTRI@CDB@@@@@std@@@std@@PEAVTRI@CDB@@V?$xalloc@VTRI@CDB@@@@@std@@YAPEAVTRI@CDB@@V?$_Vector_const_iterator@V?$_Vector_val@VTRI@CDB@@V?$xalloc@VTRI@CDB@@@@@std@@@0@0PEAV12@AEAV?$xalloc@VTRI@CDB@@@@U_Nonscalar_ptr_iterator_tag@0@@Z DD 019930522H
	DD	02H
	DD	imagerel $stateUnwindMap$??$_Uninit_copy@V?$_Vector_const_iterator@V?$_Vector_val@VTRI@CDB@@V?$xalloc@VTRI@CDB@@@@@std@@@std@@PEAVTRI@CDB@@V?$xalloc@VTRI@CDB@@@@@std@@YAPEAVTRI@CDB@@V?$_Vector_const_iterator@V?$_Vector_val@VTRI@CDB@@V?$xalloc@VTRI@CDB@@@@@std@@@0@0PEAV12@AEAV?$xalloc@VTRI@CDB@@@@U_Nonscalar_ptr_iterator_tag@0@@Z
	DD	01H
	DD	imagerel $tryMap$??$_Uninit_copy@V?$_Vector_const_iterator@V?$_Vector_val@VTRI@CDB@@V?$xalloc@VTRI@CDB@@@@@std@@@std@@PEAVTRI@CDB@@V?$xalloc@VTRI@CDB@@@@@std@@YAPEAVTRI@CDB@@V?$_Vector_const_iterator@V?$_Vector_val@VTRI@CDB@@V?$xalloc@VTRI@CDB@@@@@std@@@0@0PEAV12@AEAV?$xalloc@VTRI@CDB@@@@U_Nonscalar_ptr_iterator_tag@0@@Z
	DD	05H
	DD	imagerel $ip2state$??$_Uninit_copy@V?$_Vector_const_iterator@V?$_Vector_val@VTRI@CDB@@V?$xalloc@VTRI@CDB@@@@@std@@@std@@PEAVTRI@CDB@@V?$xalloc@VTRI@CDB@@@@@std@@YAPEAVTRI@CDB@@V?$_Vector_const_iterator@V?$_Vector_val@VTRI@CDB@@V?$xalloc@VTRI@CDB@@@@@std@@@0@0PEAV12@AEAV?$xalloc@VTRI@CDB@@@@U_Nonscalar_ptr_iterator_tag@0@@Z
	DD	020H
	DD	00H
	DD	00H
CONST	ENDS
;	COMDAT xdata
xdata	SEGMENT
$tryMap$??$_Uninit_copy@V?$_Vector_const_iterator@V?$_Vector_val@VTRI@CDB@@V?$xalloc@VTRI@CDB@@@@@std@@@std@@PEAVTRI@CDB@@V?$xalloc@VTRI@CDB@@@@@std@@YAPEAVTRI@CDB@@V?$_Vector_const_iterator@V?$_Vector_val@VTRI@CDB@@V?$xalloc@VTRI@CDB@@@@@std@@@0@0PEAV12@AEAV?$xalloc@VTRI@CDB@@@@U_Nonscalar_ptr_iterator_tag@0@@Z DD 00H
	DD	00H
	DD	01H
	DD	01H
	DD	imagerel $handlerMap$0$??$_Uninit_copy@V?$_Vector_const_iterator@V?$_Vector_val@VTRI@CDB@@V?$xalloc@VTRI@CDB@@@@@std@@@std@@PEAVTRI@CDB@@V?$xalloc@VTRI@CDB@@@@@std@@YAPEAVTRI@CDB@@V?$_Vector_const_iterator@V?$_Vector_val@VTRI@CDB@@V?$xalloc@VTRI@CDB@@@@@std@@@0@0PEAV12@AEAV?$xalloc@VTRI@CDB@@@@U_Nonscalar_ptr_iterator_tag@0@@Z
xdata	ENDS
;	COMDAT xdata
xdata	SEGMENT
$handlerMap$0$??$_Uninit_copy@V?$_Vector_const_iterator@V?$_Vector_val@VTRI@CDB@@V?$xalloc@VTRI@CDB@@@@@std@@@std@@PEAVTRI@CDB@@V?$xalloc@VTRI@CDB@@@@@std@@YAPEAVTRI@CDB@@V?$_Vector_const_iterator@V?$_Vector_val@VTRI@CDB@@V?$xalloc@VTRI@CDB@@@@@std@@@0@0PEAV12@AEAV?$xalloc@VTRI@CDB@@@@U_Nonscalar_ptr_iterator_tag@0@@Z DD 00H
	DD	00H
	DD	00H
	DD	imagerel ?catch$0@?0???$_Uninit_copy@V?$_Vector_const_iterator@V?$_Vector_val@VTRI@CDB@@V?$xalloc@VTRI@CDB@@@@@std@@@std@@PEAVTRI@CDB@@V?$xalloc@VTRI@CDB@@@@@std@@YAPEAVTRI@CDB@@V?$_Vector_const_iterator@V?$_Vector_val@VTRI@CDB@@V?$xalloc@VTRI@CDB@@@@@std@@@0@0PEAV12@AEAV?$xalloc@VTRI@CDB@@@@U_Nonscalar_ptr_iterator_tag@0@@Z@4HA
	DD	038H
xdata	ENDS
;	COMDAT xdata
xdata	SEGMENT
$stateUnwindMap$??$_Uninit_copy@V?$_Vector_const_iterator@V?$_Vector_val@VTRI@CDB@@V?$xalloc@VTRI@CDB@@@@@std@@@std@@PEAVTRI@CDB@@V?$xalloc@VTRI@CDB@@@@@std@@YAPEAVTRI@CDB@@V?$_Vector_const_iterator@V?$_Vector_val@VTRI@CDB@@V?$xalloc@VTRI@CDB@@@@@std@@@0@0PEAV12@AEAV?$xalloc@VTRI@CDB@@@@U_Nonscalar_ptr_iterator_tag@0@@Z DD 0ffffffffH
	DD	00H
	DD	0ffffffffH
	DD	00H
; Function compile flags: /Ogtpy
; File c:\program files (x86)\microsoft visual studio 10.0\vc\include\memory
xdata	ENDS
;	COMDAT ??$_Uninit_copy@V?$_Vector_const_iterator@V?$_Vector_val@VTRI@CDB@@V?$xalloc@VTRI@CDB@@@@@std@@@std@@PEAVTRI@CDB@@V?$xalloc@VTRI@CDB@@@@@std@@YAPEAVTRI@CDB@@V?$_Vector_const_iterator@V?$_Vector_val@VTRI@CDB@@V?$xalloc@VTRI@CDB@@@@@std@@@0@0PEAV12@AEAV?$xalloc@VTRI@CDB@@@@U_Nonscalar_ptr_iterator_tag@0@@Z
_TEXT	SEGMENT
$T115036 = 32
_First$ = 64
_Last$ = 72
_Dest$ = 80
??$_Uninit_copy@V?$_Vector_const_iterator@V?$_Vector_val@VTRI@CDB@@V?$xalloc@VTRI@CDB@@@@@std@@@std@@PEAVTRI@CDB@@V?$xalloc@VTRI@CDB@@@@@std@@YAPEAVTRI@CDB@@V?$_Vector_const_iterator@V?$_Vector_val@VTRI@CDB@@V?$xalloc@VTRI@CDB@@@@@std@@@0@0PEAV12@AEAV?$xalloc@VTRI@CDB@@@@U_Nonscalar_ptr_iterator_tag@0@@Z PROC ; std::_Uninit_copy<std::_Vector_const_iterator<std::_Vector_val<CDB::TRI,xalloc<CDB::TRI> > >,CDB::TRI * __ptr64,xalloc<CDB::TRI> >, COMDAT

; 369  : 	{	// copy [_First, _Last) to raw _Dest, using _Al, arbitrary type

$LN45:
	mov	QWORD PTR [rsp+16], rdx
	mov	QWORD PTR [rsp+8], rcx
	sub	rsp, 56					; 00000038H
	mov	QWORD PTR $T115036[rsp], -2

; 370  : 	_DEBUG_RANGE(_First, _Last);
; 371  : 	_DEBUG_POINTER(_Dest);
; 372  : 	_FwdIt _Next = _Dest;
; 373  : 
; 374  : 	_TRY_BEGIN

	mov	rax, QWORD PTR _First$[rsp]
	npad	4

; 375  : 	for (; _First != _Last; ++_Dest, ++_First)

$LL14@Uninit_cop@2:
	cmp	rax, QWORD PTR _Last$[rsp]
	je	SHORT $LN4@Uninit_cop@2

; 376  : 		_Cons_val(_Al, _Dest, *_First);

	test	r8, r8
	je	SHORT $LN35@Uninit_cop@2
	mov	rcx, QWORD PTR [rax]
	mov	QWORD PTR [r8], rcx
	mov	rcx, QWORD PTR [rax+8]
	mov	QWORD PTR [r8+8], rcx
	mov	rcx, QWORD PTR [rax+16]
	mov	QWORD PTR [r8+16], rcx
	mov	rax, QWORD PTR _First$[rsp]
$LN35@Uninit_cop@2:

; 375  : 	for (; _First != _Last; ++_Dest, ++_First)

	add	r8, 24
	mov	QWORD PTR _Dest$[rsp], r8
	add	rax, 24
	mov	QWORD PTR _First$[rsp], rax
	jmp	SHORT $LL14@Uninit_cop@2
$LN4@Uninit_cop@2:

; 377  : 	_CATCH_ALL
; 378  : 	for (; _Next != _Dest; ++_Next)
; 379  : 		_Dest_val(_Al, _Next);
; 380  : 	_RERAISE;
; 381  : 	_CATCH_END
; 382  : 	return (_Dest);

	mov	rax, r8

; 383  : 	}

	add	rsp, 56					; 00000038H
	ret	0
$LN44@Uninit_cop@2:
??$_Uninit_copy@V?$_Vector_const_iterator@V?$_Vector_val@VTRI@CDB@@V?$xalloc@VTRI@CDB@@@@@std@@@std@@PEAVTRI@CDB@@V?$xalloc@VTRI@CDB@@@@@std@@YAPEAVTRI@CDB@@V?$_Vector_const_iterator@V?$_Vector_val@VTRI@CDB@@V?$xalloc@VTRI@CDB@@@@@std@@@0@0PEAV12@AEAV?$xalloc@VTRI@CDB@@@@U_Nonscalar_ptr_iterator_tag@0@@Z ENDP ; std::_Uninit_copy<std::_Vector_const_iterator<std::_Vector_val<CDB::TRI,xalloc<CDB::TRI> > >,CDB::TRI * __ptr64,xalloc<CDB::TRI> >
; Function compile flags: /Ogtpy
_TEXT	ENDS
;	COMDAT text$x
text$x	SEGMENT
$T115036 = 32
_First$ = 64
_Last$ = 72
_Dest$ = 80
?catch$0@?0???$_Uninit_copy@V?$_Vector_const_iterator@V?$_Vector_val@VTRI@CDB@@V?$xalloc@VTRI@CDB@@@@@std@@@std@@PEAVTRI@CDB@@V?$xalloc@VTRI@CDB@@@@@std@@YAPEAVTRI@CDB@@V?$_Vector_const_iterator@V?$_Vector_val@VTRI@CDB@@V?$xalloc@VTRI@CDB@@@@@std@@@0@0PEAV12@AEAV?$xalloc@VTRI@CDB@@@@U_Nonscalar_ptr_iterator_tag@0@@Z@4HA PROC ; `std::_Uninit_copy<std::_Vector_const_iterator<std::_Vector_val<CDB::TRI,xalloc<CDB::TRI> > >,CDB::TRI * __ptr64,xalloc<CDB::TRI> >'::`1'::catch$0

; 377  : 	_CATCH_ALL

	mov	QWORD PTR [rsp+16], rdx
	push	rbp
	sub	rsp, 32					; 00000020H
	mov	rbp, rdx
__catch$??$_Uninit_copy@V?$_Vector_const_iterator@V?$_Vector_val@VTRI@CDB@@V?$xalloc@VTRI@CDB@@@@@std@@@std@@PEAVTRI@CDB@@V?$xalloc@VTRI@CDB@@@@@std@@YAPEAVTRI@CDB@@V?$_Vector_const_iterator@V?$_Vector_val@VTRI@CDB@@V?$xalloc@VTRI@CDB@@@@@std@@@0@0PEAV12@AEAV?$xalloc@VTRI@CDB@@@@U_Nonscalar_ptr_iterator_tag@0@@Z$0:

; 378  : 	for (; _Next != _Dest; ++_Next)
; 379  : 		_Dest_val(_Al, _Next);
; 380  : 	_RERAISE;

	xor	edx, edx
	xor	ecx, ecx
	call	_CxxThrowException
	npad	1
?catch$0@?0???$_Uninit_copy@V?$_Vector_const_iterator@V?$_Vector_val@VTRI@CDB@@V?$xalloc@VTRI@CDB@@@@@std@@@std@@PEAVTRI@CDB@@V?$xalloc@VTRI@CDB@@@@@std@@YAPEAVTRI@CDB@@V?$_Vector_const_iterator@V?$_Vector_val@VTRI@CDB@@V?$xalloc@VTRI@CDB@@@@@std@@@0@0PEAV12@AEAV?$xalloc@VTRI@CDB@@@@U_Nonscalar_ptr_iterator_tag@0@@Z@4HA ENDP ; `std::_Uninit_copy<std::_Vector_const_iterator<std::_Vector_val<CDB::TRI,xalloc<CDB::TRI> > >,CDB::TRI * __ptr64,xalloc<CDB::TRI> >'::`1'::catch$0
text$x	ENDS
;	COMDAT pdata
; File c:\program files (x86)\microsoft visual studio 10.0\vc\include\utility
pdata	SEGMENT
$pdata$??$_Uninit_copy@PEAURESULT@CDB@@PEAU12@V?$xalloc@URESULT@CDB@@@@@std@@YAPEAURESULT@CDB@@PEAU12@00AEAV?$xalloc@URESULT@CDB@@@@U_Nonscalar_ptr_iterator_tag@0@@Z DD imagerel $LN32
	DD	imagerel $LN32+116
	DD	imagerel $unwind$??$_Uninit_copy@PEAURESULT@CDB@@PEAU12@V?$xalloc@URESULT@CDB@@@@@std@@YAPEAURESULT@CDB@@PEAU12@00AEAV?$xalloc@URESULT@CDB@@@@U_Nonscalar_ptr_iterator_tag@0@@Z
pdata	ENDS
;	COMDAT pdata
pdata	SEGMENT
$pdata$?catch$0@?0???$_Uninit_copy@PEAURESULT@CDB@@PEAU12@V?$xalloc@URESULT@CDB@@@@@std@@YAPEAURESULT@CDB@@PEAU12@00AEAV?$xalloc@URESULT@CDB@@@@U_Nonscalar_ptr_iterator_tag@0@@Z@4HA DD imagerel ?catch$0@?0???$_Uninit_copy@PEAURESULT@CDB@@PEAU12@V?$xalloc@URESULT@CDB@@@@@std@@YAPEAURESULT@CDB@@PEAU12@00AEAV?$xalloc@URESULT@CDB@@@@U_Nonscalar_ptr_iterator_tag@0@@Z@4HA
	DD	imagerel ?catch$0@?0???$_Uninit_copy@PEAURESULT@CDB@@PEAU12@V?$xalloc@URESULT@CDB@@@@@std@@YAPEAURESULT@CDB@@PEAU12@00AEAV?$xalloc@URESULT@CDB@@@@U_Nonscalar_ptr_iterator_tag@0@@Z@4HA+23
	DD	imagerel $unwind$?catch$0@?0???$_Uninit_copy@PEAURESULT@CDB@@PEAU12@V?$xalloc@URESULT@CDB@@@@@std@@YAPEAURESULT@CDB@@PEAU12@00AEAV?$xalloc@URESULT@CDB@@@@U_Nonscalar_ptr_iterator_tag@0@@Z@4HA
pdata	ENDS
;	COMDAT xdata
xdata	SEGMENT
$ip2state$??$_Uninit_copy@PEAURESULT@CDB@@PEAU12@V?$xalloc@URESULT@CDB@@@@@std@@YAPEAURESULT@CDB@@PEAU12@00AEAV?$xalloc@URESULT@CDB@@@@U_Nonscalar_ptr_iterator_tag@0@@Z DD imagerel ??$_Uninit_copy@PEAURESULT@CDB@@PEAU12@V?$xalloc@URESULT@CDB@@@@@std@@YAPEAURESULT@CDB@@PEAU12@00AEAV?$xalloc@URESULT@CDB@@@@U_Nonscalar_ptr_iterator_tag@0@@Z
	DD	0ffffffffH
	DD	imagerel ??$_Uninit_copy@PEAURESULT@CDB@@PEAU12@V?$xalloc@URESULT@CDB@@@@@std@@YAPEAURESULT@CDB@@PEAU12@00AEAV?$xalloc@URESULT@CDB@@@@U_Nonscalar_ptr_iterator_tag@0@@Z+16
	DD	00H
	DD	imagerel ??$_Uninit_copy@PEAURESULT@CDB@@PEAU12@V?$xalloc@URESULT@CDB@@@@@std@@YAPEAURESULT@CDB@@PEAU12@00AEAV?$xalloc@URESULT@CDB@@@@U_Nonscalar_ptr_iterator_tag@0@@Z+108
	DD	0ffffffffH
	DD	imagerel ?catch$0@?0???$_Uninit_copy@PEAURESULT@CDB@@PEAU12@V?$xalloc@URESULT@CDB@@@@@std@@YAPEAURESULT@CDB@@PEAU12@00AEAV?$xalloc@URESULT@CDB@@@@U_Nonscalar_ptr_iterator_tag@0@@Z@4HA
	DD	00H
	DD	imagerel ?catch$0@?0???$_Uninit_copy@PEAURESULT@CDB@@PEAU12@V?$xalloc@URESULT@CDB@@@@@std@@YAPEAURESULT@CDB@@PEAU12@00AEAV?$xalloc@URESULT@CDB@@@@U_Nonscalar_ptr_iterator_tag@0@@Z@4HA+13
	DD	01H
xdata	ENDS
;	COMDAT xdata
xdata	SEGMENT
$unwind$?catch$0@?0???$_Uninit_copy@PEAURESULT@CDB@@PEAU12@V?$xalloc@URESULT@CDB@@@@@std@@YAPEAURESULT@CDB@@PEAU12@00AEAV?$xalloc@URESULT@CDB@@@@U_Nonscalar_ptr_iterator_tag@0@@Z@4HA DD 020a19H
	DD	05006320aH
	DD	imagerel __CxxFrameHandler3
	DD	imagerel $cppxdata$??$_Uninit_copy@PEAURESULT@CDB@@PEAU12@V?$xalloc@URESULT@CDB@@@@@std@@YAPEAURESULT@CDB@@PEAU12@00AEAV?$xalloc@URESULT@CDB@@@@U_Nonscalar_ptr_iterator_tag@0@@Z
xdata	ENDS
;	COMDAT xdata
xdata	SEGMENT
$unwind$??$_Uninit_copy@PEAURESULT@CDB@@PEAU12@V?$xalloc@URESULT@CDB@@@@@std@@YAPEAURESULT@CDB@@PEAU12@00AEAV?$xalloc@URESULT@CDB@@@@U_Nonscalar_ptr_iterator_tag@0@@Z DD 010d19H
	DD	06204H
	DD	imagerel __CxxFrameHandler3
	DD	imagerel $cppxdata$??$_Uninit_copy@PEAURESULT@CDB@@PEAU12@V?$xalloc@URESULT@CDB@@@@@std@@YAPEAURESULT@CDB@@PEAU12@00AEAV?$xalloc@URESULT@CDB@@@@U_Nonscalar_ptr_iterator_tag@0@@Z
xdata	ENDS
;	COMDAT CONST
CONST	SEGMENT
$cppxdata$??$_Uninit_copy@PEAURESULT@CDB@@PEAU12@V?$xalloc@URESULT@CDB@@@@@std@@YAPEAURESULT@CDB@@PEAU12@00AEAV?$xalloc@URESULT@CDB@@@@U_Nonscalar_ptr_iterator_tag@0@@Z DD 019930522H
	DD	02H
	DD	imagerel $stateUnwindMap$??$_Uninit_copy@PEAURESULT@CDB@@PEAU12@V?$xalloc@URESULT@CDB@@@@@std@@YAPEAURESULT@CDB@@PEAU12@00AEAV?$xalloc@URESULT@CDB@@@@U_Nonscalar_ptr_iterator_tag@0@@Z
	DD	01H
	DD	imagerel $tryMap$??$_Uninit_copy@PEAURESULT@CDB@@PEAU12@V?$xalloc@URESULT@CDB@@@@@std@@YAPEAURESULT@CDB@@PEAU12@00AEAV?$xalloc@URESULT@CDB@@@@U_Nonscalar_ptr_iterator_tag@0@@Z
	DD	05H
	DD	imagerel $ip2state$??$_Uninit_copy@PEAURESULT@CDB@@PEAU12@V?$xalloc@URESULT@CDB@@@@@std@@YAPEAURESULT@CDB@@PEAU12@00AEAV?$xalloc@URESULT@CDB@@@@U_Nonscalar_ptr_iterator_tag@0@@Z
	DD	020H
	DD	00H
	DD	00H
CONST	ENDS
;	COMDAT xdata
xdata	SEGMENT
$tryMap$??$_Uninit_copy@PEAURESULT@CDB@@PEAU12@V?$xalloc@URESULT@CDB@@@@@std@@YAPEAURESULT@CDB@@PEAU12@00AEAV?$xalloc@URESULT@CDB@@@@U_Nonscalar_ptr_iterator_tag@0@@Z DD 00H
	DD	00H
	DD	01H
	DD	01H
	DD	imagerel $handlerMap$0$??$_Uninit_copy@PEAURESULT@CDB@@PEAU12@V?$xalloc@URESULT@CDB@@@@@std@@YAPEAURESULT@CDB@@PEAU12@00AEAV?$xalloc@URESULT@CDB@@@@U_Nonscalar_ptr_iterator_tag@0@@Z
xdata	ENDS
;	COMDAT xdata
xdata	SEGMENT
$handlerMap$0$??$_Uninit_copy@PEAURESULT@CDB@@PEAU12@V?$xalloc@URESULT@CDB@@@@@std@@YAPEAURESULT@CDB@@PEAU12@00AEAV?$xalloc@URESULT@CDB@@@@U_Nonscalar_ptr_iterator_tag@0@@Z DD 00H
	DD	00H
	DD	00H
	DD	imagerel ?catch$0@?0???$_Uninit_copy@PEAURESULT@CDB@@PEAU12@V?$xalloc@URESULT@CDB@@@@@std@@YAPEAURESULT@CDB@@PEAU12@00AEAV?$xalloc@URESULT@CDB@@@@U_Nonscalar_ptr_iterator_tag@0@@Z@4HA
	DD	038H
xdata	ENDS
;	COMDAT xdata
xdata	SEGMENT
$stateUnwindMap$??$_Uninit_copy@PEAURESULT@CDB@@PEAU12@V?$xalloc@URESULT@CDB@@@@@std@@YAPEAURESULT@CDB@@PEAU12@00AEAV?$xalloc@URESULT@CDB@@@@U_Nonscalar_ptr_iterator_tag@0@@Z DD 0ffffffffH
	DD	00H
	DD	0ffffffffH
	DD	00H
; Function compile flags: /Ogtpy
; File c:\program files (x86)\microsoft visual studio 10.0\vc\include\memory
xdata	ENDS
;	COMDAT ??$_Uninit_copy@PEAURESULT@CDB@@PEAU12@V?$xalloc@URESULT@CDB@@@@@std@@YAPEAURESULT@CDB@@PEAU12@00AEAV?$xalloc@URESULT@CDB@@@@U_Nonscalar_ptr_iterator_tag@0@@Z
_TEXT	SEGMENT
$T115127 = 32
_First$ = 64
_Last$ = 72
_Dest$ = 80
??$_Uninit_copy@PEAURESULT@CDB@@PEAU12@V?$xalloc@URESULT@CDB@@@@@std@@YAPEAURESULT@CDB@@PEAU12@00AEAV?$xalloc@URESULT@CDB@@@@U_Nonscalar_ptr_iterator_tag@0@@Z PROC ; std::_Uninit_copy<CDB::RESULT * __ptr64,CDB::RESULT * __ptr64,xalloc<CDB::RESULT> >, COMDAT

; 369  : 	{	// copy [_First, _Last) to raw _Dest, using _Al, arbitrary type

$LN32:
	sub	rsp, 56					; 00000038H
	mov	QWORD PTR $T115127[rsp], -2
	npad	3
$LL6@Uninit_cop@3:

; 370  : 	_DEBUG_RANGE(_First, _Last);
; 371  : 	_DEBUG_POINTER(_Dest);
; 372  : 	_FwdIt _Next = _Dest;
; 373  : 
; 374  : 	_TRY_BEGIN
; 375  : 	for (; _First != _Last; ++_Dest, ++_First)

	cmp	rcx, rdx
	je	SHORT $LN4@Uninit_cop@3

; 376  : 		_Cons_val(_Al, _Dest, *_First);

	test	r8, r8
	je	SHORT $LN22@Uninit_cop@3
	mov	rax, QWORD PTR [rcx]
	mov	QWORD PTR [r8], rax
	mov	rax, QWORD PTR [rcx+8]
	mov	QWORD PTR [r8+8], rax
	mov	rax, QWORD PTR [rcx+16]
	mov	QWORD PTR [r8+16], rax
	mov	rax, QWORD PTR [rcx+24]
	mov	QWORD PTR [r8+24], rax
	mov	rax, QWORD PTR [rcx+32]
	mov	QWORD PTR [r8+32], rax
	mov	rax, QWORD PTR [rcx+40]
	mov	QWORD PTR [r8+40], rax
	mov	rax, QWORD PTR [rcx+48]
	mov	QWORD PTR [r8+48], rax
	mov	rax, QWORD PTR [rcx+56]
	mov	QWORD PTR [r8+56], rax
$LN22@Uninit_cop@3:

; 370  : 	_DEBUG_RANGE(_First, _Last);
; 371  : 	_DEBUG_POINTER(_Dest);
; 372  : 	_FwdIt _Next = _Dest;
; 373  : 
; 374  : 	_TRY_BEGIN
; 375  : 	for (; _First != _Last; ++_Dest, ++_First)

	add	r8, 64					; 00000040H
	mov	QWORD PTR _Dest$[rsp], r8
	add	rcx, 64					; 00000040H
	mov	QWORD PTR _First$[rsp], rcx
	jmp	SHORT $LL6@Uninit_cop@3
$LN4@Uninit_cop@3:

; 377  : 	_CATCH_ALL
; 378  : 	for (; _Next != _Dest; ++_Next)
; 379  : 		_Dest_val(_Al, _Next);
; 380  : 	_RERAISE;
; 381  : 	_CATCH_END
; 382  : 	return (_Dest);

	mov	rax, r8

; 383  : 	}

	add	rsp, 56					; 00000038H
	ret	0
$LN31@Uninit_cop@3:
??$_Uninit_copy@PEAURESULT@CDB@@PEAU12@V?$xalloc@URESULT@CDB@@@@@std@@YAPEAURESULT@CDB@@PEAU12@00AEAV?$xalloc@URESULT@CDB@@@@U_Nonscalar_ptr_iterator_tag@0@@Z ENDP ; std::_Uninit_copy<CDB::RESULT * __ptr64,CDB::RESULT * __ptr64,xalloc<CDB::RESULT> >
; Function compile flags: /Ogtpy
_TEXT	ENDS
;	COMDAT text$x
text$x	SEGMENT
$T115127 = 32
_First$ = 64
_Last$ = 72
_Dest$ = 80
?catch$0@?0???$_Uninit_copy@PEAURESULT@CDB@@PEAU12@V?$xalloc@URESULT@CDB@@@@@std@@YAPEAURESULT@CDB@@PEAU12@00AEAV?$xalloc@URESULT@CDB@@@@U_Nonscalar_ptr_iterator_tag@0@@Z@4HA PROC ; `std::_Uninit_copy<CDB::RESULT * __ptr64,CDB::RESULT * __ptr64,xalloc<CDB::RESULT> >'::`1'::catch$0

; 377  : 	_CATCH_ALL

	mov	QWORD PTR [rsp+16], rdx
	push	rbp
	sub	rsp, 32					; 00000020H
	mov	rbp, rdx
__catch$??$_Uninit_copy@PEAURESULT@CDB@@PEAU12@V?$xalloc@URESULT@CDB@@@@@std@@YAPEAURESULT@CDB@@PEAU12@00AEAV?$xalloc@URESULT@CDB@@@@U_Nonscalar_ptr_iterator_tag@0@@Z$0:

; 378  : 	for (; _Next != _Dest; ++_Next)
; 379  : 		_Dest_val(_Al, _Next);
; 380  : 	_RERAISE;

	xor	edx, edx
	xor	ecx, ecx
	call	_CxxThrowException
	npad	1
?catch$0@?0???$_Uninit_copy@PEAURESULT@CDB@@PEAU12@V?$xalloc@URESULT@CDB@@@@@std@@YAPEAURESULT@CDB@@PEAU12@00AEAV?$xalloc@URESULT@CDB@@@@U_Nonscalar_ptr_iterator_tag@0@@Z@4HA ENDP ; `std::_Uninit_copy<CDB::RESULT * __ptr64,CDB::RESULT * __ptr64,xalloc<CDB::RESULT> >'::`1'::catch$0
text$x	ENDS
;	COMDAT pdata
; File c:\program files (x86)\microsoft visual studio 10.0\vc\include\utility
pdata	SEGMENT
$pdata$??$_Uninit_copy@V?$_Vector_const_iterator@V?$_Vector_val@URESULT@CDB@@V?$xalloc@URESULT@CDB@@@@@std@@@std@@PEAURESULT@CDB@@V?$xalloc@URESULT@CDB@@@@@std@@YAPEAURESULT@CDB@@V?$_Vector_const_iterator@V?$_Vector_val@URESULT@CDB@@V?$xalloc@URESULT@CDB@@@@@std@@@0@0PEAU12@AEAV?$xalloc@URESULT@CDB@@@@U_Nonscalar_ptr_iterator_tag@0@@Z DD imagerel $LN45
	DD	imagerel $LN45+139
	DD	imagerel $unwind$??$_Uninit_copy@V?$_Vector_const_iterator@V?$_Vector_val@URESULT@CDB@@V?$xalloc@URESULT@CDB@@@@@std@@@std@@PEAURESULT@CDB@@V?$xalloc@URESULT@CDB@@@@@std@@YAPEAURESULT@CDB@@V?$_Vector_const_iterator@V?$_Vector_val@URESULT@CDB@@V?$xalloc@URESULT@CDB@@@@@std@@@0@0PEAU12@AEAV?$xalloc@URESULT@CDB@@@@U_Nonscalar_ptr_iterator_tag@0@@Z
pdata	ENDS
;	COMDAT pdata
pdata	SEGMENT
$pdata$?catch$0@?0???$_Uninit_copy@V?$_Vector_const_iterator@V?$_Vector_val@URESULT@CDB@@V?$xalloc@URESULT@CDB@@@@@std@@@std@@PEAURESULT@CDB@@V?$xalloc@URESULT@CDB@@@@@std@@YAPEAURESULT@CDB@@V?$_Vector_const_iterator@V?$_Vector_val@URESULT@CDB@@V?$xalloc@URESULT@CDB@@@@@std@@@0@0PEAU12@AEAV?$xalloc@URESULT@CDB@@@@U_Nonscalar_ptr_iterator_tag@0@@Z@4HA DD imagerel ?catch$0@?0???$_Uninit_copy@V?$_Vector_const_iterator@V?$_Vector_val@URESULT@CDB@@V?$xalloc@URESULT@CDB@@@@@std@@@std@@PEAURESULT@CDB@@V?$xalloc@URESULT@CDB@@@@@std@@YAPEAURESULT@CDB@@V?$_Vector_const_iterator@V?$_Vector_val@URESULT@CDB@@V?$xalloc@URESULT@CDB@@@@@std@@@0@0PEAU12@AEAV?$xalloc@URESULT@CDB@@@@U_Nonscalar_ptr_iterator_tag@0@@Z@4HA
	DD	imagerel ?catch$0@?0???$_Uninit_copy@V?$_Vector_const_iterator@V?$_Vector_val@URESULT@CDB@@V?$xalloc@URESULT@CDB@@@@@std@@@std@@PEAURESULT@CDB@@V?$xalloc@URESULT@CDB@@@@@std@@YAPEAURESULT@CDB@@V?$_Vector_const_iterator@V?$_Vector_val@URESULT@CDB@@V?$xalloc@URESULT@CDB@@@@@std@@@0@0PEAU12@AEAV?$xalloc@URESULT@CDB@@@@U_Nonscalar_ptr_iterator_tag@0@@Z@4HA+23
	DD	imagerel $unwind$?catch$0@?0???$_Uninit_copy@V?$_Vector_const_iterator@V?$_Vector_val@URESULT@CDB@@V?$xalloc@URESULT@CDB@@@@@std@@@std@@PEAURESULT@CDB@@V?$xalloc@URESULT@CDB@@@@@std@@YAPEAURESULT@CDB@@V?$_Vector_const_iterator@V?$_Vector_val@URESULT@CDB@@V?$xalloc@URESULT@CDB@@@@@std@@@0@0PEAU12@AEAV?$xalloc@URESULT@CDB@@@@U_Nonscalar_ptr_iterator_tag@0@@Z@4HA
pdata	ENDS
;	COMDAT xdata
xdata	SEGMENT
$ip2state$??$_Uninit_copy@V?$_Vector_const_iterator@V?$_Vector_val@URESULT@CDB@@V?$xalloc@URESULT@CDB@@@@@std@@@std@@PEAURESULT@CDB@@V?$xalloc@URESULT@CDB@@@@@std@@YAPEAURESULT@CDB@@V?$_Vector_const_iterator@V?$_Vector_val@URESULT@CDB@@V?$xalloc@URESULT@CDB@@@@@std@@@0@0PEAU12@AEAV?$xalloc@URESULT@CDB@@@@U_Nonscalar_ptr_iterator_tag@0@@Z DD imagerel ??$_Uninit_copy@V?$_Vector_const_iterator@V?$_Vector_val@URESULT@CDB@@V?$xalloc@URESULT@CDB@@@@@std@@@std@@PEAURESULT@CDB@@V?$xalloc@URESULT@CDB@@@@@std@@YAPEAURESULT@CDB@@V?$_Vector_const_iterator@V?$_Vector_val@URESULT@CDB@@V?$xalloc@URESULT@CDB@@@@@std@@@0@0PEAU12@AEAV?$xalloc@URESULT@CDB@@@@U_Nonscalar_ptr_iterator_tag@0@@Z
	DD	0ffffffffH
	DD	imagerel ??$_Uninit_copy@V?$_Vector_const_iterator@V?$_Vector_val@URESULT@CDB@@V?$xalloc@URESULT@CDB@@@@@std@@@std@@PEAURESULT@CDB@@V?$xalloc@URESULT@CDB@@@@@std@@YAPEAURESULT@CDB@@V?$_Vector_const_iterator@V?$_Vector_val@URESULT@CDB@@V?$xalloc@URESULT@CDB@@@@@std@@@0@0PEAU12@AEAV?$xalloc@URESULT@CDB@@@@U_Nonscalar_ptr_iterator_tag@0@@Z+23
	DD	00H
	DD	imagerel ??$_Uninit_copy@V?$_Vector_const_iterator@V?$_Vector_val@URESULT@CDB@@V?$xalloc@URESULT@CDB@@@@@std@@@std@@PEAURESULT@CDB@@V?$xalloc@URESULT@CDB@@@@@std@@YAPEAURESULT@CDB@@V?$_Vector_const_iterator@V?$_Vector_val@URESULT@CDB@@V?$xalloc@URESULT@CDB@@@@@std@@@0@0PEAU12@AEAV?$xalloc@URESULT@CDB@@@@U_Nonscalar_ptr_iterator_tag@0@@Z+131
	DD	0ffffffffH
	DD	imagerel ?catch$0@?0???$_Uninit_copy@V?$_Vector_const_iterator@V?$_Vector_val@URESULT@CDB@@V?$xalloc@URESULT@CDB@@@@@std@@@std@@PEAURESULT@CDB@@V?$xalloc@URESULT@CDB@@@@@std@@YAPEAURESULT@CDB@@V?$_Vector_const_iterator@V?$_Vector_val@URESULT@CDB@@V?$xalloc@URESULT@CDB@@@@@std@@@0@0PEAU12@AEAV?$xalloc@URESULT@CDB@@@@U_Nonscalar_ptr_iterator_tag@0@@Z@4HA
	DD	00H
	DD	imagerel ?catch$0@?0???$_Uninit_copy@V?$_Vector_const_iterator@V?$_Vector_val@URESULT@CDB@@V?$xalloc@URESULT@CDB@@@@@std@@@std@@PEAURESULT@CDB@@V?$xalloc@URESULT@CDB@@@@@std@@YAPEAURESULT@CDB@@V?$_Vector_const_iterator@V?$_Vector_val@URESULT@CDB@@V?$xalloc@URESULT@CDB@@@@@std@@@0@0PEAU12@AEAV?$xalloc@URESULT@CDB@@@@U_Nonscalar_ptr_iterator_tag@0@@Z@4HA+13
	DD	01H
xdata	ENDS
;	COMDAT xdata
xdata	SEGMENT
$unwind$?catch$0@?0???$_Uninit_copy@V?$_Vector_const_iterator@V?$_Vector_val@URESULT@CDB@@V?$xalloc@URESULT@CDB@@@@@std@@@std@@PEAURESULT@CDB@@V?$xalloc@URESULT@CDB@@@@@std@@YAPEAURESULT@CDB@@V?$_Vector_const_iterator@V?$_Vector_val@URESULT@CDB@@V?$xalloc@URESULT@CDB@@@@@std@@@0@0PEAU12@AEAV?$xalloc@URESULT@CDB@@@@U_Nonscalar_ptr_iterator_tag@0@@Z@4HA DD 020a19H
	DD	05006320aH
	DD	imagerel __CxxFrameHandler3
	DD	imagerel $cppxdata$??$_Uninit_copy@V?$_Vector_const_iterator@V?$_Vector_val@URESULT@CDB@@V?$xalloc@URESULT@CDB@@@@@std@@@std@@PEAURESULT@CDB@@V?$xalloc@URESULT@CDB@@@@@std@@YAPEAURESULT@CDB@@V?$_Vector_const_iterator@V?$_Vector_val@URESULT@CDB@@V?$xalloc@URESULT@CDB@@@@@std@@@0@0PEAU12@AEAV?$xalloc@URESULT@CDB@@@@U_Nonscalar_ptr_iterator_tag@0@@Z
xdata	ENDS
;	COMDAT xdata
xdata	SEGMENT
$unwind$??$_Uninit_copy@V?$_Vector_const_iterator@V?$_Vector_val@URESULT@CDB@@V?$xalloc@URESULT@CDB@@@@@std@@@std@@PEAURESULT@CDB@@V?$xalloc@URESULT@CDB@@@@@std@@YAPEAURESULT@CDB@@V?$_Vector_const_iterator@V?$_Vector_val@URESULT@CDB@@V?$xalloc@URESULT@CDB@@@@@std@@@0@0PEAU12@AEAV?$xalloc@URESULT@CDB@@@@U_Nonscalar_ptr_iterator_tag@0@@Z DD 011719H
	DD	0620eH
	DD	imagerel __CxxFrameHandler3
	DD	imagerel $cppxdata$??$_Uninit_copy@V?$_Vector_const_iterator@V?$_Vector_val@URESULT@CDB@@V?$xalloc@URESULT@CDB@@@@@std@@@std@@PEAURESULT@CDB@@V?$xalloc@URESULT@CDB@@@@@std@@YAPEAURESULT@CDB@@V?$_Vector_const_iterator@V?$_Vector_val@URESULT@CDB@@V?$xalloc@URESULT@CDB@@@@@std@@@0@0PEAU12@AEAV?$xalloc@URESULT@CDB@@@@U_Nonscalar_ptr_iterator_tag@0@@Z
xdata	ENDS
;	COMDAT CONST
CONST	SEGMENT
$cppxdata$??$_Uninit_copy@V?$_Vector_const_iterator@V?$_Vector_val@URESULT@CDB@@V?$xalloc@URESULT@CDB@@@@@std@@@std@@PEAURESULT@CDB@@V?$xalloc@URESULT@CDB@@@@@std@@YAPEAURESULT@CDB@@V?$_Vector_const_iterator@V?$_Vector_val@URESULT@CDB@@V?$xalloc@URESULT@CDB@@@@@std@@@0@0PEAU12@AEAV?$xalloc@URESULT@CDB@@@@U_Nonscalar_ptr_iterator_tag@0@@Z DD 019930522H
	DD	02H
	DD	imagerel $stateUnwindMap$??$_Uninit_copy@V?$_Vector_const_iterator@V?$_Vector_val@URESULT@CDB@@V?$xalloc@URESULT@CDB@@@@@std@@@std@@PEAURESULT@CDB@@V?$xalloc@URESULT@CDB@@@@@std@@YAPEAURESULT@CDB@@V?$_Vector_const_iterator@V?$_Vector_val@URESULT@CDB@@V?$xalloc@URESULT@CDB@@@@@std@@@0@0PEAU12@AEAV?$xalloc@URESULT@CDB@@@@U_Nonscalar_ptr_iterator_tag@0@@Z
	DD	01H
	DD	imagerel $tryMap$??$_Uninit_copy@V?$_Vector_const_iterator@V?$_Vector_val@URESULT@CDB@@V?$xalloc@URESULT@CDB@@@@@std@@@std@@PEAURESULT@CDB@@V?$xalloc@URESULT@CDB@@@@@std@@YAPEAURESULT@CDB@@V?$_Vector_const_iterator@V?$_Vector_val@URESULT@CDB@@V?$xalloc@URESULT@CDB@@@@@std@@@0@0PEAU12@AEAV?$xalloc@URESULT@CDB@@@@U_Nonscalar_ptr_iterator_tag@0@@Z
	DD	05H
	DD	imagerel $ip2state$??$_Uninit_copy@V?$_Vector_const_iterator@V?$_Vector_val@URESULT@CDB@@V?$xalloc@URESULT@CDB@@@@@std@@@std@@PEAURESULT@CDB@@V?$xalloc@URESULT@CDB@@@@@std@@YAPEAURESULT@CDB@@V?$_Vector_const_iterator@V?$_Vector_val@URESULT@CDB@@V?$xalloc@URESULT@CDB@@@@@std@@@0@0PEAU12@AEAV?$xalloc@URESULT@CDB@@@@U_Nonscalar_ptr_iterator_tag@0@@Z
	DD	020H
	DD	00H
	DD	00H
CONST	ENDS
;	COMDAT xdata
xdata	SEGMENT
$tryMap$??$_Uninit_copy@V?$_Vector_const_iterator@V?$_Vector_val@URESULT@CDB@@V?$xalloc@URESULT@CDB@@@@@std@@@std@@PEAURESULT@CDB@@V?$xalloc@URESULT@CDB@@@@@std@@YAPEAURESULT@CDB@@V?$_Vector_const_iterator@V?$_Vector_val@URESULT@CDB@@V?$xalloc@URESULT@CDB@@@@@std@@@0@0PEAU12@AEAV?$xalloc@URESULT@CDB@@@@U_Nonscalar_ptr_iterator_tag@0@@Z DD 00H
	DD	00H
	DD	01H
	DD	01H
	DD	imagerel $handlerMap$0$??$_Uninit_copy@V?$_Vector_const_iterator@V?$_Vector_val@URESULT@CDB@@V?$xalloc@URESULT@CDB@@@@@std@@@std@@PEAURESULT@CDB@@V?$xalloc@URESULT@CDB@@@@@std@@YAPEAURESULT@CDB@@V?$_Vector_const_iterator@V?$_Vector_val@URESULT@CDB@@V?$xalloc@URESULT@CDB@@@@@std@@@0@0PEAU12@AEAV?$xalloc@URESULT@CDB@@@@U_Nonscalar_ptr_iterator_tag@0@@Z
xdata	ENDS
;	COMDAT xdata
xdata	SEGMENT
$handlerMap$0$??$_Uninit_copy@V?$_Vector_const_iterator@V?$_Vector_val@URESULT@CDB@@V?$xalloc@URESULT@CDB@@@@@std@@@std@@PEAURESULT@CDB@@V?$xalloc@URESULT@CDB@@@@@std@@YAPEAURESULT@CDB@@V?$_Vector_const_iterator@V?$_Vector_val@URESULT@CDB@@V?$xalloc@URESULT@CDB@@@@@std@@@0@0PEAU12@AEAV?$xalloc@URESULT@CDB@@@@U_Nonscalar_ptr_iterator_tag@0@@Z DD 00H
	DD	00H
	DD	00H
	DD	imagerel ?catch$0@?0???$_Uninit_copy@V?$_Vector_const_iterator@V?$_Vector_val@URESULT@CDB@@V?$xalloc@URESULT@CDB@@@@@std@@@std@@PEAURESULT@CDB@@V?$xalloc@URESULT@CDB@@@@@std@@YAPEAURESULT@CDB@@V?$_Vector_const_iterator@V?$_Vector_val@URESULT@CDB@@V?$xalloc@URESULT@CDB@@@@@std@@@0@0PEAU12@AEAV?$xalloc@URESULT@CDB@@@@U_Nonscalar_ptr_iterator_tag@0@@Z@4HA
	DD	038H
xdata	ENDS
;	COMDAT xdata
xdata	SEGMENT
$stateUnwindMap$??$_Uninit_copy@V?$_Vector_const_iterator@V?$_Vector_val@URESULT@CDB@@V?$xalloc@URESULT@CDB@@@@@std@@@std@@PEAURESULT@CDB@@V?$xalloc@URESULT@CDB@@@@@std@@YAPEAURESULT@CDB@@V?$_Vector_const_iterator@V?$_Vector_val@URESULT@CDB@@V?$xalloc@URESULT@CDB@@@@@std@@@0@0PEAU12@AEAV?$xalloc@URESULT@CDB@@@@U_Nonscalar_ptr_iterator_tag@0@@Z DD 0ffffffffH
	DD	00H
	DD	0ffffffffH
	DD	00H
; Function compile flags: /Ogtpy
; File c:\program files (x86)\microsoft visual studio 10.0\vc\include\memory
xdata	ENDS
;	COMDAT ??$_Uninit_copy@V?$_Vector_const_iterator@V?$_Vector_val@URESULT@CDB@@V?$xalloc@URESULT@CDB@@@@@std@@@std@@PEAURESULT@CDB@@V?$xalloc@URESULT@CDB@@@@@std@@YAPEAURESULT@CDB@@V?$_Vector_const_iterator@V?$_Vector_val@URESULT@CDB@@V?$xalloc@URESULT@CDB@@@@@std@@@0@0PEAU12@AEAV?$xalloc@URESULT@CDB@@@@U_Nonscalar_ptr_iterator_tag@0@@Z
_TEXT	SEGMENT
$T115242 = 32
_First$ = 64
_Last$ = 72
_Dest$ = 80
??$_Uninit_copy@V?$_Vector_const_iterator@V?$_Vector_val@URESULT@CDB@@V?$xalloc@URESULT@CDB@@@@@std@@@std@@PEAURESULT@CDB@@V?$xalloc@URESULT@CDB@@@@@std@@YAPEAURESULT@CDB@@V?$_Vector_const_iterator@V?$_Vector_val@URESULT@CDB@@V?$xalloc@URESULT@CDB@@@@@std@@@0@0PEAU12@AEAV?$xalloc@URESULT@CDB@@@@U_Nonscalar_ptr_iterator_tag@0@@Z PROC ; std::_Uninit_copy<std::_Vector_const_iterator<std::_Vector_val<CDB::RESULT,xalloc<CDB::RESULT> > >,CDB::RESULT * __ptr64,xalloc<CDB::RESULT> >, COMDAT

; 369  : 	{	// copy [_First, _Last) to raw _Dest, using _Al, arbitrary type

$LN45:
	mov	QWORD PTR [rsp+16], rdx
	mov	QWORD PTR [rsp+8], rcx
	sub	rsp, 56					; 00000038H
	mov	QWORD PTR $T115242[rsp], -2

; 370  : 	_DEBUG_RANGE(_First, _Last);
; 371  : 	_DEBUG_POINTER(_Dest);
; 372  : 	_FwdIt _Next = _Dest;
; 373  : 
; 374  : 	_TRY_BEGIN

	mov	rax, QWORD PTR _First$[rsp]
	npad	4

; 375  : 	for (; _First != _Last; ++_Dest, ++_First)

$LL14@Uninit_cop@4:
	cmp	rax, QWORD PTR _Last$[rsp]
	je	SHORT $LN4@Uninit_cop@4

; 376  : 		_Cons_val(_Al, _Dest, *_First);

	test	r8, r8
	je	SHORT $LN35@Uninit_cop@4
	mov	rcx, QWORD PTR [rax]
	mov	QWORD PTR [r8], rcx
	mov	rcx, QWORD PTR [rax+8]
	mov	QWORD PTR [r8+8], rcx
	mov	rcx, QWORD PTR [rax+16]
	mov	QWORD PTR [r8+16], rcx
	mov	rcx, QWORD PTR [rax+24]
	mov	QWORD PTR [r8+24], rcx
	mov	rcx, QWORD PTR [rax+32]
	mov	QWORD PTR [r8+32], rcx
	mov	rcx, QWORD PTR [rax+40]
	mov	QWORD PTR [r8+40], rcx
	mov	rcx, QWORD PTR [rax+48]
	mov	QWORD PTR [r8+48], rcx
	mov	rcx, QWORD PTR [rax+56]
	mov	QWORD PTR [r8+56], rcx
	mov	rax, QWORD PTR _First$[rsp]
$LN35@Uninit_cop@4:

; 375  : 	for (; _First != _Last; ++_Dest, ++_First)

	add	r8, 64					; 00000040H
	mov	QWORD PTR _Dest$[rsp], r8
	add	rax, 64					; 00000040H
	mov	QWORD PTR _First$[rsp], rax
	jmp	SHORT $LL14@Uninit_cop@4
$LN4@Uninit_cop@4:

; 377  : 	_CATCH_ALL
; 378  : 	for (; _Next != _Dest; ++_Next)
; 379  : 		_Dest_val(_Al, _Next);
; 380  : 	_RERAISE;
; 381  : 	_CATCH_END
; 382  : 	return (_Dest);

	mov	rax, r8

; 383  : 	}

	add	rsp, 56					; 00000038H
	ret	0
$LN44@Uninit_cop@4:
??$_Uninit_copy@V?$_Vector_const_iterator@V?$_Vector_val@URESULT@CDB@@V?$xalloc@URESULT@CDB@@@@@std@@@std@@PEAURESULT@CDB@@V?$xalloc@URESULT@CDB@@@@@std@@YAPEAURESULT@CDB@@V?$_Vector_const_iterator@V?$_Vector_val@URESULT@CDB@@V?$xalloc@URESULT@CDB@@@@@std@@@0@0PEAU12@AEAV?$xalloc@URESULT@CDB@@@@U_Nonscalar_ptr_iterator_tag@0@@Z ENDP ; std::_Uninit_copy<std::_Vector_const_iterator<std::_Vector_val<CDB::RESULT,xalloc<CDB::RESULT> > >,CDB::RESULT * __ptr64,xalloc<CDB::RESULT> >
; Function compile flags: /Ogtpy
_TEXT	ENDS
;	COMDAT text$x
text$x	SEGMENT
$T115242 = 32
_First$ = 64
_Last$ = 72
_Dest$ = 80
?catch$0@?0???$_Uninit_copy@V?$_Vector_const_iterator@V?$_Vector_val@URESULT@CDB@@V?$xalloc@URESULT@CDB@@@@@std@@@std@@PEAURESULT@CDB@@V?$xalloc@URESULT@CDB@@@@@std@@YAPEAURESULT@CDB@@V?$_Vector_const_iterator@V?$_Vector_val@URESULT@CDB@@V?$xalloc@URESULT@CDB@@@@@std@@@0@0PEAU12@AEAV?$xalloc@URESULT@CDB@@@@U_Nonscalar_ptr_iterator_tag@0@@Z@4HA PROC ; `std::_Uninit_copy<std::_Vector_const_iterator<std::_Vector_val<CDB::RESULT,xalloc<CDB::RESULT> > >,CDB::RESULT * __ptr64,xalloc<CDB::RESULT> >'::`1'::catch$0

; 377  : 	_CATCH_ALL

	mov	QWORD PTR [rsp+16], rdx
	push	rbp
	sub	rsp, 32					; 00000020H
	mov	rbp, rdx
__catch$??$_Uninit_copy@V?$_Vector_const_iterator@V?$_Vector_val@URESULT@CDB@@V?$xalloc@URESULT@CDB@@@@@std@@@std@@PEAURESULT@CDB@@V?$xalloc@URESULT@CDB@@@@@std@@YAPEAURESULT@CDB@@V?$_Vector_const_iterator@V?$_Vector_val@URESULT@CDB@@V?$xalloc@URESULT@CDB@@@@@std@@@0@0PEAU12@AEAV?$xalloc@URESULT@CDB@@@@U_Nonscalar_ptr_iterator_tag@0@@Z$0:

; 378  : 	for (; _Next != _Dest; ++_Next)
; 379  : 		_Dest_val(_Al, _Next);
; 380  : 	_RERAISE;

	xor	edx, edx
	xor	ecx, ecx
	call	_CxxThrowException
	npad	1
?catch$0@?0???$_Uninit_copy@V?$_Vector_const_iterator@V?$_Vector_val@URESULT@CDB@@V?$xalloc@URESULT@CDB@@@@@std@@@std@@PEAURESULT@CDB@@V?$xalloc@URESULT@CDB@@@@@std@@YAPEAURESULT@CDB@@V?$_Vector_const_iterator@V?$_Vector_val@URESULT@CDB@@V?$xalloc@URESULT@CDB@@@@@std@@@0@0PEAU12@AEAV?$xalloc@URESULT@CDB@@@@U_Nonscalar_ptr_iterator_tag@0@@Z@4HA ENDP ; `std::_Uninit_copy<std::_Vector_const_iterator<std::_Vector_val<CDB::RESULT,xalloc<CDB::RESULT> > >,CDB::RESULT * __ptr64,xalloc<CDB::RESULT> >'::`1'::catch$0
text$x	ENDS
;	COMDAT pdata
; File c:\program files (x86)\microsoft visual studio 10.0\vc\include\utility
pdata	SEGMENT
$pdata$??$_Uninit_copy@PEAU?$_vector3@M@@PEAU1@V?$xalloc@U?$_vector3@M@@@@@std@@YAPEAU?$_vector3@M@@PEAU1@00AEAV?$xalloc@U?$_vector3@M@@@@U_Nonscalar_ptr_iterator_tag@0@@Z DD imagerel $LN32
	DD	imagerel $LN32+67
	DD	imagerel $unwind$??$_Uninit_copy@PEAU?$_vector3@M@@PEAU1@V?$xalloc@U?$_vector3@M@@@@@std@@YAPEAU?$_vector3@M@@PEAU1@00AEAV?$xalloc@U?$_vector3@M@@@@U_Nonscalar_ptr_iterator_tag@0@@Z
pdata	ENDS
;	COMDAT pdata
pdata	SEGMENT
$pdata$?catch$0@?0???$_Uninit_copy@PEAU?$_vector3@M@@PEAU1@V?$xalloc@U?$_vector3@M@@@@@std@@YAPEAU?$_vector3@M@@PEAU1@00AEAV?$xalloc@U?$_vector3@M@@@@U_Nonscalar_ptr_iterator_tag@0@@Z@4HA DD imagerel ?catch$0@?0???$_Uninit_copy@PEAU?$_vector3@M@@PEAU1@V?$xalloc@U?$_vector3@M@@@@@std@@YAPEAU?$_vector3@M@@PEAU1@00AEAV?$xalloc@U?$_vector3@M@@@@U_Nonscalar_ptr_iterator_tag@0@@Z@4HA
	DD	imagerel ?catch$0@?0???$_Uninit_copy@PEAU?$_vector3@M@@PEAU1@V?$xalloc@U?$_vector3@M@@@@@std@@YAPEAU?$_vector3@M@@PEAU1@00AEAV?$xalloc@U?$_vector3@M@@@@U_Nonscalar_ptr_iterator_tag@0@@Z@4HA+23
	DD	imagerel $unwind$?catch$0@?0???$_Uninit_copy@PEAU?$_vector3@M@@PEAU1@V?$xalloc@U?$_vector3@M@@@@@std@@YAPEAU?$_vector3@M@@PEAU1@00AEAV?$xalloc@U?$_vector3@M@@@@U_Nonscalar_ptr_iterator_tag@0@@Z@4HA
pdata	ENDS
;	COMDAT xdata
xdata	SEGMENT
$ip2state$??$_Uninit_copy@PEAU?$_vector3@M@@PEAU1@V?$xalloc@U?$_vector3@M@@@@@std@@YAPEAU?$_vector3@M@@PEAU1@00AEAV?$xalloc@U?$_vector3@M@@@@U_Nonscalar_ptr_iterator_tag@0@@Z DD imagerel ??$_Uninit_copy@PEAU?$_vector3@M@@PEAU1@V?$xalloc@U?$_vector3@M@@@@@std@@YAPEAU?$_vector3@M@@PEAU1@00AEAV?$xalloc@U?$_vector3@M@@@@U_Nonscalar_ptr_iterator_tag@0@@Z
	DD	0ffffffffH
	DD	imagerel ??$_Uninit_copy@PEAU?$_vector3@M@@PEAU1@V?$xalloc@U?$_vector3@M@@@@@std@@YAPEAU?$_vector3@M@@PEAU1@00AEAV?$xalloc@U?$_vector3@M@@@@U_Nonscalar_ptr_iterator_tag@0@@Z+16
	DD	00H
	DD	imagerel ??$_Uninit_copy@PEAU?$_vector3@M@@PEAU1@V?$xalloc@U?$_vector3@M@@@@@std@@YAPEAU?$_vector3@M@@PEAU1@00AEAV?$xalloc@U?$_vector3@M@@@@U_Nonscalar_ptr_iterator_tag@0@@Z+59
	DD	0ffffffffH
	DD	imagerel ?catch$0@?0???$_Uninit_copy@PEAU?$_vector3@M@@PEAU1@V?$xalloc@U?$_vector3@M@@@@@std@@YAPEAU?$_vector3@M@@PEAU1@00AEAV?$xalloc@U?$_vector3@M@@@@U_Nonscalar_ptr_iterator_tag@0@@Z@4HA
	DD	00H
	DD	imagerel ?catch$0@?0???$_Uninit_copy@PEAU?$_vector3@M@@PEAU1@V?$xalloc@U?$_vector3@M@@@@@std@@YAPEAU?$_vector3@M@@PEAU1@00AEAV?$xalloc@U?$_vector3@M@@@@U_Nonscalar_ptr_iterator_tag@0@@Z@4HA+13
	DD	01H
xdata	ENDS
;	COMDAT xdata
xdata	SEGMENT
$unwind$?catch$0@?0???$_Uninit_copy@PEAU?$_vector3@M@@PEAU1@V?$xalloc@U?$_vector3@M@@@@@std@@YAPEAU?$_vector3@M@@PEAU1@00AEAV?$xalloc@U?$_vector3@M@@@@U_Nonscalar_ptr_iterator_tag@0@@Z@4HA DD 020a19H
	DD	05006320aH
	DD	imagerel __CxxFrameHandler3
	DD	imagerel $cppxdata$??$_Uninit_copy@PEAU?$_vector3@M@@PEAU1@V?$xalloc@U?$_vector3@M@@@@@std@@YAPEAU?$_vector3@M@@PEAU1@00AEAV?$xalloc@U?$_vector3@M@@@@U_Nonscalar_ptr_iterator_tag@0@@Z
xdata	ENDS
;	COMDAT xdata
xdata	SEGMENT
$unwind$??$_Uninit_copy@PEAU?$_vector3@M@@PEAU1@V?$xalloc@U?$_vector3@M@@@@@std@@YAPEAU?$_vector3@M@@PEAU1@00AEAV?$xalloc@U?$_vector3@M@@@@U_Nonscalar_ptr_iterator_tag@0@@Z DD 010d19H
	DD	06204H
	DD	imagerel __CxxFrameHandler3
	DD	imagerel $cppxdata$??$_Uninit_copy@PEAU?$_vector3@M@@PEAU1@V?$xalloc@U?$_vector3@M@@@@@std@@YAPEAU?$_vector3@M@@PEAU1@00AEAV?$xalloc@U?$_vector3@M@@@@U_Nonscalar_ptr_iterator_tag@0@@Z
xdata	ENDS
;	COMDAT CONST
CONST	SEGMENT
$cppxdata$??$_Uninit_copy@PEAU?$_vector3@M@@PEAU1@V?$xalloc@U?$_vector3@M@@@@@std@@YAPEAU?$_vector3@M@@PEAU1@00AEAV?$xalloc@U?$_vector3@M@@@@U_Nonscalar_ptr_iterator_tag@0@@Z DD 019930522H
	DD	02H
	DD	imagerel $stateUnwindMap$??$_Uninit_copy@PEAU?$_vector3@M@@PEAU1@V?$xalloc@U?$_vector3@M@@@@@std@@YAPEAU?$_vector3@M@@PEAU1@00AEAV?$xalloc@U?$_vector3@M@@@@U_Nonscalar_ptr_iterator_tag@0@@Z
	DD	01H
	DD	imagerel $tryMap$??$_Uninit_copy@PEAU?$_vector3@M@@PEAU1@V?$xalloc@U?$_vector3@M@@@@@std@@YAPEAU?$_vector3@M@@PEAU1@00AEAV?$xalloc@U?$_vector3@M@@@@U_Nonscalar_ptr_iterator_tag@0@@Z
	DD	05H
	DD	imagerel $ip2state$??$_Uninit_copy@PEAU?$_vector3@M@@PEAU1@V?$xalloc@U?$_vector3@M@@@@@std@@YAPEAU?$_vector3@M@@PEAU1@00AEAV?$xalloc@U?$_vector3@M@@@@U_Nonscalar_ptr_iterator_tag@0@@Z
	DD	020H
	DD	00H
	DD	00H
CONST	ENDS
;	COMDAT xdata
xdata	SEGMENT
$tryMap$??$_Uninit_copy@PEAU?$_vector3@M@@PEAU1@V?$xalloc@U?$_vector3@M@@@@@std@@YAPEAU?$_vector3@M@@PEAU1@00AEAV?$xalloc@U?$_vector3@M@@@@U_Nonscalar_ptr_iterator_tag@0@@Z DD 00H
	DD	00H
	DD	01H
	DD	01H
	DD	imagerel $handlerMap$0$??$_Uninit_copy@PEAU?$_vector3@M@@PEAU1@V?$xalloc@U?$_vector3@M@@@@@std@@YAPEAU?$_vector3@M@@PEAU1@00AEAV?$xalloc@U?$_vector3@M@@@@U_Nonscalar_ptr_iterator_tag@0@@Z
xdata	ENDS
;	COMDAT xdata
xdata	SEGMENT
$handlerMap$0$??$_Uninit_copy@PEAU?$_vector3@M@@PEAU1@V?$xalloc@U?$_vector3@M@@@@@std@@YAPEAU?$_vector3@M@@PEAU1@00AEAV?$xalloc@U?$_vector3@M@@@@U_Nonscalar_ptr_iterator_tag@0@@Z DD 00H
	DD	00H
	DD	00H
	DD	imagerel ?catch$0@?0???$_Uninit_copy@PEAU?$_vector3@M@@PEAU1@V?$xalloc@U?$_vector3@M@@@@@std@@YAPEAU?$_vector3@M@@PEAU1@00AEAV?$xalloc@U?$_vector3@M@@@@U_Nonscalar_ptr_iterator_tag@0@@Z@4HA
	DD	038H
xdata	ENDS
;	COMDAT xdata
xdata	SEGMENT
$stateUnwindMap$??$_Uninit_copy@PEAU?$_vector3@M@@PEAU1@V?$xalloc@U?$_vector3@M@@@@@std@@YAPEAU?$_vector3@M@@PEAU1@00AEAV?$xalloc@U?$_vector3@M@@@@U_Nonscalar_ptr_iterator_tag@0@@Z DD 0ffffffffH
	DD	00H
	DD	0ffffffffH
	DD	00H
; Function compile flags: /Ogtpy
; File c:\program files (x86)\microsoft visual studio 10.0\vc\include\memory
xdata	ENDS
;	COMDAT ??$_Uninit_copy@PEAU?$_vector3@M@@PEAU1@V?$xalloc@U?$_vector3@M@@@@@std@@YAPEAU?$_vector3@M@@PEAU1@00AEAV?$xalloc@U?$_vector3@M@@@@U_Nonscalar_ptr_iterator_tag@0@@Z
_TEXT	SEGMENT
$T115333 = 32
_First$ = 64
_Last$ = 72
_Dest$ = 80
??$_Uninit_copy@PEAU?$_vector3@M@@PEAU1@V?$xalloc@U?$_vector3@M@@@@@std@@YAPEAU?$_vector3@M@@PEAU1@00AEAV?$xalloc@U?$_vector3@M@@@@U_Nonscalar_ptr_iterator_tag@0@@Z PROC ; std::_Uninit_copy<_vector3<float> * __ptr64,_vector3<float> * __ptr64,xalloc<_vector3<float> > >, COMDAT

; 369  : 	{	// copy [_First, _Last) to raw _Dest, using _Al, arbitrary type

$LN32:
	sub	rsp, 56					; 00000038H
	mov	QWORD PTR $T115333[rsp], -2
	npad	3
$LL6@Uninit_cop@5:

; 370  : 	_DEBUG_RANGE(_First, _Last);
; 371  : 	_DEBUG_POINTER(_Dest);
; 372  : 	_FwdIt _Next = _Dest;
; 373  : 
; 374  : 	_TRY_BEGIN
; 375  : 	for (; _First != _Last; ++_Dest, ++_First)

	cmp	rcx, rdx
	je	SHORT $LN4@Uninit_cop@5

; 376  : 		_Cons_val(_Al, _Dest, *_First);

	test	r8, r8
	je	SHORT $LN22@Uninit_cop@5
	mov	rax, QWORD PTR [rcx]
	mov	QWORD PTR [r8], rax
	mov	eax, DWORD PTR [rcx+8]
	mov	DWORD PTR [r8+8], eax
$LN22@Uninit_cop@5:

; 370  : 	_DEBUG_RANGE(_First, _Last);
; 371  : 	_DEBUG_POINTER(_Dest);
; 372  : 	_FwdIt _Next = _Dest;
; 373  : 
; 374  : 	_TRY_BEGIN
; 375  : 	for (; _First != _Last; ++_Dest, ++_First)

	add	r8, 12
	mov	QWORD PTR _Dest$[rsp], r8
	add	rcx, 12
	mov	QWORD PTR _First$[rsp], rcx
	jmp	SHORT $LL6@Uninit_cop@5
$LN4@Uninit_cop@5:

; 377  : 	_CATCH_ALL
; 378  : 	for (; _Next != _Dest; ++_Next)
; 379  : 		_Dest_val(_Al, _Next);
; 380  : 	_RERAISE;
; 381  : 	_CATCH_END
; 382  : 	return (_Dest);

	mov	rax, r8

; 383  : 	}

	add	rsp, 56					; 00000038H
	ret	0
$LN31@Uninit_cop@5:
??$_Uninit_copy@PEAU?$_vector3@M@@PEAU1@V?$xalloc@U?$_vector3@M@@@@@std@@YAPEAU?$_vector3@M@@PEAU1@00AEAV?$xalloc@U?$_vector3@M@@@@U_Nonscalar_ptr_iterator_tag@0@@Z ENDP ; std::_Uninit_copy<_vector3<float> * __ptr64,_vector3<float> * __ptr64,xalloc<_vector3<float> > >
; Function compile flags: /Ogtpy
_TEXT	ENDS
;	COMDAT text$x
text$x	SEGMENT
$T115333 = 32
_First$ = 64
_Last$ = 72
_Dest$ = 80
?catch$0@?0???$_Uninit_copy@PEAU?$_vector3@M@@PEAU1@V?$xalloc@U?$_vector3@M@@@@@std@@YAPEAU?$_vector3@M@@PEAU1@00AEAV?$xalloc@U?$_vector3@M@@@@U_Nonscalar_ptr_iterator_tag@0@@Z@4HA PROC ; `std::_Uninit_copy<_vector3<float> * __ptr64,_vector3<float> * __ptr64,xalloc<_vector3<float> > >'::`1'::catch$0

; 377  : 	_CATCH_ALL

	mov	QWORD PTR [rsp+16], rdx
	push	rbp
	sub	rsp, 32					; 00000020H
	mov	rbp, rdx
__catch$??$_Uninit_copy@PEAU?$_vector3@M@@PEAU1@V?$xalloc@U?$_vector3@M@@@@@std@@YAPEAU?$_vector3@M@@PEAU1@00AEAV?$xalloc@U?$_vector3@M@@@@U_Nonscalar_ptr_iterator_tag@0@@Z$0:

; 378  : 	for (; _Next != _Dest; ++_Next)
; 379  : 		_Dest_val(_Al, _Next);
; 380  : 	_RERAISE;

	xor	edx, edx
	xor	ecx, ecx
	call	_CxxThrowException
	npad	1
?catch$0@?0???$_Uninit_copy@PEAU?$_vector3@M@@PEAU1@V?$xalloc@U?$_vector3@M@@@@@std@@YAPEAU?$_vector3@M@@PEAU1@00AEAV?$xalloc@U?$_vector3@M@@@@U_Nonscalar_ptr_iterator_tag@0@@Z@4HA ENDP ; `std::_Uninit_copy<_vector3<float> * __ptr64,_vector3<float> * __ptr64,xalloc<_vector3<float> > >'::`1'::catch$0
text$x	ENDS
;	COMDAT pdata
; File c:\program files (x86)\microsoft visual studio 10.0\vc\include\utility
pdata	SEGMENT
$pdata$??$_Uninit_copy@V?$_Vector_const_iterator@V?$_Vector_val@U?$_vector3@M@@V?$xalloc@U?$_vector3@M@@@@@std@@@std@@PEAU?$_vector3@M@@V?$xalloc@U?$_vector3@M@@@@@std@@YAPEAU?$_vector3@M@@V?$_Vector_const_iterator@V?$_Vector_val@U?$_vector3@M@@V?$xalloc@U?$_vector3@M@@@@@std@@@0@0PEAU1@AEAV?$xalloc@U?$_vector3@M@@@@U_Nonscalar_ptr_iterator_tag@0@@Z DD imagerel $LN45
	DD	imagerel $LN45+90
	DD	imagerel $unwind$??$_Uninit_copy@V?$_Vector_const_iterator@V?$_Vector_val@U?$_vector3@M@@V?$xalloc@U?$_vector3@M@@@@@std@@@std@@PEAU?$_vector3@M@@V?$xalloc@U?$_vector3@M@@@@@std@@YAPEAU?$_vector3@M@@V?$_Vector_const_iterator@V?$_Vector_val@U?$_vector3@M@@V?$xalloc@U?$_vector3@M@@@@@std@@@0@0PEAU1@AEAV?$xalloc@U?$_vector3@M@@@@U_Nonscalar_ptr_iterator_tag@0@@Z
pdata	ENDS
;	COMDAT pdata
pdata	SEGMENT
$pdata$?catch$0@?0???$_Uninit_copy@V?$_Vector_const_iterator@V?$_Vector_val@U?$_vector3@M@@V?$xalloc@U?$_vector3@M@@@@@std@@@std@@PEAU?$_vector3@M@@V?$xalloc@U?$_vector3@M@@@@@std@@YAPEAU?$_vector3@M@@V?$_Vector_const_iterator@V?$_Vector_val@U?$_vector3@M@@V?$xalloc@U?$_vector3@M@@@@@std@@@0@0PEAU1@AEAV?$xalloc@U?$_vector3@M@@@@U_Nonscalar_ptr_iterator_tag@0@@Z@4HA DD imagerel ?catch$0@?0???$_Uninit_copy@V?$_Vector_const_iterator@V?$_Vector_val@U?$_vector3@M@@V?$xalloc@U?$_vector3@M@@@@@std@@@std@@PEAU?$_vector3@M@@V?$xalloc@U?$_vector3@M@@@@@std@@YAPEAU?$_vector3@M@@V?$_Vector_const_iterator@V?$_Vector_val@U?$_vector3@M@@V?$xalloc@U?$_vector3@M@@@@@std@@@0@0PEAU1@AEAV?$xalloc@U?$_vector3@M@@@@U_Nonscalar_ptr_iterator_tag@0@@Z@4HA
	DD	imagerel ?catch$0@?0???$_Uninit_copy@V?$_Vector_const_iterator@V?$_Vector_val@U?$_vector3@M@@V?$xalloc@U?$_vector3@M@@@@@std@@@std@@PEAU?$_vector3@M@@V?$xalloc@U?$_vector3@M@@@@@std@@YAPEAU?$_vector3@M@@V?$_Vector_const_iterator@V?$_Vector_val@U?$_vector3@M@@V?$xalloc@U?$_vector3@M@@@@@std@@@0@0PEAU1@AEAV?$xalloc@U?$_vector3@M@@@@U_Nonscalar_ptr_iterator_tag@0@@Z@4HA+23
	DD	imagerel $unwind$?catch$0@?0???$_Uninit_copy@V?$_Vector_const_iterator@V?$_Vector_val@U?$_vector3@M@@V?$xalloc@U?$_vector3@M@@@@@std@@@std@@PEAU?$_vector3@M@@V?$xalloc@U?$_vector3@M@@@@@std@@YAPEAU?$_vector3@M@@V?$_Vector_const_iterator@V?$_Vector_val@U?$_vector3@M@@V?$xalloc@U?$_vector3@M@@@@@std@@@0@0PEAU1@AEAV?$xalloc@U?$_vector3@M@@@@U_Nonscalar_ptr_iterator_tag@0@@Z@4HA
pdata	ENDS
;	COMDAT xdata
xdata	SEGMENT
$ip2state$??$_Uninit_copy@V?$_Vector_const_iterator@V?$_Vector_val@U?$_vector3@M@@V?$xalloc@U?$_vector3@M@@@@@std@@@std@@PEAU?$_vector3@M@@V?$xalloc@U?$_vector3@M@@@@@std@@YAPEAU?$_vector3@M@@V?$_Vector_const_iterator@V?$_Vector_val@U?$_vector3@M@@V?$xalloc@U?$_vector3@M@@@@@std@@@0@0PEAU1@AEAV?$xalloc@U?$_vector3@M@@@@U_Nonscalar_ptr_iterator_tag@0@@Z DD imagerel ??$_Uninit_copy@V?$_Vector_const_iterator@V?$_Vector_val@U?$_vector3@M@@V?$xalloc@U?$_vector3@M@@@@@std@@@std@@PEAU?$_vector3@M@@V?$xalloc@U?$_vector3@M@@@@@std@@YAPEAU?$_vector3@M@@V?$_Vector_const_iterator@V?$_Vector_val@U?$_vector3@M@@V?$xalloc@U?$_vector3@M@@@@@std@@@0@0PEAU1@AEAV?$xalloc@U?$_vector3@M@@@@U_Nonscalar_ptr_iterator_tag@0@@Z
	DD	0ffffffffH
	DD	imagerel ??$_Uninit_copy@V?$_Vector_const_iterator@V?$_Vector_val@U?$_vector3@M@@V?$xalloc@U?$_vector3@M@@@@@std@@@std@@PEAU?$_vector3@M@@V?$xalloc@U?$_vector3@M@@@@@std@@YAPEAU?$_vector3@M@@V?$_Vector_const_iterator@V?$_Vector_val@U?$_vector3@M@@V?$xalloc@U?$_vector3@M@@@@@std@@@0@0PEAU1@AEAV?$xalloc@U?$_vector3@M@@@@U_Nonscalar_ptr_iterator_tag@0@@Z+23
	DD	00H
	DD	imagerel ??$_Uninit_copy@V?$_Vector_const_iterator@V?$_Vector_val@U?$_vector3@M@@V?$xalloc@U?$_vector3@M@@@@@std@@@std@@PEAU?$_vector3@M@@V?$xalloc@U?$_vector3@M@@@@@std@@YAPEAU?$_vector3@M@@V?$_Vector_const_iterator@V?$_Vector_val@U?$_vector3@M@@V?$xalloc@U?$_vector3@M@@@@@std@@@0@0PEAU1@AEAV?$xalloc@U?$_vector3@M@@@@U_Nonscalar_ptr_iterator_tag@0@@Z+82
	DD	0ffffffffH
	DD	imagerel ?catch$0@?0???$_Uninit_copy@V?$_Vector_const_iterator@V?$_Vector_val@U?$_vector3@M@@V?$xalloc@U?$_vector3@M@@@@@std@@@std@@PEAU?$_vector3@M@@V?$xalloc@U?$_vector3@M@@@@@std@@YAPEAU?$_vector3@M@@V?$_Vector_const_iterator@V?$_Vector_val@U?$_vector3@M@@V?$xalloc@U?$_vector3@M@@@@@std@@@0@0PEAU1@AEAV?$xalloc@U?$_vector3@M@@@@U_Nonscalar_ptr_iterator_tag@0@@Z@4HA
	DD	00H
	DD	imagerel ?catch$0@?0???$_Uninit_copy@V?$_Vector_const_iterator@V?$_Vector_val@U?$_vector3@M@@V?$xalloc@U?$_vector3@M@@@@@std@@@std@@PEAU?$_vector3@M@@V?$xalloc@U?$_vector3@M@@@@@std@@YAPEAU?$_vector3@M@@V?$_Vector_const_iterator@V?$_Vector_val@U?$_vector3@M@@V?$xalloc@U?$_vector3@M@@@@@std@@@0@0PEAU1@AEAV?$xalloc@U?$_vector3@M@@@@U_Nonscalar_ptr_iterator_tag@0@@Z@4HA+13
	DD	01H
xdata	ENDS
;	COMDAT xdata
xdata	SEGMENT
$unwind$?catch$0@?0???$_Uninit_copy@V?$_Vector_const_iterator@V?$_Vector_val@U?$_vector3@M@@V?$xalloc@U?$_vector3@M@@@@@std@@@std@@PEAU?$_vector3@M@@V?$xalloc@U?$_vector3@M@@@@@std@@YAPEAU?$_vector3@M@@V?$_Vector_const_iterator@V?$_Vector_val@U?$_vector3@M@@V?$xalloc@U?$_vector3@M@@@@@std@@@0@0PEAU1@AEAV?$xalloc@U?$_vector3@M@@@@U_Nonscalar_ptr_iterator_tag@0@@Z@4HA DD 020a19H
	DD	05006320aH
	DD	imagerel __CxxFrameHandler3
	DD	imagerel $cppxdata$??$_Uninit_copy@V?$_Vector_const_iterator@V?$_Vector_val@U?$_vector3@M@@V?$xalloc@U?$_vector3@M@@@@@std@@@std@@PEAU?$_vector3@M@@V?$xalloc@U?$_vector3@M@@@@@std@@YAPEAU?$_vector3@M@@V?$_Vector_const_iterator@V?$_Vector_val@U?$_vector3@M@@V?$xalloc@U?$_vector3@M@@@@@std@@@0@0PEAU1@AEAV?$xalloc@U?$_vector3@M@@@@U_Nonscalar_ptr_iterator_tag@0@@Z
xdata	ENDS
;	COMDAT xdata
xdata	SEGMENT
$unwind$??$_Uninit_copy@V?$_Vector_const_iterator@V?$_Vector_val@U?$_vector3@M@@V?$xalloc@U?$_vector3@M@@@@@std@@@std@@PEAU?$_vector3@M@@V?$xalloc@U?$_vector3@M@@@@@std@@YAPEAU?$_vector3@M@@V?$_Vector_const_iterator@V?$_Vector_val@U?$_vector3@M@@V?$xalloc@U?$_vector3@M@@@@@std@@@0@0PEAU1@AEAV?$xalloc@U?$_vector3@M@@@@U_Nonscalar_ptr_iterator_tag@0@@Z DD 011719H
	DD	0620eH
	DD	imagerel __CxxFrameHandler3
	DD	imagerel $cppxdata$??$_Uninit_copy@V?$_Vector_const_iterator@V?$_Vector_val@U?$_vector3@M@@V?$xalloc@U?$_vector3@M@@@@@std@@@std@@PEAU?$_vector3@M@@V?$xalloc@U?$_vector3@M@@@@@std@@YAPEAU?$_vector3@M@@V?$_Vector_const_iterator@V?$_Vector_val@U?$_vector3@M@@V?$xalloc@U?$_vector3@M@@@@@std@@@0@0PEAU1@AEAV?$xalloc@U?$_vector3@M@@@@U_Nonscalar_ptr_iterator_tag@0@@Z
xdata	ENDS
;	COMDAT CONST
CONST	SEGMENT
$cppxdata$??$_Uninit_copy@V?$_Vector_const_iterator@V?$_Vector_val@U?$_vector3@M@@V?$xalloc@U?$_vector3@M@@@@@std@@@std@@PEAU?$_vector3@M@@V?$xalloc@U?$_vector3@M@@@@@std@@YAPEAU?$_vector3@M@@V?$_Vector_const_iterator@V?$_Vector_val@U?$_vector3@M@@V?$xalloc@U?$_vector3@M@@@@@std@@@0@0PEAU1@AEAV?$xalloc@U?$_vector3@M@@@@U_Nonscalar_ptr_iterator_tag@0@@Z DD 019930522H
	DD	02H
